(dp0
S'stats'
p1
(lp2
(lp3
V0020700005
p4
aVOCT 31, 2007
p5
aVMIL @ ORL
p6
aVL
p7
aI30
aI2
aI9
aF0.222
aI0
aI0
aF0.0
aI0
aI0
aF0.0
aI4
aI7
aI11
aI4
aI1
aI0
aI2
aI3
aI4
aI-14
aa(lp8
V0020700015
p9
aVNOV 02, 2007
p10
aVMIL @ CHA
p11
aVL
p12
aI34
aI5
aI11
aF0.455
aI0
aI0
aF0.0
aI1
aI4
aF0.25
aI6
aI11
aI17
aI2
aI0
aI5
aI1
aI6
aI11
aI3
aa(lp13
V0020700031
p14
aVNOV 03, 2007
p15
aVMIL vs. CHI
p16
aVW
p17
aI18
aI3
aI8
aF0.375
aI0
aI0
aF0.0
aI0
aI0
aF0.0
aI1
aI2
aI3
aI0
aI0
aI0
aI2
aI5
aI6
aI-7
aa(lp18
V0020700047
p19
aVNOV 06, 2007
p20
aVMIL vs. TOR
p21
aVW
p22
aI33
aI5
aI9
aF0.556
aI0
aI0
aF0.0
aI2
aI5
aF0.4
aI1
aI10
aI11
aI3
aI1
aI1
aI4
aI1
aI12
aI27
aa(lp23
V0020700074
p24
aVNOV 09, 2007
p25
aVMIL @ HOU
p26
aVL
p27
aI29
aI3
aI11
aF0.273
aI0
aI1
aF0.0
aI4
aI6
aF0.667
aI3
aI2
aI5
aI0
aI1
aI0
aI1
aI4
aI10
aI-6
aa(lp28
V0020700090
p29
aVNOV 11, 2007
p30
aVMIL @ SAS
p31
aVL
p32
aI21
aI5
aI9
aF0.556
aI0
aI0
aF0.0
aI0
aI0
aF0.0
aI1
aI2
aI3
aI2
aI0
aI1
aI1
aI5
aI10
aI-12
aa(lp33
V0020700110
p34
aVNOV 14, 2007
p35
aVMIL vs. MEM
p36
aVW
p37
aI41
aI9
aI14
aF0.643
aI0
aI0
aF0.0
aI5
aI9
aF0.556
aI4
aI8
aI12
aI0
aI0
aI4
aI2
aI3
aI23
aI5
aa(lp38
V0020700136
p39
aVNOV 17, 2007
p40
aVMIL vs. ATL
p41
aVW
p42
aI35
aI10
aI15
aF0.667
aI0
aI0
aF0.0
aI1
aI4
aF0.25
aI5
aI5
aI10
aI1
aI3
aI4
aI2
aI5
aI21
aI3
aa(lp43
V0020700151
p44
aVNOV 20, 2007
p45
aVMIL @ CLE
p46
aVW
p47
aI37
aI5
aI9
aF0.556
aI0
aI0
aF0.0
aI2
aI2
aF1.0
aI3
aI2
aI5
aI2
aI0
aI4
aI3
aI5
aI12
aI-1
aa(lp48
V0020700162
p49
aVNOV 21, 2007
p50
aVMIL vs. LAL
p51
aVW
p52
aI25
aI6
aI11
aF0.545
aI0
aI0
aF0.0
aI1
aI2
aF0.5
aI0
aI4
aI4
aI5
aI1
aI2
aI0
aI6
aI13
aI12
aa(lp53
V0020700190
p54
aVNOV 24, 2007
p55
aVMIL vs. DAL
p56
aVW
p57
aI39
aI6
aI12
aF0.5
aI0
aI0
aF0.0
aI4
aI7
aF0.571
aI3
aI11
aI14
aI2
aI1
aI2
aI0
aI3
aI16
aI-10
aa(lp58
V0020700207
p59
aVNOV 27, 2007
p60
aVMIL vs. PHI
p61
aVL
p62
aI28
aI2
aI7
aF0.286
aI0
aI0
aF0.0
aI2
aI2
aF1.0
aI4
aI4
aI8
aI1
aI0
aI2
aI2
aI2
aI6
aI-25
aa(lp63
V0020700213
p64
aVNOV 28, 2007
p65
aVMIL @ ATL
p66
aVL
p67
aI37
aI7
aI12
aF0.583
aI0
aI0
aF0.0
aI4
aI5
aF0.8
aI1
aI10
aI11
aI0
aI1
aI4
aI4
aI4
aI18
aI2
aa(lp68
V0020700226
p69
aVNOV 30, 2007
p70
aVMIL @ NYK
p71
aVL
p72
aI31
aI5
aI6
aF0.833
aI0
aI0
aF0.0
aI0
aI0
aF0.0
aI0
aI9
aI9
aI0
aI0
aI3
aI3
aI3
aI10
aI-3
aa(lp73
V0020700240
p74
aVDEC 01, 2007
p75
aVMIL vs. DET
p76
aVL
p77
aI23
aI5
aI8
aF0.625
aI0
aI0
aF0.0
aI0
aI0
aF0.0
aI0
aI3
aI3
aI1
aI0
aI0
aI1
aI4
aI10
aI-8
aa(lp78
V0020700261
p79
aVDEC 04, 2007
p80
aVMIL @ LAC
p81
aVW
p82
aI40
aI8
aI10
aF0.8
aI0
aI0
aF0.0
aI3
aI5
aF0.6
aI3
aI9
aI12
aI2
aI1
aI4
aI1
aI3
aI19
aI10
aa(lp83
V0020700271
p84
aVDEC 05, 2007
p85
aVMIL @ GSW
p86
aVL
p87
aI28
aI4
aI5
aF0.8
aI0
aI0
aF0.0
aI2
aI5
aF0.4
aI3
aI5
aI8
aI2
aI0
aI2
aI3
aI3
aI10
aI-15
aa(lp88
V0020700286
p89
aVDEC 07, 2007
p90
aVMIL @ SEA
p91
aVL
p92
aI41
aI6
aI16
aF0.375
aI0
aI1
aF0.0
aI1
aI2
aF0.5
aI3
aI8
aI11
aI3
aI1
aI3
aI2
aI6
aI13
aI-16
aa(lp93
V0020700297
p94
aVDEC 09, 2007
p95
aVMIL @ POR
p96
aVL
p97
aI43
aI8
aI16
aF0.5
aI0
aI0
aF0.0
aI5
aI6
aF0.833
aI4
aI1
aI5
aI1
aI1
aI0
aI2
aI5
aI21
aI-25
aa(lp98
V0020700305
p99
aVDEC 10, 2007
p100
aVMIL @ SAC
p101
aVL
p102
aI39
aI6
aI15
aF0.4
aI0
aI0
aF0.0
aI2
aI4
aF0.5
aI5
aI4
aI9
aI4
aI0
aI0
aI3
aI5
aI14
aI6
aa(lp103
V0020700320
p104
aVDEC 12, 2007
p105
aVMIL vs. ORL
p106
aVW
p107
aI31
aI5
aI7
aF0.714
aI0
aI0
aF0.0
aI1
aI2
aF0.5
aI0
aI9
aI9
aI2
aI1
aI1
aI4
aI6
aI11
aI12
aa(lp108
V0020700330
p109
aVDEC 14, 2007
p110
aVMIL @ BOS
p111
aVL
p112
aI23
aI1
aI3
aF0.333
aI0
aI0
aF0.0
aI2
aI4
aF0.5
aI1
aI2
aI3
aI3
aI1
aI0
aI2
aI2
aI4
aI-9
aa(lp113
V0020700346
p114
aVDEC 15, 2007
p115
aVMIL vs. MIN
p116
aVW
p117
aI38
aI4
aI10
aF0.4
aI0
aI0
aF0.0
aI0
aI0
aF0.0
aI4
aI9
aI13
aI5
aI0
aI0
aI1
aI5
aI8
aI6
aa(lp118
V0020700355
p119
aVDEC 17, 2007
p120
aVMIL @ CLE
p121
aVL
p122
aI40
aI4
aI7
aF0.571
aI0
aI0
aF0.0
aI0
aI2
aF0.0
aI1
aI7
aI8
aI1
aI0
aI2
aI3
aI5
aI8
aI-5
aa(lp123
V0020700371
p124
aVDEC 19, 2007
p125
aVMIL vs. SAC
p126
aVL
p127
aI37
aI6
aI10
aF0.6
aI0
aI0
aF0.0
aI0
aI2
aF0.0
aI4
aI7
aI11
aI4
aI3
aI5
aI4
aI2
aI12
aI-9
aa(lp128
V0020700397
p129
aVDEC 22, 2007
p130
aVMIL vs. CHA
p131
aVW
p132
aI38
aI6
aI13
aF0.462
aI0
aI0
aF0.0
aI2
aI3
aF0.667
aI6
aI4
aI10
aI1
aI0
aI2
aI1
aI3
aI14
aI1
aa(lp133
V0020700415
p134
aVDEC 26, 2007
p135
aVMIL @ DEN
p136
aVL
p137
aI27
aI2
aI8
aF0.25
aI0
aI0
aF0.0
aI2
aI2
aF1.0
aI4
aI5
aI9
aI1
aI2
aI1
aI2
aI4
aI6
aI-16
aa(lp138
V0020700427
p139
aVDEC 28, 2007
p140
aVMIL @ CHI
p141
aVL
p142
aI38
aI7
aI14
aF0.5
aI0
aI0
aF0.0
aI1
aI4
aF0.25
aI4
aI7
aI11
aI3
aI1
aI2
aI2
aI1
aI15
aI-2
aa(lp143
V0020700439
p144
aVDEC 29, 2007
p145
aVMIL vs. NJN
p146
aVL
p147
aI38
aI2
aI8
aF0.25
aI0
aI0
aF0.0
aI1
aI4
aF0.25
aI4
aI5
aI9
aI5
aI2
aI2
aI2
aI2
aI5
aI4
aa(lp148
V0020700451
p149
aVDEC 31, 2007
p150
aVMIL @ DET
p151
aVL
p152
aI32
aI4
aI8
aF0.5
aI0
aI0
aF0.0
aI0
aI0
aF0.0
aI3
aI4
aI7
aI2
aI2
aI0
aI2
aI1
aI8
aI-26
aa(lp153
V0020700464
p154
aVJAN 02, 2008
p155
aVMIL @ MIA
p156
aVW
p157
aI39
aI5
aI10
aF0.5
aI0
aI0
aF0.0
aI3
aI5
aF0.6
aI1
aI11
aI12
aI2
aI0
aI1
aI2
aI4
aI13
aI4
aa(lp158
V0020700479
p159
aVJAN 04, 2008
p160
aVMIL vs. WAS
p161
aVL
p162
aI29
aI5
aI13
aF0.385
aI0
aI0
aF0.0
aI0
aI0
aF0.0
aI3
aI4
aI7
aI4
aI0
aI0
aI1
aI1
aI10
aI-25
aa(lp163
V0020700495
p164
aVJAN 06, 2008
p165
aVMIL @ CHA
p166
aVW
p167
aI35
aI10
aI15
aF0.667
aI0
aI1
aF0.0
aI5
aI7
aF0.714
aI2
aI6
aI8
aI3
aI0
aI0
aI1
aI4
aI25
aI14
aa(lp168
V0020700500
p169
aVJAN 08, 2008
p170
aVMIL @ PHI
p171
aVW
p172
aI40
aI5
aI9
aF0.556
aI0
aI0
aF0.0
aI3
aI4
aF0.75
aI4
aI8
aI12
aI3
aI1
aI3
aI4
aI4
aI13
aI1
aa(lp173
V0020700514
p174
aVJAN 09, 2008
p175
aVMIL vs. MIA
p176
aVW
p177
aI37
aI7
aI9
aF0.778
aI0
aI0
aF0.0
aI3
aI4
aF0.75
aI2
aI6
aI8
aI2
aI3
aI0
aI3
aI5
aI17
aI-1
aa(lp178
V0020700531
p179
aVJAN 11, 2008
p180
aVMIL @ LAL
p181
aVL
p182
aI30
aI5
aI12
aF0.417
aI0
aI1
aF0.0
aI4
aI5
aF0.8
aI2
aI9
aI11
aI5
aI0
aI2
aI1
aI5
aI14
aI-9
aa(lp183
V0020700538
p184
aVJAN 12, 2008
p185
aVMIL @ PHX
p186
aVL
p187
aI37
aI14
aI16
aF0.875
aI0
aI0
aF0.0
aI1
aI4
aF0.25
aI3
aI8
aI11
aI3
aI0
aI0
aI1
aI3
aI29
aI-1
aa(lp188
V0020700551
p189
aVJAN 14, 2008
p190
aVMIL @ UTA
p191
aVL
p192
aI40
aI9
aI12
aF0.75
aI0
aI0
aF0.0
aI5
aI8
aF0.625
aI2
aI8
aI10
aI3
aI0
aI1
aI4
aI5
aI23
aI-12
aa(lp193
V0020700568
p194
aVJAN 16, 2008
p195
aVMIL vs. ATL
p196
aVW
p197
aI40
aI8
aI14
aF0.571
aI0
aI0
aF0.0
aI5
aI8
aF0.625
aI4
aI6
aI10
aI2
aI0
aI4
aI1
aI0
aI21
aI9
aa(lp198
V0020700589
p199
aVJAN 19, 2008
p200
aVMIL vs. GSW
p201
aVL
p202
aI38
aI7
aI14
aF0.5
aI0
aI1
aF0.0
aI7
aI9
aF0.778
aI3
aI7
aI10
aI3
aI2
aI1
aI6
aI4
aI21
aI-13
aa(lp203
V0020700601
p204
aVJAN 21, 2008
p205
aVMIL @ NOH
p206
aVL
p207
aI36
aI6
aI14
aF0.429
aI0
aI0
aF0.0
aI1
aI4
aF0.25
aI5
aI10
aI15
aI2
aI0
aI2
aI2
aI3
aI13
aI-13
aa(lp208
V0020700608
p209
aVJAN 22, 2008
p210
aVMIL vs. PHX
p211
aVL
p212
aI41
aI9
aI16
aF0.563
aI0
aI0
aF0.0
aI1
aI2
aF0.5
aI5
aI8
aI13
aI4
aI1
aI1
aI2
aI2
aI19
aI-4
aa(lp213
V0020700623
p214
aVJAN 24, 2008
p215
aVMIL vs. IND
p216
aVW
p217
aI31
aI7
aI11
aF0.636
aI0
aI0
aF0.0
aI3
aI7
aF0.429
aI0
aI7
aI7
aI3
aI0
aI3
aI2
aI3
aI17
aI10
aa(lp218
V0020700625
p219
aVJAN 25, 2008
p220
aVMIL @ TOR
p221
aVL
p222
aI19
aI3
aI5
aF0.6
aI0
aI0
aF0.0
aI2
aI6
aF0.333
aI0
aI2
aI2
aI1
aI0
aI0
aI2
aI3
aI8
aI-19
aa(lp223
V0020700645
p224
aVJAN 27, 2008
p225
aVMIL vs. WAS
p226
aVW
p227
aI41
aI8
aI17
aF0.471
aI0
aI0
aF0.0
aI2
aI2
aF1.0
aI6
aI9
aI15
aI6
aI1
aI0
aI2
aI4
aI18
aI10
aa(lp228
V0020700658
p229
aVJAN 29, 2008
p230
aVMIL @ NJN
p231
aVL
p232
aI39
aI5
aI9
aF0.556
aI0
aI0
aF0.0
aI1
aI5
aF0.2
aI2
aI7
aI9
aI2
aI2
aI2
aI2
aI3
aI11
aI0
aa(lp233
V0020700666
p234
aVJAN 30, 2008
p235
aVMIL @ PHI
p236
aVL
p237
aI30
aI2
aI8
aF0.25
aI0
aI0
aF0.0
aI1
aI2
aF0.5
aI1
aI3
aI4
aI4
aI2
aI3
aI5
aI5
aI5
aI-20
aa(lp238
V0020700692
p239
aVFEB 02, 2008
p240
aVMIL vs. HOU
p241
aVL
p242
aI43
aI10
aI20
aF0.5
aI0
aI0
aF0.0
aI1
aI3
aF0.333
aI2
aI3
aI5
aI0
aI0
aI4
aI1
aI5
aI21
aI-8
aa(lp243
V0020700711
p244
aVFEB 05, 2008
p245
aVMIL @ MEM
p246
aVW
p247
aI37
aI5
aI14
aF0.357
aI0
aI0
aF0.0
aI2
aI2
aF1.0
aI1
aI4
aI5
aI3
aI1
aI1
aI1
aI1
aI12
aI5
aa(lp248
V0020700718
p249
aVFEB 06, 2008
p250
aVMIL @ DAL
p251
aVL
p252
aI37
aI10
aI19
aF0.526
aI0
aI0
aF0.0
aI4
aI5
aF0.8
aI3
aI11
aI14
aI2
aI1
aI1
aI2
aI1
aI24
aI-17
aa(lp253
V0020700740
p254
aVFEB 09, 2008
p255
aVMIL vs. NYK
p256
aVL
p257
aI27
aI3
aI7
aF0.429
aI0
aI0
aF0.0
aI3
aI5
aF0.6
aI3
aI3
aI6
aI4
aI0
aI4
aI2
aI6
aI9
aI-8
aa(lp258
V0020700755
p259
aVFEB 11, 2008
p260
aVMIL vs. LAC
p261
aVL
p262
aI34
aI4
aI16
aF0.25
aI0
aI0
aF0.0
aI2
aI2
aF1.0
aI6
aI5
aI11
aI2
aI0
aI4
aI0
aI3
aI10
aI-10
aa(lp263
V0020700771
p264
aVFEB 13, 2008
p265
aVMIL vs. NOH
p266
aVL
p267
aI33
aI3
aI8
aF0.375
aI0
aI0
aF0.0
aI2
aI2
aF1.0
aI3
aI4
aI7
aI4
aI0
aI0
aI0
aI0
aI8
aI1
aa(lp268
V0020700794
p269
aVFEB 20, 2008
p270
aVMIL vs. DET
p271
aVW
p272
aI36
aI5
aI15
aF0.333
aI0
aI0
aF0.0
aI4
aI7
aF0.571
aI7
aI7
aI14
aI2
aI0
aI2
aI2
aI2
aI14
aI0
aa(lp273
V0020700808
p274
aVFEB 22, 2008
p275
aVMIL @ DET
p276
aVL
p277
aI28
aI4
aI10
aF0.4
aI0
aI0
aF0.0
aI3
aI3
aF1.0
aI3
aI2
aI5
aI1
aI0
aI0
aI1
aI0
aI11
aI-20
aa(lp278
V0020700819
p279
aVFEB 23, 2008
p280
aVMIL vs. DEN
p281
aVW
p282
aI44
aI5
aI11
aF0.455
aI0
aI0
aF0.0
aI2
aI2
aF1.0
aI7
aI13
aI20
aI2
aI1
aI1
aI4
aI4
aI12
aI13
aa(lp283
V0020700839
p284
aVFEB 26, 2008
p285
aVMIL vs. CLE
p286
aVW
p287
aI39
aI5
aI15
aF0.333
aI0
aI0
aF0.0
aI6
aI10
aF0.6
aI4
aI4
aI8
aI0
aI2
aI1
aI1
aI2
aI16
aI5
aa(lp288
V0020700855
p289
aVFEB 28, 2008
p290
aVMIL @ NJN
p291
aVL
p292
aI36
aI11
aI16
aF0.688
aI0
aI0
aF0.0
aI0
aI0
aF0.0
aI3
aI12
aI15
aI4
aI1
aI2
aI3
aI5
aI22
aI-1
aa(lp293
V0020700872
p294
aVMAR 01, 2008
p295
aVMIL vs. SAS
p296
aVL
p297
aI41
aI6
aI13
aF0.462
aI0
aI0
aF0.0
aI5
aI10
aF0.5
aI6
aI9
aI15
aI2
aI2
aI2
aI0
aI3
aI17
aI-1
aa(lp298
V0020700881
p299
aVMAR 02, 2008
p300
aVMIL @ IND
p301
aVL
p302
aI28
aI5
aI9
aF0.556
aI0
aI0
aF0.0
aI3
aI6
aF0.5
aI2
aI7
aI9
aI4
aI0
aI1
aI1
aI3
aI13
aI-3
aa(lp303
V0020700902
p304
aVMAR 05, 2008
p305
aVMIL vs. SEA
p306
aVW
p307
aI41
aI9
aI15
aF0.6
aI0
aI0
aF0.0
aI3
aI8
aF0.375
aI4
aI9
aI13
aI7
aI2
aI4
aI3
aI4
aI21
aI16
aa(lp308
V0020700919
p309
aVMAR 07, 2008
p310
aVMIL vs. POR
p311
aVL
p312
aI34
aI5
aI9
aF0.556
aI0
aI0
aF0.0
aI2
aI4
aF0.5
aI1
aI6
aI7
aI3
aI1
aI0
aI0
aI0
aI12
aI-13
aa(lp313
V0020700935
p314
aVMAR 09, 2008
p315
aVMIL vs. PHI
p316
aVL
p317
aI27
aI0
aI4
aF0.0
aI0
aI0
aF0.0
aI1
aI2
aF0.5
aI0
aI2
aI2
aI7
aI2
aI0
aI2
aI2
aI1
aI0
aa(lp318
V0020700946
p319
aVMAR 11, 2008
p320
aVMIL @ WAS
p321
aVL
p322
aI40
aI11
aI22
aF0.5
aI0
aI0
aF0.0
aI1
aI3
aF0.333
aI6
aI6
aI12
aI2
aI1
aI3
aI2
aI4
aI23
aI-5
aa(lp323
V0020700958
p324
aVMAR 12, 2008
p325
aVMIL vs. UTA
p326
aVL
p327
aI36
aI4
aI9
aF0.444
aI0
aI0
aF0.0
aI3
aI3
aF1.0
aI4
aI11
aI15
aI3
aI1
aI5
aI2
aI4
aI11
aI-11
aa(lp328
V0020701036
p329
aVMAR 22, 2008
p330
aVMIL vs. CLE
p331
aVW
p332
aI41
aI8
aI19
aF0.421
aI0
aI0
aF0.0
aI0
aI2
aF0.0
aI2
aI13
aI15
aI2
aI0
aI3
aI2
aI2
aI16
aI15
aa(lp333
V0020701046
p334
aVMAR 24, 2008
p335
aVMIL @ MIA
p336
aVL
p337
aI40
aI6
aI14
aF0.429
aI0
aI1
aF0.0
aI4
aI6
aF0.667
aI7
aI10
aI17
aI2
aI1
aI0
aI4
aI4
aI16
aI-6
aa(lp338
V0020701061
p339
aVMAR 26, 2008
p340
aVMIL @ ATL
p341
aVL
p342
aI31
aI11
aI18
aF0.611
aI0
aI0
aF0.0
aI5
aI6
aF0.833
aI6
aI3
aI9
aI4
aI1
aI3
aI3
aI2
aI27
aI-16
aa(lp343
V0020701107
p344
aVAPR 01, 2008
p345
aVMIL vs. NYK
p346
aVW
p347
aI40
aI9
aI14
aF0.643
aI0
aI0
aF0.0
aI6
aI8
aF0.75
aI3
aI10
aI13
aI0
aI1
aI0
aI5
aI2
aI24
aI-1
aa(lp348
V0020701113
p349
aVAPR 02, 2008
p350
aVMIL @ WAS
p351
aVW
p352
aI35
aI8
aI12
aF0.667
aI0
aI0
aF0.0
aI4
aI6
aF0.667
aI3
aI7
aI10
aI5
aI0
aI1
aI3
aI2
aI20
aI4
aa(lp353
V0020701132
p354
aVAPR 04, 2008
p355
aVMIL vs. IND
p356
aVL
p357
aI40
aI8
aI17
aF0.471
aI0
aI0
aF0.0
aI5
aI9
aF0.556
aI4
aI12
aI16
aI1
aI1
aI3
aI2
aI4
aI21
aI-5
aa(lp358
V0020701146
p359
aVAPR 06, 2008
p360
aVMIL @ IND
p361
aVL
p362
aI39
aI6
aI8
aF0.75
aI0
aI0
aF0.0
aI4
aI8
aF0.5
aI4
aI10
aI14
aI3
aI1
aI3
aI3
aI3
aI16
aI6
aa(lp363
V0020701157
p364
aVAPR 08, 2008
p365
aVMIL vs. BOS
p366
aVL
p367
aI46
aI5
aI14
aF0.357
aI0
aI0
aF0.0
aI5
aI7
aF0.714
aI5
aI10
aI15
aI5
aI2
aI4
aI10
aI3
aI15
aI-1
aa(lp368
V0020701164
p369
aVAPR 09, 2008
p370
aVMIL @ TOR
p371
aVL
p372
aI33
aI5
aI10
aF0.5
aI0
aI0
aF0.0
aI0
aI0
aF0.0
aI5
aI4
aI9
aI2
aI1
aI2
aI2
aI3
aI10
aI-26
aa(lp373
V0020701180
p374
aVAPR 11, 2008
p375
aVMIL @ BOS
p376
aVL
p377
aI35
aI6
aI12
aF0.5
aI0
aI1
aF0.0
aI2
aI2
aF1.0
aI1
aI5
aI6
aI3
aI1
aI0
aI0
aI4
aI14
aI-17
aa(lp378
V0020701192
p379
aVAPR 12, 2008
p380
aVMIL vs. NJN
p381
aVL
p382
aI35
aI2
aI6
aF0.333
aI0
aI0
aF0.0
aI3
aI4
aF0.75
aI2
aI6
aI8
aI1
aI2
aI0
aI5
aI1
aI7
aI-26
aa(lp383
V0020701207
p384
aVAPR 14, 2008
p385
aVMIL vs. CHI
p386
aVL
p387
aI30
aI8
aI11
aF0.727
aI0
aI0
aF0.0
aI9
aI14
aF0.643
aI3
aI5
aI8
aI3
aI2
aI2
aI2
aI3
aI25
aI-20
aa(lp388
V0020701224
p389
aVAPR 16, 2008
p390
aVMIL @ MIN
p391
aVL
p392
aI39
aI12
aI18
aF0.667
aI0
aI0
aF0.0
aI0
aI0
aF0.0
aI5
aI10
aI15
aI2
aI0
aI0
aI1
aI2
aI24
aI-12
aasS'name'
p393
VAndrew Bogut
p394
sS'weight'
p395
V260
p396
sS'age'
p397
I23
sS'experience'
p398
I2
sS'height'
p399
V7-0
p400
sS'position'
p401
VCenter
p402
s.