(dp0
S'stats'
p1
(lp2
(lp3
V0020700056
p4
aVNOV 07, 2007
p5
aVATL vs. PHX
p6
aVW
p7
aI18
aI4
aI6
aF0.667
aI2
aI4
aF0.5
aI0
aI0
aF0.0
aI0
aI0
aI0
aI2
aI0
aI1
aI1
aI0
aI10
aI9
aa(lp8
V0020700068
p9
aVNOV 09, 2007
p10
aVATL @ BOS
p11
aVL
p12
aI11
aI1
aI4
aF0.25
aI0
aI2
aF0.0
aI3
aI4
aF0.75
aI0
aI1
aI1
aI1
aI0
aI0
aI1
aI1
aI5
aI-12
aa(lp13
V0020700086
p14
aVNOV 11, 2007
p15
aVATL vs. WAS
p16
aVL
p17
aI6
aI1
aI4
aF0.25
aI0
aI1
aF0.0
aI0
aI0
aF0.0
aI0
aI0
aI0
aI0
aI0
aI0
aI0
aI0
aI2
aI0
aa(lp18
V0020700106
p19
aVNOV 14, 2007
p20
aVATL vs. CHA
p21
aVW
p22
aI8
aI1
aI1
aF1.0
aI1
aI1
aF1.0
aI0
aI0
aF0.0
aI0
aI0
aI0
aI0
aI0
aI0
aI0
aI3
aI3
aI4
aa(lp23
V0020700123
p24
aVNOV 16, 2007
p25
aVATL vs. SEA
p26
aVL
p27
aI37
aI3
aI12
aF0.25
aI1
aI8
aF0.125
aI4
aI5
aF0.8
aI0
aI2
aI2
aI3
aI0
aI0
aI1
aI2
aI11
aI3
aa(lp28
V0020700136
p29
aVNOV 17, 2007
p30
aVATL @ MIL
p31
aVL
p32
aI1
aI0
aI0
aF0.0
aI0
aI0
aF0.0
aI0
aI0
aF0.0
aI0
aI0
aI0
aI0
aI0
aI0
aI0
aI0
aI0
aI-2
aa(lp33
V0020700208
p34
aVNOV 27, 2007
p35
aVATL @ CHI
p36
aVL
p37
aI10
aI4
aI6
aF0.667
aI1
aI2
aF0.5
aI1
aI2
aF0.5
aI0
aI0
aI0
aI1
aI0
aI0
aI0
aI1
aI10
aI9
aa(lp38
V0020700251
p39
aVDEC 03, 2007
p40
aVATL @ PHI
p41
aVW
p42
aI4
aI0
aI2
aF0.0
aI0
aI2
aF0.0
aI0
aI0
aF0.0
aI0
aI0
aI0
aI0
aI0
aI0
aI0
aI0
aI0
aI-9
aa(lp43
V0020700256
p44
aVDEC 04, 2007
p45
aVATL vs. DET
p46
aVL
p47
aI15
aI4
aI9
aF0.444
aI3
aI6
aF0.5
aI4
aI4
aF1.0
aI1
aI1
aI2
aI3
aI1
aI0
aI1
aI0
aI15
aI11
aa(lp48
V0020700273
p49
aVDEC 06, 2007
p50
aVATL vs. MIN
p51
aVW
p52
aI4
aI0
aI4
aF0.0
aI0
aI3
aF0.0
aI0
aI0
aF0.0
aI0
aI0
aI0
aI1
aI0
aI0
aI0
aI0
aI0
aI-7
aa(lp53
V0020700288
p54
aVDEC 08, 2007
p55
aVATL vs. MEM
p56
aVW
p57
aI17
aI1
aI5
aF0.2
aI1
aI3
aF0.333
aI2
aI2
aF1.0
aI0
aI2
aI2
aI1
aI1
aI1
aI2
aI2
aI5
aI-13
aa(lp58
V0020700302
p59
aVDEC 10, 2007
p60
aVATL @ ORL
p61
aVW
p62
aI6
aI0
aI4
aF0.0
aI0
aI2
aF0.0
aI0
aI0
aF0.0
aI0
aI1
aI1
aI0
aI0
aI0
aI0
aI0
aI0
aI-1
aa(lp63
V0020700307
p64
aVDEC 11, 2007
p65
aVATL vs. TOR
p66
aVL
p67
aI2
aI0
aI1
aF0.0
aI0
aI0
aF0.0
aI0
aI0
aF0.0
aI0
aI0
aI0
aI0
aI0
aI0
aI0
aI1
aI0
aI-2
aa(lp68
V0020700332
p69
aVDEC 14, 2007
p70
aVATL @ DET
p71
aVL
p72
aI11
aI0
aI1
aF0.0
aI0
aI0
aF0.0
aI0
aI0
aF0.0
aI0
aI0
aI0
aI0
aI0
aI0
aI0
aI1
aI0
aI-6
aa(lp73
V0020700662
p74
aVJAN 29, 2008
p75
aVATL @ PHX
p76
aVL
p77
aI13
aI1
aI7
aF0.143
aI1
aI2
aF0.5
aI0
aI0
aF0.0
aI1
aI1
aI2
aI1
aI0
aI2
aI0
aI0
aI3
aI-1
aa(lp78
V0020700789
p79
aVFEB 19, 2008
p80
aVATL @ LAL
p81
aVL
p82
aI8
aI1
aI5
aF0.2
aI0
aI0
aF0.0
aI0
aI0
aF0.0
aI0
aI0
aI0
aI0
aI0
aI0
aI0
aI1
aI2
aI-6
aa(lp83
V0020700797
p84
aVFEB 20, 2008
p85
aVATL @ SAC
p86
aVL
p87
aI1
aI0
aI0
aF0.0
aI0
aI0
aF0.0
aI0
aI0
aF0.0
aI0
aI0
aI0
aI0
aI0
aI0
aI0
aI0
aI0
aI1
aa(lp88
V0020700814
p89
aVFEB 22, 2008
p90
aVATL @ GSW
p91
aVW
p92
aI23
aI6
aI11
aF0.545
aI2
aI5
aF0.4
aI4
aI5
aF0.8
aI0
aI2
aI2
aI1
aI2
aI0
aI1
aI2
aI18
aI2
aa(lp93
V0020700821
p94
aVFEB 23, 2008
p95
aVATL @ UTA
p96
aVL
p97
aI10
aI1
aI5
aF0.2
aI0
aI2
aF0.0
aI2
aI2
aF1.0
aI0
aI0
aI0
aI0
aI0
aI0
aI2
aI2
aI4
aI-17
aa(lp98
V0020700834
p99
aVFEB 25, 2008
p100
aVATL @ SAS
p101
aVL
p102
aI12
aI2
aI6
aF0.333
aI2
aI2
aF1.0
aI3
aI4
aF0.75
aI1
aI0
aI1
aI0
aI0
aI0
aI0
aI1
aI9
aI-7
aa(lp103
V0020700847
p104
aVFEB 27, 2008
p105
aVATL vs. SAC
p106
aVW
p107
aI11
aI0
aI5
aF0.0
aI0
aI2
aF0.0
aI0
aI0
aF0.0
aI0
aI0
aI0
aI2
aI0
aI0
aI1
aI2
aI0
aI1
aa(lp108
V0020700860
p109
aVFEB 29, 2008
p110
aVATL vs. NYK
p111
aVW
p112
aI12
aI1
aI3
aF0.333
aI0
aI1
aF0.0
aI2
aI2
aF1.0
aI0
aI0
aI0
aI2
aI0
aI0
aI0
aI0
aI4
aI-8
aa(lp113
V0020700877
p114
aVMAR 02, 2008
p115
aVATL @ BOS
p116
aVL
p117
aI10
aI3
aI4
aF0.75
aI0
aI1
aF0.0
aI0
aI0
aF0.0
aI0
aI0
aI0
aI1
aI0
aI0
aI0
aI0
aI6
aI-1
aa(lp118
V0020700889
p119
aVMAR 04, 2008
p120
aVATL vs. GSW
p121
aVL
p122
aI13
aI2
aI7
aF0.286
aI1
aI4
aF0.25
aI7
aI7
aF1.0
aI0
aI0
aI0
aI1
aI1
aI0
aI1
aI1
aI12
aI-3
aa(lp123
V0020700904
p124
aVMAR 05, 2008
p125
aVATL @ NOH
p126
aVL
p127
aI14
aI3
aI6
aF0.5
aI1
aI2
aF0.5
aI0
aI0
aF0.0
aI0
aI0
aI0
aI1
aI0
aI0
aI3
aI0
aI7
aI-7
aa(lp128
V0020700914
p129
aVMAR 07, 2008
p130
aVATL @ CHA
p131
aVL
p132
aI8
aI3
aI9
aF0.333
aI1
aI2
aF0.5
aI0
aI0
aF0.0
aI0
aI0
aI0
aI0
aI0
aI0
aI1
aI1
aI7
aI-1
aa(lp133
V0020700926
p134
aVMAR 08, 2008
p135
aVATL vs. MIA
p136
aVW
p137
aI14
aI4
aI7
aF0.571
aI0
aI1
aF0.0
aI1
aI2
aF0.5
aI0
aI2
aI2
aI1
aI0
aI1
aI0
aI1
aI9
aI8
aa(lp138
V0020700940
p139
aVMAR 10, 2008
p140
aVATL @ ORL
p141
aVL
p142
aI17
aI5
aI9
aF0.556
aI4
aI6
aF0.667
aI2
aI3
aF0.667
aI0
aI1
aI1
aI0
aI0
aI0
aI0
aI4
aI16
aI10
aa(lp143
V0020700952
p144
aVMAR 12, 2008
p145
aVATL vs. HOU
p146
aVL
p147
aI8
aI0
aI3
aF0.0
aI0
aI3
aF0.0
aI0
aI0
aF0.0
aI0
aI0
aI0
aI2
aI0
aI0
aI0
aI1
aI0
aI2
aa(lp148
V0020701061
p149
aVMAR 26, 2008
p150
aVATL vs. MIL
p151
aVW
p152
aI6
aI0
aI3
aF0.0
aI0
aI2
aF0.0
aI0
aI0
aF0.0
aI0
aI0
aI0
aI0
aI0
aI0
aI0
aI0
aI0
aI2
aa(lp153
V0020701138
p154
aVAPR 05, 2008
p155
aVATL @ PHI
p156
aVW
p157
aI10
aI1
aI3
aF0.333
aI1
aI2
aF0.5
aI3
aI3
aF1.0
aI0
aI0
aI0
aI2
aI0
aI0
aI1
aI2
aI6
aI-2
aa(lp158
V0020701154
p159
aVAPR 08, 2008
p160
aVATL @ IND
p161
aVL
p162
aI14
aI2
aI4
aF0.5
aI2
aI3
aF0.667
aI0
aI1
aF0.0
aI0
aI0
aI0
aI0
aI1
aI0
aI1
aI0
aI6
aI18
aa(lp163
V0020701189
p164
aVAPR 12, 2008
p165
aVATL vs. BOS
p166
aVL
p167
aI6
aI0
aI0
aF0.0
aI0
aI0
aF0.0
aI0
aI0
aF0.0
aI0
aI1
aI1
aI1
aI0
aI0
aI0
aI1
aI0
aI-4
aa(lp168
V0020701211
p169
aVAPR 15, 2008
p170
aVATL vs. ORL
p171
aVL
p172
aI28
aI5
aI13
aF0.385
aI4
aI8
aF0.5
aI2
aI3
aF0.667
aI0
aI2
aI2
aI1
aI1
aI0
aI2
aI2
aI16
aI5
aa(lp173
V0020701222
p174
aVAPR 16, 2008
p175
aVATL @ MIA
p176
aVL
p177
aI19
aI6
aI11
aF0.545
aI1
aI3
aF0.333
aI1
aI1
aF1.0
aI1
aI4
aI5
aI0
aI0
aI0
aI2
aI2
aI14
aI-4
aasS'name'
p178
VSalim Stoudamire
p179
sS'weight'
p180
V175
p181
sS'age'
p182
I25
sS'experience'
p183
I2
sS'height'
p184
V6-1
p185
sS'position'
p186
VGuard
p187
s.