(dp0
S'age'
p1
I25
sS'stats'
p2
(lp3
(lp4
V0020700023
p5
aVNOV 02, 2007
p6
aVMIN vs. DEN
p7
aVL
p8
aI24
aI4
aI9
aF0.444
aI1
aI4
aF0.25
aI0
aI0
aF0.0
aI1
aI3
aI4
aI4
aI1
aI0
aI0
aI3
aI9
aI1
aa(lp9
V0020700037
p10
aVNOV 04, 2007
p11
aVMIN @ NYK
p12
aVL
p13
aI36
aI7
aI17
aF0.412
aI3
aI4
aF0.75
aI2
aI2
aF1.0
aI1
aI6
aI7
aI3
aI1
aI0
aI2
aI3
aI19
aI9
aa(lp14
V0020700048
p15
aVNOV 06, 2007
p16
aVMIN vs. ORL
p17
aVL
p18
aI25
aI1
aI5
aF0.2
aI0
aI0
aF0.0
aI7
aI9
aF0.778
aI2
aI2
aI4
aI3
aI0
aI0
aI1
aI2
aI9
aI-9
aa(lp19
V0020700076
p20
aVNOV 09, 2007
p21
aVMIN @ LAL
p22
aVL
p23
aI38
aI6
aI14
aF0.429
aI2
aI7
aF0.286
aI3
aI4
aF0.75
aI2
aI1
aI3
aI1
aI0
aI0
aI1
aI2
aI17
aI-16
aa(lp24
V0020700084
p25
aVNOV 10, 2007
p26
aVMIN @ SAC
p27
aVL
p28
aI13
aI1
aI5
aF0.2
aI0
aI0
aF0.0
aI0
aI0
aF0.0
aI0
aI0
aI0
aI0
aI0
aI0
aI2
aI2
aI2
aI3
aa(lp29
V0020700112
p30
aVNOV 14, 2007
p31
aVMIN vs. SAC
p32
aVW
p33
aI25
aI1
aI3
aF0.333
aI0
aI0
aF0.0
aI2
aI2
aF1.0
aI3
aI3
aI6
aI2
aI0
aI0
aI2
aI0
aI4
aI2
aa(lp34
V0020700127
p35
aVNOV 16, 2007
p36
aVMIN vs. WAS
p37
aVL
p38
aI23
aI3
aI8
aF0.375
aI0
aI2
aF0.0
aI1
aI1
aF1.0
aI2
aI1
aI3
aI1
aI0
aI0
aI0
aI1
aI7
aI-10
aa(lp39
V0020700135
p40
aVNOV 17, 2007
p41
aVMIN vs. NOH
p42
aVL
p43
aI26
aI3
aI7
aF0.429
aI1
aI2
aF0.5
aI5
aI6
aF0.833
aI1
aI3
aI4
aI3
aI0
aI0
aI1
aI0
aI12
aI-4
aa(lp44
V0020700165
p45
aVNOV 21, 2007
p46
aVMIN vs. CLE
p47
aVL
p48
aI23
aI3
aI6
aF0.5
aI0
aI1
aF0.0
aI0
aI0
aF0.0
aI1
aI1
aI2
aI4
aI0
aI0
aI1
aI2
aI6
aI-8
aa(lp49
V0020700177
p50
aVNOV 23, 2007
p51
aVMIN @ DEN
p52
aVL
p53
aI24
aI7
aI13
aF0.538
aI4
aI5
aF0.8
aI0
aI0
aF0.0
aI3
aI3
aI6
aI0
aI2
aI0
aI1
aI5
aI18
aI-9
aa(lp54
V0020700188
p55
aVNOV 24, 2007
p56
aVMIN vs. ATL
p57
aVL
p58
aI32
aI2
aI10
aF0.2
aI0
aI2
aF0.0
aI4
aI4
aF1.0
aI3
aI3
aI6
aI1
aI2
aI0
aI1
aI2
aI8
aI-1
aa(lp59
V0020700198
p60
aVNOV 26, 2007
p61
aVMIN @ NOH
p62
aVW
p63
aI18
aI3
aI6
aF0.5
aI2
aI4
aF0.5
aI0
aI0
aF0.0
aI0
aI3
aI3
aI1
aI3
aI0
aI5
aI0
aI8
aI-11
aa(lp64
V0020700215
p65
aVNOV 28, 2007
p66
aVMIN @ DAL
p67
aVL
p68
aI17
aI1
aI3
aF0.333
aI0
aI0
aF0.0
aI1
aI1
aF1.0
aI0
aI2
aI2
aI1
aI0
aI0
aI0
aI3
aI3
aI-5
aa(lp69
V0020700229
p70
aVNOV 30, 2007
p71
aVMIN vs. SAS
p72
aVL
p73
aI34
aI4
aI9
aF0.444
aI2
aI3
aF0.667
aI4
aI4
aF1.0
aI2
aI3
aI5
aI2
aI0
aI0
aI2
aI1
aI14
aI-6
aa(lp74
V0020700237
p75
aVDEC 01, 2007
p76
aVMIN @ MEM
p77
aVL
p78
aI21
aI1
aI7
aF0.143
aI0
aI2
aF0.0
aI0
aI0
aF0.0
aI1
aI4
aI5
aI2
aI1
aI0
aI0
aI0
aI2
aI-16
aa(lp79
V0020700259
p80
aVDEC 04, 2007
p81
aVMIN vs. LAL
p82
aVL
p83
aI29
aI4
aI8
aF0.5
aI0
aI2
aF0.0
aI3
aI3
aF1.0
aI1
aI5
aI6
aI0
aI1
aI0
aI5
aI4
aI11
aI-14
aa(lp84
V0020700273
p85
aVDEC 06, 2007
p86
aVMIN @ ATL
p87
aVL
p88
aI8
aI1
aI2
aF0.5
aI1
aI2
aF0.5
aI0
aI0
aF0.0
aI1
aI1
aI2
aI0
aI0
aI1
aI1
aI0
aI3
aI-14
aa(lp89
V0020700290
p90
aVDEC 08, 2007
p91
aVMIN vs. PHX
p92
aVW
p93
aI19
aI2
aI7
aF0.286
aI0
aI2
aF0.0
aI3
aI3
aF1.0
aI3
aI4
aI7
aI0
aI0
aI0
aI0
aI1
aI7
aI7
aa(lp94
V0020700306
p95
aVDEC 11, 2007
p96
aVMIN @ WAS
p97
aVL
p98
aI8
aI0
aI3
aF0.0
aI0
aI0
aF0.0
aI0
aI0
aF0.0
aI1
aI0
aI1
aI0
aI0
aI0
aI0
aI0
aI0
aI-8
aa(lp99
V0020700315
p100
aVDEC 12, 2007
p101
aVMIN @ PHI
p102
aVL
p103
aI23
aI3
aI8
aF0.375
aI1
aI5
aF0.2
aI2
aI2
aF1.0
aI1
aI3
aI4
aI1
aI1
aI0
aI0
aI2
aI9
aI9
aa(lp104
V0020700334
p105
aVDEC 14, 2007
p106
aVMIN vs. SEA
p107
aVL
p108
aI14
aI2
aI4
aF0.5
aI0
aI2
aF0.0
aI1
aI2
aF0.5
aI0
aI6
aI6
aI0
aI2
aI0
aI2
aI2
aI5
aI-3
aa(lp109
V0020700346
p110
aVDEC 15, 2007
p111
aVMIN @ MIL
p112
aVL
p113
aI21
aI6
aI10
aF0.6
aI1
aI1
aF1.0
aI2
aI2
aF1.0
aI0
aI1
aI1
aI2
aI0
aI0
aI0
aI1
aI15
aI12
aa(lp114
V0020700357
p115
aVDEC 17, 2007
p116
aVMIN @ MIA
p117
aVL
p118
aI25
aI4
aI10
aF0.4
aI0
aI2
aF0.0
aI2
aI5
aF0.4
aI2
aI2
aI4
aI2
aI1
aI1
aI1
aI1
aI10
aI12
aa(lp119
V0020700373
p120
aVDEC 19, 2007
p121
aVMIN vs. GSW
p122
aVL
p123
aI28
aI4
aI9
aF0.444
aI0
aI1
aF0.0
aI0
aI1
aF0.0
aI1
aI5
aI6
aI0
aI1
aI0
aI1
aI2
aI8
aI0
aa(lp124
V0020700387
p125
aVDEC 21, 2007
p126
aVMIN vs. IND
p127
aVW
p128
aI38
aI5
aI11
aF0.455
aI1
aI3
aF0.333
aI5
aI7
aF0.714
aI2
aI5
aI7
aI2
aI1
aI0
aI2
aI2
aI16
aI-4
aa(lp129
V0020700395
p130
aVDEC 22, 2007
p131
aVMIN @ NOH
p132
aVL
p133
aI38
aI8
aI16
aF0.5
aI3
aI5
aF0.6
aI1
aI1
aF1.0
aI2
aI7
aI9
aI2
aI2
aI0
aI1
aI0
aI20
aI-18
aa(lp134
V0020700418
p135
aVDEC 26, 2007
p136
aVMIN @ GSW
p137
aVL
p138
aI26
aI4
aI9
aF0.444
aI1
aI2
aF0.5
aI5
aI6
aF0.833
aI3
aI2
aI5
aI0
aI2
aI0
aI2
aI5
aI14
aI-3
aa(lp139
V0020700431
p140
aVDEC 28, 2007
p141
aVMIN @ POR
p142
aVL
p143
aI35
aI6
aI13
aF0.462
aI1
aI5
aF0.2
aI3
aI3
aF1.0
aI0
aI7
aI7
aI0
aI1
aI0
aI2
aI0
aI16
aI-10
aa(lp144
V0020700442
p145
aVDEC 29, 2007
p146
aVMIN @ SEA
p147
aVL
p148
aI23
aI3
aI8
aF0.375
aI0
aI1
aF0.0
aI4
aI6
aF0.667
aI0
aI2
aI2
aI0
aI1
aI0
aI2
aI3
aI10
aI-26
aa(lp149
V0020700455
p150
aVDEC 31, 2007
p151
aVMIN @ LAC
p152
aVL
p153
aI40
aI8
aI14
aF0.571
aI0
aI3
aF0.0
aI1
aI1
aF1.0
aI5
aI10
aI15
aI2
aI0
aI0
aI3
aI3
aI17
aI-2
aa(lp154
V0020700465
p155
aVJAN 02, 2008
p156
aVMIN vs. POR
p157
aVL
p158
aI30
aI3
aI9
aF0.333
aI1
aI3
aF0.333
aI3
aI3
aF1.0
aI2
aI8
aI10
aI1
aI0
aI0
aI2
aI2
aI10
aI0
aa(lp159
V0020700478
p160
aVJAN 04, 2008
p161
aVMIN vs. DEN
p162
aVL
p163
aI40
aI4
aI11
aF0.364
aI1
aI6
aF0.167
aI6
aI7
aF0.857
aI3
aI4
aI7
aI2
aI0
aI0
aI2
aI2
aI15
aI0
aa(lp164
V0020700492
p165
aVJAN 06, 2008
p166
aVMIN vs. DAL
p167
aVL
p168
aI27
aI1
aI5
aF0.2
aI0
aI2
aF0.0
aI3
aI3
aF1.0
aI0
aI4
aI4
aI0
aI0
aI0
aI1
aI1
aI5
aI-16
aa(lp169
V0020700505
p170
aVJAN 08, 2008
p171
aVMIN vs. MIA
p172
aVW
p173
aI39
aI5
aI10
aF0.5
aI1
aI1
aF1.0
aI2
aI2
aF1.0
aI2
aI4
aI6
aI4
aI3
aI0
aI1
aI3
aI13
aI11
aa(lp174
V0020700529
p175
aVJAN 11, 2008
p176
aVMIN @ HOU
p177
aVL
p178
aI29
aI8
aI15
aF0.533
aI0
aI1
aF0.0
aI4
aI4
aF1.0
aI2
aI4
aI6
aI1
aI0
aI0
aI1
aI1
aI20
aI-24
aa(lp179
V0020700536
p180
aVJAN 12, 2008
p181
aVMIN @ SAS
p182
aVL
p183
aI40
aI9
aI15
aF0.6
aI1
aI4
aF0.25
aI2
aI2
aF1.0
aI2
aI7
aI9
aI2
aI0
aI1
aI1
aI2
aI21
aI-8
aa(lp184
V0020700559
p185
aVJAN 15, 2008
p186
aVMIN vs. GSW
p187
aVL
p188
aI34
aI6
aI13
aF0.462
aI0
aI3
aF0.0
aI3
aI5
aF0.6
aI1
aI4
aI5
aI0
aI0
aI1
aI2
aI3
aI15
aI-10
aa(lp189
V0020700581
p190
aVJAN 18, 2008
p191
aVMIN @ PHX
p192
aVL
p193
aI21
aI5
aI12
aF0.417
aI0
aI0
aF0.0
aI2
aI2
aF1.0
aI4
aI2
aI6
aI1
aI1
aI0
aI0
aI3
aI12
aI-9
aa(lp194
V0020700592
p195
aVJAN 19, 2008
p196
aVMIN @ DEN
p197
aVL
p198
aI34
aI8
aI10
aF0.8
aI2
aI3
aF0.667
aI2
aI2
aF1.0
aI1
aI2
aI3
aI3
aI4
aI0
aI2
aI3
aI20
aI13
aa(lp199
V0020700603
p200
aVJAN 21, 2008
p201
aVMIN @ GSW
p202
aVW
p203
aI41
aI11
aI15
aF0.733
aI2
aI2
aF1.0
aI11
aI12
aF0.917
aI0
aI11
aI11
aI3
aI0
aI0
aI3
aI3
aI35
aI3
aa(lp204
V0020700616
p205
aVJAN 23, 2008
p206
aVMIN vs. PHX
p207
aVW
p208
aI37
aI6
aI13
aF0.462
aI0
aI1
aF0.0
aI2
aI5
aF0.4
aI5
aI4
aI9
aI1
aI1
aI0
aI1
aI0
aI14
aI5
aa(lp209
V0020700628
p210
aVJAN 25, 2008
p211
aVMIN @ BOS
p212
aVL
p213
aI34
aI5
aI11
aF0.455
aI0
aI3
aF0.0
aI3
aI3
aF1.0
aI1
aI2
aI3
aI2
aI0
aI1
aI1
aI2
aI13
aI-7
aa(lp214
V0020700648
p215
aVJAN 27, 2008
p216
aVMIN vs. NJN
p217
aVW
p218
aI33
aI4
aI10
aF0.4
aI1
aI4
aF0.25
aI0
aI0
aF0.0
aI2
aI2
aI4
aI3
aI1
aI0
aI1
aI2
aI9
aI8
aa(lp219
V0020700660
p220
aVJAN 29, 2008
p221
aVMIN @ CHI
p222
aVL
p223
aI32
aI0
aI4
aF0.0
aI0
aI0
aF0.0
aI0
aI0
aF0.0
aI0
aI7
aI7
aI2
aI0
aI0
aI1
aI2
aI0
aI-12
aa(lp224
V0020700670
p225
aVJAN 30, 2008
p226
aVMIN vs. CHI
p227
aVW
p228
aI44
aI10
aI20
aF0.5
aI2
aI4
aF0.5
aI3
aI4
aF0.75
aI4
aI6
aI10
aI0
aI3
aI0
aI1
aI1
aI25
aI21
aa(lp229
V0020700684
p230
aVFEB 01, 2008
p231
aVMIN vs. LAC
p232
aVW
p233
aI34
aI8
aI17
aF0.471
aI2
aI3
aF0.667
aI0
aI0
aF0.0
aI4
aI5
aI9
aI1
aI0
aI0
aI2
aI1
aI18
aI22
aa(lp234
V0020700702
p235
aVFEB 04, 2008
p236
aVMIN vs. HOU
p237
aVL
p238
aI32
aI5
aI8
aF0.625
aI2
aI4
aF0.5
aI0
aI2
aF0.0
aI1
aI5
aI6
aI0
aI0
aI0
aI1
aI2
aI12
aI5
aa(lp239
V0020700732
p240
aVFEB 08, 2008
p241
aVMIN vs. BOS
p242
aVL
p243
aI26
aI4
aI8
aF0.5
aI0
aI2
aF0.0
aI5
aI5
aF1.0
aI1
aI5
aI6
aI0
aI0
aI0
aI0
aI3
aI13
aI-7
aa(lp244
V0020700748
p245
aVFEB 10, 2008
p246
aVMIN vs. TOR
p247
aVL
p248
aI30
aI1
aI5
aF0.2
aI0
aI0
aF0.0
aI2
aI3
aF0.667
aI1
aI4
aI5
aI1
aI1
aI0
aI1
aI2
aI4
aI-13
aa(lp249
V0020700760
p250
aVFEB 12, 2008
p251
aVMIN @ NJN
p252
aVL
p253
aI26
aI4
aI9
aF0.444
aI0
aI0
aF0.0
aI1
aI2
aF0.5
aI1
aI4
aI5
aI3
aI1
aI0
aI2
aI4
aI9
aI1
aa(lp254
V0020700772
p255
aVFEB 13, 2008
p256
aVMIN vs. LAL
p257
aVL
p258
aI24
aI4
aI10
aF0.4
aI0
aI0
aF0.0
aI3
aI3
aF1.0
aI4
aI4
aI8
aI1
aI0
aI0
aI0
aI2
aI11
aI-22
aa(lp259
V0020700783
p260
aVFEB 19, 2008
p261
aVMIN vs. PHI
p262
aVW
p263
aI29
aI4
aI8
aF0.5
aI0
aI3
aF0.0
aI4
aI4
aF1.0
aI2
aI4
aI6
aI3
aI2
aI0
aI1
aI4
aI12
aI14
aa(lp264
V0020700801
p265
aVFEB 21, 2008
p266
aVMIN vs. SAS
p267
aVL
p268
aI32
aI3
aI6
aF0.5
aI0
aI0
aF0.0
aI1
aI1
aF1.0
aI0
aI5
aI5
aI5
aI1
aI0
aI0
aI1
aI7
aI-2
aa(lp269
V0020700828
p270
aVFEB 24, 2008
p271
aVMIN vs. DAL
p272
aVL
p273
aI30
aI5
aI9
aF0.556
aI0
aI0
aF0.0
aI2
aI3
aF0.667
aI2
aI3
aI5
aI1
aI0
aI0
aI2
aI2
aI12
aI-20
aa(lp274
V0020700841
p275
aVFEB 26, 2008
p276
aVMIN vs. UTA
p277
aVW
p278
aI31
aI7
aI15
aF0.467
aI1
aI3
aF0.333
aI5
aI6
aF0.833
aI4
aI7
aI11
aI2
aI2
aI0
aI0
aI2
aI20
aI11
aa(lp279
V0020700845
p280
aVFEB 27, 2008
p281
aVMIN @ TOR
p282
aVL
p283
aI29
aI2
aI6
aF0.333
aI1
aI2
aF0.5
aI0
aI0
aF0.0
aI0
aI2
aI2
aI2
aI1
aI0
aI3
aI2
aI5
aI-11
aa(lp284
V0020700861
p285
aVFEB 29, 2008
p286
aVMIN @ CLE
p287
aVL
p288
aI33
aI6
aI16
aF0.375
aI1
aI6
aF0.167
aI0
aI0
aF0.0
aI3
aI4
aI7
aI1
aI0
aI1
aI2
aI1
aI13
aI-2
aa(lp289
V0020700882
p290
aVMAR 02, 2008
p291
aVMIN vs. SEA
p292
aVL
p293
aI21
aI3
aI7
aF0.429
aI0
aI0
aF0.0
aI0
aI0
aF0.0
aI1
aI2
aI3
aI0
aI1
aI0
aI2
aI1
aI6
aI-10
aa(lp294
V0020700892
p295
aVMAR 04, 2008
p296
aVMIN vs. CHA
p297
aVL
p298
aI39
aI7
aI18
aF0.389
aI3
aI5
aF0.6
aI0
aI0
aF0.0
aI2
aI5
aI7
aI4
aI1
aI0
aI0
aI1
aI17
aI-19
aa(lp299
V0020700907
p300
aVMAR 05, 2008
p301
aVMIN @ UTA
p302
aVL
p303
aI27
aI1
aI4
aF0.25
aI0
aI0
aF0.0
aI0
aI0
aF0.0
aI0
aI3
aI3
aI0
aI0
aI0
aI0
aI4
aI2
aI-18
aa(lp304
V0020700921
p305
aVMAR 07, 2008
p306
aVMIN @ SAC
p307
aVW
p308
aI32
aI8
aI17
aF0.471
aI0
aI1
aF0.0
aI1
aI1
aF1.0
aI2
aI5
aI7
aI2
aI1
aI0
aI0
aI1
aI17
aI-1
aa(lp309
V0020700933
p310
aVMAR 08, 2008
p311
aVMIN @ LAC
p312
aVW
p313
aI36
aI7
aI13
aF0.538
aI1
aI3
aF0.333
aI2
aI4
aF0.5
aI1
aI4
aI5
aI2
aI4
aI0
aI2
aI2
aI17
aI1
aa(lp314
V0020700948
p315
aVMAR 11, 2008
p316
aVMIN vs. POR
p317
aVL
p318
aI29
aI5
aI14
aF0.357
aI1
aI2
aF0.5
aI5
aI5
aF1.0
aI0
aI2
aI2
aI0
aI1
aI0
aI2
aI4
aI16
aI-4
aa(lp319
V0020700975
p320
aVMAR 14, 2008
p321
aVMIN @ SEA
p322
aVW
p323
aI29
aI8
aI18
aF0.444
aI2
aI3
aF0.667
aI5
aI6
aF0.833
aI4
aI11
aI15
aI0
aI1
aI1
aI0
aI2
aI23
aI12
aa(lp324
V0020700982
p325
aVMAR 15, 2008
p326
aVMIN @ POR
p327
aVL
p328
aI33
aI6
aI12
aF0.5
aI0
aI2
aF0.0
aI4
aI4
aF1.0
aI3
aI3
aI6
aI3
aI1
aI0
aI0
aI1
aI16
aI-9
aa(lp329
V0020700996
p330
aVMAR 17, 2008
p331
aVMIN vs. LAC
p332
aVW
p333
aI37
aI6
aI9
aF0.667
aI1
aI1
aF1.0
aI6
aI6
aF1.0
aI0
aI5
aI5
aI2
aI0
aI0
aI1
aI2
aI19
aI15
aa(lp334
V0020701013
p335
aVMAR 19, 2008
p336
aVMIN vs. MEM
p337
aVW
p338
aI30
aI2
aI12
aF0.167
aI0
aI1
aF0.0
aI10
aI10
aF1.0
aI0
aI3
aI3
aI2
aI1
aI2
aI0
aI0
aI14
aI5
aa(lp339
V0020701020
p340
aVMAR 21, 2008
p341
aVMIN @ IND
p342
aVL
p343
aI25
aI6
aI9
aF0.667
aI1
aI2
aF0.5
aI1
aI2
aF0.5
aI2
aI1
aI3
aI3
aI1
aI0
aI2
aI1
aI14
aI-3
aa(lp344
V0020701034
p345
aVMAR 22, 2008
p346
aVMIN vs. NYK
p347
aVW
p348
aI30
aI12
aI17
aF0.706
aI0
aI1
aF0.0
aI2
aI2
aF1.0
aI1
aI7
aI8
aI2
aI1
aI0
aI0
aI1
aI26
aI27
aa(lp349
V0020701065
p350
aVMAR 26, 2008
p351
aVMIN @ HOU
p352
aVL
p353
aI35
aI6
aI13
aF0.462
aI2
aI3
aF0.667
aI3
aI5
aF0.6
aI1
aI8
aI9
aI1
aI2
aI0
aI1
aI1
aI17
aI-4
aa(lp354
V0020701079
p355
aVMAR 28, 2008
p356
aVMIN @ SAS
p357
aVL
p358
aI37
aI7
aI15
aF0.467
aI2
aI3
aF0.667
aI1
aI1
aF1.0
aI5
aI5
aI10
aI3
aI0
aI0
aI1
aI2
aI17
aI4
aa(lp359
V0020701091
p360
aVMAR 30, 2008
p361
aVMIN vs. UTA
p362
aVW
p363
aI34
aI8
aI13
aF0.615
aI0
aI1
aF0.0
aI1
aI2
aF0.5
aI2
aI2
aI4
aI2
aI0
aI0
aI4
aI3
aI17
aI2
aa(lp364
V0020701108
p365
aVAPR 01, 2008
p366
aVMIN vs. DET
p367
aVL
p368
aI30
aI3
aI10
aF0.3
aI0
aI3
aF0.0
aI3
aI3
aF1.0
aI0
aI7
aI7
aI3
aI0
aI0
aI2
aI1
aI9
aI2
aa(lp369
V0020701119
p370
aVAPR 02, 2008
p371
aVMIN @ UTA
p372
aVL
p373
aI29
aI5
aI7
aF0.714
aI0
aI1
aF0.0
aI1
aI2
aF0.5
aI0
aI4
aI4
aI5
aI0
aI0
aI0
aI1
aI11
aI-23
aa(lp374
V0020701134
p375
aVAPR 04, 2008
p376
aVMIN @ PHX
p377
aVL
p378
aI32
aI5
aI10
aF0.5
aI0
aI1
aF0.0
aI0
aI0
aF0.0
aI0
aI4
aI4
aI3
aI1
aI0
aI0
aI1
aI10
aI-27
aa(lp379
V0020701148
p380
aVAPR 06, 2008
p381
aVMIN vs. MEM
p382
aVL
p383
aI39
aI7
aI15
aF0.467
aI0
aI2
aF0.0
aI5
aI7
aF0.714
aI1
aI7
aI8
aI0
aI1
aI1
aI0
aI2
aI19
aI-19
aa(lp384
V0020701153
p385
aVAPR 08, 2008
p386
aVMIN @ CHA
p387
aVL
p388
aI38
aI10
aI20
aF0.5
aI0
aI2
aF0.0
aI4
aI4
aF1.0
aI2
aI3
aI5
aI3
aI0
aI0
aI0
aI3
aI24
aI-7
aa(lp389
V0020701170
p390
aVAPR 09, 2008
p391
aVMIN vs. NOH
p392
aVL
p393
aI25
aI2
aI9
aF0.222
aI0
aI1
aF0.0
aI0
aI0
aF0.0
aI1
aI2
aI3
aI7
aI0
aI0
aI0
aI3
aI4
aI-21
aa(lp394
V0020701178
p395
aVAPR 11, 2008
p396
aVMIN @ ORL
p397
aVW
p398
aI40
aI5
aI14
aF0.357
aI0
aI2
aF0.0
aI4
aI4
aF1.0
aI1
aI5
aI6
aI2
aI1
aI0
aI2
aI4
aI14
aI15
aa(lp399
V0020701191
p400
aVAPR 12, 2008
p401
aVMIN @ MEM
p402
aVW
p403
aI30
aI5
aI14
aF0.357
aI0
aI1
aF0.0
aI1
aI1
aF1.0
aI1
aI11
aI12
aI3
aI0
aI0
aI1
aI2
aI11
aI13
aa(lp404
V0020701213
p405
aVAPR 15, 2008
p406
aVMIN @ DET
p407
aVL
p408
aI41
aI5
aI10
aF0.5
aI3
aI4
aF0.75
aI1
aI2
aF0.5
aI3
aI6
aI9
aI6
aI3
aI0
aI0
aI1
aI14
aI-21
aa(lp409
V0020701224
p410
aVAPR 16, 2008
p411
aVMIN vs. MIL
p412
aVW
p413
aI30
aI8
aI13
aF0.615
aI1
aI2
aF0.5
aI0
aI0
aF0.0
aI4
aI6
aI10
aI3
aI0
aI0
aI1
aI2
aI17
aI19
aasS'name'
p414
VRyan Gomes
p415
sS'experience'
p416
I2
s.