(dp0
S'age'
p1
I27
sS'stats'
p2
(lp3
(lp4
V0020701220
p5
aVAPR 16, 2008
p6
aVIND vs. NYK
p7
aVW
p8
aI18
aI5
aI7
aF0.714
aI0
aI1
aF0.0
aI2
aI3
aF0.667
aI0
aI1
aI1
aI2
aI0
aI0
aI1
aI3
aI12
aI11
aa(lp9
V0020700905
p10
aVMAR 05, 2008
p11
aVIND @ HOU
p12
aVL
p13
aI7
aI1
aI3
aF0.333
aI0
aI0
aF0.0
aI0
aI0
aF0.0
aI2
aI0
aI2
aI1
aI0
aI0
aI0
aI0
aI2
aI5
aa(lp14
V0020700881
p15
aVMAR 02, 2008
p16
aVIND vs. MIL
p17
aVW
p18
aI3
aI0
aI0
aF0.0
aI0
aI0
aF0.0
aI0
aI0
aF0.0
aI0
aI1
aI1
aI2
aI0
aI0
aI0
aI0
aI0
aI0
aa(lp19
V0020700858
p20
aVFEB 29, 2008
p21
aVIND @ TOR
p22
aVW
p23
aI4
aI0
aI0
aF0.0
aI0
aI0
aF0.0
aI0
aI0
aF0.0
aI0
aI0
aI0
aI1
aI0
aI0
aI1
aI1
aI0
aI-1
aa(lp24
V0020700817
p25
aVFEB 23, 2008
p26
aVIND @ NJN
p27
aVL
p28
aI0
aI0
aI1
aF0.0
aI0
aI1
aF0.0
aI0
aI0
aF0.0
aI0
aI0
aI0
aI0
aI0
aI0
aI0
aI0
aI0
aI-2
aa(lp29
V0020700770
p30
aVFEB 13, 2008
p31
aVIND @ DET
p32
aVL
p33
aI23
aI3
aI9
aF0.333
aI1
aI3
aF0.333
aI3
aI4
aF0.75
aI0
aI6
aI6
aI1
aI2
aI0
aI1
aI3
aI10
aI-3
aa(lp34
V0020700657
p35
aVJAN 29, 2008
p36
aVIND vs. DET
p37
aVL
p38
aI9
aI0
aI2
aF0.0
aI0
aI0
aF0.0
aI0
aI0
aF0.0
aI0
aI1
aI1
aI3
aI0
aI0
aI1
aI0
aI0
aI-2
aa(lp39
V0020700638
p40
aVJAN 26, 2008
p41
aVIND @ MIA
p42
aVL
p43
aI26
aI4
aI9
aF0.444
aI1
aI4
aF0.25
aI4
aI5
aF0.8
aI0
aI4
aI4
aI5
aI0
aI0
aI3
aI1
aI13
aI6
aa(lp44
V0020700623
p45
aVJAN 24, 2008
p46
aVIND @ MIL
p47
aVL
p48
aI9
aI1
aI3
aF0.333
aI0
aI0
aF0.0
aI0
aI0
aF0.0
aI1
aI0
aI1
aI2
aI0
aI0
aI0
aI0
aI2
aI-6
aa(lp49
V0020700617
p50
aVJAN 23, 2008
p51
aVIND @ CHI
p52
aVL
p53
aI2
aI1
aI1
aF1.0
aI0
aI0
aF0.0
aI0
aI0
aF0.0
aI0
aI1
aI1
aI0
aI0
aI0
aI0
aI0
aI2
aI2
aa(lp54
V0020700565
p55
aVJAN 16, 2008
p56
aVIND vs. GSW
p57
aVW
p58
aI15
aI1
aI2
aF0.5
aI1
aI1
aF1.0
aI0
aI0
aF0.0
aI0
aI5
aI5
aI4
aI1
aI0
aI3
aI2
aI3
aI-10
aa(lp59
V0020700507
p60
aVJAN 08, 2008
p61
aVIND @ UTA
p62
aVL
p63
aI19
aI3
aI7
aF0.429
aI1
aI3
aF0.333
aI0
aI0
aF0.0
aI1
aI1
aI2
aI2
aI1
aI1
aI4
aI4
aI7
aI-5
aa(lp64
V0020700497
p65
aVJAN 06, 2008
p66
aVIND @ LAL
p67
aVL
p68
aI31
aI3
aI7
aF0.429
aI2
aI3
aF0.667
aI1
aI2
aF0.5
aI1
aI1
aI2
aI2
aI0
aI0
aI0
aI3
aI9
aI-3
aa(lp69
V0020700474
p70
aVJAN 04, 2008
p71
aVIND vs. ATL
p72
aVW
p73
aI22
aI1
aI6
aF0.167
aI1
aI2
aF0.5
aI2
aI2
aF1.0
aI1
aI1
aI2
aI4
aI0
aI0
aI1
aI3
aI5
aI6
aa(lp74
V0020700461
p75
aVJAN 02, 2008
p76
aVIND vs. MEM
p77
aVL
p78
aI35
aI3
aI10
aF0.3
aI2
aI7
aF0.286
aI3
aI4
aF0.75
aI2
aI1
aI3
aI1
aI2
aI0
aI3
aI2
aI11
aI-11
aa(lp79
V0020700449
p80
aVDEC 31, 2007
p81
aVIND @ CHA
p82
aVL
p83
aI45
aI5
aI9
aF0.556
aI5
aI6
aF0.833
aI0
aI0
aF0.0
aI1
aI3
aI4
aI2
aI2
aI1
aI0
aI4
aI15
aI0
aa(lp84
V0020700437
p85
aVDEC 29, 2007
p86
aVIND vs. DET
p87
aVL
p88
aI23
aI3
aI4
aF0.75
aI2
aI2
aF1.0
aI2
aI2
aF1.0
aI1
aI1
aI2
aI2
aI0
aI0
aI2
aI3
aI10
aI-3
aa(lp89
V0020700425
p90
aVDEC 28, 2007
p91
aVIND @ DET
p92
aVL
p93
aI19
aI1
aI7
aF0.143
aI0
aI3
aF0.0
aI0
aI0
aF0.0
aI0
aI1
aI1
aI2
aI0
aI1
aI0
aI1
aI2
aI6
aa(lp94
V0020700410
p95
aVDEC 26, 2007
p96
aVIND @ ATL
p97
aVL
p98
aI8
aI1
aI3
aF0.333
aI1
aI1
aF1.0
aI0
aI0
aF0.0
aI0
aI1
aI1
aI1
aI1
aI0
aI2
aI0
aI3
aI-1
aa(lp99
V0020700387
p100
aVDEC 21, 2007
p101
aVIND @ MIN
p102
aVL
p103
aI3
aI0
aI1
aF0.0
aI0
aI0
aF0.0
aI0
aI0
aF0.0
aI0
aI0
aI0
aI1
aI0
aI0
aI0
aI0
aI0
aI3
aa(lp104
V0020700368
p105
aVDEC 19, 2007
p106
aVIND vs. PHI
p107
aVW
p108
aI18
aI2
aI5
aF0.4
aI1
aI2
aF0.5
aI0
aI0
aF0.0
aI0
aI1
aI1
aI3
aI2
aI0
aI0
aI1
aI5
aI1
aa(lp109
V0020700356
p110
aVDEC 17, 2007
p111
aVIND @ NYK
p112
aVW
p113
aI4
aI0
aI0
aF0.0
aI0
aI0
aF0.0
aI0
aI0
aF0.0
aI0
aI0
aI0
aI2
aI0
aI0
aI0
aI0
aI0
aI1
aa(lp114
V0020700317
p115
aVDEC 12, 2007
p116
aVIND vs. CHI
p117
aVW
p118
aI2
aI0
aI1
aF0.0
aI0
aI0
aF0.0
aI0
aI0
aF0.0
aI0
aI0
aI0
aI0
aI0
aI0
aI0
aI1
aI0
aI-4
aa(lp119
V0020700308
p120
aVDEC 11, 2007
p121
aVIND @ CLE
p122
aVL
p123
aI7
aI1
aI3
aF0.333
aI0
aI1
aF0.0
aI0
aI0
aF0.0
aI0
aI0
aI0
aI1
aI0
aI0
aI0
aI0
aI2
aI4
aa(lp124
V0020700234
p125
aVNOV 30, 2007
p126
aVIND @ SEA
p127
aVL
p128
aI4
aI0
aI1
aF0.0
aI0
aI0
aF0.0
aI0
aI0
aF0.0
aI0
aI0
aI0
aI0
aI0
aI0
aI0
aI1
aI0
aI-4
aa(lp129
V0020700133
p130
aVNOV 17, 2007
p131
aVIND vs. UTA
p132
aVW
p133
aI3
aI0
aI0
aF0.0
aI0
aI0
aF0.0
aI1
aI2
aF0.5
aI0
aI0
aI0
aI0
aI0
aI0
aI0
aI0
aI1
aI-4
aa(lp134
V0020700098
p135
aVNOV 13, 2007
p136
aVIND vs. BOS
p137
aVL
p138
aI2
aI0
aI1
aF0.0
aI0
aI0
aF0.0
aI0
aI0
aF0.0
aI0
aI0
aI0
aI0
aI0
aI0
aI0
aI1
aI0
aI-4
aa(lp139
V0020700057
p140
aVNOV 07, 2007
p141
aVIND vs. LAC
p142
aVL
p143
aI6
aI1
aI3
aF0.333
aI0
aI0
aF0.0
aI2
aI4
aF0.5
aI1
aI1
aI2
aI0
aI0
aI0
aI2
aI0
aI4
aI5
aa(lp144
V0020700030
p145
aVNOV 03, 2007
p146
aVIND @ MEM
p147
aVW
p148
aI12
aI0
aI1
aF0.0
aI0
aI0
aF0.0
aI0
aI0
aF0.0
aI1
aI1
aI2
aI1
aI2
aI0
aI0
aI2
aI0
aI-5
aa(lp149
V0020700017
p150
aVNOV 02, 2007
p151
aVIND vs. MIA
p152
aVW
p153
aI2
aI0
aI0
aF0.0
aI0
aI0
aF0.0
aI0
aI0
aF0.0
aI0
aI0
aI0
aI0
aI0
aI0
aI0
aI0
aI0
aI-1
aa(lp154
V0020700006
p155
aVOCT 31, 2007
p156
aVIND vs. WAS
p157
aVW
p158
aI10
aI0
aI1
aF0.0
aI0
aI0
aF0.0
aI5
aI6
aF0.833
aI1
aI2
aI3
aI2
aI0
aI0
aI0
aI1
aI5
aI5
aasS'name'
p159
VAndre Owens
p160
sS'experience'
p161
I2
s.