(dp0
S'age'
p1
I37
sS'stats'
p2
(lp3
(lp4
V0020701025
p5
aVMAR 21, 2008
p6
aVSAS vs. SAC
p7
aVW
p8
aI2
aI0
aI0
aF0.0
aI0
aI0
aF0.0
aI0
aI0
aF0.0
aI0
aI0
aI0
aI0
aI0
aI1
aI0
aI1
aI0
aI-1
aa(lp9
V0020701016
p10
aVMAR 20, 2008
p11
aVSAS @ CHI
p12
aVW
p13
aI12
aI1
aI1
aF1.0
aI1
aI1
aF1.0
aI0
aI0
aF0.0
aI0
aI1
aI1
aI2
aI1
aI0
aI0
aI2
aI3
aI18
aa(lp14
V0020700997
p15
aVMAR 17, 2008
p16
aVSAS vs. BOS
p17
aVL
p18
aI13
aI2
aI6
aF0.333
aI1
aI5
aF0.2
aI2
aI2
aF1.0
aI2
aI4
aI6
aI1
aI0
aI0
aI1
aI2
aI7
aI13
aa(lp19
V0020700969
p20
aVMAR 14, 2008
p21
aVSAS @ DET
p22
aVL
p23
aI23
aI3
aI5
aF0.6
aI2
aI3
aF0.667
aI0
aI0
aF0.0
aI3
aI2
aI5
aI0
aI0
aI1
aI1
aI4
aI8
aI2
aa(lp24
V0020700959
p25
aVMAR 12, 2008
p26
aVSAS @ NOH
p27
aVL
p28
aI18
aI2
aI6
aF0.333
aI0
aI3
aF0.0
aI0
aI0
aF0.0
aI0
aI1
aI1
aI1
aI3
aI0
aI1
aI2
aI4
aI-13
aa(lp29
V0020700936
p30
aVMAR 09, 2008
p31
aVSAS @ PHX
p32
aVL
p33
aI7
aI0
aI2
aF0.0
aI0
aI1
aF0.0
aI0
aI0
aF0.0
aI0
aI1
aI1
aI1
aI0
aI0
aI0
aI0
aI0
aI10
aa(lp34
V0020700922
p35
aVMAR 07, 2008
p36
aVSAS @ DEN
p37
aVL
p38
aI15
aI2
aI5
aF0.4
aI1
aI2
aF0.5
aI0
aI0
aF0.0
aI0
aI2
aI2
aI2
aI0
aI0
aI0
aI3
aI5
aI-15
aa(lp39
V0020700894
p40
aVMAR 04, 2008
p41
aVSAS vs. NJN
p42
aVW
p43
aI4
aI0
aI1
aF0.0
aI0
aI1
aF0.0
aI0
aI0
aF0.0
aI0
aI0
aI0
aI0
aI0
aI0
aI0
aI0
aI0
aI-5
aa(lp44
V0020700872
p45
aVMAR 01, 2008
p46
aVSAS @ MIL
p47
aVW
p48
aI14
aI1
aI4
aF0.25
aI0
aI2
aF0.0
aI0
aI0
aF0.0
aI0
aI2
aI2
aI0
aI0
aI0
aI2
aI1
aI2
aI-7
aa(lp49
V0020700856
p50
aVFEB 28, 2008
p51
aVSAS vs. DAL
p52
aVW
p53
aI10
aI0
aI2
aF0.0
aI0
aI0
aF0.0
aI0
aI0
aF0.0
aI0
aI1
aI1
aI0
aI1
aI0
aI1
aI3
aI0
aI-14
aa(lp54
V0020700834
p55
aVFEB 25, 2008
p56
aVSAS vs. ATL
p57
aVW
p58
aI21
aI1
aI4
aF0.25
aI1
aI1
aF1.0
aI0
aI2
aF0.0
aI2
aI3
aI5
aI1
aI0
aI1
aI0
aI0
aI3
aI19
aa(lp59
V0020700820
p60
aVFEB 23, 2008
p61
aVSAS vs. NOH
p62
aVW
p63
aI22
aI3
aI8
aF0.375
aI1
aI6
aF0.167
aI0
aI0
aF0.0
aI1
aI2
aI3
aI0
aI0
aI0
aI0
aI2
aI7
aI15
aa(lp64
V0020700801
p65
aVFEB 21, 2008
p66
aVSAS @ MIN
p67
aVW
p68
aI16
aI0
aI3
aF0.0
aI0
aI3
aF0.0
aI0
aI0
aF0.0
aI2
aI4
aI6
aI1
aI0
aI0
aI1
aI4
aI0
aI2
aa(lp69
V0020700784
p70
aVFEB 19, 2008
p71
aVSAS vs. CHA
p72
aVW
p73
aI19
aI1
aI2
aF0.5
aI0
aI1
aF0.0
aI0
aI0
aF0.0
aI1
aI5
aI6
aI1
aI1
aI0
aI0
aI0
aI2
aI1
aa(lp74
V0020700768
p75
aVFEB 13, 2008
p76
aVSAS @ CLE
p77
aVW
p78
aI16
aI2
aI4
aF0.5
aI0
aI1
aF0.0
aI3
aI3
aF1.0
aI2
aI1
aI3
aI0
aI0
aI0
aI0
aI2
aI7
aI2
aa(lp79
V0020700751
p80
aVFEB 11, 2008
p81
aVSAS @ TOR
p82
aVW
p83
aI17
aI0
aI0
aF0.0
aI0
aI0
aF0.0
aI1
aI2
aF0.5
aI0
aI1
aI1
aI4
aI0
aI0
aI0
aI3
aI1
aI-6
aa(lp84
V0020700749
p85
aVFEB 10, 2008
p86
aVSAS @ BOS
p87
aVL
p88
aI7
aI0
aI1
aF0.0
aI0
aI1
aF0.0
aI0
aI0
aF0.0
aI0
aI4
aI4
aI2
aI0
aI0
aI0
aI1
aI0
aI7
aa(lp89
V0020700729
p90
aVFEB 08, 2008
p91
aVSAS @ NYK
p92
aVW
p93
aI18
aI5
aI6
aF0.833
aI3
aI4
aF0.75
aI0
aI0
aF0.0
aI0
aI2
aI2
aI2
aI2
aI0
aI1
aI1
aI13
aI-5
aa(lp94
V0020700712
p95
aVFEB 06, 2008
p96
aVSAS @ WAS
p97
aVW
p98
aI19
aI3
aI5
aF0.6
aI1
aI3
aF0.333
aI2
aI2
aF1.0
aI1
aI5
aI6
aI2
aI0
aI1
aI2
aI4
aI9
aI12
aa(lp99
V0020700709
p100
aVFEB 05, 2008
p101
aVSAS @ IND
p102
aVW
p103
aI16
aI3
aI5
aF0.6
aI1
aI2
aF0.5
aI0
aI0
aF0.0
aI1
aI2
aI3
aI1
aI0
aI1
aI0
aI2
aI7
aI0
aa(lp104
V0020700663
p105
aVJAN 29, 2008
p106
aVSAS @ SEA
p107
aVL
p108
aI9
aI0
aI1
aF0.0
aI0
aI1
aF0.0
aI0
aI0
aF0.0
aI0
aI0
aI0
aI1
aI0
aI0
aI0
aI0
aI0
aI-2
aa(lp109
V0020700654
p110
aVJAN 28, 2008
p111
aVSAS @ UTA
p112
aVL
p113
aI16
aI0
aI2
aF0.0
aI0
aI2
aF0.0
aI0
aI0
aF0.0
aI0
aI3
aI3
aI1
aI2
aI1
aI1
aI0
aI0
aI-2
aa(lp114
V0020700641
p115
aVJAN 26, 2008
p116
aVSAS vs. NOH
p117
aVL
p118
aI17
aI1
aI5
aF0.2
aI0
aI2
aF0.0
aI0
aI0
aF0.0
aI1
aI0
aI1
aI1
aI0
aI2
aI0
aI0
aI2
aI-10
aa(lp119
V0020700622
p120
aVJAN 24, 2008
p121
aVSAS @ MIA
p122
aVW
p123
aI17
aI1
aI2
aF0.5
aI0
aI1
aF0.0
aI0
aI0
aF0.0
aI1
aI3
aI4
aI1
aI0
aI1
aI0
aI0
aI2
aI7
aa(lp124
V0020700618
p125
aVJAN 23, 2008
p126
aVSAS vs. LAL
p127
aVW
p128
aI6
aI0
aI1
aF0.0
aI0
aI0
aF0.0
aI1
aI2
aF0.5
aI0
aI0
aI0
aI1
aI0
aI0
aI1
aI0
aI1
aI2
aa(lp129
V0020700590
p130
aVJAN 19, 2008
p131
aVSAS @ HOU
p132
aVL
p133
aI6
aI0
aI1
aF0.0
aI0
aI1
aF0.0
aI0
aI0
aF0.0
aI1
aI2
aI3
aI2
aI0
aI0
aI0
aI0
aI0
aI5
aa(lp134
V0020700570
p135
aVJAN 17, 2008
p136
aVSAS vs. CLE
p137
aVL
p138
aI9
aI0
aI2
aF0.0
aI0
aI1
aF0.0
aI0
aI0
aF0.0
aI3
aI1
aI4
aI0
aI1
aI0
aI0
aI1
aI0
aI1
aa(lp139
V0020700550
p140
aVJAN 14, 2008
p141
aVSAS vs. PHI
p142
aVW
p143
aI9
aI0
aI2
aF0.0
aI0
aI2
aF0.0
aI1
aI2
aF0.5
aI2
aI1
aI3
aI0
aI2
aI0
aI0
aI0
aI1
aI2
aa(lp144
V0020700536
p145
aVJAN 12, 2008
p146
aVSAS vs. MIN
p147
aVW
p148
aI6
aI0
aI1
aF0.0
aI0
aI0
aF0.0
aI0
aI0
aF0.0
aI0
aI0
aI0
aI0
aI0
aI1
aI0
aI1
aI0
aI-2
aa(lp149
V0020700520
p150
aVJAN 10, 2008
p151
aVSAS vs. DET
p152
aVL
p153
aI9
aI0
aI1
aF0.0
aI0
aI1
aF0.0
aI0
aI0
aF0.0
aI0
aI1
aI1
aI0
aI0
aI0
aI2
aI1
aI0
aI-20
aa(lp154
V0020700499
p155
aVJAN 07, 2008
p156
aVSAS @ GSW
p157
aVL
p158
aI14
aI0
aI1
aF0.0
aI0
aI0
aF0.0
aI3
aI3
aF1.0
aI1
aI1
aI2
aI2
aI0
aI1
aI3
aI2
aI3
aI-2
aa(lp159
V0020700493
p160
aVJAN 06, 2008
p161
aVSAS @ LAC
p162
aVW
p163
aI21
aI1
aI3
aF0.333
aI1
aI1
aF1.0
aI1
aI2
aF0.5
aI2
aI0
aI2
aI1
aI2
aI1
aI0
aI2
aI4
aI-7
aa(lp164
V0020700480
p165
aVJAN 04, 2008
p166
aVSAS vs. NYK
p167
aVW
p168
aI20
aI2
aI5
aF0.4
aI2
aI4
aF0.5
aI2
aI2
aF1.0
aI3
aI3
aI6
aI4
aI2
aI0
aI1
aI2
aI8
aI16
aa(lp169
V0020700470
p170
aVJAN 03, 2008
p171
aVSAS @ DEN
p172
aVL
p173
aI16
aI0
aI3
aF0.0
aI0
aI2
aF0.0
aI0
aI0
aF0.0
aI0
aI2
aI2
aI3
aI0
aI0
aI1
aI0
aI0
aI-3
aa(lp174
V0020700446
p175
aVDEC 30, 2007
p176
aVSAS vs. MEM
p177
aVW
p178
aI16
aI0
aI3
aF0.0
aI0
aI2
aF0.0
aI0
aI0
aF0.0
aI0
aI2
aI2
aI2
aI0
aI0
aI0
aI3
aI0
aI9
aa(lp179
V0020700428
p180
aVDEC 28, 2007
p181
aVSAS vs. TOR
p182
aVL
p183
aI6
aI0
aI1
aF0.0
aI0
aI1
aF0.0
aI0
aI0
aF0.0
aI0
aI1
aI1
aI0
aI1
aI0
aI1
aI1
aI0
aI-6
aa(lp184
V0020700414
p185
aVDEC 26, 2007
p186
aVSAS vs. CHI
p187
aVW
p188
aI5
aI0
aI0
aF0.0
aI0
aI0
aF0.0
aI1
aI4
aF0.25
aI1
aI0
aI1
aI0
aI0
aI1
aI0
aI0
aI1
aI0
aa(lp189
V0020700372
p190
aVDEC 19, 2007
p191
aVSAS @ MEM
p192
aVL
p193
aI12
aI0
aI0
aF0.0
aI0
aI0
aF0.0
aI0
aI0
aF0.0
aI0
aI3
aI3
aI2
aI0
aI0
aI0
aI0
aI0
aI3
aa(lp194
V0020700360
p195
aVDEC 17, 2007
p196
aVSAS vs. PHX
p197
aVL
p198
aI13
aI0
aI1
aF0.0
aI0
aI1
aF0.0
aI0
aI0
aF0.0
aI1
aI3
aI4
aI0
aI1
aI0
aI0
aI1
aI0
aI-8
aa(lp199
V0020700348
p200
aVDEC 15, 2007
p201
aVSAS vs. DEN
p202
aVW
p203
aI6
aI0
aI3
aF0.0
aI0
aI3
aF0.0
aI0
aI0
aF0.0
aI0
aI0
aI0
aI0
aI0
aI0
aI0
aI1
aI0
aI-2
aa(lp204
V0020700326
p205
aVDEC 13, 2007
p206
aVSAS @ LAL
p207
aVL
p208
aI24
aI2
aI3
aF0.667
aI2
aI3
aF0.667
aI0
aI0
aF0.0
aI2
aI2
aI4
aI4
aI2
aI3
aI1
aI2
aI6
aI-6
aa(lp209
V0020700313
p210
aVDEC 11, 2007
p211
aVSAS @ GSW
p212
aVL
p213
aI9
aI0
aI1
aF0.0
aI0
aI0
aF0.0
aI0
aI0
aF0.0
aI1
aI1
aI2
aI1
aI0
aI0
aI0
aI0
aI0
aI5
aa(lp214
V0020700283
p215
aVDEC 07, 2007
p216
aVSAS vs. UTA
p217
aVW
p218
aI15
aI2
aI6
aF0.333
aI1
aI2
aF0.5
aI1
aI2
aF0.5
aI1
aI0
aI1
aI0
aI0
aI0
aI0
aI1
aI6
aI-1
aa(lp219
V0020700269
p220
aVDEC 05, 2007
p221
aVSAS vs. DAL
p222
aVW
p223
aI6
aI0
aI0
aF0.0
aI0
aI0
aF0.0
aI0
aI0
aF0.0
aI0
aI0
aI0
aI0
aI0
aI1
aI0
aI0
aI0
aI1
aa(lp224
V0020700243
p225
aVDEC 02, 2007
p226
aVSAS vs. POR
p227
aVW
p228
aI6
aI0
aI1
aF0.0
aI0
aI0
aF0.0
aI0
aI0
aF0.0
aI0
aI2
aI2
aI0
aI0
aI2
aI1
aI0
aI0
aI1
aasS'name'
p229
VRobert Horry
p230
sS'experience'
p231
I15
s.