(dp0
S'stats'
p1
(lp2
(lp3
V0020700007
p4
aVOCT 31, 2007
p5
aVCHI @ NJN
p6
aVL
p7
aI38
aI3
aI7
aF0.429
aI0
aI0
aF0.0
aI1
aI4
aF0.25
aI4
aI1
aI5
aI2
aI0
aI1
aI1
aI2
aI7
aI6
aa(lp8
V0020700024
p9
aVNOV 02, 2007
p10
aVCHI vs. PHI
p11
aVL
p12
aI25
aI0
aI3
aF0.0
aI0
aI0
aF0.0
aI1
aI2
aF0.5
aI3
aI1
aI4
aI2
aI0
aI2
aI1
aI2
aI1
aI-8
aa(lp13
V0020700031
p14
aVNOV 03, 2007
p15
aVCHI @ MIL
p16
aVL
p17
aI27
aI2
aI4
aF0.5
aI0
aI0
aF0.0
aI1
aI2
aF0.5
aI1
aI1
aI2
aI2
aI0
aI2
aI1
aI2
aI5
aI-15
aa(lp18
V0020700049
p19
aVNOV 06, 2007
p20
aVCHI vs. LAC
p21
aVL
p22
aI27
aI1
aI6
aF0.167
aI0
aI0
aF0.0
aI0
aI2
aF0.0
aI3
aI3
aI6
aI0
aI1
aI1
aI1
aI2
aI2
aI5
aa(lp23
V0020700064
p24
aVNOV 08, 2007
p25
aVCHI vs. DET
p26
aVW
p27
aI25
aI3
aI8
aF0.375
aI0
aI0
aF0.0
aI0
aI1
aF0.0
aI1
aI6
aI7
aI1
aI2
aI0
aI2
aI2
aI6
aI-8
aa(lp28
V0020700082
p29
aVNOV 10, 2007
p30
aVCHI vs. TOR
p31
aVL
p32
aI18
aI0
aI0
aF0.0
aI0
aI0
aF0.0
aI0
aI0
aF0.0
aI1
aI4
aI5
aI2
aI1
aI1
aI1
aI1
aI0
aI-20
aa(lp33
V0020700118
p34
aVNOV 15, 2007
p35
aVCHI @ PHX
p36
aVL
p37
aI23
aI1
aI5
aF0.2
aI0
aI0
aF0.0
aI3
aI4
aF0.75
aI4
aI6
aI10
aI1
aI1
aI1
aI1
aI2
aI5
aI-7
aa(lp38
V0020700140
p39
aVNOV 17, 2007
p40
aVCHI @ LAC
p41
aVW
p42
aI43
aI4
aI8
aF0.5
aI0
aI0
aF0.0
aI1
aI5
aF0.2
aI8
aI5
aI13
aI1
aI6
aI3
aI0
aI3
aI9
aI17
aa(lp43
V0020700144
p44
aVNOV 18, 2007
p45
aVCHI @ LAL
p46
aVL
p47
aI28
aI2
aI4
aF0.5
aI0
aI0
aF0.0
aI1
aI2
aF0.5
aI2
aI6
aI8
aI2
aI2
aI0
aI1
aI2
aI5
aI-17
aa(lp48
V0020700155
p49
aVNOV 20, 2007
p50
aVCHI @ DEN
p51
aVL
p52
aI26
aI3
aI7
aF0.429
aI0
aI0
aF0.0
aI0
aI0
aF0.0
aI5
aI7
aI12
aI2
aI2
aI3
aI0
aI0
aI6
aI-13
aa(lp53
V0020700182
p54
aVNOV 24, 2007
p55
aVCHI @ NYK
p56
aVL
p57
aI43
aI3
aI6
aF0.5
aI0
aI1
aF0.0
aI0
aI0
aF0.0
aI5
aI7
aI12
aI0
aI3
aI1
aI1
aI4
aI6
aI-6
aa(lp58
V0020700192
p59
aVNOV 25, 2007
p60
aVCHI @ TOR
p61
aVL
p62
aI36
aI1
aI4
aF0.25
aI0
aI0
aF0.0
aI0
aI2
aF0.0
aI1
aI4
aI5
aI2
aI1
aI1
aI0
aI1
aI2
aI-14
aa(lp63
V0020700208
p64
aVNOV 27, 2007
p65
aVCHI vs. ATL
p66
aVW
p67
aI37
aI3
aI8
aF0.375
aI0
aI0
aF0.0
aI0
aI2
aF0.0
aI4
aI8
aI12
aI2
aI1
aI1
aI0
aI1
aI6
aI15
aa(lp68
V0020700239
p69
aVDEC 01, 2007
p70
aVCHI vs. CHA
p71
aVW
p72
aI41
aI4
aI10
aF0.4
aI0
aI0
aF0.0
aI2
aI3
aF0.667
aI8
aI11
aI19
aI2
aI5
aI4
aI1
aI0
aI10
aI21
aa(lp73
V0020700253
p74
aVDEC 03, 2007
p75
aVCHI vs. DAL
p76
aVL
p77
aI48
aI2
aI10
aF0.2
aI0
aI0
aF0.0
aI0
aI1
aF0.0
aI2
aI6
aI8
aI1
aI0
aI0
aI0
aI1
aI4
aI-5
aa(lp78
V0020700265
p79
aVDEC 05, 2007
p80
aVCHI @ CHA
p81
aVW
p82
aI22
aI0
aI3
aF0.0
aI0
aI0
aF0.0
aI0
aI0
aF0.0
aI2
aI6
aI8
aI1
aI1
aI2
aI1
aI0
aI0
aI-12
aa(lp83
V0020700279
p84
aVDEC 07, 2007
p85
aVCHI @ DET
p86
aVW
p87
aI36
aI1
aI3
aF0.333
aI0
aI0
aF0.0
aI8
aI9
aF0.889
aI7
aI6
aI13
aI4
aI1
aI4
aI1
aI2
aI10
aI1
aa(lp88
V0020700291
p89
aVDEC 08, 2007
p90
aVCHI vs. BOS
p91
aVL
p92
aI41
aI3
aI7
aF0.429
aI0
aI0
aF0.0
aI2
aI3
aF0.667
aI4
aI10
aI14
aI3
aI0
aI2
aI1
aI3
aI8
aI-12
aa(lp93
V0020700311
p94
aVDEC 11, 2007
p95
aVCHI vs. SEA
p96
aVW
p97
aI24
aI2
aI5
aF0.4
aI0
aI0
aF0.0
aI0
aI0
aF0.0
aI2
aI5
aI7
aI1
aI0
aI1
aI1
aI0
aI4
aI17
aa(lp98
V0020700317
p99
aVDEC 12, 2007
p100
aVCHI @ IND
p101
aVL
p102
aI25
aI0
aI3
aF0.0
aI0
aI0
aF0.0
aI0
aI0
aF0.0
aI3
aI3
aI6
aI2
aI1
aI2
aI0
aI2
aI0
aI-15
aa(lp103
V0020700335
p104
aVDEC 14, 2007
p105
aVCHI vs. NYK
p106
aVW
p107
aI33
aI1
aI4
aF0.25
aI0
aI0
aF0.0
aI0
aI0
aF0.0
aI6
aI4
aI10
aI0
aI2
aI3
aI2
aI2
aI2
aI0
aa(lp108
V0020700363
p109
aVDEC 18, 2007
p110
aVCHI vs. LAL
p111
aVL
p112
aI28
aI1
aI3
aF0.333
aI0
aI0
aF0.0
aI0
aI0
aF0.0
aI1
aI4
aI5
aI4
aI1
aI2
aI1
aI3
aI2
aI-8
aa(lp113
V0020700396
p114
aVDEC 22, 2007
p115
aVCHI vs. HOU
p116
aVL
p117
aI28
aI0
aI4
aF0.0
aI0
aI0
aF0.0
aI0
aI0
aF0.0
aI4
aI1
aI5
aI4
aI1
aI3
aI1
aI2
aI0
aI-11
aa(lp118
V0020700414
p119
aVDEC 26, 2007
p120
aVCHI @ SAS
p121
aVL
p122
aI34
aI1
aI4
aF0.25
aI0
aI0
aF0.0
aI0
aI0
aF0.0
aI1
aI4
aI5
aI4
aI2
aI0
aI1
aI2
aI2
aI4
aa(lp123
V0020700427
p124
aVDEC 28, 2007
p125
aVCHI vs. MIL
p126
aVW
p127
aI34
aI1
aI3
aF0.333
aI0
aI0
aF0.0
aI2
aI2
aF1.0
aI3
aI7
aI10
aI3
aI2
aI4
aI2
aI1
aI4
aI2
aa(lp128
V0020700443
p129
aVDEC 30, 2007
p130
aVCHI @ NYK
p131
aVW
p132
aI37
aI2
aI3
aF0.667
aI0
aI0
aF0.0
aI2
aI2
aF1.0
aI5
aI5
aI10
aI1
aI2
aI0
aI0
aI1
aI6
aI14
aa(lp133
V0020700450
p134
aVDEC 31, 2007
p135
aVCHI vs. ORL
p136
aVL
p137
aI46
aI1
aI6
aF0.167
aI0
aI1
aF0.0
aI0
aI1
aF0.0
aI5
aI7
aI12
aI3
aI3
aI3
aI2
aI3
aI2
aI3
aa(lp138
V0020700458
p139
aVJAN 02, 2008
p140
aVCHI @ CHA
p141
aVW
p142
aI37
aI3
aI6
aF0.5
aI0
aI0
aF0.0
aI1
aI4
aF0.25
aI3
aI7
aI10
aI4
aI1
aI3
aI3
aI4
aI7
aI17
aa(lp143
V0020700469
p144
aVJAN 03, 2008
p145
aVCHI vs. POR
p146
aVL
p147
aI48
aI4
aI11
aF0.364
aI0
aI0
aF0.0
aI4
aI6
aF0.667
aI5
aI9
aI14
aI0
aI0
aI4
aI1
aI2
aI12
aI-2
aa(lp148
V0020700486
p149
aVJAN 05, 2008
p150
aVCHI vs. SAC
p151
aVW
p152
aI33
aI0
aI3
aF0.0
aI0
aI0
aF0.0
aI1
aI6
aF0.167
aI6
aI5
aI11
aI3
aI2
aI1
aI0
aI1
aI1
aI9
aa(lp153
V0020700506
p154
aVJAN 08, 2008
p155
aVCHI vs. NYK
p156
aVL
p157
aI38
aI2
aI6
aF0.333
aI0
aI0
aF0.0
aI0
aI0
aF0.0
aI5
aI5
aI10
aI3
aI2
aI1
aI0
aI1
aI4
aI-7
aa(lp158
V0020700523
p159
aVJAN 11, 2008
p160
aVCHI @ PHI
p161
aVW
p162
aI33
aI2
aI6
aF0.333
aI0
aI0
aF0.0
aI2
aI3
aF0.667
aI6
aI2
aI8
aI2
aI2
aI1
aI3
aI2
aI6
aI-22
aa(lp163
V0020700542
p164
aVJAN 13, 2008
p165
aVCHI @ ATL
p166
aVL
p167
aI33
aI1
aI5
aF0.2
aI0
aI0
aF0.0
aI1
aI4
aF0.25
aI4
aI9
aI13
aI3
aI0
aI1
aI1
aI2
aI3
aI-9
aa(lp168
V0020700555
p169
aVJAN 15, 2008
p170
aVCHI @ ORL
p171
aVL
p172
aI22
aI2
aI4
aF0.5
aI0
aI0
aF0.0
aI0
aI0
aF0.0
aI2
aI1
aI3
aI2
aI0
aI0
aI0
aI2
aI4
aI-28
aa(lp173
V0020700564
p174
aVJAN 16, 2008
p175
aVCHI @ MIA
p176
aVW
p177
aI33
aI3
aI5
aF0.6
aI0
aI0
aF0.0
aI1
aI2
aF0.5
aI3
aI4
aI7
aI1
aI1
aI1
aI1
aI2
aI7
aI20
aa(lp178
V0020700582
p179
aVJAN 18, 2008
p180
aVCHI vs. GSW
p181
aVL
p182
aI22
aI3
aI5
aF0.6
aI0
aI1
aF0.0
aI1
aI6
aF0.167
aI2
aI2
aI4
aI0
aI1
aI2
aI2
aI1
aI7
aI2
aa(lp183
V0020700588
p184
aVJAN 19, 2008
p185
aVCHI vs. DET
p186
aVW
p187
aI26
aI3
aI5
aF0.6
aI0
aI0
aF0.0
aI0
aI0
aF0.0
aI2
aI5
aI7
aI1
aI0
aI0
aI1
aI1
aI6
aI8
aa(lp188
V0020700604
p189
aVJAN 21, 2008
p190
aVCHI @ MEM
p191
aVL
p192
aI31
aI1
aI4
aF0.25
aI0
aI0
aF0.0
aI0
aI0
aF0.0
aI6
aI7
aI13
aI1
aI2
aI1
aI1
aI1
aI2
aI-16
aa(lp193
V0020700617
p194
aVJAN 23, 2008
p195
aVCHI vs. IND
p196
aVW
p197
aI24
aI1
aI4
aF0.25
aI0
aI0
aF0.0
aI1
aI4
aF0.25
aI0
aI5
aI5
aI2
aI0
aI1
aI0
aI2
aI3
aI-10
aa(lp198
V0020700632
p199
aVJAN 25, 2008
p200
aVCHI vs. CHA
p201
aVL
p202
aI42
aI2
aI6
aF0.333
aI0
aI0
aF0.0
aI2
aI4
aF0.5
aI4
aI5
aI9
aI0
aI2
aI3
aI0
aI1
aI6
aI-24
aa(lp203
V0020700642
p204
aVJAN 27, 2008
p205
aVCHI vs. PHX
p206
aVL
p207
aI32
aI2
aI4
aF0.5
aI0
aI0
aF0.0
aI0
aI0
aF0.0
aI3
aI4
aI7
aI1
aI1
aI0
aI0
aI2
aI4
aI-3
aa(lp208
V0020700660
p209
aVJAN 29, 2008
p210
aVCHI vs. MIN
p211
aVW
p212
aI36
aI1
aI3
aF0.333
aI0
aI0
aF0.0
aI0
aI0
aF0.0
aI4
aI8
aI12
aI3
aI4
aI2
aI1
aI2
aI2
aI26
aa(lp213
V0020700670
p214
aVJAN 30, 2008
p215
aVCHI @ MIN
p216
aVL
p217
aI33
aI1
aI1
aF1.0
aI0
aI0
aF0.0
aI3
aI4
aF0.75
aI1
aI7
aI8
aI0
aI3
aI2
aI1
aI3
aI5
aI-4
aa(lp218
V0020700694
p219
aVFEB 02, 2008
p220
aVCHI @ SAC
p221
aVL
p222
aI35
aI4
aI6
aF0.667
aI0
aI0
aF0.0
aI1
aI4
aF0.25
aI3
aI6
aI9
aI2
aI0
aI4
aI3
aI5
aI9
aI-9
aa(lp223
V0020700706
p224
aVFEB 04, 2008
p225
aVCHI @ SEA
p226
aVW
p227
aI31
aI3
aI7
aF0.429
aI0
aI0
aF0.0
aI1
aI4
aF0.25
aI8
aI2
aI10
aI7
aI3
aI1
aI0
aI1
aI7
aI20
aa(lp228
V0020700722
p229
aVFEB 06, 2008
p230
aVCHI @ POR
p231
aVL
p232
aI36
aI5
aI8
aF0.625
aI0
aI1
aF0.0
aI2
aI6
aF0.333
aI2
aI6
aI8
aI0
aI0
aI0
aI0
aI0
aI12
aI3
aa(lp233
V0020700725
p234
aVFEB 07, 2008
p235
aVCHI @ GSW
p236
aVW
p237
aI27
aI5
aI7
aF0.714
aI0
aI0
aF0.0
aI0
aI7
aF0.0
aI0
aI8
aI8
aI0
aI1
aI1
aI2
aI1
aI10
aI-5
aa(lp238
V0020700742
p239
aVFEB 09, 2008
p240
aVCHI @ UTA
p241
aVL
p242
aI38
aI2
aI7
aF0.286
aI0
aI0
aF0.0
aI5
aI8
aF0.625
aI2
aI5
aI7
aI2
aI2
aI3
aI1
aI1
aI9
aI-11
aa(lp243
V0020700763
p244
aVFEB 12, 2008
p245
aVCHI vs. NOH
p246
aVL
p247
aI35
aI4
aI11
aF0.364
aI0
aI0
aF0.0
aI1
aI2
aF0.5
aI6
aI10
aI16
aI1
aI0
aI1
aI3
aI0
aI9
aI-16
aa(lp248
V0020700793
p249
aVFEB 20, 2008
p250
aVCHI @ NJN
p251
aVL
p252
aI33
aI2
aI9
aF0.222
aI0
aI0
aF0.0
aI2
aI4
aF0.5
aI3
aI6
aI9
aI2
aI1
aI0
aI1
aI3
aI6
aI1
aa(lp253
V0020700826
p254
aVFEB 24, 2008
p255
aVCLE vs. MEM
p256
aVW
p257
aI34
aI5
aI6
aF0.833
aI0
aI0
aF0.0
aI2
aI4
aF0.5
aI1
aI9
aI10
aI0
aI2
aI1
aI3
aI2
aI12
aI12
aa(lp258
V0020700839
p259
aVFEB 26, 2008
p260
aVCLE @ MIL
p261
aVL
p262
aI33
aI2
aI6
aF0.333
aI0
aI0
aF0.0
aI3
aI4
aF0.75
aI5
aI6
aI11
aI1
aI1
aI0
aI0
aI2
aI7
aI-14
aa(lp263
V0020700849
p264
aVFEB 27, 2008
p265
aVCLE @ BOS
p266
aVL
p267
aI26
aI3
aI6
aF0.5
aI0
aI0
aF0.0
aI0
aI0
aF0.0
aI1
aI5
aI6
aI1
aI0
aI0
aI2
aI4
aI6
aI-17
aa(lp268
V0020700861
p269
aVFEB 29, 2008
p270
aVCLE vs. MIN
p271
aVW
p272
aI29
aI4
aI5
aF0.8
aI0
aI0
aF0.0
aI0
aI0
aF0.0
aI4
aI5
aI9
aI0
aI0
aI2
aI0
aI0
aI8
aI10
aa(lp273
V0020700875
p274
aVMAR 02, 2008
p275
aVCLE vs. CHI
p276
aVW
p277
aI36
aI2
aI6
aF0.333
aI0
aI0
aF0.0
aI3
aI8
aF0.375
aI2
aI6
aI8
aI0
aI2
aI2
aI1
aI3
aI7
aI12
aa(lp278
V0020700900
p279
aVMAR 05, 2008
p280
aVCLE @ NYK
p281
aVW
p282
aI35
aI1
aI4
aF0.25
aI0
aI0
aF0.0
aI5
aI8
aF0.625
aI4
aI3
aI7
aI2
aI2
aI3
aI1
aI3
aI7
aI5
aa(lp283
V0020700909
p284
aVMAR 06, 2008
p285
aVCLE @ CHI
p286
aVL
p287
aI28
aI1
aI4
aF0.25
aI0
aI0
aF0.0
aI0
aI0
aF0.0
aI2
aI8
aI10
aI1
aI0
aI2
aI2
aI3
aI2
aI-12
aa(lp288
V0020700924
p289
aVMAR 08, 2008
p290
aVCLE vs. IND
p291
aVW
p292
aI24
aI1
aI3
aF0.333
aI0
aI0
aF0.0
aI0
aI3
aF0.0
aI2
aI4
aI6
aI0
aI0
aI2
aI0
aI1
aI2
aI16
aa(lp293
V0020700941
p294
aVMAR 10, 2008
p295
aVCLE vs. POR
p296
aVW
p297
aI16
aI0
aI4
aF0.0
aI0
aI0
aF0.0
aI0
aI2
aF0.0
aI1
aI4
aI5
aI0
aI0
aI0
aI0
aI0
aI0
aI-7
aa(lp298
V0020700963
p299
aVMAR 13, 2008
p300
aVCLE @ WAS
p301
aVL
p302
aI33
aI3
aI3
aF1.0
aI0
aI0
aF0.0
aI2
aI2
aF1.0
aI2
aI6
aI8
aI0
aI0
aI3
aI2
aI3
aI8
aI-6
aa(lp303
V0020700987
p304
aVMAR 16, 2008
p305
aVCLE vs. CHA
p306
aVW
p307
aI28
aI2
aI4
aF0.5
aI0
aI0
aF0.0
aI0
aI0
aF0.0
aI6
aI9
aI15
aI0
aI3
aI1
aI0
aI1
aI4
aI10
aa(lp308
V0020700992
p309
aVMAR 17, 2008
p310
aVCLE @ ORL
p311
aVL
p312
aI23
aI1
aI1
aF1.0
aI0
aI0
aF0.0
aI0
aI0
aF0.0
aI0
aI4
aI4
aI0
aI0
aI1
aI0
aI3
aI2
aI-1
aa(lp313
V0020701011
p314
aVMAR 19, 2008
p315
aVCLE vs. DET
p316
aVW
p317
aI32
aI1
aI4
aF0.25
aI0
aI0
aF0.0
aI0
aI0
aF0.0
aI2
aI6
aI8
aI4
aI1
aI2
aI0
aI1
aI2
aI19
aa(lp318
V0020701024
p319
aVMAR 21, 2008
p320
aVCLE vs. TOR
p321
aVW
p322
aI20
aI0
aI0
aF0.0
aI0
aI0
aF0.0
aI1
aI2
aF0.5
aI3
aI3
aI6
aI0
aI1
aI1
aI0
aI2
aI1
aI-9
aa(lp323
V0020701085
p324
aVMAR 29, 2008
p325
aVCLE @ DET
p326
aVL
p327
aI20
aI3
aI3
aF1.0
aI0
aI0
aF0.0
aI0
aI0
aF0.0
aI3
aI2
aI5
aI0
aI0
aI2
aI1
aI1
aI6
aI-15
aa(lp328
V0020701123
p329
aVAPR 03, 2008
p330
aVCLE vs. CHI
p331
aVL
p332
aI32
aI3
aI6
aF0.5
aI0
aI0
aF0.0
aI0
aI2
aF0.0
aI4
aI4
aI8
aI0
aI3
aI3
aI0
aI2
aI6
aI5
aa(lp333
V0020701137
p334
aVAPR 05, 2008
p335
aVCLE vs. ORL
p336
aVL
p337
aI27
aI0
aI1
aF0.0
aI0
aI0
aF0.0
aI1
aI2
aF0.5
aI4
aI5
aI9
aI2
aI1
aI4
aI2
aI1
aI1
aI-8
aa(lp338
V0020701168
p339
aVAPR 09, 2008
p340
aVCLE vs. NJN
p341
aVW
p342
aI17
aI0
aI2
aF0.0
aI0
aI0
aF0.0
aI1
aI2
aF0.5
aI1
aI3
aI4
aI0
aI1
aI0
aI1
aI0
aI1
aI-12
aa(lp343
V0020701179
p344
aVAPR 11, 2008
p345
aVCLE @ CHI
p346
aVL
p347
aI18
aI0
aI1
aF0.0
aI0
aI0
aF0.0
aI0
aI0
aF0.0
aI1
aI4
aI5
aI0
aI0
aI3
aI1
aI1
aI0
aI-2
aa(lp348
V0020701197
p349
aVAPR 13, 2008
p350
aVCLE vs. MIA
p351
aVW
p352
aI21
aI1
aI2
aF0.5
aI0
aI0
aF0.0
aI0
aI2
aF0.0
aI2
aI1
aI3
aI2
aI1
aI3
aI0
aI1
aI2
aI7
aa(lp353
V0020701204
p354
aVAPR 14, 2008
p355
aVCLE @ PHI
p356
aVW
p357
aI25
aI2
aI4
aF0.5
aI0
aI0
aF0.0
aI0
aI0
aF0.0
aI4
aI3
aI7
aI0
aI0
aI2
aI2
aI1
aI4
aI0
aa(lp358
V0020701219
p359
aVAPR 16, 2008
p360
aVCLE vs. DET
p361
aVL
p362
aI21
aI2
aI6
aF0.333
aI0
aI0
aF0.0
aI1
aI3
aF0.333
aI5
aI4
aI9
aI0
aI1
aI0
aI0
aI0
aI5
aI5
aasS'name'
p363
VBen Wallace
p364
sS'weight'
p365
V240
p366
sS'age'
p367
I33
sS'experience'
p368
I11
sS'height'
p369
V6-9
p370
sS'position'
p371
VForward-Center
p372
s.