(dp0
S'age'
p1
I32
sS'stats'
p2
(lp3
(lp4
V0020701230
p5
aVAPR 16, 2008
p6
aVGSW vs. SEA
p7
aVL
p8
aI20
aI3
aI7
aF0.429
aI1
aI5
aF0.2
aI0
aI0
aF0.0
aI2
aI4
aI6
aI2
aI1
aI0
aI0
aI0
aI7
aI-8
aa(lp9
V0020701209
p10
aVAPR 14, 2008
p11
aVGSW @ PHX
p12
aVL
p13
aI20
aI5
aI7
aF0.714
aI2
aI2
aF1.0
aI2
aI2
aF1.0
aI0
aI3
aI3
aI0
aI0
aI0
aI1
aI4
aI14
aI0
aa(lp14
V0020701196
p15
aVAPR 12, 2008
p16
aVGSW vs. LAC
p17
aVW
p18
aI4
aI1
aI2
aF0.5
aI0
aI0
aF0.0
aI0
aI0
aF0.0
aI0
aI0
aI0
aI0
aI0
aI0
aI1
aI0
aI2
aI-4
aa(lp19
V0020701173
p20
aVAPR 10, 2008
p21
aVGSW vs. DEN
p22
aVL
p23
aI3
aI0
aI0
aF0.0
aI0
aI0
aF0.0
aI0
aI0
aF0.0
aI0
aI1
aI1
aI0
aI0
aI0
aI1
aI1
aI0
aI-2
aa(lp24
V0020701163
p25
aVAPR 08, 2008
p26
aVGSW vs. SAC
p27
aVW
p28
aI12
aI1
aI2
aF0.5
aI0
aI0
aF0.0
aI5
aI6
aF0.833
aI2
aI4
aI6
aI3
aI0
aI2
aI2
aI4
aI7
aI3
aa(lp29
V0020701130
p30
aVAPR 04, 2008
p31
aVGSW @ MEM
p32
aVW
p33
aI3
aI0
aI0
aF0.0
aI0
aI0
aF0.0
aI0
aI0
aF0.0
aI0
aI1
aI1
aI0
aI0
aI0
aI0
aI0
aI0
aI2
aa(lp34
V0020701120
p35
aVAPR 02, 2008
p36
aVGSW @ DAL
p37
aVL
p38
aI14
aI0
aI1
aF0.0
aI0
aI0
aF0.0
aI3
aI4
aF0.75
aI0
aI2
aI2
aI1
aI0
aI0
aI0
aI1
aI3
aI-7
aa(lp39
V0020701110
p40
aVAPR 01, 2008
p41
aVGSW @ SAS
p42
aVL
p43
aI15
aI2
aI4
aF0.5
aI0
aI1
aF0.0
aI2
aI2
aF1.0
aI0
aI1
aI1
aI1
aI0
aI1
aI0
aI1
aI6
aI-7
aa(lp44
V0020701096
p45
aVMAR 30, 2008
p46
aVGSW vs. DAL
p47
aVW
p48
aI2
aI0
aI0
aF0.0
aI0
aI0
aF0.0
aI0
aI0
aF0.0
aI0
aI0
aI0
aI0
aI0
aI0
aI0
aI0
aI0
aI1
aa(lp49
V0020701087
p50
aVMAR 29, 2008
p51
aVGSW @ DEN
p52
aVL
p53
aI15
aI1
aI5
aF0.2
aI1
aI2
aF0.5
aI2
aI2
aF1.0
aI4
aI3
aI7
aI1
aI0
aI1
aI0
aI6
aI5
aI3
aa(lp54
V0020701072
p55
aVMAR 27, 2008
p56
aVGSW vs. POR
p57
aVW
p58
aI14
aI3
aI6
aF0.5
aI0
aI2
aF0.0
aI0
aI0
aF0.0
aI2
aI1
aI3
aI2
aI0
aI0
aI0
aI1
aI6
aI-2
aa(lp59
V0020700965
p60
aVMAR 13, 2008
p61
aVGSW @ PHX
p62
aVL
p63
aI7
aI0
aI2
aF0.0
aI0
aI1
aF0.0
aI0
aI0
aF0.0
aI2
aI1
aI3
aI0
aI0
aI0
aI0
aI2
aI0
aI5
aa(lp64
V0020700927
p65
aVMAR 08, 2008
p66
aVGSW @ ORL
p67
aVW
p68
aI7
aI0
aI4
aF0.0
aI0
aI3
aF0.0
aI2
aI2
aF1.0
aI0
aI2
aI2
aI0
aI0
aI0
aI0
aI1
aI2
aI-7
aa(lp69
V0020700916
p70
aVMAR 07, 2008
p71
aVGSW @ MIA
p72
aVW
p73
aI8
aI3
aI5
aF0.6
aI1
aI2
aF0.5
aI0
aI0
aF0.0
aI1
aI3
aI4
aI0
aI0
aI0
aI1
aI3
aI7
aI7
aa(lp74
V0020700898
p75
aVMAR 05, 2008
p76
aVGSW @ CHA
p77
aVL
p78
aI11
aI0
aI2
aF0.0
aI0
aI1
aF0.0
aI0
aI0
aF0.0
aI0
aI1
aI1
aI0
aI0
aI0
aI0
aI3
aI0
aI-10
aa(lp79
V0020700889
p80
aVMAR 04, 2008
p81
aVGSW @ ATL
p82
aVW
p83
aI5
aI1
aI1
aF1.0
aI1
aI1
aF1.0
aI0
aI0
aF0.0
aI0
aI0
aI0
aI1
aI0
aI0
aI0
aI1
aI3
aI4
aa(lp84
V0020700884
p85
aVMAR 02, 2008
p86
aVGSW vs. POR
p87
aVW
p88
aI15
aI1
aI3
aF0.333
aI0
aI1
aF0.0
aI0
aI0
aF0.0
aI1
aI1
aI2
aI1
aI0
aI0
aI1
aI3
aI2
aI3
aa(lp89
V0020700867
p90
aVFEB 29, 2008
p91
aVGSW vs. PHI
p92
aVW
p93
aI13
aI3
aI6
aF0.5
aI1
aI3
aF0.333
aI0
aI0
aF0.0
aI2
aI1
aI3
aI2
aI1
aI0
aI0
aI2
aI7
aI12
aa(lp94
V0020700844
p95
aVFEB 26, 2008
p96
aVGSW vs. SEA
p97
aVW
p98
aI22
aI6
aI6
aF1.0
aI1
aI1
aF1.0
aI1
aI1
aF1.0
aI5
aI0
aI5
aI1
aI0
aI0
aI0
aI0
aI14
aI11
aa(lp99
V0020700814
p100
aVFEB 22, 2008
p101
aVGSW vs. ATL
p102
aVL
p103
aI11
aI1
aI2
aF0.5
aI0
aI0
aF0.0
aI0
aI0
aF0.0
aI1
aI0
aI1
aI0
aI0
aI0
aI0
aI1
aI2
aI-8
aa(lp104
V0020700799
p105
aVFEB 20, 2008
p106
aVGSW vs. BOS
p107
aVW
p108
aI2
aI0
aI0
aF0.0
aI0
aI0
aF0.0
aI0
aI0
aF0.0
aI0
aI1
aI1
aI0
aI0
aI0
aI0
aI2
aI0
aI1
aa(lp109
V0020700786
p110
aVFEB 19, 2008
p111
aVGSW @ UTA
p112
aVL
p113
aI17
aI1
aI2
aF0.5
aI1
aI1
aF1.0
aI0
aI0
aF0.0
aI0
aI1
aI1
aI0
aI0
aI0
aI2
aI1
aI3
aI-16
aa(lp114
V0020700775
p115
aVFEB 13, 2008
p116
aVGSW vs. PHX
p117
aVW
p118
aI8
aI0
aI0
aF0.0
aI0
aI0
aF0.0
aI0
aI0
aF0.0
aI0
aI2
aI2
aI1
aI1
aI1
aI0
aI1
aI0
aI-1
aa(lp119
V0020700565
p120
aVJAN 16, 2008
p121
aVGSW @ IND
p122
aVL
p123
aI5
aI0
aI2
aF0.0
aI0
aI1
aF0.0
aI1
aI1
aF1.0
aI0
aI0
aI0
aI0
aI0
aI0
aI0
aI0
aI1
aI-11
aa(lp124
V0020700559
p125
aVJAN 15, 2008
p126
aVGSW @ MIN
p127
aVW
p128
aI17
aI3
aI6
aF0.5
aI0
aI0
aF0.0
aI3
aI3
aF1.0
aI0
aI3
aI3
aI2
aI0
aI1
aI0
aI2
aI9
aI17
aa(lp129
V0020700545
p130
aVJAN 13, 2008
p131
aVGSW vs. IND
p132
aVW
p133
aI16
aI2
aI6
aF0.333
aI2
aI4
aF0.5
aI1
aI2
aF0.5
aI1
aI2
aI3
aI3
aI2
aI0
aI0
aI2
aI7
aI10
aa(lp134
V0020700532
p135
aVJAN 11, 2008
p136
aVGSW vs. MEM
p137
aVW
p138
aI7
aI0
aI2
aF0.0
aI0
aI2
aF0.0
aI0
aI0
aF0.0
aI1
aI1
aI2
aI0
aI0
aI0
aI0
aI2
aI0
aI-4
aa(lp139
V0020700518
p140
aVJAN 09, 2008
p141
aVGSW @ POR
p142
aVL
p143
aI23
aI3
aI8
aF0.375
aI1
aI4
aF0.25
aI0
aI0
aF0.0
aI1
aI8
aI9
aI2
aI0
aI0
aI2
aI5
aI7
aI3
aa(lp144
V0020700350
p145
aVDEC 16, 2007
p146
aVGSW @ DET
p147
aVL
p148
aI22
aI3
aI6
aF0.5
aI1
aI2
aF0.5
aI5
aI5
aF1.0
aI1
aI2
aI3
aI3
aI0
aI0
aI3
aI0
aI12
aI-10
aa(lp149
V0020700338
p150
aVDEC 14, 2007
p151
aVGSW vs. LAL
p152
aVW
p153
aI5
aI1
aI1
aF1.0
aI1
aI1
aF1.0
aI0
aI0
aF0.0
aI0
aI1
aI1
aI0
aI0
aI0
aI1
aI2
aI3
aI0
aa(lp154
V0020700323
p155
aVDEC 12, 2007
p156
aVGSW @ POR
p157
aVL
p158
aI13
aI1
aI5
aF0.2
aI1
aI4
aF0.25
aI2
aI2
aF1.0
aI1
aI3
aI4
aI0
aI0
aI0
aI2
aI1
aI5
aI5
aa(lp159
V0020700313
p160
aVDEC 11, 2007
p161
aVGSW vs. SAS
p162
aVW
p163
aI2
aI0
aI2
aF0.0
aI0
aI0
aF0.0
aI0
aI0
aF0.0
aI0
aI0
aI0
aI0
aI0
aI0
aI1
aI0
aI0
aI-4
aa(lp164
V0020700300
p165
aVDEC 09, 2007
p166
aVGSW @ LAL
p167
aVL
p168
aI4
aI2
aI3
aF0.667
aI1
aI2
aF0.5
aI0
aI0
aF0.0
aI0
aI0
aI0
aI0
aI0
aI0
aI0
aI0
aI5
aI7
aa(lp169
V0020700271
p170
aVDEC 05, 2007
p171
aVGSW vs. MIL
p172
aVW
p173
aI13
aI4
aI6
aF0.667
aI3
aI4
aF0.75
aI0
aI0
aF0.0
aI0
aI6
aI6
aI0
aI0
aI0
aI1
aI2
aI11
aI7
aa(lp174
V0020700255
p175
aVDEC 03, 2007
p176
aVGSW vs. ORL
p177
aVL
p178
aI6
aI1
aI4
aF0.25
aI0
aI2
aF0.0
aI0
aI0
aF0.0
aI1
aI2
aI3
aI1
aI0
aI0
aI0
aI0
aI2
aI4
aa(lp179
V0020700248
p180
aVDEC 02, 2007
p181
aVGSW @ SEA
p182
aVW
p183
aI8
aI0
aI1
aF0.0
aI0
aI0
aF0.0
aI0
aI0
aF0.0
aI0
aI2
aI2
aI0
aI0
aI0
aI0
aI0
aI0
aI3
aa(lp184
V0020700223
p185
aVNOV 29, 2007
p186
aVGSW vs. HOU
p187
aVW
p188
aI2
aI0
aI0
aF0.0
aI0
aI0
aF0.0
aI0
aI0
aF0.0
aI0
aI0
aI0
aI0
aI0
aI0
aI0
aI0
aI0
aI-1
aa(lp189
V0020700184
p190
aVNOV 24, 2007
p191
aVGSW @ PHI
p192
aVW
p193
aI4
aI0
aI0
aF0.0
aI0
aI0
aF0.0
aI0
aI0
aF0.0
aI0
aI1
aI1
aI0
aI1
aI0
aI0
aI0
aI0
aI-2
aa(lp194
V0020700170
p195
aVNOV 23, 2007
p196
aVGSW @ WAS
p197
aVW
p198
aI6
aI1
aI2
aF0.5
aI1
aI2
aF0.5
aI0
aI0
aF0.0
aI0
aI0
aI0
aI0
aI1
aI0
aI0
aI2
aI3
aI5
aa(lp199
V0020700158
p200
aVNOV 21, 2007
p201
aVGSW @ BOS
p202
aVL
p203
aI16
aI2
aI7
aF0.286
aI0
aI3
aF0.0
aI0
aI0
aF0.0
aI3
aI0
aI3
aI0
aI0
aI0
aI2
aI1
aI4
aI-16
aa(lp204
V0020700153
p205
aVNOV 20, 2007
p206
aVGSW @ NYK
p207
aVW
p208
aI15
aI2
aI2
aF1.0
aI1
aI1
aF1.0
aI0
aI0
aF0.0
aI0
aI1
aI1
aI0
aI0
aI0
aI1
aI1
aI5
aI7
aa(lp209
V0020700141
p210
aVNOV 18, 2007
p211
aVGSW @ TOR
p212
aVW
p213
aI17
aI4
aI6
aF0.667
aI1
aI2
aF0.5
aI0
aI0
aF0.0
aI2
aI4
aI6
aI2
aI1
aI0
aI0
aI1
aI9
aI6
aa(lp214
V0020700130
p215
aVNOV 16, 2007
p216
aVGSW vs. LAC
p217
aVW
p218
aI1
aI0
aI0
aF0.0
aI0
aI0
aF0.0
aI0
aI0
aF0.0
aI0
aI0
aI0
aI0
aI0
aI0
aI0
aI0
aI0
aI2
aa(lp219
V0020700003
p220
aVOCT 30, 2007
p221
aVGSW vs. UTA
p222
aVL
p223
aI7
aI0
aI1
aF0.0
aI0
aI1
aF0.0
aI0
aI0
aF0.0
aI0
aI2
aI2
aI1
aI0
aI0
aI0
aI1
aI0
aI-4
aasS'name'
p224
VAustin Croshere
p225
sS'experience'
p226
I10
s.