(dp0
S'age'
p1
I28
sS'stats'
p2
(lp3
(lp4
V0020701194
p5
aVAPR 12, 2008
p6
aVSAC vs. NOH
p7
aVW
p8
aI44
aI9
aI19
aF0.474
aI4
aI9
aF0.444
aI0
aI0
aF0.0
aI1
aI7
aI8
aI4
aI3
aI1
aI3
aI1
aI22
aI-1
aa(lp9
V0020701150
p10
aVAPR 06, 2008
p11
aVSAC vs. LAL
p12
aVL
p13
aI27
aI7
aI20
aF0.35
aI3
aI5
aF0.6
aI2
aI2
aF1.0
aI2
aI2
aI4
aI0
aI2
aI0
aI1
aI3
aI19
aI-8
aa(lp14
V0020701124
p15
aVAPR 03, 2008
p16
aVSAC vs. LAC
p17
aVW
p18
aI30
aI3
aI10
aF0.3
aI0
aI1
aF0.0
aI4
aI4
aF1.0
aI1
aI3
aI4
aI4
aI1
aI0
aI2
aI2
aI10
aI18
aa(lp19
V0020701112
p20
aVAPR 01, 2008
p21
aVSAC vs. HOU
p22
aVW
p23
aI42
aI12
aI26
aF0.462
aI4
aI7
aF0.571
aI2
aI6
aF0.333
aI2
aI2
aI4
aI3
aI5
aI0
aI4
aI3
aI30
aI-1
aa(lp24
V0020701097
p25
aVMAR 30, 2008
p26
aVSAC @ SEA
p27
aVW
p28
aI42
aI12
aI23
aF0.522
aI2
aI3
aF0.667
aI3
aI3
aF1.0
aI4
aI8
aI12
aI3
aI4
aI2
aI1
aI1
aI29
aI15
aa(lp29
V0020701081
p30
aVMAR 28, 2008
p31
aVSAC vs. WAS
p32
aVL
p33
aI43
aI10
aI22
aF0.455
aI1
aI5
aF0.2
aI7
aI7
aF1.0
aI1
aI1
aI2
aI1
aI3
aI0
aI3
aI3
aI28
aI-11
aa(lp34
V0020701067
p35
aVMAR 26, 2008
p36
aVSAC vs. MEM
p37
aVW
p38
aI45
aI9
aI23
aF0.391
aI2
aI7
aF0.286
aI4
aI4
aF1.0
aI3
aI2
aI5
aI3
aI6
aI0
aI3
aI3
aI24
aI9
aa(lp39
V0020701049
p40
aVMAR 24, 2008
p41
aVSAC @ HOU
p42
aVL
p43
aI40
aI7
aI17
aF0.412
aI3
aI4
aF0.75
aI0
aI0
aF0.0
aI1
aI2
aI3
aI6
aI1
aI0
aI4
aI4
aI17
aI-6
aa(lp44
V0020701025
p45
aVMAR 21, 2008
p46
aVSAC @ SAS
p47
aVL
p48
aI38
aI10
aI21
aF0.476
aI1
aI2
aF0.5
aI2
aI4
aF0.5
aI4
aI3
aI7
aI2
aI0
aI0
aI1
aI3
aI23
aI-10
aa(lp49
V0020701004
p50
aVMAR 18, 2008
p51
aVSAC vs. GSW
p52
aVW
p53
aI42
aI10
aI20
aF0.5
aI1
aI4
aF0.25
aI5
aI7
aF0.714
aI2
aI3
aI5
aI3
aI1
aI1
aI1
aI4
aI26
aI23
aa(lp54
V0020700990
p55
aVMAR 16, 2008
p56
aVSAC vs. TOR
p57
aVW
p58
aI36
aI8
aI15
aF0.533
aI1
aI4
aF0.25
aI2
aI2
aF1.0
aI2
aI8
aI10
aI5
aI4
aI0
aI2
aI2
aI19
aI-1
aa(lp59
V0020700981
p60
aVMAR 15, 2008
p61
aVSAC @ PHX
p62
aVL
p63
aI33
aI10
aI22
aF0.455
aI4
aI5
aF0.8
aI2
aI5
aF0.4
aI4
aI5
aI9
aI2
aI5
aI0
aI4
aI4
aI26
aI-19
aa(lp64
V0020700964
p65
aVMAR 13, 2008
p66
aVSAC vs. POR
p67
aVW
p68
aI37
aI8
aI12
aF0.667
aI2
aI4
aF0.5
aI4
aI4
aF1.0
aI0
aI4
aI4
aI3
aI6
aI0
aI0
aI1
aI22
aI6
aa(lp69
V0020700938
p70
aVMAR 09, 2008
p71
aVSAC @ LAL
p72
aVW
p73
aI27
aI6
aI14
aF0.429
aI0
aI2
aF0.0
aI5
aI6
aF0.833
aI1
aI3
aI4
aI2
aI4
aI1
aI3
aI4
aI17
aI-5
aa(lp74
V0020700895
p75
aVMAR 04, 2008
p76
aVSAC vs. LAL
p77
aVL
p78
aI40
aI10
aI23
aF0.435
aI0
aI4
aF0.0
aI3
aI3
aF1.0
aI1
aI4
aI5
aI2
aI1
aI2
aI1
aI5
aI23
aI-14
aa(lp79
V0020700885
p80
aVMAR 02, 2008
p81
aVSAC vs. MIA
p82
aVW
p83
aI39
aI12
aI22
aF0.545
aI4
aI6
aF0.667
aI4
aI4
aF1.0
aI1
aI2
aI3
aI2
aI1
aI0
aI2
aI1
aI32
aI12
aa(lp84
V0020700865
p85
aVFEB 29, 2008
p86
aVSAC @ DAL
p87
aVL
p88
aI41
aI10
aI23
aF0.435
aI0
aI2
aF0.0
aI2
aI2
aF1.0
aI2
aI5
aI7
aI2
aI2
aI2
aI3
aI4
aI22
aI8
aa(lp89
V0020700847
p90
aVFEB 27, 2008
p91
aVSAC @ ATL
p92
aVL
p93
aI37
aI8
aI14
aF0.571
aI1
aI2
aF0.5
aI6
aI11
aF0.545
aI3
aI4
aI7
aI4
aI1
aI0
aI2
aI1
aI23
aI0
aa(lp94
V0020700838
p95
aVFEB 26, 2008
p96
aVSAC @ MIA
p97
aVL
p98
aI33
aI3
aI14
aF0.214
aI0
aI5
aF0.0
aI8
aI8
aF1.0
aI1
aI2
aI3
aI2
aI0
aI0
aI3
aI3
aI14
aI-9
aa(lp99
V0020700825
p100
aVFEB 24, 2008
p101
aVSAC @ ORL
p102
aVL
p103
aI31
aI8
aI15
aF0.533
aI2
aI4
aF0.5
aI5
aI6
aF0.833
aI2
aI4
aI6
aI0
aI1
aI0
aI3
aI3
aI23
aI-16
aa(lp104
V0020700803
p105
aVFEB 22, 2008
p106
aVSAC @ CHA
p107
aVW
p108
aI47
aI8
aI21
aF0.381
aI1
aI2
aF0.5
aI3
aI4
aF0.75
aI5
aI4
aI9
aI4
aI3
aI2
aI3
aI3
aI20
aI-3
aa(lp109
V0020700797
p110
aVFEB 20, 2008
p111
aVSAC vs. ATL
p112
aVW
p113
aI39
aI9
aI12
aF0.75
aI1
aI1
aF1.0
aI10
aI14
aF0.714
aI3
aI4
aI7
aI3
aI3
aI1
aI3
aI2
aI29
aI20
aa(lp114
V0020700787
p115
aVFEB 19, 2008
p116
aVSAC @ POR
p117
aVW
p118
aI34
aI10
aI19
aF0.526
aI1
aI2
aF0.5
aI3
aI5
aF0.6
aI4
aI1
aI5
aI5
aI3
aI0
aI2
aI2
aI24
aI12
aa(lp119
V0020700773
p120
aVFEB 13, 2008
p121
aVSAC @ HOU
p122
aVL
p123
aI42
aI11
aI18
aF0.611
aI2
aI2
aF1.0
aI6
aI10
aF0.6
aI0
aI4
aI4
aI4
aI3
aI0
aI3
aI3
aI30
aI-3
aa(lp124
V0020700762
p125
aVFEB 12, 2008
p126
aVSAC @ MEM
p127
aVL
p128
aI40
aI6
aI16
aF0.375
aI1
aI3
aF0.333
aI5
aI5
aF1.0
aI1
aI4
aI5
aI7
aI3
aI0
aI4
aI5
aI18
aI3
aa(lp129
V0020700743
p130
aVFEB 09, 2008
p131
aVSAC @ GSW
p132
aVL
p133
aI41
aI10
aI21
aF0.476
aI0
aI2
aF0.0
aI3
aI6
aF0.5
aI2
aI11
aI13
aI2
aI3
aI2
aI3
aI2
aI23
aI-2
aa(lp134
V0020700735
p135
aVFEB 08, 2008
p136
aVSAC vs. UTA
p137
aVW
p138
aI33
aI6
aI14
aF0.429
aI1
aI3
aF0.333
aI9
aI12
aF0.75
aI3
aI5
aI8
aI2
aI1
aI0
aI3
aI4
aI22
aI15
aa(lp139
V0020700721
p140
aVFEB 06, 2008
p141
aVSAC vs. SEA
p142
aVL
p143
aI40
aI9
aI22
aF0.409
aI1
aI3
aF0.333
aI1
aI4
aF0.25
aI1
aI2
aI3
aI4
aI3
aI0
aI4
aI2
aI20
aI-15
aa(lp144
V0020700694
p145
aVFEB 02, 2008
p146
aVSAC vs. CHI
p147
aVW
p148
aI38
aI10
aI20
aF0.5
aI3
aI5
aF0.6
aI5
aI6
aF0.833
aI3
aI3
aI6
aI2
aI0
aI1
aI2
aI2
aI28
aI10
aa(lp149
V0020700685
p150
aVFEB 01, 2008
p151
aVSAC vs. NOH
p152
aVW
p153
aI40
aI11
aI22
aF0.5
aI2
aI4
aF0.5
aI0
aI0
aF0.0
aI2
aI3
aI5
aI3
aI2
aI1
aI2
aI0
aI24
aI13
aa(lp154
V0020700673
p155
aVJAN 30, 2008
p156
aVSAC vs. CHA
p157
aVW
p158
aI38
aI8
aI16
aF0.5
aI0
aI1
aF0.0
aI5
aI8
aF0.625
aI1
aI4
aI5
aI3
aI3
aI0
aI0
aI2
aI21
aI14
aa(lp159
V0020700651
p160
aVJAN 27, 2008
p161
aVSAC @ SEA
p162
aVW
p163
aI31
aI3
aI10
aF0.3
aI0
aI2
aF0.0
aI4
aI4
aF1.0
aI1
aI5
aI6
aI6
aI2
aI1
aI1
aI4
aI10
aI9
aa(lp164
V0020700635
p165
aVJAN 25, 2008
p166
aVSAC @ UTA
p167
aVL
p168
aI33
aI5
aI12
aF0.417
aI0
aI2
aF0.0
aI5
aI6
aF0.833
aI6
aI2
aI8
aI3
aI1
aI0
aI1
aI2
aI15
aI-11
aa(lp169
V0020700621
p170
aVJAN 23, 2008
p171
aVSAC @ LAC
p172
aVL
p173
aI32
aI4
aI12
aF0.333
aI0
aI3
aF0.0
aI0
aI0
aF0.0
aI2
aI2
aI4
aI3
aI1
aI0
aI2
aI2
aI8
aI-22
aa(lp174
V0020700609
p175
aVJAN 22, 2008
p176
aVSAC vs. NJN
p177
aVW
p178
aI34
aI9
aI14
aF0.643
aI2
aI2
aF1.0
aI7
aI10
aF0.7
aI3
aI3
aI6
aI4
aI5
aI1
aI3
aI1
aI27
aI22
aa(lp179
V0020700586
p180
aVJAN 19, 2008
p181
aVSAC @ IND
p182
aVW
p183
aI35
aI5
aI14
aF0.357
aI3
aI7
aF0.429
aI2
aI2
aF1.0
aI0
aI3
aI3
aI3
aI2
aI0
aI6
aI1
aI15
aI0
aa(lp184
V0020700577
p185
aVJAN 18, 2008
p186
aVSAC @ DET
p187
aVW
p188
aI29
aI5
aI13
aF0.385
aI3
aI8
aF0.375
aI5
aI8
aF0.625
aI0
aI2
aI2
aI3
aI2
aI0
aI1
aI3
aI18
aI19
aa(lp189
V0020700562
p190
aVJAN 16, 2008
p191
aVSAC @ TOR
p192
aVL
p193
aI29
aI2
aI10
aF0.2
aI0
aI3
aF0.0
aI0
aI0
aF0.0
aI0
aI2
aI2
aI4
aI1
aI1
aI1
aI4
aI4
aI-13
aa(lp194
V0020700417
p195
aVDEC 26, 2007
p196
aVSAC vs. BOS
p197
aVL
p198
aI41
aI4
aI15
aF0.267
aI0
aI5
aF0.0
aI7
aI9
aF0.778
aI2
aI4
aI6
aI1
aI2
aI0
aI2
aI2
aI15
aI-14
aa(lp199
V0020700404
p200
aVDEC 23, 2007
p201
aVSAC vs. DEN
p202
aVL
p203
aI44
aI10
aI16
aF0.625
aI2
aI7
aF0.286
aI2
aI5
aF0.4
aI1
aI8
aI9
aI8
aI4
aI1
aI4
aI4
aI24
aI6
aa(lp204
V0020700371
p205
aVDEC 19, 2007
p206
aVSAC @ MIL
p207
aVW
p208
aI42
aI8
aI12
aF0.667
aI2
aI4
aF0.5
aI8
aI8
aF1.0
aI1
aI3
aI4
aI8
aI3
aI2
aI2
aI2
aI26
aI13
aa(lp209
V0020700362
p210
aVDEC 18, 2007
p211
aVSAC @ NJN
p212
aVW
p213
aI39
aI6
aI15
aF0.4
aI4
aI5
aF0.8
aI4
aI4
aF1.0
aI1
aI3
aI4
aI3
aI1
aI2
aI3
aI0
aI20
aI-2
aa(lp214
V0020700339
p215
aVDEC 15, 2007
p216
aVSAC @ WAS
p217
aVL
p218
aI32
aI4
aI10
aF0.4
aI1
aI2
aF0.5
aI1
aI2
aF0.5
aI0
aI3
aI3
aI1
aI0
aI0
aI4
aI3
aI10
aI-14
aa(lp219
V0020700327
p220
aVDEC 14, 2007
p221
aVSAC @ PHI
p222
aVW
p223
aI40
aI3
aI7
aF0.429
aI1
aI3
aF0.333
aI2
aI4
aF0.5
aI1
aI7
aI8
aI4
aI3
aI0
aI4
aI5
aI9
aI20
aa(lp224
V0020700318
p225
aVDEC 12, 2007
p226
aVSAC @ BOS
p227
aVL
p228
aI41
aI7
aI19
aF0.368
aI0
aI5
aF0.0
aI2
aI2
aF1.0
aI0
aI3
aI3
aI4
aI1
aI2
aI4
aI5
aI16
aI-8
aa(lp229
V0020700305
p230
aVDEC 10, 2007
p231
aVSAC vs. MIL
p232
aVW
p233
aI39
aI5
aI16
aF0.313
aI0
aI3
aF0.0
aI1
aI2
aF0.5
aI3
aI4
aI7
aI5
aI1
aI4
aI3
aI2
aI11
aI-5
aa(lp234
V0020700293
p235
aVDEC 08, 2007
p236
aVSAC @ DEN
p237
aVL
p238
aI42
aI5
aI18
aF0.278
aI0
aI5
aF0.0
aI0
aI0
aF0.0
aI1
aI1
aI2
aI11
aI5
aI0
aI3
aI2
aI10
aI4
aa(lp239
V0020700284
p240
aVDEC 07, 2007
p241
aVSAC vs. LAC
p242
aVL
p243
aI41
aI8
aI22
aF0.364
aI1
aI5
aF0.2
aI4
aI6
aF0.667
aI1
aI2
aI3
aI2
aI0
aI2
aI2
aI5
aI21
aI-10
aa(lp244
V0020700260
p245
aVDEC 04, 2007
p246
aVSAC vs. UTA
p247
aVW
p248
aI45
aI8
aI17
aF0.471
aI1
aI3
aF0.333
aI6
aI8
aF0.75
aI1
aI7
aI8
aI5
aI1
aI1
aI4
aI6
aI23
aI9
aa(lp249
V0020700241
p250
aVDEC 01, 2007
p251
aVSAC vs. HOU
p252
aVW
p253
aI43
aI9
aI20
aF0.45
aI1
aI6
aF0.167
aI7
aI9
aF0.778
aI1
aI5
aI6
aI3
aI4
aI1
aI1
aI2
aI26
aI13
aa(lp254
V0020700218
p255
aVNOV 28, 2007
p256
aVSAC vs. GSW
p257
aVL
p258
aI33
aI7
aI24
aF0.292
aI2
aI5
aF0.4
aI5
aI9
aF0.556
aI5
aI4
aI9
aI2
aI3
aI0
aI5
aI4
aI21
aI-8
aa(lp259
V0020700200
p260
aVNOV 26, 2007
p261
aVSAC vs. SAS
p262
aVW
p263
aI38
aI8
aI14
aF0.571
aI1
aI2
aF0.5
aI3
aI4
aF0.75
aI1
aI5
aI6
aI4
aI2
aI1
aI1
aI3
aI20
aI17
aa(lp264
V0020700180
p265
aVNOV 23, 2007
p266
aVSAC @ POR
p267
aVL
p268
aI37
aI6
aI13
aF0.462
aI2
aI4
aF0.5
aI3
aI5
aF0.6
aI1
aI10
aI11
aI5
aI2
aI0
aI1
aI3
aI17
aI-2
aa(lp269
V0020700156
p270
aVNOV 20, 2007
p271
aVSAC vs. PHX
p272
aVL
p273
aI41
aI12
aI23
aF0.522
aI3
aI5
aF0.6
aI6
aI9
aF0.667
aI3
aI9
aI12
aI2
aI2
aI0
aI6
aI1
aI33
aI-2
aa(lp274
V0020700143
p275
aVNOV 18, 2007
p276
aVSAC vs. DET
p277
aVW
p278
aI37
aI5
aI11
aF0.455
aI2
aI5
aF0.4
aI4
aI6
aF0.667
aI1
aI2
aI3
aI5
aI2
aI1
aI1
aI5
aI16
aI12
aa(lp279
V0020700128
p280
aVNOV 16, 2007
p281
aVSAC vs. NYK
p282
aVW
p283
aI53
aI11
aI16
aF0.688
aI2
aI3
aF0.667
aI4
aI11
aF0.364
aI2
aI6
aI8
aI2
aI2
aI1
aI3
aI3
aI28
aI3
aa(lp284
V0020700112
p285
aVNOV 14, 2007
p286
aVSAC @ MIN
p287
aVL
p288
aI37
aI7
aI13
aF0.538
aI3
aI4
aF0.75
aI0
aI0
aF0.0
aI0
aI3
aI3
aI6
aI3
aI1
aI5
aI3
aI17
aI-5
aasS'name'
p289
VMetta World Peace
p290
sS'experience'
p291
I8
s.