(dp0
S'age'
p1
I23
sS'stats'
p2
(lp3
(lp4
V0020700007
p5
aVOCT 31, 2007
p6
aVCHI @ NJN
p7
aVL
p8
aI11
aI1
aI3
aF0.333
aI0
aI1
aF0.0
aI2
aI2
aF1.0
aI1
aI0
aI1
aI2
aI0
aI0
aI2
aI4
aI4
aI-16
aa(lp9
V0020700031
p10
aVNOV 03, 2007
p11
aVCHI @ MIL
p12
aVL
p13
aI18
aI1
aI6
aF0.167
aI1
aI1
aF1.0
aI2
aI2
aF1.0
aI0
aI6
aI6
aI1
aI0
aI0
aI2
aI0
aI5
aI1
aa(lp14
V0020700049
p15
aVNOV 06, 2007
p16
aVCHI vs. LAC
p17
aVL
p18
aI14
aI0
aI4
aF0.0
aI0
aI1
aF0.0
aI0
aI0
aF0.0
aI1
aI4
aI5
aI3
aI0
aI0
aI1
aI2
aI0
aI-6
aa(lp19
V0020700082
p20
aVNOV 10, 2007
p21
aVCHI vs. TOR
p22
aVL
p23
aI26
aI4
aI15
aF0.267
aI1
aI5
aF0.2
aI0
aI1
aF0.0
aI0
aI6
aI6
aI4
aI3
aI0
aI3
aI3
aI9
aI-8
aa(lp24
V0020700140
p25
aVNOV 17, 2007
p26
aVCHI @ LAC
p27
aVW
p28
aI2
aI1
aI1
aF1.0
aI0
aI0
aF0.0
aI0
aI0
aF0.0
aI0
aI1
aI1
aI0
aI0
aI0
aI0
aI0
aI2
aI-1
aa(lp29
V0020700144
p30
aVNOV 18, 2007
p31
aVCHI @ LAL
p32
aVL
p33
aI25
aI4
aI8
aF0.5
aI1
aI2
aF0.5
aI0
aI1
aF0.0
aI2
aI1
aI3
aI2
aI0
aI0
aI4
aI2
aI9
aI-21
aa(lp34
V0020700155
p35
aVNOV 20, 2007
p36
aVCHI @ DEN
p37
aVL
p38
aI21
aI3
aI11
aF0.273
aI1
aI3
aF0.333
aI0
aI0
aF0.0
aI1
aI2
aI3
aI4
aI1
aI0
aI3
aI3
aI7
aI-4
aa(lp39
V0020700182
p40
aVNOV 24, 2007
p41
aVCHI @ NYK
p42
aVL
p43
aI19
aI1
aI4
aF0.25
aI0
aI0
aF0.0
aI0
aI0
aF0.0
aI1
aI2
aI3
aI1
aI1
aI0
aI0
aI3
aI2
aI-3
aa(lp44
V0020700192
p45
aVNOV 25, 2007
p46
aVCHI @ TOR
p47
aVL
p48
aI14
aI1
aI5
aF0.2
aI0
aI0
aF0.0
aI0
aI0
aF0.0
aI1
aI4
aI5
aI0
aI1
aI1
aI0
aI0
aI2
aI-5
aa(lp49
V0020700208
p50
aVNOV 27, 2007
p51
aVCHI vs. ATL
p52
aVW
p53
aI15
aI1
aI2
aF0.5
aI0
aI0
aF0.0
aI0
aI0
aF0.0
aI1
aI0
aI1
aI0
aI1
aI0
aI2
aI1
aI2
aI-2
aa(lp54
V0020700239
p55
aVDEC 01, 2007
p56
aVCHI vs. CHA
p57
aVW
p58
aI3
aI0
aI0
aF0.0
aI0
aI0
aF0.0
aI0
aI0
aF0.0
aI0
aI0
aI0
aI0
aI0
aI1
aI1
aI0
aI0
aI-2
aa(lp59
V0020700253
p60
aVDEC 03, 2007
p61
aVCHI vs. DAL
p62
aVL
p63
aI9
aI0
aI0
aF0.0
aI0
aI0
aF0.0
aI0
aI0
aF0.0
aI0
aI1
aI1
aI1
aI0
aI0
aI0
aI2
aI0
aI-3
aa(lp64
V0020700265
p65
aVDEC 05, 2007
p66
aVCHI @ CHA
p67
aVW
p68
aI4
aI0
aI1
aF0.0
aI0
aI0
aF0.0
aI0
aI0
aF0.0
aI0
aI0
aI0
aI0
aI0
aI0
aI0
aI0
aI0
aI1
aa(lp69
V0020700291
p70
aVDEC 08, 2007
p71
aVCHI vs. BOS
p72
aVL
p73
aI5
aI0
aI0
aF0.0
aI0
aI0
aF0.0
aI0
aI0
aF0.0
aI0
aI0
aI0
aI1
aI1
aI0
aI0
aI1
aI0
aI0
aa(lp74
V0020700311
p75
aVDEC 11, 2007
p76
aVCHI vs. SEA
p77
aVW
p78
aI14
aI2
aI4
aF0.5
aI0
aI0
aF0.0
aI1
aI2
aF0.5
aI0
aI1
aI1
aI1
aI2
aI0
aI0
aI1
aI5
aI2
aa(lp79
V0020700317
p80
aVDEC 12, 2007
p81
aVCHI @ IND
p82
aVL
p83
aI9
aI2
aI3
aF0.667
aI1
aI2
aF0.5
aI0
aI0
aF0.0
aI0
aI2
aI2
aI0
aI1
aI0
aI0
aI0
aI5
aI3
aa(lp84
V0020700363
p85
aVDEC 18, 2007
p86
aVCHI vs. LAL
p87
aVL
p88
aI2
aI0
aI0
aF0.0
aI0
aI0
aF0.0
aI0
aI0
aF0.0
aI0
aI0
aI0
aI0
aI0
aI0
aI0
aI0
aI0
aI-1
aa(lp89
V0020700365
p90
aVDEC 19, 2007
p91
aVCHI @ WAS
p92
aVW
p93
aI0
aI0
aI0
aF0.0
aI0
aI0
aF0.0
aI0
aI0
aF0.0
aI0
aI0
aI0
aI0
aI0
aI0
aI0
aI0
aI0
aI0
aa(lp94
V0020700381
p95
aVDEC 21, 2007
p96
aVCHI @ BOS
p97
aVL
p98
aI20
aI1
aI5
aF0.2
aI0
aI0
aF0.0
aI0
aI0
aF0.0
aI1
aI2
aI3
aI0
aI1
aI0
aI3
aI1
aI2
aI-12
aa(lp99
V0020700396
p100
aVDEC 22, 2007
p101
aVCHI vs. HOU
p102
aVL
p103
aI5
aI2
aI3
aF0.667
aI0
aI0
aF0.0
aI0
aI0
aF0.0
aI0
aI1
aI1
aI1
aI0
aI0
aI0
aI1
aI4
aI6
aa(lp104
V0020700414
p105
aVDEC 26, 2007
p106
aVCHI @ SAS
p107
aVL
p108
aI4
aI0
aI2
aF0.0
aI0
aI0
aF0.0
aI0
aI0
aF0.0
aI0
aI0
aI0
aI0
aI1
aI0
aI0
aI2
aI0
aI-4
aa(lp109
V0020700443
p110
aVDEC 30, 2007
p111
aVCHI @ NYK
p112
aVW
p113
aI2
aI0
aI1
aF0.0
aI0
aI0
aF0.0
aI0
aI0
aF0.0
aI0
aI0
aI0
aI0
aI0
aI0
aI0
aI0
aI0
aI-3
aa(lp114
V0020700450
p115
aVDEC 31, 2007
p116
aVCHI vs. ORL
p117
aVL
p118
aI4
aI0
aI0
aF0.0
aI0
aI0
aF0.0
aI0
aI0
aF0.0
aI0
aI1
aI1
aI0
aI0
aI0
aI1
aI1
aI0
aI-4
aa(lp119
V0020700458
p120
aVJAN 02, 2008
p121
aVCHI @ CHA
p122
aVW
p123
aI6
aI0
aI1
aF0.0
aI0
aI0
aF0.0
aI0
aI0
aF0.0
aI0
aI1
aI1
aI0
aI0
aI1
aI0
aI2
aI0
aI-4
aa(lp124
V0020700486
p125
aVJAN 05, 2008
p126
aVCHI vs. SAC
p127
aVW
p128
aI13
aI2
aI5
aF0.4
aI0
aI1
aF0.0
aI3
aI3
aF1.0
aI2
aI1
aI3
aI0
aI2
aI0
aI0
aI2
aI7
aI11
aa(lp129
V0020700506
p130
aVJAN 08, 2008
p131
aVCHI vs. NYK
p132
aVL
p133
aI3
aI0
aI2
aF0.0
aI0
aI1
aF0.0
aI0
aI0
aF0.0
aI1
aI1
aI2
aI0
aI0
aI0
aI0
aI0
aI0
aI-3
aa(lp134
V0020700523
p135
aVJAN 11, 2008
p136
aVCHI @ PHI
p137
aVW
p138
aI13
aI1
aI4
aF0.25
aI0
aI2
aF0.0
aI3
aI4
aF0.75
aI0
aI3
aI3
aI2
aI1
aI0
aI0
aI1
aI5
aI6
aa(lp139
V0020700542
p140
aVJAN 13, 2008
p141
aVCHI @ ATL
p142
aVL
p143
aI26
aI0
aI3
aF0.0
aI0
aI1
aF0.0
aI2
aI4
aF0.5
aI1
aI3
aI4
aI5
aI0
aI0
aI1
aI4
aI2
aI-11
aa(lp144
V0020700555
p145
aVJAN 15, 2008
p146
aVCHI @ ORL
p147
aVL
p148
aI30
aI4
aI4
aF1.0
aI1
aI1
aF1.0
aI0
aI0
aF0.0
aI0
aI2
aI2
aI3
aI2
aI0
aI1
aI0
aI9
aI11
aa(lp149
V0020700564
p150
aVJAN 16, 2008
p151
aVCHI @ MIA
p152
aVW
p153
aI27
aI6
aI9
aF0.667
aI0
aI0
aF0.0
aI5
aI5
aF1.0
aI0
aI6
aI6
aI2
aI2
aI0
aI1
aI4
aI17
aI21
aa(lp154
V0020700582
p155
aVJAN 18, 2008
p156
aVCHI vs. GSW
p157
aVL
p158
aI28
aI4
aI11
aF0.364
aI0
aI1
aF0.0
aI1
aI1
aF1.0
aI3
aI5
aI8
aI2
aI1
aI0
aI4
aI2
aI9
aI9
aa(lp159
V0020700588
p160
aVJAN 19, 2008
p161
aVCHI vs. DET
p162
aVW
p163
aI36
aI3
aI7
aF0.429
aI1
aI1
aF1.0
aI5
aI6
aF0.833
aI5
aI8
aI13
aI1
aI2
aI0
aI1
aI2
aI12
aI22
aa(lp164
V0020700604
p165
aVJAN 21, 2008
p166
aVCHI @ MEM
p167
aVL
p168
aI30
aI3
aI9
aF0.333
aI0
aI2
aF0.0
aI0
aI2
aF0.0
aI0
aI2
aI2
aI3
aI3
aI0
aI2
aI5
aI6
aI-5
aa(lp169
V0020700617
p170
aVJAN 23, 2008
p171
aVCHI vs. IND
p172
aVW
p173
aI43
aI6
aI16
aF0.375
aI0
aI3
aF0.0
aI2
aI2
aF1.0
aI0
aI2
aI2
aI3
aI3
aI0
aI1
aI2
aI14
aI10
aa(lp174
V0020700632
p175
aVJAN 25, 2008
p176
aVCHI vs. CHA
p177
aVL
p178
aI35
aI6
aI16
aF0.375
aI0
aI1
aF0.0
aI1
aI2
aF0.5
aI2
aI8
aI10
aI1
aI1
aI1
aI2
aI2
aI13
aI-18
aa(lp179
V0020700642
p180
aVJAN 27, 2008
p181
aVCHI vs. PHX
p182
aVL
p183
aI24
aI4
aI8
aF0.5
aI1
aI1
aF1.0
aI1
aI2
aF0.5
aI0
aI5
aI5
aI0
aI2
aI0
aI0
aI2
aI10
aI-15
aa(lp184
V0020700660
p185
aVJAN 29, 2008
p186
aVCHI vs. MIN
p187
aVW
p188
aI28
aI5
aI11
aF0.455
aI0
aI1
aF0.0
aI0
aI0
aF0.0
aI0
aI5
aI5
aI1
aI1
aI1
aI3
aI2
aI10
aI-5
aa(lp189
V0020700670
p190
aVJAN 30, 2008
p191
aVCHI @ MIN
p192
aVL
p193
aI38
aI5
aI10
aF0.5
aI1
aI2
aF0.5
aI3
aI4
aF0.75
aI0
aI8
aI8
aI1
aI0
aI4
aI6
aI2
aI14
aI-17
aa(lp194
V0020700694
p195
aVFEB 02, 2008
p196
aVCHI @ SAC
p197
aVL
p198
aI15
aI2
aI4
aF0.5
aI0
aI1
aF0.0
aI0
aI2
aF0.0
aI2
aI1
aI3
aI2
aI0
aI0
aI1
aI2
aI4
aI-12
aa(lp199
V0020700706
p200
aVFEB 04, 2008
p201
aVCHI @ SEA
p202
aVW
p203
aI36
aI3
aI9
aF0.333
aI0
aI3
aF0.0
aI4
aI6
aF0.667
aI1
aI8
aI9
aI3
aI0
aI0
aI1
aI2
aI10
aI20
aa(lp204
V0020700722
p205
aVFEB 06, 2008
p206
aVCHI @ POR
p207
aVL
p208
aI42
aI9
aI17
aF0.529
aI2
aI3
aF0.667
aI2
aI2
aF1.0
aI2
aI2
aI4
aI6
aI3
aI2
aI2
aI3
aI22
aI-1
aa(lp209
V0020700725
p210
aVFEB 07, 2008
p211
aVCHI @ GSW
p212
aVW
p213
aI38
aI4
aI7
aF0.571
aI0
aI1
aF0.0
aI1
aI1
aF1.0
aI0
aI7
aI7
aI5
aI1
aI2
aI6
aI1
aI9
aI2
aa(lp214
V0020700742
p215
aVFEB 09, 2008
p216
aVCHI @ UTA
p217
aVL
p218
aI41
aI7
aI21
aF0.333
aI2
aI6
aF0.333
aI6
aI7
aF0.857
aI1
aI6
aI7
aI4
aI2
aI1
aI2
aI5
aI22
aI-8
aa(lp219
V0020700763
p220
aVFEB 12, 2008
p221
aVCHI vs. NOH
p222
aVL
p223
aI39
aI6
aI11
aF0.545
aI0
aI2
aF0.0
aI0
aI0
aF0.0
aI2
aI4
aI6
aI4
aI0
aI1
aI4
aI2
aI12
aI-14
aa(lp224
V0020700778
p225
aVFEB 14, 2008
p226
aVCHI vs. MIA
p227
aVW
p228
aI39
aI5
aI13
aF0.385
aI0
aI1
aF0.0
aI7
aI8
aF0.875
aI4
aI8
aI12
aI1
aI4
aI0
aI4
aI2
aI17
aI12
aa(lp229
V0020700793
p230
aVFEB 20, 2008
p231
aVCHI @ NJN
p232
aVL
p233
aI31
aI4
aI8
aF0.5
aI0
aI0
aF0.0
aI2
aI2
aF1.0
aI1
aI5
aI6
aI3
aI0
aI1
aI1
aI6
aI10
aI-5
aa(lp234
V0020700809
p235
aVFEB 22, 2008
p236
aVCHI vs. DEN
p237
aVW
p238
aI21
aI6
aI8
aF0.75
aI0
aI1
aF0.0
aI2
aI4
aF0.5
aI0
aI3
aI3
aI4
aI1
aI0
aI0
aI2
aI14
aI21
aa(lp239
V0020700829
p240
aVFEB 24, 2008
p241
aVCHI @ HOU
p242
aVL
p243
aI24
aI5
aI9
aF0.556
aI0
aI0
aF0.0
aI1
aI2
aF0.5
aI0
aI3
aI3
aI1
aI1
aI1
aI1
aI3
aI11
aI2
aa(lp244
V0020700833
p245
aVFEB 25, 2008
p246
aVCHI @ DAL
p247
aVL
p248
aI27
aI3
aI8
aF0.375
aI1
aI3
aF0.333
aI3
aI4
aF0.75
aI0
aI3
aI3
aI2
aI1
aI1
aI1
aI0
aI10
aI0
aa(lp249
V0020700848
p250
aVFEB 27, 2008
p251
aVCHI @ IND
p252
aVW
p253
aI26
aI3
aI6
aF0.5
aI1
aI1
aF1.0
aI0
aI2
aF0.0
aI1
aI0
aI1
aI2
aI1
aI1
aI3
aI4
aI7
aI-10
aa(lp254
V0020700949
p255
aVMAR 11, 2008
p256
aVCHI vs. UTA
p257
aVW
p258
aI14
aI4
aI5
aF0.8
aI1
aI1
aF1.0
aI2
aI2
aF1.0
aI1
aI1
aI2
aI3
aI0
aI0
aI1
aI2
aI11
aI17
aa(lp259
V0020700971
p260
aVMAR 14, 2008
p261
aVCHI vs. PHI
p262
aVL
p263
aI23
aI8
aI13
aF0.615
aI2
aI4
aF0.5
aI2
aI3
aF0.667
aI2
aI1
aI3
aI2
aI1
aI0
aI2
aI5
aI20
aI-14
aa(lp264
V0020700995
p265
aVMAR 17, 2008
p266
aVCHI @ NOH
p267
aVL
p268
aI14
aI1
aI4
aF0.25
aI1
aI2
aF0.5
aI1
aI2
aF0.5
aI1
aI3
aI4
aI1
aI0
aI1
aI1
aI2
aI4
aI-7
aa(lp269
V0020701001
p270
aVMAR 18, 2008
p271
aVCHI vs. NJN
p272
aVW
p273
aI30
aI2
aI5
aF0.4
aI2
aI3
aF0.667
aI1
aI4
aF0.25
aI0
aI7
aI7
aI6
aI2
aI1
aI1
aI3
aI7
aI22
aa(lp274
V0020701016
p275
aVMAR 20, 2008
p276
aVCHI vs. SAS
p277
aVL
p278
aI30
aI0
aI3
aF0.0
aI0
aI1
aF0.0
aI0
aI0
aF0.0
aI1
aI0
aI1
aI2
aI0
aI0
aI2
aI5
aI0
aI-7
aa(lp279
V0020701035
p280
aVMAR 22, 2008
p281
aVCHI vs. IND
p282
aVL
p283
aI7
aI0
aI0
aF0.0
aI0
aI0
aF0.0
aI0
aI0
aF0.0
aI0
aI0
aI0
aI0
aI0
aI0
aI0
aI0
aI0
aI0
aa(lp284
V0020701054
p285
aVMAR 25, 2008
p286
aVCHI vs. ATL
p287
aVW
p288
aI23
aI2
aI10
aF0.2
aI0
aI1
aF0.0
aI0
aI0
aF0.0
aI2
aI2
aI4
aI0
aI1
aI1
aI3
aI0
aI4
aI5
aa(lp289
V0020701060
p290
aVMAR 26, 2008
p291
aVCHI @ PHI
p292
aVL
p293
aI28
aI8
aI11
aF0.727
aI4
aI5
aF0.8
aI0
aI0
aF0.0
aI1
aI4
aI5
aI5
aI0
aI0
aI1
aI0
aI20
aI-16
aa(lp294
V0020701077
p295
aVMAR 28, 2008
p296
aVCHI @ ATL
p297
aVL
p298
aI26
aI3
aI6
aF0.5
aI2
aI3
aF0.667
aI0
aI0
aF0.0
aI0
aI3
aI3
aI3
aI2
aI2
aI0
aI2
aI8
aI7
aa(lp299
V0020701086
p300
aVMAR 29, 2008
p301
aVCHI vs. MIL
p302
aVW
p303
aI17
aI3
aI4
aF0.75
aI1
aI2
aF0.5
aI2
aI2
aF1.0
aI0
aI3
aI3
aI2
aI1
aI0
aI0
aI3
aI9
aI-7
aa(lp304
V0020701109
p305
aVAPR 01, 2008
p306
aVCHI vs. BOS
p307
aVL
p308
aI18
aI2
aI5
aF0.4
aI0
aI1
aF0.0
aI0
aI0
aF0.0
aI0
aI3
aI3
aI3
aI0
aI1
aI1
aI3
aI4
aI2
aa(lp309
V0020701123
p310
aVAPR 03, 2008
p311
aVCHI @ CLE
p312
aVW
p313
aI23
aI2
aI4
aF0.5
aI0
aI1
aF0.0
aI2
aI2
aF1.0
aI0
aI6
aI6
aI1
aI0
aI1
aI1
aI2
aI6
aI12
aa(lp314
V0020701141
p315
aVAPR 05, 2008
p316
aVCHI vs. WAS
p317
aVL
p318
aI31
aI3
aI8
aF0.375
aI0
aI2
aF0.0
aI0
aI0
aF0.0
aI2
aI5
aI7
aI0
aI2
aI2
aI0
aI0
aI6
aI-11
aa(lp319
V0020701155
p320
aVAPR 08, 2008
p321
aVCHI @ MIA
p322
aVL
p323
aI11
aI0
aI2
aF0.0
aI0
aI0
aF0.0
aI0
aI0
aF0.0
aI0
aI4
aI4
aI0
aI0
aI1
aI2
aI1
aI0
aI-8
aa(lp324
V0020701167
p325
aVAPR 09, 2008
p326
aVCHI @ ORL
p327
aVL
p328
aI24
aI2
aI4
aF0.5
aI0
aI1
aF0.0
aI0
aI0
aF0.0
aI0
aI4
aI4
aI4
aI0
aI0
aI2
aI3
aI4
aI-42
aa(lp329
V0020701179
p330
aVAPR 11, 2008
p331
aVCHI vs. CLE
p332
aVW
p333
aI19
aI0
aI1
aF0.0
aI0
aI1
aF0.0
aI0
aI0
aF0.0
aI0
aI1
aI1
aI0
aI0
aI0
aI0
aI0
aI0
aI-17
aa(lp334
V0020701200
p335
aVAPR 13, 2008
p336
aVCHI vs. ORL
p337
aVL
p338
aI30
aI2
aI7
aF0.286
aI1
aI3
aF0.333
aI0
aI0
aF0.0
aI2
aI4
aI6
aI5
aI1
aI0
aI3
aI4
aI5
aI-9
aa(lp339
V0020701207
p340
aVAPR 14, 2008
p341
aVCHI @ MIL
p342
aVW
p343
aI35
aI3
aI5
aF0.6
aI0
aI1
aF0.0
aI0
aI0
aF0.0
aI0
aI8
aI8
aI7
aI2
aI1
aI0
aI1
aI6
aI16
aa(lp344
V0020701225
p345
aVAPR 16, 2008
p346
aVCHI vs. TOR
p347
aVW
p348
aI29
aI5
aI9
aF0.556
aI0
aI1
aF0.0
aI6
aI6
aF1.0
aI1
aI2
aI3
aI3
aI2
aI0
aI3
aI1
aI16
aI19
aasS'name'
p349
VThabo Sefolosha
p350
sS'experience'
p351
I1
s.