(dp0
S'age'
p1
I25
sS'stats'
p2
(lp3
(lp4
V0020701228
p5
aVAPR 16, 2008
p6
aVDEN vs. MEM
p7
aVW
p8
aI18
aI2
aI6
aF0.333
aI0
aI1
aF0.0
aI0
aI0
aF0.0
aI1
aI2
aI3
aI1
aI0
aI0
aI0
aI2
aI4
aI-4
aa(lp9
V0020701201
p10
aVAPR 13, 2008
p11
aVDEN vs. HOU
p12
aVW
p13
aI5
aI0
aI1
aF0.0
aI0
aI1
aF0.0
aI0
aI0
aF0.0
aI0
aI0
aI0
aI1
aI0
aI0
aI0
aI1
aI0
aI-3
aa(lp14
V0020701193
p15
aVAPR 12, 2008
p16
aVDEN @ UTA
p17
aVL
p18
aI6
aI0
aI1
aF0.0
aI0
aI0
aF0.0
aI0
aI0
aF0.0
aI0
aI0
aI0
aI0
aI0
aI0
aI0
aI0
aI0
aI-7
aa(lp19
V0020701162
p20
aVAPR 08, 2008
p21
aVDEN @ LAC
p22
aVW
p23
aI5
aI1
aI1
aF1.0
aI0
aI0
aF0.0
aI0
aI0
aF0.0
aI0
aI0
aI0
aI0
aI0
aI0
aI1
aI1
aI2
aI-10
aa(lp24
V0020701103
p25
aVMAR 31, 2008
p26
aVDEN @ PHX
p27
aVL
p28
aI0
aI0
aI0
aF0.0
aI0
aI0
aF0.0
aI0
aI0
aF0.0
aI0
aI0
aI0
aI0
aI0
aI0
aI0
aI0
aI0
aI-1
aa(lp29
V0020701071
p30
aVMAR 27, 2008
p31
aVDEN vs. DAL
p32
aVW
p33
aI0
aI0
aI0
aF0.0
aI0
aI0
aF0.0
aI0
aI0
aF0.0
aI0
aI0
aI0
aI0
aI0
aI0
aI0
aI0
aI0
aI0
aa(lp34
V0020701048
p35
aVMAR 24, 2008
p36
aVDEN @ MEM
p37
aVW
p38
aI2
aI0
aI1
aF0.0
aI0
aI0
aF0.0
aI0
aI0
aF0.0
aI0
aI1
aI1
aI1
aI0
aI0
aI0
aI0
aI0
aI-5
aa(lp39
V0020701021
p40
aVMAR 21, 2008
p41
aVDEN @ NJN
p42
aVW
p43
aI1
aI0
aI1
aF0.0
aI0
aI1
aF0.0
aI0
aI0
aF0.0
aI0
aI0
aI0
aI0
aI0
aI0
aI0
aI0
aI0
aI0
aa(lp44
V0020700989
p45
aVMAR 16, 2008
p46
aVDEN vs. SEA
p47
aVW
p48
aI13
aI3
aI5
aF0.6
aI3
aI5
aF0.6
aI2
aI2
aF1.0
aI2
aI3
aI5
aI3
aI0
aI0
aI1
aI0
aI11
aI12
aa(lp49
V0020700974
p50
aVMAR 14, 2008
p51
aVDEN vs. TOR
p52
aVW
p53
aI10
aI2
aI4
aF0.5
aI0
aI1
aF0.0
aI2
aI2
aF1.0
aI0
aI4
aI4
aI0
aI1
aI0
aI0
aI0
aI6
aI3
aa(lp54
V0020700961
p55
aVMAR 12, 2008
p56
aVDEN vs. MEM
p57
aVW
p58
aI9
aI1
aI4
aF0.25
aI0
aI0
aF0.0
aI2
aI2
aF1.0
aI1
aI0
aI1
aI0
aI0
aI0
aI0
aI1
aI4
aI-5
aa(lp59
V0020700932
p60
aVMAR 08, 2008
p61
aVDEN @ UTA
p62
aVL
p63
aI10
aI0
aI2
aF0.0
aI0
aI2
aF0.0
aI2
aI2
aF1.0
aI1
aI0
aI1
aI1
aI0
aI0
aI0
aI0
aI2
aI1
aa(lp64
V0020700922
p65
aVMAR 07, 2008
p66
aVDEN vs. SAS
p67
aVW
p68
aI1
aI0
aI0
aF0.0
aI0
aI0
aF0.0
aI0
aI0
aF0.0
aI0
aI0
aI0
aI0
aI0
aI0
aI0
aI0
aI0
aI2
aa(lp69
V0020700883
p70
aVMAR 02, 2008
p71
aVDEN @ HOU
p72
aVL
p73
aI2
aI1
aI2
aF0.5
aI0
aI1
aF0.0
aI1
aI1
aF1.0
aI0
aI0
aI0
aI0
aI0
aI0
aI0
aI0
aI3
aI0
aa(lp74
V0020700853
p75
aVFEB 27, 2008
p76
aVDEN @ SEA
p77
aVW
p78
aI9
aI3
aI4
aF0.75
aI0
aI1
aF0.0
aI0
aI0
aF0.0
aI0
aI2
aI2
aI3
aI0
aI0
aI0
aI1
aI6
aI8
aa(lp79
V0020700819
p80
aVFEB 23, 2008
p81
aVDEN @ MIL
p82
aVL
p83
aI5
aI0
aI1
aF0.0
aI0
aI1
aF0.0
aI0
aI2
aF0.0
aI0
aI0
aI0
aI1
aI0
aI0
aI0
aI2
aI0
aI8
aa(lp84
V0020700744
p85
aVFEB 10, 2008
p86
aVDEN @ CLE
p87
aVW
p88
aI6
aI1
aI3
aF0.333
aI0
aI1
aF0.0
aI2
aI4
aF0.5
aI1
aI1
aI2
aI1
aI0
aI0
aI0
aI1
aI4
aI1
aa(lp89
V0020700719
p90
aVFEB 06, 2008
p91
aVDEN vs. UTA
p92
aVL
p93
aI5
aI0
aI0
aF0.0
aI0
aI0
aF0.0
aI0
aI0
aF0.0
aI0
aI2
aI2
aI0
aI0
aI0
aI0
aI1
aI0
aI-7
aa(lp94
V0020700705
p95
aVFEB 04, 2008
p96
aVDEN @ POR
p97
aVW
p98
aI3
aI0
aI1
aF0.0
aI0
aI1
aF0.0
aI0
aI0
aF0.0
aI0
aI0
aI0
aI0
aI0
aI0
aI0
aI2
aI0
aI1
aa(lp99
V0020700693
p100
aVFEB 02, 2008
p101
aVDEN vs. CHA
p102
aVW
p103
aI18
aI3
aI4
aF0.75
aI2
aI3
aF0.667
aI1
aI2
aF0.5
aI1
aI0
aI1
aI0
aI1
aI0
aI0
aI2
aI9
aI18
aa(lp104
V0020700668
p105
aVJAN 30, 2008
p106
aVDEN @ MEM
p107
aVW
p108
aI17
aI4
aI5
aF0.8
aI1
aI2
aF0.5
aI0
aI0
aF0.0
aI0
aI0
aI0
aI0
aI0
aI0
aI1
aI2
aI9
aI7
aa(lp109
V0020700653
p110
aVJAN 28, 2008
p111
aVDEN @ NOH
p112
aVL
p113
aI11
aI0
aI2
aF0.0
aI0
aI1
aF0.0
aI0
aI0
aF0.0
aI0
aI1
aI1
aI1
aI2
aI0
aI0
aI0
aI0
aI-14
aa(lp114
V0020700647
p115
aVJAN 27, 2008
p116
aVDEN @ DAL
p117
aVL
p118
aI4
aI0
aI1
aF0.0
aI0
aI0
aF0.0
aI1
aI2
aF0.5
aI0
aI1
aI1
aI1
aI0
aI0
aI0
aI0
aI1
aI-7
aa(lp119
V0020700634
p120
aVJAN 25, 2008
p121
aVDEN vs. NJN
p122
aVW
p123
aI11
aI0
aI3
aF0.0
aI0
aI2
aF0.0
aI2
aI2
aF1.0
aI0
aI1
aI1
aI0
aI0
aI0
aI0
aI1
aI2
aI6
aa(lp124
V0020700619
p125
aVJAN 23, 2008
p126
aVDEN vs. ATL
p127
aVW
p128
aI20
aI2
aI4
aF0.5
aI0
aI1
aF0.0
aI1
aI2
aF0.5
aI0
aI0
aI0
aI1
aI1
aI0
aI1
aI2
aI5
aI13
aa(lp129
V0020700607
p130
aVJAN 21, 2008
p131
aVDEN @ LAL
p132
aVL
p133
aI16
aI1
aI2
aF0.5
aI1
aI2
aF0.5
aI0
aI0
aF0.0
aI1
aI1
aI2
aI1
aI0
aI0
aI2
aI6
aI3
aI-9
aa(lp134
V0020700592
p135
aVJAN 19, 2008
p136
aVDEN vs. MIN
p137
aVW
p138
aI6
aI1
aI1
aF1.0
aI0
aI0
aF0.0
aI0
aI0
aF0.0
aI0
aI0
aI0
aI0
aI0
aI0
aI0
aI0
aI2
aI2
aa(lp139
V0020700571
p140
aVJAN 17, 2008
p141
aVDEN vs. UTA
p142
aVW
p143
aI1
aI0
aI1
aF0.0
aI0
aI1
aF0.0
aI0
aI0
aF0.0
aI0
aI0
aI0
aI0
aI0
aI0
aI0
aI0
aI0
aI-3
aa(lp144
V0020700554
p145
aVJAN 15, 2008
p146
aVDEN @ ATL
p147
aVL
p148
aI12
aI0
aI4
aF0.0
aI0
aI1
aF0.0
aI0
aI0
aF0.0
aI2
aI0
aI2
aI0
aI0
aI1
aI1
aI2
aI0
aI-12
aa(lp149
V0020700547
p150
aVJAN 14, 2008
p151
aVDEN @ CHA
p152
aVL
p153
aI14
aI1
aI3
aF0.333
aI0
aI1
aF0.0
aI0
aI0
aF0.0
aI2
aI2
aI4
aI2
aI0
aI0
aI0
aI3
aI2
aI6
aa(lp154
V0020700498
p155
aVJAN 07, 2008
p156
aVDEN @ PHX
p157
aVL
p158
aI11
aI1
aI2
aF0.5
aI0
aI1
aF0.0
aI0
aI0
aF0.0
aI1
aI0
aI1
aI0
aI0
aI0
aI0
aI1
aI2
aI1
aa(lp159
V0020700478
p160
aVJAN 04, 2008
p161
aVDEN @ MIN
p162
aVW
p163
aI6
aI1
aI1
aF1.0
aI0
aI0
aF0.0
aI0
aI0
aF0.0
aI0
aI0
aI0
aI1
aI0
aI0
aI0
aI1
aI2
aI5
aa(lp164
V0020700415
p165
aVDEC 26, 2007
p166
aVDEN vs. MIL
p167
aVW
p168
aI8
aI0
aI1
aF0.0
aI0
aI0
aF0.0
aI0
aI0
aF0.0
aI0
aI1
aI1
aI0
aI0
aI0
aI2
aI0
aI0
aI-7
aa(lp169
V0020700404
p170
aVDEC 23, 2007
p171
aVDEN @ SAC
p172
aVW
p173
aI6
aI0
aI2
aF0.0
aI0
aI1
aF0.0
aI0
aI0
aF0.0
aI0
aI0
aI0
aI0
aI0
aI0
aI0
aI1
aI0
aI-11
aa(lp174
V0020700352
p175
aVDEC 16, 2007
p176
aVDEN vs. POR
p177
aVL
p178
aI1
aI0
aI0
aF0.0
aI0
aI0
aF0.0
aI0
aI0
aF0.0
aI0
aI0
aI0
aI0
aI0
aI0
aI0
aI0
aI0
aI3
aa(lp179
V0020700348
p180
aVDEC 15, 2007
p181
aVDEN @ SAS
p182
aVL
p183
aI7
aI0
aI1
aF0.0
aI0
aI1
aF0.0
aI0
aI0
aF0.0
aI0
aI0
aI0
aI0
aI0
aI0
aI0
aI0
aI0
aI7
aa(lp184
V0020700322
p185
aVDEC 12, 2007
p186
aVDEN vs. NOH
p187
aVW
p188
aI6
aI0
aI3
aF0.0
aI0
aI1
aF0.0
aI0
aI0
aF0.0
aI1
aI1
aI2
aI1
aI0
aI0
aI0
aI0
aI0
aI7
aa(lp189
V0020700247
p190
aVDEC 02, 2007
p191
aVDEN vs. MIA
p192
aVW
p193
aI9
aI1
aI3
aF0.333
aI0
aI1
aF0.0
aI0
aI0
aF0.0
aI0
aI0
aI0
aI0
aI0
aI0
aI1
aI0
aI2
aI-6
aa(lp194
V0020700233
p195
aVNOV 30, 2007
p196
aVDEN vs. LAC
p197
aVW
p198
aI4
aI2
aI2
aF1.0
aI2
aI2
aF1.0
aI0
aI0
aF0.0
aI0
aI0
aI0
aI0
aI0
aI0
aI1
aI0
aI6
aI-1
aa(lp199
V0020700209
p200
aVNOV 27, 2007
p201
aVDEN vs. IND
p202
aVL
p203
aI7
aI0
aI2
aF0.0
aI0
aI1
aF0.0
aI0
aI0
aF0.0
aI0
aI0
aI0
aI0
aI0
aI0
aI1
aI0
aI0
aI-20
aa(lp204
V0020700189
p205
aVNOV 24, 2007
p206
aVDEN @ HOU
p207
aVL
p208
aI21
aI2
aI4
aF0.5
aI1
aI3
aF0.333
aI2
aI2
aF1.0
aI3
aI0
aI3
aI2
aI0
aI0
aI0
aI2
aI7
aI-7
aa(lp209
V0020700177
p210
aVNOV 23, 2007
p211
aVDEN vs. MIN
p212
aVW
p213
aI15
aI0
aI1
aF0.0
aI0
aI1
aF0.0
aI0
aI0
aF0.0
aI0
aI1
aI1
aI0
aI0
aI0
aI0
aI1
aI0
aI1
aa(lp214
V0020700169
p215
aVNOV 21, 2007
p216
aVDEN @ LAC
p217
aVL
p218
aI9
aI0
aI2
aF0.0
aI0
aI1
aF0.0
aI0
aI0
aF0.0
aI1
aI0
aI1
aI0
aI0
aI0
aI0
aI1
aI0
aI7
aa(lp219
V0020700155
p220
aVNOV 20, 2007
p221
aVDEN vs. CHI
p222
aVW
p223
aI18
aI2
aI3
aF0.667
aI1
aI2
aF0.5
aI0
aI0
aF0.0
aI0
aI1
aI1
aI2
aI0
aI0
aI1
aI0
aI5
aI6
aa(lp224
V0020700139
p225
aVNOV 17, 2007
p226
aVDEN vs. NYK
p227
aVW
p228
aI24
aI4
aI6
aF0.667
aI2
aI3
aF0.667
aI0
aI0
aF0.0
aI2
aI1
aI3
aI3
aI1
aI1
aI1
aI3
aI10
aI19
aa(lp229
V0020700114
p230
aVNOV 14, 2007
p231
aVDEN vs. POR
p232
aVW
p233
aI22
aI2
aI6
aF0.333
aI0
aI2
aF0.0
aI3
aI4
aF0.75
aI0
aI3
aI3
aI2
aI0
aI0
aI1
aI2
aI7
aI3
aa(lp234
V0020700094
p235
aVNOV 12, 2007
p236
aVDEN vs. CLE
p237
aVW
p238
aI24
aI1
aI5
aF0.2
aI1
aI2
aF0.5
aI0
aI0
aF0.0
aI1
aI1
aI2
aI2
aI0
aI0
aI0
aI5
aI3
aI13
aa(lp239
V0020700080
p240
aVNOV 10, 2007
p241
aVDEN @ IND
p242
aVW
p243
aI11
aI4
aI5
aF0.8
aI3
aI4
aF0.75
aI0
aI0
aF0.0
aI1
aI0
aI1
aI0
aI0
aI0
aI0
aI0
aI11
aI-1
aa(lp244
V0020700071
p245
aVNOV 09, 2007
p246
aVDEN @ WAS
p247
aVW
p248
aI20
aI2
aI4
aF0.5
aI2
aI4
aF0.5
aI0
aI0
aF0.0
aI0
aI1
aI1
aI2
aI1
aI0
aI0
aI4
aI6
aI13
aa(lp249
V0020700058
p250
aVNOV 07, 2007
p251
aVDEN @ BOS
p252
aVL
p253
aI8
aI0
aI1
aF0.0
aI0
aI1
aF0.0
aI0
aI0
aF0.0
aI0
aI1
aI1
aI0
aI0
aI0
aI1
aI1
aI0
aI-17
aa(lp254
V0020700046
p255
aVNOV 06, 2007
p256
aVDEN @ NYK
p257
aVL
p258
aI9
aI0
aI0
aF0.0
aI0
aI0
aF0.0
aI0
aI0
aF0.0
aI0
aI1
aI1
aI1
aI0
aI1
aI0
aI2
aI0
aI-6
aa(lp259
V0020700040
p260
aVNOV 04, 2007
p261
aVDEN vs. NOH
p262
aVL
p263
aI20
aI2
aI5
aF0.4
aI1
aI2
aF0.5
aI0
aI0
aF0.0
aI0
aI4
aI4
aI0
aI0
aI0
aI0
aI4
aI5
aI1
aa(lp264
V0020700023
p265
aVNOV 02, 2007
p266
aVDEN @ MIN
p267
aVW
p268
aI7
aI0
aI0
aF0.0
aI0
aI0
aF0.0
aI0
aI0
aF0.0
aI0
aI0
aI0
aI0
aI0
aI0
aI0
aI1
aI0
aI-9
aa(lp269
V0020700011
p270
aVOCT 31, 2007
p271
aVDEN vs. SEA
p272
aVW
p273
aI28
aI5
aI8
aF0.625
aI1
aI3
aF0.333
aI1
aI2
aF0.5
aI1
aI2
aI3
aI3
aI1
aI0
aI0
aI2
aI12
aI13
aasS'name'
p274
VYakhouba Diawara
p275
sS'experience'
p276
I1
s.