(dp0
S'age'
p1
I23
sS'stats'
p2
(lp3
(lp4
V0020700333
p5
aVDEC 14, 2007
p6
aVMEM vs. LAC
p7
aVL
p8
aI12
aI0
aI2
aF0.0
aI0
aI0
aF0.0
aI0
aI0
aF0.0
aI0
aI0
aI0
aI1
aI0
aI0
aI0
aI1
aI0
aI0
aa(lp9
V0020700288
p10
aVDEC 08, 2007
p11
aVMEM @ ATL
p12
aVL
p13
aI10
aI6
aI9
aF0.667
aI0
aI1
aF0.0
aI0
aI0
aF0.0
aI0
aI0
aI0
aI0
aI1
aI0
aI0
aI3
aI12
aI2
aa(lp14
V0020700237
p15
aVDEC 01, 2007
p16
aVMEM vs. MIN
p17
aVW
p18
aI5
aI0
aI2
aF0.0
aI0
aI2
aF0.0
aI0
aI0
aF0.0
aI0
aI0
aI0
aI0
aI0
aI0
aI0
aI1
aI0
aI-8
aa(lp19
V0020700211
p20
aVNOV 28, 2007
p21
aVMEM @ TOR
p22
aVL
p23
aI12
aI4
aI8
aF0.5
aI2
aI3
aF0.667
aI1
aI2
aF0.5
aI1
aI0
aI1
aI0
aI0
aI0
aI0
aI0
aI11
aI6
aa(lp24
V0020700187
p25
aVNOV 24, 2007
p26
aVMEM vs. WAS
p27
aVW
p28
aI0
aI0
aI0
aF0.0
aI0
aI0
aF0.0
aI2
aI2
aF1.0
aI0
aI1
aI1
aI0
aI0
aI0
aI0
aI0
aI2
aI0
aa(lp29
V0020700176
p30
aVNOV 23, 2007
p31
aVMEM @ SAS
p32
aVL
p33
aI12
aI2
aI3
aF0.667
aI0
aI0
aF0.0
aI0
aI0
aF0.0
aI0
aI1
aI1
aI0
aI0
aI0
aI1
aI1
aI4
aI-1
aa(lp34
V0020700163
p35
aVNOV 21, 2007
p36
aVMEM vs. TOR
p37
aVL
p38
aI11
aI0
aI2
aF0.0
aI0
aI0
aF0.0
aI0
aI0
aF0.0
aI1
aI1
aI2
aI0
aI0
aI0
aI0
aI0
aI0
aI6
aa(lp39
V0020700146
p40
aVNOV 19, 2007
p41
aVMEM vs. SEA
p42
aVW
p43
aI6
aI1
aI3
aF0.333
aI0
aI0
aF0.0
aI0
aI0
aF0.0
aI0
aI0
aI0
aI0
aI1
aI0
aI0
aI0
aI2
aI-3
aa(lp44
V0020700138
p45
aVNOV 17, 2007
p46
aVMEM @ DAL
p47
aVL
p48
aI14
aI2
aI4
aF0.5
aI1
aI1
aF1.0
aI2
aI2
aF1.0
aI1
aI2
aI3
aI0
aI0
aI0
aI0
aI1
aI7
aI1
aa(lp49
V0020700099
p50
aVNOV 13, 2007
p51
aVMEM vs. HOU
p52
aVW
p53
aI11
aI1
aI4
aF0.25
aI0
aI0
aF0.0
aI0
aI0
aF0.0
aI0
aI4
aI4
aI1
aI1
aI0
aI2
aI3
aI2
aI-3
aa(lp54
V0020700075
p55
aVNOV 09, 2007
p56
aVMEM @ POR
p57
aVL
p58
aI2
aI0
aI1
aF0.0
aI0
aI0
aF0.0
aI0
aI0
aF0.0
aI0
aI0
aI0
aI0
aI0
aI0
aI0
aI1
aI0
aI3
aasS'name'
p59
VTarence Kinsey
p60
sS'experience'
p61
I1
s.