(dp0
S'age'
p1
I24
sS'stats'
p2
(lp3
(lp4
V0020700012
p5
aVNOV 01, 2007
p6
aVMIA vs. DET
p7
aVL
p8
aI0
aI0
aI0
aF0.0
aI0
aI0
aF0.0
aI0
aI0
aF0.0
aI0
aI0
aI0
aI0
aI0
aI0
aI0
aI0
aI0
aI2
aa(lp9
V0020700017
p10
aVNOV 02, 2007
p11
aVMIA @ IND
p12
aVL
p13
aI11
aI1
aI4
aF0.25
aI0
aI0
aF0.0
aI0
aI0
aF0.0
aI0
aI0
aI0
aI2
aI0
aI1
aI0
aI1
aI2
aI6
aa(lp14
V0020700038
p15
aVNOV 04, 2007
p16
aVMIA vs. CHA
p17
aVL
p18
aI16
aI1
aI3
aF0.333
aI0
aI1
aF0.0
aI2
aI2
aF1.0
aI0
aI2
aI2
aI2
aI1
aI0
aI1
aI0
aI4
aI8
aa(lp19
V0020700059
p20
aVNOV 07, 2007
p21
aVMIA @ SAS
p22
aVL
p23
aI0
aI0
aI0
aF0.0
aI0
aI0
aF0.0
aI0
aI0
aF0.0
aI0
aI0
aI0
aI0
aI0
aI0
aI0
aI0
aI0
aI1
aa(lp24
V0020700087
p25
aVNOV 11, 2007
p26
aVMIA @ NYK
p27
aVW
p28
aI6
aI0
aI3
aF0.0
aI0
aI3
aF0.0
aI0
aI0
aF0.0
aI0
aI0
aI0
aI1
aI0
aI0
aI0
aI0
aI0
aI4
aa(lp29
V0020700096
p30
aVNOV 13, 2007
p31
aVMIA @ CHA
p32
aVL
p33
aI12
aI2
aI5
aF0.4
aI0
aI1
aF0.0
aI1
aI1
aF1.0
aI0
aI1
aI1
aI0
aI0
aI0
aI0
aI0
aI5
aI9
aa(lp34
V0020700186
p35
aVNOV 24, 2007
p36
aVMIA @ ORL
p37
aVL
p38
aI3
aI0
aI1
aF0.0
aI0
aI1
aF0.0
aI0
aI0
aF0.0
aI0
aI1
aI1
aI0
aI0
aI0
aI0
aI0
aI0
aI-4
aa(lp39
V0020700206
p40
aVNOV 27, 2007
p41
aVMIA vs. CHA
p42
aVW
p43
aI20
aI0
aI2
aF0.0
aI0
aI1
aF0.0
aI0
aI0
aF0.0
aI0
aI1
aI1
aI3
aI0
aI0
aI0
aI2
aI0
aI-5
aa(lp44
V0020700228
p45
aVNOV 30, 2007
p46
aVMIA vs. BOS
p47
aVL
p48
aI14
aI1
aI2
aF0.5
aI1
aI2
aF0.5
aI0
aI0
aF0.0
aI0
aI0
aI0
aI3
aI0
aI0
aI1
aI0
aI3
aI-7
aa(lp49
V0020700247
p50
aVDEC 02, 2007
p51
aVMIA @ DEN
p52
aVL
p53
aI16
aI3
aI6
aF0.5
aI2
aI3
aF0.667
aI1
aI2
aF0.5
aI0
aI3
aI3
aI0
aI1
aI0
aI0
aI1
aI9
aI-4
aa(lp54
V0020700295
p55
aVDEC 09, 2007
p56
aVMIA @ LAC
p57
aVW
p58
aI44
aI6
aI10
aF0.6
aI1
aI2
aF0.5
aI0
aI0
aF0.0
aI0
aI3
aI3
aI3
aI2
aI0
aI0
aI2
aI13
aI5
aa(lp59
V0020700304
p60
aVDEC 10, 2007
p61
aVMIA @ PHX
p62
aVW
p63
aI34
aI5
aI7
aF0.714
aI2
aI3
aF0.667
aI0
aI0
aF0.0
aI0
aI3
aI3
aI4
aI0
aI0
aI0
aI1
aI12
aI14
aa(lp64
V0020700325
p65
aVDEC 13, 2007
p66
aVMIA vs. WAS
p67
aVL
p68
aI34
aI7
aI13
aF0.538
aI6
aI10
aF0.6
aI2
aI2
aF1.0
aI0
aI2
aI2
aI2
aI0
aI0
aI0
aI2
aI22
aI-3
aa(lp69
V0020700343
p70
aVDEC 15, 2007
p71
aVMIA vs. IND
p72
aVL
p73
aI12
aI0
aI1
aF0.0
aI0
aI1
aF0.0
aI0
aI0
aF0.0
aI0
aI0
aI0
aI0
aI1
aI0
aI1
aI0
aI0
aI-9
aa(lp74
V0020700357
p75
aVDEC 17, 2007
p76
aVMIA vs. MIN
p77
aVW
p78
aI15
aI1
aI4
aF0.25
aI0
aI1
aF0.0
aI0
aI0
aF0.0
aI0
aI1
aI1
aI0
aI1
aI0
aI0
aI1
aI2
aI10
aa(lp79
V0020700367
p80
aVDEC 19, 2007
p81
aVMIA @ ATL
p82
aVL
p83
aI39
aI3
aI6
aF0.5
aI1
aI2
aF0.5
aI5
aI5
aF1.0
aI0
aI1
aI1
aI7
aI3
aI1
aI0
aI0
aI12
aI-7
aa(lp84
V0020700378
p85
aVDEC 20, 2007
p86
aVMIA vs. NJN
p87
aVL
p88
aI13
aI0
aI1
aF0.0
aI0
aI1
aF0.0
aI0
aI0
aF0.0
aI0
aI2
aI2
aI3
aI0
aI0
aI1
aI3
aI0
aI-2
aa(lp89
V0020700464
p90
aVJAN 02, 2008
p91
aVMIA vs. MIL
p92
aVL
p93
aI39
aI5
aI10
aF0.5
aI2
aI4
aF0.5
aI0
aI0
aF0.0
aI0
aI2
aI2
aI4
aI2
aI0
aI2
aI2
aI12
aI-3
aa(lp94
V0020700481
p95
aVJAN 04, 2008
p96
aVMIA @ DAL
p97
aVL
p98
aI46
aI4
aI9
aF0.444
aI1
aI4
aF0.25
aI1
aI2
aF0.5
aI1
aI3
aI4
aI7
aI0
aI1
aI1
aI4
aI10
aI-1
aa(lp99
V0020700494
p100
aVJAN 06, 2008
p101
aVMIA @ MEM
p102
aVL
p103
aI30
aI6
aI10
aF0.6
aI5
aI7
aF0.714
aI0
aI0
aF0.0
aI0
aI0
aI0
aI0
aI3
aI0
aI2
aI4
aI17
aI-10
aa(lp104
V0020700505
p105
aVJAN 08, 2008
p106
aVMIA @ MIN
p107
aVL
p108
aI19
aI1
aI3
aF0.333
aI0
aI2
aF0.0
aI0
aI0
aF0.0
aI0
aI1
aI1
aI1
aI0
aI0
aI1
aI0
aI2
aI-7
aa(lp109
V0020700514
p110
aVJAN 09, 2008
p111
aVMIA @ MIL
p112
aVL
p113
aI8
aI1
aI1
aF1.0
aI0
aI0
aF0.0
aI0
aI0
aF0.0
aI0
aI1
aI1
aI0
aI0
aI0
aI0
aI1
aI2
aI-9
aa(lp114
V0020700528
p115
aVJAN 11, 2008
p116
aVMIA @ NOH
p117
aVL
p118
aI17
aI3
aI4
aF0.75
aI2
aI2
aF1.0
aI0
aI0
aF0.0
aI0
aI2
aI2
aI1
aI0
aI0
aI0
aI1
aI8
aI-9
aa(lp119
V0020700564
p120
aVJAN 16, 2008
p121
aVMIA vs. CHI
p122
aVL
p123
aI6
aI0
aI0
aF0.0
aI0
aI0
aF0.0
aI0
aI0
aF0.0
aI0
aI0
aI0
aI2
aI0
aI0
aI0
aI1
aI0
aI-7
aa(lp124
V0020700575
p125
aVJAN 18, 2008
p126
aVMIA vs. POR
p127
aVL
p128
aI8
aI0
aI2
aF0.0
aI0
aI1
aF0.0
aI0
aI0
aF0.0
aI0
aI0
aI0
aI1
aI1
aI0
aI0
aI1
aI0
aI11
aa(lp129
V0020700587
p130
aVJAN 19, 2008
p131
aVMIA vs. NYK
p132
aVL
p133
aI16
aI2
aI3
aF0.667
aI2
aI3
aF0.667
aI0
aI0
aF0.0
aI0
aI2
aI2
aI2
aI0
aI0
aI0
aI3
aI6
aI-6
aa(lp134
V0020700606
p135
aVJAN 21, 2008
p136
aVMIA vs. CLE
p137
aVL
p138
aI26
aI1
aI2
aF0.5
aI0
aI1
aF0.0
aI0
aI0
aF0.0
aI0
aI1
aI1
aI0
aI0
aI0
aI2
aI3
aI2
aI4
aa(lp139
V0020700622
p140
aVJAN 24, 2008
p141
aVMIA vs. SAS
p142
aVL
p143
aI7
aI1
aI2
aF0.5
aI0
aI1
aF0.0
aI0
aI0
aF0.0
aI0
aI1
aI1
aI0
aI0
aI0
aI0
aI1
aI2
aI0
aa(lp144
V0020700638
p145
aVJAN 26, 2008
p146
aVMIA vs. IND
p147
aVW
p148
aI8
aI1
aI2
aF0.5
aI0
aI1
aF0.0
aI0
aI0
aF0.0
aI0
aI0
aI0
aI1
aI1
aI0
aI0
aI2
aI2
aI-4
aa(lp149
V0020700659
p150
aVJAN 29, 2008
p151
aVMIA vs. BOS
p152
aVL
p153
aI22
aI0
aI4
aF0.0
aI0
aI2
aF0.0
aI0
aI0
aF0.0
aI0
aI0
aI0
aI3
aI1
aI0
aI2
aI2
aI0
aI12
aa(lp154
V0020700667
p155
aVJAN 30, 2008
p156
aVMIA @ ORL
p157
aVL
p158
aI18
aI3
aI3
aF1.0
aI2
aI2
aF1.0
aI6
aI8
aF0.75
aI0
aI1
aI1
aI1
aI0
aI0
aI1
aI3
aI14
aI-5
aa(lp159
V0020700683
p160
aVFEB 01, 2008
p161
aVMIA vs. NJN
p162
aVL
p163
aI7
aI0
aI1
aF0.0
aI0
aI1
aF0.0
aI0
aI0
aF0.0
aI0
aI0
aI0
aI0
aI0
aI0
aI0
aI0
aI0
aI-3
aa(lp164
V0020700701
p165
aVFEB 04, 2008
p166
aVMIA vs. TOR
p167
aVL
p168
aI23
aI4
aI7
aF0.571
aI1
aI3
aF0.333
aI2
aI2
aF1.0
aI1
aI2
aI3
aI4
aI0
aI0
aI2
aI0
aI11
aI-6
aa(lp169
V0020700723
p170
aVFEB 07, 2008
p171
aVMIA @ PHI
p172
aVL
p173
aI12
aI1
aI2
aF0.5
aI0
aI1
aF0.0
aI0
aI0
aF0.0
aI0
aI2
aI2
aI0
aI0
aI0
aI0
aI2
aI2
aI-8
aa(lp174
V0020700800
p175
aVFEB 21, 2008
p176
aVMIA @ HOU
p177
aVL
p178
aI8
aI0
aI2
aF0.0
aI0
aI0
aF0.0
aI0
aI0
aF0.0
aI1
aI2
aI3
aI1
aI0
aI0
aI0
aI0
aI0
aI-6
aa(lp179
V0020700838
p180
aVFEB 26, 2008
p181
aVMIA vs. SAC
p182
aVW
p183
aI5
aI0
aI2
aF0.0
aI0
aI1
aF0.0
aI0
aI0
aF0.0
aI0
aI2
aI2
aI1
aI0
aI0
aI0
aI0
aI0
aI-4
aa(lp184
V0020700901
p185
aVMAR 05, 2008
p186
aVMIA vs. TOR
p187
aVL
p188
aI12
aI3
aI6
aF0.5
aI2
aI5
aF0.4
aI0
aI0
aF0.0
aI0
aI2
aI2
aI1
aI0
aI0
aI1
aI0
aI8
aI-3
aa(lp189
V0020700916
p190
aVMAR 07, 2008
p191
aVMIA vs. GSW
p192
aVL
p193
aI34
aI8
aI14
aF0.571
aI4
aI8
aF0.5
aI0
aI0
aF0.0
aI0
aI1
aI1
aI2
aI1
aI0
aI1
aI3
aI20
aI-27
aa(lp194
V0020700926
p195
aVMAR 08, 2008
p196
aVMIA @ ATL
p197
aVL
p198
aI18
aI0
aI5
aF0.0
aI0
aI1
aF0.0
aI0
aI0
aF0.0
aI2
aI1
aI3
aI2
aI1
aI1
aI1
aI2
aI0
aI-3
aa(lp199
V0020700942
p200
aVMAR 10, 2008
p201
aVMIA vs. LAC
p202
aVL
p203
aI17
aI2
aI6
aF0.333
aI0
aI0
aF0.0
aI0
aI0
aF0.0
aI0
aI0
aI0
aI5
aI0
aI0
aI0
aI0
aI4
aI-2
aa(lp204
V0020700956
p205
aVMAR 12, 2008
p206
aVMIA vs. NYK
p207
aVL
p208
aI17
aI3
aI7
aF0.429
aI1
aI1
aF1.0
aI0
aI0
aF0.0
aI0
aI1
aI1
aI1
aI0
aI0
aI0
aI2
aI7
aI8
aa(lp209
V0020700968
p210
aVMAR 14, 2008
p211
aVMIA vs. ORL
p212
aVL
p213
aI20
aI0
aI6
aF0.0
aI0
aI3
aF0.0
aI0
aI0
aF0.0
aI1
aI1
aI2
aI2
aI0
aI0
aI0
aI1
aI0
aI5
aa(lp214
V0020700984
p215
aVMAR 16, 2008
p216
aVMIA vs. DAL
p217
aVL
p218
aI23
aI1
aI3
aF0.333
aI0
aI0
aF0.0
aI6
aI6
aF1.0
aI0
aI1
aI1
aI6
aI0
aI0
aI1
aI0
aI8
aI7
aa(lp219
V0020701000
p220
aVMAR 18, 2008
p221
aVMIA @ MIL
p222
aVW
p223
aI21
aI6
aI6
aF1.0
aI3
aI3
aF1.0
aI2
aI2
aF1.0
aI0
aI1
aI1
aI4
aI0
aI0
aI0
aI1
aI17
aI16
aa(lp224
V0020701006
p225
aVMAR 19, 2008
p226
aVMIA @ TOR
p227
aVL
p228
aI48
aI5
aI14
aF0.357
aI0
aI6
aF0.0
aI4
aI4
aF1.0
aI1
aI4
aI5
aI3
aI0
aI0
aI5
aI3
aI14
aI-42
aa(lp229
V0020701023
p230
aVMAR 21, 2008
p231
aVMIA vs. WAS
p232
aVL
p233
aI26
aI2
aI8
aF0.25
aI1
aI3
aF0.333
aI1
aI2
aF0.5
aI0
aI2
aI2
aI4
aI2
aI0
aI2
aI3
aI6
aI-13
aa(lp234
V0020701030
p235
aVMAR 22, 2008
p236
aVMIA @ CHA
p237
aVL
p238
aI28
aI6
aI10
aF0.6
aI0
aI0
aF0.0
aI2
aI2
aF1.0
aI1
aI1
aI2
aI5
aI0
aI0
aI2
aI4
aI14
aI-6
aa(lp239
V0020701046
p240
aVMAR 24, 2008
p241
aVMIA vs. MIL
p242
aVW
p243
aI38
aI8
aI13
aF0.615
aI3
aI5
aF0.6
aI5
aI5
aF1.0
aI0
aI4
aI4
aI4
aI4
aI0
aI2
aI1
aI24
aI6
aa(lp244
V0020701059
p245
aVMAR 26, 2008
p246
aVMIA @ NYK
p247
aVL
p248
aI40
aI2
aI13
aF0.154
aI0
aI3
aF0.0
aI5
aI8
aF0.625
aI1
aI4
aI5
aI6
aI6
aI0
aI3
aI3
aI9
aI6
aa(lp249
V0020701070
p250
aVMAR 27, 2008
p251
aVMIA @ DET
p252
aVL
p253
aI33
aI3
aI10
aF0.3
aI1
aI3
aF0.333
aI4
aI4
aF1.0
aI1
aI4
aI5
aI7
aI2
aI0
aI2
aI5
aI11
aI2
aa(lp254
V0020701093
p255
aVMAR 30, 2008
p256
aVMIA @ BOS
p257
aVL
p258
aI39
aI3
aI14
aF0.214
aI1
aI6
aF0.167
aI7
aI8
aF0.875
aI0
aI4
aI4
aI8
aI3
aI0
aI3
aI0
aI14
aI-25
aa(lp259
V0020701100
p260
aVMAR 31, 2008
p261
aVMIA @ IND
p262
aVL
p263
aI33
aI3
aI6
aF0.5
aI2
aI2
aF1.0
aI7
aI8
aF0.875
aI0
aI4
aI4
aI6
aI2
aI0
aI1
aI2
aI15
aI-10
aa(lp264
V0020701117
p265
aVAPR 02, 2008
p266
aVMIA vs. NOH
p267
aVL
p268
aI36
aI7
aI15
aF0.467
aI4
aI8
aF0.5
aI0
aI0
aF0.0
aI0
aI7
aI7
aI9
aI0
aI0
aI2
aI4
aI18
aI-22
aa(lp269
V0020701128
p270
aVAPR 04, 2008
p271
aVMIA @ WAS
p272
aVL
p273
aI42
aI8
aI17
aF0.471
aI5
aI8
aF0.625
aI3
aI4
aF0.75
aI0
aI2
aI2
aI8
aI1
aI0
aI1
aI1
aI24
aI-7
aa(lp274
V0020701143
p275
aVAPR 06, 2008
p276
aVMIA vs. DET
p277
aVL
p278
aI36
aI4
aI8
aF0.5
aI1
aI4
aF0.25
aI5
aI5
aF1.0
aI0
aI7
aI7
aI4
aI1
aI0
aI1
aI1
aI14
aI0
aa(lp279
V0020701155
p280
aVAPR 08, 2008
p281
aVMIA vs. CHI
p282
aVW
p283
aI31
aI5
aI12
aF0.417
aI2
aI6
aF0.333
aI4
aI4
aF1.0
aI0
aI3
aI3
aI6
aI2
aI0
aI3
aI1
aI16
aI-3
aa(lp284
V0020701182
p285
aVAPR 11, 2008
p286
aVMIA vs. MEM
p287
aVL
p288
aI37
aI6
aI15
aF0.4
aI2
aI6
aF0.333
aI0
aI0
aF0.0
aI1
aI6
aI7
aI8
aI3
aI0
aI2
aI3
aI14
aI9
aa(lp289
V0020701197
p290
aVAPR 13, 2008
p291
aVMIA @ CLE
p292
aVL
p293
aI34
aI2
aI3
aF0.667
aI1
aI1
aF1.0
aI4
aI6
aF0.667
aI0
aI3
aI3
aI6
aI0
aI0
aI3
aI4
aI9
aI-3
aa(lp294
V0020701203
p295
aVAPR 14, 2008
p296
aVMIA @ TOR
p297
aVL
p298
aI38
aI5
aI16
aF0.313
aI2
aI5
aF0.4
aI2
aI2
aF1.0
aI0
aI1
aI1
aI6
aI0
aI0
aI2
aI2
aI14
aI-18
aa(lp299
V0020701222
p300
aVAPR 16, 2008
p301
aVMIA vs. ATL
p302
aVW
p303
aI26
aI3
aI9
aF0.333
aI1
aI4
aF0.25
aI4
aI4
aF1.0
aI0
aI1
aI1
aI6
aI1
aI0
aI0
aI1
aI11
aI4
aasS'name'
p304
VChris Quinn
p305
sS'experience'
p306
I1
s.