(dp0
S'age'
p1
I19
sS'stats'
p2
(lp3
(lp4
V0020701230
p5
aVAPR 16, 2008
p6
aVSEA @ GSW
p7
aVW
p8
aI43
aI18
aI25
aF0.72
aI1
aI2
aF0.5
aI5
aI6
aF0.833
aI3
aI10
aI13
aI6
aI1
aI2
aI5
aI0
aI42
aI14
aa(lp9
V0020701202
p10
aVAPR 13, 2008
p11
aVSEA vs. DAL
p12
aVW
p13
aI40
aI7
aI18
aF0.389
aI0
aI1
aF0.0
aI5
aI6
aF0.833
aI0
aI5
aI5
aI3
aI1
aI2
aI1
aI3
aI19
aI0
aa(lp14
V0020701185
p15
aVAPR 11, 2008
p16
aVSEA @ SAS
p17
aVL
p18
aI35
aI9
aI19
aF0.474
aI0
aI0
aF0.0
aI2
aI3
aF0.667
aI2
aI4
aI6
aI3
aI0
aI1
aI0
aI1
aI20
aI-18
aa(lp19
V0020701171
p20
aVAPR 09, 2008
p21
aVSEA @ HOU
p22
aVL
p23
aI39
aI10
aI23
aF0.435
aI1
aI1
aF1.0
aI5
aI7
aF0.714
aI1
aI2
aI3
aI4
aI4
aI0
aI2
aI1
aI26
aI-8
aa(lp24
V0020701160
p25
aVAPR 08, 2008
p26
aVSEA @ DAL
p27
aVL
p28
aI37
aI6
aI16
aF0.375
aI0
aI1
aF0.0
aI4
aI5
aF0.8
aI1
aI5
aI6
aI3
aI0
aI1
aI0
aI0
aI16
aI-20
aa(lp29
V0020701151
p30
aVAPR 06, 2008
p31
aVSEA vs. DEN
p32
aVW
p33
aI51
aI11
aI24
aF0.458
aI2
aI4
aF0.5
aI13
aI13
aF1.0
aI0
aI8
aI8
aI9
aI3
aI0
aI5
aI2
aI37
aI-2
aa(lp34
V0020701136
p35
aVAPR 04, 2008
p36
aVSEA vs. HOU
p37
aVL
p38
aI35
aI2
aI17
aF0.118
aI0
aI1
aF0.0
aI0
aI0
aF0.0
aI3
aI2
aI5
aI4
aI0
aI0
aI3
aI1
aI4
aI-22
aa(lp39
V0020701121
p40
aVAPR 02, 2008
p41
aVSEA vs. LAC
p42
aVL
p43
aI42
aI13
aI23
aF0.565
aI0
aI1
aF0.0
aI4
aI5
aF0.8
aI2
aI3
aI5
aI1
aI0
aI1
aI5
aI2
aI30
aI-16
aa(lp44
V0020701097
p45
aVMAR 30, 2008
p46
aVSEA vs. SAC
p47
aVL
p48
aI38
aI10
aI18
aF0.556
aI1
aI2
aF0.5
aI4
aI4
aF1.0
aI0
aI2
aI2
aI2
aI1
aI0
aI1
aI1
aI25
aI-10
aa(lp49
V0020701083
p50
aVMAR 28, 2008
p51
aVSEA vs. CHA
p52
aVL
p53
aI40
aI6
aI17
aF0.353
aI0
aI4
aF0.0
aI6
aI6
aF1.0
aI0
aI5
aI5
aI1
aI0
aI2
aI2
aI1
aI18
aI-14
aa(lp54
V0020701068
p55
aVMAR 26, 2008
p56
aVSEA vs. WAS
p57
aVL
p58
aI39
aI13
aI22
aF0.591
aI1
aI2
aF0.5
aI5
aI5
aF1.0
aI2
aI5
aI7
aI1
aI1
aI0
aI2
aI2
aI32
aI-9
aa(lp59
V0020701050
p60
aVMAR 24, 2008
p61
aVSEA vs. POR
p62
aVW
p63
aI39
aI9
aI13
aF0.692
aI1
aI2
aF0.5
aI4
aI5
aF0.8
aI1
aI8
aI9
aI3
aI0
aI1
aI1
aI4
aI23
aI13
aa(lp64
V0020701037
p65
aVMAR 22, 2008
p66
aVSEA @ UTA
p67
aVL
p68
aI42
aI10
aI18
aF0.556
aI0
aI1
aF0.0
aI3
aI3
aF1.0
aI0
aI3
aI3
aI2
aI1
aI1
aI3
aI1
aI23
aI-11
aa(lp69
V0020701027
p70
aVMAR 21, 2008
p71
aVSEA @ LAL
p72
aVL
p73
aI37
aI8
aI15
aF0.533
aI0
aI0
aF0.0
aI4
aI4
aF1.0
aI1
aI3
aI4
aI3
aI2
aI0
aI2
aI1
aI20
aI-13
aa(lp74
V0020701014
p75
aVMAR 19, 2008
p76
aVSEA vs. PHX
p77
aVL
p78
aI33
aI6
aI13
aF0.462
aI1
aI1
aF1.0
aI3
aI5
aF0.6
aI0
aI1
aI1
aI1
aI1
aI0
aI5
aI2
aI16
aI-9
aa(lp79
V0020700989
p80
aVMAR 16, 2008
p81
aVSEA @ DEN
p82
aVL
p83
aI27
aI8
aI12
aF0.667
aI0
aI0
aF0.0
aI7
aI9
aF0.778
aI1
aI2
aI3
aI0
aI0
aI0
aI2
aI2
aI23
aI-33
aa(lp84
V0020700975
p85
aVMAR 14, 2008
p86
aVSEA vs. MIN
p87
aVL
p88
aI34
aI9
aI15
aF0.6
aI0
aI1
aF0.0
aI6
aI6
aF1.0
aI0
aI4
aI4
aI4
aI0
aI0
aI5
aI3
aI24
aI10
aa(lp89
V0020700954
p90
aVMAR 12, 2008
p91
aVSEA @ BOS
p92
aVL
p93
aI33
aI7
aI14
aF0.5
aI0
aI1
aF0.0
aI2
aI2
aF1.0
aI1
aI2
aI3
aI1
aI0
aI3
aI4
aI2
aI16
aI-31
aa(lp94
V0020700947
p95
aVMAR 11, 2008
p96
aVSEA @ IND
p97
aVL
p98
aI38
aI7
aI14
aF0.5
aI1
aI1
aF1.0
aI12
aI13
aF0.923
aI0
aI2
aI2
aI0
aI1
aI1
aI1
aI4
aI27
aI-8
aa(lp99
V0020700934
p100
aVMAR 09, 2008
p101
aVSEA @ TOR
p102
aVL
p103
aI36
aI7
aI15
aF0.467
aI0
aI1
aF0.0
aI6
aI6
aF1.0
aI0
aI6
aI6
aI3
aI1
aI0
aI5
aI2
aI20
aI5
aa(lp104
V0020700913
p105
aVMAR 07, 2008
p106
aVSEA @ PHI
p107
aVL
p108
aI29
aI6
aI11
aF0.545
aI0
aI0
aF0.0
aI2
aI2
aF1.0
aI2
aI1
aI3
aI2
aI0
aI1
aI6
aI0
aI14
aI-20
aa(lp109
V0020700902
p110
aVMAR 05, 2008
p111
aVSEA @ MIL
p112
aVL
p113
aI38
aI9
aI18
aF0.5
aI0
aI1
aF0.0
aI5
aI6
aF0.833
aI2
aI1
aI3
aI2
aI3
aI0
aI1
aI4
aI23
aI-18
aa(lp114
V0020700891
p115
aVMAR 04, 2008
p116
aVSEA @ DET
p117
aVL
p118
aI39
aI7
aI14
aF0.5
aI0
aI1
aF0.0
aI6
aI8
aF0.75
aI1
aI6
aI7
aI5
aI1
aI1
aI3
aI0
aI20
aI7
aa(lp119
V0020700882
p120
aVMAR 02, 2008
p121
aVSEA @ MIN
p122
aVW
p123
aI43
aI8
aI18
aF0.444
aI0
aI0
aF0.0
aI9
aI9
aF1.0
aI1
aI3
aI4
aI2
aI1
aI1
aI7
aI0
aI25
aI5
aa(lp124
V0020700869
p125
aVFEB 29, 2008
p126
aVSEA vs. MIA
p127
aVL
p128
aI35
aI7
aI15
aF0.467
aI0
aI1
aF0.0
aI10
aI11
aF0.909
aI1
aI1
aI2
aI4
aI0
aI0
aI4
aI3
aI24
aI-14
aa(lp129
V0020700853
p130
aVFEB 27, 2008
p131
aVSEA vs. DEN
p132
aVL
p133
aI34
aI4
aI17
aF0.235
aI0
aI0
aF0.0
aI8
aI9
aF0.889
aI3
aI3
aI6
aI2
aI3
aI0
aI3
aI2
aI16
aI-24
aa(lp134
V0020700844
p135
aVFEB 26, 2008
p136
aVSEA @ GSW
p137
aVL
p138
aI40
aI9
aI19
aF0.474
aI0
aI2
aF0.0
aI3
aI3
aF1.0
aI2
aI2
aI4
aI7
aI1
aI3
aI5
aI1
aI21
aI-8
aa(lp139
V0020700830
p140
aVFEB 24, 2008
p141
aVSEA vs. LAL
p142
aVL
p143
aI33
aI4
aI13
aF0.308
aI0
aI1
aF0.0
aI7
aI8
aF0.875
aI0
aI4
aI4
aI1
aI2
aI1
aI4
aI3
aI15
aI-34
aa(lp144
V0020700815
p145
aVFEB 22, 2008
p146
aVSEA vs. POR
p147
aVW
p148
aI28
aI6
aI17
aF0.353
aI0
aI0
aF0.0
aI5
aI5
aF1.0
aI2
aI2
aI4
aI0
aI1
aI0
aI2
aI0
aI17
aI4
aa(lp149
V0020700802
p150
aVFEB 21, 2008
p151
aVSEA @ POR
p152
aVL
p153
aI37
aI6
aI15
aF0.4
aI2
aI2
aF1.0
aI6
aI8
aF0.75
aI2
aI4
aI6
aI2
aI1
aI0
aI4
aI3
aI20
aI-2
aa(lp154
V0020700776
p155
aVFEB 13, 2008
p156
aVSEA vs. UTA
p157
aVL
p158
aI35
aI7
aI17
aF0.412
aI0
aI3
aF0.0
aI5
aI6
aF0.833
aI0
aI3
aI3
aI0
aI2
aI0
aI3
aI2
aI19
aI-11
aa(lp159
V0020700734
p160
aVFEB 08, 2008
p161
aVSEA @ PHX
p162
aVL
p163
aI31
aI2
aI12
aF0.167
aI0
aI0
aF0.0
aI5
aI5
aF1.0
aI0
aI1
aI1
aI3
aI0
aI2
aI2
aI1
aI9
aI-10
aa(lp164
V0020700721
p165
aVFEB 06, 2008
p166
aVSEA @ SAC
p167
aVW
p168
aI38
aI6
aI12
aF0.5
aI1
aI2
aF0.5
aI4
aI6
aF0.667
aI0
aI3
aI3
aI5
aI1
aI0
aI1
aI1
aI17
aI23
aa(lp169
V0020700706
p170
aVFEB 04, 2008
p171
aVSEA vs. CHI
p172
aVL
p173
aI31
aI7
aI15
aF0.467
aI0
aI0
aF0.0
aI6
aI6
aF1.0
aI1
aI3
aI4
aI3
aI3
aI1
aI0
aI0
aI20
aI-8
aa(lp174
V0020700695
p175
aVFEB 02, 2008
p176
aVSEA vs. NYK
p177
aVW
p178
aI36
aI7
aI21
aF0.333
aI1
aI1
aF1.0
aI6
aI8
aF0.75
aI3
aI4
aI7
aI1
aI2
aI2
aI1
aI0
aI21
aI-4
aa(lp179
V0020700677
p180
aVJAN 31, 2008
p181
aVSEA vs. CLE
p182
aVW
p183
aI30
aI10
aI16
aF0.625
aI0
aI0
aF0.0
aI4
aI5
aF0.8
aI1
aI2
aI3
aI4
aI2
aI2
aI5
aI2
aI24
aI10
aa(lp184
V0020700663
p185
aVJAN 29, 2008
p186
aVSEA vs. SAS
p187
aVW
p188
aI36
aI9
aI19
aF0.474
aI1
aI4
aF0.25
aI7
aI7
aF1.0
aI1
aI6
aI7
aI5
aI1
aI1
aI1
aI1
aI26
aI5
aa(lp189
V0020700651
p190
aVJAN 27, 2008
p191
aVSEA vs. SAC
p192
aVL
p193
aI36
aI5
aI20
aF0.25
aI0
aI2
aF0.0
aI9
aI10
aF0.9
aI2
aI2
aI4
aI5
aI3
aI0
aI5
aI4
aI19
aI3
aa(lp194
V0020700637
p195
aVJAN 25, 2008
p196
aVSEA vs. ATL
p197
aVL
p198
aI32
aI7
aI21
aF0.333
aI0
aI4
aF0.0
aI3
aI3
aF1.0
aI0
aI2
aI2
aI0
aI2
aI0
aI4
aI3
aI17
aI-18
aa(lp199
V0020700620
p200
aVJAN 23, 2008
p201
aVSEA vs. HOU
p202
aVL
p203
aI33
aI12
aI23
aF0.522
aI0
aI2
aF0.0
aI1
aI1
aF1.0
aI0
aI3
aI3
aI1
aI0
aI2
aI0
aI1
aI25
aI-8
aa(lp204
V0020700600
p205
aVJAN 21, 2008
p206
aVSEA @ HOU
p207
aVL
p208
aI35
aI4
aI13
aF0.308
aI1
aI4
aF0.25
aI3
aI4
aF0.75
aI1
aI3
aI4
aI2
aI0
aI1
aI4
aI1
aI12
aI-2
aa(lp209
V0020700591
p210
aVJAN 19, 2008
p211
aVSEA @ DAL
p212
aVL
p213
aI25
aI3
aI12
aF0.25
aI0
aI1
aF0.0
aI0
aI1
aF0.0
aI1
aI1
aI2
aI0
aI0
aI0
aI1
aI1
aI6
aI-21
aa(lp214
V0020700578
p215
aVJAN 18, 2008
p216
aVSEA @ MEM
p217
aVL
p218
aI28
aI8
aI18
aF0.444
aI2
aI4
aF0.5
aI4
aI4
aF1.0
aI3
aI0
aI3
aI0
aI0
aI0
aI3
aI1
aI22
aI-35
aa(lp219
V0020700569
p220
aVJAN 16, 2008
p221
aVSEA @ NOH
p222
aVL
p223
aI30
aI9
aI15
aF0.6
aI1
aI2
aF0.5
aI1
aI1
aF1.0
aI1
aI6
aI7
aI6
aI1
aI0
aI4
aI0
aI20
aI-8
aa(lp224
V0020700553
p225
aVJAN 14, 2008
p226
aVSEA vs. LAL
p227
aVL
p228
aI41
aI6
aI26
aF0.231
aI2
aI6
aF0.333
aI5
aI6
aF0.833
aI0
aI1
aI1
aI1
aI1
aI2
aI0
aI1
aI19
aI-5
aa(lp229
V0020700533
p230
aVJAN 11, 2008
p231
aVSEA vs. DAL
p232
aVL
p233
aI34
aI4
aI13
aF0.308
aI0
aI3
aF0.0
aI7
aI8
aF0.875
aI0
aI3
aI3
aI6
aI0
aI1
aI2
aI1
aI15
aI-18
aa(lp234
V0020700512
p235
aVJAN 09, 2008
p236
aVSEA @ NJN
p237
aVL
p238
aI32
aI5
aI14
aF0.357
aI0
aI4
aF0.0
aI5
aI5
aF1.0
aI0
aI2
aI2
aI1
aI1
aI2
aI3
aI0
aI15
aI-19
aa(lp239
V0020700503
p240
aVJAN 08, 2008
p241
aVSEA @ CLE
p242
aVL
p243
aI31
aI10
aI20
aF0.5
aI1
aI3
aF0.333
aI3
aI3
aF1.0
aI0
aI6
aI6
aI1
aI0
aI1
aI4
aI0
aI24
aI-9
aa(lp244
V0020700491
p245
aVJAN 06, 2008
p246
aVSEA @ WAS
p247
aVL
p248
aI35
aI7
aI21
aF0.333
aI0
aI4
aF0.0
aI5
aI6
aF0.833
aI1
aI5
aI6
aI3
aI0
aI0
aI2
aI1
aI19
aI-16
aa(lp249
V0020700471
p250
aVJAN 03, 2008
p251
aVSEA @ PHX
p252
aVL
p253
aI37
aI11
aI24
aF0.458
aI1
aI3
aF0.333
aI5
aI6
aF0.833
aI2
aI5
aI7
aI1
aI0
aI1
aI2
aI0
aI28
aI8
aa(lp254
V0020700442
p255
aVDEC 29, 2007
p256
aVSEA vs. MIN
p257
aVW
p258
aI12
aI3
aI6
aF0.5
aI0
aI1
aF0.0
aI0
aI0
aF0.0
aI0
aI0
aI0
aI2
aI1
aI1
aI0
aI0
aI6
aI-6
aa(lp259
V0020700421
p260
aVDEC 27, 2007
p261
aVSEA vs. BOS
p262
aVL
p263
aI37
aI10
aI23
aF0.435
aI1
aI4
aF0.25
aI4
aI4
aF1.0
aI1
aI4
aI5
aI2
aI1
aI1
aI3
aI4
aI25
aI-4
aa(lp264
V0020700407
p265
aVDEC 25, 2007
p266
aVSEA @ POR
p267
aVL
p268
aI38
aI8
aI20
aF0.4
aI1
aI4
aF0.25
aI6
aI6
aF1.0
aI0
aI6
aI6
aI4
aI0
aI2
aI1
aI1
aI23
aI-5
aa(lp269
V0020700390
p270
aVDEC 21, 2007
p271
aVSEA vs. TOR
p272
aVW
p273
aI38
aI11
aI18
aF0.611
aI4
aI5
aF0.8
aI1
aI1
aF1.0
aI0
aI2
aI2
aI3
aI1
aI1
aI5
aI1
aI27
aI2
aa(lp274
V0020700377
p275
aVDEC 19, 2007
p276
aVSEA vs. NOH
p277
aVL
p278
aI31
aI7
aI15
aF0.467
aI0
aI2
aF0.0
aI4
aI4
aF1.0
aI0
aI4
aI4
aI5
aI0
aI0
aI0
aI0
aI18
aI-26
aa(lp279
V0020700349
p280
aVDEC 15, 2007
p281
aVSEA @ UTA
p282
aVL
p283
aI19
aI3
aI11
aF0.273
aI0
aI1
aF0.0
aI0
aI1
aF0.0
aI3
aI0
aI3
aI1
aI2
aI1
aI0
aI3
aI6
aI-19
aa(lp284
V0020700334
p285
aVDEC 14, 2007
p286
aVSEA @ MIN
p287
aVW
p288
aI35
aI4
aI17
aF0.235
aI1
aI5
aF0.2
aI4
aI4
aF1.0
aI0
aI5
aI5
aI0
aI2
aI1
aI8
aI2
aI13
aI6
aa(lp289
V0020700319
p290
aVDEC 12, 2007
p291
aVSEA @ NYK
p292
aVW
p293
aI35
aI11
aI20
aF0.55
aI1
aI5
aF0.2
aI7
aI8
aF0.875
aI1
aI4
aI5
aI4
aI2
aI0
aI3
aI1
aI30
aI8
aa(lp294
V0020700311
p295
aVDEC 11, 2007
p296
aVSEA @ CHI
p297
aVL
p298
aI24
aI5
aI10
aF0.5
aI1
aI2
aF0.5
aI5
aI5
aF1.0
aI0
aI1
aI1
aI2
aI0
aI0
aI3
aI0
aI16
aI-16
aa(lp299
V0020700299
p300
aVDEC 09, 2007
p301
aVSEA @ NOH
p302
aVL
p303
aI36
aI7
aI22
aF0.318
aI2
aI4
aF0.5
aI7
aI8
aF0.875
aI0
aI4
aI4
aI2
aI1
aI2
aI2
aI0
aI23
aI-1
aa(lp304
V0020700286
p305
aVDEC 07, 2007
p306
aVSEA vs. MIL
p307
aVW
p308
aI39
aI9
aI20
aF0.45
aI2
aI6
aF0.333
aI15
aI16
aF0.938
aI2
aI6
aI8
aI1
aI0
aI5
aI3
aI4
aI35
aI18
aa(lp309
V0020700272
p310
aVDEC 05, 2007
p311
aVSEA vs. LAC
p312
aVW
p313
aI35
aI4
aI12
aF0.333
aI1
aI2
aF0.5
aI7
aI8
aF0.875
aI0
aI7
aI7
aI1
aI0
aI2
aI3
aI4
aI16
aI3
aa(lp314
V0020700248
p315
aVDEC 02, 2007
p316
aVSEA vs. GSW
p317
aVL
p318
aI25
aI2
aI12
aF0.167
aI0
aI0
aF0.0
aI2
aI2
aF1.0
aI0
aI3
aI3
aI0
aI0
aI1
aI3
aI0
aI6
aI-28
aa(lp319
V0020700234
p320
aVNOV 30, 2007
p321
aVSEA vs. IND
p322
aVW
p323
aI40
aI12
aI20
aF0.6
aI3
aI5
aF0.6
aI8
aI12
aF0.667
aI0
aI5
aI5
aI2
aI2
aI3
aI7
aI4
aI35
aI13
aa(lp324
V0020700220
p325
aVNOV 28, 2007
p326
aVSEA vs. ORL
p327
aVL
p328
aI34
aI6
aI21
aF0.286
aI0
aI3
aF0.0
aI10
aI10
aF1.0
aI2
aI4
aI6
aI4
aI0
aI1
aI2
aI1
aI22
aI-8
aa(lp329
V0020700210
p330
aVNOV 27, 2007
p331
aVSEA @ LAL
p332
aVL
p333
aI36
aI10
aI19
aF0.526
aI1
aI2
aF0.5
aI4
aI7
aF0.571
aI0
aI2
aI2
aI3
aI1
aI2
aI2
aI1
aI25
aI3
aa(lp334
V0020700195
p335
aVNOV 25, 2007
p336
aVSEA vs. SAS
p337
aVL
p338
aI36
aI11
aI17
aF0.647
aI1
aI3
aF0.333
aI2
aI2
aF1.0
aI1
aI5
aI6
aI4
aI0
aI0
aI3
aI2
aI25
aI-14
aa(lp339
V0020700181
p340
aVNOV 23, 2007
p341
aVSEA vs. NJN
p342
aVL
p343
aI33
aI4
aI12
aF0.333
aI1
aI4
aF0.25
aI3
aI4
aF0.75
aI0
aI5
aI5
aI2
aI0
aI1
aI1
aI1
aI12
aI0
aa(lp344
V0020700146
p345
aVNOV 19, 2007
p346
aVSEA @ MEM
p347
aVL
p348
aI30
aI2
aI8
aF0.25
aI0
aI0
aF0.0
aI7
aI8
aF0.875
aI0
aI2
aI2
aI2
aI0
aI0
aI5
aI2
aI11
aI-26
aa(lp349
V0020700132
p350
aVNOV 17, 2007
p351
aVSEA @ CHA
p352
aVL
p353
aI29
aI3
aI12
aF0.25
aI0
aI2
aF0.0
aI10
aI10
aF1.0
aI1
aI0
aI1
aI1
aI1
aI1
aI3
aI2
aI16
aI-26
aa(lp354
V0020700123
p355
aVNOV 16, 2007
p356
aVSEA @ ATL
p357
aVW
p358
aI45
aI8
aI18
aF0.444
aI1
aI5
aF0.2
aI4
aI4
aF1.0
aI1
aI2
aI3
aI2
aI3
aI3
aI4
aI2
aI21
aI-9
aa(lp359
V0020700109
p360
aVNOV 14, 2007
p361
aVSEA @ MIA
p362
aVW
p363
aI34
aI6
aI16
aF0.375
aI3
aI6
aF0.5
aI3
aI4
aF0.75
aI2
aI3
aI5
aI1
aI1
aI0
aI5
aI2
aI18
aI-1
aa(lp364
V0020700097
p365
aVNOV 13, 2007
p366
aVSEA @ ORL
p367
aVL
p368
aI25
aI4
aI13
aF0.308
aI0
aI3
aF0.0
aI2
aI2
aF1.0
aI0
aI1
aI1
aI0
aI2
aI2
aI4
aI2
aI10
aI-19
aa(lp369
V0020700091
p370
aVNOV 11, 2007
p371
aVSEA vs. DET
p372
aVL
p373
aI33
aI7
aI20
aF0.35
aI1
aI4
aF0.25
aI4
aI5
aF0.8
aI2
aI4
aI6
aI2
aI1
aI1
aI2
aI0
aI19
aI-17
aa(lp374
V0020700078
p375
aVNOV 09, 2007
p376
aVSEA vs. UTA
p377
aVL
p378
aI36
aI7
aI21
aF0.333
aI1
aI8
aF0.125
aI5
aI7
aF0.714
aI1
aI4
aI5
aI1
aI3
aI1
aI3
aI0
aI20
aI2
aa(lp379
V0020700061
p380
aVNOV 07, 2007
p381
aVSEA vs. MEM
p382
aVL
p383
aI32
aI3
aI17
aF0.176
aI1
aI4
aF0.25
aI10
aI10
aF1.0
aI0
aI2
aI2
aI1
aI1
aI0
aI2
aI2
aI17
aI-9
aa(lp384
V0020700051
p385
aVNOV 06, 2007
p386
aVSEA @ SAC
p387
aVL
p388
aI34
aI11
aI22
aF0.5
aI3
aI9
aF0.333
aI2
aI3
aF0.667
aI2
aI5
aI7
aI4
aI1
aI0
aI6
aI2
aI27
aI-16
aa(lp389
V0020700036
p390
aVNOV 04, 2007
p391
aVSEA @ LAC
p392
aVL
p393
aI37
aI10
aI19
aF0.526
aI3
aI6
aF0.5
aI1
aI2
aF0.5
aI0
aI8
aI8
aI5
aI0
aI1
aI1
aI2
aI24
aI-18
aa(lp394
V0020700014
p395
aVNOV 01, 2007
p396
aVSEA vs. PHX
p397
aVL
p398
aI39
aI11
aI23
aF0.478
aI2
aI6
aF0.333
aI3
aI4
aF0.75
aI0
aI5
aI5
aI1
aI0
aI1
aI6
aI2
aI27
aI-3
aa(lp399
V0020700011
p400
aVOCT 31, 2007
p401
aVSEA @ DEN
p402
aVL
p403
aI32
aI7
aI22
aF0.318
aI2
aI7
aF0.286
aI2
aI4
aF0.5
aI0
aI5
aI5
aI1
aI3
aI1
aI2
aI3
aI18
aI-8
aasS'name'
p404
VKevin Durant
p405
sS'experience'
p406
I0
s.