(dp0
S'stats'
p1
(lp2
(lp3
V0020700019
p4
aVNOV 02, 2007
p5
aVATL vs. DAL
p6
aVW
p7
aI23
aI3
aI4
aF0.75
aI0
aI0
aF0.0
aI3
aI4
aF0.75
aI1
aI9
aI10
aI1
aI0
aI1
aI0
aI5
aI9
aI4
aa(lp8
V0020700039
p9
aVNOV 04, 2007
p10
aVATL @ DET
p11
aVL
p12
aI36
aI1
aI6
aF0.167
aI0
aI0
aF0.0
aI1
aI2
aF0.5
aI4
aI7
aI11
aI2
aI1
aI0
aI5
aI2
aI3
aI-10
aa(lp13
V0020700045
p14
aVNOV 06, 2007
p15
aVATL @ NJN
p16
aVL
p17
aI29
aI3
aI6
aF0.5
aI0
aI0
aF0.0
aI0
aI4
aF0.0
aI1
aI6
aI7
aI1
aI4
aI2
aI3
aI2
aI6
aI-8
aa(lp18
V0020700056
p19
aVNOV 07, 2007
p20
aVATL vs. PHX
p21
aVW
p22
aI28
aI3
aI5
aF0.6
aI0
aI0
aF0.0
aI2
aI2
aF1.0
aI4
aI11
aI15
aI0
aI1
aI2
aI5
aI2
aI8
aI0
aa(lp23
V0020700068
p24
aVNOV 09, 2007
p25
aVATL @ BOS
p26
aVL
p27
aI35
aI5
aI12
aF0.417
aI0
aI0
aF0.0
aI6
aI8
aF0.75
aI4
aI3
aI7
aI1
aI2
aI1
aI2
aI1
aI16
aI-13
aa(lp28
V0020700086
p29
aVNOV 11, 2007
p30
aVATL vs. WAS
p31
aVL
p32
aI35
aI3
aI5
aF0.6
aI0
aI0
aF0.0
aI3
aI4
aF0.75
aI4
aI6
aI10
aI1
aI0
aI2
aI3
aI4
aI9
aI-13
aa(lp33
V0020700106
p34
aVNOV 14, 2007
p35
aVATL vs. CHA
p36
aVW
p37
aI34
aI5
aI7
aF0.714
aI0
aI0
aF0.0
aI3
aI4
aF0.75
aI4
aI9
aI13
aI3
aI1
aI1
aI4
aI2
aI13
aI1
aa(lp38
V0020700123
p39
aVNOV 16, 2007
p40
aVATL vs. SEA
p41
aVL
p42
aI53
aI2
aI8
aF0.25
aI0
aI0
aF0.0
aI3
aI4
aF0.75
aI2
aI12
aI14
aI2
aI1
aI5
aI4
aI5
aI7
aI13
aa(lp43
V0020700136
p44
aVNOV 17, 2007
p45
aVATL @ MIL
p46
aVL
p47
aI28
aI4
aI5
aF0.8
aI0
aI0
aF0.0
aI0
aI2
aF0.0
aI1
aI7
aI8
aI0
aI0
aI2
aI1
aI2
aI8
aI-3
aa(lp48
V0020700150
p49
aVNOV 20, 2007
p50
aVATL vs. SAS
p51
aVL
p52
aI29
aI5
aI9
aF0.556
aI0
aI0
aF0.0
aI1
aI2
aF0.5
aI2
aI6
aI8
aI1
aI0
aI1
aI1
aI4
aI11
aI5
aa(lp53
V0020700159
p54
aVNOV 21, 2007
p55
aVATL @ MIA
p56
aVW
p57
aI27
aI3
aI10
aF0.3
aI0
aI0
aF0.0
aI0
aI0
aF0.0
aI5
aI3
aI8
aI2
aI2
aI0
aI0
aI4
aI6
aI-1
aa(lp58
V0020700188
p59
aVNOV 24, 2007
p60
aVATL @ MIN
p61
aVW
p62
aI30
aI3
aI4
aF0.75
aI0
aI0
aF0.0
aI0
aI0
aF0.0
aI4
aI3
aI7
aI2
aI0
aI0
aI0
aI4
aI6
aI0
aa(lp63
V0020700208
p64
aVNOV 27, 2007
p65
aVATL @ CHI
p66
aVL
p67
aI34
aI4
aI7
aF0.571
aI0
aI0
aF0.0
aI0
aI1
aF0.0
aI4
aI10
aI14
aI0
aI1
aI1
aI1
aI3
aI8
aI0
aa(lp68
V0020700213
p69
aVNOV 28, 2007
p70
aVATL vs. MIL
p71
aVW
p72
aI26
aI6
aI10
aF0.6
aI0
aI0
aF0.0
aI0
aI2
aF0.0
aI1
aI5
aI6
aI1
aI2
aI0
aI2
aI3
aI12
aI-10
aa(lp73
V0020700227
p74
aVNOV 30, 2007
p75
aVATL vs. NOH
p76
aVL
p77
aI33
aI3
aI4
aF0.75
aI0
aI0
aF0.0
aI3
aI6
aF0.5
aI1
aI14
aI15
aI1
aI2
aI1
aI1
aI2
aI9
aI-8
aa(lp78
V0020700251
p79
aVDEC 03, 2007
p80
aVATL @ PHI
p81
aVW
p82
aI35
aI6
aI9
aF0.667
aI0
aI1
aF0.0
aI0
aI0
aF0.0
aI4
aI9
aI13
aI1
aI0
aI0
aI0
aI4
aI12
aI3
aa(lp83
V0020700256
p84
aVDEC 04, 2007
p85
aVATL vs. DET
p86
aVL
p87
aI38
aI3
aI9
aF0.333
aI0
aI0
aF0.0
aI2
aI2
aF1.0
aI2
aI8
aI10
aI2
aI0
aI0
aI3
aI4
aI8
aI-22
aa(lp88
V0020700273
p89
aVDEC 06, 2007
p90
aVATL vs. MIN
p91
aVW
p92
aI35
aI2
aI5
aF0.4
aI0
aI0
aF0.0
aI4
aI4
aF1.0
aI3
aI12
aI15
aI0
aI1
aI2
aI2
aI4
aI8
aI22
aa(lp93
V0020700288
p94
aVDEC 08, 2007
p95
aVATL vs. MEM
p96
aVW
p97
aI31
aI2
aI9
aF0.222
aI0
aI0
aF0.0
aI4
aI4
aF1.0
aI4
aI10
aI14
aI0
aI1
aI1
aI2
aI4
aI8
aI21
aa(lp98
V0020700302
p99
aVDEC 10, 2007
p100
aVATL @ ORL
p101
aVW
p102
aI8
aI3
aI5
aF0.6
aI0
aI0
aF0.0
aI1
aI1
aF1.0
aI0
aI1
aI1
aI0
aI0
aI0
aI0
aI4
aI7
aI9
aa(lp103
V0020700307
p104
aVDEC 11, 2007
p105
aVATL vs. TOR
p106
aVL
p107
aI41
aI4
aI10
aF0.4
aI0
aI0
aF0.0
aI2
aI2
aF1.0
aI5
aI5
aI10
aI2
aI0
aI2
aI2
aI3
aI10
aI-16
aa(lp108
V0020700340
p109
aVDEC 15, 2007
p110
aVATL vs. CHA
p111
aVW
p112
aI30
aI3
aI7
aF0.429
aI0
aI0
aF0.0
aI0
aI0
aF0.0
aI1
aI3
aI4
aI1
aI1
aI1
aI3
aI5
aI6
aI-8
aa(lp113
V0020700354
p114
aVDEC 17, 2007
p115
aVATL vs. UTA
p116
aVW
p117
aI28
aI8
aI11
aF0.727
aI0
aI0
aF0.0
aI1
aI4
aF0.25
aI3
aI4
aI7
aI2
aI1
aI0
aI3
aI5
aI17
aI2
aa(lp118
V0020700367
p119
aVDEC 19, 2007
p120
aVATL vs. MIA
p121
aVW
p122
aI17
aI1
aI2
aF0.5
aI0
aI0
aF0.0
aI3
aI4
aF0.75
aI1
aI5
aI6
aI1
aI0
aI0
aI2
aI5
aI5
aI5
aa(lp123
V0020700383
p124
aVDEC 21, 2007
p125
aVATL @ WAS
p126
aVW
p127
aI31
aI6
aI9
aF0.667
aI0
aI0
aF0.0
aI1
aI2
aF0.5
aI3
aI4
aI7
aI2
aI1
aI0
aI2
aI3
aI13
aI14
aa(lp128
V0020700410
p129
aVDEC 26, 2007
p130
aVATL vs. IND
p131
aVW
p132
aI30
aI5
aI13
aF0.385
aI0
aI0
aF0.0
aI2
aI2
aF1.0
aI3
aI4
aI7
aI1
aI1
aI3
aI2
aI4
aI12
aI3
aa(lp133
V0020700434
p134
aVDEC 29, 2007
p135
aVATL @ DAL
p136
aVL
p137
aI32
aI4
aI9
aF0.444
aI0
aI0
aF0.0
aI3
aI4
aF0.75
aI0
aI10
aI10
aI0
aI2
aI1
aI1
aI3
aI11
aI-12
aa(lp138
V0020700460
p139
aVJAN 02, 2008
p140
aVATL @ CLE
p141
aVL
p142
aI41
aI4
aI9
aF0.444
aI0
aI0
aF0.0
aI0
aI2
aF0.0
aI4
aI5
aI9
aI3
aI3
aI1
aI0
aI4
aI8
aI-5
aa(lp143
V0020700474
p144
aVJAN 04, 2008
p145
aVATL @ IND
p146
aVL
p147
aI15
aI1
aI4
aF0.25
aI0
aI0
aF0.0
aI0
aI0
aF0.0
aI1
aI3
aI4
aI0
aI1
aI0
aI3
aI4
aI2
aI-16
aa(lp148
V0020700484
p149
aVJAN 05, 2008
p150
aVATL vs. NJN
p151
aVL
p152
aI23
aI3
aI5
aF0.6
aI0
aI0
aF0.0
aI1
aI1
aF1.0
aI2
aI6
aI8
aI2
aI0
aI2
aI2
aI5
aI7
aI-2
aa(lp153
V0020700510
p154
aVJAN 09, 2008
p155
aVATL vs. CLE
p156
aVW
p157
aI33
aI5
aI10
aF0.5
aI0
aI0
aF0.0
aI0
aI0
aF0.0
aI4
aI11
aI15
aI1
aI0
aI2
aI2
aI5
aI10
aI9
aa(lp158
V0020700526
p159
aVJAN 11, 2008
p160
aVATL vs. WAS
p161
aVL
p162
aI43
aI4
aI7
aF0.571
aI0
aI0
aF0.0
aI0
aI0
aF0.0
aI6
aI13
aI19
aI2
aI1
aI0
aI2
aI3
aI8
aI7
aa(lp163
V0020700542
p164
aVJAN 13, 2008
p165
aVATL vs. CHI
p166
aVW
p167
aI21
aI3
aI4
aF0.75
aI0
aI0
aF0.0
aI2
aI4
aF0.5
aI2
aI7
aI9
aI0
aI0
aI0
aI1
aI5
aI8
aI13
aa(lp168
V0020700554
p169
aVJAN 15, 2008
p170
aVATL vs. DEN
p171
aVW
p172
aI32
aI3
aI11
aF0.273
aI0
aI1
aF0.0
aI6
aI7
aF0.857
aI2
aI6
aI8
aI3
aI1
aI2
aI0
aI2
aI12
aI7
aa(lp173
V0020700568
p174
aVJAN 16, 2008
p175
aVATL @ MIL
p176
aVL
p177
aI30
aI2
aI7
aF0.286
aI0
aI0
aF0.0
aI2
aI2
aF1.0
aI2
aI5
aI7
aI2
aI0
aI2
aI2
aI5
aI6
aI-3
aa(lp178
V0020700573
p179
aVJAN 18, 2008
p180
aVATL @ TOR
p181
aVL
p182
aI38
aI4
aI11
aF0.364
aI0
aI0
aF0.0
aI0
aI1
aF0.0
aI2
aI7
aI9
aI4
aI0
aI2
aI2
aI3
aI8
aI-6
aa(lp183
V0020700599
p184
aVJAN 21, 2008
p185
aVATL vs. POR
p186
aVL
p187
aI39
aI2
aI7
aF0.286
aI0
aI0
aF0.0
aI3
aI4
aF0.75
aI1
aI10
aI11
aI2
aI0
aI1
aI1
aI3
aI7
aI4
aa(lp188
V0020700619
p189
aVJAN 23, 2008
p190
aVATL @ DEN
p191
aVL
p192
aI29
aI6
aI8
aF0.75
aI0
aI0
aF0.0
aI2
aI5
aF0.4
aI5
aI6
aI11
aI2
aI5
aI1
aI0
aI4
aI14
aI7
aa(lp193
V0020700637
p194
aVJAN 25, 2008
p195
aVATL @ SEA
p196
aVW
p197
aI38
aI4
aI8
aF0.5
aI0
aI0
aF0.0
aI2
aI4
aF0.5
aI2
aI14
aI16
aI2
aI1
aI1
aI2
aI3
aI10
aI12
aa(lp198
V0020700646
p199
aVJAN 27, 2008
p200
aVATL @ POR
p201
aVL
p202
aI36
aI3
aI5
aF0.6
aI0
aI0
aF0.0
aI3
aI6
aF0.5
aI4
aI8
aI12
aI1
aI0
aI0
aI1
aI2
aI9
aI6
aa(lp203
V0020700662
p204
aVJAN 29, 2008
p205
aVATL @ PHX
p206
aVL
p207
aI20
aI2
aI7
aF0.286
aI0
aI0
aF0.0
aI1
aI1
aF1.0
aI0
aI3
aI3
aI0
aI2
aI1
aI3
aI5
aI5
aI-25
aa(lp208
V0020700674
p209
aVJAN 30, 2008
p210
aVATL @ LAC
p211
aVL
p212
aI34
aI5
aI12
aF0.417
aI0
aI1
aF0.0
aI4
aI5
aF0.8
aI3
aI7
aI10
aI0
aI1
aI0
aI1
aI3
aI14
aI6
aa(lp213
V0020700688
p214
aVFEB 02, 2008
p215
aVATL vs. NJN
p216
aVW
p217
aI32
aI6
aI10
aF0.6
aI0
aI0
aF0.0
aI2
aI2
aF1.0
aI3
aI4
aI7
aI0
aI0
aI0
aI2
aI3
aI14
aI6
aa(lp218
V0020700698
p219
aVFEB 04, 2008
p220
aVATL vs. PHI
p221
aVW
p222
aI27
aI3
aI11
aF0.273
aI0
aI1
aF0.0
aI0
aI0
aF0.0
aI4
aI4
aI8
aI0
aI0
aI2
aI2
aI5
aI6
aI-17
aa(lp223
V0020700713
p224
aVFEB 06, 2008
p225
aVATL vs. LAL
p226
aVW
p227
aI39
aI6
aI13
aF0.462
aI0
aI0
aF0.0
aI3
aI3
aF1.0
aI7
aI13
aI20
aI1
aI1
aI0
aI1
aI1
aI15
aI-1
aa(lp228
V0020700730
p229
aVFEB 08, 2008
p230
aVATL vs. CLE
p231
aVL
p232
aI25
aI4
aI10
aF0.4
aI0
aI0
aF0.0
aI1
aI2
aF0.5
aI4
aI3
aI7
aI0
aI0
aI0
aI0
aI2
aI9
aI-4
aa(lp233
V0020700741
p234
aVFEB 09, 2008
p235
aVATL @ HOU
p236
aVL
p237
aI27
aI4
aI9
aF0.444
aI0
aI0
aF0.0
aI0
aI0
aF0.0
aI4
aI4
aI8
aI2
aI1
aI0
aI1
aI2
aI8
aI-22
aa(lp238
V0020700758
p239
aVFEB 12, 2008
p240
aVATL vs. DET
p241
aVL
p242
aI36
aI3
aI9
aF0.333
aI0
aI0
aF0.0
aI6
aI7
aF0.857
aI7
aI9
aI16
aI1
aI0
aI1
aI2
aI5
aI12
aI0
aa(lp243
V0020700766
p244
aVFEB 13, 2008
p245
aVATL @ CHA
p246
aVL
p247
aI33
aI6
aI11
aF0.545
aI0
aI0
aF0.0
aI0
aI0
aF0.0
aI8
aI6
aI14
aI0
aI0
aI3
aI3
aI5
aI12
aI-13
aa(lp248
V0020700789
p249
aVFEB 19, 2008
p250
aVATL @ LAL
p251
aVL
p252
aI22
aI2
aI4
aF0.5
aI0
aI0
aF0.0
aI0
aI0
aF0.0
aI0
aI5
aI5
aI2
aI1
aI0
aI5
aI3
aI4
aI-11
aa(lp253
V0020700797
p254
aVFEB 20, 2008
p255
aVATL @ SAC
p256
aVL
p257
aI43
aI5
aI11
aF0.455
aI0
aI0
aF0.0
aI2
aI2
aF1.0
aI3
aI9
aI12
aI3
aI1
aI3
aI1
aI6
aI12
aI-13
aa(lp258
V0020700814
p259
aVFEB 22, 2008
p260
aVATL @ GSW
p261
aVW
p262
aI18
aI4
aI9
aF0.444
aI0
aI0
aF0.0
aI0
aI0
aF0.0
aI2
aI2
aI4
aI1
aI1
aI0
aI2
aI4
aI8
aI11
aa(lp263
V0020700821
p264
aVFEB 23, 2008
p265
aVATL @ UTA
p266
aVL
p267
aI38
aI2
aI7
aF0.286
aI0
aI0
aF0.0
aI0
aI0
aF0.0
aI2
aI7
aI9
aI1
aI0
aI1
aI2
aI2
aI4
aI6
aa(lp268
V0020700834
p269
aVFEB 25, 2008
p270
aVATL @ SAS
p271
aVL
p272
aI29
aI5
aI11
aF0.455
aI0
aI0
aF0.0
aI2
aI2
aF1.0
aI6
aI7
aI13
aI0
aI2
aI0
aI1
aI1
aI12
aI-15
aa(lp273
V0020700847
p274
aVFEB 27, 2008
p275
aVATL vs. SAC
p276
aVW
p277
aI41
aI6
aI8
aF0.75
aI0
aI1
aF0.0
aI4
aI4
aF1.0
aI5
aI9
aI14
aI4
aI1
aI0
aI2
aI5
aI16
aI-6
aa(lp278
V0020700860
p279
aVFEB 29, 2008
p280
aVATL vs. NYK
p281
aVW
p282
aI37
aI8
aI14
aF0.571
aI0
aI0
aF0.0
aI4
aI4
aF1.0
aI4
aI7
aI11
aI1
aI1
aI1
aI1
aI5
aI20
aI5
aa(lp283
V0020700877
p284
aVMAR 02, 2008
p285
aVATL @ BOS
p286
aVL
p287
aI38
aI5
aI9
aF0.556
aI0
aI0
aF0.0
aI4
aI6
aF0.667
aI3
aI8
aI11
aI0
aI1
aI2
aI0
aI3
aI14
aI-9
aa(lp288
V0020700889
p289
aVMAR 04, 2008
p290
aVATL vs. GSW
p291
aVL
p292
aI32
aI6
aI6
aF1.0
aI0
aI0
aF0.0
aI2
aI2
aF1.0
aI1
aI7
aI8
aI3
aI2
aI1
aI0
aI2
aI14
aI-8
aa(lp293
V0020700904
p294
aVMAR 05, 2008
p295
aVATL @ NOH
p296
aVL
p297
aI40
aI3
aI8
aF0.375
aI0
aI0
aF0.0
aI2
aI2
aF1.0
aI3
aI8
aI11
aI4
aI0
aI1
aI2
aI4
aI8
aI-11
aa(lp298
V0020700914
p299
aVMAR 07, 2008
p300
aVATL @ CHA
p301
aVL
p302
aI31
aI8
aI11
aF0.727
aI0
aI0
aF0.0
aI2
aI2
aF1.0
aI6
aI5
aI11
aI1
aI0
aI0
aI2
aI5
aI18
aI-12
aa(lp303
V0020700926
p304
aVMAR 08, 2008
p305
aVATL vs. MIA
p306
aVW
p307
aI28
aI3
aI7
aF0.429
aI0
aI0
aF0.0
aI3
aI4
aF0.75
aI1
aI6
aI7
aI2
aI0
aI1
aI0
aI2
aI9
aI1
aa(lp308
V0020700940
p309
aVMAR 10, 2008
p310
aVATL @ ORL
p311
aVL
p312
aI18
aI4
aI10
aF0.4
aI0
aI0
aF0.0
aI1
aI2
aF0.5
aI2
aI1
aI3
aI1
aI0
aI0
aI2
aI3
aI9
aI0
aa(lp313
V0020700952
p314
aVMAR 12, 2008
p315
aVATL vs. HOU
p316
aVL
p317
aI38
aI4
aI8
aF0.5
aI0
aI0
aF0.0
aI3
aI4
aF0.75
aI1
aI8
aI9
aI4
aI1
aI2
aI0
aI1
aI11
aI1
aa(lp318
V0020700967
p319
aVMAR 14, 2008
p320
aVATL vs. LAC
p321
aVW
p322
aI17
aI3
aI5
aF0.6
aI0
aI0
aF0.0
aI0
aI0
aF0.0
aI0
aI2
aI2
aI1
aI0
aI0
aI1
aI3
aI6
aI10
aa(lp323
V0020700985
p324
aVMAR 16, 2008
p325
aVATL @ NYK
p326
aVW
p327
aI30
aI3
aI6
aF0.5
aI0
aI0
aF0.0
aI2
aI2
aF1.0
aI3
aI7
aI10
aI1
aI0
aI0
aI3
aI3
aI8
aI11
aa(lp328
V0020700991
p329
aVMAR 17, 2008
p330
aVATL @ WAS
p331
aVW
p332
aI38
aI6
aI9
aF0.667
aI0
aI0
aF0.0
aI0
aI0
aF0.0
aI6
aI9
aI15
aI6
aI1
aI2
aI3
aI2
aI12
aI7
aa(lp333
V0020701010
p334
aVMAR 19, 2008
p335
aVATL @ NJN
p336
aVL
p337
aI40
aI9
aI11
aF0.818
aI0
aI0
aF0.0
aI2
aI2
aF1.0
aI6
aI9
aI15
aI6
aI0
aI1
aI0
aI3
aI20
aI-7
aa(lp338
V0020701031
p339
aVMAR 22, 2008
p340
aVATL vs. ORL
p341
aVW
p342
aI35
aI4
aI7
aF0.571
aI0
aI0
aF0.0
aI3
aI3
aF1.0
aI5
aI5
aI10
aI3
aI1
aI1
aI2
aI3
aI11
aI2
aa(lp343
V0020701054
p344
aVMAR 25, 2008
p345
aVATL @ CHI
p346
aVL
p347
aI32
aI1
aI5
aF0.2
aI0
aI0
aF0.0
aI1
aI2
aF0.5
aI4
aI9
aI13
aI1
aI0
aI2
aI4
aI1
aI3
aI-4
aa(lp348
V0020701061
p349
aVMAR 26, 2008
p350
aVATL vs. MIL
p351
aVW
p352
aI18
aI2
aI4
aF0.5
aI0
aI0
aF0.0
aI3
aI5
aF0.6
aI1
aI0
aI1
aI1
aI0
aI0
aI2
aI4
aI7
aI-1
aa(lp353
V0020701077
p354
aVMAR 28, 2008
p355
aVATL vs. CHI
p356
aVW
p357
aI24
aI4
aI7
aF0.571
aI0
aI0
aF0.0
aI8
aI8
aF1.0
aI1
aI2
aI3
aI0
aI0
aI2
aI2
aI5
aI16
aI8
aa(lp358
V0020701092
p359
aVMAR 30, 2008
p360
aVATL vs. NYK
p361
aVW
p362
aI38
aI9
aI15
aF0.6
aI0
aI0
aF0.0
aI0
aI1
aF0.0
aI4
aI9
aI13
aI3
aI2
aI0
aI2
aI2
aI18
aI3
aa(lp363
V0020701101
p364
aVMAR 31, 2008
p365
aVATL @ MEM
p366
aVW
p367
aI31
aI6
aI13
aF0.462
aI0
aI0
aF0.0
aI7
aI7
aF1.0
aI1
aI5
aI6
aI1
aI0
aI0
aI1
aI3
aI19
aI29
aa(lp368
V0020701115
p369
aVAPR 02, 2008
p370
aVATL vs. TOR
p371
aVW
p372
aI35
aI6
aI11
aF0.545
aI0
aI0
aF0.0
aI2
aI3
aF0.667
aI2
aI10
aI12
aI0
aI0
aI0
aI2
aI1
aI14
aI1
aa(lp373
V0020701127
p374
aVAPR 04, 2008
p375
aVATL vs. PHI
p376
aVL
p377
aI32
aI5
aI8
aF0.625
aI0
aI0
aF0.0
aI0
aI0
aF0.0
aI3
aI4
aI7
aI3
aI0
aI2
aI0
aI2
aI10
aI-3
aa(lp378
V0020701138
p379
aVAPR 05, 2008
p380
aVATL @ PHI
p381
aVW
p382
aI34
aI5
aI8
aF0.625
aI0
aI0
aF0.0
aI0
aI0
aF0.0
aI5
aI7
aI12
aI0
aI0
aI0
aI2
aI2
aI10
aI9
aa(lp383
V0020701154
p384
aVAPR 08, 2008
p385
aVATL @ IND
p386
aVL
p387
aI19
aI2
aI7
aF0.286
aI0
aI0
aF0.0
aI0
aI0
aF0.0
aI3
aI2
aI5
aI2
aI1
aI0
aI0
aI5
aI4
aI-12
aa(lp388
V0020701181
p389
aVAPR 11, 2008
p390
aVATL @ NYK
p391
aVW
p392
aI33
aI6
aI10
aF0.6
aI0
aI0
aF0.0
aI7
aI9
aF0.778
aI2
aI9
aI11
aI1
aI2
aI2
aI2
aI4
aI19
aI11
aa(lp393
V0020701189
p394
aVAPR 12, 2008
p395
aVATL vs. BOS
p396
aVL
p397
aI44
aI8
aI12
aF0.667
aI0
aI0
aF0.0
aI1
aI2
aF0.5
aI6
aI5
aI11
aI2
aI0
aI0
aI3
aI2
aI17
aI-17
aa(lp398
V0020701211
p399
aVAPR 15, 2008
p400
aVATL vs. ORL
p401
aVL
p402
aI26
aI3
aI11
aF0.273
aI0
aI0
aF0.0
aI2
aI2
aF1.0
aI4
aI7
aI11
aI6
aI0
aI0
aI0
aI1
aI8
aI-21
aa(lp403
V0020701222
p404
aVAPR 16, 2008
p405
aVATL @ MIA
p406
aVL
p407
aI32
aI3
aI8
aF0.375
aI0
aI0
aF0.0
aI2
aI2
aF1.0
aI5
aI7
aI12
aI2
aI0
aI2
aI1
aI3
aI8
aI-20
aasS'name'
p408
VAl Horford
p409
sS'weight'
p410
V245
p411
sS'age'
p412
I21
sS'experience'
p413
I0
sS'height'
p414
V6-10
p415
sS'position'
p416
VCenter-Forward
p417
s.