(dp0
S'stats'
p1
(lp2
(lp3
V0020700414
p4
aVDEC 26, 2007
p5
aVSAS vs. CHI
p6
aVW
p7
aI2
aI0
aI1
aF0.0
aI0
aI0
aF0.0
aI0
aI0
aF0.0
aI0
aI0
aI0
aI0
aI0
aI1
aI0
aI0
aI0
aI-3
aa(lp8
V0020701089
p9
aVMAR 29, 2008
p10
aVLAC vs. MEM
p11
aVW
p12
aI1
aI0
aI0
aF0.0
aI0
aI0
aF0.0
aI0
aI0
aF0.0
aI0
aI1
aI1
aI1
aI0
aI0
aI0
aI1
aI0
aI-4
aa(lp13
V0020701104
p14
aVMAR 31, 2008
p15
aVLAC vs. DAL
p16
aVL
p17
aI0
aI0
aI0
aF0.0
aI0
aI0
aF0.0
aI0
aI0
aF0.0
aI0
aI0
aI0
aI0
aI0
aI0
aI0
aI0
aI0
aI0
aa(lp18
V0020701121
p19
aVAPR 02, 2008
p20
aVLAC @ SEA
p21
aVW
p22
aI7
aI0
aI2
aF0.0
aI0
aI0
aF0.0
aI0
aI0
aF0.0
aI0
aI2
aI2
aI0
aI0
aI0
aI0
aI0
aI0
aI-2
aa(lp23
V0020701124
p24
aVAPR 03, 2008
p25
aVLAC @ SAC
p26
aVL
p27
aI3
aI2
aI2
aF1.0
aI0
aI0
aF0.0
aI0
aI0
aF0.0
aI0
aI1
aI1
aI0
aI1
aI0
aI0
aI0
aI4
aI3
aa(lp28
V0020701152
p29
aVAPR 06, 2008
p30
aVLAC vs. HOU
p31
aVL
p32
aI3
aI0
aI3
aF0.0
aI0
aI0
aF0.0
aI0
aI0
aF0.0
aI0
aI0
aI0
aI0
aI0
aI0
aI0
aI0
aI0
aI-6
aa(lp33
V0020701162
p34
aVAPR 08, 2008
p35
aVLAC vs. DEN
p36
aVL
p37
aI5
aI2
aI5
aF0.4
aI0
aI0
aF0.0
aI0
aI0
aF0.0
aI3
aI1
aI4
aI0
aI0
aI0
aI0
aI1
aI4
aI10
aa(lp38
V0020701175
p39
aVAPR 10, 2008
p40
aVLAC vs. LAL
p41
aVL
p42
aI8
aI0
aI4
aF0.0
aI0
aI0
aF0.0
aI0
aI0
aF0.0
aI1
aI0
aI1
aI1
aI0
aI0
aI0
aI0
aI0
aI-6
aa(lp43
V0020701196
p44
aVAPR 12, 2008
p45
aVLAC @ GSW
p46
aVL
p47
aI0
aI0
aI0
aF0.0
aI0
aI0
aF0.0
aI0
aI0
aF0.0
aI0
aI0
aI0
aI0
aI0
aI0
aI0
aI1
aI0
aI1
aa(lp48
V0020701214
p49
aVAPR 15, 2008
p50
aVLAC @ NOH
p51
aVL
p52
aI4
aI1
aI1
aF1.0
aI0
aI0
aF0.0
aI0
aI0
aF0.0
aI0
aI3
aI3
aI1
aI0
aI0
aI0
aI0
aI2
aI6
aa(lp53
V0020701226
p54
aVAPR 16, 2008
p55
aVLAC @ HOU
p56
aVL
p57
aI3
aI0
aI2
aF0.0
aI0
aI0
aF0.0
aI0
aI0
aF0.0
aI0
aI0
aI0
aI0
aI0
aI0
aI0
aI0
aI0
aI0
aasS'name'
p58
VMarcus Williams
p59
sS'weight'
p60
V207
p61
sS'age'
p62
I21
sS'experience'
p63
I0
sS'height'
p64
V6-7
p65
sS'position'
p66
VGuard
p67
s.