(dp0
S'stats'
p1
(lp2
(lp3
V0020700021
p4
aVNOV 02, 2007
p5
aVBOS vs. WAS
p6
aVW
p7
aI3
aI0
aI0
aF0.0
aI0
aI0
aF0.0
aI0
aI0
aF0.0
aI0
aI0
aI0
aI1
aI0
aI0
aI0
aI1
aI0
aI-1
aa(lp8
V0020700058
p9
aVNOV 07, 2007
p10
aVBOS vs. DEN
p11
aVW
p12
aI9
aI1
aI3
aF0.333
aI0
aI0
aF0.0
aI1
aI1
aF1.0
aI0
aI1
aI1
aI0
aI3
aI0
aI0
aI0
aI3
aI-6
aa(lp13
V0020700068
p14
aVNOV 09, 2007
p15
aVBOS vs. ATL
p16
aVW
p17
aI4
aI0
aI0
aF0.0
aI0
aI0
aF0.0
aI3
aI4
aF0.75
aI0
aI1
aI1
aI1
aI0
aI0
aI0
aI1
aI3
aI5
aa(lp18
V0020700081
p19
aVNOV 10, 2007
p20
aVBOS @ NJN
p21
aVW
p22
aI17
aI2
aI5
aF0.4
aI0
aI0
aF0.0
aI2
aI2
aF1.0
aI6
aI2
aI8
aI2
aI2
aI1
aI1
aI6
aI6
aI16
aa(lp23
V0020700098
p24
aVNOV 13, 2007
p25
aVBOS @ IND
p26
aVW
p27
aI1
aI0
aI0
aF0.0
aI0
aI0
aF0.0
aI0
aI0
aF0.0
aI0
aI0
aI0
aI0
aI0
aI0
aI0
aI0
aI0
aI2
aa(lp28
V0020700108
p29
aVNOV 14, 2007
p30
aVBOS vs. NJN
p31
aVW
p32
aI9
aI0
aI3
aF0.0
aI0
aI0
aF0.0
aI0
aI0
aF0.0
aI1
aI2
aI3
aI0
aI0
aI1
aI1
aI4
aI0
aI11
aa(lp33
V0020700142
p34
aVNOV 18, 2007
p35
aVBOS @ ORL
p36
aVL
p37
aI3
aI0
aI1
aF0.0
aI0
aI0
aF0.0
aI0
aI0
aF0.0
aI1
aI0
aI1
aI0
aI0
aI0
aI0
aI0
aI0
aI-2
aa(lp38
V0020700158
p39
aVNOV 21, 2007
p40
aVBOS vs. GSW
p41
aVW
p42
aI3
aI0
aI2
aF0.0
aI0
aI0
aF0.0
aI2
aI2
aF1.0
aI0
aI0
aI0
aI0
aI0
aI1
aI0
aI0
aI2
aI4
aa(lp43
V0020700204
p44
aVNOV 27, 2007
p45
aVBOS @ CLE
p46
aVL
p47
aI6
aI3
aI3
aF1.0
aI0
aI0
aF0.0
aI2
aI2
aF1.0
aI2
aI0
aI2
aI0
aI0
aI0
aI0
aI0
aI8
aI5
aa(lp48
V0020700221
p49
aVNOV 29, 2007
p50
aVBOS vs. NYK
p51
aVW
p52
aI31
aI4
aI6
aF0.667
aI0
aI0
aF0.0
aI5
aI10
aF0.5
aI4
aI2
aI6
aI1
aI1
aI1
aI2
aI5
aI13
aI20
aa(lp53
V0020700242
p54
aVDEC 02, 2007
p55
aVBOS vs. CLE
p56
aVW
p57
aI21
aI4
aI5
aF0.8
aI0
aI0
aF0.0
aI1
aI1
aF1.0
aI4
aI3
aI7
aI0
aI1
aI1
aI1
aI6
aI9
aI2
aa(lp58
V0020700263
p59
aVDEC 05, 2007
p60
aVBOS @ PHI
p61
aVW
p62
aI15
aI2
aI4
aF0.5
aI0
aI0
aF0.0
aI2
aI2
aF1.0
aI1
aI1
aI2
aI0
aI0
aI0
aI1
aI2
aI6
aI-10
aa(lp63
V0020700280
p64
aVDEC 07, 2007
p65
aVBOS vs. TOR
p66
aVW
p67
aI18
aI2
aI4
aF0.5
aI0
aI0
aF0.0
aI1
aI2
aF0.5
aI2
aI1
aI3
aI0
aI1
aI0
aI4
aI5
aI5
aI14
aa(lp68
V0020700291
p69
aVDEC 08, 2007
p70
aVBOS @ CHI
p71
aVW
p72
aI26
aI3
aI3
aF1.0
aI0
aI0
aF0.0
aI2
aI2
aF1.0
aI3
aI9
aI12
aI0
aI1
aI0
aI1
aI3
aI8
aI13
aa(lp73
V0020700318
p74
aVDEC 12, 2007
p75
aVBOS vs. SAC
p76
aVW
p77
aI27
aI3
aI6
aF0.5
aI0
aI0
aF0.0
aI10
aI10
aF1.0
aI5
aI4
aI9
aI0
aI0
aI0
aI1
aI2
aI16
aI-3
aa(lp78
V0020700330
p79
aVDEC 14, 2007
p80
aVBOS vs. MIL
p81
aVW
p82
aI19
aI0
aI3
aF0.0
aI0
aI0
aF0.0
aI2
aI4
aF0.5
aI3
aI3
aI6
aI0
aI1
aI1
aI0
aI2
aI2
aI-1
aa(lp83
V0020700351
p84
aVDEC 16, 2007
p85
aVBOS @ TOR
p86
aVW
p87
aI17
aI2
aI3
aF0.667
aI0
aI0
aF0.0
aI1
aI4
aF0.25
aI0
aI1
aI1
aI0
aI0
aI1
aI1
aI5
aI5
aI-4
aa(lp88
V0020700369
p89
aVDEC 19, 2007
p90
aVBOS vs. DET
p91
aVL
p92
aI11
aI0
aI2
aF0.0
aI0
aI0
aF0.0
aI0
aI0
aF0.0
aI1
aI3
aI4
aI0
aI0
aI0
aI1
aI2
aI0
aI-5
aa(lp93
V0020700381
p94
aVDEC 21, 2007
p95
aVBOS vs. CHI
p96
aVW
p97
aI18
aI0
aI1
aF0.0
aI0
aI0
aF0.0
aI5
aI6
aF0.833
aI0
aI1
aI1
aI0
aI2
aI3
aI1
aI3
aI5
aI14
aa(lp98
V0020700403
p99
aVDEC 23, 2007
p100
aVBOS vs. ORL
p101
aVW
p102
aI3
aI0
aI1
aF0.0
aI0
aI0
aF0.0
aI0
aI0
aF0.0
aI1
aI0
aI1
aI0
aI0
aI0
aI0
aI2
aI0
aI1
aa(lp103
V0020700441
p104
aVDEC 29, 2007
p105
aVBOS @ UTA
p106
aVW
p107
aI9
aI1
aI3
aF0.333
aI0
aI0
aF0.0
aI1
aI2
aF0.5
aI3
aI2
aI5
aI0
aI0
aI0
aI1
aI0
aI3
aI9
aa(lp108
V0020700448
p109
aVDEC 30, 2007
p110
aVBOS @ LAL
p111
aVW
p112
aI2
aI0
aI1
aF0.0
aI0
aI0
aF0.0
aI0
aI0
aF0.0
aI0
aI0
aI0
aI0
aI0
aI0
aI0
aI0
aI0
aI-2
aa(lp113
V0020700462
p114
aVJAN 02, 2008
p115
aVBOS vs. HOU
p116
aVW
p117
aI2
aI1
aI2
aF0.5
aI0
aI0
aF0.0
aI0
aI0
aF0.0
aI1
aI0
aI1
aI0
aI0
aI0
aI1
aI1
aI2
aI-3
aa(lp118
V0020700475
p119
aVJAN 04, 2008
p120
aVBOS vs. MEM
p121
aVW
p122
aI12
aI2
aI3
aF0.667
aI0
aI0
aF0.0
aI1
aI2
aF0.5
aI2
aI0
aI2
aI0
aI1
aI0
aI0
aI1
aI5
aI-1
aa(lp123
V0020700485
p124
aVJAN 05, 2008
p125
aVBOS @ DET
p126
aVW
p127
aI23
aI8
aI10
aF0.8
aI0
aI0
aF0.0
aI4
aI5
aF0.8
aI3
aI1
aI4
aI0
aI0
aI0
aI0
aI3
aI20
aI17
aa(lp128
V0020700524
p129
aVJAN 11, 2008
p130
aVBOS @ NJN
p131
aVW
p132
aI14
aI3
aI5
aF0.6
aI0
aI0
aF0.0
aI1
aI2
aF0.5
aI2
aI2
aI4
aI0
aI0
aI1
aI2
aI2
aI7
aI10
aa(lp133
V0020700534
p134
aVJAN 12, 2008
p135
aVBOS @ WAS
p136
aVL
p137
aI10
aI0
aI0
aF0.0
aI0
aI0
aF0.0
aI0
aI0
aF0.0
aI1
aI0
aI1
aI0
aI1
aI0
aI0
aI1
aI0
aI-1
aa(lp138
V0020700548
p139
aVJAN 14, 2008
p140
aVBOS vs. WAS
p141
aVL
p142
aI11
aI0
aI0
aF0.0
aI0
aI0
aF0.0
aI1
aI4
aF0.25
aI0
aI0
aI0
aI0
aI0
aI1
aI1
aI2
aI1
aI5
aa(lp143
V0020700566
p144
aVJAN 16, 2008
p145
aVBOS vs. POR
p146
aVW
p147
aI13
aI1
aI3
aF0.333
aI0
aI0
aF0.0
aI1
aI2
aF0.5
aI2
aI2
aI4
aI2
aI0
aI0
aI2
aI2
aI3
aI-6
aa(lp148
V0020700576
p149
aVJAN 18, 2008
p150
aVBOS vs. PHI
p151
aVW
p152
aI9
aI1
aI2
aF0.5
aI0
aI0
aF0.0
aI0
aI0
aF0.0
aI0
aI1
aI1
aI1
aI0
aI0
aI0
aI3
aI2
aI8
aa(lp153
V0020700595
p154
aVJAN 21, 2008
p155
aVBOS @ NYK
p156
aVW
p157
aI12
aI2
aI2
aF1.0
aI0
aI0
aF0.0
aI0
aI0
aF0.0
aI1
aI0
aI1
aI0
aI1
aI0
aI1
aI3
aI4
aI4
aa(lp158
V0020700613
p159
aVJAN 23, 2008
p160
aVBOS vs. TOR
p161
aVL
p162
aI12
aI2
aI3
aF0.667
aI0
aI0
aF0.0
aI4
aI5
aF0.8
aI1
aI1
aI2
aI0
aI0
aI0
aI0
aI2
aI8
aI-1
aa(lp163
V0020700628
p164
aVJAN 25, 2008
p165
aVBOS vs. MIN
p166
aVW
p167
aI20
aI1
aI1
aF1.0
aI0
aI0
aF0.0
aI2
aI2
aF1.0
aI1
aI2
aI3
aI1
aI0
aI0
aI1
aI3
aI4
aI-10
aa(lp168
V0020700659
p169
aVJAN 29, 2008
p170
aVBOS @ MIA
p171
aVW
p172
aI23
aI3
aI5
aF0.6
aI0
aI0
aF0.0
aI1
aI2
aF0.5
aI1
aI2
aI3
aI2
aI0
aI1
aI2
aI6
aI7
aI9
aa(lp173
V0020700708
p174
aVFEB 05, 2008
p175
aVBOS @ CLE
p176
aVL
p177
aI13
aI4
aI5
aF0.8
aI0
aI0
aF0.0
aI1
aI1
aF1.0
aI1
aI0
aI1
aI1
aI0
aI0
aI1
aI3
aI9
aI0
aa(lp178
V0020700715
p179
aVFEB 06, 2008
p180
aVBOS vs. LAC
p181
aVW
p182
aI17
aI2
aI4
aF0.5
aI0
aI0
aF0.0
aI0
aI0
aF0.0
aI0
aI3
aI3
aI0
aI1
aI0
aI1
aI3
aI4
aI11
aa(lp183
V0020700732
p184
aVFEB 08, 2008
p185
aVBOS @ MIN
p186
aVW
p187
aI7
aI1
aI1
aF1.0
aI0
aI0
aF0.0
aI0
aI0
aF0.0
aI1
aI1
aI2
aI0
aI0
aI0
aI0
aI2
aI2
aI-1
aa(lp188
V0020700749
p189
aVFEB 10, 2008
p190
aVBOS vs. SAS
p191
aVW
p192
aI33
aI3
aI6
aF0.5
aI0
aI0
aF0.0
aI3
aI5
aF0.6
aI3
aI5
aI8
aI1
aI3
aI0
aI3
aI3
aI9
aI4
aa(lp193
V0020700759
p194
aVFEB 12, 2008
p195
aVBOS @ IND
p196
aVW
p197
aI17
aI1
aI6
aF0.167
aI0
aI0
aF0.0
aI1
aI2
aF0.5
aI1
aI0
aI1
aI0
aI0
aI0
aI1
aI4
aI3
aI-17
aa(lp198
V0020700769
p199
aVFEB 13, 2008
p200
aVBOS vs. NYK
p201
aVW
p202
aI9
aI1
aI2
aF0.5
aI0
aI0
aF0.0
aI4
aI6
aF0.667
aI1
aI0
aI1
aI1
aI0
aI0
aI1
aI2
aI6
aI7
aa(lp203
V0020700785
p204
aVFEB 19, 2008
p205
aVBOS @ DEN
p206
aVL
p207
aI7
aI0
aI1
aF0.0
aI0
aI0
aF0.0
aI2
aI2
aF1.0
aI1
aI2
aI3
aI1
aI0
aI0
aI1
aI1
aI2
aI5
aa(lp208
V0020700799
p209
aVFEB 20, 2008
p210
aVBOS @ GSW
p211
aVL
p212
aI5
aI1
aI1
aF1.0
aI0
aI0
aF0.0
aI2
aI4
aF0.5
aI1
aI1
aI2
aI0
aI0
aI0
aI0
aI1
aI4
aI4
aa(lp213
V0020700812
p214
aVFEB 22, 2008
p215
aVBOS @ PHX
p216
aVL
p217
aI8
aI1
aI1
aF1.0
aI0
aI0
aF0.0
aI0
aI0
aF0.0
aI0
aI0
aI0
aI0
aI1
aI0
aI1
aI5
aI2
aI-9
aa(lp218
V0020700827
p219
aVFEB 24, 2008
p220
aVBOS @ POR
p221
aVW
p222
aI17
aI0
aI2
aF0.0
aI0
aI0
aF0.0
aI1
aI2
aF0.5
aI2
aI2
aI4
aI1
aI0
aI0
aI2
aI4
aI1
aI2
aa(lp223
V0020700836
p224
aVFEB 25, 2008
p225
aVBOS @ LAC
p226
aVW
p227
aI9
aI0
aI1
aF0.0
aI0
aI0
aF0.0
aI2
aI2
aF1.0
aI0
aI0
aI0
aI0
aI1
aI0
aI0
aI3
aI2
aI5
aa(lp228
V0020700849
p229
aVFEB 27, 2008
p230
aVBOS vs. CLE
p231
aVW
p232
aI24
aI2
aI3
aF0.667
aI0
aI0
aF0.0
aI5
aI7
aF0.714
aI2
aI2
aI4
aI0
aI0
aI0
aI1
aI5
aI9
aI-1
aa(lp233
V0020700859
p234
aVFEB 29, 2008
p235
aVBOS vs. CHA
p236
aVW
p237
aI14
aI3
aI8
aF0.375
aI0
aI0
aF0.0
aI1
aI2
aF0.5
aI2
aI2
aI4
aI0
aI0
aI0
aI0
aI1
aI7
aI0
aa(lp238
V0020700877
p239
aVMAR 02, 2008
p240
aVBOS vs. ATL
p241
aVW
p242
aI16
aI2
aI4
aF0.5
aI0
aI0
aF0.0
aI2
aI2
aF1.0
aI2
aI1
aI3
aI2
aI0
aI0
aI1
aI5
aI6
aI-14
aa(lp243
V0020700899
p244
aVMAR 05, 2008
p245
aVBOS vs. DET
p246
aVW
p247
aI20
aI3
aI5
aF0.6
aI0
aI0
aF0.0
aI1
aI2
aF0.5
aI2
aI2
aI4
aI1
aI1
aI0
aI1
aI2
aI7
aI-10
aa(lp248
V0020700917
p249
aVMAR 07, 2008
p250
aVBOS vs. CHI
p251
aVW
p252
aI11
aI2
aI2
aF1.0
aI0
aI0
aF0.0
aI0
aI2
aF0.0
aI0
aI0
aI0
aI1
aI0
aI1
aI1
aI2
aI4
aI2
aa(lp253
V0020700929
p254
aVMAR 08, 2008
p255
aVBOS @ MEM
p256
aVW
p257
aI16
aI2
aI3
aF0.667
aI0
aI0
aF0.0
aI0
aI0
aF0.0
aI1
aI2
aI3
aI1
aI0
aI0
aI2
aI4
aI4
aI8
aa(lp258
V0020700939
p259
aVMAR 10, 2008
p260
aVBOS @ PHI
p261
aVW
p262
aI7
aI1
aI3
aF0.333
aI0
aI0
aF0.0
aI0
aI2
aF0.0
aI2
aI0
aI2
aI0
aI0
aI0
aI1
aI0
aI2
aI-3
aa(lp263
V0020700954
p264
aVMAR 12, 2008
p265
aVBOS vs. SEA
p266
aVW
p267
aI17
aI1
aI3
aF0.333
aI0
aI0
aF0.0
aI4
aI4
aF1.0
aI1
aI0
aI1
aI1
aI0
aI1
aI1
aI1
aI6
aI7
aa(lp268
V0020700966
p269
aVMAR 14, 2008
p270
aVBOS vs. UTA
p271
aVL
p272
aI15
aI1
aI2
aF0.5
aI0
aI0
aF0.0
aI0
aI0
aF0.0
aI0
aI0
aI0
aI0
aI0
aI0
aI2
aI3
aI2
aI-5
aa(lp273
V0020700997
p274
aVMAR 17, 2008
p275
aVBOS @ SAS
p276
aVW
p277
aI6
aI0
aI0
aF0.0
aI0
aI0
aF0.0
aI0
aI0
aF0.0
aI0
aI3
aI3
aI0
aI0
aI1
aI0
aI1
aI0
aI1
aa(lp278
V0020701002
p279
aVMAR 18, 2008
p280
aVBOS @ HOU
p281
aVW
p282
aI13
aI2
aI4
aF0.5
aI0
aI0
aF0.0
aI0
aI0
aF0.0
aI1
aI0
aI1
aI0
aI0
aI0
aI0
aI1
aI4
aI8
aa(lp283
V0020701044
p284
aVMAR 24, 2008
p285
aVBOS vs. PHI
p286
aVL
p287
aI13
aI1
aI4
aF0.25
aI0
aI0
aF0.0
aI2
aI2
aF1.0
aI1
aI3
aI4
aI1
aI0
aI0
aI0
aI0
aI4
aI-5
aa(lp288
V0020701063
p289
aVMAR 26, 2008
p290
aVBOS vs. PHX
p291
aVW
p292
aI14
aI1
aI5
aF0.2
aI0
aI0
aF0.0
aI0
aI2
aF0.0
aI4
aI2
aI6
aI2
aI0
aI0
aI1
aI3
aI2
aI-1
aa(lp293
V0020701076
p294
aVMAR 28, 2008
p295
aVBOS vs. NOH
p296
aVW
p297
aI7
aI0
aI2
aF0.0
aI0
aI0
aF0.0
aI0
aI0
aF0.0
aI0
aI0
aI0
aI0
aI0
aI0
aI0
aI0
aI0
aI-8
aa(lp298
V0020701093
p299
aVMAR 30, 2008
p300
aVBOS vs. MIA
p301
aVW
p302
aI12
aI2
aI3
aF0.667
aI0
aI0
aF0.0
aI0
aI0
aF0.0
aI2
aI0
aI2
aI1
aI0
aI0
aI1
aI1
aI4
aI-2
aa(lp303
V0020701109
p304
aVAPR 01, 2008
p305
aVBOS @ CHI
p306
aVW
p307
aI5
aI1
aI2
aF0.5
aI0
aI0
aF0.0
aI0
aI1
aF0.0
aI1
aI2
aI3
aI0
aI1
aI0
aI0
aI1
aI2
aI-2
aa(lp308
V0020701116
p309
aVAPR 02, 2008
p310
aVBOS vs. IND
p311
aVW
p312
aI4
aI0
aI0
aF0.0
aI0
aI0
aF0.0
aI2
aI2
aF1.0
aI0
aI0
aI0
aI0
aI0
aI0
aI1
aI1
aI2
aI-2
aa(lp313
V0020701139
p314
aVAPR 05, 2008
p315
aVBOS @ CHA
p316
aVW
p317
aI24
aI4
aI7
aF0.571
aI0
aI0
aF0.0
aI1
aI4
aF0.25
aI2
aI6
aI8
aI0
aI2
aI1
aI1
aI4
aI9
aI8
aa(lp318
V0020701157
p319
aVAPR 08, 2008
p320
aVBOS @ MIL
p321
aVW
p322
aI30
aI1
aI5
aF0.2
aI0
aI0
aF0.0
aI1
aI2
aF0.5
aI1
aI7
aI8
aI0
aI2
aI1
aI7
aI5
aI3
aI-7
aa(lp323
V0020701166
p324
aVAPR 09, 2008
p325
aVBOS @ WAS
p326
aVL
p327
aI5
aI0
aI0
aF0.0
aI0
aI0
aF0.0
aI0
aI0
aF0.0
aI0
aI0
aI0
aI0
aI0
aI0
aI0
aI0
aI0
aI-12
aa(lp328
V0020701180
p329
aVAPR 11, 2008
p330
aVBOS vs. MIL
p331
aVW
p332
aI23
aI3
aI7
aF0.429
aI0
aI0
aF0.0
aI0
aI0
aF0.0
aI1
aI3
aI4
aI0
aI1
aI1
aI3
aI2
aI6
aI0
aa(lp333
V0020701189
p334
aVAPR 12, 2008
p335
aVBOS @ ATL
p336
aVW
p337
aI24
aI4
aI9
aF0.444
aI0
aI0
aF0.0
aI0
aI0
aF0.0
aI2
aI8
aI10
aI0
aI1
aI1
aI1
aI2
aI8
aI13
aa(lp338
V0020701206
p339
aVAPR 14, 2008
p340
aVBOS @ NYK
p341
aVW
p342
aI29
aI3
aI6
aF0.5
aI0
aI0
aF0.0
aI7
aI11
aF0.636
aI4
aI5
aI9
aI1
aI2
aI0
aI0
aI3
aI13
aI-7
aa(lp343
V0020701221
p344
aVAPR 16, 2008
p345
aVBOS vs. NJN
p346
aVW
p347
aI18
aI3
aI9
aF0.333
aI0
aI0
aF0.0
aI2
aI3
aF0.667
aI1
aI4
aI5
aI1
aI0
aI0
aI3
aI4
aI8
aI15
aasS'name'
p348
VGlen Davis
p349
sS'weight'
p350
V289
p351
sS'age'
p352
I21
sS'experience'
p353
I0
sS'height'
p354
V6-9
p355
sS'position'
p356
VForward-Center
p357
s.