(dp0
S'age'
p1
I21
sS'stats'
p2
(lp3
(lp4
V0020700021
p5
aVNOV 02, 2007
p6
aVBOS vs. WAS
p7
aVW
p8
aI3
aI0
aI0
aF0.0
aI0
aI0
aF0.0
aI0
aI0
aF0.0
aI0
aI0
aI0
aI1
aI0
aI0
aI0
aI1
aI0
aI-1
aa(lp9
V0020700058
p10
aVNOV 07, 2007
p11
aVBOS vs. DEN
p12
aVW
p13
aI9
aI1
aI3
aF0.333
aI0
aI0
aF0.0
aI1
aI1
aF1.0
aI0
aI1
aI1
aI0
aI3
aI0
aI0
aI0
aI3
aI-6
aa(lp14
V0020700068
p15
aVNOV 09, 2007
p16
aVBOS vs. ATL
p17
aVW
p18
aI4
aI0
aI0
aF0.0
aI0
aI0
aF0.0
aI3
aI4
aF0.75
aI0
aI1
aI1
aI1
aI0
aI0
aI0
aI1
aI3
aI5
aa(lp19
V0020700081
p20
aVNOV 10, 2007
p21
aVBOS @ NJN
p22
aVW
p23
aI17
aI2
aI5
aF0.4
aI0
aI0
aF0.0
aI2
aI2
aF1.0
aI6
aI2
aI8
aI2
aI2
aI1
aI1
aI6
aI6
aI16
aa(lp24
V0020700098
p25
aVNOV 13, 2007
p26
aVBOS @ IND
p27
aVW
p28
aI1
aI0
aI0
aF0.0
aI0
aI0
aF0.0
aI0
aI0
aF0.0
aI0
aI0
aI0
aI0
aI0
aI0
aI0
aI0
aI0
aI2
aa(lp29
V0020700108
p30
aVNOV 14, 2007
p31
aVBOS vs. NJN
p32
aVW
p33
aI9
aI0
aI3
aF0.0
aI0
aI0
aF0.0
aI0
aI0
aF0.0
aI1
aI2
aI3
aI0
aI0
aI1
aI1
aI4
aI0
aI11
aa(lp34
V0020700142
p35
aVNOV 18, 2007
p36
aVBOS @ ORL
p37
aVL
p38
aI3
aI0
aI1
aF0.0
aI0
aI0
aF0.0
aI0
aI0
aF0.0
aI1
aI0
aI1
aI0
aI0
aI0
aI0
aI0
aI0
aI-2
aa(lp39
V0020700158
p40
aVNOV 21, 2007
p41
aVBOS vs. GSW
p42
aVW
p43
aI3
aI0
aI2
aF0.0
aI0
aI0
aF0.0
aI2
aI2
aF1.0
aI0
aI0
aI0
aI0
aI0
aI1
aI0
aI0
aI2
aI4
aa(lp44
V0020700204
p45
aVNOV 27, 2007
p46
aVBOS @ CLE
p47
aVL
p48
aI6
aI3
aI3
aF1.0
aI0
aI0
aF0.0
aI2
aI2
aF1.0
aI2
aI0
aI2
aI0
aI0
aI0
aI0
aI0
aI8
aI5
aa(lp49
V0020700221
p50
aVNOV 29, 2007
p51
aVBOS vs. NYK
p52
aVW
p53
aI31
aI4
aI6
aF0.667
aI0
aI0
aF0.0
aI5
aI10
aF0.5
aI4
aI2
aI6
aI1
aI1
aI1
aI2
aI5
aI13
aI20
aa(lp54
V0020700242
p55
aVDEC 02, 2007
p56
aVBOS vs. CLE
p57
aVW
p58
aI21
aI4
aI5
aF0.8
aI0
aI0
aF0.0
aI1
aI1
aF1.0
aI4
aI3
aI7
aI0
aI1
aI1
aI1
aI6
aI9
aI2
aa(lp59
V0020700263
p60
aVDEC 05, 2007
p61
aVBOS @ PHI
p62
aVW
p63
aI15
aI2
aI4
aF0.5
aI0
aI0
aF0.0
aI2
aI2
aF1.0
aI1
aI1
aI2
aI0
aI0
aI0
aI1
aI2
aI6
aI-10
aa(lp64
V0020700280
p65
aVDEC 07, 2007
p66
aVBOS vs. TOR
p67
aVW
p68
aI18
aI2
aI4
aF0.5
aI0
aI0
aF0.0
aI1
aI2
aF0.5
aI2
aI1
aI3
aI0
aI1
aI0
aI4
aI5
aI5
aI14
aa(lp69
V0020700291
p70
aVDEC 08, 2007
p71
aVBOS @ CHI
p72
aVW
p73
aI26
aI3
aI3
aF1.0
aI0
aI0
aF0.0
aI2
aI2
aF1.0
aI3
aI9
aI12
aI0
aI1
aI0
aI1
aI3
aI8
aI13
aa(lp74
V0020700318
p75
aVDEC 12, 2007
p76
aVBOS vs. SAC
p77
aVW
p78
aI27
aI3
aI6
aF0.5
aI0
aI0
aF0.0
aI10
aI10
aF1.0
aI5
aI4
aI9
aI0
aI0
aI0
aI1
aI2
aI16
aI-3
aa(lp79
V0020700330
p80
aVDEC 14, 2007
p81
aVBOS vs. MIL
p82
aVW
p83
aI19
aI0
aI3
aF0.0
aI0
aI0
aF0.0
aI2
aI4
aF0.5
aI3
aI3
aI6
aI0
aI1
aI1
aI0
aI2
aI2
aI-1
aa(lp84
V0020700351
p85
aVDEC 16, 2007
p86
aVBOS @ TOR
p87
aVW
p88
aI17
aI2
aI3
aF0.667
aI0
aI0
aF0.0
aI1
aI4
aF0.25
aI0
aI1
aI1
aI0
aI0
aI1
aI1
aI5
aI5
aI-4
aa(lp89
V0020700369
p90
aVDEC 19, 2007
p91
aVBOS vs. DET
p92
aVL
p93
aI11
aI0
aI2
aF0.0
aI0
aI0
aF0.0
aI0
aI0
aF0.0
aI1
aI3
aI4
aI0
aI0
aI0
aI1
aI2
aI0
aI-5
aa(lp94
V0020700381
p95
aVDEC 21, 2007
p96
aVBOS vs. CHI
p97
aVW
p98
aI18
aI0
aI1
aF0.0
aI0
aI0
aF0.0
aI5
aI6
aF0.833
aI0
aI1
aI1
aI0
aI2
aI3
aI1
aI3
aI5
aI14
aa(lp99
V0020700403
p100
aVDEC 23, 2007
p101
aVBOS vs. ORL
p102
aVW
p103
aI3
aI0
aI1
aF0.0
aI0
aI0
aF0.0
aI0
aI0
aF0.0
aI1
aI0
aI1
aI0
aI0
aI0
aI0
aI2
aI0
aI1
aa(lp104
V0020700441
p105
aVDEC 29, 2007
p106
aVBOS @ UTA
p107
aVW
p108
aI9
aI1
aI3
aF0.333
aI0
aI0
aF0.0
aI1
aI2
aF0.5
aI3
aI2
aI5
aI0
aI0
aI0
aI1
aI0
aI3
aI9
aa(lp109
V0020700448
p110
aVDEC 30, 2007
p111
aVBOS @ LAL
p112
aVW
p113
aI2
aI0
aI1
aF0.0
aI0
aI0
aF0.0
aI0
aI0
aF0.0
aI0
aI0
aI0
aI0
aI0
aI0
aI0
aI0
aI0
aI-2
aa(lp114
V0020700462
p115
aVJAN 02, 2008
p116
aVBOS vs. HOU
p117
aVW
p118
aI2
aI1
aI2
aF0.5
aI0
aI0
aF0.0
aI0
aI0
aF0.0
aI1
aI0
aI1
aI0
aI0
aI0
aI1
aI1
aI2
aI-3
aa(lp119
V0020700475
p120
aVJAN 04, 2008
p121
aVBOS vs. MEM
p122
aVW
p123
aI12
aI2
aI3
aF0.667
aI0
aI0
aF0.0
aI1
aI2
aF0.5
aI2
aI0
aI2
aI0
aI1
aI0
aI0
aI1
aI5
aI-1
aa(lp124
V0020700485
p125
aVJAN 05, 2008
p126
aVBOS @ DET
p127
aVW
p128
aI23
aI8
aI10
aF0.8
aI0
aI0
aF0.0
aI4
aI5
aF0.8
aI3
aI1
aI4
aI0
aI0
aI0
aI0
aI3
aI20
aI17
aa(lp129
V0020700524
p130
aVJAN 11, 2008
p131
aVBOS @ NJN
p132
aVW
p133
aI14
aI3
aI5
aF0.6
aI0
aI0
aF0.0
aI1
aI2
aF0.5
aI2
aI2
aI4
aI0
aI0
aI1
aI2
aI2
aI7
aI10
aa(lp134
V0020700534
p135
aVJAN 12, 2008
p136
aVBOS @ WAS
p137
aVL
p138
aI10
aI0
aI0
aF0.0
aI0
aI0
aF0.0
aI0
aI0
aF0.0
aI1
aI0
aI1
aI0
aI1
aI0
aI0
aI1
aI0
aI-1
aa(lp139
V0020700548
p140
aVJAN 14, 2008
p141
aVBOS vs. WAS
p142
aVL
p143
aI11
aI0
aI0
aF0.0
aI0
aI0
aF0.0
aI1
aI4
aF0.25
aI0
aI0
aI0
aI0
aI0
aI1
aI1
aI2
aI1
aI5
aa(lp144
V0020700566
p145
aVJAN 16, 2008
p146
aVBOS vs. POR
p147
aVW
p148
aI13
aI1
aI3
aF0.333
aI0
aI0
aF0.0
aI1
aI2
aF0.5
aI2
aI2
aI4
aI2
aI0
aI0
aI2
aI2
aI3
aI-6
aa(lp149
V0020700576
p150
aVJAN 18, 2008
p151
aVBOS vs. PHI
p152
aVW
p153
aI9
aI1
aI2
aF0.5
aI0
aI0
aF0.0
aI0
aI0
aF0.0
aI0
aI1
aI1
aI1
aI0
aI0
aI0
aI3
aI2
aI8
aa(lp154
V0020700595
p155
aVJAN 21, 2008
p156
aVBOS @ NYK
p157
aVW
p158
aI12
aI2
aI2
aF1.0
aI0
aI0
aF0.0
aI0
aI0
aF0.0
aI1
aI0
aI1
aI0
aI1
aI0
aI1
aI3
aI4
aI4
aa(lp159
V0020700613
p160
aVJAN 23, 2008
p161
aVBOS vs. TOR
p162
aVL
p163
aI12
aI2
aI3
aF0.667
aI0
aI0
aF0.0
aI4
aI5
aF0.8
aI1
aI1
aI2
aI0
aI0
aI0
aI0
aI2
aI8
aI-1
aa(lp164
V0020700628
p165
aVJAN 25, 2008
p166
aVBOS vs. MIN
p167
aVW
p168
aI20
aI1
aI1
aF1.0
aI0
aI0
aF0.0
aI2
aI2
aF1.0
aI1
aI2
aI3
aI1
aI0
aI0
aI1
aI3
aI4
aI-10
aa(lp169
V0020700659
p170
aVJAN 29, 2008
p171
aVBOS @ MIA
p172
aVW
p173
aI23
aI3
aI5
aF0.6
aI0
aI0
aF0.0
aI1
aI2
aF0.5
aI1
aI2
aI3
aI2
aI0
aI1
aI2
aI6
aI7
aI9
aa(lp174
V0020700708
p175
aVFEB 05, 2008
p176
aVBOS @ CLE
p177
aVL
p178
aI13
aI4
aI5
aF0.8
aI0
aI0
aF0.0
aI1
aI1
aF1.0
aI1
aI0
aI1
aI1
aI0
aI0
aI1
aI3
aI9
aI0
aa(lp179
V0020700715
p180
aVFEB 06, 2008
p181
aVBOS vs. LAC
p182
aVW
p183
aI17
aI2
aI4
aF0.5
aI0
aI0
aF0.0
aI0
aI0
aF0.0
aI0
aI3
aI3
aI0
aI1
aI0
aI1
aI3
aI4
aI11
aa(lp184
V0020700732
p185
aVFEB 08, 2008
p186
aVBOS @ MIN
p187
aVW
p188
aI7
aI1
aI1
aF1.0
aI0
aI0
aF0.0
aI0
aI0
aF0.0
aI1
aI1
aI2
aI0
aI0
aI0
aI0
aI2
aI2
aI-1
aa(lp189
V0020700749
p190
aVFEB 10, 2008
p191
aVBOS vs. SAS
p192
aVW
p193
aI33
aI3
aI6
aF0.5
aI0
aI0
aF0.0
aI3
aI5
aF0.6
aI3
aI5
aI8
aI1
aI3
aI0
aI3
aI3
aI9
aI4
aa(lp194
V0020700759
p195
aVFEB 12, 2008
p196
aVBOS @ IND
p197
aVW
p198
aI17
aI1
aI6
aF0.167
aI0
aI0
aF0.0
aI1
aI2
aF0.5
aI1
aI0
aI1
aI0
aI0
aI0
aI1
aI4
aI3
aI-17
aa(lp199
V0020700769
p200
aVFEB 13, 2008
p201
aVBOS vs. NYK
p202
aVW
p203
aI9
aI1
aI2
aF0.5
aI0
aI0
aF0.0
aI4
aI6
aF0.667
aI1
aI0
aI1
aI1
aI0
aI0
aI1
aI2
aI6
aI7
aa(lp204
V0020700785
p205
aVFEB 19, 2008
p206
aVBOS @ DEN
p207
aVL
p208
aI7
aI0
aI1
aF0.0
aI0
aI0
aF0.0
aI2
aI2
aF1.0
aI1
aI2
aI3
aI1
aI0
aI0
aI1
aI1
aI2
aI5
aa(lp209
V0020700799
p210
aVFEB 20, 2008
p211
aVBOS @ GSW
p212
aVL
p213
aI5
aI1
aI1
aF1.0
aI0
aI0
aF0.0
aI2
aI4
aF0.5
aI1
aI1
aI2
aI0
aI0
aI0
aI0
aI1
aI4
aI4
aa(lp214
V0020700812
p215
aVFEB 22, 2008
p216
aVBOS @ PHX
p217
aVL
p218
aI8
aI1
aI1
aF1.0
aI0
aI0
aF0.0
aI0
aI0
aF0.0
aI0
aI0
aI0
aI0
aI1
aI0
aI1
aI5
aI2
aI-9
aa(lp219
V0020700827
p220
aVFEB 24, 2008
p221
aVBOS @ POR
p222
aVW
p223
aI17
aI0
aI2
aF0.0
aI0
aI0
aF0.0
aI1
aI2
aF0.5
aI2
aI2
aI4
aI1
aI0
aI0
aI2
aI4
aI1
aI2
aa(lp224
V0020700836
p225
aVFEB 25, 2008
p226
aVBOS @ LAC
p227
aVW
p228
aI9
aI0
aI1
aF0.0
aI0
aI0
aF0.0
aI2
aI2
aF1.0
aI0
aI0
aI0
aI0
aI1
aI0
aI0
aI3
aI2
aI5
aa(lp229
V0020700849
p230
aVFEB 27, 2008
p231
aVBOS vs. CLE
p232
aVW
p233
aI24
aI2
aI3
aF0.667
aI0
aI0
aF0.0
aI5
aI7
aF0.714
aI2
aI2
aI4
aI0
aI0
aI0
aI1
aI5
aI9
aI-1
aa(lp234
V0020700859
p235
aVFEB 29, 2008
p236
aVBOS vs. CHA
p237
aVW
p238
aI14
aI3
aI8
aF0.375
aI0
aI0
aF0.0
aI1
aI2
aF0.5
aI2
aI2
aI4
aI0
aI0
aI0
aI0
aI1
aI7
aI0
aa(lp239
V0020700877
p240
aVMAR 02, 2008
p241
aVBOS vs. ATL
p242
aVW
p243
aI16
aI2
aI4
aF0.5
aI0
aI0
aF0.0
aI2
aI2
aF1.0
aI2
aI1
aI3
aI2
aI0
aI0
aI1
aI5
aI6
aI-14
aa(lp244
V0020700899
p245
aVMAR 05, 2008
p246
aVBOS vs. DET
p247
aVW
p248
aI20
aI3
aI5
aF0.6
aI0
aI0
aF0.0
aI1
aI2
aF0.5
aI2
aI2
aI4
aI1
aI1
aI0
aI1
aI2
aI7
aI-10
aa(lp249
V0020700917
p250
aVMAR 07, 2008
p251
aVBOS vs. CHI
p252
aVW
p253
aI11
aI2
aI2
aF1.0
aI0
aI0
aF0.0
aI0
aI2
aF0.0
aI0
aI0
aI0
aI1
aI0
aI1
aI1
aI2
aI4
aI2
aa(lp254
V0020700929
p255
aVMAR 08, 2008
p256
aVBOS @ MEM
p257
aVW
p258
aI16
aI2
aI3
aF0.667
aI0
aI0
aF0.0
aI0
aI0
aF0.0
aI1
aI2
aI3
aI1
aI0
aI0
aI2
aI4
aI4
aI8
aa(lp259
V0020700939
p260
aVMAR 10, 2008
p261
aVBOS @ PHI
p262
aVW
p263
aI7
aI1
aI3
aF0.333
aI0
aI0
aF0.0
aI0
aI2
aF0.0
aI2
aI0
aI2
aI0
aI0
aI0
aI1
aI0
aI2
aI-3
aa(lp264
V0020700954
p265
aVMAR 12, 2008
p266
aVBOS vs. SEA
p267
aVW
p268
aI17
aI1
aI3
aF0.333
aI0
aI0
aF0.0
aI4
aI4
aF1.0
aI1
aI0
aI1
aI1
aI0
aI1
aI1
aI1
aI6
aI7
aa(lp269
V0020700966
p270
aVMAR 14, 2008
p271
aVBOS vs. UTA
p272
aVL
p273
aI15
aI1
aI2
aF0.5
aI0
aI0
aF0.0
aI0
aI0
aF0.0
aI0
aI0
aI0
aI0
aI0
aI0
aI2
aI3
aI2
aI-5
aa(lp274
V0020700997
p275
aVMAR 17, 2008
p276
aVBOS @ SAS
p277
aVW
p278
aI6
aI0
aI0
aF0.0
aI0
aI0
aF0.0
aI0
aI0
aF0.0
aI0
aI3
aI3
aI0
aI0
aI1
aI0
aI1
aI0
aI1
aa(lp279
V0020701002
p280
aVMAR 18, 2008
p281
aVBOS @ HOU
p282
aVW
p283
aI13
aI2
aI4
aF0.5
aI0
aI0
aF0.0
aI0
aI0
aF0.0
aI1
aI0
aI1
aI0
aI0
aI0
aI0
aI1
aI4
aI8
aa(lp284
V0020701044
p285
aVMAR 24, 2008
p286
aVBOS vs. PHI
p287
aVL
p288
aI13
aI1
aI4
aF0.25
aI0
aI0
aF0.0
aI2
aI2
aF1.0
aI1
aI3
aI4
aI1
aI0
aI0
aI0
aI0
aI4
aI-5
aa(lp289
V0020701063
p290
aVMAR 26, 2008
p291
aVBOS vs. PHX
p292
aVW
p293
aI14
aI1
aI5
aF0.2
aI0
aI0
aF0.0
aI0
aI2
aF0.0
aI4
aI2
aI6
aI2
aI0
aI0
aI1
aI3
aI2
aI-1
aa(lp294
V0020701076
p295
aVMAR 28, 2008
p296
aVBOS vs. NOH
p297
aVW
p298
aI7
aI0
aI2
aF0.0
aI0
aI0
aF0.0
aI0
aI0
aF0.0
aI0
aI0
aI0
aI0
aI0
aI0
aI0
aI0
aI0
aI-8
aa(lp299
V0020701093
p300
aVMAR 30, 2008
p301
aVBOS vs. MIA
p302
aVW
p303
aI12
aI2
aI3
aF0.667
aI0
aI0
aF0.0
aI0
aI0
aF0.0
aI2
aI0
aI2
aI1
aI0
aI0
aI1
aI1
aI4
aI-2
aa(lp304
V0020701109
p305
aVAPR 01, 2008
p306
aVBOS @ CHI
p307
aVW
p308
aI5
aI1
aI2
aF0.5
aI0
aI0
aF0.0
aI0
aI1
aF0.0
aI1
aI2
aI3
aI0
aI1
aI0
aI0
aI1
aI2
aI-2
aa(lp309
V0020701116
p310
aVAPR 02, 2008
p311
aVBOS vs. IND
p312
aVW
p313
aI4
aI0
aI0
aF0.0
aI0
aI0
aF0.0
aI2
aI2
aF1.0
aI0
aI0
aI0
aI0
aI0
aI0
aI1
aI1
aI2
aI-2
aa(lp314
V0020701139
p315
aVAPR 05, 2008
p316
aVBOS @ CHA
p317
aVW
p318
aI24
aI4
aI7
aF0.571
aI0
aI0
aF0.0
aI1
aI4
aF0.25
aI2
aI6
aI8
aI0
aI2
aI1
aI1
aI4
aI9
aI8
aa(lp319
V0020701157
p320
aVAPR 08, 2008
p321
aVBOS @ MIL
p322
aVW
p323
aI30
aI1
aI5
aF0.2
aI0
aI0
aF0.0
aI1
aI2
aF0.5
aI1
aI7
aI8
aI0
aI2
aI1
aI7
aI5
aI3
aI-7
aa(lp324
V0020701166
p325
aVAPR 09, 2008
p326
aVBOS @ WAS
p327
aVL
p328
aI5
aI0
aI0
aF0.0
aI0
aI0
aF0.0
aI0
aI0
aF0.0
aI0
aI0
aI0
aI0
aI0
aI0
aI0
aI0
aI0
aI-12
aa(lp329
V0020701180
p330
aVAPR 11, 2008
p331
aVBOS vs. MIL
p332
aVW
p333
aI23
aI3
aI7
aF0.429
aI0
aI0
aF0.0
aI0
aI0
aF0.0
aI1
aI3
aI4
aI0
aI1
aI1
aI3
aI2
aI6
aI0
aa(lp334
V0020701189
p335
aVAPR 12, 2008
p336
aVBOS @ ATL
p337
aVW
p338
aI24
aI4
aI9
aF0.444
aI0
aI0
aF0.0
aI0
aI0
aF0.0
aI2
aI8
aI10
aI0
aI1
aI1
aI1
aI2
aI8
aI13
aa(lp339
V0020701206
p340
aVAPR 14, 2008
p341
aVBOS @ NYK
p342
aVW
p343
aI29
aI3
aI6
aF0.5
aI0
aI0
aF0.0
aI7
aI11
aF0.636
aI4
aI5
aI9
aI1
aI2
aI0
aI0
aI3
aI13
aI-7
aa(lp344
V0020701221
p345
aVAPR 16, 2008
p346
aVBOS vs. NJN
p347
aVW
p348
aI18
aI3
aI9
aF0.333
aI0
aI0
aF0.0
aI2
aI3
aF0.667
aI1
aI4
aI5
aI1
aI0
aI0
aI3
aI4
aI8
aI15
aasS'name'
p349
VGlen Davis
p350
sS'experience'
p351
I0
s.