(dp0
S'age'
p1
I23
sS'stats'
p2
(lp3
(lp4
V0020700214
p5
aVNOV 28, 2007
p6
aVCLE @ DET
p7
aVL
p8
aI9
aI1
aI5
aF0.2
aI0
aI2
aF0.0
aI0
aI0
aF0.0
aI0
aI0
aI0
aI0
aI0
aI0
aI1
aI0
aI2
aI-11
aa(lp9
V0020700242
p10
aVDEC 02, 2007
p11
aVCLE @ BOS
p12
aVL
p13
aI4
aI0
aI3
aF0.0
aI0
aI1
aF0.0
aI0
aI0
aF0.0
aI0
aI1
aI1
aI0
aI0
aI0
aI1
aI0
aI0
aI8
aa(lp14
V0020700257
p15
aVDEC 04, 2007
p16
aVCLE vs. NJN
p17
aVL
p18
aI2
aI0
aI0
aF0.0
aI0
aI0
aF0.0
aI0
aI0
aF0.0
aI0
aI0
aI0
aI0
aI0
aI0
aI0
aI0
aI0
aI-4
aa(lp19
V0020700617
p20
aVJAN 23, 2008
p21
aVCHI vs. IND
p22
aVW
p23
aI1
aI0
aI0
aF0.0
aI0
aI0
aF0.0
aI0
aI0
aF0.0
aI0
aI0
aI0
aI0
aI0
aI0
aI0
aI1
aI0
aI-4
aa(lp24
V0020700632
p25
aVJAN 25, 2008
p26
aVCHI vs. CHA
p27
aVL
p28
aI6
aI0
aI2
aF0.0
aI0
aI2
aF0.0
aI0
aI0
aF0.0
aI0
aI2
aI2
aI0
aI0
aI0
aI1
aI0
aI0
aI2
aa(lp29
V0020700660
p30
aVJAN 29, 2008
p31
aVCHI vs. MIN
p32
aVW
p33
aI2
aI0
aI2
aF0.0
aI0
aI0
aF0.0
aI0
aI0
aF0.0
aI0
aI0
aI0
aI0
aI0
aI0
aI0
aI2
aI0
aI-7
aa(lp34
V0020700742
p35
aVFEB 09, 2008
p36
aVCHI @ UTA
p37
aVL
p38
aI1
aI0
aI0
aF0.0
aI0
aI0
aF0.0
aI0
aI0
aF0.0
aI0
aI0
aI0
aI0
aI0
aI0
aI0
aI0
aI0
aI0
aa(lp39
V0020701001
p40
aVMAR 18, 2008
p41
aVCHI vs. NJN
p42
aVW
p43
aI1
aI1
aI1
aF1.0
aI1
aI1
aF1.0
aI0
aI0
aF0.0
aI0
aI0
aI0
aI0
aI0
aI0
aI0
aI0
aI3
aI0
aa(lp44
V0020701016
p45
aVMAR 20, 2008
p46
aVCHI vs. SAS
p47
aVL
p48
aI4
aI1
aI1
aF1.0
aI1
aI1
aF1.0
aI0
aI0
aF0.0
aI0
aI0
aI0
aI0
aI0
aI0
aI0
aI0
aI3
aI2
aa(lp49
V0020701060
p50
aVMAR 26, 2008
p51
aVCHI @ PHI
p52
aVL
p53
aI3
aI0
aI1
aF0.0
aI0
aI1
aF0.0
aI0
aI0
aF0.0
aI0
aI0
aI0
aI1
aI0
aI0
aI0
aI0
aI0
aI3
aa(lp54
V0020701141
p55
aVAPR 05, 2008
p56
aVCHI vs. WAS
p57
aVL
p58
aI2
aI1
aI1
aF1.0
aI0
aI0
aF0.0
aI0
aI0
aF0.0
aI0
aI0
aI0
aI0
aI0
aI1
aI0
aI0
aI2
aI0
aa(lp59
V0020701167
p60
aVAPR 09, 2008
p61
aVCHI @ ORL
p62
aVL
p63
aI5
aI1
aI3
aF0.333
aI1
aI2
aF0.5
aI0
aI0
aF0.0
aI0
aI1
aI1
aI0
aI0
aI0
aI0
aI1
aI3
aI-9
aa(lp64
V0020701207
p65
aVAPR 14, 2008
p66
aVCHI @ MIL
p67
aVW
p68
aI2
aI0
aI1
aF0.0
aI0
aI1
aF0.0
aI0
aI0
aF0.0
aI0
aI0
aI0
aI0
aI0
aI0
aI1
aI0
aI0
aI-2
aa(lp69
V0020701225
p70
aVAPR 16, 2008
p71
aVCHI vs. TOR
p72
aVW
p73
aI5
aI1
aI3
aF0.333
aI0
aI2
aF0.0
aI0
aI0
aF0.0
aI0
aI1
aI1
aI0
aI0
aI2
aI0
aI0
aI2
aI3
aasS'name'
p74
VDemetris Nichols
p75
sS'experience'
p76
I0
s.