(dp0
S'stats'
p1
(lp2
(lp3
V0020700022
p4
aVNOV 02, 2007
p5
aVNOH vs. POR
p6
aVW
p7
aI11
aI1
aI1
aF1.0
aI0
aI0
aF0.0
aI2
aI2
aF1.0
aI1
aI2
aI3
aI1
aI0
aI0
aI1
aI1
aI4
aI-5
aa(lp8
V0020700040
p9
aVNOV 04, 2007
p10
aVNOH @ DEN
p11
aVW
p12
aI4
aI1
aI1
aF1.0
aI0
aI0
aF0.0
aI0
aI0
aF0.0
aI0
aI2
aI2
aI0
aI0
aI0
aI1
aI0
aI2
aI1
aa(lp13
V0020700052
p14
aVNOV 06, 2007
p15
aVNOH @ LAL
p16
aVW
p17
aI10
aI1
aI1
aF1.0
aI0
aI0
aF0.0
aI0
aI0
aF0.0
aI1
aI0
aI1
aI1
aI1
aI0
aI2
aI0
aI2
aI-4
aa(lp18
V0020700062
p19
aVNOV 07, 2007
p20
aVNOH @ POR
p21
aVL
p22
aI3
aI0
aI0
aF0.0
aI0
aI0
aF0.0
aI0
aI0
aF0.0
aI0
aI1
aI1
aI0
aI0
aI0
aI2
aI0
aI0
aI-2
aa(lp23
V0020700088
p24
aVNOV 11, 2007
p25
aVNOH @ PHI
p26
aVW
p27
aI3
aI1
aI1
aF1.0
aI0
aI0
aF0.0
aI0
aI0
aF0.0
aI0
aI2
aI2
aI0
aI0
aI0
aI0
aI1
aI2
aI0
aa(lp28
V0020700111
p29
aVNOV 14, 2007
p30
aVNOH vs. PHI
p31
aVW
p32
aI1
aI0
aI0
aF0.0
aI0
aI0
aF0.0
aI0
aI0
aF0.0
aI1
aI0
aI1
aI0
aI1
aI1
aI0
aI0
aI0
aI2
aa(lp33
V0020700135
p34
aVNOV 17, 2007
p35
aVNOH @ MIN
p36
aVW
p37
aI3
aI0
aI2
aF0.0
aI0
aI0
aF0.0
aI0
aI0
aF0.0
aI0
aI0
aI0
aI0
aI0
aI0
aI0
aI0
aI0
aI-2
aa(lp38
V0020700178
p39
aVNOV 23, 2007
p40
aVNOH @ UTA
p41
aVL
p42
aI5
aI1
aI2
aF0.5
aI0
aI0
aF0.0
aI1
aI2
aF0.5
aI0
aI2
aI2
aI0
aI0
aI0
aI1
aI0
aI3
aI-7
aa(lp43
V0020700227
p44
aVNOV 30, 2007
p45
aVNOH @ ATL
p46
aVW
p47
aI3
aI0
aI1
aF0.0
aI0
aI0
aF0.0
aI0
aI0
aF0.0
aI0
aI0
aI0
aI0
aI0
aI0
aI0
aI1
aI0
aI-2
aa(lp48
V0020700238
p49
aVDEC 01, 2007
p50
aVNOH vs. DAL
p51
aVW
p52
aI2
aI0
aI0
aF0.0
aI0
aI0
aF0.0
aI0
aI0
aF0.0
aI0
aI0
aI0
aI0
aI0
aI0
aI1
aI0
aI0
aI-8
aa(lp53
V0020700267
p54
aVDEC 05, 2007
p55
aVNOH vs. DET
p56
aVL
p57
aI9
aI0
aI1
aF0.0
aI0
aI0
aF0.0
aI0
aI0
aF0.0
aI0
aI1
aI1
aI0
aI0
aI1
aI1
aI0
aI0
aI-3
aa(lp58
V0020700282
p59
aVDEC 07, 2007
p60
aVNOH vs. MEM
p61
aVW
p62
aI21
aI3
aI6
aF0.5
aI0
aI1
aF0.0
aI0
aI0
aF0.0
aI0
aI2
aI2
aI0
aI1
aI0
aI0
aI2
aI6
aI-12
aa(lp63
V0020700299
p64
aVDEC 09, 2007
p65
aVNOH vs. SEA
p66
aVW
p67
aI38
aI3
aI7
aF0.429
aI0
aI0
aF0.0
aI0
aI2
aF0.0
aI1
aI5
aI6
aI3
aI1
aI0
aI1
aI1
aI6
aI8
aa(lp68
V0020700322
p69
aVDEC 12, 2007
p70
aVNOH @ DEN
p71
aVL
p72
aI10
aI1
aI2
aF0.5
aI0
aI0
aF0.0
aI0
aI0
aF0.0
aI0
aI0
aI0
aI1
aI0
aI0
aI0
aI2
aI2
aI4
aa(lp73
V0020700336
p74
aVDEC 14, 2007
p75
aVNOH @ DAL
p76
aVL
p77
aI10
aI2
aI3
aF0.667
aI0
aI0
aF0.0
aI0
aI0
aF0.0
aI2
aI1
aI3
aI0
aI1
aI0
aI0
aI0
aI4
aI-1
aa(lp78
V0020700345
p79
aVDEC 15, 2007
p80
aVNOH vs. PHX
p81
aVW
p82
aI19
aI0
aI5
aF0.0
aI0
aI0
aF0.0
aI0
aI0
aF0.0
aI0
aI5
aI5
aI3
aI0
aI0
aI1
aI1
aI0
aI14
aa(lp83
V0020700361
p84
aVDEC 17, 2007
p85
aVNOH @ POR
p86
aVL
p87
aI13
aI1
aI2
aF0.5
aI0
aI0
aF0.0
aI2
aI2
aF1.0
aI0
aI3
aI3
aI0
aI0
aI1
aI1
aI0
aI4
aI-5
aa(lp88
V0020700377
p89
aVDEC 19, 2007
p90
aVNOH @ SEA
p91
aVW
p92
aI11
aI0
aI1
aF0.0
aI0
aI0
aF0.0
aI0
aI0
aF0.0
aI1
aI1
aI2
aI1
aI0
aI0
aI0
aI1
aI0
aI-4
aa(lp93
V0020700395
p94
aVDEC 22, 2007
p95
aVNOH vs. MIN
p96
aVW
p97
aI17
aI4
aI4
aF1.0
aI0
aI0
aF0.0
aI0
aI0
aF0.0
aI0
aI7
aI7
aI1
aI1
aI2
aI0
aI0
aI8
aI3
aa(lp98
V0020700413
p99
aVDEC 26, 2007
p100
aVNOH @ MEM
p101
aVW
p102
aI9
aI0
aI0
aF0.0
aI0
aI0
aF0.0
aI0
aI0
aF0.0
aI1
aI1
aI2
aI1
aI0
aI0
aI0
aI0
aI0
aI-2
aa(lp103
V0020700422
p104
aVDEC 28, 2007
p105
aVNOH @ CHA
p106
aVW
p107
aI12
aI2
aI5
aF0.4
aI0
aI0
aF0.0
aI0
aI1
aF0.0
aI0
aI0
aI0
aI0
aI1
aI0
aI0
aI1
aI4
aI-4
aa(lp108
V0020700438
p109
aVDEC 29, 2007
p110
aVNOH vs. CLE
p111
aVW
p112
aI5
aI0
aI0
aF0.0
aI0
aI0
aF0.0
aI1
aI2
aF0.5
aI0
aI0
aI0
aI0
aI0
aI0
aI0
aI0
aI1
aI-10
aa(lp113
V0020700453
p114
aVDEC 31, 2007
p115
aVNOH vs. TOR
p116
aVL
p117
aI3
aI0
aI1
aF0.0
aI0
aI0
aF0.0
aI0
aI0
aF0.0
aI1
aI0
aI1
aI0
aI0
aI0
aI0
aI1
aI0
aI-3
aa(lp118
V0020700515
p119
aVJAN 09, 2008
p120
aVNOH vs. LAL
p121
aVL
p122
aI5
aI0
aI2
aF0.0
aI0
aI0
aF0.0
aI0
aI0
aF0.0
aI0
aI0
aI0
aI0
aI0
aI0
aI1
aI0
aI0
aI-4
aa(lp123
V0020700601
p124
aVJAN 21, 2008
p125
aVNOH vs. MIL
p126
aVW
p127
aI3
aI2
aI2
aF1.0
aI0
aI0
aF0.0
aI1
aI2
aF0.5
aI1
aI0
aI1
aI0
aI0
aI0
aI0
aI0
aI5
aI-5
aa(lp128
V0020700631
p129
aVJAN 25, 2008
p130
aVNOH vs. LAC
p131
aVW
p132
aI3
aI0
aI0
aF0.0
aI0
aI0
aF0.0
aI0
aI0
aF0.0
aI0
aI0
aI0
aI0
aI0
aI0
aI0
aI0
aI0
aI1
aa(lp133
V0020700641
p134
aVJAN 26, 2008
p135
aVNOH @ SAS
p136
aVW
p137
aI3
aI0
aI1
aF0.0
aI0
aI0
aF0.0
aI0
aI0
aF0.0
aI0
aI2
aI2
aI0
aI0
aI0
aI0
aI0
aI0
aI-2
aa(lp138
V0020700653
p139
aVJAN 28, 2008
p140
aVNOH vs. DEN
p141
aVW
p142
aI6
aI3
aI3
aF1.0
aI0
aI0
aF0.0
aI0
aI1
aF0.0
aI0
aI0
aI0
aI1
aI0
aI1
aI0
aI0
aI6
aI-1
aa(lp143
V0020700669
p144
aVJAN 30, 2008
p145
aVNOH vs. GSW
p146
aVL
p147
aI2
aI0
aI0
aF0.0
aI0
aI0
aF0.0
aI0
aI0
aF0.0
aI0
aI0
aI0
aI0
aI0
aI0
aI0
aI0
aI0
aI6
aa(lp148
V0020700703
p149
aVFEB 04, 2008
p150
aVNOH @ UTA
p151
aVL
p152
aI8
aI0
aI1
aF0.0
aI0
aI0
aF0.0
aI0
aI0
aF0.0
aI0
aI3
aI3
aI1
aI0
aI0
aI1
aI0
aI0
aI2
aa(lp153
V0020700739
p154
aVFEB 09, 2008
p155
aVNOH vs. MEM
p156
aVW
p157
aI2
aI1
aI1
aF1.0
aI0
aI0
aF0.0
aI0
aI0
aF0.0
aI1
aI0
aI1
aI1
aI0
aI0
aI0
aI0
aI2
aI2
aa(lp158
V0020700795
p159
aVFEB 20, 2008
p160
aVNOH vs. DAL
p161
aVW
p162
aI1
aI1
aI1
aF1.0
aI0
aI0
aF0.0
aI0
aI0
aF0.0
aI0
aI0
aI0
aI0
aI0
aI0
aI0
aI1
aI2
aI-5
aa(lp163
V0020700811
p164
aVFEB 22, 2008
p165
aVNOH vs. HOU
p166
aVL
p167
aI7
aI5
aI6
aF0.833
aI0
aI0
aF0.0
aI0
aI2
aF0.0
aI1
aI0
aI1
aI0
aI0
aI0
aI0
aI0
aI10
aI7
aa(lp168
V0020700851
p169
aVFEB 27, 2008
p170
aVNOH vs. PHX
p171
aVW
p172
aI2
aI0
aI0
aF0.0
aI0
aI0
aF0.0
aI0
aI0
aF0.0
aI0
aI0
aI0
aI0
aI0
aI0
aI1
aI0
aI0
aI0
aa(lp173
V0020700904
p174
aVMAR 05, 2008
p175
aVNOH vs. ATL
p176
aVW
p177
aI22
aI6
aI11
aF0.545
aI1
aI2
aF0.5
aI0
aI0
aF0.0
aI4
aI3
aI7
aI2
aI0
aI0
aI0
aI4
aI13
aI11
aa(lp178
V0020700918
p179
aVMAR 07, 2008
p180
aVNOH vs. NJN
p181
aVW
p182
aI29
aI8
aI9
aF0.889
aI1
aI1
aF1.0
aI3
aI4
aF0.75
aI1
aI7
aI8
aI1
aI2
aI0
aI0
aI2
aI20
aI6
aa(lp183
V0020700930
p184
aVMAR 08, 2008
p185
aVNOH @ HOU
p186
aVL
p187
aI28
aI4
aI8
aF0.5
aI1
aI2
aF0.5
aI0
aI0
aF0.0
aI2
aI0
aI2
aI2
aI1
aI0
aI1
aI0
aI9
aI-2
aa(lp188
V0020700959
p189
aVMAR 12, 2008
p190
aVNOH vs. SAS
p191
aVW
p192
aI18
aI2
aI4
aF0.5
aI0
aI0
aF0.0
aI0
aI0
aF0.0
aI3
aI4
aI7
aI1
aI1
aI0
aI2
aI1
aI4
aI4
aa(lp193
V0020700970
p194
aVMAR 14, 2008
p195
aVNOH vs. LAL
p196
aVW
p197
aI19
aI4
aI6
aF0.667
aI1
aI1
aF1.0
aI0
aI0
aF0.0
aI0
aI0
aI0
aI0
aI1
aI0
aI3
aI0
aI9
aI-1
aa(lp198
V0020700986
p199
aVMAR 16, 2008
p200
aVNOH @ DET
p201
aVL
p202
aI22
aI4
aI12
aF0.333
aI0
aI3
aF0.0
aI2
aI2
aF1.0
aI1
aI4
aI5
aI1
aI4
aI0
aI0
aI1
aI10
aI-17
aa(lp203
V0020700995
p204
aVMAR 17, 2008
p205
aVNOH vs. CHI
p206
aVW
p207
aI19
aI6
aI8
aF0.75
aI1
aI1
aF1.0
aI1
aI1
aF1.0
aI1
aI3
aI4
aI0
aI0
aI1
aI1
aI4
aI14
aI0
aa(lp208
V0020701012
p209
aVMAR 19, 2008
p210
aVNOH vs. HOU
p211
aVW
p212
aI24
aI3
aI5
aF0.6
aI0
aI0
aF0.0
aI0
aI2
aF0.0
aI1
aI3
aI4
aI3
aI0
aI0
aI0
aI3
aI6
aI21
aa(lp213
V0020701033
p214
aVMAR 22, 2008
p215
aVNOH vs. BOS
p216
aVW
p217
aI17
aI1
aI3
aF0.333
aI1
aI1
aF1.0
aI0
aI0
aF0.0
aI0
aI0
aI0
aI2
aI2
aI1
aI1
aI1
aI3
aI10
aa(lp218
V0020701053
p219
aVMAR 25, 2008
p220
aVNOH @ IND
p221
aVW
p222
aI25
aI1
aI5
aF0.2
aI0
aI2
aF0.0
aI3
aI4
aF0.75
aI0
aI1
aI1
aI0
aI2
aI1
aI1
aI1
aI5
aI-2
aa(lp223
V0020701062
p224
aVMAR 26, 2008
p225
aVNOH @ CLE
p226
aVW
p227
aI8
aI0
aI0
aF0.0
aI0
aI0
aF0.0
aI0
aI2
aF0.0
aI0
aI0
aI0
aI1
aI0
aI0
aI1
aI2
aI0
aI2
aa(lp228
V0020701076
p229
aVMAR 28, 2008
p230
aVNOH @ BOS
p231
aVL
p232
aI9
aI1
aI3
aF0.333
aI0
aI0
aF0.0
aI0
aI0
aF0.0
aI1
aI0
aI1
aI0
aI0
aI0
aI1
aI1
aI2
aI5
aa(lp233
V0020701094
p234
aVMAR 30, 2008
p235
aVNOH @ TOR
p236
aVW
p237
aI10
aI0
aI1
aF0.0
aI0
aI0
aF0.0
aI0
aI0
aF0.0
aI0
aI3
aI3
aI0
aI0
aI0
aI2
aI0
aI0
aI-6
aa(lp238
V0020701105
p239
aVAPR 01, 2008
p240
aVNOH @ ORL
p241
aVW
p242
aI5
aI1
aI1
aF1.0
aI0
aI0
aF0.0
aI0
aI0
aF0.0
aI0
aI0
aI0
aI0
aI0
aI1
aI0
aI0
aI2
aI-5
aa(lp243
V0020701117
p244
aVAPR 02, 2008
p245
aVNOH @ MIA
p246
aVW
p247
aI19
aI3
aI6
aF0.5
aI0
aI2
aF0.0
aI5
aI8
aF0.625
aI4
aI5
aI9
aI2
aI3
aI0
aI0
aI0
aI11
aI21
aa(lp248
V0020701131
p249
aVAPR 04, 2008
p250
aVNOH vs. NYK
p251
aVW
p252
aI6
aI2
aI6
aF0.333
aI0
aI1
aF0.0
aI0
aI0
aF0.0
aI0
aI0
aI0
aI0
aI1
aI0
aI0
aI1
aI4
aI-8
aa(lp253
V0020701149
p254
aVAPR 06, 2008
p255
aVNOH vs. GSW
p256
aVW
p257
aI10
aI1
aI1
aF1.0
aI1
aI1
aF1.0
aI0
aI0
aF0.0
aI0
aI0
aI0
aI2
aI0
aI0
aI0
aI1
aI3
aI4
aa(lp258
V0020701159
p259
aVAPR 08, 2008
p260
aVNOH vs. UTA
p261
aVL
p262
aI16
aI1
aI2
aF0.5
aI1
aI1
aF1.0
aI0
aI0
aF0.0
aI0
aI1
aI1
aI3
aI1
aI0
aI3
aI0
aI3
aI10
aa(lp263
V0020701170
p264
aVAPR 09, 2008
p265
aVNOH @ MIN
p266
aVW
p267
aI20
aI3
aI8
aF0.375
aI0
aI3
aF0.0
aI3
aI4
aF0.75
aI2
aI5
aI7
aI2
aI1
aI0
aI0
aI2
aI9
aI9
aa(lp268
V0020701187
p269
aVAPR 11, 2008
p270
aVNOH @ LAL
p271
aVL
p272
aI6
aI1
aI1
aF1.0
aI1
aI1
aF1.0
aI0
aI0
aF0.0
aI0
aI0
aI0
aI1
aI1
aI0
aI0
aI1
aI3
aI-6
aa(lp273
V0020701194
p274
aVAPR 12, 2008
p275
aVNOH @ SAC
p276
aVL
p277
aI6
aI1
aI1
aF1.0
aI0
aI0
aF0.0
aI0
aI0
aF0.0
aI0
aI1
aI1
aI1
aI1
aI0
aI0
aI0
aI2
aI-5
aa(lp278
V0020701214
p279
aVAPR 15, 2008
p280
aVNOH vs. LAC
p281
aVW
p282
aI18
aI3
aI3
aF1.0
aI1
aI1
aF1.0
aI7
aI7
aF1.0
aI0
aI3
aI3
aI0
aI1
aI1
aI0
aI2
aI14
aI6
aa(lp283
V0020701227
p284
aVAPR 16, 2008
p285
aVNOH @ DAL
p286
aVL
p287
aI19
aI1
aI2
aF0.5
aI0
aI0
aF0.0
aI2
aI2
aF1.0
aI1
aI1
aI2
aI1
aI0
aI1
aI3
aI3
aI4
aI0
aasS'name'
p288
VJulian Wright
p289
sS'weight'
p290
V225
p291
sS'age'
p292
I20
sS'experience'
p293
I0
sS'height'
p294
V6-8
p295
sS'position'
p296
VForward
p297
s.