(dp0
S'age'
p1
I22
sS'stats'
p2
(lp3
(lp4
V0020700006
p5
aVOCT 31, 2007
p6
aVWAS @ IND
p7
aVL
p8
aI2
aI0
aI0
aF0.0
aI0
aI0
aF0.0
aI0
aI0
aF0.0
aI0
aI0
aI0
aI0
aI0
aI0
aI0
aI1
aI0
aI-4
aa(lp9
V0020700021
p10
aVNOV 02, 2007
p11
aVWAS @ BOS
p12
aVL
p13
aI4
aI0
aI1
aF0.0
aI0
aI0
aF0.0
aI0
aI0
aF0.0
aI0
aI0
aI0
aI0
aI0
aI0
aI0
aI1
aI0
aI-1
aa(lp14
V0020700029
p15
aVNOV 03, 2007
p16
aVWAS vs. ORL
p17
aVL
p18
aI5
aI0
aI2
aF0.0
aI0
aI0
aF0.0
aI0
aI0
aF0.0
aI0
aI0
aI0
aI1
aI0
aI1
aI1
aI1
aI0
aI7
aa(lp19
V0020700071
p20
aVNOV 09, 2007
p21
aVWAS vs. DEN
p22
aVL
p23
aI5
aI1
aI2
aF0.5
aI0
aI0
aF0.0
aI0
aI0
aF0.0
aI0
aI0
aI0
aI1
aI0
aI0
aI1
aI0
aI2
aI-8
aa(lp24
V0020700131
p25
aVNOV 17, 2007
p26
aVWAS vs. POR
p27
aVW
p28
aI4
aI1
aI1
aF1.0
aI0
aI0
aF0.0
aI0
aI0
aF0.0
aI0
aI1
aI1
aI0
aI0
aI0
aI1
aI2
aI2
aI-4
aa(lp29
V0020700149
p30
aVNOV 20, 2007
p31
aVWAS vs. PHI
p32
aVW
p33
aI13
aI1
aI1
aF1.0
aI0
aI0
aF0.0
aI0
aI0
aF0.0
aI0
aI0
aI0
aI1
aI0
aI0
aI1
aI0
aI2
aI-20
aa(lp34
V0020700157
p35
aVNOV 21, 2007
p36
aVWAS @ CHA
p37
aVW
p38
aI14
aI0
aI1
aF0.0
aI0
aI0
aF0.0
aI0
aI0
aF0.0
aI0
aI1
aI1
aI0
aI0
aI1
aI1
aI0
aI0
aI0
aa(lp39
V0020700170
p40
aVNOV 23, 2007
p41
aVWAS vs. GSW
p42
aVL
p43
aI4
aI0
aI0
aF0.0
aI0
aI0
aF0.0
aI0
aI0
aF0.0
aI0
aI0
aI0
aI0
aI0
aI1
aI0
aI2
aI0
aI-2
aa(lp44
V0020700187
p45
aVNOV 24, 2007
p46
aVWAS @ MEM
p47
aVL
p48
aI3
aI0
aI1
aF0.0
aI0
aI0
aF0.0
aI0
aI0
aF0.0
aI0
aI0
aI0
aI0
aI0
aI0
aI0
aI1
aI0
aI-5
aa(lp49
V0020700216
p50
aVNOV 28, 2007
p51
aVWAS @ SAS
p52
aVL
p53
aI3
aI0
aI0
aF0.0
aI0
aI0
aF0.0
aI0
aI0
aF0.0
aI0
aI0
aI0
aI0
aI0
aI0
aI0
aI0
aI0
aI0
aa(lp54
V0020700225
p55
aVNOV 30, 2007
p56
aVWAS @ PHI
p57
aVL
p58
aI0
aI0
aI0
aF0.0
aI0
aI0
aF0.0
aI0
aI0
aF0.0
aI0
aI0
aI0
aI0
aI0
aI0
aI0
aI0
aI0
aI0
aa(lp59
V0020700235
p60
aVDEC 01, 2007
p61
aVWAS vs. TOR
p62
aVW
p63
aI10
aI0
aI0
aF0.0
aI0
aI0
aF0.0
aI0
aI2
aF0.0
aI0
aI3
aI3
aI1
aI0
aI0
aI0
aI0
aI0
aI-9
aa(lp64
V0020700264
p65
aVDEC 05, 2007
p66
aVWAS vs. CLE
p67
aVW
p68
aI1
aI0
aI0
aF0.0
aI0
aI0
aF0.0
aI0
aI0
aF0.0
aI0
aI0
aI0
aI1
aI0
aI0
aI0
aI0
aI0
aI-1
aa(lp69
V0020700277
p70
aVDEC 07, 2007
p71
aVWAS vs. PHX
p72
aVL
p73
aI7
aI0
aI0
aF0.0
aI0
aI0
aF0.0
aI0
aI0
aF0.0
aI0
aI2
aI2
aI0
aI0
aI0
aI0
aI0
aI0
aI6
aa(lp74
V0020700298
p75
aVDEC 09, 2007
p76
aVWAS vs. NJN
p77
aVW
p78
aI5
aI0
aI1
aF0.0
aI0
aI0
aF0.0
aI0
aI0
aF0.0
aI0
aI0
aI0
aI0
aI0
aI0
aI1
aI0
aI0
aI-11
aa(lp79
V0020700306
p80
aVDEC 11, 2007
p81
aVWAS vs. MIN
p82
aVW
p83
aI11
aI1
aI1
aF1.0
aI0
aI0
aF0.0
aI0
aI0
aF0.0
aI0
aI2
aI2
aI1
aI1
aI0
aI0
aI1
aI2
aI1
aa(lp84
V0020700325
p85
aVDEC 13, 2007
p86
aVWAS @ MIA
p87
aVW
p88
aI2
aI0
aI0
aF0.0
aI0
aI0
aF0.0
aI0
aI0
aF0.0
aI0
aI0
aI0
aI0
aI0
aI0
aI0
aI0
aI0
aI-5
aa(lp89
V0020700339
p90
aVDEC 15, 2007
p91
aVWAS vs. SAC
p92
aVW
p93
aI12
aI1
aI2
aF0.5
aI0
aI0
aF0.0
aI0
aI0
aF0.0
aI0
aI3
aI3
aI0
aI0
aI2
aI1
aI1
aI2
aI1
aa(lp94
V0020700383
p95
aVDEC 21, 2007
p96
aVWAS vs. ATL
p97
aVL
p98
aI13
aI1
aI4
aF0.25
aI0
aI0
aF0.0
aI0
aI0
aF0.0
aI1
aI2
aI3
aI0
aI1
aI0
aI0
aI1
aI2
aI4
aa(lp99
V0020700391
p100
aVDEC 22, 2007
p101
aVWAS @ IND
p102
aVL
p103
aI12
aI1
aI2
aF0.5
aI0
aI0
aF0.0
aI0
aI0
aF0.0
aI0
aI3
aI3
aI0
aI0
aI0
aI1
aI1
aI2
aI-4
aa(lp104
V0020700409
p105
aVDEC 26, 2007
p106
aVWAS @ CHA
p107
aVW
p108
aI1
aI0
aI0
aF0.0
aI0
aI0
aF0.0
aI0
aI0
aF0.0
aI0
aI0
aI0
aI0
aI0
aI0
aI0
aI0
aI0
aI0
aa(lp109
V0020700423
p110
aVDEC 28, 2007
p111
aVWAS @ NJN
p112
aVL
p113
aI5
aI0
aI0
aF0.0
aI0
aI0
aF0.0
aI0
aI0
aF0.0
aI0
aI1
aI1
aI0
aI0
aI0
aI0
aI0
aI0
aI-2
aa(lp114
V0020700435
p115
aVDEC 29, 2007
p116
aVWAS vs. MIA
p117
aVW
p118
aI8
aI0
aI3
aF0.0
aI0
aI0
aF0.0
aI0
aI0
aF0.0
aI0
aI0
aI0
aI1
aI0
aI0
aI0
aI2
aI0
aI-11
aa(lp119
V0020700457
p120
aVJAN 02, 2008
p121
aVWAS vs. DET
p122
aVL
p123
aI3
aI0
aI1
aF0.0
aI0
aI0
aF0.0
aI0
aI0
aF0.0
aI0
aI1
aI1
aI0
aI0
aI0
aI0
aI0
aI0
aI3
aa(lp124
V0020700479
p125
aVJAN 04, 2008
p126
aVWAS @ MIL
p127
aVW
p128
aI10
aI1
aI1
aF1.0
aI0
aI0
aF0.0
aI0
aI0
aF0.0
aI1
aI0
aI1
aI0
aI0
aI0
aI0
aI2
aI2
aI-11
aa(lp129
V0020700491
p130
aVJAN 06, 2008
p131
aVWAS vs. SEA
p132
aVW
p133
aI2
aI0
aI1
aF0.0
aI0
aI0
aF0.0
aI0
aI0
aF0.0
aI0
aI1
aI1
aI0
aI0
aI1
aI0
aI0
aI0
aI-4
aa(lp134
V0020700501
p135
aVJAN 08, 2008
p136
aVWAS vs. HOU
p137
aVL
p138
aI3
aI0
aI0
aF0.0
aI0
aI0
aF0.0
aI0
aI0
aF0.0
aI0
aI0
aI0
aI1
aI0
aI0
aI0
aI0
aI0
aI6
aa(lp139
V0020700526
p140
aVJAN 11, 2008
p141
aVWAS @ ATL
p142
aVW
p143
aI0
aI0
aI0
aF0.0
aI0
aI0
aF0.0
aI0
aI0
aF0.0
aI0
aI1
aI1
aI0
aI0
aI0
aI0
aI0
aI0
aI0
aa(lp144
V0020700556
p145
aVJAN 15, 2008
p146
aVWAS @ NYK
p147
aVL
p148
aI7
aI1
aI3
aF0.333
aI0
aI0
aF0.0
aI0
aI0
aF0.0
aI2
aI0
aI2
aI0
aI0
aI0
aI0
aI0
aI2
aI-9
aa(lp149
V0020700574
p150
aVJAN 18, 2008
p151
aVWAS vs. NYK
p152
aVW
p153
aI1
aI0
aI0
aF0.0
aI0
aI0
aF0.0
aI0
aI0
aF0.0
aI1
aI0
aI1
aI0
aI0
aI0
aI0
aI0
aI0
aI-2
aa(lp154
V0020700612
p155
aVJAN 23, 2008
p156
aVWAS @ CLE
p157
aVL
p158
aI17
aI3
aI4
aF0.75
aI0
aI0
aF0.0
aI0
aI3
aF0.0
aI0
aI2
aI2
aI0
aI1
aI1
aI1
aI1
aI6
aI-16
aa(lp159
V0020700626
p160
aVJAN 25, 2008
p161
aVWAS vs. MEM
p162
aVW
p163
aI7
aI0
aI0
aF0.0
aI0
aI0
aF0.0
aI0
aI0
aF0.0
aI1
aI1
aI2
aI0
aI1
aI0
aI3
aI2
aI0
aI-1
aa(lp164
V0020700656
p165
aVJAN 29, 2008
p166
aVWAS vs. TOR
p167
aVW
p168
aI22
aI1
aI3
aF0.333
aI0
aI0
aF0.0
aI0
aI0
aF0.0
aI6
aI4
aI10
aI1
aI0
aI1
aI3
aI3
aI2
aI-2
aa(lp169
V0020700665
p170
aVJAN 30, 2008
p171
aVWAS @ TOR
p172
aVL
p173
aI25
aI1
aI2
aF0.5
aI0
aI0
aF0.0
aI2
aI2
aF1.0
aI3
aI3
aI6
aI2
aI1
aI2
aI2
aI1
aI4
aI-19
aa(lp174
V0020700681
p175
aVFEB 01, 2008
p176
aVWAS vs. UTA
p177
aVL
p178
aI11
aI0
aI1
aF0.0
aI0
aI1
aF0.0
aI0
aI0
aF0.0
aI1
aI1
aI2
aI0
aI0
aI1
aI1
aI0
aI0
aI-4
aa(lp179
V0020700696
p180
aVFEB 03, 2008
p181
aVWAS vs. LAL
p182
aVL
p183
aI5
aI0
aI0
aF0.0
aI0
aI0
aF0.0
aI0
aI0
aF0.0
aI1
aI0
aI1
aI1
aI0
aI0
aI1
aI0
aI0
aI8
aa(lp184
V0020700707
p185
aVFEB 05, 2008
p186
aVWAS @ PHI
p187
aVL
p188
aI4
aI0
aI0
aF0.0
aI0
aI0
aF0.0
aI0
aI0
aF0.0
aI0
aI1
aI1
aI0
aI0
aI0
aI1
aI0
aI0
aI3
aa(lp189
V0020700736
p190
aVFEB 08, 2008
p191
aVWAS @ DEN
p192
aVL
p193
aI17
aI2
aI3
aF0.667
aI0
aI0
aF0.0
aI0
aI0
aF0.0
aI1
aI3
aI4
aI2
aI1
aI0
aI1
aI3
aI4
aI4
aa(lp194
V0020700750
p195
aVFEB 10, 2008
p196
aVWAS @ PHX
p197
aVL
p198
aI6
aI1
aI2
aF0.5
aI0
aI0
aF0.0
aI0
aI0
aF0.0
aI0
aI2
aI2
aI0
aI0
aI2
aI1
aI2
aI2
aI-3
aa(lp199
V0020700757
p200
aVFEB 11, 2008
p201
aVWAS @ GSW
p202
aVL
p203
aI20
aI1
aI1
aF1.0
aI1
aI1
aF1.0
aI0
aI0
aF0.0
aI2
aI4
aI6
aI1
aI1
aI0
aI0
aI2
aI3
aI4
aa(lp204
V0020700777
p205
aVFEB 13, 2008
p206
aVWAS @ LAC
p207
aVW
p208
aI24
aI0
aI4
aF0.0
aI0
aI0
aF0.0
aI0
aI0
aF0.0
aI7
aI5
aI12
aI1
aI0
aI1
aI2
aI3
aI0
aI6
aa(lp209
V0020700780
p210
aVFEB 19, 2008
p211
aVWAS vs. NYK
p212
aVL
p213
aI17
aI1
aI2
aF0.5
aI0
aI0
aF0.0
aI1
aI2
aF0.5
aI1
aI2
aI3
aI0
aI0
aI1
aI0
aI2
aI3
aI0
aa(lp214
V0020700807
p215
aVFEB 22, 2008
p216
aVWAS @ CLE
p217
aVL
p218
aI9
aI0
aI0
aF0.0
aI0
aI0
aF0.0
aI0
aI0
aF0.0
aI0
aI0
aI0
aI1
aI0
aI0
aI0
aI1
aI0
aI-1
aa(lp219
V0020700816
p220
aVFEB 23, 2008
p221
aVWAS vs. CHA
p222
aVW
p223
aI11
aI0
aI2
aF0.0
aI0
aI0
aF0.0
aI0
aI0
aF0.0
aI3
aI0
aI3
aI2
aI1
aI0
aI1
aI1
aI0
aI-7
aa(lp224
V0020700832
p225
aVFEB 25, 2008
p226
aVWAS @ NOH
p227
aVW
p228
aI16
aI1
aI1
aF1.0
aI0
aI0
aF0.0
aI0
aI0
aF0.0
aI0
aI2
aI2
aI1
aI1
aI0
aI0
aI1
aI2
aI13
aa(lp229
V0020700842
p230
aVFEB 26, 2008
p231
aVWAS @ HOU
p232
aVL
p233
aI16
aI0
aI2
aF0.0
aI0
aI0
aF0.0
aI0
aI0
aF0.0
aI1
aI2
aI3
aI0
aI0
aI0
aI0
aI2
aI0
aI-10
aa(lp234
V0020700862
p235
aVFEB 29, 2008
p236
aVWAS @ CHI
p237
aVW
p238
aI8
aI1
aI3
aF0.333
aI0
aI0
aF0.0
aI0
aI0
aF0.0
aI0
aI0
aI0
aI1
aI1
aI0
aI0
aI3
aI2
aI-6
aa(lp239
V0020700879
p240
aVMAR 02, 2008
p241
aVWAS vs. NOH
p242
aVW
p243
aI17
aI2
aI5
aF0.4
aI0
aI0
aF0.0
aI0
aI0
aF0.0
aI2
aI0
aI2
aI1
aI1
aI0
aI1
aI1
aI4
aI1
aa(lp244
V0020700897
p245
aVMAR 05, 2008
p246
aVWAS vs. ORL
p247
aVL
p248
aI23
aI0
aI1
aF0.0
aI0
aI0
aF0.0
aI0
aI0
aF0.0
aI2
aI2
aI4
aI1
aI0
aI1
aI2
aI4
aI0
aI-15
aa(lp249
V0020700912
p250
aVMAR 07, 2008
p251
aVWAS @ TOR
p252
aVW
p253
aI10
aI0
aI0
aF0.0
aI0
aI0
aF0.0
aI0
aI0
aF0.0
aI0
aI1
aI1
aI0
aI1
aI0
aI1
aI0
aI0
aI-2
aa(lp254
V0020700925
p255
aVMAR 08, 2008
p256
aVWAS vs. CHA
p257
aVL
p258
aI15
aI2
aI2
aF1.0
aI0
aI0
aF0.0
aI1
aI2
aF0.5
aI1
aI3
aI4
aI0
aI1
aI3
aI1
aI3
aI5
aI-11
aa(lp259
V0020700946
p260
aVMAR 11, 2008
p261
aVWAS vs. MIL
p262
aVW
p263
aI15
aI0
aI0
aF0.0
aI0
aI0
aF0.0
aI0
aI0
aF0.0
aI2
aI1
aI3
aI2
aI0
aI1
aI1
aI1
aI0
aI-3
aa(lp264
V0020700963
p265
aVMAR 13, 2008
p266
aVWAS vs. CLE
p267
aVW
p268
aI2
aI0
aI0
aF0.0
aI0
aI0
aF0.0
aI0
aI0
aF0.0
aI0
aI1
aI1
aI0
aI0
aI0
aI0
aI1
aI0
aI-3
aa(lp269
V0020700977
p270
aVMAR 15, 2008
p271
aVWAS vs. LAC
p272
aVW
p273
aI8
aI0
aI1
aF0.0
aI0
aI1
aF0.0
aI0
aI0
aF0.0
aI0
aI1
aI1
aI2
aI0
aI1
aI0
aI2
aI0
aI-1
aa(lp274
V0020700991
p275
aVMAR 17, 2008
p276
aVWAS vs. ATL
p277
aVL
p278
aI4
aI0
aI0
aF0.0
aI0
aI0
aF0.0
aI0
aI0
aF0.0
aI0
aI1
aI1
aI0
aI0
aI0
aI0
aI0
aI0
aI-6
aa(lp279
V0020701008
p280
aVMAR 19, 2008
p281
aVWAS @ ORL
p282
aVW
p283
aI8
aI1
aI1
aF1.0
aI0
aI0
aF0.0
aI0
aI0
aF0.0
aI0
aI2
aI2
aI1
aI0
aI0
aI0
aI0
aI2
aI-2
aa(lp284
V0020701023
p285
aVMAR 21, 2008
p286
aVWAS @ MIA
p287
aVW
p288
aI19
aI1
aI3
aF0.333
aI0
aI0
aF0.0
aI0
aI2
aF0.0
aI1
aI4
aI5
aI0
aI2
aI1
aI3
aI4
aI2
aI-3
aa(lp289
V0020701042
p290
aVMAR 23, 2008
p291
aVWAS vs. DET
p292
aVW
p293
aI3
aI0
aI0
aF0.0
aI0
aI0
aF0.0
aI0
aI0
aF0.0
aI0
aI0
aI0
aI0
aI0
aI0
aI0
aI0
aI0
aI1
aa(lp294
V0020701057
p295
aVMAR 25, 2008
p296
aVWAS @ POR
p297
aVL
p298
aI14
aI0
aI1
aF0.0
aI0
aI0
aF0.0
aI0
aI0
aF0.0
aI1
aI1
aI2
aI0
aI0
aI1
aI0
aI0
aI0
aI1
aa(lp299
V0020701068
p300
aVMAR 26, 2008
p301
aVWAS @ SEA
p302
aVW
p303
aI5
aI0
aI0
aF0.0
aI0
aI0
aF0.0
aI1
aI2
aF0.5
aI0
aI0
aI0
aI0
aI1
aI1
aI0
aI1
aI1
aI-6
aa(lp304
V0020701081
p305
aVMAR 28, 2008
p306
aVWAS @ SAC
p307
aVW
p308
aI3
aI0
aI0
aF0.0
aI0
aI0
aF0.0
aI0
aI0
aF0.0
aI0
aI0
aI0
aI0
aI0
aI0
aI0
aI0
aI0
aI-1
aa(lp309
V0020701098
p310
aVMAR 30, 2008
p311
aVWAS @ LAL
p312
aVL
p313
aI9
aI2
aI3
aF0.667
aI0
aI0
aF0.0
aI2
aI2
aF1.0
aI0
aI1
aI1
aI0
aI0
aI1
aI0
aI1
aI6
aI-9
aa(lp314
V0020701102
p315
aVMAR 31, 2008
p316
aVWAS @ UTA
p317
aVL
p318
aI32
aI2
aI6
aF0.333
aI0
aI0
aF0.0
aI3
aI4
aF0.75
aI2
aI3
aI5
aI2
aI1
aI0
aI2
aI5
aI7
aI-22
aa(lp319
V0020701113
p320
aVAPR 02, 2008
p321
aVWAS vs. MIL
p322
aVL
p323
aI6
aI0
aI0
aF0.0
aI0
aI0
aF0.0
aI0
aI0
aF0.0
aI0
aI0
aI0
aI1
aI1
aI0
aI1
aI1
aI0
aI3
aa(lp324
V0020701128
p325
aVAPR 04, 2008
p326
aVWAS vs. MIA
p327
aVW
p328
aI4
aI0
aI0
aF0.0
aI0
aI0
aF0.0
aI0
aI0
aF0.0
aI0
aI1
aI1
aI1
aI0
aI0
aI0
aI0
aI0
aI5
aa(lp329
V0020701141
p330
aVAPR 05, 2008
p331
aVWAS @ CHI
p332
aVW
p333
aI8
aI0
aI1
aF0.0
aI0
aI0
aF0.0
aI0
aI0
aF0.0
aI0
aI0
aI0
aI0
aI0
aI0
aI0
aI1
aI0
aI1
aa(lp334
V0020701183
p335
aVAPR 11, 2008
p336
aVWAS @ DET
p337
aVL
p338
aI9
aI0
aI2
aF0.0
aI0
aI0
aF0.0
aI0
aI0
aF0.0
aI3
aI0
aI3
aI1
aI1
aI1
aI0
aI1
aI0
aI-4
aa(lp339
V0020701188
p340
aVAPR 12, 2008
p341
aVWAS vs. PHI
p342
aVW
p343
aI10
aI1
aI4
aF0.25
aI0
aI0
aF0.0
aI1
aI2
aF0.5
aI3
aI0
aI3
aI1
aI0
aI0
aI0
aI1
aI3
aI0
aa(lp344
V0020701205
p345
aVAPR 14, 2008
p346
aVWAS vs. IND
p347
aVW
p348
aI30
aI3
aI5
aF0.6
aI0
aI0
aF0.0
aI3
aI7
aF0.429
aI3
aI7
aI10
aI2
aI1
aI0
aI1
aI3
aI9
aI4
aa(lp349
V0020701218
p350
aVAPR 16, 2008
p351
aVWAS @ ORL
p352
aVL
p353
aI37
aI4
aI10
aF0.4
aI0
aI3
aF0.0
aI0
aI2
aF0.0
aI1
aI4
aI5
aI4
aI0
aI0
aI2
aI3
aI8
aI-19
aasS'name'
p354
VDominic McGuire
p355
sS'experience'
p356
I0
s.