(dp0
S'stats'
p1
(lp2
(lp3
V0020700935
p4
aVMAR 09, 2008
p5
aVMIL vs. PHI
p6
aVL
p7
aI4
aI1
aI2
aF0.5
aI0
aI0
aF0.0
aI0
aI0
aF0.0
aI0
aI0
aI0
aI2
aI1
aI0
aI1
aI0
aI2
aI-3
aa(lp8
V0020700958
p9
aVMAR 12, 2008
p10
aVMIL vs. UTA
p11
aVL
p12
aI9
aI1
aI4
aF0.25
aI0
aI0
aF0.0
aI2
aI2
aF1.0
aI0
aI0
aI0
aI3
aI0
aI0
aI0
aI1
aI4
aI7
aa(lp13
V0020700980
p14
aVMAR 15, 2008
p15
aVMIL vs. BOS
p16
aVL
p17
aI6
aI1
aI2
aF0.5
aI0
aI0
aF0.0
aI3
aI4
aF0.75
aI0
aI1
aI1
aI1
aI1
aI0
aI1
aI0
aI5
aI-4
aa(lp18
V0020701046
p19
aVMAR 24, 2008
p20
aVMIL @ MIA
p21
aVL
p22
aI6
aI0
aI1
aF0.0
aI0
aI0
aF0.0
aI2
aI2
aF1.0
aI0
aI2
aI2
aI1
aI0
aI0
aI0
aI1
aI2
aI-2
aa(lp23
V0020701061
p24
aVMAR 26, 2008
p25
aVMIL @ ATL
p26
aVL
p27
aI7
aI0
aI0
aF0.0
aI0
aI0
aF0.0
aI1
aI2
aF0.5
aI0
aI0
aI0
aI0
aI0
aI0
aI2
aI0
aI1
aI-4
aa(lp28
V0020701078
p29
aVMAR 28, 2008
p30
aVMIL vs. ORL
p31
aVL
p32
aI14
aI1
aI3
aF0.333
aI0
aI0
aF0.0
aI2
aI2
aF1.0
aI1
aI3
aI4
aI2
aI0
aI0
aI0
aI3
aI4
aI4
aa(lp33
V0020701086
p34
aVMAR 29, 2008
p35
aVMIL @ CHI
p36
aVL
p37
aI15
aI1
aI5
aF0.2
aI0
aI0
aF0.0
aI2
aI2
aF1.0
aI0
aI2
aI2
aI5
aI0
aI0
aI0
aI1
aI4
aI17
aa(lp38
V0020701107
p39
aVAPR 01, 2008
p40
aVMIL vs. NYK
p41
aVW
p42
aI34
aI1
aI5
aF0.2
aI0
aI0
aF0.0
aI2
aI2
aF1.0
aI1
aI3
aI4
aI6
aI0
aI0
aI1
aI3
aI4
aI16
aa(lp43
V0020701113
p44
aVAPR 02, 2008
p45
aVMIL @ WAS
p46
aVW
p47
aI24
aI4
aI6
aF0.667
aI0
aI0
aF0.0
aI0
aI0
aF0.0
aI0
aI2
aI2
aI8
aI2
aI0
aI3
aI4
aI8
aI5
aa(lp48
V0020701132
p49
aVAPR 04, 2008
p50
aVMIL vs. IND
p51
aVL
p52
aI31
aI3
aI8
aF0.375
aI1
aI2
aF0.5
aI4
aI6
aF0.667
aI1
aI3
aI4
aI7
aI1
aI0
aI3
aI1
aI11
aI-4
aa(lp53
V0020701146
p54
aVAPR 06, 2008
p55
aVMIL @ IND
p56
aVL
p57
aI42
aI3
aI10
aF0.3
aI0
aI0
aF0.0
aI2
aI2
aF1.0
aI0
aI3
aI3
aI10
aI1
aI2
aI4
aI4
aI8
aI-11
aa(lp58
V0020701157
p59
aVAPR 08, 2008
p60
aVMIL vs. BOS
p61
aVL
p62
aI37
aI5
aI11
aF0.455
aI1
aI2
aF0.5
aI2
aI4
aF0.5
aI2
aI4
aI6
aI7
aI3
aI0
aI5
aI3
aI13
aI-7
aa(lp63
V0020701164
p64
aVAPR 09, 2008
p65
aVMIL @ TOR
p66
aVL
p67
aI36
aI3
aI12
aF0.25
aI0
aI1
aF0.0
aI0
aI0
aF0.0
aI1
aI3
aI4
aI10
aI0
aI0
aI4
aI0
aI6
aI-12
aa(lp68
V0020701180
p69
aVAPR 11, 2008
p70
aVMIL @ BOS
p71
aVL
p72
aI43
aI3
aI8
aF0.375
aI0
aI0
aF0.0
aI2
aI3
aF0.667
aI0
aI5
aI5
aI14
aI2
aI0
aI5
aI0
aI8
aI-11
aa(lp73
V0020701192
p74
aVAPR 12, 2008
p75
aVMIL vs. NJN
p76
aVL
p77
aI43
aI6
aI11
aF0.545
aI0
aI0
aF0.0
aI0
aI0
aF0.0
aI0
aI6
aI6
aI13
aI2
aI0
aI2
aI2
aI12
aI-14
aa(lp78
V0020701207
p79
aVAPR 14, 2008
p80
aVMIL vs. CHI
p81
aVL
p82
aI44
aI7
aI12
aF0.583
aI0
aI0
aF0.0
aI6
aI7
aF0.857
aI2
aI6
aI8
aI24
aI1
aI1
aI2
aI2
aI20
aI-13
aa(lp83
V0020701224
p84
aVAPR 16, 2008
p85
aVMIL @ MIN
p86
aVL
p87
aI53
aI11
aI17
aF0.647
aI1
aI2
aF0.5
aI2
aI3
aF0.667
aI0
aI7
aI7
aI14
aI3
aI0
aI3
aI1
aI25
aI-9
aasS'name'
p88
VRamon Sessions
p89
sS'weight'
p90
V190
p91
sS'age'
p92
I21
sS'experience'
p93
I0
sS'height'
p94
V6-3
p95
sS'position'
p96
VGuard
p97
s.