(dp0
S'stats'
p1
(lp2
(lp3
V0020700019
p4
aVNOV 02, 2007
p5
aVATL vs. DAL
p6
aVW
p7
aI14
aI3
aI4
aF0.75
aI0
aI0
aF0.0
aI2
aI2
aF1.0
aI0
aI0
aI0
aI3
aI0
aI0
aI2
aI4
aI8
aI-6
aa(lp8
V0020700039
p9
aVNOV 04, 2007
p10
aVATL @ DET
p11
aVL
p12
aI22
aI5
aI6
aF0.833
aI1
aI1
aF1.0
aI0
aI0
aF0.0
aI0
aI0
aI0
aI0
aI2
aI0
aI4
aI1
aI11
aI11
aa(lp13
V0020700045
p14
aVNOV 06, 2007
p15
aVATL @ NJN
p16
aVL
p17
aI25
aI1
aI5
aF0.2
aI1
aI3
aF0.333
aI4
aI5
aF0.8
aI0
aI4
aI4
aI0
aI0
aI0
aI4
aI1
aI7
aI-3
aa(lp18
V0020700056
p19
aVNOV 07, 2007
p20
aVATL vs. PHX
p21
aVW
p22
aI24
aI3
aI7
aF0.429
aI0
aI2
aF0.0
aI0
aI2
aF0.0
aI1
aI0
aI1
aI1
aI1
aI0
aI1
aI4
aI6
aI1
aa(lp23
V0020700068
p24
aVNOV 09, 2007
p25
aVATL @ BOS
p26
aVL
p27
aI26
aI3
aI5
aF0.6
aI0
aI0
aF0.0
aI1
aI1
aF1.0
aI1
aI1
aI2
aI5
aI1
aI0
aI2
aI1
aI7
aI-12
aa(lp28
V0020700086
p29
aVNOV 11, 2007
p30
aVATL vs. WAS
p31
aVL
p32
aI14
aI0
aI4
aF0.0
aI0
aI2
aF0.0
aI0
aI0
aF0.0
aI0
aI1
aI1
aI5
aI1
aI0
aI0
aI2
aI0
aI-18
aa(lp33
V0020700106
p34
aVNOV 14, 2007
p35
aVATL vs. CHA
p36
aVW
p37
aI23
aI1
aI2
aF0.5
aI0
aI0
aF0.0
aI0
aI0
aF0.0
aI0
aI0
aI0
aI7
aI2
aI0
aI0
aI1
aI2
aI12
aa(lp38
V0020700251
p39
aVDEC 03, 2007
p40
aVATL @ PHI
p41
aVW
p42
aI24
aI0
aI8
aF0.0
aI0
aI3
aF0.0
aI0
aI0
aF0.0
aI0
aI5
aI5
aI5
aI2
aI0
aI2
aI3
aI0
aI16
aa(lp43
V0020700256
p44
aVDEC 04, 2007
p45
aVATL vs. DET
p46
aVL
p47
aI21
aI5
aI6
aF0.833
aI0
aI1
aF0.0
aI1
aI1
aF1.0
aI0
aI0
aI0
aI2
aI0
aI0
aI2
aI1
aI11
aI-22
aa(lp48
V0020700273
p49
aVDEC 06, 2007
p50
aVATL vs. MIN
p51
aVW
p52
aI14
aI0
aI3
aF0.0
aI0
aI0
aF0.0
aI0
aI0
aF0.0
aI0
aI1
aI1
aI1
aI0
aI0
aI1
aI2
aI0
aI-6
aa(lp53
V0020700288
p54
aVDEC 08, 2007
p55
aVATL vs. MEM
p56
aVW
p57
aI17
aI2
aI5
aF0.4
aI1
aI2
aF0.5
aI0
aI0
aF0.0
aI1
aI1
aI2
aI3
aI1
aI0
aI2
aI4
aI5
aI-20
aa(lp58
V0020700302
p59
aVDEC 10, 2007
p60
aVATL @ ORL
p61
aVW
p62
aI16
aI1
aI5
aF0.2
aI0
aI0
aF0.0
aI0
aI0
aF0.0
aI0
aI1
aI1
aI2
aI1
aI0
aI1
aI2
aI2
aI-4
aa(lp63
V0020700307
p64
aVDEC 11, 2007
p65
aVATL vs. TOR
p66
aVL
p67
aI22
aI1
aI5
aF0.2
aI0
aI1
aF0.0
aI0
aI0
aF0.0
aI0
aI1
aI1
aI6
aI0
aI0
aI0
aI2
aI2
aI6
aa(lp68
V0020700332
p69
aVDEC 14, 2007
p70
aVATL @ DET
p71
aVL
p72
aI16
aI2
aI7
aF0.286
aI0
aI0
aF0.0
aI0
aI0
aF0.0
aI0
aI2
aI2
aI0
aI1
aI0
aI1
aI1
aI4
aI-13
aa(lp73
V0020700367
p74
aVDEC 19, 2007
p75
aVATL vs. MIA
p76
aVW
p77
aI8
aI0
aI0
aF0.0
aI0
aI0
aF0.0
aI4
aI4
aF1.0
aI0
aI0
aI0
aI0
aI1
aI0
aI1
aI1
aI4
aI3
aa(lp78
V0020700383
p79
aVDEC 21, 2007
p80
aVATL @ WAS
p81
aVW
p82
aI7
aI0
aI3
aF0.0
aI0
aI1
aF0.0
aI0
aI0
aF0.0
aI0
aI0
aI0
aI1
aI0
aI0
aI0
aI2
aI0
aI-5
aa(lp83
V0020700410
p84
aVDEC 26, 2007
p85
aVATL vs. IND
p86
aVW
p87
aI15
aI2
aI2
aF1.0
aI0
aI0
aF0.0
aI0
aI0
aF0.0
aI0
aI0
aI0
aI0
aI0
aI0
aI0
aI0
aI4
aI-2
aa(lp88
V0020700434
p89
aVDEC 29, 2007
p90
aVATL @ DAL
p91
aVL
p92
aI23
aI4
aI11
aF0.364
aI0
aI0
aF0.0
aI4
aI5
aF0.8
aI0
aI0
aI0
aI2
aI3
aI0
aI1
aI5
aI12
aI-1
aa(lp93
V0020700460
p94
aVJAN 02, 2008
p95
aVATL @ CLE
p96
aVL
p97
aI9
aI0
aI1
aF0.0
aI0
aI0
aF0.0
aI0
aI0
aF0.0
aI0
aI2
aI2
aI0
aI0
aI0
aI1
aI0
aI0
aI-4
aa(lp98
V0020700474
p99
aVJAN 04, 2008
p100
aVATL @ IND
p101
aVL
p102
aI24
aI4
aI9
aF0.444
aI1
aI3
aF0.333
aI2
aI2
aF1.0
aI0
aI0
aI0
aI2
aI0
aI0
aI1
aI3
aI11
aI2
aa(lp103
V0020700484
p104
aVJAN 05, 2008
p105
aVATL vs. NJN
p106
aVL
p107
aI13
aI2
aI4
aF0.5
aI0
aI1
aF0.0
aI3
aI3
aF1.0
aI0
aI1
aI1
aI4
aI1
aI0
aI2
aI2
aI7
aI7
aa(lp108
V0020700510
p109
aVJAN 09, 2008
p110
aVATL vs. CLE
p111
aVW
p112
aI17
aI1
aI2
aF0.5
aI0
aI1
aF0.0
aI1
aI2
aF0.5
aI1
aI0
aI1
aI1
aI1
aI0
aI3
aI1
aI3
aI1
aa(lp113
V0020700526
p114
aVJAN 11, 2008
p115
aVATL vs. WAS
p116
aVL
p117
aI7
aI0
aI1
aF0.0
aI0
aI0
aF0.0
aI0
aI0
aF0.0
aI0
aI0
aI0
aI1
aI0
aI0
aI2
aI1
aI0
aI-7
aa(lp118
V0020700542
p119
aVJAN 13, 2008
p120
aVATL vs. CHI
p121
aVW
p122
aI22
aI2
aI8
aF0.25
aI0
aI1
aF0.0
aI1
aI1
aF1.0
aI2
aI1
aI3
aI3
aI1
aI0
aI1
aI1
aI5
aI-5
aa(lp123
V0020700554
p124
aVJAN 15, 2008
p125
aVATL vs. DEN
p126
aVW
p127
aI22
aI3
aI9
aF0.333
aI0
aI2
aF0.0
aI0
aI0
aF0.0
aI0
aI1
aI1
aI5
aI0
aI0
aI1
aI0
aI6
aI9
aa(lp128
V0020700568
p129
aVJAN 16, 2008
p130
aVATL @ MIL
p131
aVL
p132
aI12
aI2
aI4
aF0.5
aI0
aI1
aF0.0
aI0
aI0
aF0.0
aI0
aI1
aI1
aI1
aI1
aI0
aI2
aI0
aI4
aI-5
aa(lp133
V0020700573
p134
aVJAN 18, 2008
p135
aVATL @ TOR
p136
aVL
p137
aI18
aI0
aI3
aF0.0
aI0
aI0
aF0.0
aI0
aI0
aF0.0
aI0
aI1
aI1
aI1
aI0
aI0
aI1
aI1
aI0
aI0
aa(lp138
V0020700599
p139
aVJAN 21, 2008
p140
aVATL vs. POR
p141
aVL
p142
aI20
aI3
aI4
aF0.75
aI1
aI1
aF1.0
aI0
aI0
aF0.0
aI2
aI3
aI5
aI5
aI0
aI0
aI0
aI3
aI7
aI5
aa(lp143
V0020700619
p144
aVJAN 23, 2008
p145
aVATL @ DEN
p146
aVL
p147
aI4
aI0
aI1
aF0.0
aI0
aI0
aF0.0
aI0
aI0
aF0.0
aI0
aI1
aI1
aI0
aI0
aI0
aI0
aI2
aI0
aI-11
aa(lp148
V0020700637
p149
aVJAN 25, 2008
p150
aVATL @ SEA
p151
aVW
p152
aI14
aI0
aI5
aF0.0
aI0
aI0
aF0.0
aI0
aI0
aF0.0
aI1
aI1
aI2
aI0
aI0
aI0
aI1
aI2
aI0
aI-4
aa(lp153
V0020700646
p154
aVJAN 27, 2008
p155
aVATL @ POR
p156
aVL
p157
aI16
aI2
aI3
aF0.667
aI0
aI1
aF0.0
aI0
aI0
aF0.0
aI0
aI0
aI0
aI2
aI0
aI0
aI0
aI0
aI4
aI-4
aa(lp158
V0020700662
p159
aVJAN 29, 2008
p160
aVATL @ PHX
p161
aVL
p162
aI27
aI4
aI10
aF0.4
aI0
aI1
aF0.0
aI0
aI0
aF0.0
aI0
aI1
aI1
aI4
aI0
aI0
aI2
aI1
aI8
aI-15
aa(lp163
V0020700674
p164
aVJAN 30, 2008
p165
aVATL @ LAC
p166
aVL
p167
aI10
aI1
aI4
aF0.25
aI0
aI1
aF0.0
aI0
aI0
aF0.0
aI1
aI1
aI2
aI2
aI0
aI0
aI1
aI1
aI2
aI13
aa(lp168
V0020700688
p169
aVFEB 02, 2008
p170
aVATL vs. NJN
p171
aVW
p172
aI21
aI0
aI1
aF0.0
aI0
aI0
aF0.0
aI0
aI0
aF0.0
aI0
aI0
aI0
aI8
aI0
aI0
aI0
aI0
aI0
aI10
aa(lp173
V0020700698
p174
aVFEB 04, 2008
p175
aVATL vs. PHI
p176
aVW
p177
aI5
aI0
aI2
aF0.0
aI0
aI1
aF0.0
aI0
aI0
aF0.0
aI0
aI0
aI0
aI0
aI0
aI0
aI0
aI0
aI0
aI-7
aa(lp178
V0020700730
p179
aVFEB 08, 2008
p180
aVATL vs. CLE
p181
aVL
p182
aI1
aI0
aI0
aF0.0
aI0
aI0
aF0.0
aI0
aI0
aF0.0
aI0
aI0
aI0
aI1
aI0
aI0
aI0
aI0
aI0
aI4
aa(lp183
V0020700741
p184
aVFEB 09, 2008
p185
aVATL @ HOU
p186
aVL
p187
aI23
aI3
aI8
aF0.375
aI0
aI0
aF0.0
aI3
aI4
aF0.75
aI1
aI0
aI1
aI2
aI0
aI0
aI0
aI0
aI9
aI1
aa(lp188
V0020700758
p189
aVFEB 12, 2008
p190
aVATL vs. DET
p191
aVL
p192
aI7
aI0
aI2
aF0.0
aI0
aI0
aF0.0
aI0
aI0
aF0.0
aI0
aI1
aI1
aI2
aI0
aI0
aI0
aI1
aI0
aI-6
aa(lp193
V0020700766
p194
aVFEB 13, 2008
p195
aVATL @ CHA
p196
aVL
p197
aI29
aI6
aI8
aF0.75
aI0
aI0
aF0.0
aI1
aI2
aF0.5
aI0
aI2
aI2
aI2
aI1
aI0
aI1
aI0
aI13
aI11
aa(lp198
V0020700789
p199
aVFEB 19, 2008
p200
aVATL @ LAL
p201
aVL
p202
aI32
aI6
aI10
aF0.6
aI0
aI0
aF0.0
aI4
aI4
aF1.0
aI0
aI1
aI1
aI3
aI3
aI0
aI2
aI2
aI16
aI-11
aa(lp203
V0020700797
p204
aVFEB 20, 2008
p205
aVATL @ SAC
p206
aVL
p207
aI17
aI2
aI6
aF0.333
aI1
aI1
aF1.0
aI2
aI2
aF1.0
aI0
aI2
aI2
aI0
aI0
aI0
aI1
aI0
aI7
aI1
aa(lp208
V0020700952
p209
aVMAR 12, 2008
p210
aVATL vs. HOU
p211
aVL
p212
aI10
aI0
aI4
aF0.0
aI0
aI0
aF0.0
aI0
aI0
aF0.0
aI0
aI0
aI0
aI0
aI1
aI0
aI0
aI0
aI0
aI-9
aa(lp213
V0020700967
p214
aVMAR 14, 2008
p215
aVATL vs. LAC
p216
aVW
p217
aI24
aI5
aI9
aF0.556
aI0
aI0
aF0.0
aI0
aI0
aF0.0
aI0
aI2
aI2
aI3
aI0
aI0
aI1
aI3
aI10
aI4
aa(lp218
V0020700985
p219
aVMAR 16, 2008
p220
aVATL @ NYK
p221
aVW
p222
aI17
aI0
aI3
aF0.0
aI0
aI0
aF0.0
aI2
aI4
aF0.5
aI0
aI1
aI1
aI1
aI0
aI0
aI2
aI3
aI2
aI4
aa(lp223
V0020700991
p224
aVMAR 17, 2008
p225
aVATL @ WAS
p226
aVW
p227
aI11
aI2
aI4
aF0.5
aI0
aI0
aF0.0
aI0
aI0
aF0.0
aI0
aI0
aI0
aI0
aI1
aI0
aI2
aI2
aI4
aI-7
aa(lp228
V0020701010
p229
aVMAR 19, 2008
p230
aVATL @ NJN
p231
aVL
p232
aI11
aI2
aI3
aF0.667
aI0
aI0
aF0.0
aI0
aI0
aF0.0
aI0
aI0
aI0
aI1
aI1
aI0
aI0
aI1
aI4
aI-4
aa(lp233
V0020701031
p234
aVMAR 22, 2008
p235
aVATL vs. ORL
p236
aVW
p237
aI4
aI0
aI1
aF0.0
aI0
aI0
aF0.0
aI0
aI0
aF0.0
aI0
aI0
aI0
aI0
aI0
aI0
aI1
aI0
aI0
aI-2
aa(lp238
V0020701054
p239
aVMAR 25, 2008
p240
aVATL @ CHI
p241
aVL
p242
aI5
aI1
aI3
aF0.333
aI0
aI0
aF0.0
aI0
aI0
aF0.0
aI0
aI0
aI0
aI0
aI1
aI0
aI0
aI0
aI2
aI2
aa(lp243
V0020701061
p244
aVMAR 26, 2008
p245
aVATL vs. MIL
p246
aVW
p247
aI16
aI4
aI4
aF1.0
aI0
aI0
aF0.0
aI2
aI3
aF0.667
aI0
aI0
aI0
aI3
aI0
aI0
aI0
aI1
aI10
aI9
aa(lp248
V0020701077
p249
aVMAR 28, 2008
p250
aVATL vs. CHI
p251
aVW
p252
aI5
aI0
aI0
aF0.0
aI0
aI0
aF0.0
aI0
aI0
aF0.0
aI0
aI0
aI0
aI0
aI0
aI0
aI0
aI0
aI0
aI-10
aa(lp253
V0020701092
p254
aVMAR 30, 2008
p255
aVATL vs. NYK
p256
aVW
p257
aI9
aI0
aI1
aF0.0
aI0
aI0
aF0.0
aI0
aI0
aF0.0
aI0
aI1
aI1
aI3
aI1
aI0
aI1
aI1
aI0
aI-6
aa(lp258
V0020701101
p259
aVMAR 31, 2008
p260
aVATL @ MEM
p261
aVW
p262
aI21
aI1
aI4
aF0.25
aI1
aI2
aF0.5
aI0
aI0
aF0.0
aI0
aI1
aI1
aI1
aI0
aI0
aI3
aI2
aI3
aI-19
aa(lp263
V0020701115
p264
aVAPR 02, 2008
p265
aVATL vs. TOR
p266
aVW
p267
aI4
aI0
aI0
aF0.0
aI0
aI0
aF0.0
aI0
aI0
aF0.0
aI1
aI0
aI1
aI2
aI0
aI0
aI0
aI0
aI0
aI-6
aa(lp268
V0020701127
p269
aVAPR 04, 2008
p270
aVATL vs. PHI
p271
aVL
p272
aI7
aI1
aI3
aF0.333
aI0
aI1
aF0.0
aI0
aI0
aF0.0
aI0
aI0
aI0
aI2
aI0
aI0
aI0
aI1
aI2
aI-6
aa(lp273
V0020701211
p274
aVAPR 15, 2008
p275
aVATL vs. ORL
p276
aVL
p277
aI16
aI5
aI5
aF1.0
aI0
aI0
aF0.0
aI1
aI1
aF1.0
aI0
aI2
aI2
aI4
aI0
aI0
aI0
aI1
aI11
aI8
aa(lp278
V0020701222
p279
aVAPR 16, 2008
p280
aVATL @ MIA
p281
aVL
p282
aI3
aI0
aI0
aF0.0
aI0
aI0
aF0.0
aI0
aI0
aF0.0
aI0
aI1
aI1
aI1
aI0
aI0
aI0
aI0
aI0
aI0
aasS'name'
p283
VAcie Law
p284
sS'weight'
p285
V202
p286
sS'age'
p287
I22
sS'experience'
p288
I0
sS'height'
p289
V6-3
p290
sS'position'
p291
VGuard
p292
s.