(dp0
S'stats'
p1
(lp2
(lp3
V0020700049
p4
aVNOV 06, 2007
p5
aVCHI vs. LAC
p6
aVL
p7
aI19
aI0
aI4
aF0.0
aI0
aI0
aF0.0
aI2
aI2
aF1.0
aI2
aI2
aI4
aI0
aI1
aI3
aI1
aI2
aI2
aI-3
aa(lp8
V0020700064
p9
aVNOV 08, 2007
p10
aVCHI vs. DET
p11
aVW
p12
aI12
aI0
aI0
aF0.0
aI0
aI0
aF0.0
aI2
aI4
aF0.5
aI5
aI0
aI5
aI4
aI1
aI0
aI3
aI2
aI2
aI6
aa(lp13
V0020700082
p14
aVNOV 10, 2007
p15
aVCHI vs. TOR
p16
aVL
p17
aI19
aI0
aI3
aF0.0
aI0
aI0
aF0.0
aI2
aI2
aF1.0
aI1
aI3
aI4
aI0
aI1
aI1
aI1
aI1
aI2
aI-6
aa(lp18
V0020700140
p19
aVNOV 17, 2007
p20
aVCHI @ LAC
p21
aVW
p22
aI2
aI0
aI0
aF0.0
aI0
aI0
aF0.0
aI0
aI0
aF0.0
aI0
aI0
aI0
aI0
aI0
aI0
aI0
aI1
aI0
aI1
aa(lp23
V0020700144
p24
aVNOV 18, 2007
p25
aVCHI @ LAL
p26
aVL
p27
aI6
aI0
aI1
aF0.0
aI0
aI0
aF0.0
aI0
aI0
aF0.0
aI2
aI1
aI3
aI1
aI0
aI0
aI0
aI0
aI0
aI-9
aa(lp28
V0020700155
p29
aVNOV 20, 2007
p30
aVCHI @ DEN
p31
aVL
p32
aI22
aI7
aI10
aF0.7
aI0
aI0
aF0.0
aI2
aI2
aF1.0
aI4
aI4
aI8
aI3
aI1
aI1
aI2
aI1
aI16
aI-4
aa(lp33
V0020700182
p34
aVNOV 24, 2007
p35
aVCHI @ NYK
p36
aVL
p37
aI7
aI1
aI1
aF1.0
aI0
aI0
aF0.0
aI0
aI0
aF0.0
aI0
aI0
aI0
aI1
aI0
aI0
aI1
aI2
aI2
aI-2
aa(lp38
V0020700192
p39
aVNOV 25, 2007
p40
aVCHI @ TOR
p41
aVL
p42
aI1
aI0
aI0
aF0.0
aI0
aI0
aF0.0
aI0
aI0
aF0.0
aI0
aI0
aI0
aI0
aI0
aI0
aI0
aI0
aI0
aI-2
aa(lp43
V0020700208
p44
aVNOV 27, 2007
p45
aVCHI vs. ATL
p46
aVW
p47
aI18
aI1
aI6
aF0.167
aI0
aI0
aF0.0
aI3
aI4
aF0.75
aI3
aI4
aI7
aI2
aI2
aI1
aI1
aI5
aI5
aI7
aa(lp48
V0020700239
p49
aVDEC 01, 2007
p50
aVCHI vs. CHA
p51
aVW
p52
aI4
aI0
aI0
aF0.0
aI0
aI0
aF0.0
aI0
aI0
aF0.0
aI0
aI0
aI0
aI1
aI0
aI0
aI0
aI1
aI0
aI-8
aa(lp53
V0020700253
p54
aVDEC 03, 2007
p55
aVCHI vs. DAL
p56
aVL
p57
aI14
aI2
aI7
aF0.286
aI0
aI0
aF0.0
aI3
aI4
aF0.75
aI5
aI2
aI7
aI0
aI1
aI1
aI1
aI2
aI7
aI-3
aa(lp58
V0020700265
p59
aVDEC 05, 2007
p60
aVCHI @ CHA
p61
aVW
p62
aI23
aI3
aI4
aF0.75
aI0
aI0
aF0.0
aI2
aI2
aF1.0
aI0
aI2
aI2
aI0
aI2
aI1
aI2
aI5
aI8
aI18
aa(lp63
V0020700279
p64
aVDEC 07, 2007
p65
aVCHI @ DET
p66
aVW
p67
aI16
aI4
aI7
aF0.571
aI0
aI0
aF0.0
aI3
aI4
aF0.75
aI1
aI1
aI2
aI0
aI1
aI1
aI0
aI1
aI11
aI4
aa(lp68
V0020700291
p69
aVDEC 08, 2007
p70
aVCHI vs. BOS
p71
aVL
p72
aI12
aI0
aI1
aF0.0
aI0
aI0
aF0.0
aI0
aI0
aF0.0
aI1
aI2
aI3
aI0
aI0
aI0
aI0
aI1
aI0
aI1
aa(lp73
V0020700311
p74
aVDEC 11, 2007
p75
aVCHI vs. SEA
p76
aVW
p77
aI12
aI1
aI4
aF0.25
aI0
aI0
aF0.0
aI1
aI2
aF0.5
aI1
aI2
aI3
aI2
aI2
aI0
aI0
aI3
aI3
aI6
aa(lp78
V0020700317
p79
aVDEC 12, 2007
p80
aVCHI @ IND
p81
aVL
p82
aI14
aI2
aI5
aF0.4
aI0
aI0
aF0.0
aI5
aI5
aF1.0
aI2
aI2
aI4
aI1
aI0
aI1
aI1
aI1
aI9
aI-3
aa(lp83
V0020700335
p84
aVDEC 14, 2007
p85
aVCHI vs. NYK
p86
aVW
p87
aI17
aI4
aI7
aF0.571
aI0
aI0
aF0.0
aI2
aI2
aF1.0
aI1
aI1
aI2
aI0
aI0
aI3
aI1
aI4
aI10
aI6
aa(lp88
V0020700365
p89
aVDEC 19, 2007
p90
aVCHI @ WAS
p91
aVW
p92
aI8
aI1
aI3
aF0.333
aI0
aI0
aF0.0
aI0
aI0
aF0.0
aI2
aI2
aI4
aI0
aI1
aI0
aI0
aI0
aI2
aI11
aa(lp93
V0020700381
p94
aVDEC 21, 2007
p95
aVCHI @ BOS
p96
aVL
p97
aI15
aI2
aI4
aF0.5
aI0
aI0
aF0.0
aI1
aI4
aF0.25
aI3
aI1
aI4
aI0
aI1
aI0
aI2
aI3
aI5
aI-14
aa(lp98
V0020700396
p99
aVDEC 22, 2007
p100
aVCHI vs. HOU
p101
aVL
p102
aI13
aI2
aI5
aF0.4
aI0
aI0
aF0.0
aI2
aI2
aF1.0
aI2
aI1
aI3
aI0
aI0
aI1
aI0
aI2
aI6
aI-2
aa(lp103
V0020700414
p104
aVDEC 26, 2007
p105
aVCHI @ SAS
p106
aVL
p107
aI6
aI0
aI1
aF0.0
aI0
aI0
aF0.0
aI0
aI0
aF0.0
aI0
aI1
aI1
aI1
aI0
aI1
aI0
aI0
aI0
aI-4
aa(lp108
V0020700443
p109
aVDEC 30, 2007
p110
aVCHI @ NYK
p111
aVW
p112
aI17
aI1
aI1
aF1.0
aI0
aI0
aF0.0
aI2
aI2
aF1.0
aI1
aI2
aI3
aI1
aI2
aI0
aI0
aI3
aI4
aI8
aa(lp113
V0020700450
p114
aVDEC 31, 2007
p115
aVCHI vs. ORL
p116
aVL
p117
aI4
aI0
aI0
aF0.0
aI0
aI0
aF0.0
aI0
aI0
aF0.0
aI0
aI1
aI1
aI0
aI1
aI0
aI0
aI0
aI0
aI-3
aa(lp118
V0020700458
p119
aVJAN 02, 2008
p120
aVCHI @ CHA
p121
aVW
p122
aI18
aI7
aI10
aF0.7
aI0
aI0
aF0.0
aI3
aI5
aF0.6
aI3
aI3
aI6
aI4
aI2
aI1
aI1
aI4
aI17
aI5
aa(lp123
V0020700469
p124
aVJAN 03, 2008
p125
aVCHI vs. POR
p126
aVL
p127
aI15
aI0
aI1
aF0.0
aI0
aI0
aF0.0
aI0
aI0
aF0.0
aI0
aI2
aI2
aI1
aI0
aI1
aI1
aI1
aI0
aI-7
aa(lp128
V0020700486
p129
aVJAN 05, 2008
p130
aVCHI vs. SAC
p131
aVW
p132
aI3
aI0
aI0
aF0.0
aI0
aI0
aF0.0
aI0
aI0
aF0.0
aI0
aI0
aI0
aI1
aI0
aI0
aI0
aI2
aI0
aI-4
aa(lp133
V0020700506
p134
aVJAN 08, 2008
p135
aVCHI vs. NYK
p136
aVL
p137
aI14
aI1
aI4
aF0.25
aI0
aI0
aF0.0
aI1
aI2
aF0.5
aI2
aI4
aI6
aI0
aI1
aI0
aI0
aI2
aI3
aI6
aa(lp138
V0020700555
p139
aVJAN 15, 2008
p140
aVCHI @ ORL
p141
aVL
p142
aI23
aI5
aI8
aF0.625
aI0
aI0
aF0.0
aI2
aI5
aF0.4
aI4
aI7
aI11
aI1
aI1
aI1
aI1
aI4
aI12
aI4
aa(lp143
V0020700564
p144
aVJAN 16, 2008
p145
aVCHI @ MIA
p146
aVW
p147
aI17
aI1
aI3
aF0.333
aI0
aI0
aF0.0
aI1
aI2
aF0.5
aI3
aI5
aI8
aI1
aI1
aI0
aI1
aI2
aI3
aI17
aa(lp148
V0020700582
p149
aVJAN 18, 2008
p150
aVCHI vs. GSW
p151
aVL
p152
aI16
aI0
aI1
aF0.0
aI0
aI0
aF0.0
aI2
aI6
aF0.333
aI2
aI5
aI7
aI1
aI0
aI0
aI1
aI2
aI2
aI5
aa(lp153
V0020700588
p154
aVJAN 19, 2008
p155
aVCHI vs. DET
p156
aVW
p157
aI23
aI1
aI2
aF0.5
aI0
aI0
aF0.0
aI2
aI4
aF0.5
aI1
aI7
aI8
aI1
aI2
aI1
aI2
aI1
aI4
aI8
aa(lp158
V0020700604
p159
aVJAN 21, 2008
p160
aVCHI @ MEM
p161
aVL
p162
aI23
aI2
aI3
aF0.667
aI0
aI0
aF0.0
aI0
aI0
aF0.0
aI3
aI1
aI4
aI2
aI1
aI0
aI1
aI2
aI4
aI0
aa(lp163
V0020700617
p164
aVJAN 23, 2008
p165
aVCHI vs. IND
p166
aVW
p167
aI34
aI6
aI9
aF0.667
aI0
aI0
aF0.0
aI2
aI2
aF1.0
aI6
aI9
aI15
aI1
aI3
aI0
aI2
aI2
aI14
aI17
aa(lp168
V0020700632
p169
aVJAN 25, 2008
p170
aVCHI vs. CHA
p171
aVL
p172
aI24
aI2
aI4
aF0.5
aI0
aI0
aF0.0
aI3
aI8
aF0.375
aI1
aI4
aI5
aI0
aI0
aI1
aI2
aI5
aI7
aI-5
aa(lp173
V0020700642
p174
aVJAN 27, 2008
p175
aVCHI vs. PHX
p176
aVL
p177
aI19
aI3
aI11
aF0.273
aI0
aI0
aF0.0
aI0
aI0
aF0.0
aI5
aI3
aI8
aI0
aI0
aI0
aI2
aI3
aI6
aI-19
aa(lp178
V0020700660
p179
aVJAN 29, 2008
p180
aVCHI vs. MIN
p181
aVW
p182
aI31
aI5
aI12
aF0.417
aI0
aI0
aF0.0
aI0
aI1
aF0.0
aI6
aI7
aI13
aI2
aI1
aI0
aI0
aI1
aI10
aI13
aa(lp183
V0020700670
p184
aVJAN 30, 2008
p185
aVCHI @ MIN
p186
aVL
p187
aI30
aI3
aI8
aF0.375
aI0
aI0
aF0.0
aI4
aI4
aF1.0
aI3
aI5
aI8
aI1
aI0
aI0
aI2
aI2
aI10
aI-12
aa(lp188
V0020700694
p189
aVFEB 02, 2008
p190
aVCHI @ SAC
p191
aVL
p192
aI28
aI3
aI6
aF0.5
aI0
aI0
aF0.0
aI4
aI4
aF1.0
aI1
aI6
aI7
aI2
aI0
aI0
aI3
aI4
aI10
aI-11
aa(lp193
V0020700706
p194
aVFEB 04, 2008
p195
aVCHI @ SEA
p196
aVW
p197
aI16
aI3
aI8
aF0.375
aI0
aI1
aF0.0
aI1
aI2
aF0.5
aI5
aI1
aI6
aI1
aI1
aI0
aI2
aI1
aI7
aI-4
aa(lp198
V0020700722
p199
aVFEB 06, 2008
p200
aVCHI @ POR
p201
aVL
p202
aI14
aI1
aI2
aF0.5
aI0
aI0
aF0.0
aI0
aI2
aF0.0
aI0
aI1
aI1
aI0
aI0
aI0
aI0
aI2
aI2
aI-9
aa(lp203
V0020700725
p204
aVFEB 07, 2008
p205
aVCHI @ GSW
p206
aVW
p207
aI15
aI2
aI5
aF0.4
aI0
aI0
aF0.0
aI2
aI3
aF0.667
aI2
aI8
aI10
aI0
aI0
aI1
aI3
aI1
aI6
aI10
aa(lp208
V0020700742
p209
aVFEB 09, 2008
p210
aVCHI @ UTA
p211
aVL
p212
aI19
aI1
aI2
aF0.5
aI0
aI0
aF0.0
aI0
aI2
aF0.0
aI1
aI1
aI2
aI3
aI0
aI0
aI1
aI3
aI2
aI-3
aa(lp213
V0020700763
p214
aVFEB 12, 2008
p215
aVCHI vs. NOH
p216
aVL
p217
aI22
aI1
aI4
aF0.25
aI0
aI0
aF0.0
aI2
aI2
aF1.0
aI1
aI5
aI6
aI2
aI0
aI2
aI0
aI2
aI4
aI-1
aa(lp218
V0020700778
p219
aVFEB 14, 2008
p220
aVCHI vs. MIA
p221
aVW
p222
aI15
aI2
aI5
aF0.4
aI0
aI0
aF0.0
aI0
aI0
aF0.0
aI1
aI1
aI2
aI1
aI0
aI0
aI0
aI2
aI4
aI-3
aa(lp223
V0020700793
p224
aVFEB 20, 2008
p225
aVCHI @ NJN
p226
aVL
p227
aI14
aI0
aI2
aF0.0
aI0
aI0
aF0.0
aI0
aI0
aF0.0
aI3
aI3
aI6
aI1
aI0
aI1
aI1
aI2
aI0
aI-3
aa(lp228
V0020700809
p229
aVFEB 22, 2008
p230
aVCHI vs. DEN
p231
aVW
p232
aI38
aI7
aI11
aF0.636
aI0
aI0
aF0.0
aI0
aI0
aF0.0
aI5
aI5
aI10
aI3
aI1
aI2
aI1
aI2
aI14
aI27
aa(lp233
V0020700829
p234
aVFEB 24, 2008
p235
aVCHI @ HOU
p236
aVL
p237
aI25
aI1
aI3
aF0.333
aI0
aI0
aF0.0
aI0
aI0
aF0.0
aI0
aI2
aI2
aI2
aI4
aI0
aI2
aI1
aI2
aI-2
aa(lp238
V0020700833
p239
aVFEB 25, 2008
p240
aVCHI @ DAL
p241
aVL
p242
aI18
aI2
aI4
aF0.5
aI0
aI0
aF0.0
aI0
aI2
aF0.0
aI1
aI2
aI3
aI0
aI0
aI2
aI3
aI0
aI4
aI-10
aa(lp243
V0020700848
p244
aVFEB 27, 2008
p245
aVCHI @ IND
p246
aVW
p247
aI26
aI4
aI5
aF0.8
aI0
aI0
aF0.0
aI3
aI6
aF0.5
aI1
aI6
aI7
aI0
aI2
aI1
aI2
aI4
aI11
aI5
aa(lp248
V0020700862
p249
aVFEB 29, 2008
p250
aVCHI vs. WAS
p251
aVL
p252
aI23
aI1
aI1
aF1.0
aI0
aI0
aF0.0
aI3
aI3
aF1.0
aI3
aI1
aI4
aI4
aI1
aI2
aI2
aI4
aI5
aI0
aa(lp253
V0020700875
p254
aVMAR 02, 2008
p255
aVCHI @ CLE
p256
aVL
p257
aI33
aI2
aI4
aF0.5
aI0
aI0
aF0.0
aI7
aI8
aF0.875
aI4
aI4
aI8
aI0
aI0
aI2
aI0
aI4
aI11
aI-12
aa(lp258
V0020700893
p259
aVMAR 04, 2008
p260
aVCHI vs. MEM
p261
aVW
p262
aI22
aI2
aI5
aF0.4
aI0
aI0
aF0.0
aI0
aI0
aF0.0
aI1
aI8
aI9
aI0
aI1
aI0
aI1
aI2
aI4
aI17
aa(lp263
V0020700909
p264
aVMAR 06, 2008
p265
aVCHI vs. CLE
p266
aVW
p267
aI32
aI5
aI9
aF0.556
aI0
aI0
aF0.0
aI3
aI4
aF0.75
aI10
aI10
aI20
aI2
aI0
aI1
aI1
aI5
aI13
aI17
aa(lp268
V0020700917
p269
aVMAR 07, 2008
p270
aVCHI @ BOS
p271
aVL
p272
aI31
aI3
aI8
aF0.375
aI0
aI0
aF0.0
aI4
aI4
aF1.0
aI2
aI5
aI7
aI2
aI2
aI0
aI4
aI3
aI10
aI-16
aa(lp273
V0020700937
p274
aVMAR 09, 2008
p275
aVCHI @ DET
p276
aVL
p277
aI33
aI6
aI9
aF0.667
aI0
aI0
aF0.0
aI3
aI3
aF1.0
aI3
aI2
aI5
aI3
aI1
aI0
aI0
aI2
aI15
aI1
aa(lp278
V0020700949
p279
aVMAR 11, 2008
p280
aVCHI vs. UTA
p281
aVW
p282
aI20
aI0
aI4
aF0.0
aI0
aI0
aF0.0
aI2
aI2
aF1.0
aI5
aI2
aI7
aI0
aI3
aI1
aI3
aI1
aI2
aI1
aa(lp283
V0020700971
p284
aVMAR 14, 2008
p285
aVCHI vs. PHI
p286
aVL
p287
aI22
aI3
aI5
aF0.6
aI0
aI0
aF0.0
aI1
aI1
aF1.0
aI3
aI3
aI6
aI2
aI0
aI0
aI2
aI4
aI7
aI8
aa(lp288
V0020700995
p289
aVMAR 17, 2008
p290
aVCHI @ NOH
p291
aVL
p292
aI33
aI2
aI3
aF0.667
aI0
aI0
aF0.0
aI0
aI0
aF0.0
aI1
aI3
aI4
aI0
aI2
aI0
aI0
aI3
aI4
aI-6
aa(lp293
V0020701001
p294
aVMAR 18, 2008
p295
aVCHI vs. NJN
p296
aVW
p297
aI20
aI2
aI4
aF0.5
aI0
aI0
aF0.0
aI1
aI2
aF0.5
aI2
aI3
aI5
aI2
aI1
aI0
aI2
aI0
aI5
aI5
aa(lp298
V0020701016
p299
aVMAR 20, 2008
p300
aVCHI vs. SAS
p301
aVL
p302
aI25
aI1
aI4
aF0.25
aI0
aI0
aF0.0
aI0
aI0
aF0.0
aI0
aI3
aI3
aI1
aI0
aI2
aI2
aI2
aI2
aI-26
aa(lp303
V0020701035
p304
aVMAR 22, 2008
p305
aVCHI vs. IND
p306
aVL
p307
aI23
aI7
aI9
aF0.778
aI0
aI0
aF0.0
aI2
aI2
aF1.0
aI4
aI4
aI8
aI0
aI0
aI2
aI1
aI2
aI16
aI-3
aa(lp308
V0020701054
p309
aVMAR 25, 2008
p310
aVCHI vs. ATL
p311
aVW
p312
aI29
aI5
aI8
aF0.625
aI0
aI0
aF0.0
aI3
aI3
aF1.0
aI3
aI6
aI9
aI1
aI3
aI3
aI1
aI5
aI13
aI13
aa(lp313
V0020701060
p314
aVMAR 26, 2008
p315
aVCHI @ PHI
p316
aVL
p317
aI25
aI2
aI5
aF0.4
aI0
aI0
aF0.0
aI6
aI7
aF0.857
aI2
aI3
aI5
aI1
aI1
aI1
aI3
aI3
aI10
aI-23
aa(lp318
V0020701077
p319
aVMAR 28, 2008
p320
aVCHI @ ATL
p321
aVL
p322
aI19
aI2
aI6
aF0.333
aI0
aI0
aF0.0
aI2
aI2
aF1.0
aI6
aI1
aI7
aI1
aI0
aI2
aI0
aI4
aI6
aI-7
aa(lp323
V0020701086
p324
aVMAR 29, 2008
p325
aVCHI vs. MIL
p326
aVW
p327
aI39
aI7
aI13
aF0.538
aI0
aI0
aF0.0
aI4
aI5
aF0.8
aI6
aI9
aI15
aI2
aI2
aI4
aI3
aI1
aI18
aI5
aa(lp328
V0020701109
p329
aVAPR 01, 2008
p330
aVCHI vs. BOS
p331
aVL
p332
aI36
aI2
aI6
aF0.333
aI0
aI0
aF0.0
aI2
aI4
aF0.5
aI3
aI5
aI8
aI3
aI3
aI1
aI3
aI1
aI6
aI-8
aa(lp333
V0020701123
p334
aVAPR 03, 2008
p335
aVCHI @ CLE
p336
aVW
p337
aI40
aI4
aI5
aF0.8
aI0
aI0
aF0.0
aI2
aI3
aF0.667
aI2
aI4
aI6
aI4
aI1
aI3
aI1
aI3
aI10
aI3
aa(lp338
V0020701141
p339
aVAPR 05, 2008
p340
aVCHI vs. WAS
p341
aVL
p342
aI34
aI1
aI4
aF0.25
aI0
aI0
aF0.0
aI5
aI12
aF0.417
aI0
aI2
aI2
aI1
aI1
aI1
aI1
aI4
aI7
aI-19
aa(lp343
V0020701155
p344
aVAPR 08, 2008
p345
aVCHI @ MIA
p346
aVL
p347
aI32
aI6
aI12
aF0.5
aI0
aI0
aF0.0
aI4
aI4
aF1.0
aI5
aI8
aI13
aI1
aI1
aI1
aI1
aI4
aI16
aI8
aa(lp348
V0020701167
p349
aVAPR 09, 2008
p350
aVCHI @ ORL
p351
aVL
p352
aI17
aI1
aI2
aF0.5
aI0
aI0
aF0.0
aI0
aI0
aF0.0
aI3
aI2
aI5
aI0
aI0
aI0
aI3
aI5
aI2
aI-12
aa(lp353
V0020701179
p354
aVAPR 11, 2008
p355
aVCHI vs. CLE
p356
aVW
p357
aI39
aI4
aI7
aF0.571
aI0
aI0
aF0.0
aI9
aI13
aF0.692
aI3
aI8
aI11
aI1
aI1
aI4
aI2
aI4
aI17
aI-3
aa(lp358
V0020701200
p359
aVAPR 13, 2008
p360
aVCHI vs. ORL
p361
aVL
p362
aI35
aI5
aI12
aF0.417
aI0
aI0
aF0.0
aI0
aI0
aF0.0
aI1
aI4
aI5
aI2
aI4
aI1
aI1
aI4
aI10
aI-11
aa(lp363
V0020701207
p364
aVAPR 14, 2008
p365
aVCHI @ MIL
p366
aVW
p367
aI20
aI6
aI9
aF0.667
aI0
aI0
aF0.0
aI3
aI4
aF0.75
aI1
aI1
aI2
aI0
aI2
aI0
aI2
aI4
aI15
aI-8
aa(lp368
V0020701225
p369
aVAPR 16, 2008
p370
aVCHI vs. TOR
p371
aVW
p372
aI30
aI4
aI6
aF0.667
aI0
aI0
aF0.0
aI4
aI5
aF0.8
aI5
aI4
aI9
aI3
aI1
aI4
aI0
aI2
aI12
aI21
aasS'name'
p373
VJoakim Noah
p374
sS'weight'
p375
V232
p376
sS'age'
p377
I22
sS'experience'
p378
I0
sS'height'
p379
V6-11
p380
sS'position'
p381
VCenter
p382
s.