(dp0
S'age'
p1
I22
sS'stats'
p2
(lp3
(lp4
V0020700155
p5
aVNOV 20, 2007
p6
aVCHI @ DEN
p7
aVL
p8
aI27
aI6
aI16
aF0.375
aI2
aI7
aF0.286
aI0
aI2
aF0.0
aI2
aI1
aI3
aI0
aI0
aI0
aI4
aI2
aI14
aI-4
aa(lp9
V0020700144
p10
aVNOV 18, 2007
p11
aVCHI @ LAL
p12
aVL
p13
aI12
aI1
aI3
aF0.333
aI0
aI2
aF0.0
aI0
aI0
aF0.0
aI1
aI0
aI1
aI0
aI0
aI0
aI0
aI1
aI2
aI1
aa(lp14
V0020700140
p15
aVNOV 17, 2007
p16
aVCHI @ LAC
p17
aVW
p18
aI2
aI1
aI2
aF0.5
aI1
aI2
aF0.5
aI0
aI0
aF0.0
aI0
aI0
aI0
aI0
aI0
aI0
aI0
aI0
aI3
aI-1
aa(lp19
V0020700118
p20
aVNOV 15, 2007
p21
aVCHI @ PHX
p22
aVL
p23
aI5
aI1
aI2
aF0.5
aI0
aI1
aF0.0
aI0
aI0
aF0.0
aI0
aI0
aI0
aI1
aI0
aI0
aI0
aI1
aI2
aI-5
aasS'name'
p24
VThomas Gardner
p25
sS'experience'
p26
I0
s.