(dp0
S'age'
p1
I26
sS'stats'
p2
(lp3
(lp4
V0020701218
p5
aVAPR 16, 2008
p6
aVWAS @ ORL
p7
aVL
p8
aI13
aI1
aI5
aF0.2
aI1
aI3
aF0.333
aI0
aI0
aF0.0
aI0
aI2
aI2
aI2
aI1
aI0
aI2
aI0
aI3
aI6
aa(lp9
V0020701205
p10
aVAPR 14, 2008
p11
aVWAS vs. IND
p12
aVW
p13
aI8
aI2
aI4
aF0.5
aI2
aI4
aF0.5
aI0
aI0
aF0.0
aI0
aI1
aI1
aI1
aI0
aI0
aI0
aI0
aI6
aI4
aa(lp14
V0020701188
p15
aVAPR 12, 2008
p16
aVWAS vs. PHI
p17
aVW
p18
aI32
aI6
aI11
aF0.545
aI5
aI7
aF0.714
aI2
aI2
aF1.0
aI1
aI3
aI4
aI7
aI1
aI0
aI0
aI1
aI19
aI9
aa(lp19
V0020701183
p20
aVAPR 11, 2008
p21
aVWAS @ DET
p22
aVL
p23
aI22
aI3
aI8
aF0.375
aI2
aI4
aF0.5
aI3
aI4
aF0.75
aI0
aI1
aI1
aI1
aI0
aI0
aI0
aI0
aI11
aI-7
aa(lp24
V0020701166
p25
aVAPR 09, 2008
p26
aVWAS vs. BOS
p27
aVW
p28
aI39
aI4
aI9
aF0.444
aI4
aI8
aF0.5
aI2
aI4
aF0.5
aI0
aI1
aI1
aI4
aI2
aI0
aI1
aI2
aI14
aI3
aa(lp29
V0020701141
p30
aVAPR 05, 2008
p31
aVWAS @ CHI
p32
aVW
p33
aI37
aI5
aI15
aF0.333
aI1
aI7
aF0.143
aI0
aI0
aF0.0
aI0
aI6
aI6
aI3
aI0
aI0
aI2
aI1
aI11
aI6
aa(lp34
V0020701128
p35
aVAPR 04, 2008
p36
aVWAS vs. MIA
p37
aVW
p38
aI33
aI4
aI11
aF0.364
aI4
aI7
aF0.571
aI0
aI0
aF0.0
aI0
aI4
aI4
aI2
aI0
aI0
aI0
aI1
aI12
aI17
aa(lp39
V0020701113
p40
aVAPR 02, 2008
p41
aVWAS vs. MIL
p42
aVL
p43
aI26
aI3
aI9
aF0.333
aI0
aI2
aF0.0
aI0
aI0
aF0.0
aI0
aI2
aI2
aI3
aI4
aI0
aI2
aI1
aI6
aI7
aa(lp44
V0020701102
p45
aVMAR 31, 2008
p46
aVWAS @ UTA
p47
aVL
p48
aI25
aI3
aI8
aF0.375
aI1
aI4
aF0.25
aI2
aI2
aF1.0
aI0
aI1
aI1
aI2
aI0
aI0
aI2
aI2
aI9
aI-18
aa(lp49
V0020701098
p50
aVMAR 30, 2008
p51
aVWAS @ LAL
p52
aVL
p53
aI43
aI9
aI15
aF0.6
aI8
aI12
aF0.667
aI1
aI2
aF0.5
aI0
aI3
aI3
aI2
aI0
aI0
aI0
aI2
aI27
aI0
aa(lp54
V0020701081
p55
aVMAR 28, 2008
p56
aVWAS @ SAC
p57
aVW
p58
aI37
aI7
aI11
aF0.636
aI3
aI6
aF0.5
aI3
aI3
aF1.0
aI1
aI4
aI5
aI3
aI1
aI0
aI0
aI3
aI20
aI17
aa(lp59
V0020701068
p60
aVMAR 26, 2008
p61
aVWAS @ SEA
p62
aVW
p63
aI29
aI3
aI11
aF0.273
aI2
aI7
aF0.286
aI3
aI3
aF1.0
aI1
aI0
aI1
aI3
aI0
aI0
aI2
aI4
aI11
aI-4
aa(lp64
V0020701057
p65
aVMAR 25, 2008
p66
aVWAS @ POR
p67
aVL
p68
aI28
aI3
aI8
aF0.375
aI2
aI3
aF0.667
aI0
aI0
aF0.0
aI1
aI2
aI3
aI1
aI0
aI0
aI0
aI1
aI8
aI-20
aa(lp69
V0020701042
p70
aVMAR 23, 2008
p71
aVWAS vs. DET
p72
aVW
p73
aI29
aI4
aI8
aF0.5
aI2
aI3
aF0.667
aI2
aI2
aF1.0
aI0
aI3
aI3
aI2
aI0
aI0
aI2
aI0
aI12
aI6
aa(lp74
V0020701023
p75
aVMAR 21, 2008
p76
aVWAS @ MIA
p77
aVW
p78
aI32
aI3
aI9
aF0.333
aI1
aI5
aF0.2
aI0
aI0
aF0.0
aI1
aI2
aI3
aI5
aI2
aI0
aI1
aI0
aI7
aI22
aa(lp79
V0020701008
p80
aVMAR 19, 2008
p81
aVWAS @ ORL
p82
aVW
p83
aI40
aI5
aI14
aF0.357
aI2
aI6
aF0.333
aI2
aI4
aF0.5
aI0
aI1
aI1
aI3
aI2
aI0
aI2
aI2
aI14
aI2
aa(lp84
V0020700991
p85
aVMAR 17, 2008
p86
aVWAS vs. ATL
p87
aVL
p88
aI34
aI3
aI8
aF0.375
aI3
aI7
aF0.429
aI4
aI4
aF1.0
aI0
aI1
aI1
aI3
aI2
aI0
aI1
aI1
aI13
aI-8
aa(lp89
V0020700977
p90
aVMAR 15, 2008
p91
aVWAS vs. LAC
p92
aVW
p93
aI36
aI4
aI9
aF0.444
aI2
aI6
aF0.333
aI1
aI2
aF0.5
aI0
aI2
aI2
aI4
aI1
aI1
aI1
aI1
aI11
aI7
aa(lp94
V0020700963
p95
aVMAR 13, 2008
p96
aVWAS vs. CLE
p97
aVW
p98
aI39
aI4
aI10
aF0.4
aI4
aI6
aF0.667
aI1
aI2
aF0.5
aI1
aI2
aI3
aI5
aI3
aI0
aI0
aI2
aI13
aI0
aa(lp99
V0020700946
p100
aVMAR 11, 2008
p101
aVWAS vs. MIL
p102
aVW
p103
aI33
aI0
aI2
aF0.0
aI0
aI1
aF0.0
aI3
aI4
aF0.75
aI0
aI3
aI3
aI6
aI0
aI0
aI1
aI2
aI3
aI-4
aa(lp104
V0020700925
p105
aVMAR 08, 2008
p106
aVWAS vs. CHA
p107
aVL
p108
aI33
aI3
aI11
aF0.273
aI2
aI10
aF0.2
aI3
aI4
aF0.75
aI0
aI3
aI3
aI6
aI0
aI0
aI1
aI2
aI11
aI-3
aa(lp109
V0020700912
p110
aVMAR 07, 2008
p111
aVWAS @ TOR
p112
aVW
p113
aI42
aI2
aI10
aF0.2
aI1
aI5
aF0.2
aI4
aI4
aF1.0
aI2
aI4
aI6
aI7
aI0
aI1
aI4
aI2
aI9
aI-7
aa(lp114
V0020700897
p115
aVMAR 05, 2008
p116
aVWAS vs. ORL
p117
aVL
p118
aI31
aI7
aI12
aF0.583
aI2
aI3
aF0.667
aI1
aI1
aF1.0
aI0
aI5
aI5
aI4
aI1
aI0
aI2
aI0
aI17
aI-25
aa(lp119
V0020700879
p120
aVMAR 02, 2008
p121
aVWAS vs. NOH
p122
aVW
p123
aI31
aI5
aI14
aF0.357
aI2
aI8
aF0.25
aI4
aI4
aF1.0
aI0
aI2
aI2
aI5
aI1
aI0
aI0
aI0
aI16
aI13
aa(lp124
V0020700862
p125
aVFEB 29, 2008
p126
aVWAS @ CHI
p127
aVW
p128
aI20
aI1
aI8
aF0.125
aI0
aI3
aF0.0
aI0
aI0
aF0.0
aI1
aI1
aI2
aI2
aI0
aI0
aI0
aI1
aI2
aI-14
aa(lp129
V0020700842
p130
aVFEB 26, 2008
p131
aVWAS @ HOU
p132
aVL
p133
aI29
aI2
aI12
aF0.167
aI0
aI2
aF0.0
aI1
aI3
aF0.333
aI0
aI1
aI1
aI2
aI0
aI0
aI0
aI0
aI5
aI-14
aa(lp134
V0020700832
p135
aVFEB 25, 2008
p136
aVWAS @ NOH
p137
aVW
p138
aI37
aI11
aI21
aF0.524
aI4
aI10
aF0.4
aI7
aI7
aF1.0
aI0
aI3
aI3
aI1
aI1
aI0
aI2
aI1
aI33
aI19
aa(lp139
V0020700816
p140
aVFEB 23, 2008
p141
aVWAS vs. CHA
p142
aVW
p143
aI36
aI6
aI11
aF0.545
aI4
aI7
aF0.571
aI4
aI4
aF1.0
aI0
aI3
aI3
aI3
aI1
aI0
aI0
aI1
aI20
aI10
aa(lp144
V0020700807
p145
aVFEB 22, 2008
p146
aVWAS @ CLE
p147
aVL
p148
aI41
aI5
aI13
aF0.385
aI4
aI8
aF0.5
aI4
aI4
aF1.0
aI0
aI2
aI2
aI3
aI1
aI0
aI0
aI3
aI18
aI0
aa(lp149
V0020700780
p150
aVFEB 19, 2008
p151
aVWAS vs. NYK
p152
aVL
p153
aI36
aI4
aI12
aF0.333
aI3
aI9
aF0.333
aI3
aI4
aF0.75
aI0
aI2
aI2
aI1
aI3
aI0
aI1
aI3
aI14
aI-11
aa(lp154
V0020700777
p155
aVFEB 13, 2008
p156
aVWAS @ LAC
p157
aVW
p158
aI32
aI5
aI11
aF0.455
aI0
aI3
aF0.0
aI3
aI4
aF0.75
aI1
aI1
aI2
aI3
aI1
aI0
aI2
aI3
aI13
aI-2
aa(lp159
V0020700757
p160
aVFEB 11, 2008
p161
aVWAS @ GSW
p162
aVL
p163
aI41
aI5
aI17
aF0.294
aI3
aI8
aF0.375
aI5
aI7
aF0.714
aI0
aI3
aI3
aI7
aI0
aI0
aI4
aI4
aI18
aI-5
aa(lp164
V0020700750
p165
aVFEB 10, 2008
p166
aVWAS @ PHX
p167
aVL
p168
aI34
aI4
aI15
aF0.267
aI3
aI5
aF0.6
aI7
aI7
aF1.0
aI1
aI1
aI2
aI2
aI1
aI0
aI1
aI0
aI18
aI-3
aa(lp169
V0020700736
p170
aVFEB 08, 2008
p171
aVWAS @ DEN
p172
aVL
p173
aI36
aI5
aI14
aF0.357
aI2
aI5
aF0.4
aI3
aI4
aF0.75
aI1
aI0
aI1
aI3
aI0
aI0
aI2
aI2
aI15
aI-13
aa(lp174
V0020700712
p175
aVFEB 06, 2008
p176
aVWAS vs. SAS
p177
aVL
p178
aI34
aI4
aI13
aF0.308
aI2
aI7
aF0.286
aI1
aI1
aF1.0
aI1
aI3
aI4
aI1
aI0
aI0
aI3
aI3
aI11
aI-1
aa(lp179
V0020700707
p180
aVFEB 05, 2008
p181
aVWAS @ PHI
p182
aVL
p183
aI30
aI6
aI14
aF0.429
aI5
aI10
aF0.5
aI2
aI2
aF1.0
aI0
aI2
aI2
aI0
aI0
aI0
aI3
aI1
aI19
aI-4
aa(lp184
V0020700696
p185
aVFEB 03, 2008
p186
aVWAS vs. LAL
p187
aVL
p188
aI18
aI1
aI1
aF1.0
aI1
aI1
aF1.0
aI0
aI0
aF0.0
aI0
aI1
aI1
aI2
aI0
aI0
aI1
aI3
aI3
aI-8
aa(lp189
V0020700681
p190
aVFEB 01, 2008
p191
aVWAS vs. UTA
p192
aVL
p193
aI35
aI1
aI9
aF0.111
aI0
aI7
aF0.0
aI3
aI6
aF0.5
aI0
aI2
aI2
aI2
aI2
aI2
aI0
aI2
aI5
aI-2
aa(lp194
V0020700665
p195
aVJAN 30, 2008
p196
aVWAS @ TOR
p197
aVL
p198
aI31
aI3
aI7
aF0.429
aI1
aI3
aF0.333
aI9
aI10
aF0.9
aI0
aI5
aI5
aI4
aI1
aI0
aI0
aI0
aI16
aI-19
aa(lp199
V0020700656
p200
aVJAN 29, 2008
p201
aVWAS vs. TOR
p202
aVW
p203
aI41
aI7
aI16
aF0.438
aI5
aI11
aF0.455
aI1
aI1
aF1.0
aI0
aI2
aI2
aI2
aI0
aI0
aI2
aI0
aI20
aI13
aa(lp204
V0020700645
p205
aVJAN 27, 2008
p206
aVWAS @ MIL
p207
aVL
p208
aI39
aI4
aI13
aF0.308
aI3
aI9
aF0.333
aI0
aI0
aF0.0
aI1
aI3
aI4
aI3
aI2
aI1
aI1
aI1
aI11
aI-6
aa(lp209
V0020700626
p210
aVJAN 25, 2008
p211
aVWAS vs. MEM
p212
aVW
p213
aI39
aI4
aI9
aF0.444
aI2
aI6
aF0.333
aI3
aI5
aF0.6
aI0
aI6
aI6
aI5
aI3
aI0
aI2
aI0
aI13
aI18
aa(lp214
V0020700612
p215
aVJAN 23, 2008
p216
aVWAS @ CLE
p217
aVL
p218
aI21
aI2
aI8
aF0.25
aI1
aI5
aF0.2
aI2
aI2
aF1.0
aI0
aI0
aI0
aI1
aI0
aI0
aI0
aI0
aI7
aI-22
aa(lp219
V0020700596
p220
aVJAN 21, 2008
p221
aVWAS vs. DAL
p222
aVW
p223
aI38
aI7
aI11
aF0.636
aI4
aI6
aF0.667
aI0
aI0
aF0.0
aI1
aI3
aI4
aI3
aI0
aI1
aI2
aI1
aI18
aI17
aa(lp224
V0020700574
p225
aVJAN 18, 2008
p226
aVWAS vs. NYK
p227
aVW
p228
aI28
aI3
aI8
aF0.375
aI0
aI3
aF0.0
aI2
aI2
aF1.0
aI1
aI3
aI4
aI4
aI1
aI0
aI1
aI1
aI8
aI7
aa(lp229
V0020700556
p230
aVJAN 15, 2008
p231
aVWAS @ NYK
p232
aVL
p233
aI40
aI1
aI6
aF0.167
aI1
aI4
aF0.25
aI1
aI2
aF0.5
aI1
aI2
aI3
aI4
aI1
aI0
aI1
aI1
aI4
aI-8
aa(lp234
V0020700548
p235
aVJAN 14, 2008
p236
aVWAS @ BOS
p237
aVW
p238
aI35
aI4
aI10
aF0.4
aI4
aI7
aF0.571
aI4
aI4
aF1.0
aI1
aI3
aI4
aI4
aI4
aI0
aI2
aI2
aI16
aI19
aa(lp239
V0020700534
p240
aVJAN 12, 2008
p241
aVWAS vs. BOS
p242
aVW
p243
aI33
aI5
aI11
aF0.455
aI1
aI5
aF0.2
aI8
aI8
aF1.0
aI1
aI5
aI6
aI2
aI1
aI0
aI0
aI1
aI19
aI4
aa(lp244
V0020700526
p245
aVJAN 11, 2008
p246
aVWAS @ ATL
p247
aVW
p248
aI40
aI6
aI13
aF0.462
aI3
aI5
aF0.6
aI4
aI4
aF1.0
aI1
aI4
aI5
aI3
aI0
aI2
aI1
aI2
aI19
aI15
aa(lp249
V0020700501
p250
aVJAN 08, 2008
p251
aVWAS vs. HOU
p252
aVL
p253
aI26
aI4
aI7
aF0.571
aI1
aI3
aF0.333
aI3
aI4
aF0.75
aI0
aI1
aI1
aI2
aI2
aI0
aI2
aI1
aI12
aI-12
aa(lp254
V0020700491
p255
aVJAN 06, 2008
p256
aVWAS vs. SEA
p257
aVW
p258
aI34
aI5
aI10
aF0.5
aI1
aI4
aF0.25
aI2
aI2
aF1.0
aI1
aI1
aI2
aI1
aI0
aI0
aI3
aI0
aI13
aI16
aa(lp259
V0020700479
p260
aVJAN 04, 2008
p261
aVWAS @ MIL
p262
aVW
p263
aI29
aI4
aI9
aF0.444
aI1
aI2
aF0.5
aI0
aI0
aF0.0
aI3
aI4
aI7
aI4
aI0
aI0
aI3
aI1
aI9
aI37
aa(lp264
V0020700457
p265
aVJAN 02, 2008
p266
aVWAS vs. DET
p267
aVL
p268
aI34
aI2
aI7
aF0.286
aI2
aI5
aF0.4
aI3
aI4
aF0.75
aI2
aI1
aI3
aI4
aI0
aI0
aI0
aI2
aI9
aI-4
aa(lp269
V0020700435
p270
aVDEC 29, 2007
p271
aVWAS vs. MIA
p272
aVW
p273
aI25
aI2
aI6
aF0.333
aI1
aI4
aF0.25
aI0
aI0
aF0.0
aI0
aI1
aI1
aI6
aI2
aI0
aI4
aI2
aI5
aI24
aa(lp274
V0020700423
p275
aVDEC 28, 2007
p276
aVWAS @ NJN
p277
aVL
p278
aI27
aI1
aI7
aF0.143
aI1
aI4
aF0.25
aI1
aI2
aF0.5
aI0
aI2
aI2
aI5
aI0
aI0
aI0
aI1
aI4
aI4
aa(lp279
V0020700409
p280
aVDEC 26, 2007
p281
aVWAS @ CHA
p282
aVW
p283
aI30
aI2
aI7
aF0.286
aI1
aI4
aF0.25
aI0
aI0
aF0.0
aI0
aI2
aI2
aI5
aI0
aI0
aI2
aI1
aI5
aI-5
aa(lp284
V0020700391
p285
aVDEC 22, 2007
p286
aVWAS @ IND
p287
aVL
p288
aI35
aI4
aI10
aF0.4
aI2
aI6
aF0.333
aI0
aI0
aF0.0
aI0
aI4
aI4
aI3
aI2
aI0
aI2
aI3
aI10
aI-5
aa(lp289
V0020700383
p290
aVDEC 21, 2007
p291
aVWAS vs. ATL
p292
aVL
p293
aI43
aI5
aI12
aF0.417
aI3
aI9
aF0.333
aI5
aI6
aF0.833
aI1
aI1
aI2
aI4
aI2
aI0
aI2
aI3
aI18
aI-7
aa(lp294
V0020700365
p295
aVDEC 19, 2007
p296
aVWAS vs. CHI
p297
aVL
p298
aI44
aI3
aI10
aF0.3
aI2
aI7
aF0.286
aI0
aI0
aF0.0
aI0
aI2
aI2
aI4
aI2
aI0
aI4
aI2
aI8
aI-8
aa(lp299
V0020700339
p300
aVDEC 15, 2007
p301
aVWAS vs. SAC
p302
aVW
p303
aI45
aI6
aI12
aF0.5
aI5
aI8
aF0.625
aI2
aI2
aF1.0
aI1
aI2
aI3
aI7
aI0
aI0
aI0
aI2
aI19
aI13
aa(lp304
V0020700325
p305
aVDEC 13, 2007
p306
aVWAS @ MIA
p307
aVW
p308
aI35
aI8
aI15
aF0.533
aI6
aI12
aF0.5
aI4
aI4
aF1.0
aI0
aI3
aI3
aI3
aI2
aI0
aI0
aI1
aI26
aI19
aa(lp309
V0020700306
p310
aVDEC 11, 2007
p311
aVWAS vs. MIN
p312
aVW
p313
aI31
aI5
aI15
aF0.333
aI4
aI10
aF0.4
aI0
aI0
aF0.0
aI0
aI3
aI3
aI5
aI1
aI0
aI0
aI0
aI14
aI0
aa(lp314
V0020700298
p315
aVDEC 09, 2007
p316
aVWAS vs. NJN
p317
aVW
p318
aI37
aI5
aI11
aF0.455
aI1
aI5
aF0.2
aI1
aI1
aF1.0
aI0
aI3
aI3
aI0
aI1
aI1
aI3
aI0
aI12
aI11
aa(lp319
V0020700277
p320
aVDEC 07, 2007
p321
aVWAS vs. PHX
p322
aVL
p323
aI18
aI1
aI5
aF0.2
aI0
aI2
aF0.0
aI0
aI2
aF0.0
aI1
aI0
aI1
aI2
aI1
aI0
aI0
aI0
aI2
aI-20
aa(lp324
V0020700264
p325
aVDEC 05, 2007
p326
aVWAS vs. CLE
p327
aVW
p328
aI19
aI0
aI3
aF0.0
aI0
aI3
aF0.0
aI0
aI0
aF0.0
aI0
aI2
aI2
aI2
aI1
aI0
aI4
aI1
aI0
aI7
aa(lp329
V0020700235
p330
aVDEC 01, 2007
p331
aVWAS vs. TOR
p332
aVW
p333
aI28
aI4
aI6
aF0.667
aI2
aI4
aF0.5
aI1
aI2
aF0.5
aI0
aI3
aI3
aI4
aI1
aI0
aI1
aI0
aI11
aI6
aa(lp334
V0020700225
p335
aVNOV 30, 2007
p336
aVWAS @ PHI
p337
aVL
p338
aI37
aI4
aI14
aF0.286
aI0
aI6
aF0.0
aI2
aI2
aF1.0
aI0
aI4
aI4
aI7
aI0
aI0
aI1
aI1
aI10
aI-4
aa(lp339
V0020700216
p340
aVNOV 28, 2007
p341
aVWAS @ SAS
p342
aVL
p343
aI32
aI4
aI8
aF0.5
aI2
aI4
aF0.5
aI0
aI0
aF0.0
aI0
aI3
aI3
aI2
aI0
aI0
aI2
aI3
aI10
aI-8
aa(lp344
V0020700199
p345
aVNOV 26, 2007
p346
aVWAS @ DAL
p347
aVW
p348
aI38
aI5
aI16
aF0.313
aI1
aI4
aF0.25
aI2
aI2
aF1.0
aI0
aI3
aI3
aI1
aI1
aI0
aI1
aI3
aI13
aI1
aa(lp349
V0020700187
p350
aVNOV 24, 2007
p351
aVWAS @ MEM
p352
aVL
p353
aI23
aI3
aI5
aF0.6
aI0
aI0
aF0.0
aI1
aI2
aF0.5
aI0
aI2
aI2
aI1
aI1
aI0
aI0
aI2
aI7
aI-6
aa(lp354
V0020700170
p355
aVNOV 23, 2007
p356
aVWAS vs. GSW
p357
aVL
p358
aI30
aI3
aI6
aF0.5
aI2
aI3
aF0.667
aI0
aI0
aF0.0
aI0
aI3
aI3
aI2
aI0
aI0
aI0
aI0
aI8
aI-8
aa(lp359
V0020700157
p360
aVNOV 21, 2007
p361
aVWAS @ CHA
p362
aVW
p363
aI32
aI2
aI10
aF0.2
aI0
aI3
aF0.0
aI3
aI6
aF0.5
aI1
aI3
aI4
aI1
aI0
aI0
aI0
aI1
aI7
aI-2
aa(lp364
V0020700149
p365
aVNOV 20, 2007
p366
aVWAS vs. PHI
p367
aVW
p368
aI29
aI8
aI12
aF0.667
aI4
aI6
aF0.667
aI2
aI3
aF0.667
aI0
aI5
aI5
aI2
aI0
aI2
aI0
aI1
aI22
aI31
aa(lp369
V0020700131
p370
aVNOV 17, 2007
p371
aVWAS vs. POR
p372
aVW
p373
aI24
aI0
aI0
aF0.0
aI0
aI0
aF0.0
aI0
aI0
aF0.0
aI0
aI2
aI2
aI4
aI1
aI0
aI1
aI3
aI0
aI25
aa(lp374
V0020700127
p375
aVNOV 16, 2007
p376
aVWAS @ MIN
p377
aVW
p378
aI25
aI2
aI4
aF0.5
aI0
aI0
aF0.0
aI3
aI4
aF0.75
aI1
aI2
aI3
aI3
aI0
aI0
aI2
aI0
aI7
aI8
aa(lp379
V0020700105
p380
aVNOV 14, 2007
p381
aVWAS vs. IND
p382
aVW
p383
aI24
aI1
aI3
aF0.333
aI1
aI2
aF0.5
aI0
aI0
aF0.0
aI0
aI5
aI5
aI3
aI0
aI0
aI1
aI2
aI3
aI6
aa(lp384
V0020700086
p385
aVNOV 11, 2007
p386
aVWAS @ ATL
p387
aVW
p388
aI24
aI4
aI6
aF0.667
aI2
aI3
aF0.667
aI1
aI2
aF0.5
aI0
aI4
aI4
aI3
aI0
aI0
aI1
aI1
aI11
aI12
aa(lp389
V0020700071
p390
aVNOV 09, 2007
p391
aVWAS vs. DEN
p392
aVL
p393
aI18
aI0
aI6
aF0.0
aI0
aI1
aF0.0
aI0
aI0
aF0.0
aI2
aI1
aI3
aI5
aI1
aI2
aI1
aI1
aI0
aI-12
aa(lp394
V0020700063
p395
aVNOV 08, 2007
p396
aVWAS @ NJN
p397
aVL
p398
aI13
aI0
aI4
aF0.0
aI0
aI0
aF0.0
aI0
aI0
aF0.0
aI0
aI1
aI1
aI2
aI0
aI1
aI1
aI3
aI0
aI10
aa(lp399
V0020700029
p400
aVNOV 03, 2007
p401
aVWAS vs. ORL
p402
aVL
p403
aI24
aI2
aI6
aF0.333
aI0
aI1
aF0.0
aI1
aI2
aF0.5
aI3
aI3
aI6
aI2
aI0
aI0
aI3
aI0
aI5
aI-15
aa(lp404
V0020700021
p405
aVNOV 02, 2007
p406
aVWAS @ BOS
p407
aVL
p408
aI34
aI2
aI9
aF0.222
aI0
aI3
aF0.0
aI2
aI3
aF0.667
aI1
aI2
aI3
aI1
aI0
aI0
aI1
aI1
aI6
aI-18
aa(lp409
V0020700006
p410
aVOCT 31, 2007
p411
aVWAS @ IND
p412
aVL
p413
aI18
aI1
aI4
aF0.25
aI1
aI2
aF0.5
aI0
aI0
aF0.0
aI0
aI1
aI1
aI1
aI0
aI1
aI0
aI2
aI3
aI6
aasS'name'
p414
VDeShawn Stevenson
p415
sS'experience'
p416
I7
s.