(dp0
S'age'
p1
I29
sS'stats'
p2
(lp3
(lp4
V0020700003
p5
aVOCT 30, 2007
p6
aVUTA @ GSW
p7
aVW
p8
aI16
aI1
aI6
aF0.167
aI0
aI1
aF0.0
aI3
aI3
aF1.0
aI0
aI1
aI1
aI1
aI1
aI0
aI4
aI4
aI5
aI-3
aa(lp9
V0020700013
p10
aVNOV 01, 2007
p11
aVUTA vs. HOU
p12
aVL
p13
aI9
aI0
aI4
aF0.0
aI0
aI1
aF0.0
aI0
aI0
aF0.0
aI0
aI1
aI1
aI2
aI0
aI0
aI0
aI1
aI0
aI-7
aa(lp14
V0020700034
p15
aVNOV 03, 2007
p16
aVUTA vs. GSW
p17
aVW
p18
aI11
aI1
aI2
aF0.5
aI0
aI0
aF0.0
aI0
aI0
aF0.0
aI0
aI1
aI1
aI4
aI0
aI0
aI0
aI3
aI2
aI4
aa(lp19
V0020700042
p20
aVNOV 04, 2007
p21
aVUTA @ LAL
p22
aVL
p23
aI8
aI0
aI1
aF0.0
aI0
aI1
aF0.0
aI0
aI0
aF0.0
aI0
aI0
aI0
aI2
aI1
aI0
aI2
aI0
aI0
aI-7
aa(lp24
V0020700060
p25
aVNOV 07, 2007
p26
aVUTA vs. CLE
p27
aVW
p28
aI3
aI0
aI2
aF0.0
aI0
aI0
aF0.0
aI0
aI0
aF0.0
aI0
aI2
aI2
aI0
aI0
aI0
aI0
aI0
aI0
aI-3
aa(lp29
V0020700078
p30
aVNOV 09, 2007
p31
aVUTA @ SEA
p32
aVW
p33
aI8
aI0
aI2
aF0.0
aI0
aI0
aF0.0
aI1
aI2
aF0.5
aI0
aI0
aI0
aI2
aI0
aI0
aI0
aI1
aI1
aI-2
aa(lp34
V0020700083
p35
aVNOV 10, 2007
p36
aVUTA vs. MEM
p37
aVW
p38
aI9
aI2
aI4
aF0.5
aI0
aI0
aF0.0
aI1
aI2
aF0.5
aI0
aI0
aI0
aI2
aI0
aI0
aI1
aI0
aI5
aI1
aa(lp39
V0020700095
p40
aVNOV 12, 2007
p41
aVUTA vs. SAC
p42
aVW
p43
aI9
aI3
aI5
aF0.6
aI0
aI0
aF0.0
aI1
aI1
aF1.0
aI0
aI0
aI0
aI0
aI0
aI0
aI0
aI1
aI7
aI9
aa(lp44
V0020700104
p45
aVNOV 14, 2007
p46
aVUTA @ TOR
p47
aVW
p48
aI8
aI0
aI2
aF0.0
aI0
aI0
aF0.0
aI0
aI0
aF0.0
aI0
aI1
aI1
aI3
aI0
aI0
aI0
aI1
aI0
aI10
aa(lp49
V0020700124
p50
aVNOV 16, 2007
p51
aVUTA @ CLE
p52
aVL
p53
aI12
aI3
aI4
aF0.75
aI1
aI1
aF1.0
aI0
aI0
aF0.0
aI1
aI2
aI3
aI3
aI1
aI0
aI0
aI1
aI7
aI17
aa(lp54
V0020700133
p55
aVNOV 17, 2007
p56
aVUTA @ IND
p57
aVL
p58
aI21
aI2
aI7
aF0.286
aI0
aI2
aF0.0
aI3
aI3
aF1.0
aI0
aI3
aI3
aI4
aI0
aI0
aI0
aI1
aI7
aI-2
aa(lp59
V0020700178
p60
aVNOV 23, 2007
p61
aVUTA vs. NOH
p62
aVW
p63
aI19
aI4
aI7
aF0.571
aI3
aI4
aF0.75
aI0
aI0
aF0.0
aI1
aI2
aI3
aI2
aI1
aI0
aI3
aI2
aI11
aI18
aa(lp64
V0020700194
p65
aVNOV 25, 2007
p66
aVUTA @ DET
p67
aVW
p68
aI7
aI0
aI2
aF0.0
aI0
aI1
aF0.0
aI2
aI2
aF1.0
aI0
aI0
aI0
aI2
aI0
aI0
aI0
aI3
aI2
aI-6
aa(lp69
V0020700197
p70
aVNOV 26, 2007
p71
aVUTA @ NYK
p72
aVL
p73
aI7
aI2
aI2
aF1.0
aI0
aI0
aF0.0
aI0
aI0
aF0.0
aI0
aI0
aI0
aI1
aI1
aI0
aI1
aI0
aI4
aI-6
aa(lp74
V0020700212
p75
aVNOV 28, 2007
p76
aVUTA @ PHI
p77
aVW
p78
aI16
aI2
aI2
aF1.0
aI0
aI0
aF0.0
aI0
aI0
aF0.0
aI0
aI2
aI2
aI3
aI0
aI0
aI0
aI3
aI4
aI-8
aa(lp79
V0020700231
p80
aVNOV 30, 2007
p81
aVUTA vs. LAL
p82
aVW
p83
aI14
aI2
aI6
aF0.333
aI1
aI2
aF0.5
aI0
aI0
aF0.0
aI0
aI0
aI0
aI0
aI2
aI0
aI1
aI0
aI5
aI9
aa(lp84
V0020700254
p85
aVDEC 03, 2007
p86
aVUTA vs. MIA
p87
aVW
p88
aI10
aI0
aI1
aF0.0
aI0
aI0
aF0.0
aI0
aI0
aF0.0
aI0
aI1
aI1
aI1
aI0
aI0
aI1
aI1
aI0
aI-9
aa(lp89
V0020700260
p90
aVDEC 04, 2007
p91
aVUTA @ SAC
p92
aVL
p93
aI5
aI1
aI1
aF1.0
aI0
aI0
aF0.0
aI0
aI0
aF0.0
aI0
aI0
aI0
aI1
aI0
aI0
aI0
aI2
aI2
aI-1
aa(lp94
V0020700283
p95
aVDEC 07, 2007
p96
aVUTA @ SAS
p97
aVL
p98
aI7
aI1
aI3
aF0.333
aI0
aI0
aF0.0
aI0
aI0
aF0.0
aI0
aI1
aI1
aI0
aI1
aI0
aI0
aI1
aI2
aI-3
aa(lp99
V0020700292
p100
aVDEC 08, 2007
p101
aVUTA @ DAL
p102
aVL
p103
aI14
aI1
aI3
aF0.333
aI0
aI0
aF0.0
aI2
aI3
aF0.667
aI0
aI1
aI1
aI0
aI1
aI1
aI0
aI0
aI4
aI-4
aa(lp104
V0020700312
p105
aVDEC 11, 2007
p106
aVUTA vs. POR
p107
aVL
p108
aI14
aI2
aI7
aF0.286
aI1
aI2
aF0.5
aI0
aI0
aF0.0
aI0
aI2
aI2
aI0
aI1
aI0
aI2
aI2
aI5
aI11
aa(lp109
V0020700324
p110
aVDEC 12, 2007
p111
aVUTA @ PHX
p112
aVL
p113
aI22
aI0
aI5
aF0.0
aI0
aI0
aF0.0
aI1
aI2
aF0.5
aI1
aI3
aI4
aI1
aI1
aI0
aI0
aI2
aI1
aI1
aa(lp114
V0020700349
p115
aVDEC 15, 2007
p116
aVUTA vs. SEA
p117
aVW
p118
aI12
aI1
aI3
aF0.333
aI1
aI1
aF1.0
aI0
aI0
aF0.0
aI0
aI1
aI1
aI2
aI0
aI0
aI0
aI1
aI3
aI6
aa(lp119
V0020700354
p120
aVDEC 17, 2007
p121
aVUTA @ ATL
p122
aVL
p123
aI8
aI0
aI2
aF0.0
aI0
aI1
aF0.0
aI0
aI0
aF0.0
aI0
aI0
aI0
aI1
aI0
aI0
aI0
aI3
aI0
aI-6
aa(lp124
V0020700366
p125
aVDEC 19, 2007
p126
aVUTA @ CHA
p127
aVL
p128
aI27
aI3
aI6
aF0.5
aI2
aI2
aF1.0
aI2
aI2
aF1.0
aI0
aI5
aI5
aI3
aI3
aI1
aI1
aI2
aI10
aI-6
aa(lp129
V0020700385
p130
aVDEC 21, 2007
p131
aVUTA @ ORL
p132
aVW
p133
aI15
aI0
aI2
aF0.0
aI0
aI0
aF0.0
aI2
aI2
aF1.0
aI0
aI1
aI1
aI2
aI1
aI1
aI1
aI0
aI2
aI6
aa(lp134
V0020700393
p135
aVDEC 22, 2007
p136
aVUTA @ MIA
p137
aVL
p138
aI14
aI0
aI3
aF0.0
aI0
aI2
aF0.0
aI0
aI1
aF0.0
aI0
aI1
aI1
aI2
aI0
aI0
aI0
aI1
aI0
aI-3
aa(lp139
V0020700416
p140
aVDEC 26, 2007
p141
aVUTA vs. DAL
p142
aVW
p143
aI6
aI1
aI3
aF0.333
aI0
aI1
aF0.0
aI2
aI2
aF1.0
aI0
aI0
aI0
aI1
aI0
aI0
aI0
aI3
aI4
aI-5
aa(lp144
V0020700432
p145
aVDEC 28, 2007
p146
aVUTA @ LAL
p147
aVL
p148
aI19
aI2
aI7
aF0.286
aI0
aI1
aF0.0
aI0
aI0
aF0.0
aI0
aI1
aI1
aI3
aI3
aI0
aI1
aI3
aI4
aI0
aa(lp149
V0020700441
p150
aVDEC 29, 2007
p151
aVUTA vs. BOS
p152
aVL
p153
aI15
aI2
aI4
aF0.5
aI0
aI0
aF0.0
aI0
aI0
aF0.0
aI0
aI1
aI1
aI1
aI0
aI0
aI0
aI0
aI4
aI-6
aa(lp154
V0020700454
p155
aVDEC 31, 2007
p156
aVUTA vs. POR
p157
aVW
p158
aI14
aI1
aI4
aF0.25
aI0
aI0
aF0.0
aI0
aI0
aF0.0
aI0
aI0
aI0
aI4
aI0
aI0
aI0
aI0
aI2
aI6
aa(lp159
V0020700467
p160
aVJAN 02, 2008
p161
aVUTA vs. PHI
p162
aVW
p163
aI9
aI0
aI2
aF0.0
aI0
aI0
aF0.0
aI0
aI0
aF0.0
aI0
aI1
aI1
aI2
aI0
aI0
aI0
aI3
aI0
aI-2
aa(lp164
V0020700489
p165
aVJAN 05, 2008
p166
aVUTA @ POR
p167
aVL
p168
aI12
aI0
aI2
aF0.0
aI0
aI0
aF0.0
aI0
aI0
aF0.0
aI0
aI1
aI1
aI2
aI1
aI0
aI1
aI0
aI0
aI1
aa(lp169
V0020700507
p170
aVJAN 08, 2008
p171
aVUTA vs. IND
p172
aVW
p173
aI23
aI4
aI9
aF0.444
aI1
aI3
aF0.333
aI2
aI2
aF1.0
aI0
aI5
aI5
aI3
aI2
aI0
aI2
aI3
aI11
aI17
aa(lp174
V0020700522
p175
aVJAN 10, 2008
p176
aVUTA vs. PHX
p177
aVW
p178
aI22
aI1
aI7
aF0.143
aI0
aI1
aF0.0
aI0
aI0
aF0.0
aI1
aI2
aI3
aI1
aI0
aI0
aI0
aI4
aI2
aI8
aa(lp179
V0020700537
p180
aVJAN 12, 2008
p181
aVUTA vs. ORL
p182
aVW
p183
aI10
aI1
aI2
aF0.5
aI1
aI1
aF1.0
aI2
aI2
aF1.0
aI0
aI0
aI0
aI4
aI0
aI0
aI1
aI2
aI5
aI4
aa(lp184
V0020700551
p185
aVJAN 14, 2008
p186
aVUTA vs. MIL
p187
aVW
p188
aI10
aI1
aI3
aF0.333
aI0
aI1
aF0.0
aI0
aI0
aF0.0
aI0
aI1
aI1
aI1
aI1
aI0
aI0
aI2
aI2
aI-6
aa(lp189
V0020700571
p190
aVJAN 17, 2008
p191
aVUTA @ DEN
p192
aVL
p193
aI13
aI0
aI3
aF0.0
aI0
aI0
aF0.0
aI4
aI4
aF1.0
aI0
aI0
aI0
aI2
aI1
aI0
aI0
aI2
aI4
aI0
aa(lp194
V0020700580
p195
aVJAN 18, 2008
p196
aVUTA vs. LAC
p197
aVW
p198
aI24
aI3
aI7
aF0.429
aI0
aI0
aF0.0
aI4
aI4
aF1.0
aI1
aI1
aI2
aI3
aI3
aI0
aI2
aI1
aI10
aI20
aa(lp199
V0020700602
p200
aVJAN 21, 2008
p201
aVUTA @ LAC
p202
aVW
p203
aI8
aI0
aI1
aF0.0
aI0
aI0
aF0.0
aI0
aI0
aF0.0
aI0
aI0
aI0
aI1
aI0
aI0
aI2
aI2
aI0
aI-8
aa(lp204
V0020700635
p205
aVJAN 25, 2008
p206
aVUTA vs. SAC
p207
aVW
p208
aI8
aI1
aI2
aF0.5
aI0
aI0
aF0.0
aI0
aI0
aF0.0
aI0
aI0
aI0
aI3
aI1
aI0
aI1
aI3
aI2
aI-8
aa(lp209
V0020700719
p210
aVFEB 06, 2008
p211
aVUTA @ DEN
p212
aVW
p213
aI7
aI0
aI2
aF0.0
aI0
aI0
aF0.0
aI0
aI0
aF0.0
aI0
aI1
aI1
aI2
aI0
aI0
aI0
aI2
aI0
aI5
aa(lp214
V0020700735
p215
aVFEB 08, 2008
p216
aVUTA @ SAC
p217
aVL
p218
aI7
aI1
aI3
aF0.333
aI0
aI0
aF0.0
aI0
aI0
aF0.0
aI0
aI1
aI1
aI1
aI1
aI0
aI0
aI1
aI2
aI2
aa(lp219
V0020700742
p220
aVFEB 09, 2008
p221
aVUTA vs. CHI
p222
aVW
p223
aI3
aI0
aI1
aF0.0
aI0
aI0
aF0.0
aI0
aI0
aF0.0
aI0
aI0
aI0
aI0
aI0
aI0
aI0
aI0
aI0
aI-8
aa(lp224
V0020700786
p225
aVFEB 19, 2008
p226
aVUTA vs. GSW
p227
aVW
p228
aI2
aI0
aI0
aF0.0
aI0
aI0
aF0.0
aI2
aI2
aF1.0
aI0
aI0
aI0
aI0
aI0
aI0
aI0
aI1
aI2
aI-8
aa(lp229
V0020700813
p230
aVFEB 22, 2008
p231
aVUTA @ LAC
p232
aVL
p233
aI4
aI2
aI3
aF0.667
aI0
aI0
aF0.0
aI0
aI0
aF0.0
aI0
aI0
aI0
aI0
aI0
aI0
aI0
aI1
aI4
aI10
aa(lp234
V0020700887
p235
aVMAR 03, 2008
p236
aVUTA vs. DAL
p237
aVW
p238
aI0
aI0
aI1
aF0.0
aI0
aI0
aF0.0
aI0
aI0
aF0.0
aI0
aI0
aI0
aI0
aI0
aI0
aI0
aI0
aI0
aI0
aa(lp239
V0020700907
p240
aVMAR 05, 2008
p241
aVUTA vs. MIN
p242
aVW
p243
aI4
aI0
aI2
aF0.0
aI0
aI0
aF0.0
aI0
aI0
aF0.0
aI0
aI0
aI0
aI1
aI0
aI0
aI0
aI0
aI0
aI5
aa(lp244
V0020700932
p245
aVMAR 08, 2008
p246
aVUTA vs. DEN
p247
aVW
p248
aI4
aI0
aI2
aF0.0
aI0
aI0
aF0.0
aI0
aI2
aF0.0
aI0
aI0
aI0
aI1
aI0
aI0
aI0
aI0
aI0
aI0
aa(lp249
V0020700949
p250
aVMAR 11, 2008
p251
aVUTA @ CHI
p252
aVL
p253
aI1
aI0
aI0
aF0.0
aI0
aI0
aF0.0
aI0
aI0
aF0.0
aI0
aI0
aI0
aI0
aI0
aI0
aI0
aI0
aI0
aI0
aa(lp254
V0020700998
p255
aVMAR 17, 2008
p256
aVUTA vs. TOR
p257
aVW
p258
aI3
aI0
aI0
aF0.0
aI0
aI0
aF0.0
aI0
aI0
aF0.0
aI0
aI0
aI0
aI0
aI0
aI0
aI0
aI0
aI0
aI-2
aa(lp259
V0020701080
p260
aVMAR 28, 2008
p261
aVUTA vs. LAC
p262
aVW
p263
aI16
aI2
aI4
aF0.5
aI0
aI1
aF0.0
aI2
aI2
aF1.0
aI0
aI1
aI1
aI0
aI1
aI0
aI0
aI2
aI6
aI8
aa(lp264
V0020701102
p265
aVMAR 31, 2008
p266
aVUTA vs. WAS
p267
aVW
p268
aI9
aI0
aI0
aF0.0
aI0
aI0
aF0.0
aI0
aI0
aF0.0
aI0
aI1
aI1
aI0
aI0
aI0
aI1
aI1
aI0
aI3
aa(lp269
V0020701119
p270
aVAPR 02, 2008
p271
aVUTA vs. MIN
p272
aVW
p273
aI4
aI0
aI0
aF0.0
aI0
aI0
aF0.0
aI0
aI0
aF0.0
aI0
aI0
aI0
aI2
aI0
aI0
aI0
aI0
aI0
aI-5
aa(lp274
V0020701133
p275
aVAPR 04, 2008
p276
aVUTA vs. SAS
p277
aVW
p278
aI2
aI0
aI1
aF0.0
aI0
aI0
aF0.0
aI0
aI0
aF0.0
aI0
aI0
aI0
aI1
aI0
aI0
aI0
aI0
aI0
aI0
aa(lp279
V0020701193
p280
aVAPR 12, 2008
p281
aVUTA vs. DEN
p282
aVW
p283
aI7
aI5
aI7
aF0.714
aI0
aI0
aF0.0
aI2
aI2
aF1.0
aI0
aI1
aI1
aI0
aI0
aI0
aI0
aI2
aI12
aI6
aa(lp284
V0020701223
p285
aVAPR 16, 2008
p286
aVUTA @ SAS
p287
aVL
p288
aI13
aI0
aI4
aF0.0
aI0
aI1
aF0.0
aI0
aI0
aF0.0
aI0
aI1
aI1
aI3
aI1
aI0
aI0
aI1
aI0
aI-7
aasS'name'
p289
VJason Hart
p290
sS'experience'
p291
I7
s.