(dp0
S'age'
p1
I29
sS'stats'
p2
(lp3
(lp4
V0020701227
p5
aVAPR 16, 2008
p6
aVDAL vs. NOH
p7
aVW
p8
aI8
aI0
aI1
aF0.0
aI0
aI0
aF0.0
aI0
aI0
aF0.0
aI0
aI1
aI1
aI0
aI0
aI0
aI0
aI1
aI0
aI4
aa(lp9
V0020701202
p10
aVAPR 13, 2008
p11
aVDAL @ SEA
p12
aVL
p13
aI12
aI1
aI1
aF1.0
aI0
aI0
aF0.0
aI0
aI0
aF0.0
aI2
aI1
aI3
aI0
aI0
aI0
aI0
aI4
aI2
aI-4
aa(lp14
V0020701195
p15
aVAPR 12, 2008
p16
aVDAL @ POR
p17
aVL
p18
aI7
aI0
aI2
aF0.0
aI0
aI0
aF0.0
aI0
aI0
aF0.0
aI0
aI0
aI0
aI1
aI0
aI0
aI0
aI2
aI0
aI8
aa(lp19
V0020701135
p20
aVAPR 04, 2008
p21
aVDAL @ LAL
p22
aVL
p23
aI4
aI0
aI0
aF0.0
aI0
aI0
aF0.0
aI0
aI0
aF0.0
aI1
aI0
aI1
aI0
aI0
aI0
aI1
aI1
aI0
aI-2
aa(lp24
V0020701120
p25
aVAPR 02, 2008
p26
aVDAL vs. GSW
p27
aVW
p28
aI17
aI1
aI3
aF0.333
aI0
aI0
aF0.0
aI0
aI0
aF0.0
aI1
aI7
aI8
aI1
aI0
aI0
aI0
aI0
aI2
aI13
aa(lp29
V0020701104
p30
aVMAR 31, 2008
p31
aVDAL @ LAC
p32
aVW
p33
aI25
aI0
aI1
aF0.0
aI0
aI0
aF0.0
aI0
aI0
aF0.0
aI0
aI3
aI3
aI0
aI0
aI0
aI0
aI4
aI0
aI16
aa(lp34
V0020701096
p35
aVMAR 30, 2008
p36
aVDAL @ GSW
p37
aVL
p38
aI37
aI5
aI10
aF0.5
aI0
aI0
aF0.0
aI2
aI2
aF1.0
aI0
aI4
aI4
aI1
aI0
aI0
aI3
aI5
aI12
aI-1
aa(lp39
V0020701071
p40
aVMAR 27, 2008
p41
aVDAL @ DEN
p42
aVL
p43
aI28
aI3
aI4
aF0.75
aI0
aI0
aF0.0
aI0
aI0
aF0.0
aI3
aI1
aI4
aI2
aI0
aI0
aI5
aI6
aI6
aI-7
aa(lp44
V0020701055
p45
aVMAR 25, 2008
p46
aVDAL vs. LAC
p47
aVW
p48
aI27
aI3
aI8
aF0.375
aI0
aI0
aF0.0
aI0
aI0
aF0.0
aI4
aI5
aI9
aI2
aI1
aI0
aI0
aI3
aI6
aI17
aa(lp49
V0020701040
p50
aVMAR 23, 2008
p51
aVDAL vs. SAS
p52
aVL
p53
aI14
aI0
aI0
aF0.0
aI0
aI0
aF0.0
aI0
aI0
aF0.0
aI1
aI1
aI2
aI0
aI0
aI0
aI0
aI4
aI0
aI1
aa(lp54
V0020701017
p55
aVMAR 20, 2008
p56
aVDAL vs. BOS
p57
aVL
p58
aI12
aI1
aI2
aF0.5
aI0
aI0
aF0.0
aI0
aI0
aF0.0
aI1
aI1
aI2
aI0
aI0
aI3
aI1
aI3
aI2
aI-6
aa(lp59
V0020701003
p60
aVMAR 18, 2008
p61
aVDAL vs. LAL
p62
aVL
p63
aI13
aI1
aI3
aF0.333
aI0
aI0
aF0.0
aI0
aI0
aF0.0
aI1
aI1
aI2
aI0
aI1
aI2
aI0
aI4
aI2
aI-1
aa(lp64
V0020700984
p65
aVMAR 16, 2008
p66
aVDAL @ MIA
p67
aVW
p68
aI19
aI3
aI4
aF0.75
aI0
aI0
aF0.0
aI0
aI0
aF0.0
aI2
aI2
aI4
aI0
aI0
aI0
aI1
aI2
aI6
aI-1
aa(lp69
V0020700973
p70
aVMAR 14, 2008
p71
aVDAL vs. IND
p72
aVW
p73
aI7
aI2
aI2
aF1.0
aI0
aI0
aF0.0
aI0
aI0
aF0.0
aI0
aI2
aI2
aI0
aI1
aI0
aI0
aI1
aI4
aI-1
aa(lp74
V0020700960
p75
aVMAR 12, 2008
p76
aVDAL vs. CHA
p77
aVW
p78
aI15
aI1
aI3
aF0.333
aI0
aI0
aF0.0
aI0
aI0
aF0.0
aI0
aI1
aI1
aI1
aI0
aI2
aI0
aI4
aI2
aI9
aa(lp79
V0020700944
p80
aVMAR 10, 2008
p81
aVDAL vs. NYK
p82
aVW
p83
aI18
aI2
aI6
aF0.333
aI0
aI0
aF0.0
aI6
aI6
aF1.0
aI1
aI4
aI5
aI3
aI0
aI2
aI1
aI4
aI10
aI13
aa(lp84
V0020700931
p85
aVMAR 08, 2008
p86
aVDAL vs. NJN
p87
aVW
p88
aI16
aI2
aI2
aF1.0
aI0
aI0
aF0.0
aI2
aI2
aF1.0
aI4
aI5
aI9
aI0
aI0
aI0
aI0
aI5
aI6
aI-3
aa(lp89
V0020700911
p90
aVMAR 06, 2008
p91
aVDAL vs. HOU
p92
aVL
p93
aI12
aI2
aI4
aF0.5
aI0
aI0
aF0.0
aI0
aI0
aF0.0
aI1
aI1
aI2
aI1
aI0
aI0
aI0
aI0
aI4
aI1
aa(lp94
V0020700887
p95
aVMAR 03, 2008
p96
aVDAL @ UTA
p97
aVL
p98
aI6
aI0
aI1
aF0.0
aI0
aI0
aF0.0
aI0
aI0
aF0.0
aI0
aI2
aI2
aI0
aI0
aI0
aI0
aI0
aI0
aI1
aa(lp99
V0020700876
p100
aVMAR 02, 2008
p101
aVDAL @ LAL
p102
aVL
p103
aI8
aI0
aI1
aF0.0
aI0
aI0
aF0.0
aI1
aI2
aF0.5
aI2
aI0
aI2
aI0
aI0
aI0
aI0
aI2
aI1
aI1
aa(lp104
V0020700865
p105
aVFEB 29, 2008
p106
aVDAL vs. SAC
p107
aVW
p108
aI14
aI4
aI5
aF0.8
aI0
aI0
aF0.0
aI0
aI0
aF0.0
aI0
aI0
aI0
aI1
aI1
aI1
aI1
aI3
aI8
aI4
aa(lp109
V0020700833
p110
aVFEB 25, 2008
p111
aVDAL vs. CHI
p112
aVW
p113
aI4
aI1
aI2
aF0.5
aI0
aI0
aF0.0
aI0
aI0
aF0.0
aI0
aI0
aI0
aI0
aI0
aI0
aI0
aI1
aI2
aI-5
aa(lp114
V0020700828
p115
aVFEB 24, 2008
p116
aVDAL @ MIN
p117
aVW
p118
aI6
aI1
aI1
aF1.0
aI0
aI0
aF0.0
aI0
aI0
aF0.0
aI0
aI2
aI2
aI1
aI0
aI0
aI0
aI0
aI2
aI3
aa(lp119
V0020700810
p120
aVFEB 22, 2008
p121
aVDAL @ MEM
p122
aVW
p123
aI2
aI0
aI0
aF0.0
aI0
aI0
aF0.0
aI0
aI0
aF0.0
aI0
aI0
aI0
aI1
aI0
aI0
aI0
aI0
aI0
aI-2
aa(lp124
V0020700795
p125
aVFEB 20, 2008
p126
aVDAL @ NOH
p127
aVL
p128
aI3
aI0
aI0
aF0.0
aI0
aI0
aF0.0
aI0
aI0
aF0.0
aI0
aI0
aI0
aI0
aI0
aI0
aI0
aI1
aI0
aI3
aa(lp129
V0020700760
p130
aVFEB 12, 2008
p131
aVNJN vs. MIN
p132
aVW
p133
aI8
aI0
aI2
aF0.0
aI0
aI0
aF0.0
aI0
aI0
aF0.0
aI0
aI0
aI0
aI0
aI1
aI0
aI0
aI2
aI0
aI-2
aa(lp134
V0020700746
p135
aVFEB 10, 2008
p136
aVNJN vs. DAL
p137
aVW
p138
aI13
aI1
aI1
aF1.0
aI0
aI0
aF0.0
aI0
aI0
aF0.0
aI0
aI2
aI2
aI1
aI1
aI0
aI0
aI0
aI2
aI7
aa(lp139
V0020700727
p140
aVFEB 08, 2008
p141
aVNJN @ CHA
p142
aVW
p143
aI9
aI2
aI6
aF0.333
aI0
aI0
aF0.0
aI0
aI0
aF0.0
aI0
aI0
aI0
aI0
aI1
aI0
aI0
aI1
aI4
aI-3
aa(lp144
V0020700714
p145
aVFEB 06, 2008
p146
aVNJN @ ORL
p147
aVL
p148
aI7
aI1
aI2
aF0.5
aI0
aI0
aF0.0
aI2
aI2
aF1.0
aI0
aI1
aI1
aI0
aI0
aI0
aI0
aI1
aI4
aI4
aa(lp149
V0020700710
p150
aVFEB 05, 2008
p151
aVNJN vs. LAL
p152
aVL
p153
aI13
aI3
aI4
aF0.75
aI0
aI0
aF0.0
aI0
aI0
aF0.0
aI0
aI2
aI2
aI0
aI0
aI0
aI0
aI2
aI6
aI-3
aa(lp154
V0020700658
p155
aVJAN 29, 2008
p156
aVNJN vs. MIL
p157
aVW
p158
aI13
aI2
aI4
aF0.5
aI0
aI0
aF0.0
aI0
aI0
aF0.0
aI2
aI2
aI4
aI2
aI1
aI0
aI1
aI1
aI4
aI-2
aa(lp159
V0020700648
p160
aVJAN 27, 2008
p161
aVNJN @ MIN
p162
aVL
p163
aI19
aI1
aI5
aF0.2
aI0
aI0
aF0.0
aI0
aI0
aF0.0
aI0
aI5
aI5
aI0
aI0
aI0
aI0
aI0
aI2
aI5
aa(lp164
V0020700634
p165
aVJAN 25, 2008
p166
aVNJN @ DEN
p167
aVL
p168
aI16
aI2
aI5
aF0.4
aI1
aI1
aF1.0
aI0
aI0
aF0.0
aI0
aI3
aI3
aI0
aI0
aI2
aI0
aI3
aI5
aI-4
aa(lp169
V0020700624
p170
aVJAN 24, 2008
p171
aVNJN @ GSW
p172
aVL
p173
aI2
aI0
aI0
aF0.0
aI0
aI0
aF0.0
aI0
aI0
aF0.0
aI0
aI0
aI0
aI0
aI0
aI0
aI0
aI1
aI0
aI-11
aa(lp174
V0020700609
p175
aVJAN 22, 2008
p176
aVNJN @ SAC
p177
aVL
p178
aI19
aI7
aI9
aF0.778
aI0
aI0
aF0.0
aI0
aI0
aF0.0
aI1
aI1
aI2
aI2
aI0
aI1
aI0
aI4
aI14
aI-8
aa(lp179
V0020700594
p180
aVJAN 20, 2008
p181
aVNJN @ PHX
p182
aVL
p183
aI6
aI1
aI1
aF1.0
aI0
aI0
aF0.0
aI2
aI2
aF1.0
aI0
aI0
aI0
aI0
aI0
aI2
aI2
aI1
aI4
aI-8
aa(lp184
V0020700593
p185
aVJAN 19, 2008
p186
aVNJN @ LAC
p187
aVL
p188
aI11
aI1
aI6
aF0.167
aI0
aI0
aF0.0
aI0
aI0
aF0.0
aI1
aI0
aI1
aI1
aI0
aI0
aI0
aI2
aI2
aI-7
aa(lp189
V0020700567
p190
aVJAN 16, 2008
p191
aVNJN vs. NYK
p192
aVL
p193
aI11
aI1
aI3
aF0.333
aI0
aI0
aF0.0
aI0
aI0
aF0.0
aI0
aI0
aI0
aI0
aI0
aI0
aI0
aI4
aI2
aI-1
aa(lp194
V0020700549
p195
aVJAN 14, 2008
p196
aVNJN vs. POR
p197
aVL
p198
aI26
aI8
aI14
aF0.571
aI0
aI0
aF0.0
aI1
aI2
aF0.5
aI4
aI4
aI8
aI0
aI1
aI0
aI0
aI3
aI17
aI-2
aa(lp199
V0020700524
p200
aVJAN 11, 2008
p201
aVNJN vs. BOS
p202
aVL
p203
aI17
aI3
aI10
aF0.3
aI0
aI0
aF0.0
aI0
aI0
aF0.0
aI1
aI0
aI1
aI0
aI0
aI0
aI0
aI2
aI6
aI4
aa(lp204
V0020700512
p205
aVJAN 09, 2008
p206
aVNJN vs. SEA
p207
aVW
p208
aI28
aI6
aI12
aF0.5
aI0
aI0
aF0.0
aI3
aI3
aF1.0
aI2
aI0
aI2
aI0
aI2
aI1
aI0
aI2
aI15
aI0
aa(lp209
V0020700502
p210
aVJAN 08, 2008
p211
aVNJN @ CHA
p212
aVL
p213
aI4
aI1
aI2
aF0.5
aI0
aI0
aF0.0
aI0
aI0
aF0.0
aI0
aI0
aI0
aI0
aI0
aI0
aI0
aI0
aI2
aI-8
aa(lp214
V0020700476
p215
aVJAN 04, 2008
p216
aVNJN vs. CHA
p217
aVW
p218
aI8
aI0
aI1
aF0.0
aI0
aI0
aF0.0
aI0
aI0
aF0.0
aI0
aI1
aI1
aI1
aI1
aI0
aI0
aI1
aI0
aI-4
aa(lp219
V0020700459
p220
aVJAN 02, 2008
p221
aVNJN @ ORL
p222
aVW
p223
aI19
aI6
aI10
aF0.6
aI0
aI0
aF0.0
aI0
aI0
aF0.0
aI0
aI3
aI3
aI0
aI0
aI0
aI1
aI1
aI12
aI0
aa(lp224
V0020700439
p225
aVDEC 29, 2007
p226
aVNJN @ MIL
p227
aVW
p228
aI25
aI4
aI9
aF0.444
aI0
aI0
aF0.0
aI0
aI0
aF0.0
aI0
aI3
aI3
aI0
aI0
aI0
aI1
aI1
aI8
aI1
aa(lp229
V0020700423
p230
aVDEC 28, 2007
p231
aVNJN vs. WAS
p232
aVW
p233
aI19
aI3
aI4
aF0.75
aI0
aI0
aF0.0
aI0
aI0
aF0.0
aI1
aI1
aI2
aI0
aI0
aI1
aI0
aI4
aI6
aI9
aa(lp234
V0020700412
p235
aVDEC 26, 2007
p236
aVNJN vs. DET
p237
aVL
p238
aI16
aI2
aI6
aF0.333
aI0
aI0
aF0.0
aI0
aI0
aF0.0
aI0
aI2
aI2
aI0
aI0
aI1
aI0
aI2
aI4
aI-2
aa(lp239
V0020700392
p240
aVDEC 22, 2007
p241
aVNJN vs. GSW
p242
aVW
p243
aI21
aI0
aI5
aF0.0
aI0
aI0
aF0.0
aI0
aI0
aF0.0
aI1
aI4
aI5
aI0
aI0
aI2
aI1
aI5
aI0
aI2
aa(lp244
V0020700378
p245
aVDEC 20, 2007
p246
aVNJN @ MIA
p247
aVW
p248
aI36
aI9
aI11
aF0.818
aI0
aI0
aF0.0
aI0
aI0
aF0.0
aI3
aI4
aI7
aI2
aI1
aI0
aI1
aI4
aI18
aI11
aa(lp249
V0020700362
p250
aVDEC 18, 2007
p251
aVNJN vs. SAC
p252
aVL
p253
aI15
aI5
aI6
aF0.833
aI0
aI0
aF0.0
aI0
aI0
aF0.0
aI1
aI3
aI4
aI1
aI1
aI0
aI0
aI2
aI10
aI-5
aa(lp254
V0020700342
p255
aVDEC 15, 2007
p256
aVNJN @ NYK
p257
aVL
p258
aI11
aI1
aI4
aF0.25
aI0
aI0
aF0.0
aI0
aI0
aF0.0
aI1
aI1
aI2
aI0
aI0
aI0
aI0
aI4
aI2
aI-3
aa(lp259
V0020700331
p260
aVDEC 14, 2007
p261
aVNJN vs. CLE
p262
aVW
p263
aI6
aI0
aI3
aF0.0
aI0
aI0
aF0.0
aI0
aI0
aF0.0
aI0
aI0
aI0
aI0
aI0
aI0
aI2
aI1
aI0
aI-11
aa(lp264
V0020700309
p265
aVDEC 11, 2007
p266
aVNJN vs. LAC
p267
aVL
p268
aI23
aI7
aI13
aF0.538
aI0
aI0
aF0.0
aI0
aI0
aF0.0
aI2
aI2
aI4
aI0
aI2
aI0
aI2
aI2
aI14
aI4
aa(lp269
V0020700298
p270
aVDEC 09, 2007
p271
aVNJN @ WAS
p272
aVL
p273
aI11
aI2
aI5
aF0.4
aI0
aI0
aF0.0
aI0
aI0
aF0.0
aI0
aI2
aI2
aI0
aI0
aI0
aI2
aI2
aI4
aI-7
aa(lp274
V0020700281
p275
aVDEC 07, 2007
p276
aVNJN vs. HOU
p277
aVL
p278
aI18
aI1
aI2
aF0.5
aI0
aI0
aF0.0
aI0
aI0
aF0.0
aI1
aI3
aI4
aI1
aI0
aI1
aI1
aI2
aI2
aI-3
aa(lp279
V0020700266
p280
aVDEC 05, 2007
p281
aVNJN vs. NYK
p282
aVL
p283
aI39
aI6
aI10
aF0.6
aI0
aI0
aF0.0
aI1
aI1
aF1.0
aI3
aI6
aI9
aI4
aI1
aI1
aI2
aI4
aI13
aI-4
aa(lp284
V0020700257
p285
aVDEC 04, 2007
p286
aVNJN @ CLE
p287
aVW
p288
aI34
aI5
aI7
aF0.714
aI0
aI0
aF0.0
aI0
aI0
aF0.0
aI2
aI7
aI9
aI4
aI0
aI2
aI2
aI1
aI10
aI25
aa(lp289
V0020700246
p290
aVDEC 02, 2007
p291
aVNJN @ DET
p292
aVL
p293
aI24
aI5
aI8
aF0.625
aI0
aI1
aF0.0
aI0
aI0
aF0.0
aI1
aI1
aI2
aI2
aI0
aI0
aI2
aI2
aI10
aI-10
aa(lp294
V0020700236
p295
aVDEC 01, 2007
p296
aVNJN vs. PHI
p297
aVW
p298
aI19
aI3
aI6
aF0.5
aI0
aI0
aF0.0
aI0
aI0
aF0.0
aI0
aI4
aI4
aI0
aI0
aI2
aI2
aI3
aI6
aI-5
aa(lp299
V0020700196
p300
aVNOV 25, 2007
p301
aVNJN @ LAL
p302
aVW
p303
aI18
aI4
aI6
aF0.667
aI0
aI0
aF0.0
aI0
aI0
aF0.0
aI0
aI3
aI3
aI1
aI0
aI0
aI2
aI1
aI8
aI-5
aa(lp304
V0020700181
p305
aVNOV 23, 2007
p306
aVNJN @ SEA
p307
aVW
p308
aI28
aI6
aI12
aF0.5
aI0
aI0
aF0.0
aI0
aI0
aF0.0
aI2
aI4
aI6
aI1
aI0
aI0
aI0
aI2
aI12
aI0
aa(lp309
V0020700168
p310
aVNOV 21, 2007
p311
aVNJN @ POR
p312
aVW
p313
aI15
aI2
aI3
aF0.667
aI0
aI0
aF0.0
aI0
aI0
aF0.0
aI1
aI1
aI2
aI1
aI0
aI0
aI0
aI0
aI4
aI-9
aa(lp314
V0020700148
p315
aVNOV 19, 2007
p316
aVNJN @ UTA
p317
aVL
p318
aI17
aI1
aI5
aF0.2
aI0
aI0
aF0.0
aI3
aI3
aF1.0
aI2
aI2
aI4
aI0
aI1
aI1
aI1
aI2
aI5
aI3
aa(lp319
V0020700134
p320
aVNOV 17, 2007
p321
aVNJN vs. MIA
p322
aVL
p323
aI6
aI0
aI0
aF0.0
aI0
aI0
aF0.0
aI0
aI0
aF0.0
aI0
aI1
aI1
aI1
aI0
aI0
aI1
aI1
aI0
aI-6
aa(lp324
V0020700122
p325
aVNOV 16, 2007
p326
aVNJN vs. ORL
p327
aVL
p328
aI17
aI3
aI8
aF0.375
aI0
aI0
aF0.0
aI0
aI0
aF0.0
aI1
aI1
aI2
aI2
aI0
aI0
aI1
aI1
aI6
aI-7
aa(lp329
V0020700108
p330
aVNOV 14, 2007
p331
aVNJN @ BOS
p332
aVL
p333
aI22
aI0
aI5
aF0.0
aI0
aI0
aF0.0
aI0
aI0
aF0.0
aI4
aI2
aI6
aI1
aI0
aI0
aI1
aI0
aI0
aI-11
aa(lp334
V0020700093
p335
aVNOV 12, 2007
p336
aVNJN vs. NOH
p337
aVL
p338
aI20
aI1
aI4
aF0.25
aI0
aI0
aF0.0
aI0
aI0
aF0.0
aI0
aI0
aI0
aI0
aI0
aI0
aI0
aI1
aI2
aI-2
aa(lp339
V0020700081
p340
aVNOV 10, 2007
p341
aVNJN vs. BOS
p342
aVL
p343
aI3
aI0
aI1
aF0.0
aI0
aI0
aF0.0
aI0
aI0
aF0.0
aI2
aI0
aI2
aI0
aI1
aI0
aI0
aI1
aI0
aI-3
aa(lp344
V0020700063
p345
aVNOV 08, 2007
p346
aVNJN vs. WAS
p347
aVW
p348
aI4
aI1
aI3
aF0.333
aI0
aI0
aF0.0
aI0
aI0
aF0.0
aI0
aI0
aI0
aI0
aI0
aI0
aI0
aI0
aI2
aI1
aa(lp349
V0020700045
p350
aVNOV 06, 2007
p351
aVNJN vs. ATL
p352
aVW
p353
aI6
aI1
aI2
aF0.5
aI0
aI0
aF0.0
aI0
aI0
aF0.0
aI0
aI1
aI1
aI0
aI0
aI0
aI1
aI3
aI2
aI1
aa(lp354
V0020700028
p355
aVNOV 03, 2007
p356
aVNJN @ PHI
p357
aVW
p358
aI17
aI5
aI10
aF0.5
aI0
aI0
aF0.0
aI0
aI0
aF0.0
aI2
aI1
aI3
aI0
aI0
aI2
aI1
aI2
aI10
aI6
aa(lp359
V0020700018
p360
aVNOV 02, 2007
p361
aVNJN vs. TOR
p362
aVL
p363
aI20
aI0
aI4
aF0.0
aI0
aI0
aF0.0
aI0
aI0
aF0.0
aI0
aI3
aI3
aI1
aI0
aI2
aI2
aI4
aI0
aI-25
aa(lp364
V0020700007
p365
aVOCT 31, 2007
p366
aVNJN vs. CHI
p367
aVW
p368
aI4
aI1
aI2
aF0.5
aI0
aI0
aF0.0
aI0
aI0
aF0.0
aI1
aI0
aI1
aI0
aI0
aI0
aI0
aI1
aI2
aI-1
aasS'name'
p369
VMalik Allen
p370
sS'experience'
p371
I6
s.