(dp0
S'age'
p1
I27
sS'stats'
p2
(lp3
(lp4
V0020700012
p5
aVNOV 01, 2007
p6
aVDET @ MIA
p7
aVW
p8
aI43
aI13
aI23
aF0.565
aI1
aI4
aF0.25
aI7
aI7
aF1.0
aI4
aI8
aI12
aI1
aI1
aI0
aI2
aI0
aI34
aI8
aa(lp9
V0020700016
p10
aVNOV 02, 2007
p11
aVDET @ ORL
p12
aVW
p13
aI34
aI6
aI9
aF0.667
aI0
aI1
aF0.0
aI5
aI6
aF0.833
aI0
aI1
aI1
aI6
aI0
aI1
aI2
aI0
aI17
aI23
aa(lp14
V0020700039
p15
aVNOV 04, 2007
p16
aVDET vs. ATL
p17
aVW
p18
aI36
aI2
aI9
aF0.222
aI1
aI3
aF0.333
aI3
aI4
aF0.75
aI0
aI5
aI5
aI4
aI0
aI1
aI2
aI1
aI8
aI-5
aa(lp19
V0020700064
p20
aVNOV 08, 2007
p21
aVDET @ CHI
p22
aVL
p23
aI37
aI1
aI3
aF0.333
aI0
aI0
aF0.0
aI3
aI6
aF0.5
aI0
aI5
aI5
aI1
aI0
aI0
aI2
aI3
aI5
aI-4
aa(lp24
V0020700072
p25
aVNOV 09, 2007
p26
aVDET vs. LAC
p27
aVW
p28
aI27
aI3
aI7
aF0.429
aI0
aI0
aF0.0
aI2
aI2
aF1.0
aI0
aI5
aI5
aI0
aI0
aI0
aI0
aI1
aI8
aI28
aa(lp29
V0020700091
p30
aVNOV 11, 2007
p31
aVDET @ SEA
p32
aVW
p33
aI35
aI4
aI13
aF0.308
aI0
aI3
aF0.0
aI0
aI0
aF0.0
aI2
aI7
aI9
aI6
aI0
aI0
aI4
aI0
aI8
aI8
aa(lp34
V0020700103
p35
aVNOV 13, 2007
p36
aVDET @ POR
p37
aVL
p38
aI42
aI8
aI15
aF0.533
aI2
aI5
aF0.4
aI2
aI4
aF0.5
aI1
aI5
aI6
aI1
aI1
aI0
aI0
aI1
aI20
aI-4
aa(lp39
V0020700116
p40
aVNOV 14, 2007
p41
aVDET @ GSW
p42
aVW
p43
aI37
aI11
aI15
aF0.733
aI0
aI1
aF0.0
aI0
aI2
aF0.0
aI1
aI2
aI3
aI3
aI0
aI0
aI2
aI1
aI22
aI16
aa(lp44
V0020700129
p45
aVNOV 16, 2007
p46
aVDET @ LAL
p47
aVL
p48
aI36
aI5
aI11
aF0.455
aI0
aI1
aF0.0
aI6
aI6
aF1.0
aI2
aI7
aI9
aI3
aI1
aI0
aI1
aI1
aI16
aI-8
aa(lp49
V0020700143
p50
aVNOV 18, 2007
p51
aVDET @ SAC
p52
aVL
p53
aI39
aI8
aI12
aF0.667
aI1
aI1
aF1.0
aI2
aI4
aF0.5
aI1
aI4
aI5
aI3
aI1
aI1
aI1
aI1
aI19
aI-2
aa(lp54
V0020700161
p55
aVNOV 21, 2007
p56
aVDET vs. NYK
p57
aVW
p58
aI38
aI6
aI12
aF0.5
aI1
aI1
aF1.0
aI0
aI0
aF0.0
aI1
aI4
aI5
aI1
aI2
aI1
aI0
aI0
aI13
aI28
aa(lp59
V0020700174
p60
aVNOV 23, 2007
p61
aVDET vs. PHI
p62
aVW
p63
aI33
aI6
aI12
aF0.5
aI2
aI3
aF0.667
aI1
aI2
aF0.5
aI1
aI6
aI7
aI4
aI0
aI0
aI1
aI2
aI15
aI7
aa(lp64
V0020700194
p65
aVNOV 25, 2007
p66
aVDET vs. UTA
p67
aVL
p68
aI36
aI4
aI9
aF0.444
aI2
aI2
aF1.0
aI3
aI6
aF0.5
aI2
aI1
aI3
aI5
aI0
aI1
aI1
aI3
aI13
aI-16
aa(lp69
V0020700214
p70
aVNOV 28, 2007
p71
aVDET vs. CLE
p72
aVW
p73
aI27
aI8
aI12
aF0.667
aI0
aI0
aF0.0
aI0
aI0
aF0.0
aI0
aI1
aI1
aI4
aI0
aI1
aI0
aI2
aI16
aI19
aa(lp74
V0020700240
p75
aVDEC 01, 2007
p76
aVDET @ MIL
p77
aVW
p78
aI26
aI6
aI13
aF0.462
aI3
aI4
aF0.75
aI5
aI5
aF1.0
aI0
aI0
aI0
aI1
aI1
aI0
aI0
aI0
aI20
aI15
aa(lp79
V0020700246
p80
aVDEC 02, 2007
p81
aVDET vs. NJN
p82
aVW
p83
aI26
aI4
aI9
aF0.444
aI0
aI1
aF0.0
aI0
aI0
aF0.0
aI1
aI1
aI2
aI5
aI0
aI0
aI1
aI0
aI8
aI1
aa(lp84
V0020700256
p85
aVDEC 04, 2007
p86
aVDET @ ATL
p87
aVW
p88
aI34
aI9
aI12
aF0.75
aI2
aI2
aF1.0
aI3
aI3
aF1.0
aI0
aI4
aI4
aI2
aI1
aI2
aI2
aI1
aI23
aI28
aa(lp89
V0020700267
p90
aVDEC 05, 2007
p91
aVDET @ NOH
p92
aVW
p93
aI37
aI3
aI10
aF0.3
aI1
aI2
aF0.5
aI1
aI2
aF0.5
aI3
aI6
aI9
aI2
aI0
aI0
aI0
aI1
aI8
aI6
aa(lp94
V0020700279
p95
aVDEC 07, 2007
p96
aVDET vs. CHI
p97
aVL
p98
aI38
aI2
aI9
aF0.222
aI0
aI2
aF0.0
aI0
aI1
aF0.0
aI2
aI6
aI8
aI4
aI0
aI0
aI0
aI3
aI4
aI0
aa(lp99
V0020700296
p100
aVDEC 09, 2007
p101
aVDET vs. CHA
p102
aVW
p103
aI25
aI3
aI11
aF0.273
aI0
aI2
aF0.0
aI0
aI0
aF0.0
aI1
aI4
aI5
aI5
aI0
aI0
aI2
aI1
aI6
aI19
aa(lp104
V0020700310
p105
aVDEC 11, 2007
p106
aVDET @ MEM
p107
aVW
p108
aI35
aI6
aI18
aF0.333
aI1
aI3
aF0.333
aI6
aI6
aF1.0
aI2
aI5
aI7
aI5
aI0
aI1
aI0
aI1
aI19
aI21
aa(lp109
V0020700321
p110
aVDEC 12, 2007
p111
aVDET @ HOU
p112
aVL
p113
aI36
aI2
aI5
aF0.4
aI0
aI0
aF0.0
aI0
aI0
aF0.0
aI2
aI2
aI4
aI1
aI1
aI0
aI0
aI1
aI4
aI-12
aa(lp114
V0020700332
p115
aVDEC 14, 2007
p116
aVDET vs. ATL
p117
aVW
p118
aI36
aI5
aI10
aF0.5
aI1
aI3
aF0.333
aI6
aI8
aF0.75
aI3
aI7
aI10
aI5
aI0
aI0
aI6
aI2
aI17
aI6
aa(lp119
V0020700350
p120
aVDEC 16, 2007
p121
aVDET vs. GSW
p122
aVW
p123
aI30
aI8
aI14
aF0.571
aI3
aI3
aF1.0
aI4
aI4
aF1.0
aI1
aI1
aI2
aI3
aI0
aI0
aI1
aI2
aI23
aI16
aa(lp124
V0020700369
p125
aVDEC 19, 2007
p126
aVDET @ BOS
p127
aVW
p128
aI33
aI1
aI10
aF0.1
aI0
aI1
aF0.0
aI0
aI0
aF0.0
aI1
aI1
aI2
aI1
aI0
aI0
aI1
aI2
aI2
aI3
aa(lp129
V0020700386
p130
aVDEC 21, 2007
p131
aVDET vs. MEM
p132
aVW
p133
aI31
aI7
aI14
aF0.5
aI1
aI2
aF0.5
aI1
aI2
aF0.5
aI1
aI5
aI6
aI2
aI1
aI1
aI3
aI2
aI16
aI18
aa(lp134
V0020700401
p135
aVDEC 23, 2007
p136
aVDET vs. HOU
p137
aVW
p138
aI30
aI3
aI10
aF0.3
aI1
aI3
aF0.333
aI6
aI8
aF0.75
aI2
aI3
aI5
aI2
aI1
aI0
aI2
aI2
aI13
aI12
aa(lp139
V0020700412
p140
aVDEC 26, 2007
p141
aVDET @ NJN
p142
aVW
p143
aI32
aI3
aI8
aF0.375
aI0
aI0
aF0.0
aI0
aI0
aF0.0
aI1
aI3
aI4
aI6
aI1
aI0
aI1
aI2
aI6
aI18
aa(lp144
V0020700425
p145
aVDEC 28, 2007
p146
aVDET vs. IND
p147
aVW
p148
aI27
aI7
aI14
aF0.5
aI0
aI1
aF0.0
aI1
aI1
aF1.0
aI0
aI2
aI2
aI2
aI0
aI0
aI1
aI0
aI15
aI4
aa(lp149
V0020700437
p150
aVDEC 29, 2007
p151
aVDET @ IND
p152
aVW
p153
aI31
aI2
aI7
aF0.286
aI0
aI0
aF0.0
aI6
aI6
aF1.0
aI1
aI5
aI6
aI2
aI0
aI1
aI0
aI0
aI10
aI5
aa(lp154
V0020700451
p155
aVDEC 31, 2007
p156
aVDET vs. MIL
p157
aVW
p158
aI24
aI6
aI14
aF0.429
aI1
aI2
aF0.5
aI2
aI2
aF1.0
aI1
aI1
aI2
aI1
aI0
aI0
aI1
aI1
aI15
aI22
aa(lp159
V0020700457
p160
aVJAN 02, 2008
p161
aVDET @ WAS
p162
aVW
p163
aI31
aI3
aI7
aF0.429
aI0
aI2
aF0.0
aI5
aI5
aF1.0
aI0
aI1
aI1
aI5
aI0
aI0
aI0
aI2
aI11
aI8
aa(lp164
V0020700472
p165
aVJAN 04, 2008
p166
aVDET @ TOR
p167
aVW
p168
aI36
aI5
aI12
aF0.417
aI0
aI1
aF0.0
aI0
aI1
aF0.0
aI0
aI11
aI11
aI1
aI0
aI0
aI0
aI0
aI10
aI10
aa(lp169
V0020700485
p170
aVJAN 05, 2008
p171
aVDET vs. BOS
p172
aVL
p173
aI35
aI3
aI12
aF0.25
aI1
aI3
aF0.333
aI0
aI0
aF0.0
aI1
aI5
aI6
aI7
aI1
aI1
aI0
aI2
aI7
aI3
aa(lp174
V0020700516
p175
aVJAN 09, 2008
p176
aVDET @ DAL
p177
aVL
p178
aI27
aI1
aI7
aF0.143
aI0
aI2
aF0.0
aI4
aI4
aF1.0
aI1
aI0
aI1
aI2
aI1
aI1
aI0
aI0
aI6
aI-15
aa(lp179
V0020700520
p180
aVJAN 10, 2008
p181
aVDET @ SAS
p182
aVW
p183
aI38
aI8
aI16
aF0.5
aI0
aI3
aF0.0
aI1
aI2
aF0.5
aI1
aI2
aI3
aI2
aI1
aI0
aI0
aI0
aI17
aI7
aa(lp184
V0020700535
p185
aVJAN 12, 2008
p186
aVDET @ CHA
p187
aVW
p188
aI40
aI10
aI17
aF0.588
aI2
aI4
aF0.5
aI0
aI0
aF0.0
aI4
aI3
aI7
aI3
aI1
aI2
aI2
aI3
aI22
aI7
aa(lp189
V0020700544
p190
aVJAN 13, 2008
p191
aVDET @ NYK
p192
aVL
p193
aI25
aI0
aI10
aF0.0
aI0
aI0
aF0.0
aI0
aI0
aF0.0
aI1
aI2
aI3
aI0
aI0
aI0
aI1
aI0
aI0
aI-23
aa(lp194
V0020700557
p195
aVJAN 15, 2008
p196
aVDET vs. TOR
p197
aVW
p198
aI29
aI3
aI8
aF0.375
aI0
aI0
aF0.0
aI0
aI1
aF0.0
aI0
aI2
aI2
aI5
aI1
aI1
aI1
aI1
aI6
aI4
aa(lp199
V0020700577
p200
aVJAN 18, 2008
p201
aVDET vs. SAC
p202
aVL
p203
aI38
aI5
aI11
aF0.455
aI1
aI2
aF0.5
aI4
aI5
aF0.8
aI2
aI2
aI4
aI3
aI0
aI1
aI2
aI1
aI15
aI7
aa(lp204
V0020700588
p205
aVJAN 19, 2008
p206
aVDET @ CHI
p207
aVL
p208
aI43
aI4
aI12
aF0.333
aI1
aI3
aF0.333
aI3
aI6
aF0.5
aI2
aI3
aI5
aI2
aI0
aI0
aI2
aI1
aI12
aI-1
aa(lp209
V0020700605
p210
aVJAN 21, 2008
p211
aVDET @ ORL
p212
aVL
p213
aI36
aI7
aI15
aF0.467
aI2
aI2
aF1.0
aI4
aI4
aF1.0
aI1
aI2
aI3
aI1
aI0
aI0
aI1
aI1
aI20
aI-1
aa(lp214
V0020700610
p215
aVJAN 23, 2008
p216
aVDET @ PHI
p217
aVW
p218
aI39
aI6
aI16
aF0.375
aI1
aI2
aF0.5
aI3
aI4
aF0.75
aI2
aI2
aI4
aI2
aI2
aI0
aI0
aI0
aI16
aI16
aa(lp219
V0020700630
p220
aVJAN 25, 2008
p221
aVDET vs. ORL
p222
aVW
p223
aI39
aI3
aI12
aF0.25
aI0
aI3
aF0.0
aI2
aI3
aF0.667
aI1
aI5
aI6
aI8
aI1
aI0
aI1
aI1
aI8
aI12
aa(lp224
V0020700657
p225
aVJAN 29, 2008
p226
aVDET @ IND
p227
aVW
p228
aI33
aI6
aI13
aF0.462
aI0
aI1
aF0.0
aI5
aI6
aF0.833
aI1
aI2
aI3
aI1
aI1
aI1
aI0
aI2
aI17
aI2
aa(lp229
V0020700675
p230
aVJAN 31, 2008
p231
aVDET vs. LAL
p232
aVW
p233
aI37
aI9
aI18
aF0.5
aI1
aI2
aF0.5
aI3
aI4
aF0.75
aI2
aI2
aI4
aI3
aI0
aI0
aI2
aI1
aI22
aI-9
aa(lp234
V0020700697
p235
aVFEB 03, 2008
p236
aVDET vs. DAL
p237
aVW
p238
aI29
aI4
aI4
aF1.0
aI0
aI0
aF0.0
aI8
aI8
aF1.0
aI2
aI5
aI7
aI3
aI1
aI1
aI1
aI2
aI16
aI19
aa(lp239
V0020700717
p240
aVFEB 06, 2008
p241
aVDET vs. MIA
p242
aVW
p243
aI36
aI4
aI10
aF0.4
aI1
aI2
aF0.5
aI5
aI7
aF0.714
aI2
aI4
aI6
aI7
aI0
aI1
aI1
aI0
aI14
aI7
aa(lp244
V0020700731
p245
aVFEB 08, 2008
p246
aVDET vs. POR
p247
aVW
p248
aI28
aI4
aI10
aF0.4
aI1
aI2
aF0.5
aI0
aI0
aF0.0
aI3
aI3
aI6
aI3
aI0
aI0
aI1
aI1
aI9
aI7
aa(lp249
V0020700747
p250
aVFEB 10, 2008
p251
aVDET vs. CHA
p252
aVW
p253
aI27
aI7
aI13
aF0.538
aI5
aI6
aF0.833
aI2
aI2
aF1.0
aI3
aI3
aI6
aI3
aI0
aI0
aI0
aI2
aI21
aI14
aa(lp254
V0020700758
p255
aVFEB 12, 2008
p256
aVDET @ ATL
p257
aVW
p258
aI34
aI2
aI10
aF0.2
aI0
aI1
aF0.0
aI2
aI3
aF0.667
aI0
aI5
aI5
aI2
aI0
aI2
aI0
aI0
aI6
aI0
aa(lp259
V0020700770
p260
aVFEB 13, 2008
p261
aVDET vs. IND
p262
aVW
p263
aI29
aI6
aI10
aF0.6
aI1
aI2
aF0.5
aI1
aI3
aF0.333
aI1
aI2
aI3
aI0
aI0
aI0
aI0
aI1
aI14
aI11
aa(lp264
V0020700782
p265
aVFEB 19, 2008
p266
aVDET vs. ORL
p267
aVL
p268
aI28
aI4
aI10
aF0.4
aI0
aI0
aF0.0
aI1
aI2
aF0.5
aI1
aI0
aI1
aI2
aI1
aI0
aI1
aI1
aI9
aI-11
aa(lp269
V0020700794
p270
aVFEB 20, 2008
p271
aVDET @ MIL
p272
aVL
p273
aI39
aI6
aI16
aF0.375
aI0
aI4
aF0.0
aI1
aI2
aF0.5
aI2
aI4
aI6
aI6
aI0
aI0
aI1
aI4
aI13
aI-6
aa(lp274
V0020700808
p275
aVFEB 22, 2008
p276
aVDET vs. MIL
p277
aVW
p278
aI28
aI5
aI9
aF0.556
aI0
aI1
aF0.0
aI0
aI0
aF0.0
aI1
aI2
aI3
aI3
aI0
aI0
aI0
aI1
aI10
aI33
aa(lp279
V0020700823
p280
aVFEB 24, 2008
p281
aVDET @ PHX
p282
aVW
p283
aI25
aI4
aI8
aF0.5
aI0
aI0
aF0.0
aI2
aI2
aF1.0
aI0
aI1
aI1
aI1
aI1
aI0
aI1
aI0
aI10
aI28
aa(lp284
V0020700835
p285
aVFEB 25, 2008
p286
aVDET @ DEN
p287
aVW
p288
aI38
aI8
aI15
aF0.533
aI0
aI1
aF0.0
aI4
aI4
aF1.0
aI2
aI4
aI6
aI9
aI1
aI0
aI3
aI1
aI20
aI5
aa(lp289
V0020700852
p290
aVFEB 27, 2008
p291
aVDET @ UTA
p292
aVL
p293
aI38
aI6
aI15
aF0.4
aI0
aI2
aF0.0
aI1
aI2
aF0.5
aI2
aI4
aI6
aI4
aI2
aI1
aI0
aI0
aI13
aI-11
aa(lp294
V0020700874
p295
aVMAR 01, 2008
p296
aVDET @ LAC
p297
aVW
p298
aI33
aI10
aI18
aF0.556
aI0
aI1
aF0.0
aI2
aI2
aF1.0
aI0
aI3
aI3
aI10
aI1
aI0
aI0
aI2
aI22
aI21
aa(lp299
V0020700891
p300
aVMAR 04, 2008
p301
aVDET vs. SEA
p302
aVW
p303
aI39
aI8
aI17
aF0.471
aI2
aI3
aF0.667
aI6
aI7
aF0.857
aI2
aI2
aI4
aI3
aI1
aI1
aI0
aI2
aI24
aI-6
aa(lp304
V0020700899
p305
aVMAR 05, 2008
p306
aVDET @ BOS
p307
aVL
p308
aI39
aI3
aI8
aF0.375
aI0
aI0
aF0.0
aI1
aI2
aF0.5
aI3
aI7
aI10
aI5
aI0
aI0
aI0
aI0
aI7
aI-3
aa(lp309
V0020700915
p310
aVMAR 07, 2008
p311
aVDET @ NYK
p312
aVW
p313
aI34
aI9
aI17
aF0.529
aI1
aI4
aF0.25
aI9
aI9
aF1.0
aI1
aI6
aI7
aI2
aI0
aI0
aI2
aI2
aI28
aI-1
aa(lp314
V0020700937
p315
aVMAR 09, 2008
p316
aVDET vs. CHI
p317
aVW
p318
aI39
aI8
aI15
aF0.533
aI1
aI2
aF0.5
aI4
aI4
aF1.0
aI3
aI3
aI6
aI6
aI0
aI0
aI1
aI2
aI21
aI10
aa(lp319
V0020700957
p320
aVMAR 12, 2008
p321
aVDET vs. PHI
p322
aVL
p323
aI40
aI6
aI13
aF0.462
aI0
aI1
aF0.0
aI1
aI2
aF0.5
aI1
aI3
aI4
aI3
aI0
aI1
aI3
aI0
aI13
aI4
aa(lp324
V0020700969
p325
aVMAR 14, 2008
p326
aVDET vs. SAS
p327
aVW
p328
aI39
aI7
aI14
aF0.5
aI1
aI4
aF0.25
aI2
aI2
aF1.0
aI1
aI4
aI5
aI6
aI0
aI0
aI1
aI1
aI17
aI5
aa(lp329
V0020700986
p330
aVMAR 16, 2008
p331
aVDET vs. NOH
p332
aVW
p333
aI36
aI5
aI13
aF0.385
aI1
aI2
aF0.5
aI2
aI2
aF1.0
aI0
aI2
aI2
aI4
aI0
aI0
aI1
aI1
aI13
aI9
aa(lp334
V0020700999
p335
aVMAR 18, 2008
p336
aVDET vs. DEN
p337
aVW
p338
aI28
aI5
aI9
aF0.556
aI1
aI2
aF0.5
aI2
aI4
aF0.5
aI1
aI1
aI2
aI9
aI0
aI0
aI1
aI0
aI13
aI1
aa(lp339
V0020701011
p340
aVMAR 19, 2008
p341
aVDET @ CLE
p342
aVL
p343
aI40
aI5
aI14
aF0.357
aI0
aI2
aF0.0
aI1
aI2
aF0.5
aI2
aI2
aI4
aI4
aI2
aI1
aI1
aI1
aI11
aI-12
aa(lp344
V0020701042
p345
aVMAR 23, 2008
p346
aVDET @ WAS
p347
aVL
p348
aI38
aI6
aI10
aF0.6
aI0
aI3
aF0.0
aI1
aI2
aF0.5
aI1
aI2
aI3
aI3
aI1
aI0
aI1
aI1
aI13
aI-10
aa(lp349
V0020701047
p350
aVMAR 24, 2008
p351
aVDET vs. PHX
p352
aVW
p353
aI37
aI5
aI12
aF0.417
aI0
aI0
aF0.0
aI1
aI2
aF0.5
aI2
aI3
aI5
aI4
aI0
aI1
aI1
aI2
aI11
aI6
aa(lp354
V0020701058
p355
aVMAR 26, 2008
p356
aVDET @ TOR
p357
aVL
p358
aI36
aI4
aI11
aF0.364
aI1
aI1
aF1.0
aI1
aI2
aF0.5
aI2
aI6
aI8
aI4
aI1
aI1
aI1
aI2
aI10
aI-1
aa(lp359
V0020701070
p360
aVMAR 27, 2008
p361
aVDET vs. MIA
p362
aVW
p363
aI35
aI4
aI13
aF0.308
aI0
aI2
aF0.0
aI0
aI0
aF0.0
aI3
aI5
aI8
aI1
aI1
aI0
aI1
aI1
aI8
aI18
aa(lp364
V0020701085
p365
aVMAR 29, 2008
p366
aVDET vs. CLE
p367
aVW
p368
aI35
aI5
aI12
aF0.417
aI0
aI1
aF0.0
aI2
aI2
aF1.0
aI3
aI4
aI7
aI5
aI2
aI0
aI0
aI2
aI12
aI19
aa(lp369
V0020701108
p370
aVAPR 01, 2008
p371
aVDET @ MIN
p372
aVW
p373
aI33
aI5
aI15
aF0.333
aI0
aI2
aF0.0
aI5
aI8
aF0.625
aI0
aI5
aI5
aI6
aI1
aI1
aI2
aI1
aI15
aI-1
aa(lp374
V0020701129
p375
aVAPR 04, 2008
p376
aVDET vs. NJN
p377
aVW
p378
aI24
aI4
aI9
aF0.444
aI1
aI1
aF1.0
aI2
aI2
aF1.0
aI1
aI2
aI3
aI5
aI2
aI0
aI2
aI1
aI11
aI18
aa(lp379
V0020701143
p380
aVAPR 06, 2008
p381
aVDET @ MIA
p382
aVW
p383
aI19
aI6
aI7
aF0.857
aI1
aI1
aF1.0
aI1
aI2
aF0.5
aI0
aI6
aI6
aI1
aI0
aI0
aI1
aI1
aI14
aI11
aa(lp384
V0020701156
p385
aVAPR 08, 2008
p386
aVDET vs. NYK
p387
aVL
p388
aI26
aI4
aI12
aF0.333
aI0
aI2
aF0.0
aI3
aI4
aF0.75
aI2
aI5
aI7
aI1
aI1
aI1
aI0
aI0
aI11
aI-13
aa(lp389
V0020701165
p390
aVAPR 09, 2008
p391
aVDET @ PHI
p392
aVL
p393
aI26
aI4
aI9
aF0.444
aI0
aI1
aF0.0
aI1
aI1
aF1.0
aI1
aI4
aI5
aI3
aI1
aI1
aI4
aI2
aI9
aI-5
aa(lp394
V0020701183
p395
aVAPR 11, 2008
p396
aVDET vs. WAS
p397
aVW
p398
aI24
aI4
aI6
aF0.667
aI1
aI2
aF0.5
aI0
aI0
aF0.0
aI2
aI3
aI5
aI1
aI0
aI0
aI1
aI0
aI9
aI24
aa(lp399
V0020701199
p400
aVAPR 13, 2008
p401
aVDET vs. TOR
p402
aVW
p403
aI25
aI4
aI9
aF0.444
aI1
aI2
aF0.5
aI0
aI0
aF0.0
aI1
aI5
aI6
aI2
aI1
aI0
aI5
aI0
aI9
aI6
aa(lp404
V0020701213
p405
aVAPR 15, 2008
p406
aVDET vs. MIN
p407
aVW
p408
aI24
aI4
aI6
aF0.667
aI0
aI0
aF0.0
aI2
aI3
aF0.667
aI1
aI6
aI7
aI1
aI0
aI1
aI2
aI1
aI10
aI6
aa(lp409
V0020701219
p410
aVAPR 16, 2008
p411
aVDET @ CLE
p412
aVW
p413
aI12
aI1
aI5
aF0.2
aI0
aI0
aF0.0
aI0
aI0
aF0.0
aI1
aI2
aI3
aI0
aI0
aI1
aI0
aI0
aI2
aI-8
aasS'name'
p414
VTayshaun Prince
p415
sS'experience'
p416
I5
s.