(dp0
S'age'
p1
I24
sS'stats'
p2
(lp3
(lp4
V0020700007
p5
aVOCT 31, 2007
p6
aVNJN vs. CHI
p7
aVW
p8
aI19
aI5
aI10
aF0.5
aI0
aI0
aF0.0
aI0
aI0
aF0.0
aI1
aI3
aI4
aI0
aI0
aI1
aI3
aI2
aI10
aI-9
aa(lp9
V0020700018
p10
aVNOV 02, 2007
p11
aVNJN vs. TOR
p12
aVL
p13
aI18
aI4
aI10
aF0.4
aI0
aI0
aF0.0
aI1
aI2
aF0.5
aI0
aI4
aI4
aI1
aI0
aI0
aI0
aI2
aI9
aI-5
aa(lp14
V0020700028
p15
aVNOV 03, 2007
p16
aVNJN @ PHI
p17
aVW
p18
aI17
aI3
aI11
aF0.273
aI0
aI0
aF0.0
aI0
aI0
aF0.0
aI5
aI1
aI6
aI0
aI0
aI1
aI1
aI4
aI6
aI2
aa(lp19
V0020700045
p20
aVNOV 06, 2007
p21
aVNJN vs. ATL
p22
aVW
p23
aI19
aI3
aI9
aF0.333
aI0
aI0
aF0.0
aI2
aI2
aF1.0
aI1
aI4
aI5
aI0
aI0
aI0
aI0
aI3
aI8
aI-2
aa(lp24
V0020700063
p25
aVNOV 08, 2007
p26
aVNJN vs. WAS
p27
aVW
p28
aI14
aI2
aI5
aF0.4
aI0
aI0
aF0.0
aI0
aI0
aF0.0
aI0
aI3
aI3
aI0
aI0
aI0
aI1
aI2
aI4
aI-13
aa(lp29
V0020700081
p30
aVNOV 10, 2007
p31
aVNJN vs. BOS
p32
aVL
p33
aI17
aI1
aI3
aF0.333
aI0
aI0
aF0.0
aI0
aI0
aF0.0
aI1
aI2
aI3
aI0
aI0
aI1
aI0
aI4
aI2
aI-9
aa(lp34
V0020700093
p35
aVNOV 12, 2007
p36
aVNJN vs. NOH
p37
aVL
p38
aI30
aI6
aI13
aF0.462
aI0
aI0
aF0.0
aI0
aI2
aF0.0
aI2
aI8
aI10
aI1
aI0
aI0
aI1
aI3
aI12
aI0
aa(lp39
V0020700108
p40
aVNOV 14, 2007
p41
aVNJN @ BOS
p42
aVL
p43
aI13
aI1
aI5
aF0.2
aI0
aI0
aF0.0
aI0
aI0
aF0.0
aI0
aI1
aI1
aI0
aI0
aI0
aI1
aI0
aI2
aI1
aa(lp44
V0020700122
p45
aVNOV 16, 2007
p46
aVNJN vs. ORL
p47
aVL
p48
aI5
aI0
aI1
aF0.0
aI0
aI0
aF0.0
aI0
aI0
aF0.0
aI0
aI0
aI0
aI0
aI0
aI0
aI0
aI1
aI0
aI2
aa(lp49
V0020700134
p50
aVNOV 17, 2007
p51
aVNJN vs. MIA
p52
aVL
p53
aI15
aI2
aI7
aF0.286
aI0
aI0
aF0.0
aI2
aI2
aF1.0
aI0
aI2
aI2
aI0
aI0
aI0
aI0
aI2
aI6
aI-9
aa(lp54
V0020700148
p55
aVNOV 19, 2007
p56
aVNJN @ UTA
p57
aVL
p58
aI11
aI0
aI6
aF0.0
aI0
aI0
aF0.0
aI0
aI0
aF0.0
aI0
aI2
aI2
aI0
aI0
aI0
aI0
aI3
aI0
aI1
aa(lp59
V0020700168
p60
aVNOV 21, 2007
p61
aVNJN @ POR
p62
aVW
p63
aI4
aI0
aI2
aF0.0
aI0
aI0
aF0.0
aI0
aI0
aF0.0
aI0
aI0
aI0
aI0
aI0
aI0
aI0
aI0
aI0
aI-5
aa(lp64
V0020700688
p65
aVFEB 02, 2008
p66
aVNJN @ ATL
p67
aVL
p68
aI3
aI0
aI0
aF0.0
aI0
aI0
aF0.0
aI0
aI0
aF0.0
aI0
aI0
aI0
aI0
aI0
aI0
aI0
aI0
aI0
aI-3
aa(lp69
V0020700710
p70
aVFEB 05, 2008
p71
aVNJN vs. LAL
p72
aVL
p73
aI3
aI0
aI1
aF0.0
aI0
aI0
aF0.0
aI0
aI0
aF0.0
aI0
aI1
aI1
aI0
aI0
aI0
aI0
aI0
aI0
aI-1
aa(lp74
V0020700714
p75
aVFEB 06, 2008
p76
aVNJN @ ORL
p77
aVL
p78
aI14
aI1
aI5
aF0.2
aI0
aI0
aF0.0
aI1
aI2
aF0.5
aI1
aI5
aI6
aI1
aI1
aI0
aI1
aI4
aI3
aI1
aa(lp79
V0020700727
p80
aVFEB 08, 2008
p81
aVNJN @ CHA
p82
aVW
p83
aI16
aI0
aI3
aF0.0
aI0
aI0
aF0.0
aI2
aI2
aF1.0
aI0
aI5
aI5
aI2
aI0
aI1
aI2
aI2
aI2
aI9
aa(lp84
V0020700746
p85
aVFEB 10, 2008
p86
aVNJN vs. DAL
p87
aVW
p88
aI17
aI2
aI5
aF0.4
aI0
aI0
aF0.0
aI4
aI4
aF1.0
aI1
aI7
aI8
aI0
aI0
aI0
aI0
aI2
aI8
aI11
aa(lp89
V0020700760
p90
aVFEB 12, 2008
p91
aVNJN vs. MIN
p92
aVW
p93
aI15
aI5
aI9
aF0.556
aI0
aI0
aF0.0
aI0
aI0
aF0.0
aI1
aI7
aI8
aI1
aI0
aI0
aI1
aI2
aI10
aI-2
aa(lp94
V0020700764
p95
aVFEB 13, 2008
p96
aVNJN @ TOR
p97
aVL
p98
aI17
aI0
aI2
aF0.0
aI0
aI0
aF0.0
aI2
aI2
aF1.0
aI0
aI5
aI5
aI0
aI0
aI0
aI2
aI3
aI2
aI-17
aa(lp99
V0020700793
p100
aVFEB 20, 2008
p101
aVNJN vs. CHI
p102
aVW
p103
aI22
aI2
aI7
aF0.286
aI0
aI0
aF0.0
aI2
aI2
aF1.0
aI0
aI2
aI2
aI1
aI1
aI1
aI0
aI4
aI6
aI8
aa(lp104
V0020700805
p105
aVFEB 22, 2008
p106
aVNJN @ IND
p107
aVL
p108
aI12
aI1
aI4
aF0.25
aI0
aI0
aF0.0
aI0
aI2
aF0.0
aI0
aI3
aI3
aI0
aI0
aI1
aI0
aI1
aI2
aI-3
aa(lp109
V0020700817
p110
aVFEB 23, 2008
p111
aVNJN vs. IND
p112
aVW
p113
aI17
aI3
aI7
aF0.429
aI0
aI0
aF0.0
aI1
aI2
aF0.5
aI0
aI3
aI3
aI1
aI0
aI1
aI0
aI3
aI7
aI8
aa(lp114
V0020700837
p115
aVFEB 26, 2008
p116
aVNJN vs. ORL
p117
aVL
p118
aI14
aI1
aI4
aF0.25
aI0
aI0
aF0.0
aI3
aI4
aF0.75
aI0
aI1
aI1
aI0
aI0
aI0
aI1
aI4
aI5
aI4
aa(lp119
V0020700855
p120
aVFEB 28, 2008
p121
aVNJN vs. MIL
p122
aVW
p123
aI16
aI2
aI5
aF0.4
aI0
aI0
aF0.0
aI4
aI4
aF1.0
aI2
aI2
aI4
aI0
aI0
aI0
aI2
aI3
aI8
aI-10
aa(lp124
V0020700878
p125
aVMAR 02, 2008
p126
aVNJN vs. SAS
p127
aVL
p128
aI13
aI0
aI4
aF0.0
aI0
aI0
aF0.0
aI1
aI2
aF0.5
aI0
aI2
aI2
aI0
aI0
aI0
aI0
aI0
aI1
aI-4
aa(lp129
V0020700894
p130
aVMAR 04, 2008
p131
aVNJN @ SAS
p132
aVL
p133
aI26
aI3
aI6
aF0.5
aI0
aI0
aF0.0
aI0
aI0
aF0.0
aI0
aI10
aI10
aI1
aI0
aI2
aI1
aI2
aI6
aI-4
aa(lp134
V0020700903
p135
aVMAR 05, 2008
p136
aVNJN @ MEM
p137
aVL
p138
aI35
aI8
aI13
aF0.615
aI0
aI0
aF0.0
aI0
aI0
aF0.0
aI2
aI7
aI9
aI0
aI2
aI0
aI3
aI4
aI16
aI-7
aa(lp139
V0020700918
p140
aVMAR 07, 2008
p141
aVNJN @ NOH
p142
aVL
p143
aI29
aI6
aI9
aF0.667
aI0
aI0
aF0.0
aI2
aI2
aF1.0
aI1
aI10
aI11
aI1
aI0
aI1
aI3
aI3
aI14
aI-6
aa(lp144
V0020700931
p145
aVMAR 08, 2008
p146
aVNJN @ DAL
p147
aVL
p148
aI18
aI3
aI7
aF0.429
aI0
aI0
aF0.0
aI1
aI2
aF0.5
aI2
aI2
aI4
aI0
aI1
aI1
aI0
aI3
aI7
aI-5
aa(lp149
V0020700943
p150
aVMAR 10, 2008
p151
aVNJN @ HOU
p152
aVL
p153
aI26
aI3
aI12
aF0.25
aI0
aI0
aF0.0
aI0
aI0
aF0.0
aI4
aI3
aI7
aI1
aI0
aI0
aI0
aI1
aI6
aI-12
aa(lp154
V0020700955
p155
aVMAR 12, 2008
p156
aVNJN vs. CLE
p157
aVW
p158
aI22
aI5
aI7
aF0.714
aI0
aI0
aF0.0
aI0
aI0
aF0.0
aI0
aI1
aI1
aI4
aI0
aI0
aI0
aI3
aI10
aI12
aa(lp159
V0020701021
p160
aVMAR 21, 2008
p161
aVNJN vs. DEN
p162
aVL
p163
aI16
aI3
aI7
aF0.429
aI0
aI0
aF0.0
aI2
aI3
aF0.667
aI0
aI1
aI1
aI1
aI0
aI0
aI0
aI2
aI8
aI-8
aa(lp164
V0020701029
p165
aVMAR 22, 2008
p166
aVNJN @ PHI
p167
aVL
p168
aI34
aI6
aI9
aF0.667
aI0
aI0
aF0.0
aI2
aI4
aF0.5
aI1
aI6
aI7
aI1
aI1
aI2
aI3
aI5
aI14
aI4
aa(lp169
V0020701045
p170
aVMAR 24, 2008
p171
aVNJN @ NYK
p172
aVW
p173
aI31
aI9
aI15
aF0.6
aI0
aI0
aF0.0
aI4
aI5
aF0.8
aI1
aI5
aI6
aI1
aI0
aI0
aI1
aI5
aI22
aI12
aa(lp174
V0020701064
p175
aVMAR 26, 2008
p176
aVNJN vs. IND
p177
aVW
p178
aI18
aI2
aI5
aF0.4
aI0
aI0
aF0.0
aI0
aI0
aF0.0
aI0
aI4
aI4
aI0
aI0
aI0
aI0
aI2
aI4
aI9
aa(lp179
V0020701075
p180
aVMAR 28, 2008
p181
aVNJN @ IND
p182
aVL
p183
aI4
aI0
aI2
aF0.0
aI0
aI0
aF0.0
aI0
aI0
aF0.0
aI0
aI1
aI1
aI0
aI0
aI0
aI0
aI0
aI0
aI-5
aa(lp184
V0020701084
p185
aVMAR 29, 2008
p186
aVNJN vs. PHX
p187
aVL
p188
aI15
aI5
aI10
aF0.5
aI0
aI0
aF0.0
aI2
aI2
aF1.0
aI0
aI4
aI4
aI1
aI0
aI0
aI0
aI3
aI12
aI-8
aa(lp189
V0020701106
p190
aVAPR 01, 2008
p191
aVNJN vs. PHI
p192
aVL
p193
aI20
aI4
aI9
aF0.444
aI0
aI0
aF0.0
aI0
aI0
aF0.0
aI3
aI6
aI9
aI2
aI0
aI1
aI1
aI2
aI8
aI-9
aa(lp194
V0020701129
p195
aVAPR 04, 2008
p196
aVNJN @ DET
p197
aVL
p198
aI22
aI3
aI7
aF0.429
aI0
aI0
aF0.0
aI4
aI5
aF0.8
aI0
aI4
aI4
aI0
aI0
aI1
aI2
aI4
aI10
aI-10
aa(lp199
V0020701140
p200
aVAPR 05, 2008
p201
aVNJN vs. TOR
p202
aVW
p203
aI15
aI2
aI2
aF1.0
aI0
aI0
aF0.0
aI0
aI0
aF0.0
aI0
aI4
aI4
aI0
aI0
aI0
aI2
aI4
aI4
aI1
aa(lp204
V0020701168
p205
aVAPR 09, 2008
p206
aVNJN @ CLE
p207
aVL
p208
aI25
aI2
aI8
aF0.25
aI0
aI0
aF0.0
aI4
aI4
aF1.0
aI2
aI5
aI7
aI1
aI1
aI1
aI1
aI5
aI8
aI-3
aa(lp209
V0020701176
p210
aVAPR 11, 2008
p211
aVNJN @ TOR
p212
aVL
p213
aI26
aI5
aI10
aF0.5
aI0
aI2
aF0.0
aI0
aI0
aF0.0
aI1
aI2
aI3
aI1
aI0
aI1
aI3
aI3
aI10
aI-7
aa(lp214
V0020701192
p215
aVAPR 12, 2008
p216
aVNJN @ MIL
p217
aVW
p218
aI18
aI4
aI6
aF0.667
aI0
aI0
aF0.0
aI0
aI0
aF0.0
aI1
aI1
aI2
aI1
aI0
aI0
aI0
aI4
aI8
aI14
aa(lp219
V0020701212
p220
aVAPR 15, 2008
p221
aVNJN vs. CHA
p222
aVW
p223
aI20
aI2
aI7
aF0.286
aI0
aI0
aF0.0
aI1
aI2
aF0.5
aI1
aI5
aI6
aI1
aI1
aI0
aI2
aI0
aI5
aI0
aa(lp224
V0020701221
p225
aVAPR 16, 2008
p226
aVNJN @ BOS
p227
aVL
p228
aI31
aI4
aI11
aF0.364
aI0
aI0
aF0.0
aI5
aI6
aF0.833
aI1
aI11
aI12
aI2
aI1
aI0
aI3
aI2
aI13
aI-2
aasS'name'
p229
VNenad Krstic
p230
sS'experience'
p231
I3
s.