(dp0
S'stats'
p1
(lp2
(lp3
V0020700004
p4
aVOCT 31, 2007
p5
aVPHI @ TOR
p6
aVL
p7
aI22
aI2
aI4
aF0.5
aI0
aI0
aF0.0
aI2
aI5
aF0.4
aI6
aI9
aI15
aI0
aI1
aI0
aI1
aI2
aI6
aI-4
aa(lp8
V0020700024
p9
aVNOV 02, 2007
p10
aVPHI @ CHI
p11
aVW
p12
aI28
aI3
aI7
aF0.429
aI0
aI0
aF0.0
aI3
aI6
aF0.5
aI5
aI4
aI9
aI2
aI4
aI0
aI3
aI5
aI9
aI2
aa(lp13
V0020700028
p14
aVNOV 03, 2007
p15
aVPHI vs. NJN
p16
aVL
p17
aI21
aI0
aI3
aF0.0
aI0
aI0
aF0.0
aI2
aI2
aF1.0
aI4
aI7
aI11
aI0
aI0
aI0
aI1
aI2
aI2
aI-9
aa(lp18
V0020700055
p19
aVNOV 07, 2007
p20
aVPHI vs. CHA
p21
aVW
p22
aI18
aI1
aI3
aF0.333
aI0
aI0
aF0.0
aI2
aI2
aF1.0
aI1
aI4
aI5
aI2
aI0
aI0
aI1
aI2
aI4
aI13
aa(lp23
V0020700066
p24
aVNOV 09, 2007
p25
aVPHI vs. TOR
p26
aVL
p27
aI22
aI3
aI5
aF0.6
aI0
aI0
aF0.0
aI1
aI1
aF1.0
aI3
aI9
aI12
aI1
aI0
aI0
aI1
aI4
aI7
aI-9
aa(lp28
V0020700088
p29
aVNOV 11, 2007
p30
aVPHI vs. NOH
p31
aVL
p32
aI33
aI1
aI3
aF0.333
aI0
aI0
aF0.0
aI0
aI0
aF0.0
aI4
aI6
aI10
aI1
aI2
aI0
aI3
aI3
aI2
aI-3
aa(lp33
V0020700100
p34
aVNOV 13, 2007
p35
aVPHI @ DAL
p36
aVL
p37
aI31
aI0
aI2
aF0.0
aI0
aI0
aF0.0
aI0
aI2
aF0.0
aI3
aI9
aI12
aI1
aI0
aI0
aI1
aI5
aI0
aI-20
aa(lp38
V0020700111
p39
aVNOV 14, 2007
p40
aVPHI @ NOH
p41
aVL
p42
aI28
aI3
aI5
aF0.6
aI0
aI0
aF0.0
aI0
aI0
aF0.0
aI1
aI1
aI2
aI2
aI3
aI0
aI1
aI3
aI6
aI-8
aa(lp43
V0020700120
p44
aVNOV 16, 2007
p45
aVPHI vs. POR
p46
aVW
p47
aI24
aI2
aI3
aF0.667
aI0
aI0
aF0.0
aI0
aI0
aF0.0
aI2
aI7
aI9
aI1
aI0
aI0
aI2
aI3
aI4
aI-10
aa(lp48
V0020700149
p49
aVNOV 20, 2007
p50
aVPHI @ WAS
p51
aVL
p52
aI22
aI2
aI4
aF0.5
aI0
aI0
aF0.0
aI0
aI2
aF0.0
aI0
aI4
aI4
aI0
aI0
aI0
aI1
aI2
aI4
aI-11
aa(lp53
V0020700174
p54
aVNOV 23, 2007
p55
aVPHI @ DET
p56
aVL
p57
aI39
aI2
aI5
aF0.4
aI0
aI0
aF0.0
aI3
aI3
aF1.0
aI5
aI5
aI10
aI1
aI0
aI1
aI2
aI5
aI7
aI-2
aa(lp58
V0020700184
p59
aVNOV 24, 2007
p60
aVPHI vs. GSW
p61
aVL
p62
aI22
aI2
aI4
aF0.5
aI0
aI0
aF0.0
aI1
aI2
aF0.5
aI2
aI7
aI9
aI2
aI0
aI0
aI1
aI3
aI5
aI6
aa(lp63
V0020700207
p64
aVNOV 27, 2007
p65
aVPHI @ MIL
p66
aVW
p67
aI25
aI1
aI4
aF0.25
aI0
aI0
aF0.0
aI1
aI2
aF0.5
aI3
aI1
aI4
aI2
aI1
aI0
aI0
aI3
aI3
aI6
aa(lp68
V0020700212
p69
aVNOV 28, 2007
p70
aVPHI vs. UTA
p71
aVL
p72
aI33
aI3
aI4
aF0.75
aI0
aI0
aF0.0
aI0
aI2
aF0.0
aI3
aI4
aI7
aI0
aI3
aI0
aI2
aI3
aI6
aI-13
aa(lp73
V0020700225
p74
aVNOV 30, 2007
p75
aVPHI vs. WAS
p76
aVW
p77
aI33
aI5
aI9
aF0.556
aI0
aI0
aF0.0
aI3
aI7
aF0.429
aI3
aI4
aI7
aI1
aI1
aI0
aI0
aI2
aI13
aI1
aa(lp78
V0020700236
p79
aVDEC 01, 2007
p80
aVPHI @ NJN
p81
aVL
p82
aI35
aI3
aI7
aF0.429
aI0
aI0
aF0.0
aI3
aI8
aF0.375
aI4
aI5
aI9
aI1
aI1
aI0
aI2
aI5
aI9
aI2
aa(lp83
V0020700251
p84
aVDEC 03, 2007
p85
aVPHI vs. ATL
p86
aVL
p87
aI22
aI1
aI3
aF0.333
aI0
aI0
aF0.0
aI1
aI2
aF0.5
aI1
aI9
aI10
aI0
aI1
aI0
aI4
aI3
aI3
aI-15
aa(lp88
V0020700263
p89
aVDEC 05, 2007
p90
aVPHI vs. BOS
p91
aVL
p92
aI26
aI2
aI3
aF0.667
aI0
aI0
aF0.0
aI0
aI2
aF0.0
aI2
aI6
aI8
aI1
aI0
aI0
aI2
aI2
aI4
aI-10
aa(lp93
V0020700276
p94
aVDEC 07, 2007
p95
aVPHI vs. NYK
p96
aVW
p97
aI33
aI5
aI8
aF0.625
aI0
aI0
aF0.0
aI1
aI2
aF0.5
aI5
aI7
aI12
aI0
aI0
aI0
aI2
aI2
aI11
aI4
aa(lp98
V0020700289
p99
aVDEC 08, 2007
p100
aVPHI @ NYK
p101
aVW
p102
aI24
aI2
aI7
aF0.286
aI0
aI0
aF0.0
aI2
aI6
aF0.333
aI5
aI9
aI14
aI2
aI2
aI0
aI2
aI3
aI6
aI10
aa(lp103
V0020700301
p104
aVDEC 10, 2007
p105
aVPHI vs. HOU
p106
aVW
p107
aI15
aI4
aI5
aF0.8
aI0
aI0
aF0.0
aI3
aI5
aF0.6
aI1
aI0
aI1
aI1
aI2
aI0
aI0
aI2
aI11
aI15
aa(lp108
V0020700315
p109
aVDEC 12, 2007
p110
aVPHI vs. MIN
p111
aVW
p112
aI24
aI3
aI5
aF0.6
aI0
aI0
aF0.0
aI0
aI2
aF0.0
aI3
aI3
aI6
aI0
aI0
aI0
aI4
aI4
aI6
aI8
aa(lp113
V0020700327
p114
aVDEC 14, 2007
p115
aVPHI vs. SAC
p116
aVL
p117
aI23
aI2
aI3
aF0.667
aI0
aI0
aF0.0
aI0
aI4
aF0.0
aI0
aI3
aI3
aI0
aI1
aI0
aI4
aI2
aI4
aI-2
aa(lp118
V0020700344
p119
aVDEC 15, 2007
p120
aVPHI @ CLE
p121
aVW
p122
aI33
aI1
aI8
aF0.125
aI0
aI0
aF0.0
aI2
aI2
aF1.0
aI5
aI9
aI14
aI1
aI1
aI0
aI3
aI4
aI4
aI2
aa(lp123
V0020700368
p124
aVDEC 19, 2007
p125
aVPHI @ IND
p126
aVL
p127
aI26
aI4
aI6
aF0.667
aI0
aI0
aF0.0
aI1
aI1
aF1.0
aI5
aI11
aI16
aI2
aI0
aI0
aI4
aI3
aI9
aI2
aa(lp128
V0020700382
p129
aVDEC 21, 2007
p130
aVPHI vs. LAL
p131
aVL
p132
aI10
aI0
aI0
aF0.0
aI0
aI0
aF0.0
aI4
aI4
aF1.0
aI2
aI1
aI3
aI0
aI1
aI0
aI0
aI2
aI4
aI0
aa(lp133
V0020700394
p134
aVDEC 22, 2007
p135
aVPHI @ MEM
p136
aVW
p137
aI28
aI2
aI5
aF0.4
aI0
aI0
aF0.0
aI1
aI5
aF0.2
aI3
aI4
aI7
aI0
aI1
aI0
aI2
aI3
aI5
aI-4
aa(lp138
V0020700408
p139
aVDEC 26, 2007
p140
aVPHI vs. MIA
p141
aVW
p142
aI24
aI0
aI4
aF0.0
aI0
aI0
aF0.0
aI4
aI6
aF0.667
aI1
aI6
aI7
aI1
aI1
aI0
aI2
aI2
aI4
aI-2
aa(lp143
V0020700430
p144
aVDEC 28, 2007
p145
aVPHI @ SAC
p146
aVW
p147
aI27
aI2
aI5
aF0.4
aI0
aI0
aF0.0
aI0
aI0
aF0.0
aI5
aI0
aI5
aI1
aI1
aI0
aI1
aI1
aI4
aI-3
aa(lp148
V0020700444
p149
aVDEC 30, 2007
p150
aVPHI @ POR
p151
aVL
p152
aI23
aI0
aI2
aF0.0
aI0
aI0
aF0.0
aI1
aI2
aF0.5
aI1
aI5
aI6
aI0
aI1
aI0
aI0
aI3
aI1
aI7
aa(lp153
V0020700456
p154
aVDEC 31, 2007
p155
aVPHI @ SEA
p156
aVW
p157
aI27
aI4
aI5
aF0.8
aI0
aI0
aF0.0
aI0
aI4
aF0.0
aI1
aI4
aI5
aI1
aI0
aI0
aI0
aI2
aI8
aI6
aa(lp158
V0020700467
p159
aVJAN 02, 2008
p160
aVPHI @ UTA
p161
aVL
p162
aI34
aI1
aI2
aF0.5
aI0
aI0
aF0.0
aI0
aI2
aF0.0
aI3
aI9
aI12
aI2
aI1
aI0
aI1
aI2
aI2
aI1
aa(lp163
V0020700482
p164
aVJAN 04, 2008
p165
aVPHI @ LAL
p166
aVL
p167
aI20
aI1
aI3
aF0.333
aI0
aI0
aF0.0
aI1
aI6
aF0.167
aI2
aI2
aI4
aI0
aI0
aI0
aI0
aI1
aI3
aI-23
aa(lp168
V0020700496
p169
aVJAN 06, 2008
p170
aVPHI @ DEN
p171
aVL
p172
aI27
aI3
aI7
aF0.429
aI0
aI0
aF0.0
aI1
aI4
aF0.25
aI4
aI7
aI11
aI2
aI1
aI0
aI2
aI2
aI7
aI2
aa(lp173
V0020700500
p174
aVJAN 08, 2008
p175
aVPHI vs. MIL
p176
aVL
p177
aI20
aI0
aI4
aF0.0
aI0
aI0
aF0.0
aI3
aI4
aF0.75
aI5
aI4
aI9
aI1
aI1
aI0
aI2
aI3
aI3
aI6
aa(lp178
V0020700509
p179
aVJAN 09, 2008
p180
aVPHI @ TOR
p181
aVL
p182
aI25
aI2
aI4
aF0.5
aI0
aI0
aF0.0
aI2
aI6
aF0.333
aI5
aI4
aI9
aI2
aI1
aI0
aI1
aI2
aI6
aI-9
aa(lp183
V0020700523
p184
aVJAN 11, 2008
p185
aVPHI vs. CHI
p186
aVL
p187
aI31
aI0
aI3
aF0.0
aI0
aI0
aF0.0
aI1
aI2
aF0.5
aI5
aI8
aI13
aI0
aI2
aI0
aI0
aI3
aI1
aI-10
aa(lp188
V0020700550
p189
aVJAN 14, 2008
p190
aVPHI @ SAS
p191
aVL
p192
aI29
aI0
aI5
aF0.0
aI0
aI0
aF0.0
aI6
aI7
aF0.857
aI1
aI6
aI7
aI1
aI0
aI0
aI0
aI1
aI6
aI-4
aa(lp193
V0020700560
p194
aVJAN 15, 2008
p195
aVPHI @ HOU
p196
aVW
p197
aI20
aI0
aI3
aF0.0
aI0
aI0
aF0.0
aI1
aI2
aF0.5
aI0
aI4
aI4
aI2
aI1
aI0
aI1
aI3
aI1
aI-15
aa(lp198
V0020700576
p199
aVJAN 18, 2008
p200
aVPHI @ BOS
p201
aVL
p202
aI25
aI3
aI5
aF0.6
aI1
aI1
aF1.0
aI1
aI4
aF0.25
aI4
aI3
aI7
aI1
aI1
aI1
aI4
aI4
aI8
aI-9
aa(lp203
V0020700583
p204
aVJAN 19, 2008
p205
aVPHI vs. TOR
p206
aVW
p207
aI20
aI2
aI3
aF0.667
aI0
aI0
aF0.0
aI2
aI3
aF0.667
aI2
aI4
aI6
aI0
aI1
aI0
aI0
aI1
aI6
aI7
aa(lp208
V0020700598
p209
aVJAN 21, 2008
p210
aVPHI vs. IND
p211
aVL
p212
aI10
aI1
aI1
aF1.0
aI0
aI0
aF0.0
aI0
aI0
aF0.0
aI1
aI4
aI5
aI0
aI0
aI0
aI1
aI2
aI2
aI-4
aa(lp213
V0020700610
p214
aVJAN 23, 2008
p215
aVPHI vs. DET
p216
aVL
p217
aI17
aI2
aI2
aF1.0
aI0
aI0
aF0.0
aI1
aI2
aF0.5
aI5
aI6
aI11
aI0
aI0
aI0
aI1
aI1
aI5
aI-14
aa(lp218
V0020700629
p219
aVJAN 25, 2008
p220
aVPHI @ NYK
p221
aVL
p222
aI31
aI0
aI3
aF0.0
aI0
aI0
aF0.0
aI2
aI4
aF0.5
aI6
aI3
aI9
aI0
aI0
aI0
aI2
aI4
aI2
aI-2
aa(lp223
V0020700639
p224
aVJAN 26, 2008
p225
aVPHI @ CHA
p226
aVW
p227
aI23
aI0
aI3
aF0.0
aI0
aI0
aF0.0
aI2
aI6
aF0.333
aI5
aI4
aI9
aI0
aI2
aI0
aI2
aI4
aI2
aI12
aa(lp228
V0020700666
p229
aVJAN 30, 2008
p230
aVPHI vs. MIL
p231
aVW
p232
aI17
aI5
aI6
aF0.833
aI0
aI0
aF0.0
aI3
aI13
aF0.231
aI4
aI5
aI9
aI2
aI1
aI0
aI0
aI0
aI13
aI20
aa(lp233
V0020700680
p234
aVFEB 01, 2008
p235
aVPHI vs. ORL
p236
aVL
p237
aI23
aI2
aI4
aF0.5
aI0
aI0
aF0.0
aI5
aI6
aF0.833
aI1
aI6
aI7
aI0
aI0
aI0
aI0
aI3
aI9
aI5
aa(lp238
V0020700698
p239
aVFEB 04, 2008
p240
aVPHI @ ATL
p241
aVL
p242
aI20
aI0
aI2
aF0.0
aI0
aI0
aF0.0
aI0
aI0
aF0.0
aI1
aI7
aI8
aI0
aI0
aI0
aI1
aI2
aI0
aI-13
aa(lp243
V0020700707
p244
aVFEB 05, 2008
p245
aVPHI vs. WAS
p246
aVW
p247
aI15
aI2
aI2
aF1.0
aI0
aI0
aF0.0
aI2
aI2
aF1.0
aI0
aI2
aI2
aI1
aI3
aI0
aI2
aI5
aI6
aI-3
aa(lp248
V0020700723
p249
aVFEB 07, 2008
p250
aVPHI vs. MIA
p251
aVW
p252
aI26
aI3
aI5
aF0.6
aI0
aI0
aF0.0
aI2
aI6
aF0.333
aI3
aI11
aI14
aI2
aI3
aI0
aI1
aI3
aI8
aI11
aa(lp253
V0020700738
p254
aVFEB 09, 2008
p255
aVPHI vs. LAC
p256
aVW
p257
aI17
aI2
aI5
aF0.4
aI0
aI0
aF0.0
aI0
aI0
aF0.0
aI4
aI3
aI7
aI1
aI0
aI0
aI2
aI1
aI4
aI16
aa(lp258
V0020700752
p259
aVFEB 11, 2008
p260
aVPHI vs. DAL
p261
aVW
p262
aI26
aI1
aI3
aF0.333
aI0
aI0
aF0.0
aI0
aI1
aF0.0
aI4
aI4
aI8
aI0
aI0
aI0
aI2
aI3
aI2
aI7
aa(lp263
V0020700765
p264
aVFEB 13, 2008
p265
aVPHI vs. MEM
p266
aVW
p267
aI17
aI0
aI5
aF0.0
aI0
aI0
aF0.0
aI1
aI2
aF0.5
aI4
aI4
aI8
aI0
aI1
aI1
aI0
aI1
aI1
aI-8
aa(lp268
V0020700783
p269
aVFEB 19, 2008
p270
aVPHI @ MIN
p271
aVL
p272
aI18
aI2
aI6
aF0.333
aI0
aI0
aF0.0
aI2
aI5
aF0.4
aI2
aI5
aI7
aI0
aI2
aI1
aI0
aI4
aI6
aI1
aa(lp273
V0020700791
p274
aVFEB 20, 2008
p275
aVPHI vs. NYK
p276
aVW
p277
aI25
aI4
aI8
aF0.5
aI0
aI0
aF0.0
aI1
aI4
aF0.25
aI3
aI4
aI7
aI1
aI1
aI0
aI1
aI2
aI9
aI37
aa(lp278
V0020700818
p279
aVFEB 23, 2008
p280
aVPHI @ MIA
p281
aVW
p282
aI25
aI3
aI5
aF0.6
aI0
aI0
aF0.0
aI0
aI1
aF0.0
aI3
aI5
aI8
aI0
aI2
aI0
aI3
aI2
aI6
aI-10
aa(lp283
V0020700846
p284
aVFEB 27, 2008
p285
aVPHI vs. ORL
p286
aVW
p287
aI26
aI0
aI4
aF0.0
aI0
aI0
aF0.0
aI2
aI2
aF1.0
aI2
aI2
aI4
aI1
aI2
aI0
aI1
aI3
aI2
aI-2
aa(lp288
V0020700867
p289
aVFEB 29, 2008
p290
aVPHI @ GSW
p291
aVL
p292
aI21
aI1
aI3
aF0.333
aI0
aI0
aF0.0
aI0
aI0
aF0.0
aI1
aI3
aI4
aI3
aI0
aI0
aI0
aI3
aI2
aI-5
aa(lp293
V0020700873
p294
aVMAR 01, 2008
p295
aVPHI @ PHX
p296
aVW
p297
aI37
aI6
aI6
aF1.0
aI0
aI0
aF0.0
aI1
aI6
aF0.167
aI3
aI10
aI13
aI2
aI4
aI0
aI1
aI4
aI13
aI17
aa(lp298
V0020700888
p299
aVMAR 03, 2008
p300
aVPHI @ LAC
p301
aVW
p302
aI16
aI3
aI5
aF0.6
aI0
aI0
aF0.0
aI1
aI4
aF0.25
aI4
aI1
aI5
aI1
aI0
aI1
aI3
aI1
aI7
aI9
aa(lp303
V0020700913
p304
aVMAR 07, 2008
p305
aVPHI vs. SEA
p306
aVW
p307
aI29
aI4
aI9
aF0.444
aI0
aI0
aF0.0
aI2
aI4
aF0.5
aI2
aI5
aI7
aI2
aI4
aI0
aI4
aI2
aI10
aI7
aa(lp308
V0020700935
p309
aVMAR 09, 2008
p310
aVPHI @ MIL
p311
aVW
p312
aI17
aI2
aI3
aF0.667
aI0
aI0
aF0.0
aI7
aI10
aF0.7
aI2
aI1
aI3
aI0
aI1
aI0
aI0
aI4
aI11
aI10
aa(lp313
V0020700939
p314
aVMAR 10, 2008
p315
aVPHI vs. BOS
p316
aVL
p317
aI22
aI2
aI6
aF0.333
aI0
aI0
aF0.0
aI1
aI4
aF0.25
aI6
aI5
aI11
aI0
aI0
aI0
aI0
aI2
aI5
aI-16
aa(lp318
V0020700957
p319
aVMAR 12, 2008
p320
aVPHI @ DET
p321
aVW
p322
aI28
aI4
aI6
aF0.667
aI0
aI0
aF0.0
aI4
aI8
aF0.5
aI5
aI6
aI11
aI1
aI2
aI1
aI1
aI4
aI12
aI0
aa(lp323
V0020700971
p324
aVMAR 14, 2008
p325
aVPHI @ CHI
p326
aVW
p327
aI28
aI3
aI6
aF0.5
aI0
aI0
aF0.0
aI6
aI6
aF1.0
aI2
aI5
aI7
aI0
aI2
aI0
aI1
aI4
aI12
aI-13
aa(lp328
V0020700976
p329
aVMAR 15, 2008
p330
aVPHI vs. SAS
p331
aVW
p332
aI20
aI1
aI4
aF0.25
aI0
aI0
aF0.0
aI0
aI0
aF0.0
aI2
aI5
aI7
aI0
aI0
aI0
aI1
aI3
aI2
aI-3
aa(lp333
V0020701007
p334
aVMAR 19, 2008
p335
aVPHI vs. DEN
p336
aVW
p337
aI22
aI1
aI3
aF0.333
aI0
aI0
aF0.0
aI1
aI4
aF0.25
aI2
aI8
aI10
aI1
aI0
aI0
aI0
aI2
aI3
aI-7
aa(lp338
V0020701019
p339
aVMAR 21, 2008
p340
aVPHI @ ORL
p341
aVL
p342
aI21
aI4
aI5
aF0.8
aI0
aI0
aF0.0
aI0
aI0
aF0.0
aI5
aI4
aI9
aI1
aI3
aI0
aI1
aI2
aI8
aI-7
aa(lp343
V0020701029
p344
aVMAR 22, 2008
p345
aVPHI vs. NJN
p346
aVW
p347
aI17
aI0
aI2
aF0.0
aI0
aI0
aF0.0
aI1
aI2
aF0.5
aI2
aI5
aI7
aI1
aI0
aI0
aI3
aI4
aI1
aI-1
aa(lp348
V0020701044
p349
aVMAR 24, 2008
p350
aVPHI @ BOS
p351
aVW
p352
aI23
aI2
aI6
aF0.333
aI0
aI0
aF0.0
aI2
aI2
aF1.0
aI1
aI3
aI4
aI1
aI1
aI0
aI1
aI4
aI6
aI-8
aa(lp353
V0020701060
p354
aVMAR 26, 2008
p355
aVPHI vs. CHI
p356
aVW
p357
aI25
aI2
aI3
aF0.667
aI0
aI0
aF0.0
aI2
aI2
aF1.0
aI1
aI5
aI6
aI1
aI2
aI0
aI1
aI3
aI6
aI12
aa(lp358
V0020701074
p359
aVMAR 28, 2008
p360
aVPHI vs. PHX
p361
aVL
p362
aI27
aI5
aI10
aF0.5
aI0
aI0
aF0.0
aI0
aI0
aF0.0
aI7
aI6
aI13
aI1
aI2
aI0
aI2
aI3
aI10
aI-7
aa(lp363
V0020701095
p364
aVMAR 30, 2008
p365
aVPHI @ CLE
p366
aVL
p367
aI27
aI3
aI9
aF0.333
aI0
aI0
aF0.0
aI2
aI2
aF1.0
aI4
aI5
aI9
aI2
aI0
aI2
aI0
aI3
aI8
aI-3
aa(lp368
V0020701106
p369
aVAPR 01, 2008
p370
aVPHI @ NJN
p371
aVW
p372
aI19
aI1
aI4
aF0.25
aI0
aI0
aF0.0
aI1
aI2
aF0.5
aI1
aI4
aI5
aI0
aI2
aI0
aI0
aI2
aI3
aI5
aa(lp373
V0020701127
p374
aVAPR 04, 2008
p375
aVPHI @ ATL
p376
aVW
p377
aI8
aI0
aI2
aF0.0
aI0
aI0
aF0.0
aI0
aI0
aF0.0
aI0
aI0
aI0
aI0
aI3
aI0
aI4
aI1
aI0
aI-4
aa(lp378
V0020701138
p379
aVAPR 05, 2008
p380
aVPHI vs. ATL
p381
aVL
p382
aI19
aI1
aI2
aF0.5
aI0
aI0
aF0.0
aI2
aI4
aF0.5
aI2
aI4
aI6
aI1
aI2
aI0
aI1
aI3
aI4
aI-7
aa(lp383
V0020701165
p384
aVAPR 09, 2008
p385
aVPHI vs. DET
p386
aVW
p387
aI17
aI1
aI3
aF0.333
aI0
aI0
aF0.0
aI3
aI6
aF0.5
aI1
aI2
aI3
aI0
aI1
aI0
aI0
aI0
aI5
aI7
aa(lp388
V0020701177
p389
aVAPR 11, 2008
p390
aVPHI vs. IND
p391
aVL
p392
aI1
aI0
aI0
aF0.0
aI0
aI0
aF0.0
aI0
aI0
aF0.0
aI0
aI0
aI0
aI0
aI0
aI0
aI0
aI0
aI0
aI3
aa(lp393
V0020701188
p394
aVAPR 12, 2008
p395
aVPHI @ WAS
p396
aVL
p397
aI11
aI1
aI1
aF1.0
aI0
aI0
aF0.0
aI1
aI2
aF0.5
aI0
aI1
aI1
aI0
aI1
aI0
aI1
aI4
aI3
aI-1
aa(lp398
V0020701204
p399
aVAPR 14, 2008
p400
aVPHI vs. CLE
p401
aVL
p402
aI22
aI1
aI2
aF0.5
aI0
aI0
aF0.0
aI1
aI2
aF0.5
aI1
aI8
aI9
aI1
aI2
aI0
aI1
aI2
aI3
aI0
aa(lp403
V0020701217
p404
aVAPR 16, 2008
p405
aVPHI @ CHA
p406
aVL
p407
aI13
aI0
aI2
aF0.0
aI0
aI0
aF0.0
aI0
aI2
aF0.0
aI2
aI2
aI4
aI0
aI0
aI0
aI0
aI1
aI0
aI-13
aasS'name'
p408
VReggie Evans
p409
sS'weight'
p410
V245
p411
sS'age'
p412
I27
sS'experience'
p413
I5
sS'height'
p414
V6-8
p415
sS'position'
p416
VCenter-Forward
p417
s.