(dp0
S'age'
p1
I25
sS'stats'
p2
(lp3
(lp4
V0020700003
p5
aVOCT 30, 2007
p6
aVGSW vs. UTA
p7
aVL
p8
aI28
aI6
aI8
aF0.75
aI3
aI5
aF0.6
aI2
aI4
aF0.5
aI0
aI5
aI5
aI0
aI1
aI1
aI1
aI5
aI17
aI-8
aa(lp9
V0020700027
p10
aVNOV 02, 2007
p11
aVGSW @ LAC
p12
aVL
p13
aI27
aI2
aI5
aF0.4
aI2
aI5
aF0.4
aI3
aI4
aF0.75
aI0
aI4
aI4
aI0
aI0
aI1
aI0
aI4
aI9
aI-20
aa(lp14
V0020700034
p15
aVNOV 03, 2007
p16
aVGSW @ UTA
p17
aVL
p18
aI24
aI3
aI4
aF0.75
aI3
aI4
aF0.75
aI0
aI0
aF0.0
aI0
aI3
aI3
aI1
aI3
aI1
aI1
aI2
aI9
aI-10
aa(lp19
V0020700053
p20
aVNOV 06, 2007
p21
aVGSW vs. CLE
p22
aVL
p23
aI20
aI2
aI4
aF0.5
aI1
aI2
aF0.5
aI1
aI2
aF0.5
aI2
aI1
aI3
aI1
aI0
aI0
aI0
aI4
aI6
aI-7
aa(lp24
V0020700141
p25
aVNOV 18, 2007
p26
aVGSW @ TOR
p27
aVW
p28
aI17
aI4
aI7
aF0.571
aI0
aI3
aF0.0
aI3
aI4
aF0.75
aI0
aI4
aI4
aI0
aI1
aI0
aI2
aI2
aI11
aI-10
aa(lp29
V0020700153
p30
aVNOV 20, 2007
p31
aVGSW @ NYK
p32
aVW
p33
aI30
aI6
aI8
aF0.75
aI0
aI2
aF0.0
aI4
aI6
aF0.667
aI1
aI5
aI6
aI2
aI4
aI1
aI3
aI3
aI16
aI31
aa(lp34
V0020700158
p35
aVNOV 21, 2007
p36
aVGSW @ BOS
p37
aVL
p38
aI27
aI3
aI10
aF0.3
aI1
aI6
aF0.167
aI1
aI3
aF0.333
aI0
aI5
aI5
aI1
aI0
aI0
aI1
aI3
aI8
aI-13
aa(lp39
V0020700170
p40
aVNOV 23, 2007
p41
aVGSW @ WAS
p42
aVW
p43
aI20
aI4
aI7
aF0.571
aI1
aI2
aF0.5
aI2
aI2
aF1.0
aI0
aI4
aI4
aI1
aI2
aI0
aI0
aI2
aI11
aI-10
aa(lp44
V0020700184
p45
aVNOV 24, 2007
p46
aVGSW @ PHI
p47
aVW
p48
aI37
aI1
aI8
aF0.125
aI1
aI6
aF0.167
aI3
aI4
aF0.75
aI0
aI5
aI5
aI1
aI1
aI2
aI0
aI4
aI6
aI12
aa(lp49
V0020700203
p50
aVNOV 26, 2007
p51
aVGSW vs. PHX
p52
aVW
p53
aI17
aI1
aI3
aF0.333
aI1
aI3
aF0.333
aI0
aI0
aF0.0
aI0
aI2
aI2
aI1
aI2
aI0
aI0
aI2
aI3
aI0
aa(lp54
V0020700218
p55
aVNOV 28, 2007
p56
aVGSW @ SAC
p57
aVW
p58
aI24
aI2
aI8
aF0.25
aI1
aI5
aF0.2
aI0
aI0
aF0.0
aI2
aI3
aI5
aI0
aI1
aI1
aI1
aI4
aI5
aI-4
aa(lp59
V0020700223
p60
aVNOV 29, 2007
p61
aVGSW vs. HOU
p62
aVW
p63
aI10
aI1
aI1
aF1.0
aI0
aI0
aF0.0
aI0
aI0
aF0.0
aI0
aI1
aI1
aI0
aI0
aI0
aI0
aI1
aI2
aI7
aa(lp64
V0020700248
p65
aVDEC 02, 2007
p66
aVGSW @ SEA
p67
aVW
p68
aI1
aI0
aI0
aF0.0
aI0
aI0
aF0.0
aI0
aI0
aF0.0
aI0
aI0
aI0
aI0
aI0
aI0
aI0
aI0
aI0
aI0
aa(lp69
V0020700285
p70
aVDEC 07, 2007
p71
aVGSW vs. MIA
p72
aVW
p73
aI12
aI1
aI1
aF1.0
aI0
aI0
aF0.0
aI0
aI0
aF0.0
aI0
aI2
aI2
aI0
aI0
aI0
aI0
aI2
aI2
aI6
aa(lp74
V0020700300
p75
aVDEC 09, 2007
p76
aVGSW @ LAL
p77
aVL
p78
aI17
aI5
aI10
aF0.5
aI2
aI5
aF0.4
aI2
aI2
aF1.0
aI2
aI2
aI4
aI2
aI1
aI0
aI1
aI2
aI14
aI12
aa(lp79
V0020700313
p80
aVDEC 11, 2007
p81
aVGSW vs. SAS
p82
aVW
p83
aI19
aI0
aI3
aF0.0
aI0
aI0
aF0.0
aI0
aI0
aF0.0
aI0
aI1
aI1
aI0
aI2
aI0
aI0
aI1
aI0
aI12
aa(lp84
V0020700323
p85
aVDEC 12, 2007
p86
aVGSW @ POR
p87
aVL
p88
aI10
aI2
aI5
aF0.4
aI1
aI2
aF0.5
aI0
aI0
aF0.0
aI2
aI1
aI3
aI0
aI0
aI1
aI2
aI3
aI5
aI-11
aa(lp89
V0020700338
p90
aVDEC 14, 2007
p91
aVGSW vs. LAL
p92
aVW
p93
aI10
aI1
aI5
aF0.2
aI0
aI2
aF0.0
aI0
aI1
aF0.0
aI0
aI1
aI1
aI0
aI0
aI0
aI0
aI2
aI2
aI-8
aa(lp94
V0020700350
p95
aVDEC 16, 2007
p96
aVGSW @ DET
p97
aVL
p98
aI17
aI1
aI2
aF0.5
aI0
aI1
aF0.0
aI2
aI4
aF0.5
aI1
aI1
aI2
aI2
aI1
aI0
aI0
aI3
aI4
aI-12
aa(lp99
V0020700358
p100
aVDEC 17, 2007
p101
aVGSW @ MEM
p102
aVW
p103
aI16
aI2
aI5
aF0.4
aI2
aI3
aF0.667
aI2
aI2
aF1.0
aI0
aI3
aI3
aI0
aI1
aI0
aI2
aI5
aI8
aI12
aa(lp104
V0020700373
p105
aVDEC 19, 2007
p106
aVGSW @ MIN
p107
aVW
p108
aI6
aI1
aI2
aF0.5
aI1
aI1
aF1.0
aI0
aI0
aF0.0
aI0
aI1
aI1
aI0
aI0
aI0
aI0
aI1
aI3
aI-5
aa(lp109
V0020700392
p110
aVDEC 22, 2007
p111
aVGSW @ NJN
p112
aVL
p113
aI4
aI0
aI1
aF0.0
aI0
aI0
aF0.0
aI0
aI0
aF0.0
aI0
aI0
aI0
aI0
aI0
aI0
aI0
aI0
aI0
aI-1
aa(lp114
V0020700402
p115
aVDEC 23, 2007
p116
aVGSW @ CLE
p117
aVW
p118
aI15
aI1
aI3
aF0.333
aI0
aI1
aF0.0
aI0
aI0
aF0.0
aI0
aI3
aI3
aI1
aI1
aI0
aI0
aI3
aI2
aI-4
aa(lp119
V0020700418
p120
aVDEC 26, 2007
p121
aVGSW vs. MIN
p122
aVW
p123
aI9
aI1
aI2
aF0.5
aI1
aI2
aF0.5
aI0
aI0
aF0.0
aI1
aI1
aI2
aI0
aI0
aI0
aI1
aI2
aI3
aI1
aa(lp124
V0020700433
p125
aVDEC 28, 2007
p126
aVGSW vs. DEN
p127
aVL
p128
aI14
aI2
aI4
aF0.5
aI1
aI2
aF0.5
aI0
aI0
aF0.0
aI1
aI2
aI3
aI0
aI1
aI0
aI0
aI3
aI5
aI1
aa(lp129
V0020700445
p130
aVDEC 30, 2007
p131
aVGSW @ DEN
p132
aVW
p133
aI29
aI2
aI6
aF0.333
aI0
aI2
aF0.0
aI0
aI2
aF0.0
aI1
aI3
aI4
aI1
aI2
aI1
aI1
aI5
aI4
aI8
aa(lp134
V0020700452
p135
aVDEC 31, 2007
p136
aVGSW @ HOU
p137
aVW
p138
aI10
aI3
aI5
aF0.6
aI1
aI3
aF0.333
aI0
aI0
aF0.0
aI0
aI0
aI0
aI2
aI1
aI0
aI1
aI4
aI7
aI6
aa(lp139
V0020700466
p140
aVJAN 02, 2008
p141
aVGSW @ DAL
p142
aVL
p143
aI24
aI2
aI7
aF0.286
aI2
aI3
aF0.667
aI2
aI2
aF1.0
aI1
aI5
aI6
aI2
aI0
aI1
aI1
aI3
aI8
aI-10
aa(lp144
V0020700483
p145
aVJAN 04, 2008
p146
aVGSW vs. NOH
p147
aVL
p148
aI19
aI2
aI6
aF0.333
aI0
aI1
aF0.0
aI0
aI0
aF0.0
aI2
aI0
aI2
aI1
aI0
aI1
aI0
aI3
aI4
aI15
aa(lp149
V0020700499
p150
aVJAN 07, 2008
p151
aVGSW vs. SAS
p152
aVW
p153
aI24
aI5
aI9
aF0.556
aI3
aI6
aF0.5
aI0
aI0
aF0.0
aI1
aI5
aI6
aI0
aI0
aI1
aI1
aI4
aI13
aI-7
aa(lp154
V0020700518
p155
aVJAN 09, 2008
p156
aVGSW @ POR
p157
aVL
p158
aI30
aI4
aI12
aF0.333
aI3
aI6
aF0.5
aI2
aI4
aF0.5
aI3
aI3
aI6
aI1
aI3
aI1
aI0
aI1
aI13
aI9
aa(lp159
V0020700532
p160
aVJAN 11, 2008
p161
aVGSW vs. MEM
p162
aVW
p163
aI5
aI0
aI1
aF0.0
aI0
aI1
aF0.0
aI1
aI2
aF0.5
aI0
aI1
aI1
aI0
aI0
aI0
aI0
aI3
aI1
aI2
aa(lp164
V0020700545
p165
aVJAN 13, 2008
p166
aVGSW vs. IND
p167
aVW
p168
aI23
aI1
aI5
aF0.2
aI1
aI5
aF0.2
aI0
aI0
aF0.0
aI0
aI5
aI5
aI1
aI0
aI0
aI0
aI3
aI3
aI0
aa(lp169
V0020700559
p170
aVJAN 15, 2008
p171
aVGSW @ MIN
p172
aVW
p173
aI24
aI4
aI7
aF0.571
aI2
aI3
aF0.667
aI0
aI0
aF0.0
aI2
aI2
aI4
aI1
aI1
aI3
aI0
aI5
aI10
aI11
aa(lp174
V0020700565
p175
aVJAN 16, 2008
p176
aVGSW @ IND
p177
aVL
p178
aI12
aI1
aI4
aF0.25
aI1
aI4
aF0.25
aI0
aI0
aF0.0
aI0
aI1
aI1
aI0
aI0
aI1
aI2
aI3
aI3
aI-19
aa(lp179
V0020700582
p180
aVJAN 18, 2008
p181
aVGSW @ CHI
p182
aVW
p183
aI7
aI2
aI4
aF0.5
aI1
aI2
aF0.5
aI0
aI0
aF0.0
aI0
aI0
aI0
aI0
aI0
aI0
aI0
aI2
aI5
aI4
aa(lp184
V0020700603
p185
aVJAN 21, 2008
p186
aVGSW vs. MIN
p187
aVL
p188
aI3
aI0
aI1
aF0.0
aI0
aI1
aF0.0
aI0
aI0
aF0.0
aI0
aI1
aI1
aI1
aI1
aI0
aI1
aI0
aI0
aI-9
aa(lp189
V0020700650
p190
aVJAN 27, 2008
p191
aVGSW vs. NYK
p192
aVW
p193
aI4
aI0
aI1
aF0.0
aI0
aI1
aF0.0
aI0
aI0
aF0.0
aI0
aI0
aI0
aI1
aI0
aI1
aI0
aI0
aI0
aI-5
aa(lp194
V0020700661
p195
aVJAN 29, 2008
p196
aVGSW @ HOU
p197
aVL
p198
aI23
aI0
aI5
aF0.0
aI0
aI3
aF0.0
aI0
aI0
aF0.0
aI2
aI4
aI6
aI2
aI3
aI1
aI1
aI4
aI0
aI16
aa(lp199
V0020700669
p200
aVJAN 30, 2008
p201
aVGSW @ NOH
p202
aVW
p203
aI13
aI1
aI2
aF0.5
aI1
aI2
aF0.5
aI0
aI0
aF0.0
aI0
aI1
aI1
aI0
aI1
aI0
aI0
aI4
aI3
aI-2
aa(lp204
V0020700686
p205
aVFEB 01, 2008
p206
aVGSW vs. CHA
p207
aVW
p208
aI21
aI3
aI5
aF0.6
aI2
aI4
aF0.5
aI7
aI8
aF0.875
aI0
aI1
aI1
aI1
aI1
aI0
aI0
aI5
aI15
aI11
aa(lp209
V0020700725
p210
aVFEB 07, 2008
p211
aVGSW vs. CHI
p212
aVL
p213
aI23
aI1
aI5
aF0.2
aI0
aI2
aF0.0
aI1
aI1
aF1.0
aI0
aI3
aI3
aI0
aI3
aI2
aI1
aI6
aI3
aI4
aa(lp214
V0020700743
p215
aVFEB 09, 2008
p216
aVGSW vs. SAC
p217
aVW
p218
aI10
aI1
aI3
aF0.333
aI1
aI3
aF0.333
aI0
aI0
aF0.0
aI0
aI0
aI0
aI0
aI1
aI0
aI2
aI3
aI3
aI-14
aa(lp219
V0020700757
p220
aVFEB 11, 2008
p221
aVGSW vs. WAS
p222
aVW
p223
aI12
aI2
aI2
aF1.0
aI1
aI1
aF1.0
aI0
aI0
aF0.0
aI0
aI2
aI2
aI2
aI1
aI1
aI1
aI2
aI5
aI-2
aa(lp224
V0020700775
p225
aVFEB 13, 2008
p226
aVGSW vs. PHX
p227
aVW
p228
aI15
aI0
aI1
aF0.0
aI0
aI1
aF0.0
aI1
aI2
aF0.5
aI2
aI1
aI3
aI0
aI2
aI1
aI2
aI6
aI1
aI-11
aa(lp229
V0020700786
p230
aVFEB 19, 2008
p231
aVGSW @ UTA
p232
aVL
p233
aI12
aI0
aI4
aF0.0
aI0
aI2
aF0.0
aI0
aI0
aF0.0
aI0
aI2
aI2
aI0
aI0
aI2
aI2
aI0
aI0
aI12
aa(lp234
V0020700799
p235
aVFEB 20, 2008
p236
aVGSW vs. BOS
p237
aVW
p238
aI37
aI4
aI9
aF0.444
aI1
aI3
aF0.333
aI3
aI5
aF0.6
aI1
aI5
aI6
aI1
aI3
aI0
aI1
aI4
aI12
aI13
aa(lp239
V0020700814
p240
aVFEB 22, 2008
p241
aVGSW vs. ATL
p242
aVL
p243
aI26
aI0
aI3
aF0.0
aI0
aI2
aF0.0
aI0
aI0
aF0.0
aI1
aI1
aI2
aI1
aI2
aI0
aI0
aI3
aI0
aI-8
aa(lp244
V0020700844
p245
aVFEB 26, 2008
p246
aVGSW vs. SEA
p247
aVW
p248
aI25
aI5
aI10
aF0.5
aI1
aI4
aF0.25
aI0
aI2
aF0.0
aI0
aI3
aI3
aI2
aI2
aI1
aI1
aI5
aI11
aI1
aa(lp249
V0020700867
p250
aVFEB 29, 2008
p251
aVGSW vs. PHI
p252
aVW
p253
aI22
aI7
aI7
aF1.0
aI3
aI3
aF1.0
aI6
aI7
aF0.857
aI1
aI1
aI2
aI2
aI1
aI1
aI1
aI1
aI23
aI13
aa(lp254
V0020700884
p255
aVMAR 02, 2008
p256
aVGSW vs. POR
p257
aVW
p258
aI21
aI3
aI8
aF0.375
aI1
aI2
aF0.5
aI1
aI2
aF0.5
aI1
aI0
aI1
aI2
aI3
aI1
aI1
aI0
aI8
aI-6
aa(lp259
V0020700889
p260
aVMAR 04, 2008
p261
aVGSW @ ATL
p262
aVW
p263
aI30
aI7
aI10
aF0.7
aI5
aI7
aF0.714
aI0
aI0
aF0.0
aI4
aI8
aI12
aI2
aI0
aI2
aI2
aI4
aI19
aI10
aa(lp264
V0020700898
p265
aVMAR 05, 2008
p266
aVGSW @ CHA
p267
aVL
p268
aI24
aI1
aI4
aF0.25
aI1
aI3
aF0.333
aI0
aI0
aF0.0
aI0
aI5
aI5
aI0
aI0
aI2
aI1
aI6
aI3
aI-18
aa(lp269
V0020700916
p270
aVMAR 07, 2008
p271
aVGSW @ MIA
p272
aVW
p273
aI32
aI7
aI14
aF0.5
aI0
aI4
aF0.0
aI1
aI2
aF0.5
aI3
aI6
aI9
aI1
aI2
aI0
aI2
aI4
aI15
aI22
aa(lp274
V0020700927
p275
aVMAR 08, 2008
p276
aVGSW @ ORL
p277
aVW
p278
aI33
aI4
aI11
aF0.364
aI0
aI1
aF0.0
aI1
aI2
aF0.5
aI4
aI7
aI11
aI2
aI3
aI0
aI0
aI3
aI9
aI12
aa(lp279
V0020700962
p280
aVMAR 12, 2008
p281
aVGSW vs. TOR
p282
aVW
p283
aI38
aI7
aI14
aF0.5
aI0
aI2
aF0.0
aI0
aI0
aF0.0
aI3
aI5
aI8
aI2
aI1
aI0
aI0
aI6
aI14
aI12
aa(lp284
V0020700965
p285
aVMAR 13, 2008
p286
aVGSW @ PHX
p287
aVL
p288
aI39
aI6
aI13
aF0.462
aI1
aI2
aF0.5
aI3
aI4
aF0.75
aI3
aI5
aI8
aI0
aI2
aI1
aI0
aI3
aI16
aI-12
aa(lp289
V0020700983
p290
aVMAR 15, 2008
p291
aVGSW vs. MEM
p292
aVW
p293
aI38
aI4
aI9
aF0.444
aI1
aI2
aF0.5
aI3
aI4
aF0.75
aI3
aI5
aI8
aI2
aI2
aI0
aI2
aI2
aI12
aI17
aa(lp294
V0020701004
p295
aVMAR 18, 2008
p296
aVGSW @ SAC
p297
aVL
p298
aI16
aI2
aI7
aF0.286
aI0
aI3
aF0.0
aI2
aI2
aF1.0
aI1
aI1
aI2
aI0
aI1
aI1
aI0
aI3
aI6
aI-13
aa(lp299
V0020701015
p300
aVMAR 19, 2008
p301
aVGSW @ LAC
p302
aVW
p303
aI36
aI6
aI12
aF0.5
aI1
aI2
aF0.5
aI2
aI2
aF1.0
aI4
aI8
aI12
aI0
aI0
aI1
aI2
aI5
aI15
aI28
aa(lp304
V0020701028
p305
aVMAR 21, 2008
p306
aVGSW vs. HOU
p307
aVL
p308
aI37
aI7
aI12
aF0.583
aI2
aI5
aF0.4
aI0
aI0
aF0.0
aI5
aI8
aI13
aI1
aI1
aI0
aI0
aI4
aI16
aI3
aa(lp309
V0020701163
p310
aVAPR 08, 2008
p311
aVGSW vs. SAC
p312
aVW
p313
aI13
aI3
aI5
aF0.6
aI1
aI3
aF0.333
aI3
aI4
aF0.75
aI2
aI0
aI2
aI1
aI0
aI2
aI1
aI2
aI10
aI1
aa(lp314
V0020701173
p315
aVAPR 10, 2008
p316
aVGSW vs. DEN
p317
aVL
p318
aI10
aI0
aI2
aF0.0
aI0
aI2
aF0.0
aI0
aI0
aF0.0
aI0
aI0
aI0
aI0
aI0
aI1
aI1
aI3
aI0
aI-14
aa(lp319
V0020701196
p320
aVAPR 12, 2008
p321
aVGSW vs. LAC
p322
aVW
p323
aI23
aI4
aI7
aF0.571
aI3
aI5
aF0.6
aI0
aI0
aF0.0
aI3
aI3
aI6
aI0
aI0
aI1
aI2
aI5
aI11
aI-15
aa(lp324
V0020701209
p325
aVAPR 14, 2008
p326
aVGSW @ PHX
p327
aVL
p328
aI25
aI3
aI9
aF0.333
aI1
aI3
aF0.333
aI2
aI3
aF0.667
aI1
aI2
aI3
aI0
aI1
aI2
aI0
aI5
aI9
aI-14
aa(lp329
V0020701230
p330
aVAPR 16, 2008
p331
aVGSW vs. SEA
p332
aVL
p333
aI18
aI4
aI10
aF0.4
aI3
aI7
aF0.429
aI0
aI0
aF0.0
aI1
aI2
aI3
aI1
aI0
aI2
aI0
aI3
aI11
aI2
aasS'name'
p334
VMickael Pietrus
p335
sS'experience'
p336
I4
s.