(dp0
S'stats'
p1
(lp2
(lp3
V0020700010
p4
aVOCT 31, 2007
p5
aVNOH vs. SAC
p6
aVW
p7
aI31
aI7
aI16
aF0.438
aI1
aI1
aF1.0
aI2
aI4
aF0.5
aI0
aI8
aI8
aI6
aI0
aI2
aI1
aI4
aI17
aI23
aa(lp8
V0020700022
p9
aVNOV 02, 2007
p10
aVNOH vs. POR
p11
aVW
p12
aI26
aI6
aI9
aF0.667
aI0
aI0
aF0.0
aI2
aI2
aF1.0
aI1
aI1
aI2
aI0
aI3
aI1
aI1
aI1
aI14
aI17
aa(lp13
V0020700040
p14
aVNOV 04, 2007
p15
aVNOH @ DEN
p16
aVW
p17
aI38
aI7
aI23
aF0.304
aI0
aI1
aF0.0
aI3
aI5
aF0.6
aI0
aI13
aI13
aI3
aI2
aI2
aI3
aI2
aI17
aI11
aa(lp18
V0020700052
p19
aVNOV 06, 2007
p20
aVNOH @ LAL
p21
aVW
p22
aI33
aI6
aI13
aF0.462
aI2
aI2
aF1.0
aI8
aI8
aF1.0
aI3
aI5
aI8
aI1
aI1
aI0
aI2
aI2
aI22
aI11
aa(lp23
V0020700062
p24
aVNOV 07, 2007
p25
aVNOH @ POR
p26
aVL
p27
aI40
aI14
aI26
aF0.538
aI0
aI0
aF0.0
aI6
aI6
aF1.0
aI8
aI10
aI18
aI0
aI0
aI0
aI1
aI2
aI34
aI0
aa(lp28
V0020700073
p29
aVNOV 09, 2007
p30
aVNOH vs. SAS
p31
aVL
p32
aI32
aI7
aI17
aF0.412
aI0
aI0
aF0.0
aI1
aI2
aF0.5
aI1
aI3
aI4
aI0
aI3
aI1
aI2
aI2
aI15
aI-27
aa(lp33
V0020700088
p34
aVNOV 11, 2007
p35
aVNOH @ PHI
p36
aVW
p37
aI28
aI7
aI16
aF0.438
aI0
aI0
aF0.0
aI2
aI4
aF0.5
aI1
aI3
aI4
aI1
aI0
aI0
aI1
aI3
aI16
aI11
aa(lp38
V0020700093
p39
aVNOV 12, 2007
p40
aVNOH @ NJN
p41
aVW
p42
aI34
aI6
aI14
aF0.429
aI0
aI0
aF0.0
aI1
aI1
aF1.0
aI0
aI8
aI8
aI5
aI1
aI0
aI3
aI3
aI13
aI0
aa(lp43
V0020700111
p44
aVNOV 14, 2007
p45
aVNOH vs. PHI
p46
aVW
p47
aI32
aI8
aI15
aF0.533
aI0
aI1
aF0.0
aI0
aI0
aF0.0
aI4
aI2
aI6
aI5
aI1
aI1
aI1
aI3
aI16
aI12
aa(lp48
V0020700125
p49
aVNOV 16, 2007
p50
aVNOH @ MEM
p51
aVW
p52
aI40
aI17
aI29
aF0.586
aI0
aI0
aF0.0
aI6
aI8
aF0.75
aI2
aI4
aI6
aI0
aI1
aI1
aI2
aI4
aI40
aI14
aa(lp53
V0020700135
p54
aVNOV 17, 2007
p55
aVNOH @ MIN
p56
aVW
p57
aI26
aI6
aI12
aF0.5
aI0
aI0
aF0.0
aI0
aI0
aF0.0
aI2
aI4
aI6
aI1
aI0
aI1
aI0
aI2
aI12
aI9
aa(lp58
V0020700147
p59
aVNOV 19, 2007
p60
aVNOH vs. ORL
p61
aVL
p62
aI35
aI5
aI16
aF0.313
aI0
aI0
aF0.0
aI4
aI4
aF1.0
aI2
aI3
aI5
aI0
aI2
aI1
aI3
aI2
aI14
aI-1
aa(lp63
V0020700164
p64
aVNOV 21, 2007
p65
aVNOH vs. IND
p66
aVL
p67
aI35
aI10
aI17
aF0.588
aI0
aI1
aF0.0
aI3
aI3
aF1.0
aI2
aI6
aI8
aI0
aI0
aI4
aI1
aI1
aI23
aI-2
aa(lp68
V0020700178
p69
aVNOV 23, 2007
p70
aVNOH @ UTA
p71
aVL
p72
aI34
aI7
aI15
aF0.467
aI0
aI0
aF0.0
aI4
aI6
aF0.667
aI4
aI10
aI14
aI1
aI0
aI1
aI1
aI1
aI18
aI-16
aa(lp73
V0020700191
p74
aVNOV 24, 2007
p75
aVNOH @ LAC
p76
aVW
p77
aI38
aI8
aI17
aF0.471
aI1
aI1
aF1.0
aI1
aI1
aF1.0
aI2
aI6
aI8
aI4
aI0
aI2
aI2
aI2
aI18
aI6
aa(lp78
V0020700198
p79
aVNOV 26, 2007
p80
aVNOH vs. MIN
p81
aVL
p82
aI42
aI4
aI12
aF0.333
aI0
aI1
aF0.0
aI2
aI2
aF1.0
aI3
aI11
aI14
aI3
aI1
aI2
aI4
aI2
aI10
aI-6
aa(lp83
V0020700227
p84
aVNOV 30, 2007
p85
aVNOH @ ATL
p86
aVW
p87
aI43
aI7
aI17
aF0.412
aI0
aI0
aF0.0
aI8
aI10
aF0.8
aI6
aI11
aI17
aI2
aI3
aI0
aI2
aI4
aI22
aI9
aa(lp88
V0020700238
p89
aVDEC 01, 2007
p90
aVNOH vs. DAL
p91
aVW
p92
aI47
aI4
aI14
aF0.286
aI0
aI1
aF0.0
aI3
aI4
aF0.75
aI3
aI11
aI14
aI3
aI0
aI1
aI1
aI4
aI11
aI21
aa(lp93
V0020700267
p94
aVDEC 05, 2007
p95
aVNOH vs. DET
p96
aVL
p97
aI39
aI3
aI15
aF0.2
aI0
aI0
aF0.0
aI3
aI3
aF1.0
aI3
aI2
aI5
aI4
aI0
aI1
aI1
aI0
aI9
aI-13
aa(lp98
V0020700282
p99
aVDEC 07, 2007
p100
aVNOH vs. MEM
p101
aVW
p102
aI41
aI9
aI19
aF0.474
aI1
aI2
aF0.5
aI8
aI9
aF0.889
aI4
aI5
aI9
aI1
aI1
aI1
aI3
aI5
aI27
aI-9
aa(lp103
V0020700299
p104
aVDEC 09, 2007
p105
aVNOH vs. SEA
p106
aVW
p107
aI35
aI7
aI18
aF0.389
aI0
aI0
aF0.0
aI1
aI3
aF0.333
aI1
aI9
aI10
aI0
aI0
aI2
aI2
aI4
aI15
aI5
aa(lp108
V0020700322
p109
aVDEC 12, 2007
p110
aVNOH @ DEN
p111
aVL
p112
aI42
aI12
aI23
aF0.522
aI0
aI2
aF0.0
aI1
aI1
aF1.0
aI3
aI13
aI16
aI5
aI0
aI1
aI5
aI3
aI25
aI-7
aa(lp113
V0020700336
p114
aVDEC 14, 2007
p115
aVNOH @ DAL
p116
aVL
p117
aI41
aI2
aI10
aF0.2
aI0
aI1
aF0.0
aI3
aI4
aF0.75
aI5
aI8
aI13
aI3
aI0
aI1
aI3
aI3
aI7
aI-5
aa(lp118
V0020700345
p119
aVDEC 15, 2007
p120
aVNOH vs. PHX
p121
aVW
p122
aI42
aI6
aI16
aF0.375
aI0
aI0
aF0.0
aI3
aI3
aF1.0
aI3
aI8
aI11
aI3
aI1
aI1
aI5
aI3
aI15
aI-2
aa(lp123
V0020700361
p124
aVDEC 17, 2007
p125
aVNOH @ POR
p126
aVL
p127
aI39
aI8
aI19
aF0.421
aI0
aI0
aF0.0
aI5
aI6
aF0.833
aI4
aI2
aI6
aI1
aI0
aI2
aI4
aI2
aI21
aI-11
aa(lp128
V0020700377
p129
aVDEC 19, 2007
p130
aVNOH @ SEA
p131
aVW
p132
aI43
aI8
aI20
aF0.4
aI0
aI0
aF0.0
aI1
aI2
aF0.5
aI2
aI9
aI11
aI6
aI0
aI5
aI3
aI3
aI17
aI12
aa(lp133
V0020700395
p134
aVDEC 22, 2007
p135
aVNOH vs. MIN
p136
aVW
p137
aI31
aI9
aI12
aF0.75
aI0
aI0
aF0.0
aI4
aI4
aF1.0
aI3
aI4
aI7
aI0
aI0
aI1
aI1
aI3
aI22
aI31
aa(lp138
V0020700413
p139
aVDEC 26, 2007
p140
aVNOH @ MEM
p141
aVW
p142
aI36
aI9
aI13
aF0.692
aI0
aI0
aF0.0
aI2
aI2
aF1.0
aI4
aI5
aI9
aI3
aI0
aI3
aI4
aI4
aI20
aI19
aa(lp143
V0020700422
p144
aVDEC 28, 2007
p145
aVNOH @ CHA
p146
aVW
p147
aI36
aI9
aI15
aF0.6
aI0
aI0
aF0.0
aI2
aI2
aF1.0
aI3
aI7
aI10
aI4
aI1
aI4
aI2
aI2
aI20
aI18
aa(lp148
V0020700438
p149
aVDEC 29, 2007
p150
aVNOH vs. CLE
p151
aVW
p152
aI43
aI11
aI19
aF0.579
aI0
aI0
aF0.0
aI5
aI6
aF0.833
aI5
aI10
aI15
aI1
aI1
aI1
aI1
aI2
aI27
aI20
aa(lp153
V0020700453
p154
aVDEC 31, 2007
p155
aVNOH vs. TOR
p156
aVL
p157
aI43
aI15
aI21
aF0.714
aI0
aI0
aF0.0
aI3
aI3
aF1.0
aI5
aI6
aI11
aI4
aI0
aI0
aI6
aI3
aI33
aI-4
aa(lp158
V0020700468
p159
aVJAN 02, 2008
p160
aVNOH @ LAC
p161
aVW
p162
aI44
aI12
aI21
aF0.571
aI0
aI1
aF0.0
aI5
aI5
aF1.0
aI0
aI10
aI10
aI1
aI1
aI0
aI1
aI2
aI29
aI16
aa(lp163
V0020700483
p164
aVJAN 04, 2008
p165
aVNOH @ GSW
p166
aVW
p167
aI33
aI8
aI14
aF0.571
aI0
aI0
aF0.0
aI4
aI5
aF0.8
aI0
aI4
aI4
aI3
aI0
aI0
aI3
aI3
aI20
aI14
aa(lp168
V0020700515
p169
aVJAN 09, 2008
p170
aVNOH vs. LAL
p171
aVL
p172
aI35
aI7
aI17
aF0.412
aI0
aI0
aF0.0
aI5
aI6
aF0.833
aI4
aI5
aI9
aI3
aI0
aI1
aI1
aI2
aI19
aI-8
aa(lp173
V0020700528
p174
aVJAN 11, 2008
p175
aVNOH vs. MIA
p176
aVW
p177
aI34
aI5
aI12
aF0.417
aI0
aI0
aF0.0
aI1
aI1
aF1.0
aI1
aI9
aI10
aI5
aI1
aI2
aI1
aI2
aI11
aI20
aa(lp178
V0020700543
p179
aVJAN 13, 2008
p180
aVNOH @ HOU
p181
aVW
p182
aI39
aI12
aI27
aF0.444
aI0
aI0
aF0.0
aI2
aI2
aF1.0
aI4
aI8
aI12
aI2
aI1
aI1
aI1
aI1
aI26
aI4
aa(lp183
V0020700569
p184
aVJAN 16, 2008
p185
aVNOH vs. SEA
p186
aVW
p187
aI26
aI8
aI17
aF0.471
aI0
aI0
aF0.0
aI3
aI4
aF0.75
aI3
aI8
aI11
aI3
aI0
aI0
aI0
aI4
aI19
aI7
aa(lp188
V0020700579
p189
aVJAN 18, 2008
p190
aVNOH vs. CHA
p191
aVW
p192
aI32
aI13
aI18
aF0.722
aI0
aI0
aF0.0
aI2
aI3
aF0.667
aI1
aI6
aI7
aI1
aI0
aI1
aI0
aI0
aI28
aI25
aa(lp193
V0020700601
p194
aVJAN 21, 2008
p195
aVNOH vs. MIL
p196
aVW
p197
aI38
aI5
aI16
aF0.313
aI0
aI0
aF0.0
aI6
aI6
aF1.0
aI3
aI5
aI8
aI5
aI2
aI2
aI2
aI1
aI16
aI7
aa(lp198
V0020700615
p199
aVJAN 23, 2008
p200
aVNOH vs. POR
p201
aVW
p202
aI37
aI7
aI15
aF0.467
aI0
aI0
aF0.0
aI8
aI9
aF0.889
aI1
aI4
aI5
aI3
aI1
aI0
aI1
aI5
aI22
aI13
aa(lp203
V0020700631
p204
aVJAN 25, 2008
p205
aVNOH vs. LAC
p206
aVW
p207
aI36
aI4
aI15
aF0.267
aI0
aI1
aF0.0
aI6
aI6
aF1.0
aI3
aI8
aI11
aI4
aI3
aI0
aI2
aI1
aI14
aI19
aa(lp208
V0020700641
p209
aVJAN 26, 2008
p210
aVNOH @ SAS
p211
aVW
p212
aI39
aI15
aI19
aF0.789
aI0
aI0
aF0.0
aI2
aI3
aF0.667
aI0
aI7
aI7
aI1
aI0
aI1
aI1
aI2
aI32
aI30
aa(lp213
V0020700653
p214
aVJAN 28, 2008
p215
aVNOH vs. DEN
p216
aVW
p217
aI30
aI5
aI10
aF0.5
aI0
aI0
aF0.0
aI3
aI4
aF0.75
aI2
aI7
aI9
aI0
aI0
aI0
aI0
aI3
aI13
aI6
aa(lp218
V0020700669
p219
aVJAN 30, 2008
p220
aVNOH vs. GSW
p221
aVL
p222
aI40
aI9
aI22
aF0.409
aI0
aI0
aF0.0
aI6
aI8
aF0.75
aI5
aI8
aI13
aI4
aI1
aI5
aI2
aI1
aI24
aI-23
aa(lp223
V0020700685
p224
aVFEB 01, 2008
p225
aVNOH @ SAC
p226
aVL
p227
aI45
aI4
aI10
aF0.4
aI0
aI0
aF0.0
aI4
aI4
aF1.0
aI0
aI4
aI4
aI3
aI2
aI3
aI5
aI4
aI12
aI-6
aa(lp228
V0020700703
p229
aVFEB 04, 2008
p230
aVNOH @ UTA
p231
aVL
p232
aI35
aI4
aI12
aF0.333
aI0
aI0
aF0.0
aI4
aI4
aF1.0
aI0
aI4
aI4
aI1
aI1
aI3
aI3
aI3
aI12
aI-13
aa(lp233
V0020700720
p234
aVFEB 06, 2008
p235
aVNOH @ PHX
p236
aVW
p237
aI53
aI8
aI24
aF0.333
aI0
aI1
aF0.0
aI5
aI5
aF1.0
aI4
aI9
aI13
aI0
aI2
aI2
aI3
aI3
aI21
aI6
aa(lp238
V0020700739
p239
aVFEB 09, 2008
p240
aVNOH vs. MEM
p241
aVW
p242
aI37
aI13
aI20
aF0.65
aI0
aI0
aF0.0
aI7
aI8
aF0.875
aI5
aI5
aI10
aI2
aI0
aI1
aI3
aI5
aI33
aI6
aa(lp243
V0020700763
p244
aVFEB 12, 2008
p245
aVNOH @ CHI
p246
aVW
p247
aI44
aI11
aI20
aF0.55
aI0
aI2
aF0.0
aI5
aI7
aF0.714
aI3
aI4
aI7
aI3
aI1
aI2
aI6
aI3
aI27
aI16
aa(lp248
V0020700771
p249
aVFEB 13, 2008
p250
aVNOH @ MIL
p251
aVW
p252
aI42
aI9
aI20
aF0.45
aI0
aI0
aF0.0
aI4
aI4
aF1.0
aI1
aI7
aI8
aI3
aI0
aI1
aI5
aI4
aI22
aI4
aa(lp253
V0020700795
p254
aVFEB 20, 2008
p255
aVNOH vs. DAL
p256
aVW
p257
aI35
aI6
aI14
aF0.429
aI0
aI0
aF0.0
aI6
aI9
aF0.667
aI4
aI4
aI8
aI2
aI0
aI0
aI1
aI5
aI18
aI14
aa(lp258
V0020700811
p259
aVFEB 22, 2008
p260
aVNOH vs. HOU
p261
aVL
p262
aI33
aI7
aI17
aF0.412
aI0
aI0
aF0.0
aI6
aI7
aF0.857
aI3
aI7
aI10
aI1
aI0
aI1
aI2
aI1
aI20
aI-24
aa(lp263
V0020700820
p264
aVFEB 23, 2008
p265
aVNOH @ SAS
p266
aVL
p267
aI42
aI6
aI14
aF0.429
aI0
aI0
aF0.0
aI4
aI6
aF0.667
aI2
aI4
aI6
aI4
aI1
aI0
aI1
aI5
aI16
aI-6
aa(lp268
V0020700832
p269
aVFEB 25, 2008
p270
aVNOH vs. WAS
p271
aVL
p272
aI40
aI4
aI11
aF0.364
aI0
aI0
aF0.0
aI5
aI6
aF0.833
aI0
aI8
aI8
aI4
aI1
aI0
aI5
aI2
aI13
aI-3
aa(lp273
V0020700851
p274
aVFEB 27, 2008
p275
aVNOH vs. PHX
p276
aVW
p277
aI39
aI11
aI22
aF0.5
aI0
aI0
aF0.0
aI5
aI6
aF0.833
aI1
aI3
aI4
aI1
aI2
aI1
aI2
aI4
aI27
aI20
aa(lp278
V0020700863
p279
aVFEB 29, 2008
p280
aVNOH vs. UTA
p281
aVW
p282
aI42
aI10
aI18
aF0.556
aI0
aI0
aF0.0
aI5
aI6
aF0.833
aI4
aI9
aI13
aI3
aI0
aI1
aI3
aI3
aI25
aI15
aa(lp283
V0020700879
p284
aVMAR 02, 2008
p285
aVNOH @ WAS
p286
aVL
p287
aI38
aI5
aI17
aF0.294
aI0
aI0
aF0.0
aI4
aI4
aF1.0
aI3
aI6
aI9
aI1
aI0
aI1
aI4
aI4
aI14
aI-5
aa(lp288
V0020700886
p289
aVMAR 03, 2008
p290
aVNOH @ NYK
p291
aVW
p292
aI38
aI8
aI21
aF0.381
aI0
aI0
aF0.0
aI3
aI6
aF0.5
aI5
aI3
aI8
aI2
aI1
aI4
aI1
aI4
aI19
aI4
aa(lp293
V0020700959
p294
aVMAR 12, 2008
p295
aVNOH vs. SAS
p296
aVW
p297
aI36
aI14
aI22
aF0.636
aI1
aI2
aF0.5
aI0
aI0
aF0.0
aI0
aI10
aI10
aI3
aI1
aI0
aI1
aI4
aI29
aI25
aa(lp298
V0020700970
p299
aVMAR 14, 2008
p300
aVNOH vs. LAL
p301
aVW
p302
aI38
aI4
aI10
aF0.4
aI0
aI0
aF0.0
aI4
aI4
aF1.0
aI2
aI12
aI14
aI2
aI1
aI2
aI4
aI2
aI12
aI13
aa(lp303
V0020701012
p304
aVMAR 19, 2008
p305
aVNOH vs. HOU
p306
aVW
p307
aI41
aI6
aI18
aF0.333
aI0
aI0
aF0.0
aI11
aI13
aF0.846
aI2
aI9
aI11
aI1
aI2
aI1
aI2
aI3
aI23
aI18
aa(lp308
V0020701033
p309
aVMAR 22, 2008
p310
aVNOH vs. BOS
p311
aVW
p312
aI43
aI15
aI25
aF0.6
aI0
aI0
aF0.0
aI7
aI7
aF1.0
aI0
aI4
aI4
aI0
aI0
aI0
aI1
aI3
aI37
aI1
aa(lp313
V0020701053
p314
aVMAR 25, 2008
p315
aVNOH @ IND
p316
aVW
p317
aI42
aI14
aI24
aF0.583
aI0
aI0
aF0.0
aI7
aI7
aF1.0
aI4
aI12
aI16
aI1
aI3
aI2
aI2
aI2
aI35
aI23
aa(lp318
V0020701062
p319
aVMAR 26, 2008
p320
aVNOH @ CLE
p321
aVW
p322
aI41
aI7
aI19
aF0.368
aI0
aI0
aF0.0
aI6
aI6
aF1.0
aI2
aI4
aI6
aI4
aI0
aI1
aI3
aI2
aI20
aI-3
aa(lp323
V0020701076
p324
aVMAR 28, 2008
p325
aVNOH @ BOS
p326
aVL
p327
aI38
aI7
aI13
aF0.538
aI0
aI0
aF0.0
aI0
aI0
aF0.0
aI0
aI4
aI4
aI3
aI1
aI1
aI3
aI5
aI14
aI-13
aa(lp328
V0020701094
p329
aVMAR 30, 2008
p330
aVNOH @ TOR
p331
aVW
p332
aI42
aI13
aI21
aF0.619
aI0
aI1
aF0.0
aI6
aI8
aF0.75
aI0
aI7
aI7
aI3
aI1
aI2
aI0
aI4
aI32
aI14
aa(lp333
V0020701105
p334
aVAPR 01, 2008
p335
aVNOH @ ORL
p336
aVW
p337
aI36
aI6
aI16
aF0.375
aI0
aI1
aF0.0
aI6
aI6
aF1.0
aI4
aI7
aI11
aI2
aI0
aI1
aI1
aI2
aI18
aI12
aa(lp338
V0020701117
p339
aVAPR 02, 2008
p340
aVNOH @ MIA
p341
aVW
p342
aI34
aI8
aI17
aF0.471
aI0
aI0
aF0.0
aI6
aI6
aF1.0
aI3
aI3
aI6
aI0
aI0
aI0
aI1
aI2
aI22
aI12
aa(lp343
V0020701131
p344
aVAPR 04, 2008
p345
aVNOH vs. NYK
p346
aVW
p347
aI40
aI6
aI13
aF0.462
aI0
aI0
aF0.0
aI5
aI6
aF0.833
aI1
aI6
aI7
aI4
aI3
aI4
aI1
aI2
aI17
aI6
aa(lp348
V0020701149
p349
aVAPR 06, 2008
p350
aVNOH vs. GSW
p351
aVW
p352
aI39
aI12
aI18
aF0.667
aI0
aI0
aF0.0
aI1
aI2
aF0.5
aI3
aI6
aI9
aI2
aI3
aI2
aI2
aI3
aI25
aI13
aa(lp353
V0020701159
p354
aVAPR 08, 2008
p355
aVNOH vs. UTA
p356
aVL
p357
aI38
aI5
aI14
aF0.357
aI0
aI0
aF0.0
aI4
aI4
aF1.0
aI1
aI6
aI7
aI4
aI0
aI2
aI4
aI2
aI14
aI-24
aa(lp358
V0020701170
p359
aVAPR 09, 2008
p360
aVNOH @ MIN
p361
aVW
p362
aI37
aI10
aI13
aF0.769
aI0
aI1
aF0.0
aI2
aI2
aF1.0
aI1
aI5
aI6
aI3
aI1
aI1
aI2
aI2
aI22
aI19
aa(lp363
V0020701187
p364
aVAPR 11, 2008
p365
aVNOH @ LAL
p366
aVL
p367
aI41
aI5
aI11
aF0.455
aI0
aI1
aF0.0
aI4
aI5
aF0.8
aI0
aI5
aI5
aI3
aI1
aI1
aI4
aI3
aI14
aI-10
aa(lp368
V0020701194
p369
aVAPR 12, 2008
p370
aVNOH @ SAC
p371
aVL
p372
aI42
aI13
aI27
aF0.481
aI0
aI0
aF0.0
aI4
aI4
aF1.0
aI3
aI12
aI15
aI3
aI1
aI0
aI3
aI4
aI30
aI1
aa(lp373
V0020701214
p374
aVAPR 15, 2008
p375
aVNOH vs. LAC
p376
aVW
p377
aI33
aI12
aI17
aF0.706
aI0
aI0
aF0.0
aI8
aI8
aF1.0
aI1
aI4
aI5
aI2
aI1
aI0
aI0
aI4
aI32
aI16
aa(lp378
V0020701227
p379
aVAPR 16, 2008
p380
aVNOH @ DAL
p381
aVL
p382
aI39
aI12
aI26
aF0.462
aI0
aI0
aF0.0
aI2
aI3
aF0.667
aI2
aI6
aI8
aI2
aI0
aI3
aI1
aI1
aI26
aI-18
aasS'name'
p383
VDavid West
p384
sS'weight'
p385
V250
p386
sS'age'
p387
I27
sS'experience'
p388
I4
sS'height'
p389
V6-9
p390
sS'position'
p391
VForward
p392
s.