(dp0
S'age'
p1
I27
sS'stats'
p2
(lp3
(lp4
V0020700002
p5
aVOCT 30, 2007
p6
aVLAL vs. HOU
p7
aVL
p8
aI9
aI0
aI2
aF0.0
aI0
aI0
aF0.0
aI0
aI0
aF0.0
aI0
aI1
aI1
aI1
aI1
aI0
aI1
aI0
aI0
aI-10
aa(lp9
V0020700026
p10
aVNOV 02, 2007
p11
aVLAL @ PHX
p12
aVW
p13
aI8
aI0
aI0
aF0.0
aI0
aI0
aF0.0
aI0
aI0
aF0.0
aI0
aI1
aI1
aI1
aI0
aI0
aI0
aI0
aI0
aI-12
aa(lp14
V0020700042
p15
aVNOV 04, 2007
p16
aVLAL vs. UTA
p17
aVW
p18
aI6
aI1
aI2
aF0.5
aI0
aI1
aF0.0
aI0
aI0
aF0.0
aI0
aI1
aI1
aI0
aI0
aI0
aI2
aI2
aI2
aI-4
aa(lp19
V0020700052
p20
aVNOV 06, 2007
p21
aVLAL vs. NOH
p22
aVL
p23
aI13
aI1
aI4
aF0.25
aI0
aI3
aF0.0
aI0
aI0
aF0.0
aI0
aI1
aI1
aI0
aI0
aI0
aI0
aI1
aI2
aI0
aa(lp24
V0020700129
p25
aVNOV 16, 2007
p26
aVLAL vs. DET
p27
aVW
p28
aI19
aI2
aI10
aF0.2
aI2
aI5
aF0.4
aI4
aI4
aF1.0
aI1
aI0
aI1
aI0
aI1
aI0
aI0
aI2
aI10
aI4
aa(lp29
V0020700144
p30
aVNOV 18, 2007
p31
aVLAL vs. CHI
p32
aVW
p33
aI14
aI0
aI3
aF0.0
aI0
aI1
aF0.0
aI0
aI0
aF0.0
aI3
aI2
aI5
aI1
aI0
aI0
aI1
aI1
aI0
aI13
aa(lp34
V0020700171
p35
aVNOV 23, 2007
p36
aVORL vs. CHA
p37
aVW
p38
aI8
aI1
aI3
aF0.333
aI1
aI2
aF0.5
aI0
aI0
aF0.0
aI0
aI1
aI1
aI0
aI0
aI1
aI0
aI1
aI3
aI8
aa(lp39
V0020700186
p40
aVNOV 24, 2007
p41
aVORL vs. MIA
p42
aVW
p43
aI9
aI2
aI4
aF0.5
aI0
aI2
aF0.0
aI0
aI0
aF0.0
aI0
aI3
aI3
aI1
aI0
aI0
aI0
aI1
aI4
aI8
aa(lp44
V0020700201
p45
aVNOV 26, 2007
p46
aVORL @ POR
p47
aVW
p48
aI3
aI0
aI1
aF0.0
aI0
aI0
aF0.0
aI0
aI0
aF0.0
aI0
aI0
aI0
aI0
aI0
aI0
aI0
aI0
aI0
aI3
aa(lp49
V0020700220
p50
aVNOV 28, 2007
p51
aVORL @ SEA
p52
aVW
p53
aI6
aI2
aI3
aF0.667
aI1
aI2
aF0.5
aI0
aI0
aF0.0
aI0
aI0
aI0
aI1
aI0
aI2
aI0
aI0
aI5
aI3
aa(lp54
V0020700232
p55
aVNOV 30, 2007
p56
aVORL @ PHX
p57
aVL
p58
aI3
aI0
aI1
aF0.0
aI0
aI1
aF0.0
aI0
aI0
aF0.0
aI0
aI0
aI0
aI2
aI0
aI0
aI1
aI2
aI0
aI-3
aa(lp59
V0020700249
p60
aVDEC 02, 2007
p61
aVORL @ LAL
p62
aVW
p63
aI9
aI1
aI3
aF0.333
aI1
aI2
aF0.5
aI0
aI0
aF0.0
aI0
aI1
aI1
aI0
aI0
aI0
aI1
aI2
aI3
aI-6
aa(lp64
V0020700278
p65
aVDEC 07, 2007
p66
aVORL vs. IND
p67
aVL
p68
aI9
aI1
aI4
aF0.25
aI1
aI1
aF1.0
aI0
aI0
aF0.0
aI0
aI2
aI2
aI0
aI1
aI0
aI0
aI3
aI3
aI-1
aa(lp69
V0020700302
p70
aVDEC 10, 2007
p71
aVORL vs. ATL
p72
aVL
p73
aI5
aI0
aI2
aF0.0
aI0
aI1
aF0.0
aI0
aI0
aF0.0
aI0
aI0
aI0
aI0
aI0
aI0
aI1
aI2
aI0
aI-7
aa(lp74
V0020700320
p75
aVDEC 12, 2007
p76
aVORL @ MIL
p77
aVL
p78
aI5
aI1
aI3
aF0.333
aI0
aI1
aF0.0
aI0
aI0
aF0.0
aI0
aI0
aI0
aI0
aI0
aI0
aI0
aI2
aI2
aI-6
aa(lp79
V0020700328
p80
aVDEC 14, 2007
p81
aVORL @ CHA
p82
aVW
p83
aI4
aI1
aI2
aF0.5
aI0
aI1
aF0.0
aI0
aI0
aF0.0
aI0
aI0
aI0
aI0
aI0
aI0
aI0
aI0
aI2
aI-1
aa(lp84
V0020700341
p85
aVDEC 15, 2007
p86
aVORL vs. MEM
p87
aVL
p88
aI7
aI0
aI3
aF0.0
aI0
aI2
aF0.0
aI0
aI0
aF0.0
aI0
aI1
aI1
aI2
aI0
aI1
aI1
aI2
aI0
aI-6
aa(lp89
V0020700537
p90
aVJAN 12, 2008
p91
aVORL @ UTA
p92
aVL
p93
aI14
aI2
aI3
aF0.667
aI0
aI0
aF0.0
aI0
aI0
aF0.0
aI2
aI1
aI3
aI0
aI0
aI0
aI3
aI5
aI4
aI-2
aa(lp94
V0020700555
p95
aVJAN 15, 2008
p96
aVORL vs. CHI
p97
aVW
p98
aI15
aI5
aI8
aF0.625
aI2
aI5
aF0.4
aI2
aI2
aF1.0
aI0
aI1
aI1
aI1
aI0
aI0
aI1
aI6
aI14
aI5
aa(lp99
V0020700585
p100
aVJAN 19, 2008
p101
aVORL vs. POR
p102
aVW
p103
aI11
aI3
aI9
aF0.333
aI2
aI3
aF0.667
aI0
aI0
aF0.0
aI2
aI3
aI5
aI0
aI0
aI1
aI0
aI1
aI8
aI8
aa(lp104
V0020700605
p105
aVJAN 21, 2008
p106
aVORL vs. DET
p107
aVW
p108
aI15
aI3
aI5
aF0.6
aI1
aI2
aF0.5
aI0
aI0
aF0.0
aI1
aI1
aI2
aI2
aI0
aI0
aI0
aI2
aI7
aI2
aa(lp109
V0020700614
p110
aVJAN 23, 2008
p111
aVORL @ MEM
p112
aVW
p113
aI20
aI3
aI6
aF0.5
aI2
aI4
aF0.5
aI2
aI2
aF1.0
aI0
aI3
aI3
aI0
aI0
aI0
aI0
aI4
aI10
aI8
aa(lp114
V0020700630
p115
aVJAN 25, 2008
p116
aVORL @ DET
p117
aVL
p118
aI14
aI1
aI5
aF0.2
aI0
aI1
aF0.0
aI0
aI0
aF0.0
aI0
aI0
aI0
aI0
aI0
aI0
aI3
aI0
aI2
aI-9
aa(lp119
V0020700644
p120
aVJAN 27, 2008
p121
aVORL vs. BOS
p122
aVW
p123
aI10
aI4
aI7
aF0.571
aI3
aI4
aF0.75
aI0
aI0
aF0.0
aI1
aI1
aI2
aI0
aI1
aI0
aI0
aI0
aI11
aI12
aa(lp124
V0020700680
p125
aVFEB 01, 2008
p126
aVORL @ PHI
p127
aVW
p128
aI9
aI1
aI3
aF0.333
aI0
aI2
aF0.0
aI1
aI1
aF1.0
aI0
aI2
aI2
aI0
aI1
aI0
aI2
aI0
aI3
aI-5
aa(lp129
V0020700689
p130
aVFEB 02, 2008
p131
aVORL @ IND
p132
aVW
p133
aI8
aI0
aI2
aF0.0
aI0
aI0
aF0.0
aI0
aI0
aF0.0
aI1
aI1
aI2
aI1
aI0
aI0
aI0
aI1
aI0
aI-10
aa(lp134
V0020700699
p135
aVFEB 04, 2008
p136
aVORL vs. DAL
p137
aVL
p138
aI14
aI1
aI4
aF0.25
aI0
aI2
aF0.0
aI0
aI0
aF0.0
aI1
aI2
aI3
aI0
aI0
aI1
aI2
aI3
aI2
aI-11
aa(lp139
V0020700714
p140
aVFEB 06, 2008
p141
aVORL vs. NJN
p142
aVW
p143
aI17
aI4
aI8
aF0.5
aI3
aI3
aF1.0
aI0
aI0
aF0.0
aI1
aI1
aI2
aI0
aI1
aI0
aI2
aI2
aI11
aI7
aa(lp144
V0020700728
p145
aVFEB 08, 2008
p146
aVORL vs. LAL
p147
aVL
p148
aI19
aI3
aI5
aF0.6
aI3
aI4
aF0.75
aI2
aI2
aF1.0
aI3
aI1
aI4
aI1
aI1
aI1
aI1
aI3
aI11
aI-1
aa(lp149
V0020700754
p150
aVFEB 11, 2008
p151
aVORL vs. CLE
p152
aVL
p153
aI17
aI2
aI4
aF0.5
aI1
aI2
aF0.5
aI0
aI0
aF0.0
aI0
aI3
aI3
aI0
aI2
aI0
aI0
aI1
aI5
aI-10
aa(lp154
V0020700767
p155
aVFEB 13, 2008
p156
aVORL vs. DEN
p157
aVW
p158
aI29
aI7
aI9
aF0.778
aI4
aI5
aF0.8
aI0
aI0
aF0.0
aI3
aI2
aI5
aI1
aI0
aI0
aI4
aI4
aI18
aI1
aa(lp159
V0020700782
p160
aVFEB 19, 2008
p161
aVORL @ DET
p162
aVW
p163
aI17
aI2
aI8
aF0.25
aI1
aI2
aF0.5
aI0
aI0
aF0.0
aI1
aI3
aI4
aI1
aI0
aI1
aI1
aI6
aI5
aI9
aa(lp164
V0020700790
p165
aVFEB 20, 2008
p166
aVORL @ TOR
p167
aVL
p168
aI12
aI1
aI5
aF0.2
aI1
aI2
aF0.5
aI0
aI0
aF0.0
aI0
aI1
aI1
aI0
aI0
aI0
aI1
aI4
aI3
aI-9
aa(lp169
V0020700804
p170
aVFEB 22, 2008
p171
aVORL vs. PHI
p172
aVW
p173
aI9
aI2
aI4
aF0.5
aI0
aI1
aF0.0
aI0
aI0
aF0.0
aI0
aI2
aI2
aI0
aI0
aI1
aI0
aI0
aI4
aI11
aa(lp174
V0020700825
p175
aVFEB 24, 2008
p176
aVORL vs. SAC
p177
aVW
p178
aI18
aI5
aI8
aF0.625
aI4
aI5
aF0.8
aI0
aI0
aF0.0
aI0
aI4
aI4
aI2
aI0
aI0
aI1
aI4
aI14
aI12
aa(lp179
V0020700837
p180
aVFEB 26, 2008
p181
aVORL @ NJN
p182
aVW
p183
aI16
aI0
aI3
aF0.0
aI0
aI3
aF0.0
aI0
aI0
aF0.0
aI0
aI5
aI5
aI0
aI0
aI0
aI1
aI0
aI0
aI3
aa(lp184
V0020700846
p185
aVFEB 27, 2008
p186
aVORL @ PHI
p187
aVL
p188
aI15
aI3
aI8
aF0.375
aI1
aI4
aF0.25
aI2
aI2
aF1.0
aI2
aI2
aI4
aI0
aI0
aI0
aI2
aI2
aI9
aI6
aa(lp189
V0020700870
p190
aVMAR 01, 2008
p191
aVORL vs. NYK
p192
aVW
p193
aI15
aI2
aI5
aF0.4
aI1
aI4
aF0.25
aI0
aI0
aF0.0
aI0
aI2
aI2
aI1
aI0
aI0
aI1
aI3
aI5
aI-5
aa(lp194
V0020700890
p195
aVMAR 04, 2008
p196
aVORL vs. TOR
p197
aVW
p198
aI19
aI3
aI7
aF0.429
aI0
aI2
aF0.0
aI0
aI0
aF0.0
aI0
aI2
aI2
aI1
aI1
aI0
aI1
aI2
aI6
aI1
aa(lp199
V0020700897
p200
aVMAR 05, 2008
p201
aVORL @ WAS
p202
aVW
p203
aI20
aI3
aI9
aF0.333
aI0
aI4
aF0.0
aI0
aI0
aF0.0
aI0
aI3
aI3
aI1
aI0
aI0
aI1
aI0
aI6
aI7
aa(lp204
V0020700927
p205
aVMAR 08, 2008
p206
aVORL vs. GSW
p207
aVL
p208
aI4
aI0
aI0
aF0.0
aI0
aI0
aF0.0
aI0
aI0
aF0.0
aI0
aI0
aI0
aI0
aI0
aI0
aI0
aI2
aI0
aI-6
aa(lp209
V0020700940
p210
aVMAR 10, 2008
p211
aVORL vs. ATL
p212
aVW
p213
aI9
aI0
aI2
aF0.0
aI0
aI2
aF0.0
aI0
aI2
aF0.0
aI0
aI1
aI1
aI0
aI0
aI0
aI1
aI3
aI0
aI-4
aa(lp214
V0020700953
p215
aVMAR 12, 2008
p216
aVORL vs. LAC
p217
aVW
p218
aI26
aI2
aI6
aF0.333
aI1
aI2
aF0.5
aI0
aI0
aF0.0
aI2
aI4
aI6
aI1
aI0
aI1
aI0
aI4
aI5
aI22
aa(lp219
V0020700968
p220
aVMAR 14, 2008
p221
aVORL @ MIA
p222
aVW
p223
aI14
aI1
aI5
aF0.2
aI0
aI3
aF0.0
aI2
aI2
aF1.0
aI1
aI2
aI3
aI1
aI0
aI0
aI0
aI0
aI4
aI-7
aa(lp224
V0020700978
p225
aVMAR 15, 2008
p226
aVORL vs. IND
p227
aVW
p228
aI17
aI3
aI6
aF0.5
aI2
aI2
aF1.0
aI0
aI0
aF0.0
aI1
aI2
aI3
aI1
aI3
aI0
aI2
aI1
aI8
aI0
aa(lp229
V0020700992
p230
aVMAR 17, 2008
p231
aVORL vs. CLE
p232
aVW
p233
aI7
aI2
aI7
aF0.286
aI1
aI4
aF0.25
aI0
aI0
aF0.0
aI2
aI1
aI3
aI1
aI0
aI1
aI0
aI3
aI5
aI4
aa(lp234
V0020701008
p235
aVMAR 19, 2008
p236
aVORL vs. WAS
p237
aVL
p238
aI9
aI0
aI4
aF0.0
aI0
aI2
aF0.0
aI0
aI0
aF0.0
aI0
aI3
aI3
aI0
aI0
aI0
aI0
aI1
aI0
aI-1
aa(lp239
V0020701019
p240
aVMAR 21, 2008
p241
aVORL vs. PHI
p242
aVW
p243
aI18
aI3
aI7
aF0.429
aI2
aI3
aF0.667
aI2
aI2
aF1.0
aI0
aI5
aI5
aI1
aI0
aI0
aI1
aI0
aI10
aI-12
aa(lp244
V0020701031
p245
aVMAR 22, 2008
p246
aVORL @ ATL
p247
aVL
p248
aI13
aI0
aI4
aF0.0
aI0
aI2
aF0.0
aI0
aI0
aF0.0
aI0
aI1
aI1
aI0
aI0
aI0
aI0
aI2
aI0
aI-3
aa(lp249
V0020701052
p250
aVMAR 25, 2008
p251
aVORL vs. SAS
p252
aVL
p253
aI4
aI0
aI1
aF0.0
aI0
aI1
aF0.0
aI0
aI0
aF0.0
aI0
aI0
aI0
aI0
aI0
aI0
aI0
aI0
aI0
aI-2
aa(lp254
V0020701078
p255
aVMAR 28, 2008
p256
aVORL @ MIL
p257
aVW
p258
aI20
aI4
aI7
aF0.571
aI2
aI5
aF0.4
aI2
aI2
aF1.0
aI0
aI2
aI2
aI1
aI0
aI1
aI0
aI3
aI12
aI9
aasS'name'
p259
VBrian Cook
p260
sS'experience'
p261
I4
s.