(dp0
S'age'
p1
I23
sS'stats'
p2
(lp3
(lp4
V0020701221
p5
aVAPR 16, 2008
p6
aVBOS vs. NJN
p7
aVW
p8
aI20
aI1
aI2
aF0.5
aI0
aI0
aF0.0
aI1
aI2
aF0.5
aI0
aI1
aI1
aI3
aI0
aI1
aI2
aI3
aI3
aI-6
aa(lp9
V0020701206
p10
aVAPR 14, 2008
p11
aVBOS @ NYK
p12
aVW
p13
aI26
aI1
aI4
aF0.25
aI0
aI0
aF0.0
aI0
aI0
aF0.0
aI0
aI3
aI3
aI2
aI1
aI3
aI2
aI3
aI2
aI5
aa(lp14
V0020701189
p15
aVAPR 12, 2008
p16
aVBOS @ ATL
p17
aVW
p18
aI24
aI1
aI2
aF0.5
aI0
aI0
aF0.0
aI2
aI2
aF1.0
aI0
aI4
aI4
aI1
aI0
aI1
aI3
aI4
aI4
aI-3
aa(lp19
V0020701180
p20
aVAPR 11, 2008
p21
aVBOS vs. MIL
p22
aVW
p23
aI25
aI2
aI2
aF1.0
aI0
aI0
aF0.0
aI0
aI0
aF0.0
aI1
aI3
aI4
aI1
aI1
aI3
aI1
aI4
aI4
aI16
aa(lp24
V0020701166
p25
aVAPR 09, 2008
p26
aVBOS @ WAS
p27
aVL
p28
aI19
aI2
aI6
aF0.333
aI0
aI0
aF0.0
aI0
aI0
aF0.0
aI2
aI2
aI4
aI0
aI0
aI1
aI2
aI2
aI4
aI-11
aa(lp29
V0020701157
p30
aVAPR 08, 2008
p31
aVBOS @ MIL
p32
aVW
p33
aI21
aI0
aI1
aF0.0
aI0
aI0
aF0.0
aI1
aI2
aF0.5
aI2
aI8
aI10
aI1
aI1
aI1
aI0
aI2
aI1
aI8
aa(lp34
V0020701139
p35
aVAPR 05, 2008
p36
aVBOS @ CHA
p37
aVW
p38
aI24
aI2
aI4
aF0.5
aI0
aI0
aF0.0
aI0
aI0
aF0.0
aI3
aI4
aI7
aI1
aI1
aI0
aI2
aI2
aI4
aI17
aa(lp39
V0020701116
p40
aVAPR 02, 2008
p41
aVBOS vs. IND
p42
aVW
p43
aI19
aI3
aI3
aF1.0
aI0
aI0
aF0.0
aI0
aI0
aF0.0
aI1
aI3
aI4
aI1
aI0
aI1
aI1
aI4
aI6
aI7
aa(lp44
V0020701109
p45
aVAPR 01, 2008
p46
aVBOS @ CHI
p47
aVW
p48
aI23
aI2
aI4
aF0.5
aI0
aI0
aF0.0
aI0
aI0
aF0.0
aI0
aI9
aI9
aI1
aI0
aI0
aI1
aI3
aI4
aI10
aa(lp49
V0020701093
p50
aVMAR 30, 2008
p51
aVBOS vs. MIA
p52
aVW
p53
aI24
aI2
aI2
aF1.0
aI0
aI0
aF0.0
aI0
aI0
aF0.0
aI3
aI5
aI8
aI0
aI0
aI3
aI2
aI2
aI4
aI23
aa(lp54
V0020701076
p55
aVMAR 28, 2008
p56
aVBOS vs. NOH
p57
aVW
p58
aI22
aI3
aI4
aF0.75
aI0
aI0
aF0.0
aI1
aI1
aF1.0
aI0
aI6
aI6
aI1
aI0
aI0
aI0
aI3
aI7
aI14
aa(lp59
V0020701063
p60
aVMAR 26, 2008
p61
aVBOS vs. PHX
p62
aVW
p63
aI26
aI6
aI9
aF0.667
aI0
aI0
aF0.0
aI1
aI2
aF0.5
aI5
aI5
aI10
aI0
aI0
aI1
aI3
aI3
aI13
aI15
aa(lp64
V0020701044
p65
aVMAR 24, 2008
p66
aVBOS vs. PHI
p67
aVL
p68
aI27
aI2
aI3
aF0.667
aI0
aI0
aF0.0
aI0
aI0
aF0.0
aI0
aI4
aI4
aI4
aI0
aI3
aI1
aI3
aI4
aI-2
aa(lp69
V0020701033
p70
aVMAR 22, 2008
p71
aVBOS @ NOH
p72
aVL
p73
aI32
aI2
aI2
aF1.0
aI0
aI0
aF0.0
aI2
aI2
aF1.0
aI2
aI2
aI4
aI2
aI0
aI1
aI1
aI2
aI6
aI14
aa(lp74
V0020701017
p75
aVMAR 20, 2008
p76
aVBOS @ DAL
p77
aVW
p78
aI31
aI2
aI4
aF0.5
aI0
aI0
aF0.0
aI1
aI2
aF0.5
aI1
aI5
aI6
aI1
aI0
aI1
aI0
aI6
aI5
aI-10
aa(lp79
V0020701002
p80
aVMAR 18, 2008
p81
aVBOS @ HOU
p82
aVW
p83
aI20
aI3
aI4
aF0.75
aI0
aI0
aF0.0
aI0
aI0
aF0.0
aI3
aI4
aI7
aI0
aI0
aI1
aI3
aI3
aI6
aI19
aa(lp84
V0020700997
p85
aVMAR 17, 2008
p86
aVBOS @ SAS
p87
aVW
p88
aI20
aI0
aI2
aF0.0
aI0
aI0
aF0.0
aI0
aI0
aF0.0
aI4
aI2
aI6
aI0
aI0
aI1
aI0
aI3
aI0
aI-3
aa(lp89
V0020700980
p90
aVMAR 15, 2008
p91
aVBOS @ MIL
p92
aVW
p93
aI24
aI4
aI4
aF1.0
aI0
aI0
aF0.0
aI0
aI0
aF0.0
aI2
aI4
aI6
aI3
aI0
aI0
aI1
aI3
aI8
aI10
aa(lp94
V0020700966
p95
aVMAR 14, 2008
p96
aVBOS vs. UTA
p97
aVL
p98
aI30
aI5
aI5
aF1.0
aI0
aI0
aF0.0
aI3
aI3
aF1.0
aI3
aI4
aI7
aI1
aI0
aI2
aI0
aI4
aI13
aI-8
aa(lp99
V0020700954
p100
aVMAR 12, 2008
p101
aVBOS vs. SEA
p102
aVW
p103
aI22
aI2
aI4
aF0.5
aI0
aI0
aF0.0
aI1
aI1
aF1.0
aI0
aI5
aI5
aI0
aI0
aI2
aI2
aI3
aI5
aI13
aa(lp104
V0020700939
p105
aVMAR 10, 2008
p106
aVBOS @ PHI
p107
aVW
p108
aI29
aI2
aI7
aF0.286
aI0
aI0
aF0.0
aI3
aI4
aF0.75
aI2
aI8
aI10
aI1
aI0
aI6
aI1
aI4
aI7
aI24
aa(lp109
V0020700929
p110
aVMAR 08, 2008
p111
aVBOS @ MEM
p112
aVW
p113
aI25
aI6
aI7
aF0.857
aI0
aI0
aF0.0
aI1
aI2
aF0.5
aI4
aI7
aI11
aI0
aI0
aI3
aI1
aI3
aI13
aI26
aa(lp114
V0020700917
p115
aVMAR 07, 2008
p116
aVBOS vs. CHI
p117
aVW
p118
aI27
aI4
aI7
aF0.571
aI0
aI0
aF0.0
aI6
aI6
aF1.0
aI3
aI8
aI11
aI1
aI0
aI3
aI1
aI1
aI14
aI19
aa(lp119
V0020700899
p120
aVMAR 05, 2008
p121
aVBOS vs. DET
p122
aVW
p123
aI33
aI4
aI9
aF0.444
aI0
aI0
aF0.0
aI2
aI5
aF0.4
aI6
aI14
aI20
aI1
aI0
aI2
aI2
aI4
aI10
aI15
aa(lp124
V0020700877
p125
aVMAR 02, 2008
p126
aVBOS vs. ATL
p127
aVW
p128
aI31
aI4
aI5
aF0.8
aI0
aI0
aF0.0
aI3
aI5
aF0.6
aI3
aI9
aI12
aI6
aI0
aI4
aI1
aI6
aI11
aI22
aa(lp129
V0020700859
p130
aVFEB 29, 2008
p131
aVBOS vs. CHA
p132
aVW
p133
aI29
aI8
aI10
aF0.8
aI0
aI0
aF0.0
aI3
aI4
aF0.75
aI4
aI5
aI9
aI2
aI2
aI5
aI4
aI3
aI19
aI4
aa(lp134
V0020700849
p135
aVFEB 27, 2008
p136
aVBOS vs. CLE
p137
aVW
p138
aI25
aI4
aI4
aF1.0
aI0
aI0
aF0.0
aI0
aI2
aF0.0
aI1
aI0
aI1
aI2
aI1
aI1
aI1
aI2
aI8
aI5
aa(lp139
V0020700836
p140
aVFEB 25, 2008
p141
aVBOS @ LAC
p142
aVW
p143
aI21
aI3
aI3
aF1.0
aI0
aI0
aF0.0
aI0
aI0
aF0.0
aI2
aI7
aI9
aI1
aI1
aI0
aI1
aI2
aI6
aI20
aa(lp144
V0020700827
p145
aVFEB 24, 2008
p146
aVBOS @ POR
p147
aVW
p148
aI13
aI2
aI5
aF0.4
aI0
aI0
aF0.0
aI0
aI0
aF0.0
aI4
aI1
aI5
aI0
aI0
aI1
aI0
aI4
aI4
aI12
aa(lp149
V0020700812
p150
aVFEB 22, 2008
p151
aVBOS @ PHX
p152
aVL
p153
aI29
aI3
aI3
aF1.0
aI0
aI0
aF0.0
aI0
aI1
aF0.0
aI1
aI5
aI6
aI0
aI1
aI3
aI0
aI3
aI6
aI-15
aa(lp154
V0020700799
p155
aVFEB 20, 2008
p156
aVBOS @ GSW
p157
aVL
p158
aI21
aI2
aI3
aF0.667
aI0
aI0
aF0.0
aI0
aI0
aF0.0
aI1
aI4
aI5
aI1
aI0
aI0
aI4
aI3
aI4
aI5
aa(lp159
V0020700785
p160
aVFEB 19, 2008
p161
aVBOS @ DEN
p162
aVL
p163
aI10
aI1
aI1
aF1.0
aI0
aI0
aF0.0
aI0
aI0
aF0.0
aI0
aI2
aI2
aI0
aI0
aI2
aI2
aI2
aI2
aI-9
aa(lp164
V0020700732
p165
aVFEB 08, 2008
p166
aVBOS @ MIN
p167
aVW
p168
aI26
aI0
aI0
aF0.0
aI0
aI0
aF0.0
aI1
aI2
aF0.5
aI1
aI4
aI5
aI0
aI1
aI4
aI3
aI1
aI1
aI-3
aa(lp169
V0020700715
p170
aVFEB 06, 2008
p171
aVBOS vs. LAC
p172
aVW
p173
aI21
aI3
aI7
aF0.429
aI0
aI0
aF0.0
aI0
aI0
aF0.0
aI4
aI2
aI6
aI0
aI0
aI1
aI4
aI4
aI6
aI5
aa(lp174
V0020700708
p175
aVFEB 05, 2008
p176
aVBOS @ CLE
p177
aVL
p178
aI28
aI3
aI4
aF0.75
aI0
aI0
aF0.0
aI6
aI7
aF0.857
aI4
aI1
aI5
aI4
aI0
aI0
aI2
aI5
aI12
aI5
aa(lp179
V0020700676
p180
aVJAN 31, 2008
p181
aVBOS vs. DAL
p182
aVW
p183
aI19
aI2
aI4
aF0.5
aI0
aI0
aF0.0
aI1
aI2
aF0.5
aI1
aI5
aI6
aI0
aI0
aI0
aI1
aI3
aI5
aI4
aa(lp184
V0020700659
p185
aVJAN 29, 2008
p186
aVBOS @ MIA
p187
aVW
p188
aI18
aI2
aI5
aF0.4
aI0
aI0
aF0.0
aI0
aI0
aF0.0
aI0
aI6
aI6
aI0
aI0
aI1
aI1
aI4
aI4
aI16
aa(lp189
V0020700644
p190
aVJAN 27, 2008
p191
aVBOS @ ORL
p192
aVL
p193
aI21
aI2
aI4
aF0.5
aI0
aI0
aF0.0
aI3
aI3
aF1.0
aI1
aI3
aI4
aI1
aI0
aI0
aI0
aI3
aI7
aI-12
aa(lp194
V0020700628
p195
aVJAN 25, 2008
p196
aVBOS vs. MIN
p197
aVW
p198
aI27
aI8
aI10
aF0.8
aI0
aI0
aF0.0
aI5
aI8
aF0.625
aI3
aI1
aI4
aI0
aI0
aI3
aI0
aI3
aI21
aI12
aa(lp199
V0020700613
p200
aVJAN 23, 2008
p201
aVBOS vs. TOR
p202
aVL
p203
aI29
aI1
aI2
aF0.5
aI0
aI0
aF0.0
aI2
aI4
aF0.5
aI1
aI2
aI3
aI2
aI1
aI2
aI3
aI5
aI4
aI-7
aa(lp204
V0020700595
p205
aVJAN 21, 2008
p206
aVBOS @ NYK
p207
aVW
p208
aI30
aI9
aI12
aF0.75
aI0
aI0
aF0.0
aI6
aI6
aF1.0
aI2
aI6
aI8
aI1
aI2
aI1
aI2
aI4
aI24
aI13
aa(lp209
V0020700576
p210
aVJAN 18, 2008
p211
aVBOS vs. PHI
p212
aVW
p213
aI22
aI3
aI5
aF0.6
aI0
aI0
aF0.0
aI2
aI2
aF1.0
aI4
aI3
aI7
aI3
aI0
aI0
aI1
aI4
aI8
aI-1
aa(lp214
V0020700566
p215
aVJAN 16, 2008
p216
aVBOS vs. POR
p217
aVW
p218
aI25
aI1
aI4
aF0.25
aI0
aI0
aF0.0
aI1
aI4
aF0.25
aI3
aI4
aI7
aI0
aI0
aI3
aI2
aI3
aI3
aI12
aa(lp219
V0020700548
p220
aVJAN 14, 2008
p221
aVBOS vs. WAS
p222
aVL
p223
aI29
aI4
aI6
aF0.667
aI0
aI0
aF0.0
aI1
aI2
aF0.5
aI1
aI2
aI3
aI1
aI2
aI2
aI4
aI4
aI9
aI-3
aa(lp224
V0020700534
p225
aVJAN 12, 2008
p226
aVBOS @ WAS
p227
aVL
p228
aI26
aI2
aI3
aF0.667
aI0
aI0
aF0.0
aI5
aI6
aF0.833
aI2
aI5
aI7
aI3
aI1
aI2
aI0
aI4
aI9
aI7
aa(lp229
V0020700524
p230
aVJAN 11, 2008
p231
aVBOS @ NJN
p232
aVW
p233
aI18
aI0
aI1
aF0.0
aI0
aI0
aF0.0
aI1
aI2
aF0.5
aI1
aI3
aI4
aI2
aI0
aI2
aI0
aI2
aI1
aI-2
aa(lp234
V0020700511
p235
aVJAN 09, 2008
p236
aVBOS vs. CHA
p237
aVL
p238
aI31
aI3
aI5
aF0.6
aI0
aI0
aF0.0
aI0
aI2
aF0.0
aI3
aI7
aI10
aI1
aI1
aI1
aI4
aI3
aI6
aI-7
aa(lp239
V0020700485
p240
aVJAN 05, 2008
p241
aVBOS @ DET
p242
aVW
p243
aI28
aI3
aI6
aF0.5
aI0
aI1
aF0.0
aI1
aI2
aF0.5
aI4
aI5
aI9
aI0
aI0
aI1
aI1
aI2
aI7
aI-10
aa(lp244
V0020700475
p245
aVJAN 04, 2008
p246
aVBOS vs. MEM
p247
aVW
p248
aI24
aI3
aI5
aF0.6
aI0
aI0
aF0.0
aI0
aI0
aF0.0
aI0
aI6
aI6
aI0
aI1
aI0
aI1
aI3
aI6
aI3
aa(lp249
V0020700462
p250
aVJAN 02, 2008
p251
aVBOS vs. HOU
p252
aVW
p253
aI26
aI2
aI4
aF0.5
aI0
aI0
aF0.0
aI0
aI0
aF0.0
aI1
aI1
aI2
aI2
aI0
aI1
aI3
aI6
aI4
aI-3
aa(lp254
V0020700448
p255
aVDEC 30, 2007
p256
aVBOS @ LAL
p257
aVW
p258
aI26
aI3
aI6
aF0.5
aI0
aI0
aF0.0
aI1
aI6
aF0.167
aI1
aI6
aI7
aI0
aI0
aI0
aI2
aI4
aI7
aI7
aa(lp259
V0020700441
p260
aVDEC 29, 2007
p261
aVBOS @ UTA
p262
aVW
p263
aI22
aI4
aI8
aF0.5
aI0
aI0
aF0.0
aI3
aI3
aF1.0
aI5
aI4
aI9
aI1
aI0
aI0
aI3
aI2
aI11
aI-7
aa(lp264
V0020700421
p265
aVDEC 27, 2007
p266
aVBOS @ SEA
p267
aVW
p268
aI24
aI3
aI4
aF0.75
aI0
aI0
aF0.0
aI2
aI5
aF0.4
aI3
aI5
aI8
aI1
aI0
aI1
aI1
aI1
aI8
aI12
aa(lp269
V0020700417
p270
aVDEC 26, 2007
p271
aVBOS @ SAC
p272
aVW
p273
aI19
aI1
aI2
aF0.5
aI0
aI0
aF0.0
aI1
aI2
aF0.5
aI3
aI5
aI8
aI2
aI1
aI2
aI2
aI3
aI3
aI6
aa(lp274
V0020700403
p275
aVDEC 23, 2007
p276
aVBOS vs. ORL
p277
aVW
p278
aI36
aI3
aI8
aF0.375
aI0
aI0
aF0.0
aI0
aI2
aF0.0
aI1
aI11
aI12
aI1
aI0
aI0
aI1
aI4
aI6
aI20
aa(lp279
V0020700381
p280
aVDEC 21, 2007
p281
aVBOS vs. CHI
p282
aVW
p283
aI20
aI4
aI5
aF0.8
aI0
aI0
aF0.0
aI4
aI7
aF0.571
aI3
aI1
aI4
aI1
aI0
aI1
aI2
aI4
aI12
aI1
aa(lp284
V0020700369
p285
aVDEC 19, 2007
p286
aVBOS vs. DET
p287
aVL
p288
aI36
aI2
aI6
aF0.333
aI0
aI0
aF0.0
aI1
aI4
aF0.25
aI3
aI3
aI6
aI1
aI0
aI1
aI1
aI1
aI5
aI-2
aa(lp289
V0020700351
p290
aVDEC 16, 2007
p291
aVBOS @ TOR
p292
aVW
p293
aI23
aI2
aI3
aF0.667
aI0
aI0
aF0.0
aI0
aI0
aF0.0
aI1
aI4
aI5
aI0
aI0
aI2
aI1
aI0
aI4
aI8
aa(lp294
V0020700330
p295
aVDEC 14, 2007
p296
aVBOS vs. MIL
p297
aVW
p298
aI27
aI1
aI2
aF0.5
aI0
aI0
aF0.0
aI2
aI2
aF1.0
aI2
aI3
aI5
aI0
aI1
aI1
aI0
aI2
aI4
aI13
aa(lp299
V0020700291
p300
aVDEC 08, 2007
p301
aVBOS @ CHI
p302
aVW
p303
aI11
aI2
aI2
aF1.0
aI0
aI0
aF0.0
aI0
aI2
aF0.0
aI0
aI3
aI3
aI1
aI0
aI1
aI1
aI4
aI4
aI-5
aa(lp304
V0020700280
p305
aVDEC 07, 2007
p306
aVBOS vs. TOR
p307
aVW
p308
aI15
aI2
aI2
aF1.0
aI0
aI0
aF0.0
aI0
aI0
aF0.0
aI0
aI3
aI3
aI0
aI0
aI1
aI3
aI2
aI4
aI12
aa(lp309
V0020700263
p310
aVDEC 05, 2007
p311
aVBOS @ PHI
p312
aVW
p313
aI20
aI4
aI5
aF0.8
aI0
aI0
aF0.0
aI0
aI0
aF0.0
aI0
aI4
aI4
aI0
aI1
aI0
aI0
aI4
aI8
aI4
aa(lp314
V0020700242
p315
aVDEC 02, 2007
p316
aVBOS vs. CLE
p317
aVW
p318
aI25
aI1
aI4
aF0.25
aI0
aI0
aF0.0
aI2
aI2
aF1.0
aI1
aI6
aI7
aI2
aI0
aI0
aI3
aI2
aI4
aI16
aa(lp319
V0020700228
p320
aVNOV 30, 2007
p321
aVBOS @ MIA
p322
aVW
p323
aI26
aI2
aI2
aF1.0
aI0
aI0
aF0.0
aI3
aI4
aF0.75
aI1
aI4
aI5
aI0
aI0
aI0
aI2
aI1
aI7
aI10
aa(lp324
V0020700221
p325
aVNOV 29, 2007
p326
aVBOS vs. NYK
p327
aVW
p328
aI19
aI2
aI4
aF0.5
aI0
aI0
aF0.0
aI1
aI2
aF0.5
aI0
aI2
aI2
aI0
aI0
aI3
aI0
aI4
aI5
aI34
aa(lp329
V0020700204
p330
aVNOV 27, 2007
p331
aVBOS @ CLE
p332
aVL
p333
aI32
aI3
aI6
aF0.5
aI0
aI0
aF0.0
aI5
aI8
aF0.625
aI1
aI4
aI5
aI0
aI2
aI3
aI1
aI3
aI11
aI-12
aa(lp334
V0020700185
p335
aVNOV 24, 2007
p336
aVBOS @ CHA
p337
aVW
p338
aI20
aI3
aI6
aF0.5
aI0
aI0
aF0.0
aI1
aI2
aF0.5
aI1
aI1
aI2
aI0
aI0
aI0
aI1
aI3
aI7
aI5
aa(lp339
V0020700172
p340
aVNOV 23, 2007
p341
aVBOS vs. LAL
p342
aVW
p343
aI34
aI8
aI10
aF0.8
aI0
aI0
aF0.0
aI5
aI6
aF0.833
aI2
aI7
aI9
aI1
aI1
aI0
aI3
aI1
aI21
aI30
aa(lp344
V0020700158
p345
aVNOV 21, 2007
p346
aVBOS vs. GSW
p347
aVW
p348
aI20
aI2
aI2
aF1.0
aI0
aI0
aF0.0
aI3
aI4
aF0.75
aI1
aI6
aI7
aI4
aI0
aI2
aI4
aI2
aI7
aI8
aa(lp349
V0020700142
p350
aVNOV 18, 2007
p351
aVBOS @ ORL
p352
aVL
p353
aI21
aI1
aI3
aF0.333
aI0
aI0
aF0.0
aI3
aI4
aF0.75
aI3
aI2
aI5
aI1
aI1
aI0
aI3
aI3
aI5
aI-5
aa(lp354
V0020700121
p355
aVNOV 16, 2007
p356
aVBOS vs. MIA
p357
aVW
p358
aI32
aI5
aI8
aF0.625
aI0
aI0
aF0.0
aI0
aI0
aF0.0
aI2
aI2
aI4
aI2
aI0
aI1
aI2
aI3
aI10
aI14
aa(lp359
V0020700108
p360
aVNOV 14, 2007
p361
aVBOS vs. NJN
p362
aVW
p363
aI30
aI3
aI6
aF0.5
aI0
aI0
aF0.0
aI4
aI4
aF1.0
aI1
aI7
aI8
aI2
aI1
aI4
aI1
aI3
aI10
aI6
aa(lp364
V0020700098
p365
aVNOV 13, 2007
p366
aVBOS @ IND
p367
aVW
p368
aI21
aI1
aI1
aF1.0
aI0
aI0
aF0.0
aI3
aI4
aF0.75
aI0
aI2
aI2
aI0
aI2
aI2
aI1
aI5
aI5
aI1
aa(lp369
V0020700081
p370
aVNOV 10, 2007
p371
aVBOS @ NJN
p372
aVW
p373
aI19
aI4
aI5
aF0.8
aI0
aI0
aF0.0
aI0
aI0
aF0.0
aI1
aI4
aI5
aI2
aI0
aI1
aI0
aI4
aI8
aI2
aa(lp374
V0020700068
p375
aVNOV 09, 2007
p376
aVBOS vs. ATL
p377
aVW
p378
aI30
aI1
aI2
aF0.5
aI0
aI0
aF0.0
aI2
aI4
aF0.5
aI3
aI4
aI7
aI1
aI2
aI4
aI3
aI2
aI4
aI8
aa(lp379
V0020700058
p380
aVNOV 07, 2007
p381
aVBOS vs. DEN
p382
aVW
p383
aI30
aI3
aI3
aF1.0
aI0
aI0
aF0.0
aI1
aI6
aF0.167
aI1
aI2
aI3
aI2
aI1
aI1
aI2
aI4
aI7
aI20
aa(lp384
V0020700035
p385
aVNOV 04, 2007
p386
aVBOS @ TOR
p387
aVW
p388
aI28
aI3
aI6
aF0.5
aI0
aI0
aF0.0
aI0
aI0
aF0.0
aI4
aI3
aI7
aI1
aI0
aI2
aI3
aI5
aI6
aI6
aa(lp389
V0020700021
p390
aVNOV 02, 2007
p391
aVBOS vs. WAS
p392
aVW
p393
aI26
aI2
aI5
aF0.4
aI0
aI0
aF0.0
aI1
aI2
aF0.5
aI2
aI2
aI4
aI0
aI0
aI1
aI2
aI4
aI5
aI2
aasS'name'
p394
VKendrick Perkins
p395
sS'experience'
p396
I4
s.