(dp0
S'age'
p1
I27
sS'stats'
p2
(lp3
(lp4
V0020701227
p5
aVAPR 16, 2008
p6
aVDAL vs. NOH
p7
aVW
p8
aI41
aI6
aI20
aF0.3
aI1
aI3
aF0.333
aI6
aI6
aF1.0
aI0
aI3
aI3
aI1
aI0
aI0
aI1
aI2
aI19
aI10
aa(lp9
V0020701202
p10
aVAPR 13, 2008
p11
aVDAL @ SEA
p12
aVL
p13
aI28
aI4
aI13
aF0.308
aI2
aI3
aF0.667
aI6
aI6
aF1.0
aI2
aI5
aI7
aI3
aI1
aI0
aI1
aI2
aI16
aI-1
aa(lp14
V0020701174
p15
aVAPR 10, 2008
p16
aVDAL vs. UTA
p17
aVW
p18
aI20
aI1
aI8
aF0.125
aI0
aI1
aF0.0
aI1
aI2
aF0.5
aI0
aI4
aI4
aI1
aI2
aI1
aI3
aI1
aI3
aI6
aa(lp19
V0020701160
p20
aVAPR 08, 2008
p21
aVDAL vs. SEA
p22
aVW
p23
aI32
aI6
aI14
aF0.429
aI0
aI4
aF0.0
aI5
aI7
aF0.714
aI1
aI5
aI6
aI3
aI0
aI1
aI1
aI2
aI17
aI14
aa(lp24
V0020701144
p25
aVAPR 06, 2008
p26
aVDAL @ PHX
p27
aVW
p28
aI44
aI9
aI21
aF0.429
aI0
aI1
aF0.0
aI6
aI8
aF0.75
aI3
aI6
aI9
aI4
aI2
aI0
aI0
aI1
aI24
aI12
aa(lp29
V0020701135
p30
aVAPR 04, 2008
p31
aVDAL @ LAL
p32
aVL
p33
aI41
aI8
aI20
aF0.4
aI0
aI3
aF0.0
aI7
aI8
aF0.875
aI4
aI3
aI7
aI3
aI0
aI0
aI2
aI4
aI23
aI5
aa(lp34
V0020701120
p35
aVAPR 02, 2008
p36
aVDAL vs. GSW
p37
aVW
p38
aI38
aI14
aI25
aF0.56
aI0
aI1
aF0.0
aI0
aI0
aF0.0
aI4
aI3
aI7
aI5
aI2
aI0
aI2
aI0
aI28
aI23
aa(lp39
V0020701104
p40
aVMAR 31, 2008
p41
aVDAL @ LAC
p42
aVW
p43
aI39
aI8
aI20
aF0.4
aI0
aI4
aF0.0
aI9
aI10
aF0.9
aI1
aI7
aI8
aI3
aI2
aI0
aI0
aI3
aI25
aI0
aa(lp44
V0020701096
p45
aVMAR 30, 2008
p46
aVDAL @ GSW
p47
aVL
p48
aI39
aI13
aI25
aF0.52
aI1
aI4
aF0.25
aI9
aI9
aF1.0
aI2
aI7
aI9
aI3
aI2
aI2
aI1
aI3
aI36
aI-8
aa(lp49
V0020701071
p50
aVMAR 27, 2008
p51
aVDAL @ DEN
p52
aVL
p53
aI43
aI12
aI24
aF0.5
aI1
aI5
aF0.2
aI5
aI8
aF0.625
aI0
aI5
aI5
aI2
aI0
aI0
aI2
aI3
aI30
aI-5
aa(lp54
V0020701055
p55
aVMAR 25, 2008
p56
aVDAL vs. LAC
p57
aVW
p58
aI36
aI8
aI22
aF0.364
aI1
aI5
aF0.2
aI15
aI15
aF1.0
aI3
aI4
aI7
aI2
aI4
aI0
aI2
aI2
aI32
aI14
aa(lp59
V0020701040
p60
aVMAR 23, 2008
p61
aVDAL vs. SAS
p62
aVL
p63
aI39
aI5
aI12
aF0.417
aI1
aI4
aF0.25
aI2
aI4
aF0.5
aI2
aI7
aI9
aI2
aI0
aI1
aI1
aI2
aI13
aI-7
aa(lp64
V0020701017
p65
aVMAR 20, 2008
p66
aVDAL vs. BOS
p67
aVL
p68
aI39
aI8
aI15
aF0.533
aI2
aI2
aF1.0
aI6
aI6
aF1.0
aI2
aI4
aI6
aI1
aI0
aI2
aI0
aI2
aI24
aI7
aa(lp69
V0020701003
p70
aVMAR 18, 2008
p71
aVDAL vs. LAL
p72
aVL
p73
aI35
aI6
aI14
aF0.429
aI0
aI1
aF0.0
aI7
aI10
aF0.7
aI1
aI4
aI5
aI1
aI0
aI1
aI3
aI3
aI19
aI-8
aa(lp74
V0020700984
p75
aVMAR 16, 2008
p76
aVDAL @ MIA
p77
aVW
p78
aI27
aI7
aI14
aF0.5
aI0
aI2
aF0.0
aI1
aI2
aF0.5
aI2
aI4
aI6
aI1
aI1
aI0
aI1
aI1
aI15
aI32
aa(lp79
V0020700973
p80
aVMAR 14, 2008
p81
aVDAL vs. IND
p82
aVW
p83
aI32
aI8
aI14
aF0.571
aI1
aI3
aF0.333
aI1
aI2
aF0.5
aI1
aI3
aI4
aI5
aI0
aI0
aI2
aI2
aI18
aI21
aa(lp84
V0020700960
p85
aVMAR 12, 2008
p86
aVDAL vs. CHA
p87
aVW
p88
aI35
aI9
aI15
aF0.6
aI2
aI2
aF1.0
aI4
aI5
aF0.8
aI3
aI4
aI7
aI6
aI0
aI0
aI2
aI0
aI24
aI23
aa(lp89
V0020700944
p90
aVMAR 10, 2008
p91
aVDAL vs. NYK
p92
aVW
p93
aI31
aI5
aI10
aF0.5
aI0
aI0
aF0.0
aI4
aI5
aF0.8
aI0
aI5
aI5
aI2
aI3
aI0
aI0
aI0
aI14
aI14
aa(lp94
V0020700931
p95
aVMAR 08, 2008
p96
aVDAL vs. NJN
p97
aVW
p98
aI24
aI2
aI4
aF0.5
aI1
aI1
aF1.0
aI1
aI2
aF0.5
aI2
aI4
aI6
aI3
aI0
aI1
aI1
aI5
aI6
aI14
aa(lp99
V0020700911
p100
aVMAR 06, 2008
p101
aVDAL vs. HOU
p102
aVL
p103
aI40
aI8
aI19
aF0.421
aI1
aI2
aF0.5
aI4
aI6
aF0.667
aI1
aI6
aI7
aI1
aI0
aI0
aI1
aI2
aI21
aI-14
aa(lp104
V0020700887
p105
aVMAR 03, 2008
p106
aVDAL @ UTA
p107
aVL
p108
aI37
aI9
aI13
aF0.692
aI0
aI1
aF0.0
aI7
aI8
aF0.875
aI1
aI3
aI4
aI2
aI0
aI0
aI3
aI5
aI25
aI-12
aa(lp109
V0020700876
p110
aVMAR 02, 2008
p111
aVDAL @ LAL
p112
aVL
p113
aI28
aI4
aI15
aF0.267
aI1
aI3
aF0.333
aI2
aI3
aF0.667
aI2
aI5
aI7
aI2
aI0
aI0
aI4
aI3
aI11
aI-11
aa(lp114
V0020700865
p115
aVFEB 29, 2008
p116
aVDAL vs. SAC
p117
aVW
p118
aI43
aI10
aI19
aF0.526
aI0
aI1
aF0.0
aI0
aI0
aF0.0
aI2
aI7
aI9
aI2
aI1
aI1
aI1
aI3
aI20
aI18
aa(lp119
V0020700856
p120
aVFEB 28, 2008
p121
aVDAL @ SAS
p122
aVL
p123
aI41
aI6
aI14
aF0.429
aI0
aI4
aF0.0
aI4
aI4
aF1.0
aI1
aI7
aI8
aI1
aI0
aI0
aI1
aI4
aI16
aI0
aa(lp124
V0020700833
p125
aVFEB 25, 2008
p126
aVDAL vs. CHI
p127
aVW
p128
aI40
aI6
aI19
aF0.316
aI2
aI4
aF0.5
aI2
aI2
aF1.0
aI1
aI2
aI3
aI1
aI0
aI1
aI3
aI2
aI16
aI2
aa(lp129
V0020700828
p130
aVFEB 24, 2008
p131
aVDAL @ MIN
p132
aVW
p133
aI38
aI5
aI18
aF0.278
aI0
aI4
aF0.0
aI4
aI5
aF0.8
aI3
aI4
aI7
aI1
aI1
aI0
aI2
aI3
aI14
aI13
aa(lp134
V0020700810
p135
aVFEB 22, 2008
p136
aVDAL @ MEM
p137
aVW
p138
aI36
aI9
aI27
aF0.333
aI2
aI5
aF0.4
aI0
aI0
aF0.0
aI2
aI5
aI7
aI2
aI3
aI1
aI3
aI3
aI20
aI23
aa(lp139
V0020700795
p140
aVFEB 20, 2008
p141
aVDAL @ NOH
p142
aVL
p143
aI36
aI2
aI11
aF0.182
aI0
aI2
aF0.0
aI4
aI6
aF0.667
aI1
aI2
aI3
aI1
aI0
aI1
aI2
aI3
aI8
aI-15
aa(lp144
V0020700752
p145
aVFEB 11, 2008
p146
aVDAL @ PHI
p147
aVL
p148
aI37
aI7
aI13
aF0.538
aI0
aI2
aF0.0
aI3
aI5
aF0.6
aI3
aI3
aI6
aI4
aI1
aI0
aI3
aI2
aI17
aI-4
aa(lp149
V0020700746
p150
aVFEB 10, 2008
p151
aVDAL @ NJN
p152
aVL
p153
aI39
aI7
aI18
aF0.389
aI0
aI1
aF0.0
aI2
aI3
aF0.667
aI2
aI2
aI4
aI0
aI0
aI0
aI0
aI4
aI16
aI-19
aa(lp154
V0020700733
p155
aVFEB 08, 2008
p156
aVDAL vs. MEM
p157
aVW
p158
aI25
aI3
aI9
aF0.333
aI1
aI2
aF0.5
aI1
aI2
aF0.5
aI0
aI8
aI8
aI3
aI1
aI0
aI0
aI0
aI8
aI14
aa(lp159
V0020700718
p160
aVFEB 06, 2008
p161
aVDAL vs. MIL
p162
aVW
p163
aI39
aI7
aI17
aF0.412
aI0
aI3
aF0.0
aI3
aI5
aF0.6
aI2
aI6
aI8
aI1
aI2
aI0
aI1
aI3
aI17
aI20
aa(lp164
V0020700699
p165
aVFEB 04, 2008
p166
aVDAL @ ORL
p167
aVW
p168
aI38
aI10
aI20
aF0.5
aI3
aI3
aF1.0
aI5
aI6
aF0.833
aI2
aI5
aI7
aI3
aI0
aI0
aI1
aI4
aI28
aI4
aa(lp169
V0020700697
p170
aVFEB 03, 2008
p171
aVDAL @ DET
p172
aVL
p173
aI41
aI6
aI17
aF0.353
aI0
aI3
aF0.0
aI3
aI4
aF0.75
aI0
aI9
aI9
aI1
aI0
aI0
aI0
aI1
aI15
aI-21
aa(lp174
V0020700676
p175
aVJAN 31, 2008
p176
aVDAL @ BOS
p177
aVL
p178
aI39
aI6
aI15
aF0.4
aI1
aI6
aF0.167
aI6
aI6
aF1.0
aI2
aI4
aI6
aI2
aI0
aI1
aI1
aI1
aI19
aI-8
aa(lp179
V0020700652
p180
aVJAN 28, 2008
p181
aVDAL @ MEM
p182
aVW
p183
aI35
aI10
aI17
aF0.588
aI2
aI4
aF0.5
aI4
aI5
aF0.8
aI1
aI5
aI6
aI4
aI0
aI0
aI0
aI1
aI26
aI23
aa(lp184
V0020700647
p185
aVJAN 27, 2008
p186
aVDAL vs. DEN
p187
aVW
p188
aI41
aI9
aI23
aF0.391
aI0
aI4
aF0.0
aI2
aI2
aF1.0
aI2
aI6
aI8
aI5
aI2
aI0
aI2
aI0
aI20
aI7
aa(lp189
V0020700633
p190
aVJAN 25, 2008
p191
aVDAL vs. LAL
p192
aVW
p193
aI41
aI9
aI18
aF0.5
aI0
aI2
aF0.0
aI8
aI10
aF0.8
aI4
aI6
aI10
aI1
aI1
aI0
aI1
aI3
aI26
aI14
aa(lp194
V0020700611
p195
aVJAN 23, 2008
p196
aVDAL @ CHA
p197
aVW
p198
aI39
aI10
aI21
aF0.476
aI0
aI4
aF0.0
aI1
aI3
aF0.333
aI1
aI11
aI12
aI1
aI1
aI1
aI1
aI2
aI21
aI16
aa(lp199
V0020700596
p200
aVJAN 21, 2008
p201
aVDAL @ WAS
p202
aVL
p203
aI41
aI11
aI16
aF0.688
aI3
aI3
aF1.0
aI7
aI8
aF0.875
aI2
aI5
aI7
aI2
aI2
aI0
aI3
aI3
aI32
aI-12
aa(lp204
V0020700591
p205
aVJAN 19, 2008
p206
aVDAL vs. SEA
p207
aVW
p208
aI37
aI6
aI14
aF0.429
aI2
aI3
aF0.667
aI3
aI3
aF1.0
aI0
aI5
aI5
aI1
aI3
aI1
aI1
aI5
aI17
aI11
aa(lp209
V0020700552
p210
aVJAN 14, 2008
p211
aVDAL @ SAC
p212
aVL
p213
aI25
aI4
aI10
aF0.4
aI3
aI5
aF0.6
aI0
aI0
aF0.0
aI0
aI6
aI6
aI1
aI1
aI1
aI4
aI5
aI11
aI-5
aa(lp214
V0020700533
p215
aVJAN 11, 2008
p216
aVDAL @ SEA
p217
aVW
p218
aI35
aI9
aI21
aF0.429
aI0
aI3
aF0.0
aI0
aI0
aF0.0
aI4
aI7
aI11
aI0
aI1
aI0
aI2
aI3
aI18
aI15
aa(lp219
V0020700516
p220
aVJAN 09, 2008
p221
aVDAL vs. DET
p222
aVW
p223
aI36
aI4
aI12
aF0.333
aI0
aI1
aF0.0
aI2
aI2
aF1.0
aI1
aI8
aI9
aI2
aI0
aI1
aI1
aI2
aI10
aI8
aa(lp224
V0020700492
p225
aVJAN 06, 2008
p226
aVDAL @ MIN
p227
aVW
p228
aI32
aI9
aI21
aF0.429
aI0
aI1
aF0.0
aI4
aI5
aF0.8
aI2
aI6
aI8
aI1
aI1
aI1
aI2
aI1
aI22
aI18
aa(lp229
V0020700481
p230
aVJAN 04, 2008
p231
aVDAL vs. MIA
p232
aVW
p233
aI38
aI7
aI17
aF0.412
aI0
aI4
aF0.0
aI4
aI8
aF0.5
aI0
aI7
aI7
aI3
aI0
aI0
aI3
aI3
aI18
aI16
aa(lp234
V0020700466
p235
aVJAN 02, 2008
p236
aVDAL vs. GSW
p237
aVW
p238
aI41
aI8
aI19
aF0.421
aI2
aI4
aF0.5
aI1
aI1
aF1.0
aI1
aI12
aI13
aI3
aI0
aI0
aI0
aI3
aI19
aI18
aa(lp239
V0020700434
p240
aVDEC 29, 2007
p241
aVDAL vs. ATL
p242
aVW
p243
aI40
aI7
aI16
aF0.438
aI1
aI2
aF0.5
aI4
aI5
aF0.8
aI0
aI6
aI6
aI2
aI1
aI0
aI5
aI2
aI19
aI16
aa(lp244
V0020700419
p245
aVDEC 27, 2007
p246
aVDAL vs. CLE
p247
aVL
p248
aI35
aI9
aI18
aF0.5
aI1
aI2
aF0.5
aI0
aI2
aF0.0
aI0
aI7
aI7
aI2
aI0
aI1
aI3
aI3
aI19
aI-5
aa(lp249
V0020700416
p250
aVDEC 26, 2007
p251
aVDAL @ UTA
p252
aVL
p253
aI32
aI6
aI15
aF0.4
aI2
aI3
aF0.667
aI3
aI4
aF0.75
aI2
aI6
aI8
aI2
aI0
aI0
aI3
aI5
aI17
aI-10
aa(lp254
V0020700388
p255
aVDEC 21, 2007
p256
aVDAL vs. LAC
p257
aVW
p258
aI35
aI6
aI12
aF0.5
aI2
aI2
aF1.0
aI1
aI2
aF0.5
aI2
aI6
aI8
aI2
aI0
aI0
aI0
aI1
aI15
aI2
aa(lp259
V0020700375
p260
aVDEC 19, 2007
p261
aVDAL vs. PHX
p262
aVW
p263
aI36
aI9
aI19
aF0.474
aI1
aI1
aF1.0
aI4
aI5
aF0.8
aI5
aI2
aI7
aI1
aI0
aI0
aI0
aI2
aI23
aI-1
aa(lp264
V0020700359
p265
aVDEC 17, 2007
p266
aVDAL vs. ORL
p267
aVW
p268
aI38
aI7
aI13
aF0.538
aI0
aI1
aF0.0
aI5
aI5
aF1.0
aI1
aI5
aI6
aI0
aI1
aI0
aI1
aI3
aI19
aI7
aa(lp269
V0020700347
p270
aVDEC 15, 2007
p271
aVDAL @ HOU
p272
aVW
p273
aI38
aI9
aI18
aF0.5
aI1
aI3
aF0.333
aI4
aI5
aF0.8
aI0
aI5
aI5
aI1
aI1
aI1
aI1
aI3
aI23
aI12
aa(lp274
V0020700336
p275
aVDEC 14, 2007
p276
aVDAL vs. NOH
p277
aVW
p278
aI38
aI6
aI16
aF0.375
aI0
aI1
aF0.0
aI3
aI5
aF0.6
aI2
aI8
aI10
aI5
aI0
aI0
aI2
aI1
aI15
aI10
aa(lp279
V0020700314
p280
aVDEC 12, 2007
p281
aVDAL @ TOR
p282
aVL
p283
aI35
aI8
aI17
aF0.471
aI1
aI2
aF0.5
aI2
aI2
aF1.0
aI1
aI5
aI6
aI0
aI1
aI0
aI0
aI2
aI19
aI-11
aa(lp284
V0020700303
p285
aVDEC 10, 2007
p286
aVDAL @ NYK
p287
aVW
p288
aI42
aI8
aI15
aF0.533
aI4
aI8
aF0.5
aI2
aI4
aF0.5
aI3
aI3
aI6
aI4
aI0
aI2
aI0
aI2
aI22
aI14
aa(lp289
V0020700292
p290
aVDEC 08, 2007
p291
aVDAL vs. UTA
p292
aVW
p293
aI42
aI14
aI19
aF0.737
aI4
aI5
aF0.8
aI15
aI17
aF0.882
aI6
aI4
aI10
aI2
aI0
aI1
aI1
aI4
aI47
aI19
aa(lp294
V0020700274
p295
aVDEC 06, 2007
p296
aVDAL vs. DEN
p297
aVL
p298
aI30
aI5
aI16
aF0.313
aI2
aI4
aF0.5
aI8
aI8
aF1.0
aI2
aI4
aI6
aI1
aI1
aI0
aI2
aI4
aI20
aI-17
aa(lp299
V0020700269
p300
aVDEC 05, 2007
p301
aVDAL @ SAS
p302
aVL
p303
aI38
aI7
aI12
aF0.583
aI1
aI2
aF0.5
aI7
aI9
aF0.778
aI1
aI8
aI9
aI3
aI0
aI0
aI3
aI4
aI22
aI-4
aa(lp304
V0020700253
p305
aVDEC 03, 2007
p306
aVDAL @ CHI
p307
aVW
p308
aI40
aI10
aI20
aF0.5
aI1
aI3
aF0.333
aI6
aI6
aF1.0
aI0
aI10
aI10
aI6
aI2
aI0
aI3
aI3
aI27
aI0
aa(lp309
V0020700238
p310
aVDEC 01, 2007
p311
aVDAL @ NOH
p312
aVL
p313
aI44
aI7
aI19
aF0.368
aI0
aI4
aF0.0
aI5
aI5
aF1.0
aI0
aI8
aI8
aI5
aI0
aI1
aI0
aI4
aI19
aI-1
aa(lp314
V0020700230
p315
aVNOV 30, 2007
p316
aVDAL vs. POR
p317
aVW
p318
aI42
aI8
aI15
aF0.533
aI0
aI0
aF0.0
aI7
aI7
aF1.0
aI2
aI12
aI14
aI3
aI2
aI0
aI1
aI2
aI23
aI15
aa(lp319
V0020700215
p320
aVNOV 28, 2007
p321
aVDAL vs. MIN
p322
aVW
p323
aI40
aI5
aI17
aF0.294
aI0
aI4
aF0.0
aI2
aI4
aF0.5
aI0
aI3
aI3
aI2
aI2
aI0
aI0
aI3
aI12
aI4
aa(lp324
V0020700199
p325
aVNOV 26, 2007
p326
aVDAL vs. WAS
p327
aVL
p328
aI25
aI6
aI15
aF0.4
aI1
aI4
aF0.25
aI4
aI4
aF1.0
aI3
aI1
aI4
aI0
aI0
aI0
aI4
aI4
aI17
aI-5
aa(lp329
V0020700190
p330
aVNOV 24, 2007
p331
aVDAL @ MIL
p332
aVL
p333
aI40
aI11
aI21
aF0.524
aI1
aI3
aF0.333
aI1
aI2
aF0.5
aI3
aI8
aI11
aI4
aI0
aI0
aI0
aI3
aI24
aI6
aa(lp334
V0020700175
p335
aVNOV 23, 2007
p336
aVDAL @ IND
p337
aVL
p338
aI34
aI7
aI15
aF0.467
aI0
aI2
aF0.0
aI5
aI6
aF0.833
aI3
aI3
aI6
aI2
aI0
aI1
aI4
aI5
aI19
aI3
aa(lp339
V0020700160
p340
aVNOV 21, 2007
p341
aVDAL @ HOU
p342
aVW
p343
aI40
aI9
aI19
aF0.474
aI2
aI2
aF1.0
aI0
aI0
aF0.0
aI1
aI6
aI7
aI1
aI1
aI2
aI0
aI3
aI20
aI-1
aa(lp344
V0020700154
p345
aVNOV 20, 2007
p346
aVDAL vs. TOR
p347
aVW
p348
aI37
aI4
aI9
aF0.444
aI0
aI2
aF0.0
aI7
aI8
aF0.875
aI2
aI7
aI9
aI1
aI0
aI1
aI2
aI1
aI15
aI8
aa(lp349
V0020700138
p350
aVNOV 17, 2007
p351
aVDAL vs. MEM
p352
aVW
p353
aI41
aI13
aI23
aF0.565
aI0
aI1
aF0.0
aI1
aI1
aF1.0
aI2
aI5
aI7
aI0
aI2
aI0
aI1
aI3
aI27
aI13
aa(lp354
V0020700117
p355
aVNOV 15, 2007
p356
aVDAL vs. SAS
p357
aVW
p358
aI36
aI7
aI14
aF0.5
aI1
aI2
aF0.5
aI8
aI12
aF0.667
aI0
aI6
aI6
aI1
aI3
aI0
aI2
aI4
aI23
aI18
aa(lp359
V0020700100
p360
aVNOV 13, 2007
p361
aVDAL vs. PHI
p362
aVW
p363
aI23
aI8
aI11
aF0.727
aI1
aI2
aF0.5
aI1
aI1
aF1.0
aI1
aI0
aI1
aI0
aI0
aI0
aI1
aI5
aI18
aI9
aa(lp364
V0020700085
p365
aVNOV 10, 2007
p366
aVDAL @ POR
p367
aVL
p368
aI36
aI5
aI15
aF0.333
aI1
aI3
aF0.333
aI9
aI9
aF1.0
aI0
aI7
aI7
aI0
aI0
aI0
aI1
aI1
aI20
aI1
aa(lp369
V0020700065
p370
aVNOV 08, 2007
p371
aVDAL @ GSW
p372
aVW
p373
aI32
aI10
aI17
aF0.588
aI1
aI4
aF0.25
aI3
aI4
aF0.75
aI0
aI7
aI7
aI3
aI0
aI0
aI1
aI6
aI24
aI-3
aa(lp374
V0020700043
p375
aVNOV 05, 2007
p376
aVDAL vs. HOU
p377
aVW
p378
aI31
aI6
aI11
aF0.545
aI1
aI1
aF1.0
aI8
aI8
aF1.0
aI1
aI5
aI6
aI4
aI1
aI1
aI1
aI5
aI21
aI11
aa(lp379
V0020700033
p380
aVNOV 03, 2007
p381
aVDAL vs. SAC
p382
aVW
p383
aI33
aI10
aI17
aF0.588
aI1
aI4
aF0.25
aI6
aI7
aF0.857
aI1
aI6
aI7
aI5
aI1
aI2
aI1
aI2
aI27
aI23
aasS'name'
p384
VJosh Howard
p385
sS'experience'
p386
I4
s.