(dp0
S'age'
p1
I27
sS'stats'
p2
(lp3
(lp4
V0020700005
p5
aVOCT 31, 2007
p6
aVORL vs. MIL
p7
aVW
p8
aI18
aI2
aI2
aF1.0
aI2
aI2
aF1.0
aI0
aI0
aF0.0
aI0
aI0
aI0
aI0
aI0
aI0
aI0
aI4
aI6
aI14
aa(lp9
V0020700016
p10
aVNOV 02, 2007
p11
aVORL vs. DET
p12
aVL
p13
aI33
aI4
aI4
aF1.0
aI4
aI4
aF1.0
aI2
aI2
aF1.0
aI0
aI4
aI4
aI1
aI1
aI0
aI2
aI2
aI14
aI-14
aa(lp14
V0020700029
p15
aVNOV 03, 2007
p16
aVORL @ WAS
p17
aVW
p18
aI41
aI3
aI11
aF0.273
aI2
aI10
aF0.2
aI0
aI0
aF0.0
aI1
aI4
aI5
aI3
aI0
aI0
aI1
aI2
aI8
aI17
aa(lp19
V0020700048
p20
aVNOV 06, 2007
p21
aVORL @ MIN
p22
aVW
p23
aI39
aI2
aI7
aF0.286
aI1
aI6
aF0.167
aI4
aI5
aF0.8
aI3
aI6
aI9
aI3
aI0
aI0
aI1
aI4
aI9
aI-2
aa(lp24
V0020700054
p25
aVNOV 07, 2007
p26
aVORL @ TOR
p27
aVW
p28
aI37
aI5
aI12
aF0.417
aI4
aI10
aF0.4
aI3
aI3
aF1.0
aI1
aI10
aI11
aI3
aI0
aI0
aI0
aI2
aI17
aI19
aa(lp29
V0020700069
p30
aVNOV 09, 2007
p31
aVORL @ NYK
p32
aVW
p33
aI34
aI3
aI9
aF0.333
aI1
aI5
aF0.2
aI2
aI2
aF1.0
aI0
aI1
aI1
aI1
aI1
aI0
aI0
aI3
aI9
aI9
aa(lp34
V0020700079
p35
aVNOV 10, 2007
p36
aVORL vs. PHX
p37
aVL
p38
aI14
aI1
aI2
aF0.5
aI1
aI2
aF0.5
aI0
aI0
aF0.0
aI0
aI1
aI1
aI0
aI0
aI0
aI0
aI0
aI3
aI-6
aa(lp39
V0020700097
p40
aVNOV 13, 2007
p41
aVORL vs. SEA
p42
aVW
p43
aI32
aI5
aI12
aF0.417
aI5
aI9
aF0.556
aI1
aI1
aF1.0
aI2
aI5
aI7
aI3
aI1
aI0
aI2
aI2
aI16
aI19
aa(lp44
V0020700107
p45
aVNOV 14, 2007
p46
aVORL @ CLE
p47
aVW
p48
aI44
aI4
aI8
aF0.5
aI3
aI6
aF0.5
aI0
aI2
aF0.0
aI1
aI4
aI5
aI1
aI1
aI0
aI2
aI3
aI11
aI-4
aa(lp49
V0020700122
p50
aVNOV 16, 2007
p51
aVORL @ NJN
p52
aVW
p53
aI33
aI2
aI10
aF0.2
aI1
aI6
aF0.167
aI1
aI2
aF0.5
aI0
aI4
aI4
aI2
aI0
aI1
aI2
aI5
aI6
aI17
aa(lp54
V0020700142
p55
aVNOV 18, 2007
p56
aVORL vs. BOS
p57
aVW
p58
aI41
aI4
aI10
aF0.4
aI2
aI8
aF0.25
aI0
aI0
aF0.0
aI0
aI2
aI2
aI1
aI2
aI0
aI0
aI3
aI10
aI1
aa(lp59
V0020700147
p60
aVNOV 19, 2007
p61
aVORL @ NOH
p62
aVW
p63
aI24
aI2
aI6
aF0.333
aI0
aI4
aF0.0
aI0
aI0
aF0.0
aI0
aI1
aI1
aI2
aI1
aI0
aI1
aI0
aI4
aI-16
aa(lp64
V0020700166
p65
aVNOV 21, 2007
p66
aVORL @ SAS
p67
aVL
p68
aI37
aI4
aI7
aF0.571
aI4
aI6
aF0.667
aI0
aI0
aF0.0
aI0
aI3
aI3
aI2
aI1
aI0
aI0
aI1
aI12
aI0
aa(lp69
V0020700171
p70
aVNOV 23, 2007
p71
aVORL vs. CHA
p72
aVW
p73
aI36
aI4
aI10
aF0.4
aI2
aI7
aF0.286
aI1
aI1
aF1.0
aI1
aI5
aI6
aI3
aI0
aI0
aI1
aI3
aI11
aI9
aa(lp74
V0020700186
p75
aVNOV 24, 2007
p76
aVORL vs. MIA
p77
aVW
p78
aI27
aI3
aI4
aF0.75
aI2
aI3
aF0.667
aI1
aI2
aF0.5
aI1
aI4
aI5
aI4
aI1
aI0
aI0
aI1
aI9
aI16
aa(lp79
V0020700201
p80
aVNOV 26, 2007
p81
aVORL @ POR
p82
aVW
p83
aI31
aI3
aI10
aF0.3
aI1
aI6
aF0.167
aI1
aI1
aF1.0
aI1
aI6
aI7
aI1
aI0
aI0
aI1
aI5
aI8
aI2
aa(lp84
V0020700220
p85
aVNOV 28, 2007
p86
aVORL @ SEA
p87
aVW
p88
aI27
aI4
aI10
aF0.4
aI3
aI7
aF0.429
aI3
aI3
aF1.0
aI0
aI4
aI4
aI1
aI0
aI0
aI1
aI1
aI14
aI9
aa(lp89
V0020700232
p90
aVNOV 30, 2007
p91
aVORL @ PHX
p92
aVL
p93
aI17
aI1
aI5
aF0.2
aI1
aI4
aF0.25
aI3
aI4
aF0.75
aI0
aI0
aI0
aI0
aI1
aI0
aI0
aI1
aI6
aI-13
aa(lp94
V0020700249
p95
aVDEC 02, 2007
p96
aVORL @ LAL
p97
aVW
p98
aI30
aI3
aI11
aF0.273
aI3
aI9
aF0.333
aI2
aI2
aF1.0
aI0
aI2
aI2
aI1
aI3
aI0
aI1
aI3
aI11
aI-6
aa(lp99
V0020700255
p100
aVDEC 03, 2007
p101
aVORL @ GSW
p102
aVW
p103
aI43
aI9
aI12
aF0.75
aI4
aI7
aF0.571
aI0
aI1
aF0.0
aI0
aI3
aI3
aI1
aI0
aI2
aI0
aI4
aI22
aI2
aa(lp104
V0020700278
p105
aVDEC 07, 2007
p106
aVORL vs. IND
p107
aVL
p108
aI33
aI4
aI11
aF0.364
aI3
aI10
aF0.3
aI3
aI3
aF1.0
aI0
aI4
aI4
aI1
aI0
aI1
aI1
aI3
aI14
aI-6
aa(lp109
V0020700302
p110
aVDEC 10, 2007
p111
aVORL vs. ATL
p112
aVL
p113
aI33
aI4
aI11
aF0.364
aI3
aI7
aF0.429
aI1
aI2
aF0.5
aI1
aI3
aI4
aI0
aI0
aI0
aI2
aI1
aI12
aI-9
aa(lp114
V0020700320
p115
aVDEC 12, 2007
p116
aVORL @ MIL
p117
aVL
p118
aI23
aI1
aI5
aF0.2
aI1
aI4
aF0.25
aI0
aI0
aF0.0
aI0
aI1
aI1
aI0
aI0
aI0
aI0
aI4
aI3
aI-5
aa(lp119
V0020700328
p120
aVDEC 14, 2007
p121
aVORL @ CHA
p122
aVW
p123
aI28
aI3
aI10
aF0.3
aI1
aI6
aF0.167
aI0
aI0
aF0.0
aI2
aI3
aI5
aI2
aI0
aI0
aI1
aI1
aI7
aI3
aa(lp124
V0020700341
p125
aVDEC 15, 2007
p126
aVORL vs. MEM
p127
aVL
p128
aI33
aI6
aI12
aF0.5
aI3
aI6
aF0.5
aI1
aI2
aF0.5
aI1
aI3
aI4
aI0
aI2
aI0
aI0
aI3
aI16
aI5
aa(lp129
V0020700359
p130
aVDEC 17, 2007
p131
aVORL @ DAL
p132
aVL
p133
aI34
aI4
aI10
aF0.4
aI1
aI5
aF0.2
aI0
aI0
aF0.0
aI0
aI2
aI2
aI2
aI2
aI0
aI0
aI1
aI9
aI-1
aa(lp134
V0020700374
p135
aVDEC 19, 2007
p136
aVORL @ HOU
p137
aVW
p138
aI30
aI6
aI9
aF0.667
aI2
aI4
aF0.5
aI0
aI0
aF0.0
aI4
aI6
aI10
aI0
aI1
aI0
aI2
aI4
aI14
aI2
aa(lp139
V0020700385
p140
aVDEC 21, 2007
p141
aVORL vs. UTA
p142
aVL
p143
aI29
aI4
aI10
aF0.4
aI3
aI7
aF0.429
aI0
aI0
aF0.0
aI0
aI2
aI2
aI1
aI0
aI0
aI1
aI2
aI11
aI-11
aa(lp144
V0020700403
p145
aVDEC 23, 2007
p146
aVORL @ BOS
p147
aVL
p148
aI28
aI1
aI2
aF0.5
aI1
aI2
aF0.5
aI0
aI0
aF0.0
aI0
aI3
aI3
aI1
aI2
aI0
aI1
aI1
aI3
aI0
aa(lp149
V0020700411
p150
aVDEC 26, 2007
p151
aVORL vs. NYK
p152
aVW
p153
aI26
aI4
aI14
aF0.286
aI1
aI11
aF0.091
aI1
aI2
aF0.5
aI0
aI7
aI7
aI0
aI1
aI1
aI1
aI2
aI10
aI-4
aa(lp154
V0020700424
p155
aVDEC 28, 2007
p156
aVORL @ MIA
p157
aVW
p158
aI37
aI5
aI12
aF0.417
aI3
aI9
aF0.333
aI0
aI0
aF0.0
aI2
aI2
aI4
aI2
aI2
aI0
aI2
aI2
aI13
aI-5
aa(lp159
V0020700436
p160
aVDEC 29, 2007
p161
aVORL vs. CHA
p162
aVW
p163
aI37
aI4
aI9
aF0.444
aI1
aI5
aF0.2
aI3
aI4
aF0.75
aI1
aI4
aI5
aI0
aI0
aI0
aI2
aI1
aI12
aI10
aa(lp164
V0020700450
p165
aVDEC 31, 2007
p166
aVORL @ CHI
p167
aVW
p168
aI40
aI4
aI7
aF0.571
aI4
aI7
aF0.571
aI2
aI2
aF1.0
aI1
aI3
aI4
aI0
aI0
aI0
aI0
aI5
aI14
aI-1
aa(lp169
V0020700459
p170
aVJAN 02, 2008
p171
aVORL vs. NJN
p172
aVL
p173
aI35
aI3
aI7
aF0.429
aI3
aI6
aF0.5
aI1
aI2
aF0.5
aI0
aI1
aI1
aI0
aI3
aI0
aI0
aI4
aI10
aI1
aa(lp174
V0020700473
p175
aVJAN 04, 2008
p176
aVORL vs. HOU
p177
aVL
p178
aI14
aI2
aI5
aF0.4
aI0
aI3
aF0.0
aI0
aI0
aF0.0
aI0
aI0
aI0
aI0
aI0
aI0
aI0
aI1
aI4
aI-1
aa(lp179
V0020700508
p180
aVJAN 08, 2008
p181
aVORL @ SAC
p182
aVL
p183
aI14
aI1
aI5
aF0.2
aI1
aI4
aF0.25
aI0
aI0
aF0.0
aI0
aI0
aI0
aI0
aI0
aI0
aI2
aI1
aI3
aI-8
aa(lp184
V0020700519
p185
aVJAN 09, 2008
p186
aVORL @ LAC
p187
aVW
p188
aI17
aI1
aI2
aF0.5
aI1
aI1
aF1.0
aI0
aI0
aF0.0
aI0
aI0
aI0
aI0
aI1
aI1
aI0
aI3
aI3
aI-3
aa(lp189
V0020700530
p190
aVJAN 11, 2008
p191
aVORL @ DEN
p192
aVL
p193
aI25
aI4
aI7
aF0.571
aI3
aI6
aF0.5
aI3
aI4
aF0.75
aI1
aI3
aI4
aI1
aI1
aI0
aI2
aI4
aI14
aI-8
aa(lp194
V0020700537
p195
aVJAN 12, 2008
p196
aVORL @ UTA
p197
aVL
p198
aI15
aI2
aI5
aF0.4
aI0
aI2
aF0.0
aI1
aI1
aF1.0
aI0
aI0
aI0
aI0
aI0
aI0
aI0
aI4
aI5
aI6
aa(lp199
V0020700555
p200
aVJAN 15, 2008
p201
aVORL vs. CHI
p202
aVW
p203
aI23
aI5
aI7
aF0.714
aI3
aI4
aF0.75
aI2
aI2
aF1.0
aI2
aI1
aI3
aI1
aI0
aI0
aI1
aI0
aI15
aI9
aa(lp204
V0020700563
p205
aVJAN 16, 2008
p206
aVORL @ CHA
p207
aVL
p208
aI25
aI3
aI6
aF0.5
aI1
aI3
aF0.333
aI0
aI0
aF0.0
aI0
aI2
aI2
aI1
aI0
aI1
aI1
aI3
aI7
aI0
aa(lp209
V0020700585
p210
aVJAN 19, 2008
p211
aVORL vs. POR
p212
aVW
p213
aI31
aI5
aI10
aF0.5
aI2
aI6
aF0.333
aI1
aI2
aF0.5
aI0
aI3
aI3
aI1
aI0
aI0
aI1
aI2
aI13
aI7
aa(lp214
V0020700605
p215
aVJAN 21, 2008
p216
aVORL vs. DET
p217
aVW
p218
aI34
aI2
aI4
aF0.5
aI2
aI2
aF1.0
aI2
aI2
aF1.0
aI0
aI8
aI8
aI2
aI0
aI0
aI0
aI0
aI8
aI11
aa(lp219
V0020700614
p220
aVJAN 23, 2008
p221
aVORL @ MEM
p222
aVW
p223
aI19
aI2
aI4
aF0.5
aI1
aI3
aF0.333
aI0
aI0
aF0.0
aI0
aI1
aI1
aI0
aI0
aI0
aI0
aI3
aI5
aI15
aa(lp224
V0020700630
p225
aVJAN 25, 2008
p226
aVORL @ DET
p227
aVL
p228
aI24
aI3
aI4
aF0.75
aI3
aI4
aF0.75
aI1
aI2
aF0.5
aI0
aI6
aI6
aI1
aI1
aI0
aI0
aI1
aI10
aI15
aa(lp229
V0020700644
p230
aVJAN 27, 2008
p231
aVORL vs. BOS
p232
aVW
p233
aI24
aI1
aI6
aF0.167
aI0
aI4
aF0.0
aI0
aI0
aF0.0
aI3
aI0
aI3
aI3
aI1
aI0
aI0
aI1
aI2
aI-3
aa(lp234
V0020700667
p235
aVJAN 30, 2008
p236
aVORL vs. MIA
p237
aVW
p238
aI26
aI2
aI7
aF0.286
aI1
aI5
aF0.2
aI2
aI2
aF1.0
aI0
aI2
aI2
aI2
aI0
aI0
aI2
aI2
aI7
aI8
aa(lp239
V0020700680
p240
aVFEB 01, 2008
p241
aVORL @ PHI
p242
aVW
p243
aI26
aI2
aI8
aF0.25
aI1
aI6
aF0.167
aI1
aI1
aF1.0
aI0
aI4
aI4
aI0
aI2
aI0
aI0
aI2
aI6
aI-1
aa(lp244
V0020700689
p245
aVFEB 02, 2008
p246
aVORL @ IND
p247
aVW
p248
aI26
aI4
aI8
aF0.5
aI4
aI6
aF0.667
aI4
aI4
aF1.0
aI0
aI4
aI4
aI3
aI1
aI0
aI2
aI2
aI16
aI-3
aa(lp249
V0020700699
p250
aVFEB 04, 2008
p251
aVORL vs. DAL
p252
aVL
p253
aI16
aI0
aI3
aF0.0
aI0
aI2
aF0.0
aI0
aI0
aF0.0
aI0
aI2
aI2
aI1
aI0
aI0
aI0
aI0
aI0
aI-5
aa(lp254
V0020700714
p255
aVFEB 06, 2008
p256
aVORL vs. NJN
p257
aVW
p258
aI24
aI0
aI5
aF0.0
aI0
aI5
aF0.0
aI0
aI0
aF0.0
aI0
aI5
aI5
aI2
aI1
aI0
aI1
aI3
aI0
aI12
aa(lp259
V0020700728
p260
aVFEB 08, 2008
p261
aVORL vs. LAL
p262
aVL
p263
aI25
aI4
aI8
aF0.5
aI3
aI6
aF0.5
aI0
aI0
aF0.0
aI0
aI3
aI3
aI0
aI1
aI1
aI1
aI1
aI11
aI0
aa(lp264
V0020700754
p265
aVFEB 11, 2008
p266
aVORL vs. CLE
p267
aVL
p268
aI21
aI2
aI6
aF0.333
aI1
aI4
aF0.25
aI2
aI2
aF1.0
aI1
aI4
aI5
aI1
aI1
aI0
aI0
aI4
aI7
aI-12
aa(lp269
V0020700767
p270
aVFEB 13, 2008
p271
aVORL vs. DEN
p272
aVW
p273
aI22
aI1
aI7
aF0.143
aI0
aI4
aF0.0
aI0
aI0
aF0.0
aI1
aI1
aI2
aI1
aI1
aI0
aI0
aI3
aI2
aI8
aa(lp274
V0020700782
p275
aVFEB 19, 2008
p276
aVORL @ DET
p277
aVW
p278
aI32
aI6
aI8
aF0.75
aI3
aI4
aF0.75
aI4
aI4
aF1.0
aI0
aI3
aI3
aI1
aI2
aI0
aI0
aI1
aI19
aI25
aa(lp279
V0020700790
p280
aVFEB 20, 2008
p281
aVORL @ TOR
p282
aVL
p283
aI28
aI3
aI12
aF0.25
aI2
aI7
aF0.286
aI3
aI3
aF1.0
aI2
aI3
aI5
aI0
aI0
aI0
aI1
aI0
aI11
aI-5
aa(lp284
V0020700804
p285
aVFEB 22, 2008
p286
aVORL vs. PHI
p287
aVW
p288
aI24
aI2
aI5
aF0.4
aI1
aI4
aF0.25
aI0
aI0
aF0.0
aI1
aI1
aI2
aI3
aI0
aI0
aI0
aI3
aI5
aI4
aa(lp289
V0020700825
p290
aVFEB 24, 2008
p291
aVORL vs. SAC
p292
aVW
p293
aI26
aI2
aI4
aF0.5
aI2
aI3
aF0.667
aI0
aI0
aF0.0
aI1
aI3
aI4
aI0
aI2
aI0
aI0
aI2
aI6
aI17
aa(lp294
V0020700837
p295
aVFEB 26, 2008
p296
aVORL @ NJN
p297
aVW
p298
aI24
aI1
aI6
aF0.167
aI0
aI2
aF0.0
aI1
aI2
aF0.5
aI0
aI4
aI4
aI0
aI3
aI0
aI1
aI3
aI3
aI11
aa(lp299
V0020700846
p300
aVFEB 27, 2008
p301
aVORL @ PHI
p302
aVL
p303
aI22
aI5
aI7
aF0.714
aI3
aI5
aF0.6
aI0
aI0
aF0.0
aI0
aI1
aI1
aI2
aI0
aI0
aI1
aI0
aI13
aI-1
aa(lp304
V0020700870
p305
aVMAR 01, 2008
p306
aVORL vs. NYK
p307
aVW
p308
aI24
aI1
aI6
aF0.167
aI0
aI3
aF0.0
aI4
aI6
aF0.667
aI1
aI4
aI5
aI0
aI1
aI0
aI0
aI1
aI6
aI26
aa(lp309
V0020700890
p310
aVMAR 04, 2008
p311
aVORL vs. TOR
p312
aVW
p313
aI25
aI2
aI3
aF0.667
aI2
aI3
aF0.667
aI0
aI0
aF0.0
aI0
aI0
aI0
aI1
aI1
aI0
aI0
aI1
aI6
aI13
aa(lp314
V0020700897
p315
aVMAR 05, 2008
p316
aVORL @ WAS
p317
aVW
p318
aI18
aI6
aI8
aF0.75
aI3
aI5
aF0.6
aI2
aI2
aF1.0
aI0
aI1
aI1
aI2
aI1
aI0
aI0
aI0
aI17
aI9
aa(lp319
V0020700927
p320
aVMAR 08, 2008
p321
aVORL vs. GSW
p322
aVL
p323
aI29
aI1
aI4
aF0.25
aI1
aI2
aF0.5
aI1
aI3
aF0.333
aI0
aI3
aI3
aI2
aI0
aI0
aI0
aI2
aI4
aI-7
aa(lp324
V0020700940
p325
aVMAR 10, 2008
p326
aVORL vs. ATL
p327
aVW
p328
aI31
aI7
aI8
aF0.875
aI3
aI4
aF0.75
aI2
aI3
aF0.667
aI0
aI1
aI1
aI1
aI1
aI0
aI0
aI2
aI19
aI4
aa(lp329
V0020700953
p330
aVMAR 12, 2008
p331
aVORL vs. LAC
p332
aVW
p333
aI19
aI1
aI5
aF0.2
aI0
aI4
aF0.0
aI1
aI2
aF0.5
aI0
aI1
aI1
aI0
aI0
aI0
aI0
aI3
aI3
aI12
aa(lp334
V0020700968
p335
aVMAR 14, 2008
p336
aVORL @ MIA
p337
aVW
p338
aI20
aI1
aI5
aF0.2
aI1
aI4
aF0.25
aI2
aI2
aF1.0
aI0
aI0
aI0
aI0
aI2
aI0
aI0
aI1
aI5
aI5
aa(lp339
V0020700978
p340
aVMAR 15, 2008
p341
aVORL vs. IND
p342
aVW
p343
aI31
aI4
aI6
aF0.667
aI3
aI3
aF1.0
aI0
aI0
aF0.0
aI0
aI4
aI4
aI4
aI1
aI0
aI1
aI2
aI11
aI2
aa(lp344
V0020700992
p345
aVMAR 17, 2008
p346
aVORL vs. CLE
p347
aVW
p348
aI24
aI2
aI8
aF0.25
aI2
aI6
aF0.333
aI0
aI0
aF0.0
aI0
aI1
aI1
aI2
aI1
aI0
aI0
aI0
aI6
aI11
aa(lp349
V0020701008
p350
aVMAR 19, 2008
p351
aVORL vs. WAS
p352
aVL
p353
aI24
aI5
aI10
aF0.5
aI4
aI7
aF0.571
aI0
aI0
aF0.0
aI0
aI0
aI0
aI1
aI0
aI1
aI0
aI0
aI14
aI2
aa(lp354
V0020701019
p355
aVMAR 21, 2008
p356
aVORL vs. PHI
p357
aVW
p358
aI22
aI3
aI8
aF0.375
aI3
aI5
aF0.6
aI2
aI2
aF1.0
aI2
aI2
aI4
aI2
aI0
aI0
aI0
aI2
aI11
aI11
aa(lp359
V0020701031
p360
aVMAR 22, 2008
p361
aVORL @ ATL
p362
aVL
p363
aI26
aI3
aI11
aF0.273
aI1
aI8
aF0.125
aI1
aI2
aF0.5
aI1
aI1
aI2
aI4
aI1
aI0
aI1
aI2
aI8
aI-3
aa(lp364
V0020701052
p365
aVMAR 25, 2008
p366
aVORL vs. SAS
p367
aVL
p368
aI25
aI1
aI3
aF0.333
aI1
aI2
aF0.5
aI1
aI5
aF0.2
aI0
aI3
aI3
aI2
aI1
aI0
aI0
aI4
aI4
aI1
aa(lp369
V0020701078
p370
aVMAR 28, 2008
p371
aVORL @ MIL
p372
aVW
p373
aI18
aI1
aI4
aF0.25
aI0
aI3
aF0.0
aI0
aI0
aF0.0
aI0
aI0
aI0
aI0
aI2
aI1
aI0
aI3
aI2
aI-2
aa(lp374
V0020701105
p375
aVAPR 01, 2008
p376
aVORL vs. NOH
p377
aVL
p378
aI27
aI4
aI10
aF0.4
aI3
aI8
aF0.375
aI0
aI0
aF0.0
aI0
aI3
aI3
aI0
aI0
aI0
aI0
aI0
aI11
aI6
aa(lp379
V0020701137
p380
aVAPR 05, 2008
p381
aVORL @ CLE
p382
aVW
p383
aI26
aI1
aI5
aF0.2
aI0
aI3
aF0.0
aI0
aI0
aF0.0
aI0
aI4
aI4
aI2
aI0
aI0
aI2
aI3
aI2
aI11
aa(lp384
V0020701145
p385
aVAPR 06, 2008
p386
aVORL @ NYK
p387
aVL
p388
aI19
aI1
aI5
aF0.2
aI1
aI4
aF0.25
aI1
aI2
aF0.5
aI0
aI3
aI3
aI1
aI0
aI0
aI1
aI0
aI4
aI4
aa(lp389
V0020701167
p390
aVAPR 09, 2008
p391
aVORL vs. CHI
p392
aVW
p393
aI19
aI2
aI4
aF0.5
aI0
aI2
aF0.0
aI1
aI2
aF0.5
aI0
aI3
aI3
aI3
aI1
aI0
aI1
aI1
aI5
aI9
aa(lp394
V0020701178
p395
aVAPR 11, 2008
p396
aVORL vs. MIN
p397
aVL
p398
aI20
aI1
aI4
aF0.25
aI1
aI3
aF0.333
aI0
aI0
aF0.0
aI0
aI6
aI6
aI3
aI1
aI0
aI0
aI1
aI3
aI9
aa(lp399
V0020701200
p400
aVAPR 13, 2008
p401
aVORL @ CHI
p402
aVW
p403
aI28
aI3
aI9
aF0.333
aI2
aI7
aF0.286
aI0
aI0
aF0.0
aI1
aI6
aI7
aI2
aI0
aI0
aI2
aI2
aI8
aI7
aa(lp404
V0020701211
p405
aVAPR 15, 2008
p406
aVORL @ ATL
p407
aVW
p408
aI11
aI1
aI3
aF0.333
aI1
aI3
aF0.333
aI0
aI0
aF0.0
aI0
aI1
aI1
aI0
aI1
aI0
aI0
aI1
aI3
aI2
aa(lp409
V0020701218
p410
aVAPR 16, 2008
p411
aVORL vs. WAS
p412
aVW
p413
aI28
aI4
aI9
aF0.444
aI2
aI5
aF0.4
aI0
aI0
aF0.0
aI2
aI0
aI2
aI4
aI0
aI0
aI1
aI1
aI10
aI20
aasS'name'
p414
VKeith Bogans
p415
sS'experience'
p416
I4
s.