(dp0
S'age'
p1
I27
sS'stats'
p2
(lp3
(lp4
V0020701229
p5
aVAPR 16, 2008
p6
aVPOR @ PHX
p7
aVL
p8
aI17
aI1
aI4
aF0.25
aI0
aI1
aF0.0
aI1
aI1
aF1.0
aI1
aI0
aI1
aI1
aI1
aI1
aI0
aI3
aI3
aI0
aa(lp9
V0020701215
p10
aVAPR 15, 2008
p11
aVPOR vs. MEM
p12
aVW
p13
aI25
aI6
aI8
aF0.75
aI6
aI7
aF0.857
aI2
aI2
aF1.0
aI1
aI3
aI4
aI0
aI1
aI0
aI0
aI5
aI20
aI6
aa(lp14
V0020701195
p15
aVAPR 12, 2008
p16
aVPOR vs. DAL
p17
aVW
p18
aI11
aI0
aI2
aF0.0
aI0
aI2
aF0.0
aI1
aI2
aF0.5
aI2
aI2
aI4
aI3
aI0
aI0
aI0
aI0
aI1
aI4
aa(lp19
V0020701186
p20
aVAPR 11, 2008
p21
aVPOR @ SAC
p22
aVL
p23
aI20
aI0
aI6
aF0.0
aI0
aI3
aF0.0
aI0
aI0
aF0.0
aI1
aI1
aI2
aI0
aI0
aI0
aI1
aI1
aI0
aI-13
aa(lp24
V0020701161
p25
aVAPR 08, 2008
p26
aVPOR vs. LAL
p27
aVW
p28
aI27
aI5
aI9
aF0.556
aI3
aI6
aF0.5
aI1
aI1
aF1.0
aI0
aI3
aI3
aI0
aI1
aI1
aI4
aI2
aI14
aI6
aa(lp29
V0020701147
p30
aVAPR 06, 2008
p31
aVPOR vs. SAS
p32
aVL
p33
aI21
aI0
aI3
aF0.0
aI0
aI1
aF0.0
aI0
aI0
aF0.0
aI1
aI0
aI1
aI0
aI1
aI0
aI1
aI1
aI0
aI-15
aa(lp34
V0020701125
p35
aVAPR 03, 2008
p36
aVPOR vs. HOU
p37
aVL
p38
aI15
aI0
aI4
aF0.0
aI0
aI3
aF0.0
aI0
aI0
aF0.0
aI1
aI3
aI4
aI0
aI0
aI0
aI0
aI0
aI0
aI-7
aa(lp39
V0020701122
p40
aVAPR 02, 2008
p41
aVPOR @ LAL
p42
aVL
p43
aI21
aI3
aI7
aF0.429
aI1
aI3
aF0.333
aI0
aI0
aF0.0
aI0
aI0
aI0
aI0
aI0
aI0
aI0
aI3
aI7
aI-9
aa(lp44
V0020701088
p45
aVMAR 29, 2008
p46
aVPOR vs. CHA
p47
aVL
p48
aI25
aI1
aI7
aF0.143
aI0
aI6
aF0.0
aI0
aI0
aF0.0
aI1
aI5
aI6
aI0
aI0
aI1
aI0
aI3
aI2
aI-4
aa(lp49
V0020701072
p50
aVMAR 27, 2008
p51
aVPOR @ GSW
p52
aVL
p53
aI23
aI4
aI9
aF0.444
aI1
aI2
aF0.5
aI1
aI1
aF1.0
aI2
aI3
aI5
aI0
aI1
aI0
aI0
aI1
aI10
aI-8
aa(lp54
V0020701057
p55
aVMAR 25, 2008
p56
aVPOR vs. WAS
p57
aVW
p58
aI26
aI3
aI9
aF0.333
aI3
aI9
aF0.333
aI0
aI0
aF0.0
aI0
aI2
aI2
aI3
aI0
aI0
aI0
aI0
aI9
aI6
aa(lp59
V0020701050
p60
aVMAR 24, 2008
p61
aVPOR @ SEA
p62
aVL
p63
aI14
aI1
aI1
aF1.0
aI0
aI0
aF0.0
aI0
aI0
aF0.0
aI0
aI2
aI2
aI0
aI1
aI0
aI0
aI2
aI2
aI-3
aa(lp64
V0020701039
p65
aVMAR 22, 2008
p66
aVPOR @ LAC
p67
aVW
p68
aI24
aI2
aI5
aF0.4
aI1
aI3
aF0.333
aI0
aI0
aF0.0
aI1
aI2
aI3
aI0
aI1
aI0
aI0
aI3
aI5
aI4
aa(lp69
V0020701026
p70
aVMAR 21, 2008
p71
aVPOR vs. LAC
p72
aVW
p73
aI13
aI0
aI3
aF0.0
aI0
aI3
aF0.0
aI0
aI0
aF0.0
aI1
aI1
aI2
aI0
aI0
aI0
aI0
aI2
aI0
aI-10
aa(lp74
V0020701005
p75
aVMAR 18, 2008
p76
aVPOR vs. PHX
p77
aVL
p78
aI23
aI2
aI5
aF0.4
aI2
aI4
aF0.5
aI3
aI3
aF1.0
aI1
aI1
aI2
aI0
aI1
aI0
aI0
aI2
aI9
aI-5
aa(lp79
V0020700982
p80
aVMAR 15, 2008
p81
aVPOR vs. MIN
p82
aVW
p83
aI26
aI5
aI7
aF0.714
aI3
aI5
aF0.6
aI0
aI1
aF0.0
aI1
aI1
aI2
aI0
aI0
aI0
aI0
aI1
aI13
aI5
aa(lp84
V0020700964
p85
aVMAR 13, 2008
p86
aVPOR @ SAC
p87
aVL
p88
aI16
aI1
aI2
aF0.5
aI1
aI2
aF0.5
aI0
aI0
aF0.0
aI0
aI0
aI0
aI0
aI1
aI0
aI0
aI0
aI3
aI-3
aa(lp89
V0020700948
p90
aVMAR 11, 2008
p91
aVPOR @ MIN
p92
aVW
p93
aI21
aI3
aI7
aF0.429
aI3
aI7
aF0.429
aI4
aI5
aF0.8
aI3
aI2
aI5
aI0
aI0
aI0
aI0
aI3
aI13
aI10
aa(lp94
V0020700941
p95
aVMAR 10, 2008
p96
aVPOR @ CLE
p97
aVL
p98
aI18
aI1
aI7
aF0.143
aI1
aI4
aF0.25
aI0
aI0
aF0.0
aI1
aI2
aI3
aI0
aI0
aI0
aI0
aI1
aI3
aI-2
aa(lp99
V0020700928
p100
aVMAR 08, 2008
p101
aVPOR @ NYK
p102
aVW
p103
aI17
aI2
aI4
aF0.5
aI2
aI4
aF0.5
aI1
aI2
aF0.5
aI0
aI3
aI3
aI1
aI1
aI0
aI1
aI1
aI7
aI-2
aa(lp104
V0020700919
p105
aVMAR 07, 2008
p106
aVPOR @ MIL
p107
aVW
p108
aI21
aI2
aI4
aF0.5
aI2
aI3
aF0.667
aI1
aI1
aF1.0
aI1
aI3
aI4
aI0
aI0
aI0
aI0
aI1
aI7
aI-8
aa(lp109
V0020700896
p110
aVMAR 04, 2008
p111
aVPOR vs. PHX
p112
aVL
p113
aI15
aI2
aI5
aF0.4
aI1
aI3
aF0.333
aI0
aI0
aF0.0
aI0
aI1
aI1
aI0
aI0
aI0
aI0
aI4
aI5
aI2
aa(lp114
V0020700884
p115
aVMAR 02, 2008
p116
aVPOR @ GSW
p117
aVL
p118
aI30
aI3
aI6
aF0.5
aI1
aI2
aF0.5
aI5
aI5
aF1.0
aI1
aI5
aI6
aI2
aI0
aI2
aI3
aI2
aI12
aI1
aa(lp119
V0020700868
p120
aVFEB 29, 2008
p121
aVPOR vs. LAL
p122
aVW
p123
aI18
aI3
aI4
aF0.75
aI2
aI2
aF1.0
aI0
aI0
aF0.0
aI0
aI1
aI1
aI0
aI0
aI0
aI0
aI2
aI8
aI0
aa(lp124
V0020700687
p125
aVFEB 01, 2008
p126
aVPOR vs. NYK
p127
aVW
p128
aI9
aI0
aI5
aF0.0
aI0
aI4
aF0.0
aI0
aI0
aF0.0
aI1
aI1
aI2
aI0
aI0
aI0
aI0
aI0
aI0
aI-13
aa(lp129
V0020700672
p130
aVJAN 30, 2008
p131
aVPOR vs. CLE
p132
aVL
p133
aI18
aI1
aI5
aF0.2
aI0
aI1
aF0.0
aI0
aI0
aF0.0
aI1
aI0
aI1
aI1
aI0
aI0
aI0
aI0
aI2
aI-6
aa(lp134
V0020700646
p135
aVJAN 27, 2008
p136
aVPOR vs. ATL
p137
aVW
p138
aI32
aI3
aI7
aF0.429
aI2
aI4
aF0.5
aI2
aI2
aF1.0
aI1
aI1
aI2
aI0
aI1
aI0
aI1
aI5
aI10
aI15
aa(lp139
V0020700636
p140
aVJAN 25, 2008
p141
aVPOR vs. HOU
p142
aVL
p143
aI30
aI1
aI5
aF0.2
aI0
aI3
aF0.0
aI2
aI2
aF1.0
aI1
aI3
aI4
aI2
aI2
aI0
aI0
aI2
aI4
aI-4
aa(lp144
V0020700615
p145
aVJAN 23, 2008
p146
aVPOR @ NOH
p147
aVL
p148
aI25
aI4
aI11
aF0.364
aI3
aI8
aF0.375
aI0
aI0
aF0.0
aI0
aI0
aI0
aI0
aI0
aI2
aI0
aI4
aI11
aI-13
aa(lp149
V0020700599
p150
aVJAN 21, 2008
p151
aVPOR @ ATL
p152
aVW
p153
aI29
aI4
aI7
aF0.571
aI2
aI4
aF0.5
aI0
aI0
aF0.0
aI1
aI3
aI4
aI1
aI1
aI0
aI0
aI3
aI10
aI14
aa(lp154
V0020700585
p155
aVJAN 19, 2008
p156
aVPOR @ ORL
p157
aVL
p158
aI22
aI3
aI7
aF0.429
aI3
aI5
aF0.6
aI0
aI0
aF0.0
aI0
aI1
aI1
aI0
aI1
aI0
aI0
aI0
aI9
aI7
aa(lp159
V0020700575
p160
aVJAN 18, 2008
p161
aVPOR @ MIA
p162
aVW
p163
aI25
aI4
aI7
aF0.571
aI3
aI6
aF0.5
aI0
aI1
aF0.0
aI0
aI3
aI3
aI0
aI2
aI0
aI0
aI0
aI11
aI15
aa(lp164
V0020700566
p165
aVJAN 16, 2008
p166
aVPOR @ BOS
p167
aVL
p168
aI25
aI1
aI2
aF0.5
aI1
aI2
aF0.5
aI1
aI1
aF1.0
aI0
aI4
aI4
aI0
aI0
aI1
aI0
aI3
aI4
aI-3
aa(lp169
V0020700549
p170
aVJAN 14, 2008
p171
aVPOR @ NJN
p172
aVW
p173
aI22
aI3
aI8
aF0.375
aI3
aI6
aF0.5
aI1
aI1
aF1.0
aI1
aI1
aI2
aI0
aI0
aI0
aI0
aI1
aI10
aI14
aa(lp174
V0020700541
p175
aVJAN 13, 2008
p176
aVPOR @ TOR
p177
aVL
p178
aI22
aI0
aI3
aF0.0
aI0
aI1
aF0.0
aI0
aI0
aF0.0
aI2
aI2
aI4
aI2
aI0
aI0
aI1
aI1
aI0
aI2
aa(lp179
V0020700518
p180
aVJAN 09, 2008
p181
aVPOR vs. GSW
p182
aVW
p183
aI24
aI5
aI8
aF0.625
aI3
aI5
aF0.6
aI3
aI3
aF1.0
aI1
aI2
aI3
aI3
aI0
aI0
aI0
aI0
aI16
aI-3
aa(lp184
V0020700489
p185
aVJAN 05, 2008
p186
aVPOR vs. UTA
p187
aVW
p188
aI22
aI2
aI4
aF0.5
aI1
aI2
aF0.5
aI1
aI2
aF0.5
aI0
aI0
aI0
aI0
aI0
aI0
aI1
aI1
aI6
aI4
aa(lp189
V0020700469
p190
aVJAN 03, 2008
p191
aVPOR @ CHI
p192
aVW
p193
aI31
aI1
aI4
aF0.25
aI1
aI4
aF0.25
aI5
aI5
aF1.0
aI2
aI3
aI5
aI1
aI1
aI2
aI1
aI3
aI8
aI2
aa(lp194
V0020700465
p195
aVJAN 02, 2008
p196
aVPOR @ MIN
p197
aVW
p198
aI24
aI5
aI7
aF0.714
aI3
aI5
aF0.6
aI5
aI5
aF1.0
aI0
aI4
aI4
aI0
aI0
aI0
aI0
aI3
aI18
aI3
aa(lp199
V0020700454
p200
aVDEC 31, 2007
p201
aVPOR @ UTA
p202
aVL
p203
aI25
aI3
aI5
aF0.6
aI2
aI2
aF1.0
aI7
aI9
aF0.778
aI0
aI1
aI1
aI1
aI1
aI1
aI0
aI3
aI15
aI-15
aa(lp204
V0020700444
p205
aVDEC 30, 2007
p206
aVPOR vs. PHI
p207
aVW
p208
aI24
aI3
aI6
aF0.5
aI1
aI2
aF0.5
aI5
aI6
aF0.833
aI1
aI2
aI3
aI1
aI0
aI0
aI0
aI0
aI12
aI22
aa(lp209
V0020700431
p210
aVDEC 28, 2007
p211
aVPOR vs. MIN
p212
aVW
p213
aI25
aI4
aI8
aF0.5
aI2
aI4
aF0.5
aI2
aI3
aF0.667
aI0
aI3
aI3
aI1
aI0
aI1
aI0
aI0
aI12
aI5
aa(lp214
V0020700407
p215
aVDEC 25, 2007
p216
aVPOR vs. SEA
p217
aVW
p218
aI27
aI3
aI8
aF0.375
aI2
aI3
aF0.667
aI1
aI1
aF1.0
aI1
aI5
aI6
aI2
aI1
aI0
aI0
aI1
aI9
aI8
aa(lp219
V0020700389
p220
aVDEC 21, 2007
p221
aVPOR vs. DEN
p222
aVW
p223
aI27
aI4
aI7
aF0.571
aI3
aI5
aF0.6
aI3
aI4
aF0.75
aI0
aI2
aI2
aI1
aI0
aI0
aI3
aI2
aI14
aI4
aa(lp224
V0020700376
p225
aVDEC 19, 2007
p226
aVPOR vs. TOR
p227
aVW
p228
aI24
aI1
aI4
aF0.25
aI0
aI3
aF0.0
aI4
aI4
aF1.0
aI0
aI3
aI3
aI3
aI0
aI0
aI0
aI0
aI6
aI6
aa(lp229
V0020700361
p230
aVDEC 17, 2007
p231
aVPOR vs. NOH
p232
aVW
p233
aI23
aI2
aI7
aF0.286
aI1
aI5
aF0.2
aI1
aI2
aF0.5
aI0
aI1
aI1
aI1
aI0
aI0
aI0
aI2
aI6
aI8
aa(lp234
V0020700352
p235
aVDEC 16, 2007
p236
aVPOR @ DEN
p237
aVW
p238
aI30
aI4
aI6
aF0.667
aI3
aI5
aF0.6
aI3
aI3
aF1.0
aI2
aI5
aI7
aI1
aI0
aI0
aI1
aI3
aI14
aI4
aa(lp239
V0020700337
p240
aVDEC 14, 2007
p241
aVPOR vs. UTA
p242
aVW
p243
aI29
aI3
aI5
aF0.6
aI1
aI2
aF0.5
aI7
aI7
aF1.0
aI0
aI4
aI4
aI0
aI0
aI1
aI1
aI2
aI14
aI13
aa(lp244
V0020700323
p245
aVDEC 12, 2007
p246
aVPOR vs. GSW
p247
aVW
p248
aI34
aI5
aI8
aF0.625
aI4
aI6
aF0.667
aI7
aI7
aF1.0
aI1
aI5
aI6
aI0
aI0
aI0
aI2
aI1
aI21
aI4
aa(lp249
V0020700312
p250
aVDEC 11, 2007
p251
aVPOR @ UTA
p252
aVW
p253
aI19
aI1
aI3
aF0.333
aI0
aI1
aF0.0
aI1
aI1
aF1.0
aI1
aI1
aI2
aI0
aI0
aI1
aI0
aI2
aI3
aI-3
aa(lp254
V0020700297
p255
aVDEC 09, 2007
p256
aVPOR vs. MIL
p257
aVW
p258
aI24
aI3
aI6
aF0.5
aI3
aI5
aF0.6
aI0
aI0
aF0.0
aI0
aI3
aI3
aI0
aI0
aI0
aI2
aI1
aI9
aI-7
aa(lp259
V0020700275
p260
aVDEC 06, 2007
p261
aVPOR vs. MIA
p262
aVW
p263
aI27
aI5
aI7
aF0.714
aI4
aI6
aF0.667
aI0
aI0
aF0.0
aI2
aI1
aI3
aI1
aI1
aI1
aI0
aI3
aI14
aI6
aa(lp264
V0020700252
p265
aVDEC 03, 2007
p266
aVPOR @ MEM
p267
aVW
p268
aI26
aI6
aI7
aF0.857
aI4
aI4
aF1.0
aI0
aI0
aF0.0
aI1
aI3
aI4
aI1
aI2
aI0
aI0
aI1
aI16
aI11
aa(lp269
V0020700243
p270
aVDEC 02, 2007
p271
aVPOR @ SAS
p272
aVL
p273
aI23
aI2
aI7
aF0.286
aI1
aI3
aF0.333
aI5
aI5
aF1.0
aI0
aI1
aI1
aI1
aI0
aI0
aI0
aI3
aI10
aI-7
aa(lp274
V0020700230
p275
aVNOV 30, 2007
p276
aVPOR @ DAL
p277
aVL
p278
aI3
aI0
aI3
aF0.0
aI0
aI0
aF0.0
aI0
aI0
aF0.0
aI2
aI0
aI2
aI0
aI0
aI0
aI1
aI0
aI0
aI-6
aa(lp279
V0020700032
p280
aVNOV 03, 2007
p281
aVPOR @ HOU
p282
aVL
p283
aI13
aI0
aI4
aF0.0
aI0
aI1
aF0.0
aI0
aI0
aF0.0
aI0
aI2
aI2
aI0
aI0
aI0
aI3
aI2
aI0
aI-7
aa(lp284
V0020700022
p285
aVNOV 02, 2007
p286
aVPOR @ NOH
p287
aVL
p288
aI16
aI6
aI7
aF0.857
aI2
aI3
aF0.667
aI0
aI0
aF0.0
aI0
aI0
aI0
aI0
aI1
aI0
aI0
aI1
aI14
aI4
aa(lp289
V0020700001
p290
aVOCT 30, 2007
p291
aVPOR @ SAS
p292
aVL
p293
aI7
aI1
aI1
aF1.0
aI0
aI0
aF0.0
aI0
aI0
aF0.0
aI1
aI2
aI3
aI0
aI0
aI0
aI1
aI0
aI2
aI-4
aasS'name'
p294
VJames Jones
p295
sS'experience'
p296
I4
s.