(dp0
S'age'
p1
I26
sS'stats'
p2
(lp3
(lp4
V0020701220
p5
aVAPR 16, 2008
p6
aVIND vs. NYK
p7
aVW
p8
aI8
aI1
aI2
aF0.5
aI0
aI0
aF0.0
aI0
aI0
aF0.0
aI1
aI3
aI4
aI2
aI0
aI1
aI2
aI1
aI2
aI-2
aa(lp9
V0020701205
p10
aVAPR 14, 2008
p11
aVIND @ WAS
p12
aVL
p13
aI27
aI1
aI4
aF0.25
aI1
aI3
aF0.333
aI1
aI2
aF0.5
aI0
aI4
aI4
aI1
aI1
aI0
aI1
aI3
aI4
aI-8
aa(lp14
V0020701190
p15
aVAPR 12, 2008
p16
aVIND vs. CHA
p17
aVL
p18
aI24
aI2
aI9
aF0.222
aI1
aI3
aF0.333
aI1
aI4
aF0.25
aI1
aI2
aI3
aI3
aI0
aI0
aI3
aI3
aI6
aI-1
aa(lp19
V0020701177
p20
aVAPR 11, 2008
p21
aVIND @ PHI
p22
aVW
p23
aI35
aI2
aI10
aF0.2
aI0
aI2
aF0.0
aI1
aI1
aF1.0
aI1
aI7
aI8
aI3
aI0
aI2
aI3
aI2
aI5
aI9
aa(lp24
V0020701154
p25
aVAPR 08, 2008
p26
aVIND vs. ATL
p27
aVW
p28
aI36
aI7
aI13
aF0.538
aI1
aI4
aF0.25
aI0
aI0
aF0.0
aI1
aI3
aI4
aI0
aI1
aI1
aI1
aI3
aI15
aI28
aa(lp29
V0020701146
p30
aVAPR 06, 2008
p31
aVIND vs. MIL
p32
aVW
p33
aI28
aI2
aI7
aF0.286
aI1
aI3
aF0.333
aI0
aI0
aF0.0
aI1
aI1
aI2
aI4
aI1
aI1
aI2
aI4
aI5
aI6
aa(lp34
V0020701132
p35
aVAPR 04, 2008
p36
aVIND @ MIL
p37
aVW
p38
aI20
aI3
aI7
aF0.429
aI1
aI2
aF0.5
aI4
aI4
aF1.0
aI2
aI1
aI3
aI1
aI0
aI0
aI2
aI3
aI11
aI-5
aa(lp39
V0020701100
p40
aVMAR 31, 2008
p41
aVIND vs. MIA
p42
aVW
p43
aI27
aI5
aI7
aF0.714
aI1
aI1
aF1.0
aI2
aI2
aF1.0
aI4
aI2
aI6
aI2
aI3
aI0
aI4
aI3
aI13
aI21
aa(lp44
V0020701075
p45
aVMAR 28, 2008
p46
aVIND vs. NJN
p47
aVW
p48
aI25
aI5
aI12
aF0.417
aI1
aI5
aF0.2
aI3
aI4
aF0.75
aI1
aI3
aI4
aI1
aI3
aI0
aI0
aI2
aI14
aI6
aa(lp49
V0020701064
p50
aVMAR 26, 2008
p51
aVIND @ NJN
p52
aVL
p53
aI20
aI4
aI9
aF0.444
aI2
aI3
aF0.667
aI2
aI4
aF0.5
aI1
aI2
aI3
aI4
aI1
aI1
aI0
aI1
aI12
aI1
aa(lp54
V0020701053
p55
aVMAR 25, 2008
p56
aVIND vs. NOH
p57
aVL
p58
aI13
aI1
aI4
aF0.25
aI0
aI1
aF0.0
aI0
aI0
aF0.0
aI0
aI0
aI0
aI1
aI0
aI1
aI0
aI1
aI2
aI14
aa(lp59
V0020701035
p60
aVMAR 22, 2008
p61
aVIND @ CHI
p62
aVW
p63
aI17
aI3
aI9
aF0.333
aI1
aI2
aF0.5
aI0
aI1
aF0.0
aI2
aI0
aI2
aI1
aI2
aI0
aI3
aI2
aI7
aI-6
aa(lp64
V0020701020
p65
aVMAR 21, 2008
p66
aVIND vs. MIN
p67
aVW
p68
aI15
aI2
aI5
aF0.4
aI0
aI2
aF0.0
aI2
aI4
aF0.5
aI1
aI2
aI3
aI1
aI1
aI0
aI1
aI0
aI6
aI11
aa(lp69
V0020701009
p70
aVMAR 19, 2008
p71
aVIND vs. CHA
p72
aVW
p73
aI30
aI5
aI11
aF0.455
aI0
aI2
aF0.0
aI3
aI4
aF0.75
aI3
aI1
aI4
aI2
aI3
aI0
aI1
aI1
aI13
aI0
aa(lp74
V0020700993
p75
aVMAR 17, 2008
p76
aVIND vs. NYK
p77
aVW
p78
aI22
aI3
aI11
aF0.273
aI0
aI1
aF0.0
aI0
aI0
aF0.0
aI1
aI5
aI6
aI1
aI1
aI0
aI2
aI2
aI6
aI4
aa(lp79
V0020700978
p80
aVMAR 15, 2008
p81
aVIND @ ORL
p82
aVL
p83
aI23
aI6
aI9
aF0.667
aI0
aI0
aF0.0
aI2
aI2
aF1.0
aI0
aI2
aI2
aI1
aI0
aI0
aI1
aI2
aI14
aI-12
aa(lp84
V0020700973
p85
aVMAR 14, 2008
p86
aVIND @ DAL
p87
aVL
p88
aI14
aI4
aI8
aF0.5
aI0
aI1
aF0.0
aI4
aI4
aF1.0
aI0
aI0
aI0
aI1
aI1
aI0
aI0
aI0
aI12
aI0
aa(lp89
V0020700947
p90
aVMAR 11, 2008
p91
aVIND vs. SEA
p92
aVW
p93
aI13
aI2
aI5
aF0.4
aI0
aI1
aF0.0
aI0
aI0
aF0.0
aI0
aI1
aI1
aI1
aI1
aI0
aI1
aI4
aI4
aI-7
aa(lp94
V0020700924
p95
aVMAR 08, 2008
p96
aVIND @ CLE
p97
aVL
p98
aI25
aI7
aI11
aF0.636
aI2
aI3
aF0.667
aI1
aI1
aF1.0
aI1
aI3
aI4
aI2
aI2
aI0
aI2
aI1
aI17
aI7
aa(lp99
V0020700910
p100
aVMAR 06, 2008
p101
aVIND @ SAS
p102
aVL
p103
aI14
aI2
aI4
aF0.5
aI0
aI1
aF0.0
aI1
aI2
aF0.5
aI0
aI1
aI1
aI1
aI2
aI0
aI4
aI0
aI5
aI-4
aa(lp104
V0020700905
p105
aVMAR 05, 2008
p106
aVIND @ HOU
p107
aVL
p108
aI17
aI2
aI8
aF0.25
aI0
aI1
aF0.0
aI0
aI0
aF0.0
aI0
aI1
aI1
aI0
aI1
aI0
aI0
aI1
aI4
aI-21
aa(lp109
V0020700881
p110
aVMAR 02, 2008
p111
aVIND vs. MIL
p112
aVW
p113
aI19
aI2
aI4
aF0.5
aI0
aI1
aF0.0
aI0
aI0
aF0.0
aI1
aI4
aI5
aI5
aI1
aI1
aI2
aI1
aI4
aI12
aa(lp114
V0020700858
p115
aVFEB 29, 2008
p116
aVIND @ TOR
p117
aVW
p118
aI37
aI4
aI13
aF0.308
aI0
aI3
aF0.0
aI4
aI4
aF1.0
aI3
aI4
aI7
aI2
aI1
aI0
aI1
aI3
aI12
aI8
aa(lp119
V0020700848
p120
aVFEB 27, 2008
p121
aVIND vs. CHI
p122
aVL
p123
aI24
aI3
aI10
aF0.3
aI0
aI0
aF0.0
aI1
aI2
aF0.5
aI3
aI4
aI7
aI2
aI2
aI1
aI1
aI2
aI7
aI-7
aa(lp124
V0020700831
p125
aVFEB 25, 2008
p126
aVIND vs. TOR
p127
aVL
p128
aI26
aI8
aI12
aF0.667
aI0
aI2
aF0.0
aI4
aI4
aF1.0
aI2
aI2
aI4
aI0
aI3
aI0
aI1
aI3
aI20
aI-4
aa(lp129
V0020700817
p130
aVFEB 23, 2008
p131
aVIND @ NJN
p132
aVL
p133
aI26
aI2
aI8
aF0.25
aI1
aI1
aF1.0
aI0
aI2
aF0.0
aI0
aI5
aI5
aI3
aI1
aI0
aI2
aI2
aI5
aI-1
aa(lp134
V0020700805
p135
aVFEB 22, 2008
p136
aVIND vs. NJN
p137
aVW
p138
aI16
aI1
aI4
aF0.25
aI0
aI0
aF0.0
aI0
aI0
aF0.0
aI1
aI1
aI2
aI3
aI1
aI0
aI1
aI0
aI2
aI5
aa(lp139
V0020700792
p140
aVFEB 20, 2008
p141
aVIND vs. CLE
p142
aVL
p143
aI19
aI3
aI7
aF0.429
aI1
aI2
aF0.5
aI2
aI2
aF1.0
aI2
aI3
aI5
aI0
aI0
aI0
aI4
aI0
aI9
aI-23
aa(lp144
V0020700770
p145
aVFEB 13, 2008
p146
aVIND @ DET
p147
aVL
p148
aI32
aI1
aI9
aF0.111
aI1
aI2
aF0.5
aI0
aI0
aF0.0
aI0
aI1
aI1
aI1
aI2
aI0
aI0
aI2
aI3
aI-5
aa(lp149
V0020700759
p150
aVFEB 12, 2008
p151
aVIND vs. BOS
p152
aVL
p153
aI28
aI4
aI9
aF0.444
aI0
aI1
aF0.0
aI2
aI4
aF0.5
aI1
aI3
aI4
aI2
aI0
aI1
aI3
aI2
aI10
aI-2
aa(lp154
V0020700737
p155
aVFEB 09, 2008
p156
aVIND vs. POR
p157
aVW
p158
aI22
aI3
aI8
aF0.375
aI0
aI1
aF0.0
aI2
aI2
aF1.0
aI1
aI1
aI2
aI2
aI1
aI0
aI1
aI2
aI8
aI2
aa(lp159
V0020700716
p160
aVFEB 06, 2008
p161
aVIND @ NYK
p162
aVW
p163
aI26
aI4
aI8
aF0.5
aI2
aI5
aF0.4
aI3
aI4
aF0.75
aI0
aI1
aI1
aI3
aI3
aI0
aI1
aI1
aI13
aI12
aa(lp164
V0020700709
p165
aVFEB 05, 2008
p166
aVIND vs. SAS
p167
aVL
p168
aI12
aI2
aI5
aF0.4
aI0
aI1
aF0.0
aI0
aI0
aF0.0
aI0
aI0
aI0
aI1
aI3
aI0
aI1
aI0
aI4
aI-3
aa(lp169
V0020700689
p170
aVFEB 02, 2008
p171
aVIND vs. ORL
p172
aVL
p173
aI18
aI3
aI6
aF0.5
aI0
aI1
aF0.0
aI0
aI0
aF0.0
aI0
aI3
aI3
aI2
aI0
aI0
aI1
aI0
aI6
aI10
aa(lp174
V0020700657
p175
aVJAN 29, 2008
p176
aVIND vs. DET
p177
aVL
p178
aI7
aI2
aI5
aF0.4
aI1
aI1
aF1.0
aI0
aI0
aF0.0
aI0
aI1
aI1
aI0
aI0
aI0
aI0
aI1
aI5
aI-3
aa(lp179
V0020700638
p180
aVJAN 26, 2008
p181
aVIND @ MIA
p182
aVL
p183
aI13
aI2
aI4
aF0.5
aI0
aI0
aF0.0
aI0
aI0
aF0.0
aI0
aI0
aI0
aI2
aI0
aI0
aI0
aI3
aI4
aI-6
aa(lp184
V0020700623
p185
aVJAN 24, 2008
p186
aVIND @ MIL
p187
aVL
p188
aI18
aI1
aI7
aF0.143
aI0
aI2
aF0.0
aI0
aI0
aF0.0
aI2
aI2
aI4
aI1
aI0
aI0
aI1
aI3
aI2
aI-13
aa(lp189
V0020700617
p190
aVJAN 23, 2008
p191
aVIND @ CHI
p192
aVL
p193
aI14
aI0
aI3
aF0.0
aI0
aI0
aF0.0
aI0
aI0
aF0.0
aI0
aI3
aI3
aI0
aI1
aI0
aI2
aI1
aI0
aI0
aa(lp194
V0020700598
p195
aVJAN 21, 2008
p196
aVIND @ PHI
p197
aVW
p198
aI15
aI1
aI5
aF0.2
aI0
aI0
aF0.0
aI0
aI0
aF0.0
aI0
aI1
aI1
aI0
aI1
aI0
aI2
aI1
aI2
aI-1
aa(lp199
V0020700565
p200
aVJAN 16, 2008
p201
aVIND vs. GSW
p202
aVW
p203
aI21
aI3
aI7
aF0.429
aI0
aI1
aF0.0
aI0
aI0
aF0.0
aI1
aI2
aI3
aI1
aI0
aI0
aI0
aI1
aI6
aI-5
aa(lp204
V0020700545
p205
aVJAN 13, 2008
p206
aVIND @ GSW
p207
aVL
p208
aI27
aI6
aI8
aF0.75
aI0
aI0
aF0.0
aI0
aI0
aF0.0
aI1
aI2
aI3
aI3
aI4
aI0
aI4
aI3
aI12
aI-9
aa(lp209
V0020700539
p210
aVJAN 12, 2008
p211
aVIND @ SAC
p212
aVW
p213
aI24
aI6
aI9
aF0.667
aI0
aI1
aF0.0
aI0
aI0
aF0.0
aI2
aI3
aI5
aI2
aI2
aI0
aI1
aI2
aI12
aI1
aa(lp214
V0020700517
p215
aVJAN 09, 2008
p216
aVIND @ PHX
p217
aVL
p218
aI16
aI2
aI6
aF0.333
aI0
aI1
aF0.0
aI0
aI0
aF0.0
aI0
aI1
aI1
aI1
aI3
aI0
aI0
aI0
aI4
aI-17
aa(lp219
V0020700507
p220
aVJAN 08, 2008
p221
aVIND @ UTA
p222
aVL
p223
aI18
aI3
aI8
aF0.375
aI1
aI3
aF0.333
aI0
aI0
aF0.0
aI0
aI1
aI1
aI1
aI2
aI0
aI2
aI1
aI7
aI11
aa(lp224
V0020700497
p225
aVJAN 06, 2008
p226
aVIND @ LAL
p227
aVL
p228
aI24
aI3
aI7
aF0.429
aI0
aI0
aF0.0
aI1
aI2
aF0.5
aI1
aI1
aI2
aI2
aI2
aI0
aI3
aI2
aI7
aI-14
aa(lp229
V0020700474
p230
aVJAN 04, 2008
p231
aVIND vs. ATL
p232
aVW
p233
aI30
aI4
aI10
aF0.4
aI0
aI2
aF0.0
aI4
aI6
aF0.667
aI0
aI2
aI2
aI4
aI3
aI0
aI1
aI3
aI12
aI11
aa(lp234
V0020700461
p235
aVJAN 02, 2008
p236
aVIND vs. MEM
p237
aVL
p238
aI17
aI1
aI6
aF0.167
aI0
aI1
aF0.0
aI0
aI0
aF0.0
aI0
aI0
aI0
aI3
aI1
aI0
aI4
aI0
aI2
aI0
aa(lp239
V0020700449
p240
aVDEC 31, 2007
p241
aVIND @ CHA
p242
aVL
p243
aI29
aI7
aI11
aF0.636
aI0
aI2
aF0.0
aI0
aI0
aF0.0
aI0
aI3
aI3
aI2
aI0
aI0
aI5
aI3
aI14
aI-14
aa(lp244
V0020700437
p245
aVDEC 29, 2007
p246
aVIND vs. DET
p247
aVL
p248
aI27
aI2
aI6
aF0.333
aI0
aI1
aF0.0
aI5
aI8
aF0.625
aI2
aI5
aI7
aI3
aI1
aI0
aI2
aI3
aI9
aI-5
aa(lp249
V0020700425
p250
aVDEC 28, 2007
p251
aVIND @ DET
p252
aVL
p253
aI13
aI0
aI3
aF0.0
aI0
aI0
aF0.0
aI2
aI4
aF0.5
aI1
aI1
aI2
aI2
aI1
aI0
aI3
aI4
aI2
aI-5
aa(lp254
V0020700391
p255
aVDEC 22, 2007
p256
aVIND vs. WAS
p257
aVW
p258
aI14
aI0
aI3
aF0.0
aI0
aI0
aF0.0
aI0
aI0
aF0.0
aI1
aI2
aI3
aI2
aI1
aI1
aI0
aI0
aI0
aI6
aa(lp259
V0020700387
p260
aVDEC 21, 2007
p261
aVIND @ MIN
p262
aVL
p263
aI21
aI2
aI7
aF0.286
aI0
aI2
aF0.0
aI3
aI4
aF0.75
aI1
aI2
aI3
aI1
aI2
aI0
aI2
aI4
aI7
aI1
aa(lp264
V0020700368
p265
aVDEC 19, 2007
p266
aVIND vs. PHI
p267
aVW
p268
aI33
aI11
aI17
aF0.647
aI3
aI4
aF0.75
aI1
aI2
aF0.5
aI1
aI2
aI3
aI3
aI1
aI1
aI4
aI3
aI26
aI18
aa(lp269
V0020700356
p270
aVDEC 17, 2007
p271
aVIND @ NYK
p272
aVW
p273
aI19
aI7
aI12
aF0.583
aI0
aI0
aF0.0
aI0
aI0
aF0.0
aI1
aI3
aI4
aI3
aI1
aI0
aI0
aI2
aI14
aI16
aa(lp274
V0020700343
p275
aVDEC 15, 2007
p276
aVIND @ MIA
p277
aVW
p278
aI20
aI1
aI5
aF0.2
aI0
aI2
aF0.0
aI4
aI6
aF0.667
aI1
aI2
aI3
aI2
aI0
aI0
aI1
aI1
aI6
aI-2
aa(lp279
V0020700329
p280
aVDEC 14, 2007
p281
aVIND vs. TOR
p282
aVL
p283
aI12
aI2
aI6
aF0.333
aI0
aI2
aF0.0
aI0
aI0
aF0.0
aI0
aI1
aI1
aI1
aI0
aI0
aI0
aI0
aI4
aI-11
aa(lp284
V0020700317
p285
aVDEC 12, 2007
p286
aVIND vs. CHI
p287
aVW
p288
aI34
aI8
aI10
aF0.8
aI1
aI2
aF0.5
aI1
aI2
aF0.5
aI1
aI6
aI7
aI3
aI0
aI1
aI0
aI1
aI18
aI14
aa(lp289
V0020700308
p290
aVDEC 11, 2007
p291
aVIND @ CLE
p292
aVL
p293
aI15
aI3
aI5
aF0.6
aI0
aI1
aF0.0
aI0
aI0
aF0.0
aI0
aI0
aI0
aI3
aI0
aI0
aI1
aI1
aI6
aI-3
aa(lp294
V0020700278
p295
aVDEC 07, 2007
p296
aVIND @ ORL
p297
aVW
p298
aI25
aI4
aI8
aF0.5
aI0
aI0
aF0.0
aI5
aI9
aF0.556
aI0
aI4
aI4
aI7
aI1
aI0
aI2
aI4
aI13
aI7
aa(lp299
V0020700258
p300
aVDEC 04, 2007
p301
aVIND vs. PHX
p302
aVL
p303
aI25
aI5
aI11
aF0.455
aI0
aI1
aF0.0
aI3
aI3
aF1.0
aI1
aI0
aI1
aI3
aI0
aI0
aI1
aI2
aI13
aI7
aa(lp304
V0020700244
p305
aVDEC 02, 2007
p306
aVIND @ LAC
p307
aVW
p308
aI13
aI1
aI5
aF0.2
aI0
aI0
aF0.0
aI0
aI0
aF0.0
aI1
aI1
aI2
aI3
aI0
aI0
aI2
aI0
aI2
aI-5
aa(lp309
V0020700219
p310
aVNOV 28, 2007
p311
aVIND @ POR
p312
aVW
p313
aI5
aI0
aI1
aF0.0
aI0
aI0
aF0.0
aI0
aI0
aF0.0
aI0
aI3
aI3
aI1
aI0
aI0
aI1
aI0
aI0
aI-3
aa(lp314
V0020700209
p315
aVNOV 27, 2007
p316
aVIND @ DEN
p317
aVW
p318
aI31
aI7
aI16
aF0.438
aI0
aI1
aF0.0
aI1
aI2
aF0.5
aI2
aI3
aI5
aI8
aI0
aI1
aI4
aI4
aI15
aI-9
aa(lp319
V0020700193
p320
aVNOV 25, 2007
p321
aVIND vs. CLE
p322
aVL
p323
aI24
aI9
aI12
aF0.75
aI0
aI0
aF0.0
aI7
aI8
aF0.875
aI2
aI1
aI3
aI1
aI0
aI0
aI0
aI0
aI25
aI12
aa(lp324
V0020700175
p325
aVNOV 23, 2007
p326
aVIND vs. DAL
p327
aVW
p328
aI18
aI1
aI5
aF0.2
aI0
aI0
aF0.0
aI3
aI4
aF0.75
aI0
aI3
aI3
aI1
aI1
aI0
aI0
aI1
aI5
aI0
aa(lp329
V0020700164
p330
aVNOV 21, 2007
p331
aVIND @ NOH
p332
aVW
p333
aI12
aI1
aI4
aF0.25
aI0
aI1
aF0.0
aI2
aI4
aF0.5
aI1
aI1
aI2
aI0
aI1
aI0
aI2
aI0
aI4
aI5
aa(lp334
V0020700152
p335
aVNOV 20, 2007
p336
aVIND vs. LAL
p337
aVL
p338
aI18
aI4
aI13
aF0.308
aI0
aI1
aF0.0
aI3
aI5
aF0.6
aI2
aI0
aI2
aI2
aI1
aI0
aI0
aI2
aI11
aI-12
aa(lp339
V0020700133
p340
aVNOV 17, 2007
p341
aVIND vs. UTA
p342
aVW
p343
aI15
aI7
aI8
aF0.875
aI1
aI1
aF1.0
aI2
aI2
aF1.0
aI0
aI1
aI1
aI1
aI0
aI1
aI3
aI0
aI17
aI2
aa(lp344
V0020700105
p345
aVNOV 14, 2007
p346
aVIND @ WAS
p347
aVL
p348
aI32
aI8
aI13
aF0.615
aI2
aI3
aF0.667
aI1
aI1
aF1.0
aI2
aI0
aI2
aI1
aI3
aI0
aI2
aI2
aI19
aI-4
aa(lp349
V0020700080
p350
aVNOV 10, 2007
p351
aVIND vs. DEN
p352
aVL
p353
aI10
aI1
aI4
aF0.25
aI0
aI0
aF0.0
aI0
aI0
aF0.0
aI0
aI1
aI1
aI1
aI0
aI0
aI1
aI2
aI2
aI-5
aa(lp354
V0020700057
p355
aVNOV 07, 2007
p356
aVIND vs. LAC
p357
aVL
p358
aI13
aI1
aI4
aF0.25
aI0
aI1
aF0.0
aI2
aI2
aF1.0
aI0
aI1
aI1
aI1
aI0
aI0
aI0
aI1
aI4
aI-9
aa(lp359
V0020700030
p360
aVNOV 03, 2007
p361
aVIND @ MEM
p362
aVW
p363
aI20
aI3
aI4
aF0.75
aI0
aI0
aF0.0
aI0
aI0
aF0.0
aI1
aI2
aI3
aI1
aI1
aI0
aI2
aI1
aI6
aI3
aa(lp364
V0020700017
p365
aVNOV 02, 2007
p366
aVIND vs. MIA
p367
aVW
p368
aI23
aI0
aI7
aF0.0
aI0
aI1
aF0.0
aI0
aI0
aF0.0
aI2
aI2
aI4
aI1
aI3
aI2
aI1
aI0
aI0
aI-6
aa(lp369
V0020700006
p370
aVOCT 31, 2007
p371
aVIND vs. WAS
p372
aVW
p373
aI20
aI3
aI8
aF0.375
aI1
aI3
aF0.333
aI2
aI2
aF1.0
aI1
aI1
aI2
aI1
aI0
aI1
aI1
aI2
aI9
aI8
aasS'name'
p374
VMarquis Daniels
p375
sS'experience'
p376
I4
s.