(dp0
S'age'
p1
I26
sS'stats'
p2
(lp3
(lp4
V0020700027
p5
aVNOV 02, 2007
p6
aVLAC vs. GSW
p7
aVW
p8
aI19
aI2
aI5
aF0.4
aI1
aI1
aF1.0
aI2
aI2
aF1.0
aI1
aI2
aI3
aI2
aI1
aI1
aI1
aI1
aI7
aI8
aa(lp9
V0020700036
p10
aVNOV 04, 2007
p11
aVLAC vs. SEA
p12
aVW
p13
aI17
aI1
aI4
aF0.25
aI0
aI1
aF0.0
aI2
aI3
aF0.667
aI1
aI2
aI3
aI1
aI0
aI0
aI0
aI2
aI4
aI2
aa(lp14
V0020700049
p15
aVNOV 06, 2007
p16
aVLAC @ CHI
p17
aVW
p18
aI1
aI0
aI0
aF0.0
aI0
aI0
aF0.0
aI0
aI0
aF0.0
aI0
aI0
aI0
aI0
aI0
aI0
aI0
aI0
aI0
aI-3
aa(lp19
V0020700057
p20
aVNOV 07, 2007
p21
aVLAC @ IND
p22
aVW
p23
aI28
aI1
aI4
aF0.25
aI0
aI0
aF0.0
aI3
aI4
aF0.75
aI1
aI3
aI4
aI1
aI1
aI0
aI2
aI2
aI5
aI-2
aa(lp24
V0020700072
p25
aVNOV 09, 2007
p26
aVLAC @ DET
p27
aVL
p28
aI25
aI1
aI2
aF0.5
aI0
aI0
aF0.0
aI0
aI0
aF0.0
aI1
aI2
aI3
aI0
aI0
aI0
aI1
aI2
aI2
aI-22
aa(lp29
V0020700092
p30
aVNOV 11, 2007
p31
aVLAC vs. CLE
p32
aVL
p33
aI32
aI1
aI6
aF0.167
aI0
aI1
aF0.0
aI4
aI4
aF1.0
aI2
aI2
aI4
aI0
aI0
aI0
aI1
aI3
aI6
aI-11
aa(lp34
V0020700115
p35
aVNOV 14, 2007
p36
aVLAC vs. NYK
p37
aVW
p38
aI24
aI1
aI3
aF0.333
aI0
aI0
aF0.0
aI0
aI0
aF0.0
aI3
aI0
aI3
aI2
aI0
aI1
aI0
aI2
aI2
aI7
aa(lp39
V0020700130
p40
aVNOV 16, 2007
p41
aVLAC @ GSW
p42
aVL
p43
aI15
aI2
aI6
aF0.333
aI0
aI0
aF0.0
aI0
aI0
aF0.0
aI0
aI2
aI2
aI0
aI0
aI0
aI0
aI0
aI4
aI-14
aa(lp44
V0020700140
p45
aVNOV 17, 2007
p46
aVLAC vs. CHI
p47
aVL
p48
aI11
aI0
aI1
aF0.0
aI0
aI0
aF0.0
aI0
aI0
aF0.0
aI1
aI0
aI1
aI1
aI0
aI0
aI0
aI1
aI0
aI-6
aa(lp49
V0020700169
p50
aVNOV 21, 2007
p51
aVLAC vs. DEN
p52
aVW
p53
aI36
aI7
aI11
aF0.636
aI3
aI4
aF0.75
aI0
aI0
aF0.0
aI0
aI4
aI4
aI2
aI1
aI0
aI1
aI4
aI17
aI17
aa(lp54
V0020700179
p55
aVNOV 23, 2007
p56
aVLAC @ PHX
p57
aVL
p58
aI33
aI3
aI13
aF0.231
aI1
aI2
aF0.5
aI0
aI0
aF0.0
aI1
aI5
aI6
aI0
aI1
aI0
aI0
aI3
aI7
aI-11
aa(lp59
V0020700191
p60
aVNOV 24, 2007
p61
aVLAC vs. NOH
p62
aVL
p63
aI36
aI2
aI5
aF0.4
aI0
aI1
aF0.0
aI2
aI4
aF0.5
aI3
aI3
aI6
aI1
aI0
aI2
aI0
aI3
aI6
aI-5
aa(lp64
V0020700202
p65
aVNOV 26, 2007
p66
aVLAC vs. HOU
p67
aVL
p68
aI16
aI0
aI2
aF0.0
aI0
aI0
aF0.0
aI0
aI0
aF0.0
aI0
aI1
aI1
aI2
aI1
aI0
aI0
aI1
aI0
aI-6
aa(lp69
V0020700233
p70
aVNOV 30, 2007
p71
aVLAC @ DEN
p72
aVL
p73
aI18
aI3
aI4
aF0.75
aI0
aI0
aF0.0
aI2
aI2
aF1.0
aI0
aI0
aI0
aI1
aI0
aI0
aI0
aI2
aI8
aI-10
aa(lp74
V0020700244
p75
aVDEC 02, 2007
p76
aVLAC vs. IND
p77
aVL
p78
aI13
aI0
aI3
aF0.0
aI0
aI0
aF0.0
aI0
aI0
aF0.0
aI1
aI0
aI1
aI1
aI0
aI1
aI0
aI2
aI0
aI4
aa(lp79
V0020700261
p80
aVDEC 04, 2007
p81
aVLAC vs. MIL
p82
aVL
p83
aI31
aI2
aI6
aF0.333
aI0
aI0
aF0.0
aI0
aI0
aF0.0
aI0
aI1
aI1
aI1
aI1
aI1
aI0
aI4
aI4
aI-9
aa(lp84
V0020700272
p85
aVDEC 05, 2007
p86
aVLAC @ SEA
p87
aVL
p88
aI22
aI2
aI4
aF0.5
aI0
aI0
aF0.0
aI4
aI4
aF1.0
aI0
aI1
aI1
aI1
aI1
aI3
aI0
aI3
aI8
aI-10
aa(lp89
V0020700284
p90
aVDEC 07, 2007
p91
aVLAC @ SAC
p92
aVW
p93
aI20
aI2
aI5
aF0.4
aI0
aI0
aF0.0
aI0
aI0
aF0.0
aI1
aI5
aI6
aI0
aI0
aI1
aI2
aI3
aI4
aI5
aa(lp94
V0020700295
p95
aVDEC 09, 2007
p96
aVLAC vs. MIA
p97
aVL
p98
aI23
aI3
aI6
aF0.5
aI1
aI3
aF0.333
aI0
aI0
aF0.0
aI0
aI2
aI2
aI2
aI0
aI0
aI1
aI3
aI7
aI-15
aa(lp99
V0020700309
p100
aVDEC 11, 2007
p101
aVLAC @ NJN
p102
aVW
p103
aI16
aI3
aI4
aF0.75
aI0
aI0
aF0.0
aI0
aI0
aF0.0
aI1
aI2
aI3
aI1
aI0
aI0
aI2
aI2
aI6
aI-7
aa(lp104
V0020700333
p105
aVDEC 14, 2007
p106
aVLAC @ MEM
p107
aVW
p108
aI14
aI3
aI5
aF0.6
aI0
aI0
aF0.0
aI2
aI2
aF1.0
aI0
aI1
aI1
aI1
aI1
aI1
aI0
aI2
aI8
aI8
aa(lp109
V0020700353
p110
aVDEC 16, 2007
p111
aVLAC @ LAL
p112
aVL
p113
aI19
aI1
aI4
aF0.25
aI0
aI0
aF0.0
aI0
aI0
aF0.0
aI2
aI1
aI3
aI1
aI0
aI0
aI0
aI2
aI2
aI-8
aa(lp114
V0020700364
p115
aVDEC 18, 2007
p116
aVLAC vs. TOR
p117
aVL
p118
aI16
aI2
aI4
aF0.5
aI0
aI0
aF0.0
aI1
aI1
aF1.0
aI0
aI3
aI3
aI1
aI0
aI1
aI0
aI0
aI5
aI5
aa(lp119
V0020700388
p120
aVDEC 21, 2007
p121
aVLAC @ DAL
p122
aVL
p123
aI19
aI2
aI6
aF0.333
aI0
aI1
aF0.0
aI0
aI1
aF0.0
aI1
aI0
aI1
aI2
aI0
aI2
aI0
aI0
aI4
aI-3
aa(lp124
V0020700398
p125
aVDEC 22, 2007
p126
aVLAC @ SAS
p127
aVL
p128
aI19
aI2
aI3
aF0.667
aI0
aI0
aF0.0
aI0
aI0
aF0.0
aI1
aI1
aI2
aI1
aI1
aI0
aI0
aI3
aI4
aI8
aa(lp129
V0020700420
p130
aVDEC 27, 2007
p131
aVLAC vs. PHX
p132
aVL
p133
aI16
aI4
aI4
aF1.0
aI0
aI0
aF0.0
aI0
aI2
aF0.0
aI0
aI4
aI4
aI4
aI2
aI0
aI0
aI2
aI8
aI9
aa(lp134
V0020700429
p135
aVDEC 28, 2007
p136
aVLAC @ PHX
p137
aVL
p138
aI32
aI1
aI5
aF0.2
aI0
aI0
aF0.0
aI0
aI0
aF0.0
aI1
aI1
aI2
aI0
aI0
aI0
aI0
aI1
aI2
aI-2
aa(lp139
V0020700455
p140
aVDEC 31, 2007
p141
aVLAC vs. MIN
p142
aVW
p143
aI26
aI3
aI6
aF0.5
aI0
aI0
aF0.0
aI0
aI0
aF0.0
aI2
aI4
aI6
aI3
aI0
aI0
aI1
aI0
aI6
aI-4
aa(lp144
V0020700468
p145
aVJAN 02, 2008
p146
aVLAC vs. NOH
p147
aVL
p148
aI20
aI3
aI6
aF0.5
aI0
aI0
aF0.0
aI0
aI0
aF0.0
aI1
aI3
aI4
aI1
aI0
aI1
aI0
aI1
aI6
aI-14
aa(lp149
V0020700493
p150
aVJAN 06, 2008
p151
aVLAC vs. SAS
p152
aVL
p153
aI24
aI2
aI7
aF0.286
aI0
aI0
aF0.0
aI0
aI0
aF0.0
aI1
aI1
aI2
aI2
aI0
aI1
aI0
aI2
aI4
aI-6
aa(lp154
V0020700519
p155
aVJAN 09, 2008
p156
aVLAC vs. ORL
p157
aVL
p158
aI12
aI0
aI2
aF0.0
aI0
aI0
aF0.0
aI0
aI0
aF0.0
aI1
aI0
aI1
aI0
aI0
aI0
aI0
aI0
aI0
aI-16
aa(lp159
V0020700540
p160
aVJAN 12, 2008
p161
aVLAC vs. DAL
p162
aVL
p163
aI2
aI0
aI0
aF0.0
aI0
aI0
aF0.0
aI0
aI0
aF0.0
aI0
aI0
aI0
aI0
aI0
aI0
aI1
aI1
aI0
aI-1
aa(lp164
V0020700561
p165
aVJAN 15, 2008
p166
aVLAC vs. PHX
p167
aVW
p168
aI23
aI0
aI4
aF0.0
aI0
aI0
aF0.0
aI0
aI0
aF0.0
aI0
aI3
aI3
aI2
aI0
aI1
aI0
aI2
aI0
aI4
aa(lp169
V0020700580
p170
aVJAN 18, 2008
p171
aVLAC @ UTA
p172
aVL
p173
aI11
aI0
aI1
aF0.0
aI0
aI0
aF0.0
aI0
aI0
aF0.0
aI0
aI1
aI1
aI1
aI1
aI1
aI0
aI1
aI0
aI-5
aa(lp174
V0020700593
p175
aVJAN 19, 2008
p176
aVLAC vs. NJN
p177
aVW
p178
aI17
aI0
aI3
aF0.0
aI0
aI0
aF0.0
aI0
aI0
aF0.0
aI0
aI2
aI2
aI0
aI1
aI0
aI1
aI3
aI0
aI2
aa(lp179
V0020700602
p180
aVJAN 21, 2008
p181
aVLAC vs. UTA
p182
aVL
p183
aI17
aI0
aI3
aF0.0
aI0
aI0
aF0.0
aI0
aI0
aF0.0
aI0
aI1
aI1
aI1
aI0
aI1
aI0
aI3
aI0
aI-7
aa(lp184
V0020700621
p185
aVJAN 23, 2008
p186
aVLAC vs. SAC
p187
aVW
p188
aI20
aI0
aI5
aF0.0
aI0
aI0
aF0.0
aI0
aI0
aF0.0
aI1
aI1
aI2
aI3
aI2
aI0
aI0
aI2
aI0
aI8
aa(lp189
V0020700631
p190
aVJAN 25, 2008
p191
aVLAC @ NOH
p192
aVL
p193
aI14
aI1
aI3
aF0.333
aI0
aI0
aF0.0
aI0
aI0
aF0.0
aI0
aI1
aI1
aI1
aI1
aI0
aI0
aI2
aI2
aI-5
aa(lp194
V0020700640
p195
aVJAN 26, 2008
p196
aVLAC @ MEM
p197
aVL
p198
aI19
aI1
aI2
aF0.5
aI0
aI0
aF0.0
aI2
aI4
aF0.5
aI2
aI1
aI3
aI1
aI1
aI1
aI0
aI3
aI4
aI5
aa(lp199
V0020700655
p200
aVJAN 28, 2008
p201
aVLAC vs. CHA
p202
aVL
p203
aI26
aI6
aI9
aF0.667
aI0
aI0
aF0.0
aI3
aI3
aF1.0
aI2
aI0
aI2
aI4
aI1
aI0
aI1
aI2
aI15
aI11
aa(lp204
V0020700674
p205
aVJAN 30, 2008
p206
aVLAC vs. ATL
p207
aVW
p208
aI27
aI4
aI8
aF0.5
aI0
aI0
aF0.0
aI4
aI4
aF1.0
aI3
aI2
aI5
aI0
aI0
aI1
aI0
aI0
aI12
aI0
aa(lp209
V0020700684
p210
aVFEB 01, 2008
p211
aVLAC @ MIN
p212
aVL
p213
aI24
aI1
aI7
aF0.143
aI0
aI1
aF0.0
aI1
aI2
aF0.5
aI0
aI4
aI4
aI0
aI3
aI0
aI1
aI0
aI3
aI-11
aa(lp214
V0020700690
p215
aVFEB 02, 2008
p216
aVLAC @ CLE
p217
aVL
p218
aI28
aI3
aI7
aF0.429
aI0
aI0
aF0.0
aI0
aI0
aF0.0
aI2
aI3
aI5
aI2
aI1
aI0
aI1
aI2
aI6
aI-16
aa(lp219
V0020700700
p220
aVFEB 04, 2008
p221
aVLAC @ NYK
p222
aVW
p223
aI24
aI4
aI7
aF0.571
aI0
aI0
aF0.0
aI0
aI0
aF0.0
aI0
aI1
aI1
aI3
aI2
aI0
aI1
aI2
aI8
aI9
aa(lp224
V0020700715
p225
aVFEB 06, 2008
p226
aVLAC @ BOS
p227
aVL
p228
aI33
aI3
aI7
aF0.429
aI1
aI1
aF1.0
aI3
aI5
aF0.6
aI0
aI2
aI2
aI2
aI2
aI1
aI0
aI3
aI10
aI-5
aa(lp229
V0020700726
p230
aVFEB 08, 2008
p231
aVLAC @ TOR
p232
aVW
p233
aI6
aI1
aI1
aF1.0
aI0
aI0
aF0.0
aI0
aI0
aF0.0
aI0
aI0
aI0
aI0
aI0
aI0
aI0
aI2
aI2
aI-1
aa(lp234
V0020700738
p235
aVFEB 09, 2008
p236
aVLAC @ PHI
p237
aVL
p238
aI16
aI1
aI5
aF0.2
aI0
aI0
aF0.0
aI1
aI2
aF0.5
aI0
aI0
aI0
aI1
aI1
aI0
aI1
aI3
aI3
aI-10
aa(lp239
V0020700755
p240
aVFEB 11, 2008
p241
aVLAC @ MIL
p242
aVW
p243
aI31
aI1
aI5
aF0.2
aI0
aI0
aF0.0
aI0
aI0
aF0.0
aI0
aI1
aI1
aI1
aI2
aI1
aI0
aI3
aI2
aI11
aa(lp244
V0020700777
p245
aVFEB 13, 2008
p246
aVLAC vs. WAS
p247
aVL
p248
aI1
aI0
aI0
aF0.0
aI0
aI0
aF0.0
aI0
aI0
aF0.0
aI0
aI0
aI0
aI0
aI0
aI0
aI0
aI0
aI0
aI-2
aa(lp249
V0020700798
p250
aVFEB 20, 2008
p251
aVLAC vs. MEM
p252
aVW
p253
aI22
aI3
aI7
aF0.429
aI0
aI0
aF0.0
aI0
aI0
aF0.0
aI1
aI2
aI3
aI3
aI0
aI0
aI2
aI2
aI6
aI-18
aa(lp254
V0020700813
p255
aVFEB 22, 2008
p256
aVLAC vs. UTA
p257
aVW
p258
aI12
aI1
aI3
aF0.333
aI0
aI0
aF0.0
aI0
aI0
aF0.0
aI0
aI0
aI0
aI0
aI0
aI0
aI0
aI1
aI2
aI-14
aa(lp259
V0020700822
p260
aVFEB 23, 2008
p261
aVLAC vs. LAL
p262
aVL
p263
aI17
aI4
aI6
aF0.667
aI0
aI0
aF0.0
aI0
aI0
aF0.0
aI3
aI4
aI7
aI1
aI0
aI0
aI1
aI1
aI8
aI4
aa(lp264
V0020700836
p265
aVFEB 25, 2008
p266
aVLAC vs. BOS
p267
aVL
p268
aI24
aI1
aI3
aF0.333
aI0
aI0
aF0.0
aI2
aI4
aF0.5
aI1
aI2
aI3
aI5
aI2
aI0
aI0
aI2
aI4
aI-13
aa(lp269
V0020700854
p270
aVFEB 27, 2008
p271
aVLAC vs. POR
p272
aVL
p273
aI16
aI3
aI7
aF0.429
aI0
aI1
aF0.0
aI0
aI0
aF0.0
aI0
aI1
aI1
aI1
aI1
aI1
aI0
aI3
aI6
aI-3
aa(lp274
V0020700866
p275
aVFEB 29, 2008
p276
aVLAC @ DEN
p277
aVL
p278
aI11
aI0
aI3
aF0.0
aI0
aI0
aF0.0
aI0
aI0
aF0.0
aI1
aI0
aI1
aI0
aI0
aI1
aI0
aI1
aI0
aI10
aa(lp279
V0020700874
p280
aVMAR 01, 2008
p281
aVLAC vs. DET
p282
aVL
p283
aI14
aI0
aI1
aF0.0
aI0
aI0
aF0.0
aI0
aI0
aF0.0
aI0
aI3
aI3
aI0
aI1
aI0
aI0
aI1
aI0
aI-19
aa(lp284
V0020700888
p285
aVMAR 03, 2008
p286
aVLAC vs. PHI
p287
aVL
p288
aI32
aI2
aI9
aF0.222
aI0
aI2
aF0.0
aI0
aI0
aF0.0
aI0
aI4
aI4
aI1
aI2
aI0
aI0
aI0
aI4
aI-15
aa(lp289
V0020700908
p290
aVMAR 05, 2008
p291
aVLAC vs. SAC
p292
aVW
p293
aI6
aI0
aI1
aF0.0
aI0
aI0
aF0.0
aI0
aI0
aF0.0
aI0
aI0
aI0
aI0
aI0
aI0
aI0
aI0
aI0
aI-7
aa(lp294
V0020700923
p295
aVMAR 07, 2008
p296
aVLAC @ LAL
p297
aVL
p298
aI20
aI1
aI5
aF0.2
aI0
aI0
aF0.0
aI0
aI0
aF0.0
aI0
aI0
aI0
aI0
aI0
aI0
aI1
aI2
aI2
aI-23
aa(lp299
V0020700933
p300
aVMAR 08, 2008
p301
aVLAC vs. MIN
p302
aVL
p303
aI3
aI2
aI2
aF1.0
aI0
aI0
aF0.0
aI0
aI0
aF0.0
aI0
aI1
aI1
aI0
aI0
aI0
aI0
aI2
aI4
aI-3
aa(lp304
V0020700942
p305
aVMAR 10, 2008
p306
aVLAC @ MIA
p307
aVW
p308
aI21
aI0
aI4
aF0.0
aI0
aI0
aF0.0
aI0
aI0
aF0.0
aI1
aI0
aI1
aI3
aI2
aI0
aI0
aI0
aI0
aI3
aa(lp309
V0020700953
p310
aVMAR 12, 2008
p311
aVLAC @ ORL
p312
aVL
p313
aI11
aI1
aI1
aF1.0
aI0
aI0
aF0.0
aI0
aI0
aF0.0
aI0
aI0
aI0
aI0
aI0
aI0
aI0
aI1
aI2
aI-7
aa(lp314
V0020700967
p315
aVMAR 14, 2008
p316
aVLAC @ ATL
p317
aVL
p318
aI22
aI1
aI4
aF0.25
aI0
aI0
aF0.0
aI0
aI0
aF0.0
aI0
aI3
aI3
aI2
aI0
aI1
aI0
aI2
aI2
aI-3
aa(lp319
V0020700977
p320
aVMAR 15, 2008
p321
aVLAC @ WAS
p322
aVL
p323
aI30
aI2
aI4
aF0.5
aI0
aI0
aF0.0
aI0
aI0
aF0.0
aI0
aI1
aI1
aI5
aI2
aI1
aI1
aI5
aI4
aI-26
aa(lp324
V0020700996
p325
aVMAR 17, 2008
p326
aVLAC @ MIN
p327
aVL
p328
aI12
aI1
aI3
aF0.333
aI0
aI0
aF0.0
aI0
aI0
aF0.0
aI1
aI1
aI2
aI0
aI0
aI0
aI0
aI1
aI2
aI-4
aa(lp329
V0020701015
p330
aVMAR 19, 2008
p331
aVLAC vs. GSW
p332
aVL
p333
aI23
aI3
aI4
aF0.75
aI0
aI0
aF0.0
aI0
aI2
aF0.0
aI1
aI2
aI3
aI2
aI1
aI1
aI0
aI2
aI6
aI-2
aa(lp334
V0020701026
p335
aVMAR 21, 2008
p336
aVLAC @ POR
p337
aVL
p338
aI41
aI6
aI8
aF0.75
aI0
aI0
aF0.0
aI0
aI0
aF0.0
aI1
aI2
aI3
aI0
aI1
aI0
aI0
aI5
aI12
aI-17
aa(lp339
V0020701039
p340
aVMAR 22, 2008
p341
aVLAC vs. POR
p342
aVL
p343
aI19
aI3
aI5
aF0.6
aI0
aI0
aF0.0
aI0
aI0
aF0.0
aI0
aI1
aI1
aI0
aI0
aI0
aI1
aI1
aI6
aI-16
aa(lp344
V0020701104
p345
aVMAR 31, 2008
p346
aVLAC vs. DAL
p347
aVL
p348
aI23
aI0
aI1
aF0.0
aI0
aI0
aF0.0
aI0
aI0
aF0.0
aI0
aI1
aI1
aI2
aI0
aI2
aI0
aI3
aI0
aI-4
aa(lp349
V0020701121
p350
aVAPR 02, 2008
p351
aVLAC @ SEA
p352
aVW
p353
aI31
aI2
aI8
aF0.25
aI0
aI0
aF0.0
aI1
aI2
aF0.5
aI2
aI3
aI5
aI1
aI0
aI0
aI0
aI0
aI5
aI5
aa(lp354
V0020701124
p355
aVAPR 03, 2008
p356
aVLAC @ SAC
p357
aVL
p358
aI29
aI2
aI7
aF0.286
aI0
aI0
aF0.0
aI0
aI0
aF0.0
aI4
aI2
aI6
aI4
aI1
aI2
aI2
aI2
aI4
aI-15
aa(lp359
V0020701152
p360
aVAPR 06, 2008
p361
aVLAC vs. HOU
p362
aVL
p363
aI16
aI0
aI4
aF0.0
aI0
aI0
aF0.0
aI0
aI0
aF0.0
aI0
aI1
aI1
aI0
aI0
aI0
aI1
aI0
aI0
aI-11
aa(lp364
V0020701162
p365
aVAPR 08, 2008
p366
aVLAC vs. DEN
p367
aVL
p368
aI24
aI4
aI6
aF0.667
aI1
aI1
aF1.0
aI1
aI2
aF0.5
aI0
aI2
aI2
aI1
aI1
aI1
aI1
aI2
aI10
aI-1
aa(lp369
V0020701175
p370
aVAPR 10, 2008
p371
aVLAC vs. LAL
p372
aVL
p373
aI16
aI2
aI2
aF1.0
aI0
aI0
aF0.0
aI0
aI1
aF0.0
aI1
aI1
aI2
aI0
aI0
aI0
aI0
aI2
aI4
aI0
aa(lp374
V0020701214
p375
aVAPR 15, 2008
p376
aVLAC @ NOH
p377
aVL
p378
aI9
aI2
aI3
aF0.667
aI1
aI1
aF1.0
aI0
aI0
aF0.0
aI0
aI2
aI2
aI0
aI0
aI0
aI0
aI0
aI5
aI2
aa(lp379
V0020701226
p380
aVAPR 16, 2008
p381
aVLAC @ HOU
p382
aVL
p383
aI8
aI0
aI1
aF0.0
aI0
aI0
aF0.0
aI0
aI0
aF0.0
aI0
aI0
aI0
aI0
aI0
aI0
aI0
aI1
aI0
aI-5
aasS'name'
p384
VQuinton Ross
p385
sS'experience'
p386
I3
s.