(dp0
S'stats'
p1
(lp2
(lp3
V0020700008
p4
aVOCT 31, 2007
p5
aVDAL @ CLE
p6
aVW
p7
aI31
aI5
aI9
aF0.556
aI1
aI2
aF0.5
aI2
aI3
aF0.667
aI0
aI2
aI2
aI5
aI3
aI0
aI6
aI2
aI13
aI10
aa(lp8
V0020700019
p9
aVNOV 02, 2007
p10
aVDAL @ ATL
p11
aVL
p12
aI14
aI5
aI8
aF0.625
aI0
aI1
aF0.0
aI1
aI4
aF0.25
aI0
aI3
aI3
aI0
aI0
aI0
aI2
aI0
aI11
aI-4
aa(lp13
V0020700065
p14
aVNOV 08, 2007
p15
aVDAL @ GSW
p16
aVW
p17
aI35
aI6
aI12
aF0.5
aI1
aI2
aF0.5
aI8
aI8
aF1.0
aI0
aI5
aI5
aI7
aI1
aI0
aI4
aI5
aI21
aI12
aa(lp18
V0020700100
p19
aVNOV 13, 2007
p20
aVDAL vs. PHI
p21
aVW
p22
aI29
aI2
aI9
aF0.222
aI0
aI3
aF0.0
aI3
aI4
aF0.75
aI1
aI5
aI6
aI7
aI1
aI0
aI2
aI2
aI7
aI22
aa(lp23
V0020700117
p24
aVNOV 15, 2007
p25
aVDAL vs. SAS
p26
aVW
p27
aI37
aI8
aI13
aF0.615
aI0
aI2
aF0.0
aI2
aI2
aF1.0
aI0
aI2
aI2
aI5
aI3
aI0
aI0
aI2
aI18
aI27
aa(lp28
V0020700138
p29
aVNOV 17, 2007
p30
aVDAL vs. MEM
p31
aVW
p32
aI35
aI5
aI12
aF0.417
aI0
aI1
aF0.0
aI9
aI12
aF0.75
aI0
aI1
aI1
aI8
aI5
aI0
aI3
aI4
aI19
aI-3
aa(lp33
V0020700154
p34
aVNOV 20, 2007
p35
aVDAL vs. TOR
p36
aVW
p37
aI32
aI6
aI14
aF0.429
aI2
aI4
aF0.5
aI5
aI6
aF0.833
aI1
aI2
aI3
aI2
aI0
aI0
aI0
aI3
aI19
aI6
aa(lp38
V0020700160
p39
aVNOV 21, 2007
p40
aVDAL @ HOU
p41
aVW
p42
aI32
aI7
aI13
aF0.538
aI1
aI2
aF0.5
aI7
aI8
aF0.875
aI0
aI1
aI1
aI5
aI3
aI0
aI3
aI5
aI22
aI4
aa(lp43
V0020700175
p44
aVNOV 23, 2007
p45
aVDAL @ IND
p46
aVL
p47
aI36
aI5
aI13
aF0.385
aI1
aI2
aF0.5
aI13
aI14
aF0.929
aI2
aI2
aI4
aI5
aI1
aI0
aI2
aI4
aI24
aI4
aa(lp48
V0020700190
p49
aVNOV 24, 2007
p50
aVDAL @ MIL
p51
aVL
p52
aI35
aI3
aI8
aF0.375
aI0
aI3
aF0.0
aI0
aI0
aF0.0
aI0
aI5
aI5
aI9
aI1
aI0
aI4
aI3
aI6
aI-2
aa(lp53
V0020700199
p54
aVNOV 26, 2007
p55
aVDAL vs. WAS
p56
aVL
p57
aI26
aI4
aI10
aF0.4
aI0
aI2
aF0.0
aI4
aI4
aF1.0
aI0
aI3
aI3
aI7
aI0
aI0
aI0
aI2
aI12
aI-7
aa(lp58
V0020700215
p59
aVNOV 28, 2007
p60
aVDAL vs. MIN
p61
aVW
p62
aI37
aI9
aI10
aF0.9
aI0
aI0
aF0.0
aI4
aI6
aF0.667
aI0
aI2
aI2
aI6
aI1
aI0
aI3
aI3
aI22
aI9
aa(lp63
V0020700230
p64
aVNOV 30, 2007
p65
aVDAL vs. POR
p66
aVW
p67
aI37
aI5
aI14
aF0.357
aI0
aI1
aF0.0
aI4
aI4
aF1.0
aI2
aI1
aI3
aI7
aI1
aI0
aI1
aI3
aI14
aI9
aa(lp68
V0020700238
p69
aVDEC 01, 2007
p70
aVDAL @ NOH
p71
aVL
p72
aI36
aI3
aI10
aF0.3
aI1
aI2
aF0.5
aI1
aI1
aF1.0
aI3
aI2
aI5
aI5
aI0
aI0
aI4
aI5
aI8
aI-13
aa(lp73
V0020700253
p74
aVDEC 03, 2007
p75
aVDAL @ CHI
p76
aVW
p77
aI27
aI2
aI6
aF0.333
aI0
aI1
aF0.0
aI0
aI0
aF0.0
aI0
aI2
aI2
aI1
aI1
aI0
aI0
aI2
aI4
aI7
aa(lp78
V0020700269
p79
aVDEC 05, 2007
p80
aVDAL @ SAS
p81
aVL
p82
aI27
aI2
aI11
aF0.182
aI0
aI1
aF0.0
aI0
aI0
aF0.0
aI0
aI2
aI2
aI4
aI4
aI0
aI2
aI4
aI4
aI2
aa(lp83
V0020700274
p84
aVDEC 06, 2007
p85
aVDAL vs. DEN
p86
aVL
p87
aI25
aI5
aI14
aF0.357
aI0
aI2
aF0.0
aI2
aI3
aF0.667
aI0
aI0
aI0
aI4
aI0
aI0
aI1
aI4
aI12
aI-10
aa(lp88
V0020700292
p89
aVDEC 08, 2007
p90
aVDAL vs. UTA
p91
aVW
p92
aI35
aI3
aI7
aF0.429
aI0
aI0
aF0.0
aI4
aI5
aF0.8
aI0
aI1
aI1
aI12
aI3
aI0
aI3
aI1
aI10
aI12
aa(lp93
V0020700303
p94
aVDEC 10, 2007
p95
aVDAL @ NYK
p96
aVW
p97
aI32
aI0
aI3
aF0.0
aI0
aI0
aF0.0
aI3
aI4
aF0.75
aI0
aI1
aI1
aI4
aI2
aI0
aI1
aI3
aI3
aI10
aa(lp98
V0020700336
p99
aVDEC 14, 2007
p100
aVDAL vs. NOH
p101
aVW
p102
aI29
aI3
aI7
aF0.429
aI0
aI0
aF0.0
aI4
aI4
aF1.0
aI0
aI1
aI1
aI3
aI1
aI0
aI2
aI5
aI10
aI18
aa(lp103
V0020700347
p104
aVDEC 15, 2007
p105
aVDAL @ HOU
p106
aVW
p107
aI37
aI5
aI7
aF0.714
aI2
aI3
aF0.667
aI2
aI2
aF1.0
aI1
aI1
aI2
aI7
aI5
aI0
aI3
aI1
aI14
aI17
aa(lp108
V0020700359
p109
aVDEC 17, 2007
p110
aVDAL vs. ORL
p111
aVW
p112
aI32
aI7
aI11
aF0.636
aI1
aI3
aF0.333
aI0
aI0
aF0.0
aI0
aI3
aI3
aI9
aI0
aI2
aI1
aI3
aI15
aI18
aa(lp113
V0020700375
p114
aVDEC 19, 2007
p115
aVDAL vs. PHX
p116
aVW
p117
aI32
aI8
aI16
aF0.5
aI2
aI3
aF0.667
aI3
aI4
aF0.75
aI1
aI2
aI3
aI6
aI3
aI0
aI1
aI3
aI21
aI4
aa(lp118
V0020700388
p119
aVDEC 21, 2007
p120
aVDAL vs. LAC
p121
aVW
p122
aI28
aI8
aI13
aF0.615
aI2
aI3
aF0.667
aI3
aI4
aF0.75
aI0
aI2
aI2
aI2
aI2
aI0
aI3
aI3
aI21
aI-5
aa(lp123
V0020700416
p124
aVDEC 26, 2007
p125
aVDAL @ UTA
p126
aVL
p127
aI29
aI4
aI4
aF1.0
aI1
aI1
aF1.0
aI8
aI10
aF0.8
aI0
aI1
aI1
aI5
aI2
aI0
aI4
aI4
aI17
aI-1
aa(lp128
V0020700419
p129
aVDEC 27, 2007
p130
aVDAL vs. CLE
p131
aVL
p132
aI32
aI2
aI8
aF0.25
aI0
aI3
aF0.0
aI5
aI6
aF0.833
aI1
aI3
aI4
aI6
aI3
aI0
aI3
aI4
aI9
aI-2
aa(lp133
V0020700434
p134
aVDEC 29, 2007
p135
aVDAL vs. ATL
p136
aVW
p137
aI24
aI4
aI9
aF0.444
aI1
aI1
aF1.0
aI10
aI12
aF0.833
aI0
aI3
aI3
aI4
aI3
aI0
aI1
aI4
aI19
aI10
aa(lp138
V0020700466
p139
aVJAN 02, 2008
p140
aVDAL vs. GSW
p141
aVW
p142
aI24
aI5
aI10
aF0.5
aI1
aI2
aF0.5
aI6
aI7
aF0.857
aI0
aI3
aI3
aI5
aI0
aI0
aI2
aI4
aI17
aI3
aa(lp143
V0020700481
p144
aVJAN 04, 2008
p145
aVDAL vs. MIA
p146
aVW
p147
aI33
aI5
aI13
aF0.385
aI0
aI1
aF0.0
aI5
aI7
aF0.714
aI0
aI3
aI3
aI9
aI4
aI0
aI5
aI5
aI15
aI20
aa(lp148
V0020700492
p149
aVJAN 06, 2008
p150
aVDAL @ MIN
p151
aVW
p152
aI23
aI4
aI7
aF0.571
aI1
aI2
aF0.5
aI3
aI3
aF1.0
aI1
aI1
aI2
aI1
aI0
aI0
aI1
aI4
aI12
aI13
aa(lp153
V0020700516
p154
aVJAN 09, 2008
p155
aVDAL vs. DET
p156
aVW
p157
aI31
aI7
aI12
aF0.583
aI2
aI3
aF0.667
aI3
aI3
aF1.0
aI0
aI2
aI2
aI4
aI0
aI0
aI5
aI4
aI19
aI15
aa(lp158
V0020700533
p159
aVJAN 11, 2008
p160
aVDAL @ SEA
p161
aVW
p162
aI30
aI2
aI7
aF0.286
aI1
aI1
aF1.0
aI2
aI2
aF1.0
aI1
aI0
aI1
aI5
aI0
aI0
aI3
aI2
aI7
aI3
aa(lp163
V0020700540
p164
aVJAN 12, 2008
p165
aVDAL @ LAC
p166
aVW
p167
aI32
aI4
aI11
aF0.364
aI0
aI3
aF0.0
aI4
aI6
aF0.667
aI0
aI2
aI2
aI3
aI2
aI0
aI3
aI4
aI12
aI-7
aa(lp168
V0020700552
p169
aVJAN 14, 2008
p170
aVDAL @ SAC
p171
aVL
p172
aI36
aI8
aI10
aF0.8
aI2
aI3
aF0.667
aI7
aI9
aF0.778
aI0
aI1
aI1
aI9
aI0
aI0
aI4
aI5
aI25
aI-9
aa(lp173
V0020700591
p174
aVJAN 19, 2008
p175
aVDAL vs. SEA
p176
aVW
p177
aI24
aI7
aI13
aF0.538
aI0
aI1
aF0.0
aI3
aI4
aF0.75
aI1
aI1
aI2
aI8
aI0
aI0
aI1
aI3
aI17
aI17
aa(lp178
V0020700596
p179
aVJAN 21, 2008
p180
aVDAL @ WAS
p181
aVL
p182
aI33
aI4
aI8
aF0.5
aI1
aI3
aF0.333
aI5
aI6
aF0.833
aI2
aI2
aI4
aI4
aI0
aI0
aI4
aI2
aI14
aI-3
aa(lp183
V0020700611
p184
aVJAN 23, 2008
p185
aVDAL @ CHA
p186
aVW
p187
aI37
aI8
aI12
aF0.667
aI1
aI1
aF1.0
aI6
aI7
aF0.857
aI0
aI1
aI1
aI9
aI0
aI0
aI2
aI3
aI23
aI5
aa(lp188
V0020700633
p189
aVJAN 25, 2008
p190
aVDAL vs. LAL
p191
aVW
p192
aI29
aI5
aI10
aF0.5
aI0
aI1
aF0.0
aI8
aI9
aF0.889
aI0
aI0
aI0
aI4
aI0
aI0
aI1
aI3
aI18
aI2
aa(lp193
V0020700647
p194
aVJAN 27, 2008
p195
aVDAL vs. DEN
p196
aVW
p197
aI13
aI2
aI3
aF0.667
aI0
aI1
aF0.0
aI2
aI3
aF0.667
aI0
aI0
aI0
aI0
aI1
aI0
aI3
aI4
aI6
aI7
aa(lp198
V0020700855
p199
aVFEB 28, 2008
p200
aVNJN vs. MIL
p201
aVW
p202
aI21
aI7
aI13
aF0.538
aI3
aI6
aF0.5
aI4
aI5
aF0.8
aI0
aI1
aI1
aI5
aI1
aI0
aI1
aI2
aI21
aI17
aa(lp203
V0020700878
p204
aVMAR 02, 2008
p205
aVNJN vs. SAS
p206
aVL
p207
aI36
aI6
aI16
aF0.375
aI4
aI8
aF0.5
aI5
aI5
aF1.0
aI0
aI5
aI5
aI2
aI0
aI1
aI1
aI1
aI21
aI-2
aa(lp208
V0020700894
p209
aVMAR 04, 2008
p210
aVNJN @ SAS
p211
aVL
p212
aI36
aI5
aI17
aF0.294
aI1
aI6
aF0.167
aI2
aI4
aF0.5
aI0
aI2
aI2
aI7
aI3
aI0
aI5
aI4
aI13
aI-14
aa(lp213
V0020700903
p214
aVMAR 05, 2008
p215
aVNJN @ MEM
p216
aVL
p217
aI39
aI6
aI17
aF0.353
aI0
aI6
aF0.0
aI8
aI10
aF0.8
aI0
aI4
aI4
aI8
aI0
aI0
aI3
aI5
aI20
aI-15
aa(lp218
V0020700918
p219
aVMAR 07, 2008
p220
aVNJN @ NOH
p221
aVL
p222
aI37
aI8
aI15
aF0.533
aI0
aI3
aF0.0
aI1
aI1
aF1.0
aI0
aI1
aI1
aI8
aI2
aI0
aI6
aI5
aI17
aI-7
aa(lp223
V0020700931
p224
aVMAR 08, 2008
p225
aVNJN @ DAL
p226
aVL
p227
aI36
aI3
aI12
aF0.25
aI0
aI5
aF0.0
aI3
aI3
aF1.0
aI0
aI2
aI2
aI2
aI0
aI0
aI0
aI4
aI9
aI-13
aa(lp228
V0020700943
p229
aVMAR 10, 2008
p230
aVNJN @ HOU
p231
aVL
p232
aI24
aI3
aI10
aF0.3
aI0
aI2
aF0.0
aI4
aI6
aF0.667
aI0
aI1
aI1
aI1
aI1
aI0
aI0
aI2
aI10
aI-18
aa(lp233
V0020700955
p234
aVMAR 12, 2008
p235
aVNJN vs. CLE
p236
aVW
p237
aI37
aI8
aI14
aF0.571
aI2
aI5
aF0.4
aI1
aI1
aF1.0
aI2
aI3
aI5
aI5
aI4
aI1
aI5
aI2
aI19
aI15
aa(lp238
V0020700979
p239
aVMAR 15, 2008
p240
aVNJN vs. UTA
p241
aVW
p242
aI37
aI6
aI12
aF0.5
aI0
aI2
aF0.0
aI7
aI10
aF0.7
aI3
aI5
aI8
aI12
aI0
aI0
aI2
aI3
aI19
aI10
aa(lp243
V0020701001
p244
aVMAR 18, 2008
p245
aVNJN @ CHI
p246
aVL
p247
aI17
aI2
aI6
aF0.333
aI0
aI0
aF0.0
aI0
aI0
aF0.0
aI0
aI1
aI1
aI3
aI1
aI0
aI3
aI0
aI4
aI-8
aa(lp248
V0020701010
p249
aVMAR 19, 2008
p250
aVNJN vs. ATL
p251
aVW
p252
aI41
aI8
aI15
aF0.533
aI3
aI6
aF0.5
aI7
aI8
aF0.875
aI0
aI1
aI1
aI9
aI3
aI0
aI3
aI4
aI26
aI11
aa(lp253
V0020701021
p254
aVMAR 21, 2008
p255
aVNJN vs. DEN
p256
aVL
p257
aI41
aI5
aI13
aF0.385
aI1
aI4
aF0.25
aI5
aI5
aF1.0
aI0
aI5
aI5
aI13
aI1
aI0
aI1
aI3
aI16
aI-13
aa(lp258
V0020701029
p259
aVMAR 22, 2008
p260
aVNJN @ PHI
p261
aVL
p262
aI39
aI5
aI13
aF0.385
aI1
aI4
aF0.25
aI3
aI4
aF0.75
aI0
aI6
aI6
aI5
aI0
aI0
aI2
aI2
aI14
aI-2
aa(lp263
V0020701045
p264
aVMAR 24, 2008
p265
aVNJN @ NYK
p266
aVW
p267
aI37
aI4
aI11
aF0.364
aI0
aI2
aF0.0
aI0
aI0
aF0.0
aI0
aI4
aI4
aI4
aI1
aI3
aI2
aI2
aI8
aI21
aa(lp268
V0020701064
p269
aVMAR 26, 2008
p270
aVNJN vs. IND
p271
aVW
p272
aI39
aI9
aI13
aF0.692
aI3
aI5
aF0.6
aI1
aI2
aF0.5
aI0
aI3
aI3
aI15
aI2
aI0
aI3
aI0
aI22
aI10
aa(lp273
V0020701075
p274
aVMAR 28, 2008
p275
aVNJN @ IND
p276
aVL
p277
aI39
aI10
aI20
aF0.5
aI4
aI7
aF0.571
aI3
aI3
aF1.0
aI0
aI4
aI4
aI9
aI1
aI0
aI1
aI3
aI27
aI6
aa(lp278
V0020701084
p279
aVMAR 29, 2008
p280
aVNJN vs. PHX
p281
aVL
p282
aI35
aI5
aI15
aF0.333
aI1
aI4
aF0.25
aI2
aI2
aF1.0
aI3
aI2
aI5
aI7
aI1
aI0
aI5
aI3
aI13
aI-4
aa(lp283
V0020701106
p284
aVAPR 01, 2008
p285
aVNJN vs. PHI
p286
aVL
p287
aI39
aI8
aI16
aF0.5
aI1
aI3
aF0.333
aI5
aI6
aF0.833
aI0
aI4
aI4
aI5
aI2
aI1
aI4
aI4
aI22
aI-2
aa(lp288
V0020701129
p289
aVAPR 04, 2008
p290
aVNJN @ DET
p291
aVL
p292
aI28
aI3
aI4
aF0.75
aI0
aI0
aF0.0
aI2
aI2
aF1.0
aI0
aI0
aI0
aI4
aI2
aI1
aI2
aI3
aI8
aI-21
aa(lp293
V0020701140
p294
aVAPR 05, 2008
p295
aVNJN vs. TOR
p296
aVW
p297
aI32
aI4
aI7
aF0.571
aI2
aI3
aF0.667
aI2
aI2
aF1.0
aI2
aI3
aI5
aI7
aI0
aI0
aI3
aI2
aI12
aI4
aa(lp298
V0020701168
p299
aVAPR 09, 2008
p300
aVNJN @ CLE
p301
aVL
p302
aI24
aI2
aI8
aF0.25
aI2
aI2
aF1.0
aI2
aI2
aF1.0
aI1
aI2
aI3
aI3
aI0
aI0
aI1
aI2
aI8
aI-4
aa(lp303
V0020701176
p304
aVAPR 11, 2008
p305
aVNJN @ TOR
p306
aVL
p307
aI32
aI7
aI16
aF0.438
aI1
aI5
aF0.2
aI4
aI4
aF1.0
aI0
aI6
aI6
aI5
aI1
aI0
aI2
aI3
aI19
aI-17
aa(lp308
V0020701192
p309
aVAPR 12, 2008
p310
aVNJN @ MIL
p311
aVW
p312
aI33
aI4
aI8
aF0.5
aI0
aI3
aF0.0
aI5
aI5
aF1.0
aI0
aI4
aI4
aI9
aI6
aI0
aI5
aI1
aI13
aI15
aa(lp313
V0020701212
p314
aVAPR 15, 2008
p315
aVNJN vs. CHA
p316
aVW
p317
aI36
aI4
aI10
aF0.4
aI1
aI4
aF0.25
aI8
aI11
aF0.727
aI0
aI2
aI2
aI8
aI1
aI1
aI5
aI2
aI17
aI8
aa(lp318
V0020701221
p319
aVAPR 16, 2008
p320
aVNJN @ BOS
p321
aVL
p322
aI24
aI2
aI5
aF0.4
aI1
aI2
aF0.5
aI3
aI4
aF0.75
aI0
aI0
aI0
aI7
aI1
aI0
aI3
aI1
aI8
aI-3
aasS'name'
p323
VDevin Harris
p324
sS'weight'
p325
V185
p326
sS'age'
p327
I24
sS'experience'
p328
I3
sS'height'
p329
V6-3
p330
sS'position'
p331
VGuard
p332
s.