(dp0
S'age'
p1
I21
sS'stats'
p2
(lp3
(lp4
V0020700003
p5
aVOCT 30, 2007
p6
aVGSW vs. UTA
p7
aVL
p8
aI27
aI1
aI4
aF0.25
aI0
aI0
aF0.0
aI2
aI2
aF1.0
aI3
aI6
aI9
aI1
aI1
aI2
aI5
aI6
aI4
aI-9
aa(lp9
V0020700027
p10
aVNOV 02, 2007
p11
aVGSW @ LAC
p12
aVL
p13
aI35
aI6
aI10
aF0.6
aI0
aI0
aF0.0
aI0
aI0
aF0.0
aI3
aI4
aI7
aI1
aI0
aI3
aI2
aI4
aI12
aI-5
aa(lp14
V0020700034
p15
aVNOV 03, 2007
p16
aVGSW @ UTA
p17
aVL
p18
aI39
aI6
aI10
aF0.6
aI0
aI0
aF0.0
aI2
aI2
aF1.0
aI5
aI4
aI9
aI2
aI0
aI2
aI4
aI3
aI14
aI-16
aa(lp19
V0020700053
p20
aVNOV 06, 2007
p21
aVGSW vs. CLE
p22
aVL
p23
aI41
aI5
aI6
aF0.833
aI0
aI0
aF0.0
aI2
aI4
aF0.5
aI1
aI10
aI11
aI4
aI0
aI0
aI4
aI3
aI12
aI-6
aa(lp24
V0020700065
p25
aVNOV 08, 2007
p26
aVGSW vs. DAL
p27
aVL
p28
aI43
aI4
aI6
aF0.667
aI0
aI0
aF0.0
aI1
aI4
aF0.25
aI2
aI8
aI10
aI2
aI1
aI5
aI1
aI3
aI9
aI-13
aa(lp29
V0020700116
p30
aVNOV 14, 2007
p31
aVGSW vs. DET
p32
aVL
p33
aI37
aI6
aI13
aF0.462
aI0
aI0
aF0.0
aI6
aI6
aF1.0
aI8
aI3
aI11
aI2
aI0
aI1
aI1
aI5
aI18
aI-12
aa(lp34
V0020700130
p35
aVNOV 16, 2007
p36
aVGSW vs. LAC
p37
aVW
p38
aI34
aI9
aI12
aF0.75
aI0
aI0
aF0.0
aI5
aI6
aF0.833
aI4
aI14
aI18
aI1
aI1
aI2
aI1
aI5
aI23
aI15
aa(lp39
V0020700141
p40
aVNOV 18, 2007
p41
aVGSW @ TOR
p42
aVW
p43
aI34
aI6
aI9
aF0.667
aI0
aI0
aF0.0
aI3
aI6
aF0.5
aI5
aI9
aI14
aI2
aI0
aI0
aI2
aI2
aI15
aI2
aa(lp44
V0020700153
p45
aVNOV 20, 2007
p46
aVGSW @ NYK
p47
aVW
p48
aI24
aI3
aI5
aF0.6
aI0
aI0
aF0.0
aI0
aI2
aF0.0
aI1
aI3
aI4
aI0
aI3
aI0
aI0
aI4
aI6
aI16
aa(lp49
V0020700158
p50
aVNOV 21, 2007
p51
aVGSW @ BOS
p52
aVL
p53
aI20
aI2
aI4
aF0.5
aI0
aI0
aF0.0
aI0
aI0
aF0.0
aI1
aI3
aI4
aI0
aI0
aI0
aI0
aI2
aI4
aI-8
aa(lp54
V0020700170
p55
aVNOV 23, 2007
p56
aVGSW @ WAS
p57
aVW
p58
aI32
aI5
aI7
aF0.714
aI0
aI0
aF0.0
aI0
aI0
aF0.0
aI4
aI5
aI9
aI4
aI1
aI0
aI2
aI3
aI10
aI14
aa(lp59
V0020700184
p60
aVNOV 24, 2007
p61
aVGSW @ PHI
p62
aVW
p63
aI38
aI5
aI9
aF0.556
aI0
aI0
aF0.0
aI1
aI1
aF1.0
aI5
aI9
aI14
aI1
aI1
aI3
aI2
aI5
aI11
aI-7
aa(lp64
V0020700203
p65
aVNOV 26, 2007
p66
aVGSW vs. PHX
p67
aVW
p68
aI13
aI1
aI2
aF0.5
aI0
aI0
aF0.0
aI0
aI0
aF0.0
aI2
aI1
aI3
aI1
aI1
aI1
aI0
aI2
aI2
aI-1
aa(lp69
V0020700218
p70
aVNOV 28, 2007
p71
aVGSW @ SAC
p72
aVW
p73
aI31
aI6
aI7
aF0.857
aI0
aI0
aF0.0
aI1
aI2
aF0.5
aI4
aI9
aI13
aI3
aI0
aI4
aI0
aI4
aI13
aI-1
aa(lp74
V0020700223
p75
aVNOV 29, 2007
p76
aVGSW vs. HOU
p77
aVW
p78
aI23
aI3
aI6
aF0.5
aI0
aI0
aF0.0
aI3
aI6
aF0.5
aI2
aI8
aI10
aI2
aI0
aI1
aI0
aI3
aI9
aI8
aa(lp79
V0020700248
p80
aVDEC 02, 2007
p81
aVGSW @ SEA
p82
aVW
p83
aI28
aI9
aI12
aF0.75
aI0
aI0
aF0.0
aI0
aI1
aF0.0
aI5
aI11
aI16
aI1
aI0
aI3
aI0
aI5
aI18
aI23
aa(lp84
V0020700255
p85
aVDEC 03, 2007
p86
aVGSW vs. ORL
p87
aVL
p88
aI30
aI4
aI6
aF0.667
aI0
aI0
aF0.0
aI3
aI3
aF1.0
aI3
aI12
aI15
aI1
aI0
aI1
aI0
aI3
aI11
aI2
aa(lp89
V0020700271
p90
aVDEC 05, 2007
p91
aVGSW vs. MIL
p92
aVW
p93
aI21
aI4
aI8
aF0.5
aI0
aI0
aF0.0
aI0
aI0
aF0.0
aI3
aI2
aI5
aI0
aI1
aI0
aI1
aI5
aI8
aI11
aa(lp94
V0020700285
p95
aVDEC 07, 2007
p96
aVGSW vs. MIA
p97
aVW
p98
aI23
aI6
aI8
aF0.75
aI0
aI0
aF0.0
aI2
aI2
aF1.0
aI6
aI6
aI12
aI2
aI2
aI1
aI1
aI2
aI14
aI5
aa(lp99
V0020700300
p100
aVDEC 09, 2007
p101
aVGSW @ LAL
p102
aVL
p103
aI13
aI2
aI4
aF0.5
aI0
aI0
aF0.0
aI3
aI4
aF0.75
aI1
aI5
aI6
aI0
aI0
aI0
aI1
aI3
aI7
aI-2
aa(lp104
V0020700313
p105
aVDEC 11, 2007
p106
aVGSW vs. SAS
p107
aVW
p108
aI18
aI6
aI8
aF0.75
aI0
aI0
aF0.0
aI2
aI4
aF0.5
aI3
aI4
aI7
aI1
aI0
aI1
aI1
aI1
aI14
aI18
aa(lp109
V0020700323
p110
aVDEC 12, 2007
p111
aVGSW @ POR
p112
aVL
p113
aI24
aI3
aI6
aF0.5
aI0
aI0
aF0.0
aI0
aI0
aF0.0
aI3
aI0
aI3
aI0
aI0
aI0
aI1
aI3
aI6
aI-13
aa(lp114
V0020700338
p115
aVDEC 14, 2007
p116
aVGSW vs. LAL
p117
aVW
p118
aI30
aI5
aI8
aF0.625
aI0
aI0
aF0.0
aI0
aI0
aF0.0
aI5
aI6
aI11
aI1
aI3
aI2
aI3
aI2
aI10
aI10
aa(lp119
V0020700350
p120
aVDEC 16, 2007
p121
aVGSW @ DET
p122
aVL
p123
aI23
aI4
aI6
aF0.667
aI0
aI0
aF0.0
aI1
aI3
aF0.333
aI2
aI4
aI6
aI2
aI1
aI0
aI0
aI2
aI9
aI-4
aa(lp124
V0020700358
p125
aVDEC 17, 2007
p126
aVGSW @ MEM
p127
aVW
p128
aI13
aI5
aI6
aF0.833
aI0
aI0
aF0.0
aI2
aI4
aF0.5
aI2
aI5
aI7
aI0
aI1
aI0
aI1
aI1
aI12
aI1
aa(lp129
V0020700373
p130
aVDEC 19, 2007
p131
aVGSW @ MIN
p132
aVW
p133
aI36
aI4
aI8
aF0.5
aI0
aI0
aF0.0
aI0
aI0
aF0.0
aI3
aI12
aI15
aI2
aI1
aI3
aI2
aI4
aI8
aI8
aa(lp134
V0020700392
p135
aVDEC 22, 2007
p136
aVGSW @ NJN
p137
aVL
p138
aI30
aI7
aI11
aF0.636
aI0
aI0
aF0.0
aI2
aI2
aF1.0
aI6
aI4
aI10
aI1
aI0
aI0
aI1
aI3
aI16
aI-9
aa(lp139
V0020700402
p140
aVDEC 23, 2007
p141
aVGSW @ CLE
p142
aVW
p143
aI36
aI4
aI8
aF0.5
aI0
aI0
aF0.0
aI1
aI2
aF0.5
aI1
aI11
aI12
aI1
aI2
aI2
aI4
aI4
aI9
aI23
aa(lp144
V0020700418
p145
aVDEC 26, 2007
p146
aVGSW vs. MIN
p147
aVW
p148
aI29
aI3
aI5
aF0.6
aI0
aI0
aF0.0
aI0
aI0
aF0.0
aI3
aI8
aI11
aI1
aI0
aI3
aI1
aI5
aI6
aI7
aa(lp149
V0020700433
p150
aVDEC 28, 2007
p151
aVGSW vs. DEN
p152
aVL
p153
aI28
aI7
aI10
aF0.7
aI0
aI0
aF0.0
aI0
aI0
aF0.0
aI4
aI8
aI12
aI0
aI0
aI2
aI1
aI4
aI14
aI-6
aa(lp154
V0020700445
p155
aVDEC 30, 2007
p156
aVGSW @ DEN
p157
aVW
p158
aI24
aI4
aI4
aF1.0
aI0
aI0
aF0.0
aI0
aI2
aF0.0
aI1
aI13
aI14
aI0
aI2
aI1
aI0
aI3
aI8
aI4
aa(lp159
V0020700452
p160
aVDEC 31, 2007
p161
aVGSW @ HOU
p162
aVW
p163
aI25
aI3
aI4
aF0.75
aI0
aI0
aF0.0
aI0
aI0
aF0.0
aI2
aI6
aI8
aI0
aI2
aI1
aI1
aI3
aI6
aI-1
aa(lp164
V0020700466
p165
aVJAN 02, 2008
p166
aVGSW @ DAL
p167
aVL
p168
aI25
aI5
aI6
aF0.833
aI0
aI0
aF0.0
aI0
aI0
aF0.0
aI3
aI2
aI5
aI1
aI0
aI2
aI0
aI3
aI10
aI-2
aa(lp169
V0020700483
p170
aVJAN 04, 2008
p171
aVGSW vs. NOH
p172
aVL
p173
aI32
aI10
aI11
aF0.909
aI0
aI0
aF0.0
aI0
aI1
aF0.0
aI3
aI6
aI9
aI1
aI0
aI0
aI1
aI2
aI20
aI-20
aa(lp174
V0020700499
p175
aVJAN 07, 2008
p176
aVGSW vs. SAS
p177
aVW
p178
aI41
aI5
aI8
aF0.625
aI0
aI0
aF0.0
aI3
aI4
aF0.75
aI4
aI6
aI10
aI3
aI2
aI2
aI3
aI5
aI13
aI18
aa(lp179
V0020700518
p180
aVJAN 09, 2008
p181
aVGSW @ POR
p182
aVL
p183
aI13
aI1
aI3
aF0.333
aI0
aI0
aF0.0
aI0
aI0
aF0.0
aI3
aI4
aI7
aI0
aI0
aI0
aI1
aI1
aI2
aI-13
aa(lp184
V0020700532
p185
aVJAN 11, 2008
p186
aVGSW vs. MEM
p187
aVW
p188
aI32
aI4
aI13
aF0.308
aI0
aI0
aF0.0
aI0
aI0
aF0.0
aI6
aI6
aI12
aI1
aI0
aI2
aI1
aI3
aI8
aI16
aa(lp189
V0020700545
p190
aVJAN 13, 2008
p191
aVGSW vs. IND
p192
aVW
p193
aI13
aI1
aI4
aF0.25
aI0
aI0
aF0.0
aI0
aI0
aF0.0
aI1
aI4
aI5
aI0
aI1
aI1
aI1
aI3
aI2
aI4
aa(lp194
V0020700559
p195
aVJAN 15, 2008
p196
aVGSW @ MIN
p197
aVW
p198
aI26
aI0
aI5
aF0.0
aI0
aI0
aF0.0
aI0
aI0
aF0.0
aI2
aI6
aI8
aI0
aI1
aI0
aI3
aI5
aI0
aI-15
aa(lp199
V0020700565
p200
aVJAN 16, 2008
p201
aVGSW @ IND
p202
aVL
p203
aI20
aI4
aI6
aF0.667
aI0
aI0
aF0.0
aI5
aI8
aF0.625
aI3
aI1
aI4
aI0
aI1
aI0
aI1
aI5
aI13
aI-12
aa(lp204
V0020700582
p205
aVJAN 18, 2008
p206
aVGSW @ CHI
p207
aVW
p208
aI27
aI4
aI6
aF0.667
aI0
aI0
aF0.0
aI1
aI4
aF0.25
aI3
aI5
aI8
aI2
aI1
aI0
aI1
aI4
aI9
aI10
aa(lp209
V0020700589
p210
aVJAN 19, 2008
p211
aVGSW @ MIL
p212
aVW
p213
aI34
aI8
aI10
aF0.8
aI0
aI0
aF0.0
aI4
aI4
aF1.0
aI2
aI8
aI10
aI1
aI3
aI1
aI0
aI5
aI20
aI27
aa(lp214
V0020700603
p215
aVJAN 21, 2008
p216
aVGSW vs. MIN
p217
aVL
p218
aI21
aI2
aI3
aF0.667
aI0
aI0
aF0.0
aI1
aI2
aF0.5
aI3
aI9
aI12
aI2
aI0
aI0
aI0
aI6
aI5
aI-6
aa(lp219
V0020700624
p220
aVJAN 24, 2008
p221
aVGSW vs. NJN
p222
aVW
p223
aI33
aI2
aI4
aF0.5
aI0
aI0
aF0.0
aI2
aI4
aF0.5
aI2
aI8
aI10
aI2
aI0
aI4
aI0
aI4
aI6
aI11
aa(lp224
V0020700650
p225
aVJAN 27, 2008
p226
aVGSW vs. NYK
p227
aVW
p228
aI41
aI4
aI6
aF0.667
aI0
aI0
aF0.0
aI3
aI5
aF0.6
aI6
aI20
aI26
aI2
aI0
aI0
aI1
aI4
aI11
aI14
aa(lp229
V0020700661
p230
aVJAN 29, 2008
p231
aVGSW @ HOU
p232
aVL
p233
aI29
aI6
aI10
aF0.6
aI0
aI0
aF0.0
aI2
aI4
aF0.5
aI2
aI10
aI12
aI0
aI0
aI2
aI0
aI5
aI14
aI6
aa(lp234
V0020700669
p235
aVJAN 30, 2008
p236
aVGSW @ NOH
p237
aVW
p238
aI19
aI6
aI7
aF0.857
aI0
aI0
aF0.0
aI2
aI2
aF1.0
aI2
aI5
aI7
aI0
aI1
aI2
aI0
aI2
aI14
aI10
aa(lp239
V0020700686
p240
aVFEB 01, 2008
p241
aVGSW vs. CHA
p242
aVW
p243
aI24
aI7
aI10
aF0.7
aI0
aI0
aF0.0
aI1
aI1
aF1.0
aI3
aI3
aI6
aI2
aI0
aI1
aI1
aI3
aI15
aI35
aa(lp244
V0020700725
p245
aVFEB 07, 2008
p246
aVGSW vs. CHI
p247
aVL
p248
aI36
aI4
aI11
aF0.364
aI0
aI0
aF0.0
aI4
aI4
aF1.0
aI9
aI9
aI18
aI0
aI0
aI0
aI2
aI5
aI12
aI-5
aa(lp249
V0020700743
p250
aVFEB 09, 2008
p251
aVGSW vs. SAC
p252
aVW
p253
aI21
aI4
aI6
aF0.667
aI0
aI0
aF0.0
aI1
aI4
aF0.25
aI5
aI4
aI9
aI0
aI0
aI1
aI4
aI2
aI9
aI4
aa(lp254
V0020700757
p255
aVFEB 11, 2008
p256
aVGSW vs. WAS
p257
aVW
p258
aI23
aI2
aI4
aF0.5
aI0
aI0
aF0.0
aI0
aI1
aF0.0
aI3
aI5
aI8
aI1
aI1
aI1
aI0
aI2
aI4
aI6
aa(lp259
V0020700775
p260
aVFEB 13, 2008
p261
aVGSW vs. PHX
p262
aVW
p263
aI13
aI2
aI4
aF0.5
aI0
aI0
aF0.0
aI0
aI0
aF0.0
aI2
aI0
aI2
aI0
aI0
aI0
aI0
aI1
aI4
aI6
aa(lp264
V0020700786
p265
aVFEB 19, 2008
p266
aVGSW @ UTA
p267
aVL
p268
aI19
aI2
aI3
aF0.667
aI0
aI0
aF0.0
aI0
aI0
aF0.0
aI3
aI3
aI6
aI0
aI0
aI0
aI0
aI2
aI4
aI4
aa(lp269
V0020700799
p270
aVFEB 20, 2008
p271
aVGSW vs. BOS
p272
aVW
p273
aI40
aI9
aI14
aF0.643
aI0
aI0
aF0.0
aI3
aI5
aF0.6
aI6
aI7
aI13
aI1
aI1
aI1
aI2
aI4
aI21
aI8
aa(lp274
V0020700916
p275
aVMAR 07, 2008
p276
aVGSW @ MIA
p277
aVW
p278
aI18
aI3
aI3
aF1.0
aI0
aI0
aF0.0
aI0
aI0
aF0.0
aI0
aI4
aI4
aI2
aI0
aI0
aI0
aI3
aI6
aI8
aa(lp279
V0020700927
p280
aVMAR 08, 2008
p281
aVGSW @ ORL
p282
aVW
p283
aI19
aI2
aI2
aF1.0
aI0
aI0
aF0.0
aI0
aI0
aF0.0
aI0
aI2
aI2
aI0
aI3
aI1
aI1
aI4
aI4
aI3
aa(lp284
V0020700962
p285
aVMAR 12, 2008
p286
aVGSW vs. TOR
p287
aVW
p288
aI26
aI5
aI6
aF0.833
aI0
aI0
aF0.0
aI2
aI2
aF1.0
aI0
aI4
aI4
aI2
aI0
aI2
aI0
aI2
aI12
aI13
aa(lp289
V0020700965
p290
aVMAR 13, 2008
p291
aVGSW @ PHX
p292
aVL
p293
aI20
aI2
aI4
aF0.5
aI0
aI0
aF0.0
aI0
aI0
aF0.0
aI2
aI2
aI4
aI0
aI0
aI0
aI1
aI5
aI4
aI-10
aa(lp294
V0020700983
p295
aVMAR 15, 2008
p296
aVGSW vs. MEM
p297
aVW
p298
aI25
aI4
aI8
aF0.5
aI0
aI0
aF0.0
aI0
aI2
aF0.0
aI3
aI9
aI12
aI0
aI1
aI2
aI0
aI4
aI8
aI3
aa(lp299
V0020701004
p300
aVMAR 18, 2008
p301
aVGSW @ SAC
p302
aVL
p303
aI25
aI5
aI7
aF0.714
aI0
aI0
aF0.0
aI3
aI8
aF0.375
aI2
aI6
aI8
aI0
aI0
aI0
aI1
aI4
aI13
aI-15
aa(lp304
V0020701015
p305
aVMAR 19, 2008
p306
aVGSW @ LAC
p307
aVW
p308
aI22
aI4
aI6
aF0.667
aI0
aI0
aF0.0
aI0
aI0
aF0.0
aI1
aI2
aI3
aI1
aI2
aI0
aI0
aI3
aI8
aI21
aa(lp309
V0020701028
p310
aVMAR 21, 2008
p311
aVGSW vs. HOU
p312
aVL
p313
aI22
aI3
aI7
aF0.429
aI0
aI0
aF0.0
aI0
aI0
aF0.0
aI3
aI5
aI8
aI0
aI2
aI5
aI1
aI2
aI6
aI0
aa(lp314
V0020701043
p315
aVMAR 23, 2008
p316
aVGSW @ LAL
p317
aVW
p318
aI23
aI3
aI3
aF1.0
aI0
aI0
aF0.0
aI0
aI0
aF0.0
aI3
aI2
aI5
aI0
aI3
aI0
aI0
aI6
aI6
aI1
aa(lp319
V0020701051
p320
aVMAR 24, 2008
p321
aVGSW vs. LAL
p322
aVL
p323
aI27
aI2
aI7
aF0.286
aI0
aI0
aF0.0
aI1
aI2
aF0.5
aI3
aI5
aI8
aI0
aI0
aI2
aI1
aI6
aI5
aI0
aa(lp324
V0020701072
p325
aVMAR 27, 2008
p326
aVGSW vs. POR
p327
aVW
p328
aI21
aI5
aI9
aF0.556
aI0
aI0
aF0.0
aI0
aI2
aF0.0
aI3
aI4
aI7
aI1
aI2
aI1
aI3
aI4
aI10
aI2
aa(lp329
V0020701087
p330
aVMAR 29, 2008
p331
aVGSW @ DEN
p332
aVL
p333
aI34
aI8
aI10
aF0.8
aI0
aI0
aF0.0
aI1
aI2
aF0.5
aI3
aI14
aI17
aI3
aI0
aI2
aI1
aI1
aI17
aI13
aa(lp334
V0020701096
p335
aVMAR 30, 2008
p336
aVGSW vs. DAL
p337
aVW
p338
aI29
aI5
aI7
aF0.714
aI0
aI0
aF0.0
aI6
aI6
aF1.0
aI5
aI9
aI14
aI2
aI0
aI1
aI0
aI5
aI16
aI3
aa(lp339
V0020701110
p340
aVAPR 01, 2008
p341
aVGSW @ SAS
p342
aVL
p343
aI16
aI1
aI5
aF0.2
aI0
aI0
aF0.0
aI6
aI6
aF1.0
aI5
aI2
aI7
aI0
aI0
aI1
aI0
aI2
aI8
aI2
aa(lp344
V0020701120
p345
aVAPR 02, 2008
p346
aVGSW @ DAL
p347
aVL
p348
aI24
aI2
aI3
aF0.667
aI0
aI0
aF0.0
aI3
aI4
aF0.75
aI2
aI6
aI8
aI1
aI1
aI1
aI2
aI2
aI7
aI-13
aa(lp349
V0020701130
p350
aVAPR 04, 2008
p351
aVGSW @ MEM
p352
aVW
p353
aI31
aI8
aI11
aF0.727
aI0
aI0
aF0.0
aI5
aI6
aF0.833
aI5
aI12
aI17
aI0
aI1
aI2
aI2
aI4
aI21
aI26
aa(lp354
V0020701149
p355
aVAPR 06, 2008
p356
aVGSW @ NOH
p357
aVL
p358
aI37
aI7
aI10
aF0.7
aI0
aI0
aF0.0
aI3
aI5
aF0.6
aI6
aI9
aI15
aI0
aI0
aI1
aI2
aI2
aI17
aI-8
aa(lp359
V0020701163
p360
aVAPR 08, 2008
p361
aVGSW vs. SAC
p362
aVW
p363
aI35
aI7
aI12
aF0.583
aI0
aI0
aF0.0
aI3
aI6
aF0.5
aI7
aI10
aI17
aI1
aI1
aI3
aI0
aI4
aI17
aI10
aa(lp364
V0020701173
p365
aVAPR 10, 2008
p366
aVGSW vs. DEN
p367
aVL
p368
aI39
aI5
aI8
aF0.625
aI0
aI0
aF0.0
aI1
aI2
aF0.5
aI6
aI13
aI19
aI1
aI1
aI2
aI2
aI2
aI11
aI-3
aa(lp369
V0020701196
p370
aVAPR 12, 2008
p371
aVGSW vs. LAC
p372
aVW
p373
aI34
aI3
aI6
aF0.5
aI0
aI0
aF0.0
aI4
aI6
aF0.667
aI3
aI11
aI14
aI1
aI1
aI1
aI1
aI5
aI10
aI21
aa(lp374
V0020701209
p375
aVAPR 14, 2008
p376
aVGSW @ PHX
p377
aVL
p378
aI26
aI8
aI10
aF0.8
aI0
aI0
aF0.0
aI0
aI0
aF0.0
aI5
aI6
aI11
aI2
aI1
aI0
aI0
aI4
aI16
aI-14
aa(lp379
V0020701230
p380
aVAPR 16, 2008
p381
aVGSW vs. SEA
p382
aVL
p383
aI40
aI8
aI13
aF0.615
aI0
aI0
aF0.0
aI4
aI7
aF0.571
aI10
aI7
aI17
aI0
aI1
aI3
aI2
aI5
aI20
aI-13
aasS'name'
p384
VAndris Biedrins
p385
sS'experience'
p386
I3
s.