(dp0
S'stats'
p1
(lp2
(lp3
V0020700011
p4
aVOCT 31, 2007
p5
aVSEA @ DEN
p6
aVL
p7
aI24
aI8
aI13
aF0.615
aI1
aI1
aF1.0
aI2
aI4
aF0.5
aI0
aI0
aI0
aI5
aI1
aI1
aI5
aI1
aI19
aI14
aa(lp8
V0020700014
p9
aVNOV 01, 2007
p10
aVSEA vs. PHX
p11
aVL
p12
aI13
aI1
aI5
aF0.2
aI0
aI0
aF0.0
aI0
aI0
aF0.0
aI0
aI1
aI1
aI3
aI0
aI0
aI1
aI1
aI2
aI-3
aa(lp13
V0020700036
p14
aVNOV 04, 2007
p15
aVSEA @ LAC
p16
aVL
p17
aI19
aI0
aI3
aF0.0
aI0
aI0
aF0.0
aI0
aI0
aF0.0
aI1
aI1
aI2
aI5
aI1
aI0
aI3
aI2
aI0
aI-11
aa(lp18
V0020700051
p19
aVNOV 06, 2007
p20
aVSEA @ SAC
p21
aVL
p22
aI6
aI1
aI3
aF0.333
aI0
aI0
aF0.0
aI0
aI0
aF0.0
aI0
aI0
aI0
aI1
aI1
aI0
aI1
aI1
aI2
aI4
aa(lp23
V0020700061
p24
aVNOV 07, 2007
p25
aVSEA vs. MEM
p26
aVL
p27
aI16
aI5
aI8
aF0.625
aI0
aI0
aF0.0
aI0
aI1
aF0.0
aI0
aI4
aI4
aI2
aI2
aI0
aI2
aI2
aI10
aI-1
aa(lp28
V0020700078
p29
aVNOV 09, 2007
p30
aVSEA vs. UTA
p31
aVL
p32
aI24
aI5
aI8
aF0.625
aI0
aI1
aF0.0
aI0
aI0
aF0.0
aI1
aI4
aI5
aI1
aI1
aI2
aI1
aI2
aI10
aI3
aa(lp33
V0020700091
p34
aVNOV 11, 2007
p35
aVSEA vs. DET
p36
aVL
p37
aI20
aI2
aI6
aF0.333
aI0
aI0
aF0.0
aI0
aI0
aF0.0
aI0
aI5
aI5
aI4
aI0
aI0
aI3
aI0
aI4
aI16
aa(lp38
V0020700097
p39
aVNOV 13, 2007
p40
aVSEA @ ORL
p41
aVL
p42
aI32
aI2
aI11
aF0.182
aI1
aI3
aF0.333
aI1
aI2
aF0.5
aI0
aI5
aI5
aI4
aI3
aI0
aI1
aI2
aI6
aI-22
aa(lp43
V0020700109
p44
aVNOV 14, 2007
p45
aVSEA @ MIA
p46
aVW
p47
aI29
aI4
aI10
aF0.4
aI3
aI5
aF0.6
aI5
aI6
aF0.833
aI2
aI2
aI4
aI6
aI0
aI0
aI3
aI2
aI16
aI9
aa(lp48
V0020700123
p49
aVNOV 16, 2007
p50
aVSEA @ ATL
p51
aVW
p52
aI16
aI0
aI4
aF0.0
aI0
aI2
aF0.0
aI0
aI0
aF0.0
aI0
aI3
aI3
aI3
aI0
aI0
aI3
aI3
aI0
aI-13
aa(lp53
V0020700132
p54
aVNOV 17, 2007
p55
aVSEA @ CHA
p56
aVL
p57
aI20
aI2
aI6
aF0.333
aI0
aI0
aF0.0
aI0
aI0
aF0.0
aI0
aI4
aI4
aI3
aI1
aI0
aI3
aI3
aI4
aI-15
aa(lp58
V0020700146
p59
aVNOV 19, 2007
p60
aVSEA @ MEM
p61
aVL
p62
aI26
aI6
aI10
aF0.6
aI3
aI3
aF1.0
aI2
aI2
aF1.0
aI0
aI1
aI1
aI4
aI1
aI0
aI2
aI2
aI17
aI-4
aa(lp63
V0020700181
p64
aVNOV 23, 2007
p65
aVSEA vs. NJN
p66
aVL
p67
aI31
aI7
aI14
aF0.5
aI2
aI3
aF0.667
aI1
aI3
aF0.333
aI0
aI1
aI1
aI2
aI1
aI1
aI4
aI1
aI17
aI6
aa(lp68
V0020700195
p69
aVNOV 25, 2007
p70
aVSEA vs. SAS
p71
aVL
p72
aI28
aI4
aI9
aF0.444
aI1
aI2
aF0.5
aI0
aI2
aF0.0
aI1
aI2
aI3
aI5
aI0
aI1
aI2
aI5
aI9
aI-12
aa(lp73
V0020700210
p74
aVNOV 27, 2007
p75
aVSEA @ LAL
p76
aVL
p77
aI21
aI2
aI7
aF0.286
aI0
aI1
aF0.0
aI2
aI2
aF1.0
aI0
aI0
aI0
aI0
aI0
aI0
aI2
aI1
aI6
aI-12
aa(lp78
V0020700220
p79
aVNOV 28, 2007
p80
aVSEA vs. ORL
p81
aVL
p82
aI23
aI3
aI6
aF0.5
aI0
aI0
aF0.0
aI0
aI0
aF0.0
aI1
aI1
aI2
aI3
aI0
aI0
aI1
aI2
aI6
aI-8
aa(lp83
V0020700234
p84
aVNOV 30, 2007
p85
aVSEA vs. IND
p86
aVW
p87
aI21
aI2
aI4
aF0.5
aI1
aI1
aF1.0
aI0
aI0
aF0.0
aI0
aI3
aI3
aI5
aI1
aI0
aI1
aI0
aI5
aI-3
aa(lp88
V0020700248
p89
aVDEC 02, 2007
p90
aVSEA vs. GSW
p91
aVL
p92
aI19
aI3
aI6
aF0.5
aI0
aI2
aF0.0
aI0
aI0
aF0.0
aI0
aI2
aI2
aI3
aI0
aI0
aI4
aI0
aI6
aI-8
aa(lp93
V0020700407
p94
aVDEC 25, 2007
p95
aVSEA @ POR
p96
aVL
p97
aI3
aI0
aI0
aF0.0
aI0
aI0
aF0.0
aI0
aI0
aF0.0
aI0
aI0
aI0
aI0
aI0
aI0
aI0
aI0
aI0
aI-4
aa(lp98
V0020700421
p99
aVDEC 27, 2007
p100
aVSEA vs. BOS
p101
aVL
p102
aI25
aI6
aI8
aF0.75
aI1
aI1
aF1.0
aI6
aI8
aF0.75
aI0
aI4
aI4
aI8
aI0
aI0
aI1
aI1
aI19
aI8
aa(lp103
V0020700442
p104
aVDEC 29, 2007
p105
aVSEA vs. MIN
p106
aVW
p107
aI25
aI4
aI6
aF0.667
aI1
aI2
aF0.5
aI1
aI2
aF0.5
aI1
aI3
aI4
aI7
aI1
aI0
aI3
aI0
aI10
aI14
aa(lp108
V0020700456
p109
aVDEC 31, 2007
p110
aVSEA vs. PHI
p111
aVL
p112
aI25
aI6
aI15
aF0.4
aI1
aI5
aF0.2
aI0
aI0
aF0.0
aI2
aI5
aI7
aI4
aI0
aI1
aI3
aI2
aI13
aI-8
aa(lp113
V0020700471
p114
aVJAN 03, 2008
p115
aVSEA @ PHX
p116
aVL
p117
aI18
aI0
aI5
aF0.0
aI0
aI0
aF0.0
aI0
aI0
aF0.0
aI0
aI2
aI2
aI0
aI0
aI0
aI1
aI1
aI0
aI-12
aa(lp118
V0020700491
p119
aVJAN 06, 2008
p120
aVSEA @ WAS
p121
aVL
p122
aI28
aI4
aI9
aF0.444
aI1
aI2
aF0.5
aI0
aI0
aF0.0
aI1
aI1
aI2
aI4
aI2
aI0
aI1
aI1
aI9
aI-14
aa(lp123
V0020700503
p124
aVJAN 08, 2008
p125
aVSEA @ CLE
p126
aVL
p127
aI25
aI4
aI11
aF0.364
aI0
aI3
aF0.0
aI1
aI2
aF0.5
aI0
aI2
aI2
aI5
aI1
aI1
aI2
aI3
aI9
aI-5
aa(lp128
V0020700512
p129
aVJAN 09, 2008
p130
aVSEA @ NJN
p131
aVL
p132
aI24
aI1
aI7
aF0.143
aI0
aI2
aF0.0
aI0
aI0
aF0.0
aI0
aI7
aI7
aI5
aI3
aI0
aI2
aI0
aI2
aI0
aa(lp133
V0020700533
p134
aVJAN 11, 2008
p135
aVSEA vs. DAL
p136
aVL
p137
aI21
aI1
aI9
aF0.111
aI0
aI2
aF0.0
aI0
aI0
aF0.0
aI1
aI2
aI3
aI3
aI1
aI0
aI2
aI0
aI2
aI-14
aa(lp138
V0020700553
p139
aVJAN 14, 2008
p140
aVSEA vs. LAL
p141
aVL
p142
aI9
aI1
aI2
aF0.5
aI0
aI1
aF0.0
aI0
aI0
aF0.0
aI0
aI2
aI2
aI0
aI0
aI0
aI3
aI0
aI2
aI-4
aa(lp143
V0020700591
p144
aVJAN 19, 2008
p145
aVSEA @ DAL
p146
aVL
p147
aI12
aI1
aI6
aF0.167
aI0
aI1
aF0.0
aI0
aI0
aF0.0
aI0
aI1
aI1
aI1
aI3
aI0
aI1
aI1
aI2
aI-1
aa(lp148
V0020700663
p149
aVJAN 29, 2008
p150
aVSEA vs. SAS
p151
aVW
p152
aI14
aI0
aI4
aF0.0
aI0
aI1
aF0.0
aI0
aI0
aF0.0
aI0
aI1
aI1
aI2
aI0
aI2
aI0
aI1
aI0
aI0
aa(lp153
V0020700677
p154
aVJAN 31, 2008
p155
aVSEA vs. CLE
p156
aVW
p157
aI18
aI1
aI3
aF0.333
aI0
aI1
aF0.0
aI0
aI0
aF0.0
aI0
aI5
aI5
aI4
aI1
aI0
aI0
aI1
aI2
aI-4
aa(lp158
V0020700695
p159
aVFEB 02, 2008
p160
aVSEA vs. NYK
p161
aVW
p162
aI30
aI3
aI13
aF0.231
aI1
aI6
aF0.167
aI1
aI1
aF1.0
aI0
aI2
aI2
aI2
aI3
aI0
aI1
aI1
aI8
aI-10
aa(lp163
V0020700706
p164
aVFEB 04, 2008
p165
aVSEA vs. CHI
p166
aVL
p167
aI17
aI3
aI6
aF0.5
aI1
aI3
aF0.333
aI4
aI4
aF1.0
aI2
aI1
aI3
aI2
aI1
aI1
aI0
aI2
aI11
aI-2
aa(lp168
V0020700721
p169
aVFEB 06, 2008
p170
aVSEA @ SAC
p171
aVW
p172
aI10
aI1
aI1
aF1.0
aI0
aI0
aF0.0
aI0
aI0
aF0.0
aI0
aI1
aI1
aI0
aI0
aI0
aI1
aI0
aI2
aI-10
aa(lp173
V0020700788
p174
aVFEB 19, 2008
p175
aVSEA vs. MEM
p176
aVW
p177
aI33
aI4
aI12
aF0.333
aI1
aI2
aF0.5
aI0
aI0
aF0.0
aI0
aI5
aI5
aI7
aI1
aI0
aI3
aI0
aI9
aI11
aa(lp178
V0020700826
p179
aVFEB 24, 2008
p180
aVCLE vs. MEM
p181
aVW
p182
aI31
aI2
aI12
aF0.167
aI1
aI5
aF0.2
aI0
aI0
aF0.0
aI0
aI1
aI1
aI6
aI3
aI1
aI2
aI5
aI5
aI11
aa(lp183
V0020700839
p184
aVFEB 26, 2008
p185
aVCLE @ MIL
p186
aVL
p187
aI29
aI3
aI8
aF0.375
aI1
aI4
aF0.25
aI0
aI0
aF0.0
aI0
aI8
aI8
aI7
aI0
aI0
aI2
aI3
aI7
aI1
aa(lp188
V0020700849
p189
aVFEB 27, 2008
p190
aVCLE @ BOS
p191
aVL
p192
aI36
aI8
aI14
aF0.571
aI2
aI4
aF0.5
aI2
aI2
aF1.0
aI1
aI4
aI5
aI2
aI0
aI0
aI3
aI3
aI20
aI6
aa(lp193
V0020700861
p194
aVFEB 29, 2008
p195
aVCLE vs. MIN
p196
aVW
p197
aI42
aI5
aI10
aF0.5
aI1
aI4
aF0.25
aI1
aI2
aF0.5
aI0
aI3
aI3
aI5
aI1
aI2
aI1
aI3
aI12
aI6
aa(lp198
V0020700875
p199
aVMAR 02, 2008
p200
aVCLE vs. CHI
p201
aVW
p202
aI38
aI4
aI8
aF0.5
aI0
aI1
aF0.0
aI1
aI2
aF0.5
aI1
aI4
aI5
aI4
aI1
aI2
aI1
aI2
aI9
aI12
aa(lp203
V0020700900
p204
aVMAR 05, 2008
p205
aVCLE @ NYK
p206
aVW
p207
aI29
aI4
aI10
aF0.4
aI2
aI4
aF0.5
aI0
aI0
aF0.0
aI1
aI1
aI2
aI3
aI1
aI0
aI1
aI1
aI10
aI-1
aa(lp208
V0020700909
p209
aVMAR 06, 2008
p210
aVCLE @ CHI
p211
aVL
p212
aI26
aI2
aI5
aF0.4
aI0
aI0
aF0.0
aI0
aI0
aF0.0
aI0
aI4
aI4
aI3
aI0
aI2
aI4
aI2
aI4
aI-13
aa(lp213
V0020700924
p214
aVMAR 08, 2008
p215
aVCLE vs. IND
p216
aVW
p217
aI38
aI5
aI8
aF0.625
aI1
aI2
aF0.5
aI3
aI4
aF0.75
aI1
aI3
aI4
aI6
aI3
aI1
aI3
aI2
aI14
aI12
aa(lp218
V0020700941
p219
aVMAR 10, 2008
p220
aVCLE vs. POR
p221
aVW
p222
aI34
aI4
aI7
aF0.571
aI2
aI4
aF0.5
aI0
aI0
aF0.0
aI0
aI3
aI3
aI3
aI1
aI0
aI0
aI1
aI10
aI5
aa(lp223
V0020700955
p224
aVMAR 12, 2008
p225
aVCLE @ NJN
p226
aVL
p227
aI19
aI1
aI3
aF0.333
aI1
aI2
aF0.5
aI2
aI2
aF1.0
aI0
aI1
aI1
aI2
aI0
aI0
aI5
aI3
aI5
aI-21
aa(lp228
V0020700963
p229
aVMAR 13, 2008
p230
aVCLE @ WAS
p231
aVL
p232
aI32
aI3
aI6
aF0.5
aI2
aI3
aF0.667
aI2
aI2
aF1.0
aI3
aI2
aI5
aI7
aI2
aI0
aI0
aI4
aI10
aI10
aa(lp233
V0020700987
p234
aVMAR 16, 2008
p235
aVCLE vs. CHA
p236
aVW
p237
aI33
aI3
aI12
aF0.25
aI1
aI6
aF0.167
aI0
aI0
aF0.0
aI1
aI3
aI4
aI4
aI0
aI1
aI0
aI1
aI7
aI7
aa(lp238
V0020700992
p239
aVMAR 17, 2008
p240
aVCLE @ ORL
p241
aVL
p242
aI30
aI5
aI12
aF0.417
aI1
aI5
aF0.2
aI5
aI5
aF1.0
aI2
aI4
aI6
aI3
aI0
aI2
aI3
aI3
aI16
aI-7
aa(lp243
V0020701011
p244
aVMAR 19, 2008
p245
aVCLE vs. DET
p246
aVW
p247
aI32
aI3
aI13
aF0.231
aI1
aI3
aF0.333
aI0
aI0
aF0.0
aI1
aI3
aI4
aI6
aI1
aI1
aI2
aI4
aI7
aI13
aa(lp248
V0020701024
p249
aVMAR 21, 2008
p250
aVCLE vs. TOR
p251
aVW
p252
aI21
aI1
aI3
aF0.333
aI0
aI0
aF0.0
aI1
aI1
aF1.0
aI0
aI1
aI1
aI4
aI0
aI0
aI3
aI0
aI3
aI-3
aa(lp253
V0020701036
p254
aVMAR 22, 2008
p255
aVCLE @ MIL
p256
aVL
p257
aI27
aI4
aI7
aF0.571
aI0
aI1
aF0.0
aI0
aI0
aF0.0
aI0
aI1
aI1
aI3
aI0
aI0
aI2
aI6
aI8
aI-7
aa(lp258
V0020701062
p259
aVMAR 26, 2008
p260
aVCLE vs. NOH
p261
aVL
p262
aI26
aI2
aI6
aF0.333
aI0
aI2
aF0.0
aI0
aI0
aF0.0
aI1
aI3
aI4
aI3
aI1
aI1
aI5
aI3
aI4
aI-5
aa(lp263
V0020701095
p264
aVMAR 30, 2008
p265
aVCLE vs. PHI
p266
aVW
p267
aI39
aI7
aI16
aF0.438
aI4
aI8
aF0.5
aI0
aI0
aF0.0
aI0
aI6
aI6
aI11
aI2
aI3
aI4
aI1
aI18
aI11
aa(lp268
V0020701114
p269
aVAPR 02, 2008
p270
aVCLE @ CHA
p271
aVW
p272
aI35
aI3
aI5
aF0.6
aI1
aI1
aF1.0
aI3
aI6
aF0.5
aI1
aI4
aI5
aI7
aI1
aI1
aI2
aI1
aI10
aI7
aa(lp273
V0020701123
p274
aVAPR 03, 2008
p275
aVCLE vs. CHI
p276
aVL
p277
aI29
aI5
aI10
aF0.5
aI1
aI3
aF0.333
aI0
aI0
aF0.0
aI1
aI1
aI2
aI5
aI4
aI0
aI0
aI2
aI11
aI-3
aa(lp278
V0020701137
p279
aVAPR 05, 2008
p280
aVCLE vs. ORL
p281
aVL
p282
aI33
aI7
aI10
aF0.7
aI1
aI4
aF0.25
aI4
aI6
aF0.667
aI0
aI1
aI1
aI4
aI1
aI0
aI1
aI4
aI19
aI-15
aa(lp283
V0020701168
p284
aVAPR 09, 2008
p285
aVCLE vs. NJN
p286
aVW
p287
aI24
aI4
aI8
aF0.5
aI2
aI4
aF0.5
aI2
aI2
aF1.0
aI0
aI6
aI6
aI1
aI0
aI1
aI1
aI2
aI12
aI-1
aa(lp288
V0020701179
p289
aVAPR 11, 2008
p290
aVCLE @ CHI
p291
aVL
p292
aI42
aI5
aI10
aF0.5
aI1
aI3
aF0.333
aI5
aI7
aF0.714
aI2
aI2
aI4
aI6
aI3
aI1
aI2
aI1
aI16
aI-1
aa(lp293
V0020701197
p294
aVAPR 13, 2008
p295
aVCLE vs. MIA
p296
aVW
p297
aI26
aI4
aI9
aF0.444
aI3
aI3
aF1.0
aI7
aI8
aF0.875
aI1
aI3
aI4
aI2
aI0
aI0
aI1
aI2
aI18
aI2
aa(lp298
V0020701204
p299
aVAPR 14, 2008
p300
aVCLE @ PHI
p301
aVW
p302
aI33
aI1
aI6
aF0.167
aI0
aI3
aF0.0
aI0
aI0
aF0.0
aI1
aI5
aI6
aI2
aI1
aI0
aI3
aI0
aI2
aI-6
aa(lp303
V0020701219
p304
aVAPR 16, 2008
p305
aVCLE vs. DET
p306
aVL
p307
aI21
aI4
aI7
aF0.571
aI0
aI0
aF0.0
aI3
aI3
aF1.0
aI0
aI2
aI2
aI7
aI3
aI0
aI0
aI0
aI11
aI11
aasS'name'
p308
VDelonte West
p309
sS'weight'
p310
V180
p311
sS'age'
p312
I24
sS'experience'
p313
I3
sS'height'
p314
V6-3
p315
sS'position'
p316
VGuard
p317
s.