(dp0
S'stats'
p1
(lp2
(lp3
V0020700012
p4
aVNOV 01, 2007
p5
aVMIA vs. DET
p6
aVL
p7
aI16
aI1
aI2
aF0.5
aI0
aI0
aF0.0
aI1
aI2
aF0.5
aI0
aI3
aI3
aI0
aI1
aI2
aI0
aI1
aI3
aI-3
aa(lp8
V0020700017
p9
aVNOV 02, 2007
p10
aVMIA @ IND
p11
aVL
p12
aI15
aI4
aI8
aF0.5
aI0
aI0
aF0.0
aI1
aI3
aF0.333
aI2
aI3
aI5
aI0
aI0
aI2
aI1
aI0
aI9
aI5
aa(lp13
V0020700038
p14
aVNOV 04, 2007
p15
aVMIA vs. CHA
p16
aVL
p17
aI16
aI1
aI3
aF0.333
aI0
aI0
aF0.0
aI6
aI8
aF0.75
aI2
aI2
aI4
aI0
aI0
aI1
aI1
aI0
aI8
aI-13
aa(lp18
V0020700059
p19
aVNOV 07, 2007
p20
aVMIA @ SAS
p21
aVL
p22
aI15
aI1
aI4
aF0.25
aI0
aI0
aF0.0
aI1
aI2
aF0.5
aI2
aI2
aI4
aI0
aI0
aI0
aI0
aI2
aI3
aI3
aa(lp23
V0020700070
p24
aVNOV 09, 2007
p25
aVMIA vs. PHX
p26
aVL
p27
aI11
aI1
aI3
aF0.333
aI0
aI0
aF0.0
aI0
aI0
aF0.0
aI2
aI2
aI4
aI0
aI0
aI2
aI3
aI4
aI2
aI4
aa(lp28
V0020700087
p29
aVNOV 11, 2007
p30
aVMIA @ NYK
p31
aVW
p32
aI12
aI2
aI2
aF1.0
aI0
aI0
aF0.0
aI0
aI0
aF0.0
aI0
aI4
aI4
aI0
aI0
aI1
aI4
aI2
aI4
aI1
aa(lp33
V0020700096
p34
aVNOV 13, 2007
p35
aVMIA @ CHA
p36
aVL
p37
aI10
aI0
aI2
aF0.0
aI0
aI0
aF0.0
aI0
aI0
aF0.0
aI1
aI0
aI1
aI0
aI0
aI1
aI0
aI1
aI0
aI-11
aa(lp38
V0020700109
p39
aVNOV 14, 2007
p40
aVMIA vs. SEA
p41
aVL
p42
aI23
aI4
aI9
aF0.444
aI0
aI0
aF0.0
aI5
aI9
aF0.556
aI3
aI3
aI6
aI1
aI1
aI1
aI1
aI1
aI13
aI-6
aa(lp43
V0020700121
p44
aVNOV 16, 2007
p45
aVMIA @ BOS
p46
aVL
p47
aI19
aI2
aI3
aF0.667
aI0
aI0
aF0.0
aI2
aI5
aF0.4
aI1
aI2
aI3
aI0
aI0
aI3
aI0
aI1
aI6
aI-1
aa(lp48
V0020700134
p49
aVNOV 17, 2007
p50
aVMIA @ NJN
p51
aVW
p52
aI22
aI5
aI9
aF0.556
aI0
aI0
aF0.0
aI0
aI0
aF0.0
aI2
aI3
aI5
aI2
aI0
aI0
aI1
aI1
aI10
aI16
aa(lp53
V0020700159
p54
aVNOV 21, 2007
p55
aVMIA vs. ATL
p56
aVL
p57
aI18
aI1
aI1
aF1.0
aI0
aI0
aF0.0
aI3
aI4
aF0.75
aI2
aI4
aI6
aI1
aI0
aI1
aI2
aI3
aI5
aI-3
aa(lp58
V0020700173
p59
aVNOV 23, 2007
p60
aVMIA vs. HOU
p61
aVW
p62
aI10
aI2
aI3
aF0.667
aI0
aI0
aF0.0
aI1
aI2
aF0.5
aI0
aI1
aI1
aI0
aI0
aI0
aI1
aI5
aI5
aI-1
aa(lp63
V0020700186
p64
aVNOV 24, 2007
p65
aVMIA @ ORL
p66
aVL
p67
aI13
aI1
aI2
aF0.5
aI0
aI0
aF0.0
aI0
aI0
aF0.0
aI1
aI4
aI5
aI0
aI0
aI1
aI1
aI4
aI2
aI-8
aa(lp68
V0020700206
p69
aVNOV 27, 2007
p70
aVMIA vs. CHA
p71
aVW
p72
aI21
aI2
aI2
aF1.0
aI0
aI0
aF0.0
aI4
aI6
aF0.667
aI1
aI4
aI5
aI0
aI0
aI4
aI0
aI4
aI8
aI24
aa(lp73
V0020700228
p74
aVNOV 30, 2007
p75
aVMIA vs. BOS
p76
aVL
p77
aI13
aI0
aI0
aF0.0
aI0
aI0
aF0.0
aI0
aI0
aF0.0
aI0
aI0
aI0
aI0
aI1
aI4
aI2
aI3
aI0
aI-3
aa(lp78
V0020700247
p79
aVDEC 02, 2007
p80
aVMIA @ DEN
p81
aVL
p82
aI15
aI2
aI4
aF0.5
aI0
aI0
aF0.0
aI3
aI4
aF0.75
aI2
aI6
aI8
aI0
aI0
aI3
aI1
aI4
aI7
aI-7
aa(lp83
V0020700254
p84
aVDEC 03, 2007
p85
aVMIA @ UTA
p86
aVL
p87
aI23
aI5
aI8
aF0.625
aI0
aI0
aF0.0
aI3
aI6
aF0.5
aI2
aI3
aI5
aI1
aI0
aI2
aI1
aI2
aI13
aI3
aa(lp88
V0020700275
p89
aVDEC 06, 2007
p90
aVMIA @ POR
p91
aVL
p92
aI13
aI1
aI3
aF0.333
aI0
aI0
aF0.0
aI4
aI6
aF0.667
aI2
aI0
aI2
aI0
aI0
aI0
aI0
aI1
aI6
aI-12
aa(lp93
V0020700285
p94
aVDEC 07, 2007
p95
aVMIA @ GSW
p96
aVL
p97
aI13
aI1
aI1
aF1.0
aI0
aI0
aF0.0
aI3
aI6
aF0.5
aI1
aI0
aI1
aI0
aI0
aI2
aI1
aI2
aI5
aI-3
aa(lp98
V0020700295
p99
aVDEC 09, 2007
p100
aVMIA @ LAC
p101
aVW
p102
aI15
aI3
aI7
aF0.429
aI0
aI0
aF0.0
aI2
aI3
aF0.667
aI2
aI1
aI3
aI0
aI0
aI1
aI0
aI1
aI8
aI2
aa(lp103
V0020700304
p104
aVDEC 10, 2007
p105
aVMIA @ PHX
p106
aVW
p107
aI19
aI3
aI5
aF0.6
aI0
aI0
aF0.0
aI1
aI2
aF0.5
aI1
aI0
aI1
aI0
aI0
aI3
aI4
aI3
aI7
aI-7
aa(lp108
V0020700325
p109
aVDEC 13, 2007
p110
aVMIA vs. WAS
p111
aVL
p112
aI13
aI2
aI2
aF1.0
aI0
aI0
aF0.0
aI0
aI0
aF0.0
aI1
aI3
aI4
aI2
aI0
aI1
aI0
aI4
aI4
aI6
aa(lp113
V0020700343
p114
aVDEC 15, 2007
p115
aVMIA vs. IND
p116
aVL
p117
aI22
aI2
aI6
aF0.333
aI0
aI0
aF0.0
aI2
aI2
aF1.0
aI0
aI2
aI2
aI0
aI1
aI4
aI0
aI5
aI6
aI-7
aa(lp118
V0020700357
p119
aVDEC 17, 2007
p120
aVMIA vs. MIN
p121
aVW
p122
aI18
aI4
aI4
aF1.0
aI0
aI0
aF0.0
aI2
aI4
aF0.5
aI4
aI6
aI10
aI0
aI0
aI3
aI1
aI1
aI10
aI-5
aa(lp123
V0020700367
p124
aVDEC 19, 2007
p125
aVMIA @ ATL
p126
aVL
p127
aI5
aI2
aI2
aF1.0
aI0
aI0
aF0.0
aI1
aI2
aF0.5
aI0
aI1
aI1
aI0
aI0
aI0
aI0
aI1
aI5
aI1
aasS'name'
p128
VAlonzo Mourning
p129
sS'weight'
p130
V261
p131
sS'age'
p132
I37
sS'experience'
p133
I15
sS'height'
p134
V6-10
p135
sS'position'
p136
VCenter
p137
s.