(dp0
S'age'
p1
I32
sS'stats'
p2
(lp3
(lp4
V0020701219
p5
aVAPR 16, 2008
p6
aVCLE vs. DET
p7
aVL
p8
aI20
aI3
aI6
aF0.5
aI0
aI0
aF0.0
aI3
aI4
aF0.75
aI5
aI4
aI9
aI1
aI0
aI0
aI0
aI4
aI9
aI-1
aa(lp9
V0020701204
p10
aVAPR 14, 2008
p11
aVCLE @ PHI
p12
aVW
p13
aI10
aI0
aI2
aF0.0
aI0
aI0
aF0.0
aI0
aI0
aF0.0
aI0
aI2
aI2
aI0
aI0
aI0
aI0
aI0
aI0
aI-7
aa(lp14
V0020701197
p15
aVAPR 13, 2008
p16
aVCLE vs. MIA
p17
aVW
p18
aI18
aI2
aI5
aF0.4
aI0
aI0
aF0.0
aI0
aI0
aF0.0
aI3
aI1
aI4
aI0
aI0
aI0
aI0
aI1
aI4
aI-7
aa(lp19
V0020701179
p20
aVAPR 11, 2008
p21
aVCLE @ CHI
p22
aVL
p23
aI25
aI9
aI16
aF0.563
aI0
aI0
aF0.0
aI2
aI3
aF0.667
aI2
aI3
aI5
aI2
aI1
aI1
aI2
aI3
aI20
aI11
aa(lp24
V0020701168
p25
aVAPR 09, 2008
p26
aVCLE vs. NJN
p27
aVW
p28
aI28
aI2
aI6
aF0.333
aI0
aI0
aF0.0
aI3
aI4
aF0.75
aI0
aI3
aI3
aI1
aI0
aI1
aI3
aI3
aI7
aI32
aa(lp29
V0020701137
p30
aVAPR 05, 2008
p31
aVCLE vs. ORL
p32
aVL
p33
aI17
aI3
aI5
aF0.6
aI0
aI0
aF0.0
aI1
aI2
aF0.5
aI2
aI0
aI2
aI0
aI0
aI0
aI1
aI2
aI7
aI-9
aa(lp34
V0020701123
p35
aVAPR 03, 2008
p36
aVCLE vs. CHI
p37
aVL
p38
aI13
aI2
aI5
aF0.4
aI0
aI0
aF0.0
aI1
aI2
aF0.5
aI0
aI3
aI3
aI1
aI0
aI0
aI0
aI2
aI5
aI-4
aa(lp39
V0020701114
p40
aVAPR 02, 2008
p41
aVCLE @ CHA
p42
aVW
p43
aI25
aI6
aI8
aF0.75
aI0
aI0
aF0.0
aI1
aI2
aF0.5
aI1
aI2
aI3
aI0
aI1
aI1
aI1
aI4
aI13
aI-7
aa(lp44
V0020701095
p45
aVMAR 30, 2008
p46
aVCLE vs. PHI
p47
aVW
p48
aI32
aI5
aI8
aF0.625
aI0
aI1
aF0.0
aI3
aI4
aF0.75
aI1
aI7
aI8
aI0
aI0
aI0
aI1
aI2
aI13
aI13
aa(lp49
V0020701085
p50
aVMAR 29, 2008
p51
aVCLE @ DET
p52
aVL
p53
aI14
aI4
aI4
aF1.0
aI0
aI0
aF0.0
aI2
aI2
aF1.0
aI1
aI4
aI5
aI0
aI0
aI0
aI0
aI1
aI10
aI7
aa(lp54
V0020701062
p55
aVMAR 26, 2008
p56
aVCLE vs. NOH
p57
aVL
p58
aI21
aI3
aI7
aF0.429
aI0
aI0
aF0.0
aI0
aI2
aF0.0
aI0
aI3
aI3
aI0
aI0
aI2
aI1
aI4
aI6
aI9
aa(lp59
V0020701036
p60
aVMAR 22, 2008
p61
aVCLE @ MIL
p62
aVL
p63
aI30
aI1
aI5
aF0.2
aI0
aI0
aF0.0
aI3
aI4
aF0.75
aI5
aI3
aI8
aI0
aI0
aI2
aI0
aI5
aI5
aI1
aa(lp64
V0020701024
p65
aVMAR 21, 2008
p66
aVCLE vs. TOR
p67
aVW
p68
aI19
aI3
aI4
aF0.75
aI0
aI0
aF0.0
aI0
aI0
aF0.0
aI1
aI0
aI1
aI1
aI0
aI0
aI0
aI2
aI6
aI8
aa(lp69
V0020701011
p70
aVMAR 19, 2008
p71
aVCLE vs. DET
p72
aVW
p73
aI6
aI1
aI1
aF1.0
aI0
aI0
aF0.0
aI1
aI2
aF0.5
aI1
aI0
aI1
aI1
aI0
aI0
aI0
aI1
aI3
aI-3
aa(lp74
V0020700992
p75
aVMAR 17, 2008
p76
aVCLE @ ORL
p77
aVL
p78
aI20
aI3
aI6
aF0.5
aI0
aI0
aF0.0
aI1
aI2
aF0.5
aI0
aI4
aI4
aI0
aI0
aI1
aI1
aI3
aI7
aI-10
aa(lp79
V0020700987
p80
aVMAR 16, 2008
p81
aVCLE vs. CHA
p82
aVW
p83
aI20
aI2
aI5
aF0.4
aI0
aI0
aF0.0
aI0
aI0
aF0.0
aI1
aI2
aI3
aI1
aI0
aI1
aI0
aI2
aI4
aI-3
aa(lp84
V0020700963
p85
aVMAR 13, 2008
p86
aVCLE @ WAS
p87
aVL
p88
aI23
aI1
aI5
aF0.2
aI0
aI0
aF0.0
aI5
aI8
aF0.625
aI3
aI6
aI9
aI0
aI0
aI1
aI2
aI3
aI7
aI-6
aa(lp89
V0020700955
p90
aVMAR 12, 2008
p91
aVCLE @ NJN
p92
aVL
p93
aI29
aI2
aI6
aF0.333
aI0
aI0
aF0.0
aI1
aI2
aF0.5
aI3
aI4
aI7
aI3
aI1
aI0
aI0
aI2
aI5
aI-11
aa(lp94
V0020700941
p95
aVMAR 10, 2008
p96
aVCLE vs. POR
p97
aVW
p98
aI26
aI5
aI10
aF0.5
aI0
aI0
aF0.0
aI8
aI8
aF1.0
aI3
aI2
aI5
aI0
aI0
aI1
aI1
aI5
aI18
aI13
aa(lp99
V0020700924
p100
aVMAR 08, 2008
p101
aVCLE vs. IND
p102
aVW
p103
aI26
aI6
aI13
aF0.462
aI0
aI1
aF0.0
aI0
aI1
aF0.0
aI5
aI3
aI8
aI0
aI1
aI2
aI3
aI1
aI12
aI-13
aa(lp104
V0020700909
p105
aVMAR 06, 2008
p106
aVCLE @ CHI
p107
aVL
p108
aI23
aI1
aI4
aF0.25
aI0
aI0
aF0.0
aI3
aI6
aF0.5
aI2
aI3
aI5
aI1
aI0
aI2
aI1
aI4
aI5
aI4
aa(lp109
V0020700900
p110
aVMAR 05, 2008
p111
aVCLE @ NYK
p112
aVW
p113
aI22
aI4
aI6
aF0.667
aI0
aI0
aF0.0
aI0
aI2
aF0.0
aI7
aI4
aI11
aI2
aI2
aI1
aI0
aI5
aI8
aI8
aa(lp114
V0020700875
p115
aVMAR 02, 2008
p116
aVCLE vs. CHI
p117
aVW
p118
aI25
aI3
aI7
aF0.429
aI0
aI0
aF0.0
aI2
aI2
aF1.0
aI3
aI3
aI6
aI2
aI3
aI0
aI1
aI2
aI8
aI5
aa(lp119
V0020700861
p120
aVFEB 29, 2008
p121
aVCLE vs. MIN
p122
aVW
p123
aI17
aI1
aI2
aF0.5
aI0
aI0
aF0.0
aI0
aI0
aF0.0
aI0
aI3
aI3
aI1
aI0
aI0
aI1
aI1
aI2
aI8
aa(lp124
V0020700849
p125
aVFEB 27, 2008
p126
aVCLE @ BOS
p127
aVL
p128
aI15
aI4
aI5
aF0.8
aI0
aI0
aF0.0
aI1
aI1
aF1.0
aI2
aI2
aI4
aI0
aI0
aI0
aI0
aI5
aI9
aI6
aa(lp129
V0020700839
p130
aVFEB 26, 2008
p131
aVCLE @ MIL
p132
aVL
p133
aI29
aI5
aI11
aF0.455
aI0
aI0
aF0.0
aI2
aI2
aF1.0
aI3
aI5
aI8
aI2
aI0
aI0
aI1
aI1
aI12
aI4
aa(lp134
V0020700826
p135
aVFEB 24, 2008
p136
aVCLE vs. MEM
p137
aVW
p138
aI25
aI6
aI8
aF0.75
aI0
aI0
aF0.0
aI2
aI4
aF0.5
aI1
aI5
aI6
aI0
aI0
aI0
aI2
aI5
aI14
aI7
aa(lp139
V0020700793
p140
aVFEB 20, 2008
p141
aVCHI @ NJN
p142
aVL
p143
aI26
aI7
aI12
aF0.583
aI0
aI0
aF0.0
aI3
aI3
aF1.0
aI4
aI5
aI9
aI1
aI1
aI0
aI3
aI3
aI17
aI7
aa(lp144
V0020700778
p145
aVFEB 14, 2008
p146
aVCHI vs. MIA
p147
aVW
p148
aI34
aI7
aI13
aF0.538
aI0
aI0
aF0.0
aI5
aI6
aF0.833
aI4
aI7
aI11
aI2
aI1
aI0
aI0
aI4
aI19
aI8
aa(lp149
V0020700763
p150
aVFEB 12, 2008
p151
aVCHI vs. NOH
p152
aVL
p153
aI27
aI4
aI12
aF0.333
aI0
aI0
aF0.0
aI0
aI0
aF0.0
aI3
aI0
aI3
aI3
aI1
aI1
aI1
aI1
aI8
aI-13
aa(lp154
V0020700742
p155
aVFEB 09, 2008
p156
aVCHI @ UTA
p157
aVL
p158
aI31
aI5
aI13
aF0.385
aI0
aI0
aF0.0
aI4
aI7
aF0.571
aI0
aI4
aI4
aI1
aI0
aI1
aI3
aI4
aI14
aI-6
aa(lp159
V0020700725
p160
aVFEB 07, 2008
p161
aVCHI @ GSW
p162
aVW
p163
aI43
aI7
aI11
aF0.636
aI0
aI0
aF0.0
aI13
aI14
aF0.929
aI2
aI6
aI8
aI1
aI0
aI0
aI2
aI3
aI27
aI6
aa(lp164
V0020700722
p165
aVFEB 06, 2008
p166
aVCHI @ POR
p167
aVL
p168
aI30
aI7
aI13
aF0.538
aI0
aI0
aF0.0
aI2
aI4
aF0.5
aI2
aI3
aI5
aI1
aI0
aI0
aI1
aI2
aI16
aI-2
aa(lp169
V0020700706
p170
aVFEB 04, 2008
p171
aVCHI @ SEA
p172
aVW
p173
aI30
aI9
aI18
aF0.5
aI0
aI0
aF0.0
aI7
aI10
aF0.7
aI4
aI6
aI10
aI2
aI0
aI2
aI1
aI2
aI25
aI11
aa(lp174
V0020700694
p175
aVFEB 02, 2008
p176
aVCHI @ SAC
p177
aVL
p178
aI16
aI4
aI7
aF0.571
aI0
aI0
aF0.0
aI1
aI2
aF0.5
aI2
aI3
aI5
aI0
aI1
aI0
aI1
aI1
aI9
aI5
aa(lp179
V0020700642
p180
aVJAN 27, 2008
p181
aVCHI vs. PHX
p182
aVL
p183
aI23
aI2
aI12
aF0.167
aI0
aI0
aF0.0
aI0
aI0
aF0.0
aI3
aI3
aI6
aI1
aI0
aI0
aI2
aI2
aI4
aI3
aa(lp184
V0020700632
p185
aVJAN 25, 2008
p186
aVCHI vs. CHA
p187
aVL
p188
aI10
aI1
aI4
aF0.25
aI0
aI0
aF0.0
aI0
aI0
aF0.0
aI0
aI1
aI1
aI1
aI0
aI0
aI0
aI1
aI2
aI0
aa(lp189
V0020700617
p190
aVJAN 23, 2008
p191
aVCHI vs. IND
p192
aVW
p193
aI14
aI2
aI5
aF0.4
aI0
aI0
aF0.0
aI2
aI2
aF1.0
aI1
aI4
aI5
aI0
aI0
aI0
aI1
aI3
aI6
aI-4
aa(lp194
V0020700604
p195
aVJAN 21, 2008
p196
aVCHI @ MEM
p197
aVL
p198
aI18
aI3
aI9
aF0.333
aI0
aI0
aF0.0
aI1
aI1
aF1.0
aI3
aI3
aI6
aI0
aI0
aI0
aI0
aI2
aI7
aI-1
aa(lp199
V0020700588
p200
aVJAN 19, 2008
p201
aVCHI vs. DET
p202
aVW
p203
aI23
aI3
aI10
aF0.3
aI0
aI0
aF0.0
aI0
aI0
aF0.0
aI1
aI1
aI2
aI0
aI1
aI1
aI2
aI1
aI6
aI-6
aa(lp204
V0020700582
p205
aVJAN 18, 2008
p206
aVCHI vs. GSW
p207
aVL
p208
aI31
aI4
aI9
aF0.444
aI0
aI0
aF0.0
aI5
aI6
aF0.833
aI1
aI3
aI4
aI3
aI0
aI0
aI2
aI5
aI13
aI-13
aa(lp209
V0020700564
p210
aVJAN 16, 2008
p211
aVCHI @ MIA
p212
aVW
p213
aI27
aI9
aI10
aF0.9
aI0
aI0
aF0.0
aI5
aI5
aF1.0
aI1
aI4
aI5
aI1
aI1
aI0
aI0
aI2
aI23
aI11
aa(lp214
V0020700555
p215
aVJAN 15, 2008
p216
aVCHI @ ORL
p217
aVL
p218
aI25
aI5
aI10
aF0.5
aI0
aI0
aF0.0
aI3
aI7
aF0.429
aI1
aI1
aI2
aI0
aI2
aI1
aI1
aI2
aI13
aI-20
aa(lp219
V0020700542
p220
aVJAN 13, 2008
p221
aVCHI @ ATL
p222
aVL
p223
aI34
aI6
aI17
aF0.353
aI0
aI0
aF0.0
aI0
aI0
aF0.0
aI3
aI5
aI8
aI1
aI1
aI2
aI2
aI3
aI12
aI-12
aa(lp224
V0020700523
p225
aVJAN 11, 2008
p226
aVCHI @ PHI
p227
aVW
p228
aI35
aI8
aI18
aF0.444
aI0
aI0
aF0.0
aI3
aI4
aF0.75
aI3
aI3
aI6
aI1
aI0
aI2
aI0
aI3
aI19
aI-8
aa(lp229
V0020700506
p230
aVJAN 08, 2008
p231
aVCHI vs. NYK
p232
aVL
p233
aI34
aI11
aI19
aF0.579
aI0
aI1
aF0.0
aI0
aI0
aF0.0
aI5
aI7
aI12
aI1
aI1
aI1
aI1
aI4
aI22
aI-11
aa(lp234
V0020700486
p235
aVJAN 05, 2008
p236
aVCHI vs. SAC
p237
aVW
p238
aI31
aI3
aI13
aF0.231
aI0
aI0
aF0.0
aI3
aI4
aF0.75
aI0
aI7
aI7
aI1
aI2
aI3
aI2
aI3
aI9
aI6
aa(lp239
V0020700469
p240
aVJAN 03, 2008
p241
aVCHI vs. POR
p242
aVL
p243
aI45
aI11
aI17
aF0.647
aI0
aI0
aF0.0
aI9
aI10
aF0.9
aI9
aI2
aI11
aI1
aI1
aI4
aI0
aI4
aI31
aI-10
aa(lp244
V0020700458
p245
aVJAN 02, 2008
p246
aVCHI @ CHA
p247
aVW
p248
aI24
aI8
aI16
aF0.5
aI0
aI0
aF0.0
aI0
aI0
aF0.0
aI1
aI3
aI4
aI2
aI0
aI1
aI1
aI0
aI16
aI6
aa(lp249
V0020700450
p250
aVDEC 31, 2007
p251
aVCHI vs. ORL
p252
aVL
p253
aI23
aI6
aI15
aF0.4
aI0
aI0
aF0.0
aI4
aI5
aF0.8
aI5
aI4
aI9
aI2
aI0
aI1
aI0
aI2
aI16
aI15
aa(lp254
V0020700443
p255
aVDEC 30, 2007
p256
aVCHI @ NYK
p257
aVW
p258
aI22
aI6
aI11
aF0.545
aI0
aI0
aF0.0
aI1
aI2
aF0.5
aI0
aI3
aI3
aI0
aI1
aI0
aI2
aI5
aI13
aI8
aa(lp259
V0020700427
p260
aVDEC 28, 2007
p261
aVCHI vs. MIL
p262
aVW
p263
aI19
aI3
aI6
aF0.5
aI0
aI0
aF0.0
aI0
aI0
aF0.0
aI1
aI3
aI4
aI0
aI1
aI0
aI1
aI1
aI6
aI-1
aa(lp264
V0020700414
p265
aVDEC 26, 2007
p266
aVCHI @ SAS
p267
aVL
p268
aI30
aI9
aI13
aF0.692
aI0
aI0
aF0.0
aI1
aI2
aF0.5
aI4
aI7
aI11
aI2
aI0
aI2
aI0
aI2
aI19
aI4
aa(lp269
V0020700396
p270
aVDEC 22, 2007
p271
aVCHI vs. HOU
p272
aVL
p273
aI28
aI6
aI10
aF0.6
aI0
aI0
aF0.0
aI4
aI5
aF0.8
aI2
aI4
aI6
aI2
aI0
aI2
aI0
aI2
aI16
aI-1
aa(lp274
V0020700381
p275
aVDEC 21, 2007
p276
aVCHI @ BOS
p277
aVL
p278
aI17
aI1
aI2
aF0.5
aI0
aI0
aF0.0
aI0
aI0
aF0.0
aI0
aI1
aI1
aI1
aI1
aI0
aI0
aI1
aI2
aI-3
aa(lp279
V0020700365
p280
aVDEC 19, 2007
p281
aVCHI @ WAS
p282
aVW
p283
aI14
aI2
aI7
aF0.286
aI0
aI0
aF0.0
aI2
aI2
aF1.0
aI0
aI3
aI3
aI0
aI1
aI1
aI0
aI1
aI6
aI-10
aa(lp284
V0020700363
p285
aVDEC 18, 2007
p286
aVCHI vs. LAL
p287
aVL
p288
aI13
aI2
aI5
aF0.4
aI0
aI0
aF0.0
aI0
aI0
aF0.0
aI0
aI1
aI1
aI0
aI0
aI0
aI0
aI1
aI4
aI-6
aa(lp289
V0020700335
p290
aVDEC 14, 2007
p291
aVCHI vs. NYK
p292
aVW
p293
aI21
aI4
aI12
aF0.333
aI0
aI0
aF0.0
aI0
aI0
aF0.0
aI3
aI2
aI5
aI1
aI0
aI0
aI1
aI1
aI8
aI2
aa(lp294
V0020700317
p295
aVDEC 12, 2007
p296
aVCHI @ IND
p297
aVL
p298
aI22
aI7
aI14
aF0.5
aI0
aI0
aF0.0
aI2
aI2
aF1.0
aI3
aI2
aI5
aI3
aI2
aI0
aI0
aI3
aI16
aI-3
aa(lp299
V0020700311
p300
aVDEC 11, 2007
p301
aVCHI vs. SEA
p302
aVW
p303
aI27
aI8
aI10
aF0.8
aI0
aI0
aF0.0
aI3
aI4
aF0.75
aI1
aI2
aI3
aI2
aI0
aI0
aI5
aI3
aI19
aI18
aa(lp304
V0020700291
p305
aVDEC 08, 2007
p306
aVCHI vs. BOS
p307
aVL
p308
aI21
aI4
aI10
aF0.4
aI0
aI0
aF0.0
aI2
aI2
aF1.0
aI2
aI2
aI4
aI1
aI0
aI0
aI0
aI3
aI10
aI-10
aa(lp309
V0020700279
p310
aVDEC 07, 2007
p311
aVCHI @ DET
p312
aVW
p313
aI26
aI3
aI11
aF0.273
aI0
aI0
aF0.0
aI0
aI0
aF0.0
aI8
aI6
aI14
aI0
aI0
aI0
aI1
aI3
aI6
aI0
aa(lp314
V0020700265
p315
aVDEC 05, 2007
p316
aVCHI @ CHA
p317
aVW
p318
aI27
aI4
aI9
aF0.444
aI0
aI0
aF0.0
aI3
aI4
aF0.75
aI2
aI3
aI5
aI3
aI0
aI0
aI3
aI2
aI11
aI-9
aa(lp319
V0020700239
p320
aVDEC 01, 2007
p321
aVCHI vs. CHA
p322
aVW
p323
aI4
aI0
aI0
aF0.0
aI0
aI0
aF0.0
aI2
aI2
aF1.0
aI1
aI0
aI1
aI0
aI0
aI1
aI0
aI1
aI2
aI-3
aa(lp324
V0020700208
p325
aVNOV 27, 2007
p326
aVCHI vs. ATL
p327
aVW
p328
aI11
aI0
aI2
aF0.0
aI0
aI0
aF0.0
aI0
aI0
aF0.0
aI1
aI1
aI2
aI0
aI0
aI1
aI0
aI0
aI0
aI5
aa(lp329
V0020700192
p330
aVNOV 25, 2007
p331
aVCHI @ TOR
p332
aVL
p333
aI12
aI2
aI3
aF0.667
aI0
aI0
aF0.0
aI0
aI0
aF0.0
aI0
aI4
aI4
aI0
aI0
aI0
aI2
aI1
aI4
aI1
aa(lp334
V0020700182
p335
aVNOV 24, 2007
p336
aVCHI @ NYK
p337
aVL
p338
aI16
aI5
aI12
aF0.417
aI0
aI0
aF0.0
aI1
aI1
aF1.0
aI2
aI3
aI5
aI0
aI0
aI0
aI0
aI4
aI11
aI-12
aa(lp339
V0020700155
p340
aVNOV 20, 2007
p341
aVCHI @ DEN
p342
aVL
p343
aI17
aI2
aI5
aF0.4
aI0
aI0
aF0.0
aI2
aI2
aF1.0
aI1
aI3
aI4
aI3
aI0
aI0
aI0
aI3
aI6
aI-5
aa(lp344
V0020700144
p345
aVNOV 18, 2007
p346
aVCHI @ LAL
p347
aVL
p348
aI18
aI2
aI6
aF0.333
aI0
aI0
aF0.0
aI0
aI0
aF0.0
aI0
aI2
aI2
aI0
aI1
aI1
aI4
aI3
aI4
aI-9
aa(lp349
V0020700140
p350
aVNOV 17, 2007
p351
aVCHI @ LAC
p352
aVW
p353
aI17
aI3
aI5
aF0.6
aI0
aI0
aF0.0
aI0
aI0
aF0.0
aI2
aI1
aI3
aI0
aI0
aI1
aI1
aI1
aI6
aI7
aa(lp354
V0020700118
p355
aVNOV 15, 2007
p356
aVCHI @ PHX
p357
aVL
p358
aI11
aI2
aI7
aF0.286
aI0
aI0
aF0.0
aI0
aI0
aF0.0
aI1
aI4
aI5
aI0
aI0
aI0
aI1
aI1
aI4
aI-9
aa(lp359
V0020700082
p360
aVNOV 10, 2007
p361
aVCHI vs. TOR
p362
aVL
p363
aI11
aI0
aI4
aF0.0
aI0
aI0
aF0.0
aI0
aI0
aF0.0
aI2
aI1
aI3
aI0
aI1
aI0
aI0
aI0
aI0
aI-2
aa(lp364
V0020700064
p365
aVNOV 08, 2007
p366
aVCHI vs. DET
p367
aVW
p368
aI22
aI6
aI11
aF0.545
aI0
aI0
aF0.0
aI1
aI2
aF0.5
aI1
aI3
aI4
aI1
aI3
aI0
aI0
aI3
aI13
aI10
aa(lp369
V0020700049
p370
aVNOV 06, 2007
p371
aVCHI vs. LAC
p372
aVL
p373
aI25
aI5
aI11
aF0.455
aI0
aI0
aF0.0
aI7
aI7
aF1.0
aI3
aI4
aI7
aI1
aI0
aI0
aI0
aI1
aI17
aI-15
aa(lp374
V0020700031
p375
aVNOV 03, 2007
p376
aVCHI @ MIL
p377
aVL
p378
aI26
aI5
aI6
aF0.833
aI0
aI0
aF0.0
aI4
aI4
aF1.0
aI5
aI5
aI10
aI0
aI0
aI1
aI1
aI3
aI14
aI6
aa(lp379
V0020700024
p380
aVNOV 02, 2007
p381
aVCHI vs. PHI
p382
aVL
p383
aI11
aI0
aI2
aF0.0
aI0
aI0
aF0.0
aI2
aI2
aF1.0
aI2
aI0
aI2
aI0
aI0
aI0
aI0
aI2
aI2
aI-6
aa(lp384
V0020700007
p385
aVOCT 31, 2007
p386
aVCHI @ NJN
p387
aVL
p388
aI23
aI2
aI6
aF0.333
aI0
aI0
aF0.0
aI2
aI2
aF1.0
aI3
aI2
aI5
aI1
aI1
aI1
aI1
aI5
aI6
aI-5
aasS'name'
p389
VJoe Smith
p390
sS'experience'
p391
I12
s.