(dp0
S'stats'
p1
(lp2
(lp3
V0020700165
p4
aVNOV 21, 2007
p5
aVCLE @ MIN
p6
aVW
p7
aI13
aI0
aI2
aF0.0
aI0
aI0
aF0.0
aI0
aI0
aF0.0
aI1
aI0
aI1
aI2
aI0
aI0
aI1
aI2
aI0
aI0
aa(lp8
V0020700183
p9
aVNOV 24, 2007
p10
aVCLE vs. TOR
p11
aVW
p12
aI8
aI0
aI1
aF0.0
aI0
aI0
aF0.0
aI0
aI0
aF0.0
aI0
aI1
aI1
aI3
aI0
aI0
aI0
aI2
aI0
aI-1
aa(lp13
V0020700193
p14
aVNOV 25, 2007
p15
aVCLE @ IND
p16
aVW
p17
aI12
aI0
aI1
aF0.0
aI0
aI0
aF0.0
aI0
aI0
aF0.0
aI0
aI0
aI0
aI1
aI2
aI0
aI0
aI2
aI0
aI-12
aa(lp18
V0020700204
p19
aVNOV 27, 2007
p20
aVCLE vs. BOS
p21
aVW
p22
aI1
aI0
aI0
aF0.0
aI0
aI0
aF0.0
aI0
aI0
aF0.0
aI0
aI0
aI0
aI0
aI0
aI0
aI0
aI0
aI0
aI-5
aa(lp23
V0020700214
p24
aVNOV 28, 2007
p25
aVCLE @ DET
p26
aVL
p27
aI17
aI0
aI1
aF0.0
aI0
aI0
aF0.0
aI0
aI0
aF0.0
aI0
aI0
aI0
aI2
aI0
aI0
aI1
aI2
aI0
aI-28
aa(lp28
V0020700224
p29
aVNOV 30, 2007
p30
aVCLE @ TOR
p31
aVL
p32
aI10
aI0
aI2
aF0.0
aI0
aI0
aF0.0
aI2
aI4
aF0.5
aI0
aI2
aI2
aI0
aI1
aI1
aI1
aI1
aI2
aI-10
aa(lp33
V0020700242
p34
aVDEC 02, 2007
p35
aVCLE @ BOS
p36
aVL
p37
aI24
aI1
aI2
aF0.5
aI0
aI0
aF0.0
aI3
aI6
aF0.5
aI0
aI2
aI2
aI2
aI0
aI0
aI1
aI1
aI5
aI4
aa(lp38
V0020700257
p39
aVDEC 04, 2007
p40
aVCLE vs. NJN
p41
aVL
p42
aI25
aI0
aI3
aF0.0
aI0
aI0
aF0.0
aI1
aI2
aF0.5
aI3
aI3
aI6
aI3
aI0
aI1
aI0
aI4
aI1
aI3
aa(lp43
V0020700264
p44
aVDEC 05, 2007
p45
aVCLE @ WAS
p46
aVL
p47
aI8
aI0
aI1
aF0.0
aI0
aI0
aF0.0
aI0
aI0
aF0.0
aI0
aI0
aI0
aI1
aI0
aI0
aI1
aI0
aI0
aI-7
aa(lp48
V0020700287
p49
aVDEC 08, 2007
p50
aVCLE @ CHA
p51
aVL
p52
aI12
aI0
aI1
aF0.0
aI0
aI0
aF0.0
aI0
aI0
aF0.0
aI0
aI0
aI0
aI1
aI0
aI0
aI0
aI1
aI0
aI2
aa(lp53
V0020700308
p54
aVDEC 11, 2007
p55
aVCLE vs. IND
p56
aVW
p57
aI29
aI1
aI1
aF1.0
aI0
aI0
aF0.0
aI0
aI0
aF0.0
aI0
aI2
aI2
aI5
aI1
aI1
aI1
aI3
aI2
aI2
aa(lp58
V0020700331
p59
aVDEC 14, 2007
p60
aVCLE @ NJN
p61
aVL
p62
aI9
aI1
aI1
aF1.0
aI0
aI0
aF0.0
aI0
aI0
aF0.0
aI0
aI1
aI1
aI2
aI0
aI0
aI0
aI0
aI2
aI-5
aa(lp63
V0020700344
p64
aVDEC 15, 2007
p65
aVCLE vs. PHI
p66
aVL
p67
aI19
aI1
aI2
aF0.5
aI0
aI0
aF0.0
aI0
aI2
aF0.0
aI0
aI0
aI0
aI6
aI0
aI0
aI1
aI3
aI2
aI-4
aa(lp68
V0020700402
p69
aVDEC 23, 2007
p70
aVCLE vs. GSW
p71
aVL
p72
aI3
aI0
aI0
aF0.0
aI0
aI0
aF0.0
aI0
aI0
aF0.0
aI0
aI0
aI0
aI0
aI0
aI0
aI0
aI0
aI0
aI7
aa(lp73
V0020700405
p74
aVDEC 25, 2007
p75
aVCLE vs. MIA
p76
aVW
p77
aI1
aI0
aI0
aF0.0
aI0
aI0
aF0.0
aI0
aI0
aF0.0
aI0
aI0
aI0
aI0
aI0
aI0
aI0
aI0
aI0
aI-2
aa(lp78
V0020700503
p79
aVJAN 08, 2008
p80
aVCLE vs. SEA
p81
aVW
p82
aI4
aI0
aI0
aF0.0
aI0
aI0
aF0.0
aI0
aI0
aF0.0
aI0
aI0
aI0
aI0
aI0
aI0
aI0
aI1
aI0
aI-4
aa(lp83
V0020700612
p84
aVJAN 23, 2008
p85
aVCLE vs. WAS
p86
aVW
p87
aI9
aI0
aI4
aF0.0
aI0
aI2
aF0.0
aI0
aI0
aF0.0
aI0
aI1
aI1
aI5
aI0
aI0
aI0
aI0
aI0
aI0
aa(lp88
V0020700677
p89
aVJAN 31, 2008
p90
aVCLE @ SEA
p91
aVL
p92
aI16
aI1
aI1
aF1.0
aI0
aI0
aF0.0
aI0
aI2
aF0.0
aI0
aI1
aI1
aI0
aI1
aI0
aI0
aI1
aI2
aI-4
aa(lp93
V0020700724
p94
aVFEB 07, 2008
p95
aVCLE @ HOU
p96
aVL
p97
aI1
aI0
aI0
aF0.0
aI0
aI0
aF0.0
aI0
aI0
aF0.0
aI0
aI0
aI0
aI0
aI0
aI0
aI0
aI0
aI0
aI-2
aa(lp98
V0020700730
p99
aVFEB 08, 2008
p100
aVCLE @ ATL
p101
aVW
p102
aI27
aI0
aI4
aF0.0
aI0
aI0
aF0.0
aI2
aI2
aF1.0
aI0
aI0
aI0
aI5
aI5
aI0
aI1
aI3
aI2
aI7
aa(lp103
V0020700744
p104
aVFEB 10, 2008
p105
aVCLE vs. DEN
p106
aVL
p107
aI26
aI0
aI5
aF0.0
aI0
aI0
aF0.0
aI1
aI2
aF0.5
aI0
aI1
aI1
aI3
aI0
aI0
aI0
aI1
aI1
aI-16
aa(lp108
V0020700807
p109
aVFEB 22, 2008
p110
aVCLE vs. WAS
p111
aVW
p112
aI32
aI1
aI6
aF0.167
aI0
aI0
aF0.0
aI1
aI2
aF0.5
aI0
aI2
aI2
aI1
aI0
aI1
aI2
aI3
aI3
aI3
aasS'name'
p113
VEric Snow
p114
sS'weight'
p115
V205
p116
sS'age'
p117
I34
sS'experience'
p118
I12
sS'height'
p119
V6-3
p120
sS'position'
p121
VGuard
p122
s.