(dp0
S'age'
p1
I33
sS'stats'
p2
(lp3
(lp4
V0020700012
p5
aVNOV 01, 2007
p6
aVDET @ MIA
p7
aVW
p8
aI37
aI4
aI13
aF0.308
aI2
aI4
aF0.5
aI1
aI2
aF0.5
aI1
aI7
aI8
aI2
aI2
aI2
aI2
aI4
aI11
aI13
aa(lp9
V0020700016
p10
aVNOV 02, 2007
p11
aVDET @ ORL
p12
aVW
p13
aI31
aI6
aI10
aF0.6
aI2
aI4
aF0.5
aI2
aI2
aF1.0
aI0
aI7
aI7
aI1
aI2
aI3
aI2
aI4
aI16
aI14
aa(lp14
V0020700039
p15
aVNOV 04, 2007
p16
aVDET vs. ATL
p17
aVW
p18
aI37
aI3
aI12
aF0.25
aI0
aI3
aF0.0
aI2
aI4
aF0.5
aI1
aI5
aI6
aI5
aI1
aI3
aI0
aI3
aI8
aI3
aa(lp19
V0020700064
p20
aVNOV 08, 2007
p21
aVDET @ CHI
p22
aVL
p23
aI42
aI12
aI24
aF0.5
aI3
aI7
aF0.429
aI9
aI11
aF0.818
aI2
aI7
aI9
aI1
aI0
aI0
aI0
aI2
aI36
aI1
aa(lp24
V0020700072
p25
aVNOV 09, 2007
p26
aVDET vs. LAC
p27
aVW
p28
aI15
aI2
aI4
aF0.5
aI0
aI0
aF0.0
aI2
aI2
aF1.0
aI1
aI3
aI4
aI1
aI0
aI0
aI1
aI4
aI6
aI-3
aa(lp29
V0020700091
p30
aVNOV 11, 2007
p31
aVDET @ SEA
p32
aVW
p33
aI36
aI6
aI12
aF0.5
aI3
aI5
aF0.6
aI0
aI0
aF0.0
aI0
aI7
aI7
aI2
aI1
aI1
aI1
aI4
aI15
aI21
aa(lp34
V0020700103
p35
aVNOV 13, 2007
p36
aVDET @ POR
p37
aVL
p38
aI41
aI6
aI13
aF0.462
aI3
aI6
aF0.5
aI0
aI0
aF0.0
aI1
aI5
aI6
aI4
aI1
aI1
aI2
aI3
aI15
aI3
aa(lp39
V0020700116
p40
aVNOV 14, 2007
p41
aVDET @ GSW
p42
aVW
p43
aI31
aI8
aI18
aF0.444
aI2
aI4
aF0.5
aI4
aI4
aF1.0
aI1
aI8
aI9
aI3
aI1
aI0
aI1
aI4
aI22
aI7
aa(lp44
V0020700129
p45
aVNOV 16, 2007
p46
aVDET @ LAL
p47
aVL
p48
aI32
aI5
aI14
aF0.357
aI1
aI4
aF0.25
aI2
aI2
aF1.0
aI2
aI6
aI8
aI0
aI1
aI0
aI3
aI3
aI13
aI-10
aa(lp49
V0020700143
p50
aVNOV 18, 2007
p51
aVDET @ SAC
p52
aVL
p53
aI40
aI7
aI10
aF0.7
aI0
aI2
aF0.0
aI3
aI4
aF0.75
aI1
aI11
aI12
aI2
aI1
aI1
aI1
aI3
aI17
aI-2
aa(lp54
V0020700161
p55
aVNOV 21, 2007
p56
aVDET vs. NYK
p57
aVW
p58
aI16
aI3
aI7
aF0.429
aI2
aI4
aF0.5
aI0
aI0
aF0.0
aI0
aI3
aI3
aI0
aI1
aI1
aI1
aI2
aI8
aI17
aa(lp59
V0020700214
p60
aVNOV 28, 2007
p61
aVDET vs. CLE
p62
aVW
p63
aI25
aI3
aI8
aF0.375
aI0
aI4
aF0.0
aI3
aI3
aF1.0
aI2
aI6
aI8
aI3
aI2
aI2
aI1
aI0
aI9
aI14
aa(lp64
V0020700240
p65
aVDEC 01, 2007
p66
aVDET @ MIL
p67
aVW
p68
aI30
aI6
aI17
aF0.353
aI1
aI3
aF0.333
aI2
aI2
aF1.0
aI5
aI5
aI10
aI0
aI0
aI1
aI0
aI0
aI15
aI15
aa(lp69
V0020700246
p70
aVDEC 02, 2007
p71
aVDET vs. NJN
p72
aVW
p73
aI30
aI5
aI9
aF0.556
aI2
aI6
aF0.333
aI0
aI2
aF0.0
aI1
aI5
aI6
aI2
aI2
aI2
aI0
aI1
aI12
aI6
aa(lp74
V0020700256
p75
aVDEC 04, 2007
p76
aVDET @ ATL
p77
aVW
p78
aI16
aI4
aI5
aF0.8
aI2
aI2
aF1.0
aI1
aI1
aF1.0
aI0
aI4
aI4
aI3
aI2
aI1
aI2
aI4
aI11
aI7
aa(lp79
V0020700267
p80
aVDEC 05, 2007
p81
aVDET @ NOH
p82
aVW
p83
aI35
aI5
aI13
aF0.385
aI1
aI4
aF0.25
aI2
aI2
aF1.0
aI1
aI9
aI10
aI2
aI1
aI1
aI0
aI2
aI13
aI11
aa(lp84
V0020700279
p85
aVDEC 07, 2007
p86
aVDET vs. CHI
p87
aVL
p88
aI40
aI7
aI17
aF0.412
aI3
aI7
aF0.429
aI1
aI1
aF1.0
aI1
aI6
aI7
aI3
aI2
aI3
aI0
aI1
aI18
aI-4
aa(lp89
V0020700296
p90
aVDEC 09, 2007
p91
aVDET vs. CHA
p92
aVW
p93
aI25
aI3
aI6
aF0.5
aI1
aI4
aF0.25
aI0
aI0
aF0.0
aI4
aI3
aI7
aI1
aI2
aI0
aI1
aI3
aI7
aI20
aa(lp94
V0020700310
p95
aVDEC 11, 2007
p96
aVDET @ MEM
p97
aVW
p98
aI30
aI3
aI11
aF0.273
aI0
aI4
aF0.0
aI2
aI4
aF0.5
aI0
aI5
aI5
aI2
aI3
aI2
aI0
aI4
aI8
aI5
aa(lp99
V0020700321
p100
aVDEC 12, 2007
p101
aVDET @ HOU
p102
aVL
p103
aI33
aI7
aI17
aF0.412
aI2
aI6
aF0.333
aI5
aI5
aF1.0
aI1
aI7
aI8
aI2
aI0
aI1
aI1
aI6
aI21
aI1
aa(lp104
V0020700332
p105
aVDEC 14, 2007
p106
aVDET vs. ATL
p107
aVW
p108
aI28
aI2
aI7
aF0.286
aI0
aI1
aF0.0
aI0
aI2
aF0.0
aI0
aI2
aI2
aI1
aI1
aI1
aI0
aI5
aI4
aI-1
aa(lp109
V0020700350
p110
aVDEC 16, 2007
p111
aVDET vs. GSW
p112
aVW
p113
aI23
aI3
aI10
aF0.3
aI0
aI2
aF0.0
aI0
aI0
aF0.0
aI1
aI5
aI6
aI2
aI2
aI2
aI1
aI2
aI6
aI-3
aa(lp114
V0020700369
p115
aVDEC 19, 2007
p116
aVDET @ BOS
p117
aVW
p118
aI37
aI3
aI10
aF0.3
aI3
aI5
aF0.6
aI0
aI0
aF0.0
aI2
aI11
aI13
aI3
aI2
aI1
aI5
aI5
aI9
aI-2
aa(lp119
V0020700386
p120
aVDEC 21, 2007
p121
aVDET vs. MEM
p122
aVW
p123
aI30
aI3
aI9
aF0.333
aI1
aI4
aF0.25
aI0
aI0
aF0.0
aI2
aI4
aI6
aI2
aI3
aI2
aI0
aI1
aI7
aI17
aa(lp124
V0020700401
p125
aVDEC 23, 2007
p126
aVDET vs. HOU
p127
aVW
p128
aI29
aI5
aI7
aF0.714
aI2
aI2
aF1.0
aI2
aI2
aF1.0
aI1
aI9
aI10
aI2
aI1
aI1
aI3
aI3
aI14
aI15
aa(lp129
V0020700412
p130
aVDEC 26, 2007
p131
aVDET @ NJN
p132
aVW
p133
aI33
aI6
aI11
aF0.545
aI1
aI3
aF0.333
aI0
aI0
aF0.0
aI1
aI5
aI6
aI1
aI1
aI2
aI0
aI2
aI13
aI12
aa(lp134
V0020700425
p135
aVDEC 28, 2007
p136
aVDET vs. IND
p137
aVW
p138
aI28
aI4
aI12
aF0.333
aI0
aI2
aF0.0
aI2
aI2
aF1.0
aI0
aI5
aI5
aI1
aI1
aI3
aI0
aI3
aI10
aI8
aa(lp139
V0020700437
p140
aVDEC 29, 2007
p141
aVDET @ IND
p142
aVW
p143
aI36
aI4
aI11
aF0.364
aI1
aI5
aF0.2
aI1
aI2
aF0.5
aI1
aI9
aI10
aI2
aI2
aI2
aI2
aI3
aI10
aI10
aa(lp144
V0020700451
p145
aVDEC 31, 2007
p146
aVDET vs. MIL
p147
aVW
p148
aI32
aI3
aI8
aF0.375
aI1
aI4
aF0.25
aI0
aI0
aF0.0
aI0
aI3
aI3
aI4
aI2
aI1
aI1
aI2
aI7
aI24
aa(lp149
V0020700457
p150
aVJAN 02, 2008
p151
aVDET @ WAS
p152
aVW
p153
aI33
aI6
aI15
aF0.4
aI3
aI7
aF0.429
aI1
aI1
aF1.0
aI0
aI8
aI8
aI3
aI0
aI2
aI5
aI3
aI16
aI17
aa(lp154
V0020700472
p155
aVJAN 04, 2008
p156
aVDET @ TOR
p157
aVW
p158
aI34
aI7
aI12
aF0.583
aI5
aI7
aF0.714
aI1
aI2
aF0.5
aI1
aI5
aI6
aI1
aI0
aI0
aI2
aI4
aI20
aI12
aa(lp159
V0020700485
p160
aVJAN 05, 2008
p161
aVDET vs. BOS
p162
aVL
p163
aI36
aI7
aI16
aF0.438
aI2
aI4
aF0.5
aI0
aI0
aF0.0
aI0
aI8
aI8
aI0
aI0
aI4
aI1
aI3
aI16
aI0
aa(lp164
V0020700516
p165
aVJAN 09, 2008
p166
aVDET @ DAL
p167
aVL
p168
aI31
aI4
aI9
aF0.444
aI1
aI1
aF1.0
aI0
aI0
aF0.0
aI1
aI10
aI11
aI0
aI0
aI3
aI2
aI2
aI9
aI-15
aa(lp169
V0020700520
p170
aVJAN 10, 2008
p171
aVDET @ SAS
p172
aVW
p173
aI40
aI9
aI15
aF0.6
aI1
aI4
aF0.25
aI4
aI4
aF1.0
aI2
aI13
aI15
aI3
aI3
aI2
aI1
aI3
aI23
aI9
aa(lp174
V0020700535
p175
aVJAN 12, 2008
p176
aVDET @ CHA
p177
aVW
p178
aI36
aI4
aI11
aF0.364
aI0
aI3
aF0.0
aI2
aI2
aF1.0
aI2
aI4
aI6
aI2
aI4
aI2
aI1
aI5
aI10
aI3
aa(lp179
V0020700544
p180
aVJAN 13, 2008
p181
aVDET @ NYK
p182
aVL
p183
aI25
aI3
aI9
aF0.333
aI0
aI3
aF0.0
aI0
aI0
aF0.0
aI1
aI2
aI3
aI1
aI0
aI0
aI1
aI2
aI6
aI-18
aa(lp184
V0020700557
p185
aVJAN 15, 2008
p186
aVDET vs. TOR
p187
aVW
p188
aI31
aI3
aI11
aF0.273
aI0
aI2
aF0.0
aI3
aI3
aF1.0
aI1
aI3
aI4
aI2
aI1
aI1
aI2
aI0
aI9
aI14
aa(lp189
V0020700577
p190
aVJAN 18, 2008
p191
aVDET vs. SAC
p192
aVL
p193
aI34
aI3
aI12
aF0.25
aI1
aI6
aF0.167
aI0
aI2
aF0.0
aI5
aI2
aI7
aI4
aI1
aI1
aI0
aI4
aI7
aI-7
aa(lp194
V0020700588
p195
aVJAN 19, 2008
p196
aVDET @ CHI
p197
aVL
p198
aI25
aI2
aI8
aF0.25
aI0
aI3
aF0.0
aI0
aI0
aF0.0
aI0
aI5
aI5
aI2
aI0
aI3
aI0
aI4
aI4
aI-7
aa(lp199
V0020700605
p200
aVJAN 21, 2008
p201
aVDET @ ORL
p202
aVL
p203
aI39
aI6
aI15
aF0.4
aI1
aI3
aF0.333
aI2
aI6
aF0.333
aI3
aI12
aI15
aI2
aI5
aI0
aI2
aI3
aI15
aI5
aa(lp204
V0020700610
p205
aVJAN 23, 2008
p206
aVDET @ PHI
p207
aVW
p208
aI36
aI2
aI6
aF0.333
aI1
aI3
aF0.333
aI2
aI2
aF1.0
aI1
aI5
aI6
aI6
aI0
aI3
aI1
aI1
aI7
aI-2
aa(lp209
V0020700630
p210
aVJAN 25, 2008
p211
aVDET vs. ORL
p212
aVW
p213
aI29
aI7
aI8
aF0.875
aI1
aI2
aF0.5
aI0
aI0
aF0.0
aI2
aI2
aI4
aI0
aI2
aI1
aI3
aI6
aI15
aI24
aa(lp214
V0020700657
p215
aVJAN 29, 2008
p216
aVDET @ IND
p217
aVW
p218
aI33
aI10
aI18
aF0.556
aI1
aI5
aF0.2
aI3
aI4
aF0.75
aI2
aI8
aI10
aI0
aI1
aI3
aI2
aI2
aI24
aI-1
aa(lp219
V0020700675
p220
aVJAN 31, 2008
p221
aVDET vs. LAL
p222
aVW
p223
aI30
aI3
aI13
aF0.231
aI0
aI4
aF0.0
aI0
aI0
aF0.0
aI1
aI3
aI4
aI0
aI3
aI4
aI2
aI5
aI6
aI7
aa(lp224
V0020700697
p225
aVFEB 03, 2008
p226
aVDET vs. DAL
p227
aVW
p228
aI34
aI9
aI18
aF0.5
aI3
aI4
aF0.75
aI0
aI0
aF0.0
aI2
aI7
aI9
aI3
aI1
aI4
aI1
aI3
aI21
aI21
aa(lp229
V0020700717
p230
aVFEB 06, 2008
p231
aVDET vs. MIA
p232
aVW
p233
aI38
aI9
aI15
aF0.6
aI1
aI2
aF0.5
aI7
aI9
aF0.778
aI3
aI7
aI10
aI3
aI1
aI1
aI1
aI2
aI26
aI8
aa(lp234
V0020700731
p235
aVFEB 08, 2008
p236
aVDET vs. POR
p237
aVW
p238
aI21
aI3
aI7
aF0.429
aI3
aI4
aF0.75
aI0
aI0
aF0.0
aI0
aI6
aI6
aI2
aI2
aI1
aI0
aI2
aI9
aI15
aa(lp239
V0020700747
p240
aVFEB 10, 2008
p241
aVDET vs. CHA
p242
aVW
p243
aI27
aI3
aI8
aF0.375
aI1
aI5
aF0.2
aI1
aI2
aF0.5
aI0
aI4
aI4
aI5
aI2
aI1
aI0
aI2
aI8
aI18
aa(lp244
V0020700758
p245
aVFEB 12, 2008
p246
aVDET @ ATL
p247
aVW
p248
aI37
aI7
aI10
aF0.7
aI3
aI6
aF0.5
aI4
aI6
aF0.667
aI0
aI3
aI3
aI2
aI5
aI2
aI1
aI6
aI21
aI-3
aa(lp249
V0020700770
p250
aVFEB 13, 2008
p251
aVDET vs. IND
p252
aVW
p253
aI21
aI2
aI7
aF0.286
aI2
aI4
aF0.5
aI2
aI2
aF1.0
aI0
aI5
aI5
aI4
aI0
aI1
aI1
aI2
aI8
aI18
aa(lp254
V0020700782
p255
aVFEB 19, 2008
p256
aVDET vs. ORL
p257
aVL
p258
aI27
aI5
aI13
aF0.385
aI0
aI3
aF0.0
aI0
aI0
aF0.0
aI2
aI4
aI6
aI3
aI1
aI4
aI1
aI4
aI10
aI-21
aa(lp259
V0020700794
p260
aVFEB 20, 2008
p261
aVDET @ MIL
p262
aVL
p263
aI38
aI7
aI19
aF0.368
aI5
aI10
aF0.5
aI2
aI2
aF1.0
aI1
aI4
aI5
aI0
aI3
aI2
aI3
aI4
aI21
aI0
aa(lp264
V0020700808
p265
aVFEB 22, 2008
p266
aVDET vs. MIL
p267
aVW
p268
aI27
aI5
aI8
aF0.625
aI1
aI3
aF0.333
aI6
aI6
aF1.0
aI1
aI5
aI6
aI1
aI1
aI3
aI0
aI2
aI17
aI25
aa(lp269
V0020700823
p270
aVFEB 24, 2008
p271
aVDET @ PHX
p272
aVW
p273
aI26
aI8
aI10
aF0.8
aI1
aI2
aF0.5
aI5
aI5
aF1.0
aI1
aI7
aI8
aI1
aI0
aI0
aI0
aI4
aI22
aI24
aa(lp274
V0020700835
p275
aVFEB 25, 2008
p276
aVDET @ DEN
p277
aVW
p278
aI36
aI4
aI12
aF0.333
aI2
aI5
aF0.4
aI0
aI0
aF0.0
aI1
aI8
aI9
aI0
aI1
aI1
aI1
aI3
aI10
aI6
aa(lp279
V0020700852
p280
aVFEB 27, 2008
p281
aVDET @ UTA
p282
aVL
p283
aI40
aI2
aI13
aF0.154
aI0
aI5
aF0.0
aI7
aI10
aF0.7
aI2
aI8
aI10
aI2
aI0
aI3
aI1
aI2
aI11
aI2
aa(lp284
V0020700874
p285
aVMAR 01, 2008
p286
aVDET @ LAC
p287
aVW
p288
aI26
aI7
aI9
aF0.778
aI2
aI2
aF1.0
aI1
aI1
aF1.0
aI0
aI6
aI6
aI2
aI0
aI4
aI0
aI2
aI17
aI18
aa(lp289
V0020700891
p290
aVMAR 04, 2008
p291
aVDET vs. SEA
p292
aVW
p293
aI24
aI3
aI8
aF0.375
aI1
aI2
aF0.5
aI0
aI0
aF0.0
aI2
aI4
aI6
aI2
aI1
aI3
aI1
aI3
aI7
aI-6
aa(lp294
V0020700899
p295
aVMAR 05, 2008
p296
aVDET @ BOS
p297
aVL
p298
aI36
aI10
aI24
aF0.417
aI3
aI10
aF0.3
aI0
aI3
aF0.0
aI1
aI3
aI4
aI0
aI1
aI0
aI1
aI5
aI23
aI-15
aa(lp299
V0020700957
p300
aVMAR 12, 2008
p301
aVDET vs. PHI
p302
aVL
p303
aI34
aI8
aI18
aF0.444
aI1
aI7
aF0.143
aI0
aI0
aF0.0
aI0
aI5
aI5
aI1
aI1
aI1
aI2
aI3
aI17
aI14
aa(lp304
V0020700969
p305
aVMAR 14, 2008
p306
aVDET vs. SAS
p307
aVW
p308
aI39
aI5
aI13
aF0.385
aI0
aI3
aF0.0
aI0
aI0
aF0.0
aI2
aI6
aI8
aI1
aI0
aI3
aI1
aI1
aI10
aI-3
aa(lp309
V0020700986
p310
aVMAR 16, 2008
p311
aVDET vs. NOH
p312
aVW
p313
aI33
aI4
aI7
aF0.571
aI2
aI3
aF0.667
aI0
aI0
aF0.0
aI1
aI3
aI4
aI3
aI1
aI1
aI1
aI4
aI10
aI12
aa(lp314
V0020700999
p315
aVMAR 18, 2008
p316
aVDET vs. DEN
p317
aVW
p318
aI30
aI8
aI13
aF0.615
aI5
aI8
aF0.625
aI0
aI0
aF0.0
aI0
aI5
aI5
aI6
aI1
aI0
aI2
aI3
aI21
aI3
aa(lp319
V0020701011
p320
aVMAR 19, 2008
p321
aVDET @ CLE
p322
aVL
p323
aI35
aI6
aI17
aF0.353
aI2
aI8
aF0.25
aI2
aI2
aF1.0
aI0
aI6
aI6
aI0
aI0
aI3
aI2
aI2
aI16
aI-20
aa(lp324
V0020701042
p325
aVMAR 23, 2008
p326
aVDET @ WAS
p327
aVL
p328
aI27
aI3
aI12
aF0.25
aI3
aI4
aF0.75
aI2
aI2
aF1.0
aI1
aI3
aI4
aI2
aI0
aI1
aI1
aI3
aI11
aI-6
aa(lp329
V0020701047
p330
aVMAR 24, 2008
p331
aVDET vs. PHX
p332
aVW
p333
aI39
aI9
aI21
aF0.429
aI5
aI10
aF0.5
aI0
aI0
aF0.0
aI0
aI9
aI9
aI2
aI1
aI2
aI1
aI5
aI23
aI6
aa(lp334
V0020701058
p335
aVMAR 26, 2008
p336
aVDET @ TOR
p337
aVL
p338
aI35
aI5
aI11
aF0.455
aI4
aI7
aF0.571
aI1
aI2
aF0.5
aI0
aI2
aI2
aI1
aI2
aI0
aI1
aI4
aI15
aI-1
aa(lp339
V0020701070
p340
aVMAR 27, 2008
p341
aVDET vs. MIA
p342
aVW
p343
aI31
aI5
aI9
aF0.556
aI2
aI4
aF0.5
aI1
aI1
aF1.0
aI1
aI3
aI4
aI1
aI2
aI0
aI0
aI0
aI13
aI15
aa(lp344
V0020701085
p345
aVMAR 29, 2008
p346
aVDET vs. CLE
p347
aVW
p348
aI26
aI3
aI8
aF0.375
aI1
aI4
aF0.25
aI2
aI2
aF1.0
aI1
aI6
aI7
aI0
aI0
aI3
aI0
aI0
aI9
aI12
aa(lp349
V0020701129
p350
aVAPR 04, 2008
p351
aVDET vs. NJN
p352
aVW
p353
aI24
aI7
aI11
aF0.636
aI2
aI5
aF0.4
aI1
aI2
aF0.5
aI3
aI5
aI8
aI2
aI0
aI1
aI2
aI3
aI17
aI25
aa(lp354
V0020701143
p355
aVAPR 06, 2008
p356
aVDET @ MIA
p357
aVW
p358
aI21
aI2
aI6
aF0.333
aI0
aI1
aF0.0
aI0
aI0
aF0.0
aI0
aI3
aI3
aI1
aI1
aI2
aI2
aI1
aI4
aI1
aa(lp359
V0020701156
p360
aVAPR 08, 2008
p361
aVDET vs. NYK
p362
aVL
p363
aI23
aI3
aI11
aF0.273
aI0
aI5
aF0.0
aI0
aI0
aF0.0
aI3
aI4
aI7
aI2
aI1
aI2
aI1
aI2
aI6
aI-7
aa(lp364
V0020701165
p365
aVAPR 09, 2008
p366
aVDET @ PHI
p367
aVL
p368
aI19
aI3
aI7
aF0.429
aI0
aI2
aF0.0
aI2
aI2
aF1.0
aI0
aI4
aI4
aI0
aI0
aI0
aI1
aI2
aI8
aI-7
aa(lp369
V0020701183
p370
aVAPR 11, 2008
p371
aVDET vs. WAS
p372
aVW
p373
aI23
aI3
aI9
aF0.333
aI1
aI5
aF0.2
aI2
aI2
aF1.0
aI0
aI9
aI9
aI0
aI1
aI3
aI0
aI1
aI9
aI27
aa(lp374
V0020701199
p375
aVAPR 13, 2008
p376
aVDET vs. TOR
p377
aVW
p378
aI25
aI2
aI6
aF0.333
aI0
aI1
aF0.0
aI0
aI0
aF0.0
aI1
aI4
aI5
aI1
aI1
aI1
aI0
aI1
aI4
aI6
aa(lp379
V0020701213
p380
aVAPR 15, 2008
p381
aVDET vs. MIN
p382
aVW
p383
aI24
aI1
aI4
aF0.25
aI0
aI1
aF0.0
aI3
aI4
aF0.75
aI0
aI4
aI4
aI1
aI0
aI5
aI0
aI2
aI5
aI6
aa(lp384
V0020701219
p385
aVAPR 16, 2008
p386
aVDET @ CLE
p387
aVW
p388
aI12
aI1
aI3
aF0.333
aI0
aI2
aF0.0
aI0
aI0
aF0.0
aI0
aI3
aI3
aI0
aI0
aI2
aI1
aI0
aI2
aI-8
aasS'name'
p389
VRasheed Wallace
p390
sS'experience'
p391
I12
s.