(dp0
S'age'
p1
I32
sS'stats'
p2
(lp3
(lp4
V0020701204
p5
aVAPR 14, 2008
p6
aVCLE @ PHI
p7
aVW
p8
aI34
aI10
aI18
aF0.556
aI0
aI0
aF0.0
aI2
aI2
aF1.0
aI2
aI5
aI7
aI1
aI1
aI2
aI2
aI4
aI22
aI12
aa(lp9
V0020701197
p10
aVAPR 13, 2008
p11
aVCLE vs. MIA
p12
aVW
p13
aI30
aI6
aI18
aF0.333
aI0
aI0
aF0.0
aI2
aI2
aF1.0
aI6
aI8
aI14
aI1
aI0
aI1
aI2
aI2
aI14
aI17
aa(lp14
V0020701179
p15
aVAPR 11, 2008
p16
aVCLE @ CHI
p17
aVL
p18
aI23
aI3
aI12
aF0.25
aI0
aI0
aF0.0
aI6
aI8
aF0.75
aI3
aI2
aI5
aI1
aI2
aI0
aI1
aI3
aI12
aI-8
aa(lp19
V0020701168
p20
aVAPR 09, 2008
p21
aVCLE vs. NJN
p22
aVW
p23
aI29
aI5
aI11
aF0.455
aI0
aI0
aF0.0
aI3
aI5
aF0.6
aI4
aI1
aI5
aI0
aI0
aI0
aI2
aI5
aI13
aI-4
aa(lp24
V0020701137
p25
aVAPR 05, 2008
p26
aVCLE vs. ORL
p27
aVL
p28
aI31
aI8
aI17
aF0.471
aI0
aI0
aF0.0
aI2
aI2
aF1.0
aI2
aI7
aI9
aI3
aI0
aI3
aI1
aI4
aI18
aI-6
aa(lp29
V0020701123
p30
aVAPR 03, 2008
p31
aVCLE vs. CHI
p32
aVL
p33
aI28
aI9
aI18
aF0.5
aI0
aI0
aF0.0
aI5
aI6
aF0.833
aI5
aI2
aI7
aI2
aI0
aI0
aI3
aI3
aI23
aI8
aa(lp34
V0020701114
p35
aVAPR 02, 2008
p36
aVCLE @ CHA
p37
aVW
p38
aI32
aI8
aI16
aF0.5
aI0
aI0
aF0.0
aI0
aI0
aF0.0
aI6
aI6
aI12
aI0
aI2
aI2
aI1
aI3
aI16
aI9
aa(lp39
V0020701095
p40
aVMAR 30, 2008
p41
aVCLE vs. PHI
p42
aVW
p43
aI31
aI7
aI11
aF0.636
aI0
aI0
aF0.0
aI0
aI0
aF0.0
aI2
aI3
aI5
aI1
aI0
aI3
aI1
aI2
aI14
aI-5
aa(lp44
V0020701085
p45
aVMAR 29, 2008
p46
aVCLE @ DET
p47
aVL
p48
aI28
aI5
aI16
aF0.313
aI0
aI0
aF0.0
aI1
aI2
aF0.5
aI1
aI4
aI5
aI0
aI1
aI0
aI1
aI1
aI11
aI-19
aa(lp49
V0020701062
p50
aVMAR 26, 2008
p51
aVCLE vs. NOH
p52
aVL
p53
aI33
aI13
aI19
aF0.684
aI0
aI0
aF0.0
aI3
aI3
aF1.0
aI6
aI9
aI15
aI3
aI0
aI2
aI4
aI4
aI29
aI1
aa(lp54
V0020701036
p55
aVMAR 22, 2008
p56
aVCLE @ MIL
p57
aVL
p58
aI29
aI7
aI12
aF0.583
aI0
aI0
aF0.0
aI6
aI7
aF0.857
aI3
aI6
aI9
aI2
aI0
aI2
aI4
aI3
aI20
aI-7
aa(lp59
V0020701024
p60
aVMAR 21, 2008
p61
aVCLE vs. TOR
p62
aVW
p63
aI30
aI5
aI14
aF0.357
aI0
aI0
aF0.0
aI6
aI8
aF0.75
aI4
aI6
aI10
aI1
aI0
aI3
aI1
aI2
aI16
aI9
aa(lp64
V0020701011
p65
aVMAR 19, 2008
p66
aVCLE vs. DET
p67
aVW
p68
aI32
aI9
aI14
aF0.643
aI0
aI0
aF0.0
aI2
aI3
aF0.667
aI2
aI6
aI8
aI1
aI1
aI1
aI1
aI1
aI20
aI10
aa(lp69
V0020700992
p70
aVMAR 17, 2008
p71
aVCLE @ ORL
p72
aVL
p73
aI30
aI2
aI10
aF0.2
aI0
aI0
aF0.0
aI0
aI2
aF0.0
aI0
aI7
aI7
aI3
aI0
aI0
aI1
aI5
aI4
aI-1
aa(lp74
V0020700987
p75
aVMAR 16, 2008
p76
aVCLE vs. CHA
p77
aVW
p78
aI32
aI7
aI11
aF0.636
aI0
aI0
aF0.0
aI2
aI2
aF1.0
aI3
aI6
aI9
aI1
aI0
aI3
aI3
aI5
aI16
aI13
aa(lp79
V0020700861
p80
aVFEB 29, 2008
p81
aVCLE vs. MIN
p82
aVW
p83
aI25
aI4
aI8
aF0.5
aI0
aI0
aF0.0
aI2
aI4
aF0.5
aI3
aI3
aI6
aI1
aI0
aI4
aI2
aI2
aI10
aI15
aa(lp84
V0020700849
p85
aVFEB 27, 2008
p86
aVCLE @ BOS
p87
aVL
p88
aI28
aI4
aI9
aF0.444
aI0
aI0
aF0.0
aI0
aI0
aF0.0
aI6
aI6
aI12
aI0
aI0
aI1
aI2
aI4
aI8
aI-8
aa(lp89
V0020700826
p90
aVFEB 24, 2008
p91
aVCLE vs. MEM
p92
aVW
p93
aI30
aI8
aI17
aF0.471
aI0
aI0
aF0.0
aI6
aI7
aF0.857
aI7
aI6
aI13
aI0
aI0
aI1
aI2
aI4
aI22
aI20
aa(lp94
V0020700807
p95
aVFEB 22, 2008
p96
aVCLE vs. WAS
p97
aVW
p98
aI36
aI4
aI10
aF0.4
aI0
aI0
aF0.0
aI0
aI1
aF0.0
aI2
aI6
aI8
aI2
aI0
aI1
aI0
aI5
aI8
aI-4
aa(lp99
V0020700792
p100
aVFEB 20, 2008
p101
aVCLE @ IND
p102
aVW
p103
aI33
aI5
aI13
aF0.385
aI0
aI0
aF0.0
aI4
aI5
aF0.8
aI6
aI11
aI17
aI0
aI1
aI3
aI2
aI3
aI14
aI-5
aa(lp104
V0020700781
p105
aVFEB 19, 2008
p106
aVCLE vs. HOU
p107
aVL
p108
aI31
aI8
aI15
aF0.533
aI0
aI0
aF0.0
aI0
aI0
aF0.0
aI2
aI5
aI7
aI0
aI3
aI2
aI1
aI2
aI16
aI1
aa(lp109
V0020700768
p110
aVFEB 13, 2008
p111
aVCLE vs. SAS
p112
aVL
p113
aI27
aI3
aI6
aF0.5
aI0
aI0
aF0.0
aI0
aI0
aF0.0
aI1
aI3
aI4
aI3
aI0
aI2
aI4
aI4
aI6
aI-2
aa(lp114
V0020700754
p115
aVFEB 11, 2008
p116
aVCLE @ ORL
p117
aVW
p118
aI25
aI1
aI5
aF0.2
aI0
aI0
aF0.0
aI3
aI4
aF0.75
aI1
aI3
aI4
aI1
aI0
aI3
aI0
aI5
aI5
aI6
aa(lp119
V0020700744
p120
aVFEB 10, 2008
p121
aVCLE vs. DEN
p122
aVL
p123
aI28
aI4
aI12
aF0.333
aI0
aI0
aF0.0
aI1
aI1
aF1.0
aI6
aI4
aI10
aI1
aI0
aI2
aI5
aI2
aI9
aI-19
aa(lp124
V0020700730
p125
aVFEB 08, 2008
p126
aVCLE @ ATL
p127
aVW
p128
aI30
aI8
aI13
aF0.615
aI0
aI0
aF0.0
aI1
aI1
aF1.0
aI7
aI4
aI11
aI1
aI0
aI4
aI2
aI3
aI17
aI2
aa(lp129
V0020700724
p130
aVFEB 07, 2008
p131
aVCLE @ HOU
p132
aVL
p133
aI36
aI4
aI11
aF0.364
aI0
aI0
aF0.0
aI0
aI0
aF0.0
aI2
aI6
aI8
aI4
aI0
aI2
aI1
aI5
aI8
aI-12
aa(lp134
V0020700708
p135
aVFEB 05, 2008
p136
aVCLE vs. BOS
p137
aVW
p138
aI35
aI7
aI16
aF0.438
aI0
aI0
aF0.0
aI7
aI9
aF0.778
aI7
aI3
aI10
aI2
aI0
aI5
aI4
aI2
aI21
aI-6
aa(lp139
V0020700690
p140
aVFEB 02, 2008
p141
aVCLE vs. LAC
p142
aVW
p143
aI36
aI9
aI11
aF0.818
aI0
aI0
aF0.0
aI4
aI6
aF0.667
aI5
aI8
aI13
aI4
aI1
aI4
aI5
aI4
aI22
aI29
aa(lp144
V0020700677
p145
aVJAN 31, 2008
p146
aVCLE @ SEA
p147
aVL
p148
aI36
aI3
aI13
aF0.231
aI0
aI0
aF0.0
aI11
aI11
aF1.0
aI3
aI6
aI9
aI5
aI0
aI3
aI0
aI2
aI17
aI1
aa(lp149
V0020700672
p150
aVJAN 30, 2008
p151
aVCLE @ POR
p152
aVW
p153
aI34
aI3
aI9
aF0.333
aI0
aI0
aF0.0
aI1
aI2
aF0.5
aI3
aI10
aI13
aI3
aI2
aI1
aI2
aI3
aI7
aI6
aa(lp154
V0020700643
p155
aVJAN 27, 2008
p156
aVCLE @ LAL
p157
aVW
p158
aI29
aI6
aI15
aF0.4
aI0
aI0
aF0.0
aI4
aI6
aF0.667
aI6
aI5
aI11
aI3
aI0
aI0
aI1
aI6
aI16
aI-4
aa(lp159
V0020700627
p160
aVJAN 25, 2008
p161
aVCLE vs. PHX
p162
aVL
p163
aI30
aI9
aI15
aF0.6
aI0
aI0
aF0.0
aI3
aI3
aF1.0
aI5
aI5
aI10
aI3
aI1
aI1
aI2
aI3
aI21
aI5
aa(lp164
V0020700612
p165
aVJAN 23, 2008
p166
aVCLE vs. WAS
p167
aVW
p168
aI29
aI10
aI10
aF1.0
aI0
aI0
aF0.0
aI4
aI5
aF0.8
aI2
aI4
aI6
aI4
aI0
aI3
aI0
aI3
aI24
aI32
aa(lp169
V0020700606
p170
aVJAN 21, 2008
p171
aVCLE @ MIA
p172
aVW
p173
aI30
aI5
aI11
aF0.455
aI0
aI0
aF0.0
aI3
aI4
aF0.75
aI3
aI8
aI11
aI0
aI0
aI1
aI2
aI5
aI13
aI11
aa(lp174
V0020700570
p175
aVJAN 17, 2008
p176
aVCLE @ SAS
p177
aVW
p178
aI33
aI7
aI11
aF0.636
aI0
aI0
aF0.0
aI3
aI5
aF0.6
aI2
aI4
aI6
aI1
aI0
aI2
aI2
aI3
aI17
aI0
aa(lp179
V0020700558
p180
aVJAN 15, 2008
p181
aVCLE @ MEM
p182
aVW
p183
aI28
aI6
aI12
aF0.5
aI0
aI0
aF0.0
aI2
aI4
aF0.5
aI3
aI5
aI8
aI3
aI0
aI0
aI0
aI5
aI14
aI3
aa(lp184
V0020700527
p185
aVJAN 11, 2008
p186
aVCLE vs. CHA
p187
aVW
p188
aI24
aI7
aI13
aF0.538
aI0
aI0
aF0.0
aI0
aI0
aF0.0
aI3
aI4
aI7
aI2
aI0
aI0
aI1
aI3
aI14
aI-13
aa(lp189
V0020700510
p190
aVJAN 09, 2008
p191
aVCLE @ ATL
p192
aVL
p193
aI20
aI3
aI9
aF0.333
aI0
aI0
aF0.0
aI1
aI2
aF0.5
aI6
aI1
aI7
aI0
aI0
aI1
aI2
aI2
aI7
aI-6
aa(lp194
V0020700503
p195
aVJAN 08, 2008
p196
aVCLE vs. SEA
p197
aVW
p198
aI21
aI1
aI6
aF0.167
aI0
aI0
aF0.0
aI2
aI2
aF1.0
aI0
aI9
aI9
aI4
aI1
aI2
aI0
aI2
aI4
aI8
aa(lp199
V0020700490
p200
aVJAN 06, 2008
p201
aVCLE @ TOR
p202
aVW
p203
aI22
aI3
aI9
aF0.333
aI0
aI0
aF0.0
aI2
aI2
aF1.0
aI4
aI2
aI6
aI1
aI0
aI1
aI2
aI2
aI8
aI-2
aa(lp204
V0020700477
p205
aVJAN 04, 2008
p206
aVCLE vs. SAC
p207
aVW
p208
aI32
aI4
aI15
aF0.267
aI0
aI0
aF0.0
aI6
aI7
aF0.857
aI8
aI7
aI15
aI2
aI1
aI0
aI1
aI5
aI14
aI9
aa(lp209
V0020700460
p210
aVJAN 02, 2008
p211
aVCLE vs. ATL
p212
aVW
p213
aI27
aI1
aI4
aF0.25
aI0
aI0
aF0.0
aI1
aI1
aF1.0
aI2
aI3
aI5
aI1
aI0
aI3
aI1
aI2
aI3
aI-1
aa(lp214
V0020700438
p215
aVDEC 29, 2007
p216
aVCLE @ NOH
p217
aVL
p218
aI32
aI7
aI14
aF0.5
aI0
aI0
aF0.0
aI0
aI0
aF0.0
aI3
aI9
aI12
aI0
aI0
aI0
aI2
aI3
aI14
aI-5
aa(lp219
V0020700419
p220
aVDEC 27, 2007
p221
aVCLE @ DAL
p222
aVW
p223
aI32
aI7
aI16
aF0.438
aI0
aI0
aF0.0
aI4
aI5
aF0.8
aI5
aI6
aI11
aI1
aI1
aI0
aI1
aI2
aI18
aI0
aa(lp224
V0020700405
p225
aVDEC 25, 2007
p226
aVCLE vs. MIA
p227
aVW
p228
aI29
aI5
aI12
aF0.417
aI0
aI0
aF0.0
aI3
aI4
aF0.75
aI2
aI6
aI8
aI2
aI1
aI1
aI2
aI3
aI13
aI2
aa(lp229
V0020700402
p230
aVDEC 23, 2007
p231
aVCLE vs. GSW
p232
aVL
p233
aI22
aI8
aI14
aF0.571
aI0
aI0
aF0.0
aI4
aI4
aF1.0
aI2
aI3
aI5
aI1
aI1
aI2
aI1
aI1
aI20
aI-14
aa(lp234
V0020700379
p235
aVDEC 20, 2007
p236
aVCLE vs. LAL
p237
aVW
p238
aI30
aI4
aI8
aF0.5
aI0
aI0
aF0.0
aI4
aI5
aF0.8
aI1
aI4
aI5
aI1
aI1
aI0
aI2
aI3
aI12
aI5
aa(lp239
V0020700370
p240
aVDEC 19, 2007
p241
aVCLE @ NYK
p242
aVL
p243
aI19
aI3
aI8
aF0.375
aI0
aI0
aF0.0
aI1
aI1
aF1.0
aI2
aI2
aI4
aI1
aI0
aI0
aI0
aI4
aI7
aI-11
aa(lp244
V0020700355
p245
aVDEC 17, 2007
p246
aVCLE vs. MIL
p247
aVW
p248
aI41
aI11
aI22
aF0.5
aI0
aI0
aF0.0
aI2
aI2
aF1.0
aI5
aI6
aI11
aI1
aI2
aI3
aI2
aI3
aI24
aI-1
aa(lp249
V0020700344
p250
aVDEC 15, 2007
p251
aVCLE vs. PHI
p252
aVL
p253
aI32
aI5
aI11
aF0.455
aI0
aI0
aF0.0
aI2
aI2
aF1.0
aI3
aI6
aI9
aI2
aI0
aI4
aI4
aI5
aI12
aI-14
aa(lp254
V0020700331
p255
aVDEC 14, 2007
p256
aVCLE @ NJN
p257
aVL
p258
aI32
aI8
aI13
aF0.615
aI0
aI0
aF0.0
aI5
aI5
aF1.0
aI5
aI7
aI12
aI6
aI2
aI1
aI1
aI2
aI21
aI13
aa(lp259
V0020700308
p260
aVDEC 11, 2007
p261
aVCLE vs. IND
p262
aVW
p263
aI27
aI5
aI11
aF0.455
aI0
aI0
aF0.0
aI7
aI9
aF0.778
aI2
aI3
aI5
aI0
aI0
aI0
aI1
aI3
aI17
aI-2
aa(lp264
V0020700287
p265
aVDEC 08, 2007
p266
aVCLE @ CHA
p267
aVL
p268
aI34
aI3
aI7
aF0.429
aI0
aI0
aF0.0
aI2
aI3
aF0.667
aI1
aI6
aI7
aI0
aI0
aI4
aI3
aI4
aI8
aI8
aa(lp269
V0020700264
p270
aVDEC 05, 2007
p271
aVCLE @ WAS
p272
aVL
p273
aI23
aI5
aI7
aF0.714
aI0
aI0
aF0.0
aI2
aI2
aF1.0
aI3
aI7
aI10
aI0
aI0
aI1
aI0
aI3
aI12
aI1
aa(lp274
V0020700257
p275
aVDEC 04, 2007
p276
aVCLE vs. NJN
p277
aVL
p278
aI30
aI1
aI6
aF0.167
aI0
aI0
aF0.0
aI6
aI6
aF1.0
aI3
aI4
aI7
aI0
aI0
aI0
aI1
aI3
aI8
aI-12
aa(lp279
V0020700242
p280
aVDEC 02, 2007
p281
aVCLE @ BOS
p282
aVL
p283
aI28
aI3
aI12
aF0.25
aI0
aI0
aF0.0
aI6
aI9
aF0.667
aI2
aI11
aI13
aI2
aI1
aI1
aI3
aI2
aI12
aI-20
aa(lp284
V0020700224
p285
aVNOV 30, 2007
p286
aVCLE @ TOR
p287
aVL
p288
aI32
aI3
aI7
aF0.429
aI0
aI0
aF0.0
aI0
aI0
aF0.0
aI1
aI5
aI6
aI0
aI0
aI1
aI1
aI4
aI6
aI-1
aa(lp289
V0020700214
p290
aVNOV 28, 2007
p291
aVCLE @ DET
p292
aVL
p293
aI23
aI2
aI8
aF0.25
aI0
aI0
aF0.0
aI4
aI4
aF1.0
aI1
aI2
aI3
aI0
aI1
aI0
aI0
aI1
aI8
aI-8
aa(lp294
V0020700204
p295
aVNOV 27, 2007
p296
aVCLE vs. BOS
p297
aVW
p298
aI44
aI6
aI10
aF0.6
aI0
aI0
aF0.0
aI3
aI3
aF1.0
aI3
aI12
aI15
aI5
aI0
aI4
aI3
aI4
aI15
aI16
aa(lp299
V0020700193
p300
aVNOV 25, 2007
p301
aVCLE @ IND
p302
aVW
p303
aI31
aI4
aI9
aF0.444
aI0
aI0
aF0.0
aI0
aI0
aF0.0
aI2
aI6
aI8
aI0
aI1
aI3
aI3
aI3
aI8
aI-8
aa(lp304
V0020700183
p305
aVNOV 24, 2007
p306
aVCLE vs. TOR
p307
aVW
p308
aI31
aI8
aI13
aF0.615
aI0
aI0
aF0.0
aI0
aI0
aF0.0
aI6
aI9
aI15
aI2
aI1
aI1
aI6
aI6
aI16
aI3
aa(lp309
V0020700165
p310
aVNOV 21, 2007
p311
aVCLE @ MIN
p312
aVW
p313
aI33
aI3
aI6
aF0.5
aI0
aI0
aF0.0
aI3
aI4
aF0.75
aI3
aI7
aI10
aI0
aI1
aI4
aI3
aI5
aI9
aI6
aa(lp314
V0020700151
p315
aVNOV 20, 2007
p316
aVCLE vs. MIL
p317
aVL
p318
aI35
aI8
aI16
aF0.5
aI0
aI0
aF0.0
aI0
aI0
aF0.0
aI5
aI7
aI12
aI0
aI0
aI1
aI3
aI2
aI16
aI1
aa(lp319
V0020700124
p320
aVNOV 16, 2007
p321
aVCLE vs. UTA
p322
aVW
p323
aI34
aI6
aI12
aF0.5
aI0
aI0
aF0.0
aI5
aI5
aF1.0
aI5
aI7
aI12
aI3
aI1
aI6
aI1
aI5
aI17
aI7
aa(lp324
V0020700107
p325
aVNOV 14, 2007
p326
aVCLE vs. ORL
p327
aVL
p328
aI36
aI9
aI17
aF0.529
aI0
aI0
aF0.0
aI0
aI0
aF0.0
aI3
aI8
aI11
aI0
aI0
aI1
aI1
aI6
aI18
aI0
aa(lp329
V0020700094
p330
aVNOV 12, 2007
p331
aVCLE @ DEN
p332
aVL
p333
aI20
aI1
aI6
aF0.167
aI0
aI0
aF0.0
aI0
aI0
aF0.0
aI1
aI5
aI6
aI2
aI0
aI0
aI1
aI2
aI2
aI-24
aa(lp334
V0020700092
p335
aVNOV 11, 2007
p336
aVCLE @ LAC
p337
aVW
p338
aI39
aI11
aI18
aF0.611
aI0
aI0
aF0.0
aI3
aI3
aF1.0
aI4
aI2
aI6
aI1
aI0
aI0
aI1
aI4
aI25
aI13
aa(lp339
V0020700077
p340
aVNOV 09, 2007
p341
aVCLE @ SAC
p342
aVW
p343
aI34
aI3
aI11
aF0.273
aI0
aI0
aF0.0
aI5
aI6
aF0.833
aI8
aI7
aI15
aI1
aI1
aI0
aI3
aI6
aI11
aI4
aa(lp344
V0020700060
p345
aVNOV 07, 2007
p346
aVCLE @ UTA
p347
aVL
p348
aI31
aI9
aI14
aF0.643
aI0
aI0
aF0.0
aI0
aI0
aF0.0
aI7
aI7
aI14
aI0
aI0
aI4
aI2
aI4
aI18
aI1
aa(lp349
V0020700053
p350
aVNOV 06, 2007
p351
aVCLE @ GSW
p352
aVW
p353
aI38
aI9
aI15
aF0.6
aI0
aI0
aF0.0
aI4
aI6
aF0.667
aI5
aI9
aI14
aI1
aI2
aI0
aI1
aI4
aI22
aI6
aa(lp354
V0020700041
p355
aVNOV 04, 2007
p356
aVCLE @ PHX
p357
aVL
p358
aI37
aI9
aI20
aF0.45
aI0
aI1
aF0.0
aI4
aI4
aF1.0
aI7
aI6
aI13
aI0
aI0
aI2
aI1
aI5
aI22
aI1
aa(lp359
V0020700020
p360
aVNOV 02, 2007
p361
aVCLE vs. NYK
p362
aVW
p363
aI36
aI2
aI7
aF0.286
aI0
aI0
aF0.0
aI4
aI5
aF0.8
aI2
aI10
aI12
aI1
aI0
aI2
aI4
aI5
aI8
aI1
aa(lp364
V0020700008
p365
aVOCT 31, 2007
p366
aVCLE vs. DAL
p367
aVL
p368
aI33
aI8
aI14
aF0.571
aI0
aI0
aF0.0
aI1
aI2
aF0.5
aI7
aI11
aI18
aI0
aI0
aI0
aI4
aI2
aI17
aI-7
aasS'name'
p369
VZydrunas Ilgauskas
p370
sS'experience'
p371
I10
s.