(dp0
Vresource
p1
Vleaguedashplayerstats
p2
sVresultSets
p3
(lp4
(dp5
Vheaders
p6
(lp7
VPLAYER_ID
p8
aVPLAYER_NAME
p9
aVTEAM_ID
p10
aVTEAM_ABBREVIATION
p11
aVAGE
p12
aVGP
p13
aVW
p14
aVL
p15
aVW_PCT
p16
aVMIN
p17
aVFGM
p18
aVFGA
p19
aVFG_PCT
p20
aVFG3M
p21
aVFG3A
p22
aVFG3_PCT
p23
aVFTM
p24
aVFTA
p25
aVFT_PCT
p26
aVOREB
p27
aVDREB
p28
aVREB
p29
aVAST
p30
aVTOV
p31
aVSTL
p32
aVBLK
p33
aVBLKA
p34
aVPF
p35
aVPFD
p36
aVPTS
p37
aVPLUS_MINUS
p38
aVDD2
p39
aVTD3
p40
aVCFID
p41
aVCFPARAMS
p42
asVrowSet
p43
(lp44
(lp45
I201985
aVA.J. Price
p46
aI1610612754
aVIND
p47
aF24.0
aI50
aI22
aI28
aF0.44
aF15.9
aF2.3
aF6.4
aF0.356
aF0.8
aF3.0
aF0.275
aF1.1
aF1.6
aF0.667
aF0.3
aF1.1
aF1.4
aF2.2
aF1.1
aF0.6
aF0.0
aF0.2
aF1.2
aF1.5
aF6.5
aF0.6
aI0
aI0
aI5
aV201985,1610612754
p48
aa(lp49
I201166
aVAaron Brooks
p50
aI1610612756
aVPHX
p51
aF26.0
aI59
aI26
aI33
aF0.441
aF21.8
aF3.7
aF9.9
aF0.375
aF1.2
aF4.0
aF0.297
aF2.1
aF2.4
aF0.886
aF0.3
aF1.0
aF1.3
aF3.9
aF1.7
aF0.6
aF0.1
aF0.7
aF1.9
aF2.1
aF10.7
aF-2.7
aI2
aI0
aI5
aV201166,1610612756
p52
aa(lp53
I201189
aVAaron Gray
p54
aI1610612740
aVNOH
p55
aF26.0
aI41
aI21
aI20
aF0.512
aF12.9
aF1.4
aF2.4
aF0.566
aF0.0
aF0.0
aF0.0
aF0.4
aF0.8
aF0.5
aF1.4
aF2.7
aF4.2
aF0.4
aF0.8
aF0.3
aF0.3
aF0.3
aF2.3
aF0.7
aF3.1
aF0.8
aI2
aI0
aI5
aV201189,1610612740
p56
aa(lp57
I201151
aVAcie Law
p58
aI1610612744
aVGSW
p59
aF26.0
aI51
aI20
aI31
aF0.392
aF14.2
aF1.6
aF3.6
aF0.435
aF0.1
aF0.7
aF0.167
aF0.9
aF1.3
aF0.734
aF0.2
aF1.0
aF1.2
aF1.6
aF0.8
aF0.6
aF0.0
aF0.4
aF1.2
aF1.2
aF4.2
aF-2.6
aI0
aI0
aI5
aV201151,1610612744
p60
aa(lp61
I1733
aVAl Harrington
p62
aI1610612743
aVDEN
p63
aF31.0
aI73
aI45
aI28
aF0.616
aF22.8
aF3.8
aF9.2
aF0.416
aF1.6
aF4.5
aF0.357
aF1.2
aF1.6
aF0.735
aF1.0
aF3.5
aF4.5
aF1.4
aF1.5
aF0.5
aF0.1
aF0.6
aF2.8
aF1.5
aF10.5
aF1.8
aI1
aI0
aI5
aV1733,1610612743
p64
aa(lp65
I201143
aVAl Horford
p66
aI1610612737
aVATL
p67
aF25.0
aI77
aI41
aI36
aF0.532
aF35.1
aF6.7
aF12.0
aF0.557
aF0.0
aF0.1
aF0.5
aF1.9
aF2.4
aF0.798
aF2.4
aF7.0
aF9.3
aF3.5
aF1.5
aF0.8
aF1.0
aF0.5
aF2.5
aF2.3
aF15.3
aF0.6
aI36
aI0
aI5
aV201143,1610612737
p68
aa(lp69
I2744
aVAl Jefferson
p70
aI1610612762
aVUTA
p71
aF26.0
aI82
aI39
aI43
aF0.476
aF35.9
aF8.0
aF16.1
aF0.496
aF0.0
aF0.0
aF0.0
aF2.7
aF3.5
aF0.761
aF2.9
aF6.8
aF9.7
aF1.8
aF1.3
aF0.6
aF1.9
aF1.1
aF2.9
aF3.1
aF18.6
aF-2.1
aI37
aI0
aI5
aV2744,1610612762
p72
aa(lp73
I201154
aVAl Thornton
p74
aI1610612744
aVGSW
p75
aF27.0
aI71
aI21
aI50
aF0.296
aF19.5
aF2.9
aF6.1
aF0.476
aF0.1
aF0.4
aF0.154
aF1.5
aF2.0
aF0.775
aF0.8
aF2.2
aF3.0
aF0.9
aF0.9
aF0.5
aF0.2
aF0.3
aF2.0
aF1.6
aF7.4
aF-2.1
aI0
aI0
aI5
aV201154,1610612744
p76
aa(lp77
I202329
aVAl-Farouq Aminu
p78
aI1610612746
aVLAC
p79
aF20.0
aI81
aI31
aI50
aF0.383
aF17.9
aF2.0
aF5.0
aF0.394
aF0.6
aF1.8
aF0.315
aF1.1
aF1.5
aF0.773
aF0.9
aF2.4
aF3.3
aF0.7
aF1.3
aF0.7
aF0.3
aF0.5
aF1.5
aF1.1
aF5.6
aF-2.3
aI0
aI0
aI5
aV202329,1610612746
p80
aa(lp81
I201582
aVAlexis Ajinca
p82
aI1610612761
aVTOR
p83
aF23.0
aI34
aI6
aI28
aF0.176
aF10.0
aF1.7
aF3.9
aF0.444
aF0.4
aF1.0
aF0.353
aF0.4
aF0.5
aF0.722
aF0.5
aF1.8
aF2.3
aF0.3
aF0.5
aF0.3
aF0.6
aF0.1
aF2.1
aF0.6
aF4.2
aF0.2
aI0
aI0
aI5
aV201582,1610612761
p84
aa(lp85
I202087
aVAlonzo Gee
p86
aI1610612739
aVCLE
p87
aF24.0
aI56
aI16
aI40
aF0.286
aF20.0
aF2.2
aF4.7
aF0.458
aF0.3
aF0.9
aF0.333
aF1.3
aF1.6
aF0.783
aF1.1
aF2.1
aF3.3
aF0.7
aF1.0
aF0.7
aF0.3
aF0.7
aF1.7
aF1.1
aF5.9
aF-4.9
aI0
aI0
aI5
aV202087,1610612739
p88
aa(lp89
I2405
aVAmar'e Stoudemire
p90
aI1610612752
aVNYK
p91
aF28.0
aI78
aI39
aI39
aF0.5
aF36.8
aF9.5
aF19.0
aF0.502
aF0.1
aF0.3
aF0.435
aF6.1
aF7.7
aF0.792
aF2.5
aF5.6
aF8.2
aF2.6
aF3.2
aF0.9
aF1.9
aF1.5
aF3.5
aF6.1
aF25.3
aF0.8
aI26
aI0
aI5
aV2405,1610612752
p92
aa(lp93
I101161
aVAmir Johnson
p94
aI1610612761
aVTOR
p95
aF24.0
aI72
aI20
aI52
aF0.278
aF25.7
aF3.9
aF6.9
aF0.568
aF0.0
aF0.0
aF0.0
aF1.8
aF2.2
aF0.788
aF2.6
aF3.8
aF6.4
aF1.1
aF1.0
aF0.7
aF1.2
aF0.7
aF3.7
aF2.2
aF9.6
aF-1.7
aI11
aI0
aI5
aV101161,1610612761
p96
aa(lp97
I2760
aVAnderson Varejao
p98
aI1610612739
aVCLE
p99
aF28.0
aI31
aI8
aI23
aF0.258
aF32.1
aF3.7
aF7.0
aF0.528
aF0.0
aF0.1
aF0.0
aF1.7
aF2.6
aF0.667
aF3.2
aF6.5
aF9.7
aF1.5
aF1.3
aF0.9
aF1.2
aF0.7
aF2.8
aF2.8
aF9.1
aF-5.5
aI7
aI0
aI5
aV2760,1610612739
p100
aa(lp101
I101154
aVAndray Blatche
p102
aI1610612764
aVWAS
p103
aF24.0
aI64
aI21
aI43
aF0.328
aF33.9
aF6.7
aF15.0
aF0.445
aF0.1
aF0.3
aF0.222
aF3.4
aF4.4
aF0.777
aF2.9
aF5.4
aF8.2
aF2.3
aF2.7
aF1.5
aF0.8
aF1.2
aF2.8
aF3.6
aF16.8
aF-3.8
aI17
aI0
aI5
aV101154,1610612764
p104
aa(lp105
I2738
aVAndre Iguodala
p106
aI1610612755
aVPHI
p107
aF27.0
aI67
aI36
aI31
aF0.537
aF36.8
aF5.0
aF11.3
aF0.445
aF0.9
aF2.7
aF0.337
aF3.1
aF4.5
aF0.693
aF0.9
aF4.9
aF5.8
aF6.3
aF2.1
aF1.5
aF0.6
aF0.3
aF1.6
aF3.7
aF14.1
aF2.4
aI11
aI3
aI5
aV2738,1610612755
p108
aa(lp109
I1889
aVAndre Miller
p110
aI1610612757
aVPOR
p111
aF35.0
aI81
aI47
aI34
aF0.58
aF32.7
aF4.8
aF10.4
aF0.46
aF0.0
aF0.5
aF0.108
aF3.1
aF3.6
aF0.853
aF1.2
aF2.5
aF3.7
aF7.0
aF2.4
aF1.4
aF0.1
aF0.7
aF2.1
aF2.8
aF12.7
aF3.1
aI11
aI0
aI5
aV1889,1610612757
p112
aa(lp113
I200745
aVAndrea Bargnani
p114
aI1610612761
aVTOR
p115
aF25.0
aI66
aI19
aI47
aF0.288
aF35.7
aF8.0
aF17.8
aF0.448
aF1.2
aF3.4
aF0.345
aF4.3
aF5.3
aF0.82
aF1.1
aF4.1
aF5.2
aF1.8
aF2.3
aF0.5
aF0.7
aF0.7
aF2.4
aF4.5
aF21.4
aF-4.8
aI2
aI0
aI5
aV200745,1610612761
p116
aa(lp117
I1905
aVAndrei Kirilenko
p118
aI1610612762
aVUTA
p119
aF30.0
aI64
aI33
aI31
aF0.516
aF31.2
aF4.0
aF8.5
aF0.467
aF0.6
aF1.5
aF0.367
aF3.3
aF4.2
aF0.77
aF1.6
aF3.5
aF5.1
aF3.0
aF1.8
aF1.3
aF1.2
aF0.6
aF1.8
aF3.1
aF11.7
aF-0.5
aI4
aI0
aI5
aV1905,1610612762
p120
aa(lp121
I2804
aVAndres Nocioni
p122
aI1610612755
aVPHI
p123
aF31.0
aI54
aI23
aI31
aF0.426
aF17.2
aF2.2
aF5.1
aF0.426
aF0.8
aF2.2
aF0.356
aF0.9
aF1.1
aF0.803
aF0.4
aF2.8
aF3.1
aF0.8
aF0.9
aF0.3
aF0.3
aF0.3
aF1.9
aF1.1
aF6.1
aF-2.6
aI2
aI0
aI5
aV2804,1610612755
p124
aa(lp125
I101106
aVAndrew Bogut
p126
aI1610612749
aVMIL
p127
aF26.0
aI65
aI28
aI37
aF0.431
aF35.3
aF5.6
aF11.4
aF0.495
aF0.0
aF0.1
aF0.0
aF1.5
aF3.3
aF0.442
aF3.1
aF8.0
aF11.1
aF2.0
aF1.9
aF0.7
aF2.6
aF0.6
aF3.3
aF3.7
aF12.8
aF0.2
aI24
aI0
aI5
aV101106,1610612749
p128
aa(lp129
I101115
aVAndrew Bynum
p130
aI1610612747
aVLAL
p131
aF23.0
aI54
aI36
aI18
aF0.667
aF27.8
aF4.4
aF7.6
aF0.574
aF0.0
aF0.0
aF0.0
aF2.6
aF3.9
aF0.66
aF3.1
aF6.3
aF9.4
aF1.4
aF1.4
aF0.4
aF2.0
aF0.6
aF2.6
aF2.8
aF11.3
aF3.8
aI17
aI0
aI5
aV101115,1610612747
p132
aa(lp133
I2740
aVAndris Biedrins
p134
aI1610612744
aVGSW
p135
aF25.0
aI59
aI26
aI33
aF0.441
aF23.7
aF2.4
aF4.5
aF0.534
aF0.0
aF0.0
aF0.0
aF0.2
aF0.5
aF0.323
aF2.5
aF4.8
aF7.2
aF1.0
aF1.0
aF0.9
aF0.9
aF0.2
aF3.4
aF0.9
aF5.0
aF-3.9
aI3
aI0
aI5
aV2740,1610612744
p136
aa(lp137
I202360
aVAndy Rautins
p138
aI1610612752
aVNYK
p139
aF24.0
aI5
aI2
aI3
aF0.4
aF4.8
aF0.6
aF1.4
aF0.429
aF0.2
aF0.8
aF0.25
aF0.2
aF0.4
aF0.5
aF0.0
aF0.2
aF0.2
aF0.6
aF1.4
aF0.2
aF0.0
aF0.0
aF0.0
aF0.2
aF1.6
aF-2.2
aI0
aI0
aI5
aV202360,1610612752
p140
aa(lp141
I1712
aVAntawn Jamison
p142
aI1610612739
aVCLE
p143
aF35.0
aI56
aI9
aI47
aF0.161
aF32.9
aF6.7
aF15.6
aF0.427
aF1.6
aF4.7
aF0.346
aF3.1
aF4.2
aF0.731
aF1.5
aF5.2
aF6.7
aF1.7
aF1.4
aF0.9
aF0.5
aF0.5
aF2.4
aF3.7
aF18.0
aF-6.6
aI10
aI0
aI5
aV1712,1610612739
p144
aa(lp145
I1853
aVAnthony Carter
p146
aI1610612752
aVNYK
p147
aF36.0
aI33
aI20
aI13
aF0.606
aF14.0
aF1.4
aF3.2
aF0.425
aF0.4
aF1.2
aF0.3
aF0.2
aF0.2
aF1.0
aF0.2
aF1.3
aF1.5
aF2.1
aF1.2
aF0.8
aF0.2
aF0.1
aF1.5
aF0.4
aF3.3
aF0.3
aI0
aI0
aI5
aV1853,1610612752
p148
aa(lp149
I201627
aVAnthony Morrow
p150
aI1610612751
aVNJN
p151
aF25.0
aI58
aI17
aI41
aF0.293
aF32.0
aF4.8
aF10.7
aF0.45
aF1.9
aF4.5
aF0.423
aF1.7
aF1.8
aF0.897
aF0.6
aF2.3
aF3.0
aF1.2
aF0.9
aF0.3
aF0.1
aF0.4
aF2.3
aF1.3
aF13.2
aF-2.1
aI0
aI0
aI5
aV201627,1610612751
p152
aa(lp153
I1515
aVAnthony Parker
p154
aI1610612739
aVCLE
p155
aF36.0
aI72
aI18
aI54
aF0.25
aF29.0
aF3.1
aF7.7
aF0.399
aF1.2
aF3.2
aF0.379
aF1.0
aF1.3
aF0.779
aF0.5
aF2.6
aF3.0
aF3.0
aF1.1
aF0.9
aF0.1
aF0.2
aF1.5
aF1.5
aF8.3
aF-4.2
aI0
aI0
aI5
aV1515,1610612739
p156
aa(lp157
I201576
aVAnthony Randolph
p158
aI1610612750
aVMIN
p159
aF21.0
aI40
aI11
aI29
aF0.275
aF14.7
aF3.1
aF6.6
aF0.466
aF0.0
aF0.1
aF0.25
aF1.5
aF2.2
aF0.674
aF1.1
aF2.9
aF4.0
aF0.8
aF1.3
aF0.6
aF0.6
aF0.4
aF1.6
aF1.8
aF7.6
aF-3.5
aI5
aI0
aI5
aV201576,1610612750
p160
aa(lp161
I201229
aVAnthony Tolliver
p162
aI1610612750
aVMIN
p163
aF26.0
aI65
aI12
aI53
aF0.185
aF21.0
aF2.2
aF4.8
aF0.45
aF0.7
aF1.8
aF0.409
aF1.6
aF2.0
aF0.802
aF1.4
aF3.1
aF4.5
aF1.3
aF0.8
aF0.4
aF0.4
aF0.3
aF2.2
aF2.2
aF6.7
aF-1.2
aI3
aI0
aI5
aV201229,1610612750
p164
aa(lp165
I101120
aVAntoine Wright
p166
aI1610612758
aVSAC
p167
aF27.0
aI7
aI2
aI5
aF0.286
aF4.5
aF0.1
aF1.1
aF0.125
aF0.0
aF0.6
aF0.0
aF0.0
aF0.0
aF0.0
aF0.3
aF0.1
aF0.4
aF0.0
aF0.1
aF0.1
aF0.0
aF0.0
aF0.4
aF0.1
aF0.3
aF-3.4
aI0
aI0
aI5
aV101120,1610612758
p168
aa(lp169
I1498
aVAntonio Daniels
p170
aI1610612755
aVPHI
p171
aF36.0
aI4
aI1
aI3
aF0.25
aF8.8
aF0.5
aF1.3
aF0.4
aF0.0
aF0.5
aF0.0
aF0.5
aF0.5
aF1.0
aF0.0
aF1.3
aF1.3
aF0.5
aF0.3
aF0.0
aF0.0
aF0.0
aF0.0
aF0.8
aF1.5
aF3.0
aI0
aI0
aI5
aV1498,1610612755
p172
aa(lp173
I686
aVAntonio McDyess
p174
aI1610612759
aVSAS
p175
aF36.0
aI73
aI54
aI19
aF0.74
aF19.0
aF2.3
aF4.7
aF0.491
aF0.0
aF0.0
aF0.0
aF0.7
aF1.1
aF0.675
aF1.7
aF3.7
aF5.4
aF1.2
aF1.0
aF0.5
aF0.5
aF0.1
aF2.2
aF1.0
aF5.3
aF1.8
aI5
aI0
aI5
aV686,1610612759
p176
aa(lp177
I202356
aVArmon Johnson
p178
aI1610612757
aVPOR
p179
aF22.0
aI38
aI20
aI18
aF0.526
aF7.3
aF1.2
aF2.7
aF0.455
aF0.1
aF0.3
aF0.417
aF0.3
aF0.6
aF0.591
aF0.3
aF0.7
aF0.9
aF1.2
aF1.0
aF0.1
aF0.0
aF0.2
aF0.8
aF0.6
aF2.9
aF-0.6
aI0
aI0
aI5
aV202356,1610612757
p180
aa(lp181
I201167
aVArron Afflalo
p182
aI1610612743
aVDEN
p183
aF25.0
aI69
aI40
aI29
aF0.58
aF33.7
aF4.5
aF9.1
aF0.498
aF1.5
aF3.6
aF0.423
aF2.0
aF2.4
aF0.847
aF0.7
aF3.0
aF3.6
aF2.4
aF1.0
aF0.5
aF0.4
aF0.6
aF2.2
aF1.7
aF12.6
aF2.3
aI3
aI0
aI5
aV201167,1610612743
p184
aa(lp185
I201948
aVAustin Daye
p186
aI1610612765
aVDET
p187
aF23.0
aI72
aI26
aI46
aF0.361
aF20.1
aF2.7
aF6.5
aF0.41
aF1.0
aF2.4
aF0.401
aF1.1
aF1.5
aF0.759
aF0.9
aF2.9
aF3.8
aF1.1
aF0.8
aF0.5
aF0.5
aF0.3
aF2.3
aF1.3
aF7.5
aF-1.8
aI0
aI0
aI5
aV201948,1610612765
p188
aa(lp189
I202340
aVAvery Bradley
p190
aI1610612738
aVBOS
p191
aF20.0
aI31
aI21
aI10
aF0.677
aF5.2
aF0.7
aF2.2
aF0.343
aF0.0
aF0.2
aF0.0
aF0.2
aF0.4
aF0.5
aF0.1
aF0.4
aF0.5
aF0.4
aF0.5
aF0.3
aF0.0
aF0.2
aF0.6
aF0.4
aF1.7
aF-1.8
aI0
aI0
aI5
aV202340,1610612738
p192
aa(lp193
I1884
aVBaron Davis
p194
aI1610612739
aVCLE
p195
aF32.0
aI58
aI24
aI34
aF0.414
aF28.4
aF5.0
aF11.9
aF0.417
aF1.4
aF4.1
aF0.339
aF1.7
aF2.3
aF0.771
aF0.6
aF2.1
aF2.7
aF6.7
aF2.5
aF1.3
aF0.5
aF0.6
aF2.5
aF1.8
aF13.1
aF-0.2
aI7
aI0
aI5
aV1884,1610612739
p196
aa(lp197
I2732
aVBen Gordon
p198
aI1610612765
aVDET
p199
aF28.0
aI82
aI30
aI52
aF0.366
aF26.0
aF4.1
aF9.4
aF0.44
aF1.3
aF3.2
aF0.402
aF1.7
aF2.0
aF0.85
aF0.5
aF1.9
aF2.4
aF2.1
aF1.7
aF0.6
aF0.2
aF0.4
aF2.2
aF1.6
aF11.2
aF-1.5
aI0
aI0
aI5
aV2732,1610612765
p200
aa(lp201
I202386
aVBen Uzoh
p202
aI1610612751
aVNJN
p203
aF23.0
aI42
aI6
aI36
aF0.143
aF10.4
aF1.5
aF3.4
aF0.424
aF0.1
aF0.2
aF0.375
aF0.8
aF1.3
aF0.589
aF0.7
aF0.7
aF1.5
aF1.6
aF0.6
aF0.3
aF0.2
aF0.4
aF0.7
aF0.9
aF3.8
aF-1.9
aI0
aI0
aI5
aV202386,1610612751
p204
aa(lp205
I1112
aVBen Wallace
p206
aI1610612765
aVDET
p207
aF36.0
aI54
aI20
aI34
aF0.37
aF22.9
aF1.2
aF2.8
aF0.45
aF0.0
aF0.0
aF0.5
aF0.4
aF1.1
aF0.333
aF2.4
aF4.1
aF6.5
aF1.3
aF0.8
aF1.0
aF1.0
aF0.3
aF1.5
aF1.5
aF2.9
aF-3.2
aI1
aI0
aI5
aV1112,1610612765
p208
aa(lp209
I2757
aVBeno Udrih
p210
aI1610612758
aVSAC
p211
aF28.0
aI79
aI24
aI55
aF0.304
aF34.6
aF5.2
aF10.4
aF0.5
aF0.8
aF2.3
aF0.357
aF2.5
aF2.9
aF0.864
aF0.5
aF2.8
aF3.4
aF4.9
aF1.8
aF1.2
aF0.1
aF0.5
aF2.3
aF2.5
aF13.7
aF-3.4
aI4
aI0
aI5
aV2757,1610612758
p212
aa(lp213
I201933
aVBlake Griffin
p214
aI1610612746
aVLAC
p215
aF22.0
aI82
aI32
aI50
aF0.39
aF37.9
aF8.5
aF16.8
aF0.506
aF0.1
aF0.3
aF0.292
aF5.4
aF8.5
aF0.642
aF3.3
aF8.8
aF12.1
aF3.8
aF2.7
aF0.8
aF0.5
aF1.1
aF3.1
aF7.5
aF22.5
aF-1.8
aI63
aI2
aI5
aV201933,1610612746
p216
aa(lp217
I2250
aVBobby Simmons
p218
aI1610612759
aVSAS
p219
aF31.0
aI2
aI2
aI0
aF1.0
aF7.8
aF0.0
aF1.5
aF0.0
aF0.0
aF1.5
aF0.0
aF0.0
aF0.0
aF0.0
aF0.0
aF0.0
aF0.0
aF1.0
aF0.0
aF0.0
aF0.0
aF0.0
aF1.0
aF0.0
aF0.0
aF3.0
aI0
aI0
aI5
aV2250,1610612759
p220
aa(lp221
I2564
aVBoris Diaw
p222
aI1610612766
aVCHA
p223
aF29.0
aI82
aI34
aI48
aF0.415
aF33.9
aF4.6
aF9.4
aF0.492
aF1.0
aF2.8
aF0.345
aF1.0
aF1.5
aF0.683
aF1.3
aF3.8
aF5.0
aF4.1
aF2.0
aF0.9
aF0.6
aF0.4
aF2.3
aF1.7
aF11.3
aF-2.9
aI5
aI1
aI5
aV2564,1610612766
p224
aa(lp225
I1802
aVBrad Miller
p226
aI1610612745
aVHOU
p227
aF35.0
aI60
aI32
aI28
aF0.533
aF16.9
aF2.2
aF4.9
aF0.446
aF0.7
aF1.8
aF0.374
aF1.3
aF1.6
aF0.83
aF0.7
aF3.0
aF3.7
aF2.4
aF0.9
aF0.5
aF0.4
aF0.4
aF1.6
aF1.6
aF6.4
aF0.7
aI1
aI0
aI5
aV1802,1610612745
p228
aa(lp229
I201148
aVBrandan Wright
p230
aI1610612751
aVNJN
p231
aF23.0
aI37
aI14
aI23
aF0.378
aF10.2
aF1.6
aF3.2
aF0.513
aF0.0
aF0.0
aF0.0
aF0.6
aF0.8
aF0.677
aF0.8
aF1.6
aF2.4
aF0.3
aF0.4
aF0.3
aF0.5
aF0.3
aF0.9
aF0.8
aF3.8
aF-1.8
aI1
aI0
aI5
aV201148,1610612751
p232
aa(lp233
I101138
aVBrandon Bass
p234
aI1610612753
aVORL
p235
aF26.0
aI76
aI49
aI27
aF0.645
aF26.1
aF4.4
aF8.5
aF0.515
aF0.0
aF0.0
aF0.0
aF2.5
aF3.1
aF0.815
aF1.8
aF3.8
aF5.6
aF0.8
aF1.3
aF0.4
aF0.7
aF0.6
aF2.1
aF2.1
aF11.2
aF2.1
aI3
aI0
aI5
aV101138,1610612753
p236
aa(lp237
I201943
aVBrandon Jennings
p238
aI1610612749
aVMIL
p239
aF21.0
aI63
aI27
aI36
aF0.429
aF34.4
aF5.7
aF14.7
aF0.39
aF1.6
aF4.8
aF0.323
aF3.2
aF3.9
aF0.809
aF0.7
aF3.0
aF3.7
aF4.8
aF2.3
aF1.5
aF0.3
aF0.8
aF2.1
aF3.0
aF16.2
aF-1.1
aI6
aI1
aI5
aV201943,1610612749
p240
aa(lp241
I200750
aVBrandon Roy
p242
aI1610612757
aVPOR
p243
aF26.0
aI47
aI25
aI22
aF0.532
aF27.9
aF4.4
aF11.1
aF0.4
aF0.8
aF2.4
aF0.333
aF2.5
aF2.9
aF0.848
aF0.6
aF2.0
aF2.6
aF2.7
aF1.2
aF0.8
aF0.3
aF0.5
aF1.6
aF3.1
aF12.2
aF1.7
aI1
aI0
aI5
aV200750,1610612757
p244
aa(lp245
I201575
aVBrandon Rush
p246
aI1610612754
aVIND
p247
aF25.0
aI67
aI27
aI40
aF0.403
aF26.2
aF3.2
aF7.7
aF0.421
aF1.4
aF3.3
aF0.417
aF1.2
aF1.6
aF0.755
aF0.5
aF2.7
aF3.2
aF0.9
aF1.0
aF0.6
aF0.5
aF0.5
aF1.6
aF1.2
aF9.1
aF-3.1
aI0
aI0
aI5
aV201575,1610612754
p248
aa(lp249
I2217
aVBrendan Haywood
p250
aI1610612742
aVDAL
p251
aF31.0
aI72
aI50
aI22
aF0.694
aF18.5
aF1.8
aF3.1
aF0.574
aF0.0
aF0.0
aF0.0
aF0.9
aF2.5
aF0.362
aF1.8
aF3.4
aF5.2
aF0.3
aF0.7
aF0.2
aF1.0
aF0.4
aF2.0
aF2.0
aF4.4
aF-0.2
aI2
aI0
aI5
aV2217,1610612742
p252
aa(lp253
I2073
aVBrian Cardinal
p254
aI1610612742
aVDAL
p255
aF34.0
aI56
aI37
aI19
aF0.661
aF11.0
aF0.8
aF1.8
aF0.43
aF0.8
aF1.6
aF0.483
aF0.3
aF0.3
aF0.944
aF0.2
aF0.9
aF1.1
aF0.7
aF0.3
aF0.4
aF0.1
aF0.1
aF1.5
aF0.8
aF2.6
aF-0.5
aI0
aI0
aI5
aV2073,1610612742
p256
aa(lp257
I2567
aVBrian Cook
p258
aI1610612746
aVLAC
p259
aF30.0
aI40
aI8
aI32
aF0.2
aF11.2
aF1.8
aF4.3
aF0.424
aF0.9
aF2.0
aF0.43
aF0.4
aF0.6
aF0.625
aF0.5
aF1.9
aF2.4
aF0.4
aF0.6
aF0.3
aF0.3
aF0.2
aF1.9
aF0.7
aF4.8
aF-0.7
aI1
aI0
aI5
aV2567,1610612746
p260
aa(lp261
I2243
aVBrian Scalabrine
p262
aI1610612741
aVCHI
p263
aF33.0
aI18
aI12
aI6
aF0.667
aF4.9
aF0.6
aF1.1
aF0.526
aF0.0
aF0.3
aF0.0
aF0.0
aF0.0
aF0.0
aF0.1
aF0.4
aF0.4
aF0.3
aF0.3
aF0.2
aF0.2
aF0.1
aF1.0
aF0.1
aF1.1
aF-0.4
aI0
aI0
aI5
aV2243,1610612741
p264
aa(lp265
I1730
aVBrian Skinner
p266
aI1610612749
aVMIL
p267
aF35.0
aI2
aI2
aI0
aF1.0
aF2.9
aF0.0
aF0.0
aF0.0
aF0.0
aF0.0
aF0.0
aF0.0
aF0.0
aF0.0
aF0.0
aF0.0
aF0.0
aF0.0
aF0.0
aF0.0
aF0.0
aF0.0
aF0.0
aF0.0
aF0.0
aF-5.5
aI0
aI0
aI5
aV1730,1610612749
p268
aa(lp269
I201572
aVBrook Lopez
p270
aI1610612751
aVNJN
p271
aF23.0
aI82
aI24
aI58
aF0.293
aF35.2
aF7.9
aF16.0
aF0.492
aF0.0
aF0.0
aF0.0
aF4.7
aF6.0
aF0.787
aF2.4
aF3.5
aF6.0
aF1.6
aF2.1
aF0.6
aF1.5
aF1.0
aF2.9
aF4.5
aF20.4
aF-3.8
aI9
aI0
aI5
aV201572,1610612751
p272
aa(lp273
I201957
aVByron Mullens
p274
aI1610612760
aVOKC
p275
aF22.0
aI13
aI8
aI5
aF0.615
aF6.5
aF0.7
aF2.2
aF0.321
aF0.0
aF0.0
aF0.0
aF0.5
aF1.1
aF0.5
aF0.5
aF1.4
aF1.8
aF0.0
aF0.6
aF0.2
aF0.2
aF0.2
aF0.8
aF0.8
aF1.9
aF-1.4
aI0
aI0
aI5
aV201957,1610612760
p276
aa(lp277
I101139
aVCJ Miles
p278
aI1610612762
aVUTA
p279
aF24.0
aI78
aI36
aI42
aF0.462
aF25.2
aF4.7
aF11.5
aF0.407
aF1.4
aF4.3
aF0.322
aF2.0
aF2.5
aF0.811
aF0.7
aF2.6
aF3.3
aF1.7
aF1.2
aF0.9
aF0.5
aF0.6
aF2.8
aF2.1
aF12.8
aF0.7
aI0
aI0
aI5
aV101139,1610612762
p280
aa(lp281
I201228
aVCJ Watson
p282
aI1610612741
aVCHI
p283
aF27.0
aI82
aI62
aI20
aF0.756
aF13.3
aF1.8
aF4.8
aF0.371
aF0.5
aF1.4
aF0.393
aF0.8
aF1.1
aF0.742
aF0.2
aF1.0
aF1.1
aF2.3
aF0.9
aF0.7
aF0.1
aF0.3
aF1.0
aF1.2
aF4.9
aF1.7
aI0
aI0
aI5
aV201228,1610612741
p284
aa(lp285
I201171
aVCarl Landry
p286
aI1610612740
aVNOH
p287
aF27.0
aI76
aI25
aI51
aF0.329
aF26.4
aF4.5
aF9.0
aF0.502
aF0.0
aF0.1
aF0.0
aF2.8
aF3.8
aF0.74
aF2.2
aF2.4
aF4.6
aF0.8
aF1.4
aF0.5
aF0.4
aF0.7
aF2.6
aF3.2
aF11.9
aF-2.2
aI8
aI0
aI5
aV201171,1610612740
p288
aa(lp289
I2306
aVCarlos Arroyo
p290
aI1610612738
aVBOS
p291
aF31.0
aI64
aI43
aI21
aF0.672
aF18.5
aF1.9
aF4.3
aF0.44
aF0.5
aF1.1
aF0.449
aF0.6
aF0.7
aF0.83
aF0.3
aF1.3
aF1.6
aF2.0
aF0.9
aF0.3
aF0.0
aF0.0
aF1.1
aF0.8
aF4.8
aF1.6
aI0
aI0
aI5
aV2306,1610612738
p292
aa(lp293
I2430
aVCarlos Boozer
p294
aI1610612741
aVCHI
p295
aF29.0
aI59
aI47
aI12
aF0.797
aF31.9
aF7.3
aF14.3
aF0.51
aF0.0
aF0.0
aF0.0
aF2.9
aF4.1
aF0.701
aF2.2
aF7.4
aF9.6
aF2.5
aF2.5
aF0.8
aF0.3
aF1.5
aF3.2
aF3.1
aF17.5
aF4.7
aI30
aI0
aI5
aV2430,1610612741
p296
aa(lp297
I2568
aVCarlos Delfino
p298
aI1610612749
aVMIL
p299
aF28.0
aI49
aI21
aI28
aF0.429
aF32.5
aF4.1
aF10.5
aF0.39
aF2.1
aF5.8
aF0.37
aF1.2
aF1.5
aF0.8
aF0.5
aF3.6
aF4.1
aF2.3
aF1.2
aF1.6
aF0.2
aF0.6
aF1.5
aF1.3
aF11.5
aF-1.7
aI2
aI0
aI5
aV2568,1610612749
p300
aa(lp301
I2546
aVCarmelo Anthony
p302
aI1610612752
aVNYK
p303
aF27.0
aI77
aI43
aI34
aF0.558
aF35.7
aF8.9
aF19.5
aF0.455
aF1.2
aF3.3
aF0.378
aF6.6
aF7.9
aF0.838
aF1.5
aF5.8
aF7.3
aF2.9
aF2.7
aF0.9
aF0.6
aF1.4
aF2.9
aF5.5
aF25.6
aF2.4
aI18
aI0
aI5
aV2546,1610612752
p304
aa(lp305
I2406
aVCaron Butler
p306
aI1610612742
aVDAL
p307
aF31.0
aI29
aI21
aI8
aF0.724
aF29.9
aF5.9
aF13.0
aF0.45
aF1.0
aF2.2
aF0.431
aF2.3
aF3.0
aF0.773
aF0.8
aF3.3
aF4.1
aF1.6
aF1.7
aF1.0
aF0.3
aF0.7
aF2.0
aF2.3
aF15.0
aF5.1
aI1
aI0
aI5
aV2406,1610612742
p308
aa(lp309
I201858
aVCartier Martin
p310
aI1610612764
aVWAS
p311
aF26.0
aI52
aI19
aI33
aF0.365
aF10.4
aF1.4
aF3.5
aF0.39
aF0.8
aF1.9
aF0.394
aF0.5
aF0.8
aF0.7
aF0.4
aF1.0
aF1.4
aF0.3
aF0.3
aF0.3
aF0.1
aF0.2
aF1.0
aF0.7
aF4.0
aF0.4
aI0
aI0
aI5
aV201858,1610612764
p312
aa(lp313
I101112
aVChanning Frye
p314
aI1610612756
aVPHX
p315
aF28.0
aI77
aI39
aI38
aF0.506
aF33.0
aF4.6
aF10.8
aF0.432
aF2.2
aF5.7
aF0.39
aF1.2
aF1.4
aF0.832
aF0.8
aF5.8
aF6.7
aF1.2
aF0.9
aF0.6
aF1.0
aF0.2
aF3.5
aF1.6
aF12.7
aF1.3
aI8
aI0
aI5
aV101112,1610612756
p316
aa(lp317
I101236
aVCharles Hayes
p318
aI1610612745
aVHOU
p319
aF28.0
aI74
aI41
aI33
aF0.554
aF28.1
aF3.3
aF6.3
aF0.527
aF0.0
aF0.0
aF0.0
aF1.3
aF1.9
aF0.662
aF3.0
aF5.1
aF8.1
aF2.7
aF1.2
aF1.1
aF0.7
aF1.0
aF2.7
aF1.8
aF7.9
aF2.8
aI11
aI1
aI5
aV101236,1610612745
p320
aa(lp321
I2294
aVCharlie Bell
p322
aI1610612744
aVGSW
p323
aF32.0
aI19
aI7
aI12
aF0.368
aF9.0
aF0.6
aF2.3
aF0.279
aF0.3
aF1.1
aF0.286
aF0.1
aF0.2
aF0.5
aF0.3
aF0.6
aF0.9
aF0.7
aF0.3
aF0.3
aF0.1
aF0.2
aF0.7
aF0.4
aF1.7
aF0.0
aI0
aI0
aI5
aV2294,1610612744
p324
aa(lp325
I101111
aVCharlie Villanueva
p326
aI1610612765
aVDET
p327
aF26.0
aI76
aI27
aI49
aF0.355
aF21.9
aF4.1
aF9.3
aF0.442
aF1.6
aF4.3
aF0.387
aF1.2
aF1.5
aF0.767
aF0.7
aF3.2
aF3.9
aF0.6
aF0.9
aF0.6
aF0.6
aF0.1
aF2.3
aF1.3
aF11.1
aF-1.8
aI4
aI0
aI5
aV101111,1610612765
p328
aa(lp329
I201978
aVChase Budinger
p330
aI1610612745
aVHOU
p331
aF23.0
aI78
aI41
aI37
aF0.526
aF22.3
aF3.6
aF8.4
aF0.425
aF1.1
aF3.5
aF0.325
aF1.5
aF1.8
aF0.855
aF0.7
aF2.9
aF3.6
aF1.6
aF0.9
aF0.5
aF0.2
aF0.6
aF1.5
aF1.3
aF9.8
aF1.8
aI0
aI0
aI5
aV201978,1610612745
p332
aa(lp333
I1497
aVChauncey Billups
p334
aI1610612752
aVNYK
p335
aF34.0
aI72
aI38
aI34
aF0.528
aF32.1
aF4.7
aF11.0
aF0.427
aF2.0
aF5.0
aF0.402
aF5.3
aF5.8
aF0.916
aF0.3
aF2.3
aF2.6
aF5.4
aF2.5
aF1.0
aF0.2
aF0.6
aF2.0
aF3.6
aF16.8
aF1.7
aI2
aI0
aI5
aV1497,1610612752
p336
aa(lp337
I2365
aVChris Andersen
p338
aI1610612743
aVDEN
p339
aF32.0
aI45
aI29
aI16
aF0.644
aF16.3
aF1.8
aF3.0
aF0.599
aF0.0
aF0.0
aF0.0
aF1.9
aF3.0
aF0.637
aF1.7
aF3.2
aF4.9
aF0.4
aF0.6
aF0.5
aF1.3
aF0.4
aF1.8
aF2.5
aF5.6
aF2.0
aI2
aI0
aI5
aV2365,1610612743
p340
aa(lp341
I2547
aVChris Bosh
p342
aI1610612748
aVMIA
p343
aF27.0
aI77
aI55
aI22
aF0.714
aF36.3
aF6.8
aF13.7
aF0.496
aF0.1
aF0.3
aF0.24
aF5.0
aF6.1
aF0.815
aF1.8
aF6.5
aF8.3
aF1.9
aF1.8
aF0.8
aF0.6
aF0.7
aF2.2
aF4.6
aF18.7
aF7.8
aI28
aI0
aI5
aV2547,1610612748
p344
aa(lp345
I201604
aVChris Douglas-Roberts
p346
aI1610612749
aVMIL
p347
aF24.0
aI44
aI19
aI25
aF0.432
aF20.1
aF2.7
aF6.2
aF0.429
aF0.3
aF1.0
aF0.326
aF1.7
aF2.0
aF0.831
aF0.2
aF1.8
aF2.0
aF1.1
aF0.8
aF0.7
aF0.3
aF0.7
aF1.7
aF1.6
aF7.3
aF-0.6
aI0
aI0
aI5
aV201604,1610612749
p348
aa(lp349
I2768
aVChris Duhon
p350
aI1610612753
aVORL
p351
aF28.0
aI51
aI36
aI15
aF0.706
aF15.2
aF1.0
aF2.5
aF0.38
aF0.3
aF1.0
aF0.25
aF0.3
aF0.5
aF0.56
aF0.2
aF0.8
aF1.0
aF2.3
aF1.2
aF0.3
aF0.0
aF0.3
aF0.6
aF0.7
aF2.5
aF0.0
aI0
aI0
aI5
aV2768,1610612753
p352
aa(lp353
I202419
aVChris Johnson
p354
aI1610612757
aVPOR
p355
aF25.0
aI14
aI10
aI4
aF0.714
aF9.9
aF0.6
aF1.5
aF0.429
aF0.0
aF0.0
aF0.0
aF1.1
aF1.4
aF0.75
aF0.9
aF1.4
aF2.3
aF0.2
aF0.7
aF0.2
aF0.6
aF0.1
aF1.5
aF1.0
aF2.4
aF-4.0
aI0
aI0
aI5
aV202419,1610612757
p356
aa(lp357
I2549
aVChris Kaman
p358
aI1610612746
aVLAC
p359
aF29.0
aI32
aI11
aI21
aF0.344
aF26.2
aF5.5
aF11.8
aF0.471
aF0.0
aF0.0
aF0.0
aF1.3
aF1.8
aF0.754
aF1.6
aF5.4
aF7.0
aF1.4
aF1.8
aF0.5
aF1.5
aF0.7
aF2.3
aF1.3
aF12.4
aF-1.4
aI6
aI0
aI5
aV2549,1610612746
p360
aa(lp361
I101108
aVChris Paul
p362
aI1610612740
aVNOH
p363
aF26.0
aI80
aI45
aI35
aF0.563
aF36.0
aF5.4
aF11.6
aF0.463
aF0.9
aF2.3
aF0.388
aF4.2
aF4.8
aF0.878
aF0.5
aF3.6
aF4.1
aF9.8
aF2.2
aF2.4
aF0.1
aF0.4
aF2.5
aF4.8
aF15.9
aF3.2
aI32
aI0
aI5
aV101108,1610612740
p364
aa(lp365
I200809
aVChris Quinn
p366
aI1610612759
aVSAS
p367
aF27.0
aI41
aI33
aI8
aF0.805
aF7.1
aF0.8
aF2.2
aF0.363
aF0.3
aF0.9
aF0.297
aF0.1
aF0.2
aF0.5
aF0.1
aF0.5
aF0.6
aF1.0
aF0.3
aF0.1
aF0.0
aF0.1
aF0.7
aF0.2
aF2.0
aF-0.9
aI0
aI0
aI5
aV200809,1610612759
p368
aa(lp369
I2404
aVChris Wilcox
p370
aI1610612765
aVDET
p371
aF28.0
aI57
aI22
aI35
aF0.386
aF17.5
aF3.3
aF5.6
aF0.581
aF0.0
aF0.0
aF0.0
aF0.9
aF1.6
aF0.562
aF1.7
aF3.1
aF4.8
aF0.8
aF0.8
aF0.5
aF0.3
aF0.3
aF2.5
aF1.3
aF7.4
aF-0.1
aI3
aI0
aI5
aV2404,1610612765
p372
aa(lp373
I201963
aVChristian Eyenga
p374
aI1610612739
aVCLE
p375
aF22.0
aI44
aI10
aI34
aF0.227
aF21.5
aF3.0
aF7.0
aF0.425
aF0.6
aF2.1
aF0.275
aF0.4
aF0.6
aF0.643
aF0.6
aF2.2
aF2.8
aF0.8
aF1.1
aF0.8
aF0.6
aF0.5
aF1.8
aF0.6
aF6.9
aF-4.6
aI0
aI0
aI5
aV201963,1610612739
p376
aa(lp377
I202332
aVCole Aldrich
p378
aI1610612760
aVOKC
p379
aF22.0
aI18
aI11
aI7
aF0.611
aF7.9
aF0.4
aF0.8
aF0.533
aF0.0
aF0.0
aF0.0
aF0.1
aF0.2
aF0.5
aF0.7
aF1.2
aF1.9
aF0.2
aF0.4
aF0.3
aF0.4
aF0.1
aF1.7
aF0.3
aF1.0
aF0.4
aI0
aI0
aI5
aV202332,1610612760
p380
aa(lp381
I201147
aVCorey Brewer
p382
aI1610612742
aVDAL
p383
aF25.0
aI69
aI22
aI47
aF0.319
aF21.9
aF2.8
aF7.1
aF0.395
aF0.4
aF1.6
aF0.268
aF2.0
aF2.8
aF0.708
aF0.8
aF1.7
aF2.5
aF1.3
aF1.3
aF1.4
aF0.2
aF0.4
aF2.3
aF2.3
aF8.0
aF-1.9
aI0
aI0
aI5
aV201147,1610612742
p384
aa(lp385
I1894
aVCorey Maggette
p386
aI1610612749
aVMIL
p387
aF31.0
aI67
aI25
aI42
aF0.373
aF20.9
aF3.8
aF8.3
aF0.453
aF0.4
aF1.2
aF0.359
aF4.0
aF4.9
aF0.834
aF0.7
aF2.9
aF3.6
aF1.3
aF1.9
aF0.3
aF0.1
aF0.6
aF2.6
aF3.4
aF12.0
aF-1.4
aI1
aI0
aI5
aV1894,1610612749
p388
aa(lp389
I201584
aVCourtney Lee
p390
aI1610612745
aVHOU
p391
aF25.0
aI81
aI43
aI38
aF0.531
aF21.3
aF3.1
aF7.1
aF0.439
aF0.9
aF2.1
aF0.408
aF1.2
aF1.5
aF0.792
aF0.6
aF2.0
aF2.6
aF1.2
aF0.8
aF0.7
aF0.2
aF0.3
aF1.3
aF1.0
aF8.3
aF0.1
aI0
aI0
aI5
aV201584,1610612745
p392
aa(lp393
I202342
aVCraig Brackins
p394
aI1610612755
aVPHI
p395
aF23.0
aI3
aI0
aI3
aF0.0
aF10.9
aF1.3
aF5.3
aF0.25
aF0.0
aF1.7
aF0.0
aF0.0
aF0.0
aF0.0
aF0.7
aF0.7
aF1.3
aF0.3
aF0.0
aF0.3
aF0.0
aF0.3
aF1.0
aF0.7
aF2.7
aF-3.7
aI0
aI0
aI5
aV202342,1610612755
p396
aa(lp397
I200783
aVCraig Smith
p398
aI1610612746
aVLAC
p399
aF27.0
aI48
aI17
aI31
aF0.354
aF12.2
aF2.2
aF3.9
aF0.553
aF0.0
aF0.1
aF0.0
aF1.0
aF1.4
aF0.735
aF0.9
aF1.5
aF2.4
aF0.6
aF0.7
aF0.3
aF0.1
aF0.4
aF1.8
aF1.1
aF5.4
aF-1.1
aI0
aI0
aI5
aV200783,1610612746
p400
aa(lp401
I201571
aVD.J. Augustin
p402
aI1610612766
aVCHA
p403
aF23.0
aI82
aI34
aI48
aF0.415
aF33.6
aF4.9
aF11.7
aF0.416
aF1.4
aF4.1
aF0.333
aF3.3
aF3.6
aF0.906
aF0.5
aF2.3
aF2.7
aF6.1
aF1.9
aF0.7
aF0.0
aF1.0
aF1.9
aF2.8
aF14.4
aF-3.1
aI7
aI0
aI5
aV201571,1610612766
p404
aa(lp405
I2788
aVDJ Mbenga
p406
aI1610612740
aVNOH
p407
aF30.0
aI41
aI20
aI21
aF0.488
aF8.1
aF0.6
aF1.2
aF0.469
aF0.0
aF0.0
aF0.0
aF0.3
aF0.4
aF0.722
aF0.9
aF1.2
aF2.1
aF0.1
aF0.5
aF0.1
aF0.7
aF0.1
aF1.3
aF0.4
aF1.4
aF-0.9
aI0
aI0
aI5
aV2788,1610612740
p408
aa(lp409
I201591
aVDJ White
p410
aI1610612766
aVCHA
p411
aF24.0
aI47
aI23
aI24
aF0.489
aF14.6
aF2.4
aF4.7
aF0.507
aF0.0
aF0.0
aF0.0
aF1.0
aF1.4
aF0.719
aF0.9
aF2.4
aF3.4
aF0.4
aF0.3
aF0.3
aF0.4
aF0.2
aF1.6
aF0.9
aF5.7
aF-0.7
aI0
aI0
aI5
aV201591,1610612766
p412
aa(lp413
I201969
aVDaJuan Summers
p414
aI1610612765
aVDET
p415
aF23.0
aI22
aI5
aI17
aF0.227
aF9.0
aF1.3
aF3.1
aF0.406
aF0.4
aF1.0
aF0.429
aF0.4
aF0.9
aF0.45
aF0.1
aF0.5
aF0.5
aF0.1
aF0.6
aF0.1
aF0.0
aF0.3
aF1.0
aF0.5
aF3.4
aF-1.0
aI0
aI0
aI5
aV201969,1610612765
p416
aa(lp417
I201161
aVDaequan Cook
p418
aI1610612760
aVOKC
p419
aF24.0
aI43
aI30
aI13
aF0.698
aF13.9
aF1.8
aF4.2
aF0.436
aF1.5
aF3.6
aF0.422
aF0.4
aF0.5
aF0.8
aF0.2
aF1.5
aF1.7
aF0.5
aF0.4
aF0.3
aF0.0
aF0.1
aF1.2
aF0.3
aF5.6
aF1.8
aI0
aI0
aI5
aV201161,1610612760
p420
aa(lp421
I2563
aVDahntay Jones
p422
aI1610612754
aVIND
p423
aF30.0
aI45
aI22
aI23
aF0.489
aF13.1
aF2.2
aF4.8
aF0.467
aF0.3
aF0.9
aF0.359
aF1.5
aF2.0
aF0.767
aF0.1
aF1.4
aF1.4
aF0.7
aF0.7
aF0.4
aF0.2
aF0.3
aF1.6
aF1.6
aF6.3
aF-0.8
aI0
aI0
aI5
aV2563,1610612754
p424
aa(lp425
I2863
aVDamien Wilkins
p426
aI1610612737
aVATL
p427
aF31.0
aI52
aI25
aI27
aF0.481
aF13.0
aF1.3
aF2.6
aF0.504
aF0.0
aF0.2
aF0.2
aF0.8
aF1.1
aF0.714
aF0.4
aF1.3
aF1.7
aF0.8
aF0.4
aF0.5
aF0.2
aF0.2
aF1.4
aF0.8
aF3.5
aF-2.3
aI0
aI0
aI5
aV2863,1610612737
p428
aa(lp429
I202345
aVDamion James
p430
aI1610612751
aVNJN
p431
aF23.0
aI25
aI7
aI18
aF0.28
aF16.1
aF1.8
aF4.1
aF0.447
aF0.0
aF0.1
aF0.0
aF0.7
aF1.1
aF0.643
aF0.7
aF2.7
aF3.4
aF0.8
aF1.0
aF0.6
aF0.5
aF0.4
aF1.4
aF0.7
aF4.4
aF-1.2
aI0
aI0
aI5
aV202345,1610612751
p432
aa(lp433
I2429
aVDan Gadzuric
p434
aI1610612751
aVNJN
p435
aF33.0
aI42
aI13
aI29
aF0.31
aF11.0
aF1.3
aF3.1
aF0.419
aF0.0
aF0.0
aF0.0
aF0.2
aF0.6
aF0.37
aF1.7
aF1.5
aF3.2
aF0.3
aF0.7
aF0.3
aF0.7
aF0.2
aF2.2
aF0.8
aF2.8
aF-1.5
aI0
aI0
aI5
aV2429,1610612751
p436
aa(lp437
I200789
aVDaniel Gibson
p438
aI1610612739
aVCLE
p439
aF25.0
aI67
aI18
aI49
aF0.269
aF27.8
aF3.9
aF9.9
aF0.4
aF1.8
aF4.4
aF0.403
aF2.0
aF2.4
aF0.822
aF0.4
aF2.3
aF2.6
aF3.0
aF1.2
aF0.7
aF0.3
aF0.6
aF2.3
aF2.1
aF11.6
aF-2.9
aI0
aI0
aI5
aV200789,1610612739
p440
aa(lp441
I201568
aVDanilo Gallinari
p442
aI1610612743
aVDEN
p443
aF22.0
aI62
aI34
aI28
aF0.548
aF33.9
aF4.3
aF10.3
aF0.414
aF1.7
aF4.7
aF0.352
aF5.4
aF6.3
aF0.862
aF1.0
aF4.0
aF4.9
aF1.7
aF1.3
aF0.8
aF0.4
aF0.4
aF2.3
aF4.8
aF15.6
aF1.1
aI2
aI0
aI5
aV201568,1610612743
p444
aa(lp445
I101122
aVDanny Granger
p446
aI1610612754
aVIND
p447
aF28.0
aI79
aI36
aI43
aF0.456
aF35.0
aF6.8
aF15.9
aF0.425
aF2.0
aF5.2
aF0.386
aF5.0
aF5.9
aF0.848
aF1.1
aF4.3
aF5.4
aF2.6
aF2.6
aF1.1
aF0.8
aF1.3
aF2.7
aF4.1
aF20.5
aF-0.2
aI5
aI0
aI5
aV101122,1610612754
p448
aa(lp449
I201980
aVDanny Green
p450
aI1610612759
aVSAS
p451
aF24.0
aI8
aI5
aI3
aF0.625
aF11.4
aF2.1
aF4.4
aF0.486
aF0.9
aF2.4
aF0.368
aF0.0
aF0.0
aF0.0
aF0.4
aF1.5
aF1.9
aF0.3
aF0.6
aF0.3
aF0.1
aF0.1
aF0.9
aF0.5
aF5.1
aF2.3
aI0
aI0
aI5
aV201980,1610612759
p452
aa(lp453
I201967
aVDante Cunningham
p454
aI1610612766
aVCHA
p455
aF24.0
aI78
aI39
aI39
aF0.5
aF21.0
aF2.8
aF6.1
aF0.462
aF0.0
aF0.2
aF0.077
aF0.6
aF0.8
aF0.726
aF1.2
aF2.3
aF3.6
aF0.6
aF0.7
aF0.7
aF0.6
aF0.3
aF2.3
aF0.8
aF6.2
aF-1.8
aI3
aI0
aI5
aV201967,1610612766
p456
aa(lp457
I2443
aVDarius Songaila
p458
aI1610612755
aVPHI
p459
aF33.0
aI10
aI4
aI6
aF0.4
aF7.1
aF0.7
aF1.5
aF0.467
aF0.0
aF0.0
aF0.0
aF0.2
aF0.4
aF0.5
aF0.2
aF0.8
aF1.0
aF0.2
aF0.4
aF0.0
aF0.0
aF0.1
aF1.6
aF0.4
aF1.6
aF-2.0
aI0
aI0
aI5
aV2443,1610612755
p460
aa(lp461
I2545
aVDarko Milicic
p462
aI1610612750
aVMIN
p463
aF26.0
aI69
aI15
aI54
aF0.217
aF24.4
aF3.9
aF8.4
aF0.469
aF0.0
aF0.0
aF0.0
aF0.9
aF1.7
aF0.557
aF1.9
aF3.3
aF5.2
aF1.5
aF2.2
aF0.8
aF2.0
aF0.6
aF3.3
aF1.5
aF8.8
aF-3.5
aI5
aI0
aI5
aV2545,1610612750
p464
aa(lp465
I201616
aVDarnell Jackson
p466
aI1610612758
aVSAC
p467
aF25.0
aI59
aI18
aI41
aF0.305
aF8.2
aF1.3
aF2.7
aF0.487
aF0.1
aF0.2
aF0.273
aF0.5
aF0.8
aF0.612
aF0.8
aF0.8
aF1.6
aF0.2
aF0.4
aF0.2
aF0.1
aF0.2
aF1.0
aF0.7
aF3.2
aF-1.3
aI0
aI0
aI5
aV201616,1610612758
p468
aa(lp469
I201589
aVDarrell Arthur
p470
aI1610612763
aVMEM
p471
aF23.0
aI80
aI45
aI35
aF0.563
aF20.1
aF3.9
aF7.8
aF0.497
aF0.0
aF0.1
aF0.0
aF1.4
aF1.7
aF0.813
aF1.4
aF2.8
aF4.3
aF0.7
aF1.1
aF0.7
aF0.8
aF0.4
aF2.9
aF1.5
aF9.1
aF0.5
aI2
aI0
aI5
aV201589,1610612763
p472
aa(lp473
I201954
aVDarren Collison
p474
aI1610612754
aVIND
p475
aF23.0
aI79
aI36
aI43
aF0.456
aF29.9
aF5.0
aF11.0
aF0.457
aF0.5
aF1.6
aF0.331
aF2.6
aF2.9
aF0.871
aF0.5
aF2.3
aF2.8
aF5.1
aF2.5
aF1.1
aF0.2
aF0.7
aF1.4
aF2.2
aF13.2
aF-1.7
aI4
aI0
aI5
aV201954,1610612754
p476
aa(lp477
I2431
aVDavid Andersen
p478
aI1610612740
aVNOH
p479
aF31.0
aI40
aI17
aI23
aF0.425
aF9.3
aF1.4
aF3.0
aF0.463
aF0.2
aF0.6
aF0.348
aF0.4
aF0.6
aF0.636
aF0.5
aF1.6
aF2.1
aF0.3
aF0.6
aF0.1
aF0.2
aF0.3
aF1.0
aF0.6
aF3.4
aF0.5
aI0
aI0
aI5
aV2431,1610612740
p480
aa(lp481
I101135
aVDavid Lee
p482
aI1610612744
aVGSW
p483
aF28.0
aI73
aI35
aI38
aF0.479
aF36.1
aF6.8
aF13.4
aF0.507
aF0.0
aF0.0
aF0.333
aF2.9
aF3.7
aF0.787
aF3.0
aF6.8
aF9.8
aF3.2
aF2.3
aF1.0
aF0.4
aF0.9
aF2.9
aF2.9
aF16.5
aF-1.6
aI37
aI0
aI5
aV101135,1610612744
p484
aa(lp485
I2561
aVDavid West
p486
aI1610612740
aVNOH
p487
aF30.0
aI70
aI40
aI30
aF0.571
aF35.0
aF7.5
aF14.9
aF0.508
aF0.0
aF0.1
aF0.222
aF3.8
aF4.7
aF0.807
aF2.2
aF5.3
aF7.6
aF2.3
aF2.0
aF1.0
aF0.9
aF1.0
aF2.9
aF3.7
aF18.9
aF2.1
aI16
aI0
aI5
aV2561,1610612740
p488
aa(lp489
I201599
aVDeAndre Jordan
p490
aI1610612746
aVLAC
p491
aF22.0
aI80
aI31
aI49
aF0.388
aF25.6
aF2.9
aF4.3
aF0.686
aF0.0
aF0.0
aF0.0
aF1.2
aF2.7
aF0.452
aF2.6
aF4.6
aF7.2
aF0.5
aF1.3
aF0.5
aF1.8
aF0.4
aF3.2
aF2.3
aF7.1
aF-1.3
aI8
aI0
aI5
aV201599,1610612746
p492
aa(lp493
I201971
aVDeJuan Blair
p494
aI1610612759
aVSAS
p495
aF22.0
aI81
aI60
aI21
aF0.741
aF21.4
aF3.6
aF7.2
aF0.501
aF0.0
aF0.0
aF0.0
aF1.1
aF1.7
aF0.657
aF2.7
aF4.3
aF7.0
aF1.0
aF1.4
aF1.2
aF0.5
aF0.8
aF2.6
aF1.5
aF8.3
aF1.6
aI17
aI0
aI5
aV201971,1610612759
p496
aa(lp497
I201942
aVDeMar DeRozan
p498
aI1610612761
aVTOR
p499
aF21.0
aI82
aI22
aI60
aF0.268
aF34.8
aF6.6
aF14.1
aF0.467
aF0.1
aF0.6
aF0.096
aF4.0
aF4.9
aF0.813
aF0.9
aF2.9
aF3.8
aF1.8
aF1.8
aF1.0
aF0.4
aF1.1
aF2.6
aF3.7
aF17.2
aF-5.0
aI1
aI0
aI5
aV201942,1610612761
p500
aa(lp501
I202326
aVDeMarcus Cousins
p502
aI1610612758
aVSAC
p503
aF20.0
aI81
aI23
aI58
aF0.284
aF28.5
aF5.3
aF12.4
aF0.43
aF0.0
aF0.2
aF0.167
aF3.4
aF5.0
aF0.687
aF2.7
aF6.0
aF8.6
aF2.5
aF3.3
aF1.0
aF0.8
aF1.4
aF4.1
aF4.6
aF14.1
aF-3.2
aI26
aI0
aI5
aV202326,1610612758
p504
aa(lp505
I201960
aVDeMarre Carroll
p506
aI1610612745
aVHOU
p507
aF24.0
aI12
aI7
aI5
aF0.583
aF4.2
aF0.3
aF1.0
aF0.333
aF0.0
aF0.0
aF0.0
aF0.2
aF0.2
aF1.0
aF0.2
aF0.5
aF0.7
aF0.3
aF0.0
aF0.1
aF0.1
aF0.2
aF0.4
aF0.5
aF0.8
aF0.6
aI0
aI0
aI5
aV201960,1610612745
p508
aa(lp509
I2205
aVDeSagana Diop
p510
aI1610612766
aVCHA
p511
aF29.0
aI16
aI6
aI10
aF0.375
aF11.3
aF0.5
aF1.5
aF0.333
aF0.0
aF0.0
aF0.0
aF0.3
aF0.7
aF0.364
aF0.8
aF1.8
aF2.5
aF0.4
aF0.7
aF0.3
aF0.9
aF0.1
aF1.6
aF0.4
aF1.3
aF-2.5
aI0
aI0
aI5
aV2205,1610612766
p512
aa(lp513
I2052
aVDeShawn Stevenson
p514
aI1610612742
aVDAL
p515
aF30.0
aI72
aI49
aI23
aF0.681
aF16.1
aF1.8
aF4.6
aF0.388
aF1.3
aF3.5
aF0.378
aF0.5
aF0.6
aF0.767
aF0.3
aF1.2
aF1.5
aF1.1
aF0.6
aF0.3
aF0.1
aF0.2
aF1.0
aF0.8
aF5.3
aF0.4
aI0
aI0
aI5
aV2052,1610612742
p516
aa(lp517
I2753
aVDelonte West
p518
aI1610612738
aVBOS
p519
aF27.0
aI24
aI13
aI11
aF0.542
aF18.9
aF2.3
aF5.0
aF0.458
aF0.5
aF1.4
aF0.364
aF0.5
aF0.6
aF0.867
aF0.3
aF1.3
aF1.5
aF2.7
aF1.3
aF0.8
aF0.4
aF0.4
aF1.2
aF0.7
aF5.6
aF-3.5
aI0
aI0
aI5
aV2753,1610612738
p520
aa(lp521
I965
aVDerek Fisher
p522
aI1610612747
aVLAL
p523
aF36.0
aI82
aI57
aI25
aF0.695
aF28.0
aF2.5
aF6.5
aF0.389
aF0.8
aF1.9
aF0.396
aF1.0
aF1.3
aF0.806
aF0.2
aF1.7
aF1.9
aF2.7
aF0.9
aF1.2
aF0.1
aF0.3
aF2.3
aF1.7
aF6.8
aF5.4
aI0
aI0
aI5
aV965,1610612747
p524
aa(lp525
I101114
aVDeron Williams
p526
aI1610612751
aVNJN
p527
aF27.0
aI65
aI33
aI32
aF0.508
aF37.9
aF6.6
aF15.0
aF0.439
aF1.6
aF4.9
aF0.331
aF5.4
aF6.3
aF0.845
aF0.6
aF3.4
aF4.0
aF10.3
aF3.5
aF1.2
aF0.2
aF0.9
aF2.9
aF5.2
aF20.1
aF-1.8
aI34
aI0
aI5
aV101114,1610612751
p528
aa(lp529
I201974
aVDerrick Brown
p530
aI1610612752
aVNYK
p531
aF23.0
aI49
aI22
aI27
aF0.449
aF11.7
aF1.5
aF2.7
aF0.565
aF0.1
aF0.2
aF0.5
aF0.7
aF1.2
aF0.533
aF0.8
aF1.2
aF2.0
aF0.7
aF0.7
aF0.4
aF0.2
aF0.2
aF1.2
aF1.0
aF3.8
aF-0.9
aI0
aI0
aI5
aV201974,1610612752
p532
aa(lp533
I202382
aVDerrick Caracter
p534
aI1610612747
aVLAL
p535
aF23.0
aI41
aI29
aI12
aF0.707
aF5.2
aF0.8
aF1.6
aF0.485
aF0.0
aF0.0
aF0.0
aF0.4
aF0.6
aF0.739
aF0.5
aF0.6
aF1.0
aF0.2
aF0.5
aF0.1
aF0.2
aF0.2
aF1.1
aF0.5
aF2.0
aF-1.4
aI0
aI0
aI5
aV202382,1610612747
p536
aa(lp537
I202324
aVDerrick Favors
p538
aI1610612762
aVUTA
p539
aF19.0
aI78
aI25
aI53
aF0.321
aF19.7
aF2.8
aF5.3
aF0.517
aF0.0
aF0.0
aF0.0
aF1.3
aF2.2
aF0.595
aF2.2
aF3.1
aF5.3
aF0.5
aF1.0
aF0.4
aF0.9
aF0.4
aF3.2
aF1.6
aF6.8
aF-3.0
aI4
aI0
aI5
aV202324,1610612762
p540
aa(lp541
I201565
aVDerrick Rose
p542
aI1610612741
aVCHI
p543
aF22.0
aI81
aI62
aI19
aF0.765
aF37.4
aF8.8
aF19.7
aF0.445
aF1.6
aF4.8
aF0.332
aF5.9
aF6.9
aF0.858
aF1.0
aF3.1
aF4.1
aF7.7
aF3.4
aF1.0
aF0.6
aF1.6
aF1.7
aF4.8
aF25.0
aF6.1
aI23
aI1
aI5
aV201565,1610612741
p544
aa(lp545
I202365
aVDevin Ebanks
p546
aI1610612747
aVLAL
p547
aF21.0
aI20
aI15
aI5
aF0.75
aF5.9
aF1.1
aF2.6
aF0.412
aF0.1
aF0.3
aF0.4
aF0.9
aF1.2
aF0.783
aF0.8
aF0.6
aF1.4
aF0.1
aF0.3
aF0.2
aF0.3
aF0.3
aF0.4
aF0.7
aF3.1
aF-2.1
aI0
aI0
aI5
aV202365,1610612747
p548
aa(lp549
I2734
aVDevin Harris
p550
aI1610612762
aVUTA
p551
aF28.0
aI71
aI24
aI47
aF0.338
aF31.7
aF4.8
aF11.5
aF0.422
aF0.8
aF2.5
aF0.322
aF4.7
aF5.7
aF0.833
aF0.2
aF2.1
aF2.4
aF7.1
aF2.9
aF1.0
aF0.1
aF0.8
aF2.3
aF4.9
aF15.2
aF-2.9
aI9
aI0
aI5
aV2734,1610612762
p552
aa(lp553
I202354
aVDexter Pittman
p554
aI1610612748
aVMIA
p555
aF23.0
aI2
aI2
aI0
aF1.0
aF5.6
aF0.5
aF1.5
aF0.333
aF0.0
aF0.0
aF0.0
aF0.0
aF0.0
aF0.0
aF0.5
aF1.0
aF1.5
aF0.0
aF1.0
aF0.0
aF0.0
aF0.0
aF1.0
aF0.0
aF1.0
aF4.0
aI0
aI0
aI5
aV202354,1610612748
p556
aa(lp557
I1717
aVDirk Nowitzki
p558
aI1610612742
aVDAL
p559
aF33.0
aI73
aI55
aI18
aF0.753
aF34.3
aF8.4
aF16.2
aF0.517
aF0.9
aF2.3
aF0.393
aF5.4
aF6.1
aF0.892
aF0.7
aF6.3
aF7.0
aF2.6
aF1.9
aF0.5
aF0.6
aF0.4
aF2.4
aF4.8
aF23.0
aF7.4
aI16
aI0
aI5
aV1717,1610612742
p560
aa(lp561
I201187
aVDominic McGuire
p562
aI1610612766
aVCHA
p563
aF25.0
aI52
aI18
aI34
aF0.346
aF14.6
aF1.4
aF3.5
aF0.396
aF0.0
aF0.0
aF0.0
aF0.6
aF0.8
aF0.769
aF1.2
aF2.6
aF3.8
aF0.8
aF0.5
aF0.2
aF0.6
aF0.4
aF1.8
aF0.6
aF3.3
aF-1.5
aI1
aI0
aI5
aV201187,1610612766
p564
aa(lp565
I202346
aVDominique Jones
p566
aI1610612742
aVDAL
p567
aF22.0
aI18
aI10
aI8
aF0.556
aF7.5
aF0.8
aF2.5
aF0.311
aF0.0
aF0.2
aF0.0
aF0.8
aF0.9
aF0.824
aF0.3
aF1.1
aF1.4
aF1.1
aF0.6
aF0.3
aF0.2
aF0.2
aF0.4
aF0.6
aF2.3
aF-1.2
aI0
aI0
aI5
aV202346,1610612742
p568
aa(lp569
I201590
aVDonte Greene
p570
aI1610612758
aVSAC
p571
aF23.0
aI69
aI21
aI48
aF0.304
aF16.3
aF2.3
aF5.6
aF0.404
aF0.7
aF2.2
aF0.292
aF0.6
aF0.9
aF0.662
aF0.7
aF1.4
aF2.1
aF0.7
aF0.9
aF0.5
aF0.3
aF0.3
aF1.3
aF0.8
aF5.8
aF-1.6
aI1
aI0
aI5
aV201590,1610612758
p572
aa(lp573
I2748
aVDorell Wright
p574
aI1610612744
aVGSW
p575
aF25.0
aI82
aI36
aI46
aF0.439
aF38.4
aF5.9
aF14.0
aF0.423
aF2.4
aF6.3
aF0.376
aF2.2
aF2.8
aF0.789
aF1.1
aF4.2
aF5.3
aF3.0
aF1.6
aF1.5
aF0.8
aF0.6
aF2.1
aF2.0
aF16.4
aF-1.6
aI7
aI0
aI5
aV2748,1610612744
p576
aa(lp577
I2400
aVDrew Gooden
p578
aI1610612749
aVMIL
p579
aF29.0
aI35
aI14
aI21
aF0.4
aF24.6
aF4.5
aF10.3
aF0.431
aF0.1
aF0.6
aF0.15
aF2.3
aF2.9
aF0.794
aF2.1
aF4.7
aF6.8
aF1.3
aF1.3
aF0.6
aF0.5
aF0.7
aF2.8
aF2.8
aF11.3
aF-1.1
aI10
aI1
aI5
aV2400,1610612749
p580
aa(lp581
I2730
aVDwight Howard
p582
aI1610612753
aVORL
p583
aF25.0
aI78
aI51
aI27
aF0.654
aF37.6
aF7.9
aF13.4
aF0.593
aF0.0
aF0.1
aF0.0
aF7.0
aF11.7
aF0.596
aF4.0
aF10.1
aF14.1
aF1.4
aF3.6
aF1.4
aF2.4
aF1.0
aF3.3
aF9.8
aF22.9
aF6.4
aI66
aI0
aI5
aV2730,1610612753
p584
aa(lp585
I2548
aVDwyane Wade
p586
aI1610612748
aVMIA
p587
aF29.0
aI76
aI54
aI22
aF0.711
aF37.1
aF9.1
aF18.2
aF0.5
aF0.8
aF2.7
aF0.306
aF6.5
aF8.6
aF0.758
aF1.6
aF4.8
aF6.4
aF4.6
aF3.1
aF1.5
aF1.1
aF0.9
aF2.6
aF6.1
aF25.5
aF7.5
aI10
aI1
aI5
aV2548,1610612748
p588
aa(lp589
I2853
aVEarl Barron
p590
aI1610612757
aVPOR
p591
aF29.0
aI21
aI10
aI11
aF0.476
aF14.5
aF1.5
aF4.7
aF0.323
aF0.0
aF0.0
aF0.0
aF0.7
aF1.1
aF0.625
aF1.5
aF2.1
aF3.6
aF0.5
aF0.8
aF0.4
aF0.3
aF0.4
aF2.2
aF1.0
aF3.8
aF-1.6
aI0
aI0
aI5
aV2853,1610612757
p592
aa(lp593
I1863
aVEarl Boykins
p594
aI1610612749
aVMIL
p595
aF35.0
aI57
aI23
aI34
aF0.404
aF15.1
aF2.7
aF6.2
aF0.443
aF0.5
aF1.2
aF0.38
aF1.2
aF1.4
aF0.841
aF0.3
aF0.7
aF1.0
aF2.5
aF0.9
aF0.7
aF0.1
aF0.3
aF0.8
aF1.3
aF7.2
aF0.7
aI0
aI0
aI5
aV1863,1610612749
p596
aa(lp597
I201947
aVEarl Clark
p598
aI1610612753
aVORL
p599
aF23.0
aI42
aI28
aI14
aF0.667
aF11.0
aF1.6
aF3.8
aF0.43
aF0.0
aF0.1
aF0.0
aF0.6
aF1.1
aF0.574
aF0.9
aF1.5
aF2.4
aF0.2
aF0.7
aF0.2
aF0.4
aF0.4
aF1.1
aF0.8
aF3.9
aF-1.3
aI0
aI0
aI5
aV201947,1610612753
p600
aa(lp601
I2248
aVEarl Watson
p602
aI1610612762
aVUTA
p603
aF32.0
aI80
aI37
aI43
aF0.463
aF19.6
aF1.6
aF3.8
aF0.41
aF0.5
aF1.3
aF0.336
aF0.7
aF1.0
aF0.671
aF0.7
aF1.6
aF2.3
aF3.5
aF1.5
aF0.8
aF0.2
aF0.3
aF1.8
aF1.0
aF4.3
aF0.1
aI1
aI0
aI5
aV2248,1610612762
p604
aa(lp605
I202334
aVEd Davis
p606
aI1610612761
aVTOR
p607
aF22.0
aI65
aI16
aI49
aF0.246
aF24.6
aF3.3
aF5.7
aF0.576
aF0.0
aF0.0
aF0.0
aF1.1
aF2.0
aF0.555
aF2.6
aF4.5
aF7.1
aF0.6
aF0.7
aF0.6
aF1.0
aF0.5
aF2.8
aF1.4
aF7.7
aF-5.3
aI13
aI0
aI5
aV202334,1610612761
p608
aa(lp609
I2067
aVEddie House
p610
aI1610612748
aVMIA
p611
aF33.0
aI56
aI39
aI17
aF0.696
aF17.5
aF2.3
aF5.7
aF0.399
aF1.2
aF3.1
aF0.389
aF0.7
aF0.7
aF0.95
aF0.2
aF1.5
aF1.6
aF1.1
aF0.5
aF0.6
aF0.1
aF0.2
aF1.2
aF0.4
aF6.5
aF1.9
aI0
aI0
aI5
aV2067,1610612748
p612
aa(lp613
I2059
aVEduardo Najera
p614
aI1610612766
aVCHA
p615
aF34.0
aI31
aI14
aI17
aF0.452
aF12.0
aF0.8
aF2.3
aF0.361
aF0.4
aF1.1
aF0.324
aF0.2
aF0.4
aF0.545
aF0.5
aF1.0
aF1.4
aF0.6
aF0.4
aF0.4
aF0.2
aF0.1
aF1.7
aF0.7
aF2.2
aF0.3
aI0
aI0
aI5
aV2059,1610612766
p616
aa(lp617
I202327
aVEkpe Udoh
p618
aI1610612744
aVGSW
p619
aF24.0
aI58
aI28
aI30
aF0.483
aF17.7
aF1.7
aF3.8
aF0.437
aF0.0
aF0.0
aF0.0
aF0.7
aF1.1
aF0.656
aF1.4
aF1.7
aF3.1
aF0.7
aF0.8
aF0.4
aF1.5
aF0.2
aF2.5
aF1.4
aF4.1
aF1.8
aI0
aI0
aI5
aV202327,1610612744
p620
aa(lp621
I1882
aVElton Brand
p622
aI1610612755
aVPHI
p623
aF32.0
aI81
aI41
aI40
aF0.506
aF34.7
aF6.2
aF12.1
aF0.512
aF0.0
aF0.0
aF0.0
aF2.6
aF3.4
aF0.78
aF2.9
aF5.4
aF8.3
aF1.5
aF1.2
aF1.1
aF1.3
aF0.6
aF3.0
aF2.8
aF15.0
aF1.6
aI24
aI0
aI5
aV1882,1610612755
p624
aa(lp625
I2731
aVEmeka Okafor
p626
aI1610612740
aVNOH
p627
aF28.0
aI72
aI43
aI29
aF0.597
aF31.8
aF4.2
aF7.3
aF0.573
aF0.0
aF0.0
aF0.0
aF2.0
aF3.6
aF0.562
aF3.2
aF6.3
aF9.5
aF0.6
aF1.7
aF0.6
aF1.8
aF0.9
aF3.2
aF2.9
aF10.3
aF2.0
aI23
aI0
aI5
aV2731,1610612740
p628
aa(lp629
I202339
aVEric Bledsoe
p630
aI1610612746
aVLAC
p631
aF21.0
aI81
aI32
aI49
aF0.395
aF22.7
aF2.5
aF6.0
aF0.424
aF0.4
aF1.4
aF0.276
aF1.2
aF1.6
aF0.744
aF0.8
aF1.9
aF2.8
aF3.6
aF2.4
aF1.1
aF0.3
aF0.4
aF1.6
aF1.5
aF6.7
aF-2.7
aI1
aI0
aI5
aV202339,1610612746
p632
aa(lp633
I201569
aVEric Gordon
p634
aI1610612746
aVLAC
p635
aF22.0
aI56
aI25
aI31
aF0.446
aF37.7
aF7.6
aF16.9
aF0.45
aF1.9
aF5.2
aF0.364
aF5.1
aF6.2
aF0.825
aF0.8
aF2.1
aF2.9
aF4.4
aF2.7
aF1.3
aF0.3
aF1.2
aF2.1
aF4.6
aF22.3
aF0.0
aI1
aI0
aI5
aV201569,1610612746
p636
aa(lp637
I201953
aVEric Maynor
p638
aI1610612760
aVOKC
p639
aF24.0
aI82
aI55
aI27
aF0.671
aF14.6
aF1.6
aF4.1
aF0.402
aF0.5
aF1.2
aF0.385
aF0.5
aF0.7
aF0.729
aF0.3
aF1.2
aF1.5
aF2.9
aF0.9
aF0.4
aF0.1
aF0.1
aF1.2
aF0.6
aF4.2
aF2.3
aI0
aI0
aI5
aV201953,1610612760
p640
aa(lp641
I956
aVErick Dampier
p642
aI1610612748
aVMIA
p643
aF35.0
aI51
aI36
aI15
aF0.706
aF16.0
aF1.0
aF1.7
aF0.584
aF0.0
aF0.0
aF0.0
aF0.5
aF0.9
aF0.545
aF1.0
aF2.4
aF3.5
aF0.4
aF0.6
aF0.3
aF0.9
aF0.2
aF1.6
aF0.9
aF2.5
aF2.2
aI1
aI0
aI5
aV956,1610612748
p644
aa(lp645
I101141
aVErsan Ilyasova
p646
aI1610612749
aVMIL
p647
aF24.0
aI60
aI25
aI35
aF0.417
aF25.1
aF3.7
aF8.5
aF0.436
aF0.6
aF2.0
aF0.298
aF1.6
aF1.7
aF0.894
aF1.8
aF4.3
aF6.1
aF0.9
aF1.1
aF0.9
aF0.4
aF0.5
aF2.7
aF2.3
aF9.5
aF1.0
aI8
aI0
aI5
aV101141,1610612749
p648
aa(lp649
I2041
aVEtan Thomas
p650
aI1610612737
aVATL
p651
aF33.0
aI13
aI6
aI7
aF0.462
aF6.3
aF0.8
aF1.6
aF0.476
aF0.0
aF0.0
aF0.0
aF0.9
aF1.2
aF0.8
aF0.5
aF1.3
aF1.8
aF0.2
aF0.4
aF0.1
aF0.3
aF0.2
aF0.8
aF0.7
aF2.5
aF-2.0
aI0
aI0
aI5
aV2041,1610612737
p652
aa(lp653
I202323
aVEvan Turner
p654
aI1610612755
aVPHI
p655
aF22.0
aI78
aI40
aI38
aF0.513
aF23.0
aF2.9
aF6.8
aF0.425
aF0.2
aF0.6
aF0.318
aF1.3
aF1.6
aF0.808
aF0.5
aF3.4
aF3.9
aF2.0
aF1.0
aF0.6
aF0.2
aF0.6
aF1.8
aF1.3
aF7.2
aF-0.6
aI2
aI0
aI5
aV202323,1610612755
p656
aa(lp657
I101177
aVFabricio Oberto
p658
aI1610612757
aVPOR
p659
aF36.0
aI5
aI4
aI1
aF0.8
aF8.9
aF0.6
aF1.0
aF0.6
aF0.0
aF0.0
aF0.0
aF0.2
aF0.4
aF0.5
aF0.6
aF0.8
aF1.4
aF0.0
aF0.6
aF0.0
aF0.0
aF0.0
aF2.0
aF0.4
aF1.4
aF-4.0
aI0
aI0
aI5
aV101177,1610612757
p660
aa(lp661
I1922
aVFrancisco Elson
p662
aI1610612762
aVUTA
p663
aF35.0
aI62
aI34
aI28
aF0.548
aF9.8
aF0.9
aF1.8
aF0.478
aF0.0
aF0.0
aF0.0
aF0.4
aF0.5
aF0.839
aF0.6
aF1.3
aF1.9
aF0.5
aF0.5
aF0.3
aF0.2
aF0.1
aF1.4
aF0.6
aF2.2
aF-0.9
aI0
aI0
aI5
aV1922,1610612762
p664
aa(lp665
I101128
aVFrancisco Garcia
p666
aI1610612758
aVSAC
p667
aF29.0
aI58
aI18
aI40
aF0.31
aF23.9
aF3.6
aF8.2
aF0.436
aF1.4
aF3.9
aF0.362
aF1.1
aF1.3
aF0.855
aF0.4
aF1.9
aF2.3
aF1.2
aF0.8
aF0.9
aF0.8
aF0.3
aF2.2
aF1.3
aF9.7
aF-2.0
aI1
aI0
aI5
aV101128,1610612758
p668
aa(lp669
I202371
aVGani Lawal
p670
aI1610612756
aVPHX
p671
aF22.0
aI1
aI1
aI0
aF1.0
aF1.9
aF0.0
aF0.0
aF0.0
aF0.0
aF0.0
aF0.0
aF0.0
aF0.0
aF0.0
aF0.0
aF0.0
aF0.0
aF0.0
aF0.0
aF0.0
aF0.0
aF0.0
aF1.0
aF0.0
aF0.0
aF-2.0
aI0
aI0
aI5
aV202371,1610612756
p672
aa(lp673
I202081
aVGarret Siler
p674
aI1610612756
aVPHX
p675
aF24.0
aI21
aI10
aI11
aF0.476
aF4.8
aF0.8
aF1.5
aF0.548
aF0.0
aF0.0
aF0.0
aF0.5
aF1.0
aF0.5
aF0.8
aF0.6
aF1.3
aF0.1
aF0.5
aF0.0
aF0.2
aF0.3
aF1.0
aF0.6
aF2.1
aF-0.8
aI0
aI0
aI5
aV202081,1610612756
p676
aa(lp677
I202066
aVGarrett Temple
p678
aI1610612766
aVCHA
p679
aF25.0
aI24
aI12
aI12
aF0.5
aF9.6
aF0.8
aF2.8
aF0.294
aF0.4
aF1.5
aF0.27
aF0.3
aF0.7
aF0.412
aF0.0
aF0.9
aF1.0
aF1.3
aF1.0
aF0.5
aF0.3
aF0.2
aF1.0
aF0.5
aF2.4
aF-1.3
aI0
aI0
aI5
aV202066,1610612766
p680
aa(lp681
I201814
aVGary Forbes
p682
aI1610612743
aVDEN
p683
aF26.0
aI63
aI39
aI24
aF0.619
aF12.5
aF2.0
aF4.3
aF0.454
aF0.3
aF0.9
aF0.328
aF0.9
aF1.4
aF0.678
aF0.4
aF1.4
aF1.8
aF0.8
aF0.7
aF0.4
aF0.1
aF0.4
aF1.2
aF1.0
aF5.2
aF-0.5
aI0
aI0
aI5
aV201814,1610612743
p684
aa(lp685
I202390
aVGary Neal
p686
aI1610612759
aVSAS
p687
aF26.0
aI80
aI59
aI21
aF0.738
aF21.1
aF3.6
aF7.9
aF0.451
aF1.6
aF3.9
aF0.419
aF1.1
aF1.3
aF0.808
aF0.3
aF2.2
aF2.5
aF1.2
aF1.0
aF0.3
aF0.1
aF0.2
aF1.9
aF1.1
aF9.8
aF1.1
aI0
aI0
aI5
aV202390,1610612759
p688
aa(lp689
I201588
aVGeorge Hill
p690
aI1610612759
aVSAS
p691
aF25.0
aI76
aI56
aI20
aF0.737
aF28.3
aF3.8
aF8.3
aF0.453
aF1.0
aF2.7
aF0.377
aF3.1
aF3.6
aF0.863
aF0.3
aF2.3
aF2.6
aF2.5
aF1.3
aF0.9
aF0.3
aF0.5
aF2.0
aF2.9
aF11.6
aF3.6
aI0
aI0
aI5
aV201588,1610612759
p692
aa(lp693
I201945
aVGerald Henderson
p694
aI1610612766
aVCHA
p695
aF23.0
aI68
aI29
aI39
aF0.426
aF24.4
aF3.8
aF8.4
aF0.454
aF0.1
aF0.5
aF0.194
aF1.9
aF2.4
aF0.785
aF0.7
aF2.3
aF3.0
aF1.5
aF0.9
aF0.7
aF0.5
aF0.5
aF1.7
aF2.3
aF9.6
aF-1.5
aI0
aI0
aI5
aV201945,1610612766
p696
aa(lp697
I2222
aVGerald Wallace
p698
aI1610612757
aVPOR
p699
aF28.0
aI71
aI36
aI35
aF0.507
aF37.9
aF5.4
aF12.0
aF0.454
aF0.9
aF2.6
aF0.333
aF3.9
aF5.3
aF0.746
aF1.6
aF6.5
aF8.0
aF2.4
aF2.1
aF1.5
aF0.9
aF1.3
aF2.6
aF4.5
aF15.7
aF1.6
aI18
aI0
aI5
aV2222,1610612757
p700
aa(lp701
I2240
aVGilbert Arenas
p702
aI1610612753
aVORL
p703
aF29.0
aI70
aI35
aI35
aF0.5
aF25.7
aF3.8
aF10.5
aF0.366
aF1.4
aF4.7
aF0.297
aF1.7
aF2.2
aF0.784
aF0.3
aF2.4
aF2.7
aF3.9
aF2.5
aF1.1
aF0.3
aF0.4
aF2.7
aF2.1
aF10.8
aF-0.2
aI3
aI0
aI5
aV2240,1610612753
p704
aa(lp705
I201175
aVGlen Davis
p706
aI1610612738
aVBOS
p707
aF25.0
aI78
aI54
aI24
aF0.692
aF29.5
aF4.6
aF10.3
aF0.448
aF0.0
aF0.2
aF0.133
aF2.5
aF3.4
aF0.736
aF1.3
aF4.2
aF5.4
aF1.2
aF1.1
aF1.0
aF0.4
aF0.8
aF3.0
aF3.0
aF11.7
aF1.8
aI5
aI0
aI5
aV201175,1610612738
p708
aa(lp709
I201609
aVGoran Dragic
p710
aI1610612745
aVHOU
p711
aF25.0
aI70
aI37
aI33
aF0.529
aF17.6
aF2.7
aF6.3
aF0.435
aF0.8
aF2.2
aF0.361
aF1.2
aF1.9
aF0.624
aF0.5
aF1.5
aF2.0
aF2.9
aF1.7
aF0.7
aF0.1
aF0.4
aF1.8
aF2.2
aF7.5
aF-3.0
aI5
aI1
aI5
aV201609,1610612745
p712
aa(lp713
I202330
aVGordon Hayward
p714
aI1610612762
aVUTA
p715
aF21.0
aI72
aI33
aI39
aF0.458
aF16.9
aF2.0
aF4.1
aF0.485
aF0.5
aF1.0
aF0.473
aF1.0
aF1.3
aF0.711
aF0.6
aF1.4
aF1.9
aF1.1
aF1.0
aF0.4
aF0.3
aF0.2
aF1.5
aF1.7
aF5.4
aF-2.7
aI0
aI0
aI5
aV202330,1610612762
p716
aa(lp717
I255
aVGrant Hill
p718
aI1610612756
aVPHX
p719
aF38.0
aI80
aI39
aI41
aF0.488
aF30.1
aF5.0
aF10.3
aF0.484
aF0.6
aF1.4
aF0.395
aF2.7
aF3.2
aF0.829
aF1.0
aF3.3
aF4.2
aF2.5
aF1.7
aF0.8
aF0.4
aF0.5
aF2.3
aF3.1
aF13.2
aF0.6
aI4
aI0
aI5
aV255,1610612756
p720
aa(lp721
I202328
aVGreg Monroe
p722
aI1610612765
aVDET
p723
aF21.0
aI80
aI30
aI50
aF0.375
aF27.8
aF3.8
aF6.9
aF0.551
aF0.0
aF0.0
aF0.0
aF1.8
aF2.9
aF0.622
aF3.1
aF4.4
aF7.5
aF1.3
aF1.0
aF1.2
aF0.6
aF0.9
aF2.5
aF2.3
aF9.4
aF-1.7
aI21
aI0
aI5
aV202328,1610612765
p724
aa(lp725
I202349
aVGreivis Vasquez
p726
aI1610612763
aVMEM
p727
aF24.0
aI70
aI41
aI29
aF0.586
aF12.3
aF1.4
aF3.3
aF0.408
aF0.4
aF1.2
aF0.291
aF0.5
aF0.6
aF0.773
aF0.2
aF0.9
aF1.0
aF2.2
aF1.0
aF0.3
aF0.1
aF0.2
aF1.2
aF0.8
aF3.6
aF-0.9
aI0
aI0
aI5
aV202349,1610612763
p728
aa(lp729
I101124
aVHakim Warrick
p730
aI1610612756
aVPHX
p731
aF28.0
aI80
aI39
aI41
aF0.488
aF17.7
aF2.9
aF5.6
aF0.511
aF0.0
aF0.1
aF0.091
aF2.7
aF3.7
aF0.721
aF1.1
aF2.6
aF3.7
aF0.9
aF1.0
aF0.4
aF0.1
aF0.4
aF1.3
aF2.8
aF8.4
aF-2.3
aI3
aI0
aI5
aV101124,1610612756
p732
aa(lp733
I202380
aVHamady Ndiaye
p734
aI1610612764
aVWAS
p735
aF24.0
aI16
aI3
aI13
aF0.188
aF5.0
aF0.3
aF0.3
aF0.8
aF0.0
aF0.0
aF0.0
aF0.4
aF0.8
aF0.5
aF0.1
aF0.3
aF0.4
aF0.0
aF0.2
aF0.1
aF0.3
aF0.0
aF1.1
aF0.6
aF0.9
aF-2.1
aI0
aI0
aI5
aV202380,1610612764
p736
aa(lp737
I201632
aVHamed Haddadi
p738
aI1610612763
aVMEM
p739
aF26.0
aI31
aI18
aI13
aF0.581
aF5.4
aF1.0
aF1.9
aF0.517
aF0.0
aF0.0
aF0.0
aF0.5
aF0.7
aF0.652
aF0.8
aF1.4
aF2.2
aF0.2
aF0.4
aF0.1
aF0.4
aF0.3
aF0.9
aF0.5
aF2.4
aF1.5
aI1
aI0
aI5
aV201632,1610612763
p740
aa(lp741
I201934
aVHasheem Thabeet
p742
aI1610612745
aVHOU
p743
aF24.0
aI47
aI23
aI24
aF0.489
aF7.9
aF0.4
aF0.9
aF0.425
aF0.0
aF0.0
aF0.0
aF0.4
aF0.7
aF0.543
aF0.5
aF1.1
aF1.6
aF0.1
aF0.4
aF0.2
aF0.3
aF0.2
aF1.6
aF0.7
aF1.1
aF-2.6
aI0
aI0
aI5
aV201934,1610612745
p744
aa(lp745
I202355
aVHassan Whiteside
p746
aI1610612758
aVSAC
p747
aF22.0
aI1
aI1
aI0
aF1.0
aF1.7
aF0.0
aF0.0
aF0.0
aF0.0
aF0.0
aF0.0
aF0.0
aF0.0
aF0.0
aF0.0
aF0.0
aF0.0
aF0.0
aF0.0
aF0.0
aF0.0
aF0.0
aF2.0
aF0.0
aF0.0
aF-4.0
aI0
aI0
aI5
aV202355,1610612758
p748
aa(lp749
I2045
aVHedo Turkoglu
p750
aI1610612753
aVORL
p751
aF32.0
aI81
aI48
aI33
aF0.593
aF31.4
aF4.0
aF8.9
aF0.446
aF1.6
aF3.8
aF0.41
aF1.3
aF1.9
aF0.679
aF0.6
aF3.8
aF4.4
aF4.2
aF1.6
aF0.9
aF0.4
aF0.2
aF3.0
aF1.6
aF10.8
aF3.7
aI6
aI1
aI5
aV2045,1610612753
p752
aa(lp753
I201611
aVHenry Walker
p754
aI1610612752
aVNYK
p755
aF23.0
aI61
aI32
aI29
aF0.525
aF12.9
aF1.7
aF3.9
aF0.441
aF1.0
aF2.5
aF0.386
aF0.5
aF0.7
aF0.705
aF0.3
aF1.7
aF2.0
aF0.6
aF0.6
aF0.3
aF0.1
aF0.2
aF1.3
aF0.5
aF4.9
aF1.5
aI0
aI0
aI5
aV201611,1610612752
p756
aa(lp757
I200756
aVHilton Armstrong
p758
aI1610612737
aVATL
p759
aF26.0
aI53
aI15
aI38
aF0.283
aF9.2
aF0.7
aF1.4
aF0.487
aF0.0
aF0.1
aF0.5
aF0.3
aF0.6
aF0.485
aF0.8
aF1.7
aF2.5
aF0.3
aF0.5
aF0.3
aF0.4
aF0.2
aF1.6
aF0.9
aF1.7
aF-1.9
aI0
aI0
aI5
aV200756,1610612737
p760
aa(lp761
I101133
aVIan Mahinmi
p762
aI1610612742
aVDAL
p763
aF24.0
aI56
aI39
aI17
aF0.696
aF8.7
aF1.0
aF1.8
aF0.561
aF0.0
aF0.0
aF0.0
aF1.1
aF1.5
aF0.768
aF0.8
aF1.4
aF2.1
aF0.1
aF0.4
aF0.3
aF0.3
aF0.1
aF1.9
aF1.2
aF3.1
aF1.2
aI1
aI0
aI5
aV101133,1610612742
p764
aa(lp765
I101113
aVIke Diogu
p766
aI1610612746
aVLAC
p767
aF27.0
aI36
aI16
aI20
aF0.444
aF13.0
aF2.3
aF4.1
aF0.561
aF0.0
aF0.0
aF0.0
aF1.1
aF1.7
aF0.661
aF1.1
aF2.1
aF3.2
aF0.1
aF0.6
aF0.1
aF0.1
aF0.4
aF2.0
aF1.6
aF5.8
aF-1.9
aI1
aI0
aI5
aV101113,1610612746
p768
aa(lp769
I2137
aVIme Udoka
p770
aI1610612759
aVSAS
p771
aF33.0
aI20
aI16
aI4
aF0.8
aF6.5
aF0.3
aF1.1
aF0.238
aF0.0
aF0.4
aF0.0
aF0.2
aF0.4
aF0.5
aF0.3
aF0.7
aF1.0
aF0.7
aF0.3
aF0.4
aF0.1
aF0.2
aF0.7
aF0.3
aF0.7
aF-0.8
aI0
aI0
aI5
aV2137,1610612759
p772
aa(lp773
I202397
aVIsh Smith
p774
aI1610612763
aVMEM
p775
aF22.0
aI43
aI21
aI22
aF0.488
aF10.3
aF1.0
aF2.7
aF0.374
aF0.1
aF0.2
aF0.3
aF0.3
aF0.5
aF0.571
aF0.2
aF0.9
aF1.1
aF1.8
aF0.8
aF0.4
aF0.0
aF0.1
aF0.9
aF0.8
aF2.3
aF-1.1
aI0
aI0
aI5
aV202397,1610612763
p776
aa(lp777
I2747
aVJ.R. Smith
p778
aI1610612743
aVDEN
p779
aF25.0
aI79
aI49
aI30
aF0.62
aF24.9
aF4.3
aF9.9
aF0.435
aF1.6
aF4.0
aF0.39
aF2.1
aF2.8
aF0.738
aF0.6
aF3.5
aF4.1
aF2.2
aF1.3
aF1.2
aF0.2
aF0.4
aF2.2
aF2.4
aF12.3
aF3.1
aI2
aI0
aI5
aV2747,1610612743
p780
aa(lp781
I201581
aVJJ Hickson
p782
aI1610612739
aVCLE
p783
aF22.0
aI80
aI19
aI61
aF0.238
aF28.2
aF5.4
aF11.7
aF0.458
aF0.0
aF0.1
aF0.0
aF3.1
aF4.6
aF0.673
aF2.7
aF6.0
aF8.7
aF1.1
aF2.2
aF0.6
aF0.7
aF1.4
aF2.7
aF3.2
aF13.8
aF-6.6
aI28
aI0
aI5
aV201581,1610612739
p784
aa(lp785
I200755
aVJJ Redick
p786
aI1610612753
aVORL
p787
aF27.0
aI59
aI37
aI22
aF0.627
aF25.6
aF3.3
aF7.6
aF0.441
aF1.5
aF3.7
aF0.397
aF1.9
aF2.2
aF0.875
aF0.1
aF1.8
aF1.9
aF1.7
aF0.9
aF0.5
aF0.1
aF0.1
aF1.4
aF1.8
aF10.1
aF1.7
aI0
aI0
aI5
aV200755,1610612753
p788
aa(lp789
I201580
aVJaVale McGee
p790
aI1610612764
aVWAS
p791
aF23.0
aI79
aI23
aI56
aF0.291
aF27.8
aF4.2
aF7.6
aF0.55
aF0.0
aF0.0
aF0.0
aF1.7
aF2.9
aF0.583
aF2.8
aF5.2
aF8.0
aF0.5
aF1.3
aF0.5
aF2.4
aF0.5
aF2.9
aF2.6
aF10.1
aF-2.9
aI21
aI1
aI5
aV201580,1610612764
p792
aa(lp793
I2048
aVJamaal Magloire
p794
aI1610612748
aVMIA
p795
aF33.0
aI18
aI14
aI4
aF0.778
aF8.8
aF0.7
aF1.2
aF0.591
aF0.0
aF0.0
aF0.0
aF0.5
aF1.0
aF0.5
aF0.9
aF2.4
aF3.4
aF0.2
aF0.3
aF0.2
aF0.1
aF0.1
aF1.4
aF0.8
aF1.9
aF0.7
aI0
aI0
aI5
aV2048,1610612748
p796
aa(lp797
I2037
aVJamal Crawford
p798
aI1610612737
aVATL
p799
aF31.0
aI76
aI40
aI36
aF0.526
aF30.2
aF4.8
aF11.5
aF0.421
aF1.6
aF4.6
aF0.341
aF2.9
aF3.4
aF0.854
aF0.3
aF1.4
aF1.7
aF3.2
aF1.9
aF0.8
aF0.2
aF0.5
aF1.3
aF2.2
aF14.2
aF0.1
aI0
aI0
aI5
aV2037,1610612737
p800
aa(lp801
I200081
aVJamario Moon
p802
aI1610612746
aVLAC
p803
aF31.0
aI59
aI20
aI39
aF0.339
aF17.7
aF1.7
aF4.2
aF0.407
aF0.6
aF2.1
aF0.309
aF0.3
aF0.3
aF0.882
aF0.4
aF2.4
aF2.8
aF0.9
aF0.4
aF0.5
aF0.6
aF0.1
aF1.1
aF0.3
aF4.3
aF-2.5
aI0
aI0
aI5
aV200081,1610612746
p804
aa(lp805
I2749
aVJameer Nelson
p806
aI1610612753
aVORL
p807
aF29.0
aI76
aI49
aI27
aF0.645
aF30.5
aF4.9
aF11.0
aF0.446
aF1.6
aF3.9
aF0.401
aF1.7
aF2.1
aF0.802
aF0.5
aF2.5
aF3.0
aF6.0
aF2.6
aF1.0
aF0.0
aF0.5
aF2.8
aF2.1
aF13.1
aF4.1
aI4
aI0
aI5
aV2749,1610612753
p808
aa(lp809
I202341
aVJames Anderson
p810
aI1610612759
aVSAS
p811
aF22.0
aI26
aI17
aI9
aF0.654
aF11.0
aF1.2
aF3.1
aF0.383
aF0.7
aF1.8
aF0.391
aF0.5
aF0.7
aF0.778
aF0.1
aF0.8
aF0.9
aF0.7
aF0.5
aF0.1
aF0.2
aF0.2
aF0.9
aF0.7
aF3.6
aF-1.9
aI0
aI0
aI5
aV202341,1610612759
p812
aa(lp813
I201935
aVJames Harden
p814
aI1610612760
aVOKC
p815
aF21.0
aI82
aI55
aI27
aF0.671
aF26.7
aF3.6
aF8.3
aF0.436
aF1.4
aF4.0
aF0.349
aF3.5
aF4.2
aF0.843
aF0.5
aF2.6
aF3.1
aF2.1
aF1.3
aF1.1
aF0.3
aF0.6
aF2.5
aF3.1
aF12.2
aF2.6
aI0
aI0
aI5
aV201935,1610612760
p816
aa(lp817
I201949
aVJames Johnson
p818
aI1610612761
aVTOR
p819
aF24.0
aI38
aI15
aI23
aF0.395
aF21.6
aF2.8
aF6.2
aF0.456
aF0.2
aF0.9
aF0.235
aF1.2
aF1.9
aF0.662
aF1.0
aF2.8
aF3.7
aF2.3
aF1.7
aF0.9
aF1.0
aF0.4
aF2.5
aF1.2
aF7.1
aF-1.8
aI0
aI0
aI5
aV201949,1610612761
p820
aa(lp821
I2592
aVJames Jones
p822
aI1610612748
aVMIA
p823
aF30.0
aI81
aI57
aI24
aF0.704
aF19.1
aF1.8
aF4.3
aF0.422
aF1.5
aF3.5
aF0.429
aF0.7
aF0.9
aF0.833
aF0.3
aF1.7
aF2.0
aF0.5
aF0.3
aF0.4
aF0.2
aF0.0
aF1.6
aF1.0
aF5.9
aF3.0
aI0
aI0
aI5
aV2592,1610612748
p824
aa(lp825
I1899
aVJames Posey
p826
aI1610612754
aVIND
p827
aF34.0
aI49
aI19
aI30
aF0.388
aF17.1
aF1.7
aF4.9
aF0.336
aF1.4
aF4.3
aF0.316
aF0.2
aF0.3
aF0.733
aF0.2
aF2.8
aF3.0
aF0.7
aF0.5
aF0.5
aF0.1
aF0.0
aF2.1
aF0.9
aF4.9
aF-0.6
aI0
aI0
aI5
aV1899,1610612754
p828
aa(lp829
I201162
aVJared Dudley
p830
aI1610612756
aVPHX
p831
aF25.0
aI82
aI40
aI42
aF0.488
aF26.1
aF3.7
aF7.7
aF0.477
aF1.3
aF3.1
aF0.415
aF2.0
aF2.7
aF0.743
aF1.4
aF2.5
aF3.9
aF1.3
aF0.9
aF1.1
aF0.2
aF0.4
aF1.7
aF2.1
aF10.6
aF-0.3
aI2
aI0
aI5
aV201162,1610612756
p832
aa(lp833
I2407
aVJared Jeffries
p834
aI1610612752
aVNYK
p835
aF29.0
aI42
aI20
aI22
aF0.476
aF14.3
aF0.7
aF2.0
aF0.349
aF0.0
aF0.2
aF0.222
aF0.3
aF0.7
aF0.414
aF1.5
aF1.3
aF2.8
aF0.9
aF0.5
aF0.7
aF0.4
aF0.2
aF1.8
aF1.0
aF1.8
aF2.5
aI0
aI0
aI5
aV2407,1610612752
p836
aa(lp837
I101127
aVJarrett Jack
p838
aI1610612740
aVNOH
p839
aF27.0
aI83
aI39
aI44
aF0.47
aF20.8
aF3.1
aF7.7
aF0.408
aF0.4
aF1.3
aF0.306
aF2.2
aF2.6
aF0.85
aF0.2
aF1.8
aF2.1
aF2.9
aF1.3
aF0.7
aF0.1
aF0.5
aF1.2
aF2.2
aF8.9
aF-2.1
aI0
aI0
aI5
aV101127,1610612740
p840
aa(lp841
I2260
aVJarron Collins
p842
aI1610612757
aVPOR
p843
aF32.0
aI28
aI11
aI17
aF0.393
aF6.5
aF0.2
aF0.8
aF0.286
aF0.0
aF0.0
aF0.0
aF0.3
aF0.4
aF0.7
aF0.5
aF0.4
aF0.9
aF0.1
aF0.3
aF0.1
aF0.0
aF0.2
aF1.0
aF0.8
aF0.7
aF0.2
aI0
aI0
aI5
aV2260,1610612757
p844
aa(lp845
I2215
aVJason Collins
p846
aI1610612737
aVATL
p847
aF32.0
aI49
aI27
aI22
aF0.551
aF12.1
aF0.7
aF1.4
aF0.479
aF0.0
aF0.0
aF1.0
aF0.6
aF0.8
aF0.659
aF0.6
aF1.5
aF2.1
aF0.4
aF0.5
aF0.2
aF0.2
aF0.2
aF2.0
aF1.4
aF2.0
aF1.8
aI0
aI0
aI5
aV2215,1610612737
p848
aa(lp849
I2574
aVJason Kapono
p850
aI1610612755
aVPHI
p851
aF30.0
aI24
aI9
aI15
aF0.375
aF4.6
aF0.3
aF1.2
aF0.25
aF0.0
aF0.3
aF0.125
aF0.0
aF0.1
aF0.5
aF0.1
aF0.3
aF0.5
aF0.2
aF0.1
aF0.1
aF0.0
aF0.1
aF0.2
aF0.1
aF0.7
aF1.5
aI0
aI0
aI5
aV2574,1610612755
p852
aa(lp853
I467
aVJason Kidd
p854
aI1610612742
aVDAL
p855
aF38.0
aI80
aI56
aI24
aF0.7
aF33.2
aF2.7
aF7.5
aF0.361
aF1.7
aF4.9
aF0.34
aF0.8
aF1.0
aF0.87
aF0.4
aF4.0
aF4.4
aF8.2
aF2.2
aF1.7
aF0.4
aF0.2
aF1.5
aF1.0
aF7.9
aF2.1
aI9
aI2
aI5
aV467,1610612742
p856
aa(lp857
I101131
aVJason Maxiell
p858
aI1610612765
aVDET
p859
aF28.0
aI57
aI17
aI40
aF0.298
aF16.3
aF1.6
aF3.3
aF0.492
aF0.0
aF0.0
aF0.0
aF0.9
aF1.7
aF0.515
aF1.2
aF1.9
aF3.0
aF0.3
aF0.8
aF0.4
aF0.4
aF0.5
aF1.6
aF1.5
aF4.2
aF-2.4
aI0
aI0
aI5
aV101131,1610612765
p860
aa(lp861
I2202
aVJason Richardson
p862
aI1610612753
aVORL
p863
aF30.0
aI80
aI47
aI33
aF0.588
aF33.9
aF5.9
aF13.2
aF0.447
aF2.4
aF6.0
aF0.395
aF1.5
aF2.0
aF0.73
aF0.8
aF3.3
aF4.1
aF1.8
aF1.2
aF1.2
aF0.2
aF0.4
aF2.0
aF1.5
aF15.6
aF3.3
aI1
aI0
aI5
aV2202,1610612753
p864
aa(lp865
I201160
aVJason Smith
p866
aI1610612740
aVNOH
p867
aF25.0
aI77
aI44
aI33
aF0.571
aF14.3
aF1.8
aF4.0
aF0.443
aF0.0
aF0.0
aF0.0
aF0.8
aF0.9
aF0.843
aF1.2
aF2.0
aF3.1
aF0.5
aF0.7
aF0.3
aF0.4
aF0.2
aF1.9
aF0.8
aF4.3
aF-0.1
aI0
aI0
aI5
aV201160,1610612740
p868
aa(lp869
I1891
aVJason Terry
p870
aI1610612742
aVDAL
p871
aF33.0
aI82
aI57
aI25
aF0.695
aF31.3
aF6.0
aF13.3
aF0.451
aF1.5
aF4.3
aF0.362
aF2.2
aF2.6
aF0.85
aF0.3
aF1.6
aF1.9
aF4.1
aF2.0
aF1.1
aF0.2
aF0.6
aF1.7
aF2.2
aF15.8
aF4.0
aI1
aI0
aI5
aV1891,1610612742
p872
aa(lp873
I201574
aVJason Thompson
p874
aI1610612758
aVSAC
p875
aF24.0
aI75
aI24
aI51
aF0.32
aF23.3
aF3.6
aF7.1
aF0.507
aF0.0
aF0.0
aF0.0
aF1.6
aF2.7
aF0.605
aF1.9
aF4.1
aF6.1
aF1.2
aF1.3
aF0.4
aF0.6
aF0.6
aF2.8
aF2.5
aF8.8
aF-1.8
aI9
aI0
aI5
aV201574,1610612758
p876
aa(lp877
I1715
aVJason Williams
p878
aI1610612763
aVMEM
p879
aF35.0
aI27
aI19
aI8
aF0.704
aF10.9
aF0.8
aF2.5
aF0.328
aF0.4
aF1.4
aF0.263
aF0.0
aF0.0
aF0.0
aF0.1
aF1.0
aF1.1
aF1.9
aF0.7
aF0.4
aF0.0
aF0.0
aF0.3
aF0.1
aF2.0
aF1.7
aI0
aI0
aI5
aV1715,1610612763
p880
aa(lp881
I101214
aVJawad Williams
p882
aI1610612739
aVCLE
p883
aF28.0
aI26
aI6
aI20
aF0.231
aF15.0
aF1.6
aF4.8
aF0.325
aF0.5
aF1.7
aF0.289
aF0.3
aF0.5
aF0.75
aF0.3
aF1.6
aF1.8
aF0.8
aF0.6
aF0.3
aF0.1
aF0.3
aF1.3
aF0.6
aF4.0
aF-3.3
aI0
aI0
aI5
aV101214,1610612739
p884
aa(lp885
I202399
aVJeff Adrien
p886
aI1610612744
aVGSW
p887
aF25.0
aI23
aI7
aI16
aF0.304
aF8.5
aF1.0
aF2.3
aF0.426
aF0.0
aF0.0
aF0.0
aF0.5
aF0.8
aF0.579
aF1.0
aF1.5
aF2.5
aF0.4
aF0.4
aF0.2
aF0.2
aF0.6
aF1.2
aF0.8
aF2.5
aF0.1
aI0
aI0
aI5
aV202399,1610612744
p888
aa(lp889
I1902
aVJeff Foster
p890
aI1610612754
aVIND
p891
aF34.0
aI56
aI25
aI31
aF0.446
aF16.8
aF1.4
aF3.0
aF0.479
aF0.0
aF0.1
aF0.0
aF0.5
aF0.9
aF0.563
aF2.9
aF3.4
aF6.3
aF0.8
aF0.5
aF0.4
aF0.6
aF0.3
aF2.3
aF1.3
aF3.3
aF0.9
aI0
aI0
aI5
aV1902,1610612754
p892
aa(lp893
I201145
aVJeff Green
p894
aI1610612738
aVBOS
p895
aF24.0
aI75
aI45
aI30
aF0.6
aF32.4
aF4.9
aF10.9
aF0.449
aF0.9
aF2.8
aF0.303
aF2.6
aF3.3
aF0.811
aF1.0
aF3.8
aF4.8
aF1.4
aF1.3
aF0.7
aF0.5
aF0.5
aF2.8
aF2.5
aF13.3
aF0.0
aI4
aI0
aI5
aV201145,1610612738
p896
aa(lp897
I201952
aVJeff Teague
p898
aI1610612737
aVATL
p899
aF23.0
aI70
aI36
aI34
aF0.514
aF13.8
aF1.9
aF4.3
aF0.438
aF0.3
aF0.7
aF0.375
aF1.1
aF1.4
aF0.794
aF0.2
aF1.3
aF1.5
aF2.0
aF0.9
aF0.6
aF0.4
aF0.5
aF1.2
aF1.1
aF5.2
aF-0.9
aI0
aI0
aI5
aV201952,1610612737
p900
aa(lp901
I202379
aVJeremy Evans
p902
aI1610612762
aVUTA
p903
aF23.0
aI49
aI22
aI27
aF0.449
aF9.4
aF1.6
aF2.3
aF0.661
aF0.0
aF0.0
aF0.0
aF0.5
aF0.8
aF0.703
aF0.7
aF1.2
aF2.0
aF0.5
aF0.4
aF0.3
aF0.3
aF0.1
aF1.0
aF0.7
aF3.6
aF-0.3
aI0
aI0
aI5
aV202379,1610612762
p904
aa(lp905
I202391
aVJeremy Lin
p906
aI1610612744
aVGSW
p907
aF22.0
aI29
aI10
aI19
aF0.345
aF9.8
aF1.0
aF2.5
aF0.389
aF0.0
aF0.2
aF0.2
aF0.7
aF0.9
aF0.76
aF0.4
aF0.8
aF1.2
aF1.4
aF0.6
aF1.1
aF0.3
aF0.3
aF1.1
aF1.1
aF2.6
aF0.3
aI0
aI0
aI5
aV202391,1610612744
p908
aa(lp909
I979
aVJermaine O'Neal
p910
aI1610612738
aVBOS
p911
aF32.0
aI24
aI13
aI11
aF0.542
aF18.0
aF2.1
aF4.5
aF0.459
aF0.0
aF0.0
aF0.0
aF1.2
aF1.8
aF0.674
aF1.0
aF2.6
aF3.7
aF0.5
aF1.1
aF0.1
aF1.3
aF0.3
aF2.7
aF1.8
aF5.4
aF0.6
aI1
aI0
aI5
aV979,1610612738
p912
aa(lp913
I201966
aVJermaine Taylor
p914
aI1610612758
aVSAC
p915
aF24.0
aI34
aI8
aI26
aF0.235
aF14.2
aF2.8
aF5.8
aF0.48
aF0.4
aF1.3
aF0.311
aF0.6
aF0.8
aF0.75
aF0.8
aF1.1
aF1.8
aF0.9
aF1.4
aF0.4
aF0.1
aF0.6
aF1.1
aF1.0
aF6.6
aF-2.9
aI0
aI0
aI5
aV201966,1610612758
p916
aa(lp917
I711
aVJerry Stackhouse
p918
aI1610612748
aVMIA
p919
aF36.0
aI7
aI5
aI2
aF0.714
aF7.1
aF0.4
aF1.7
aF0.25
aF0.1
aF0.6
aF0.25
aF0.7
aF1.0
aF0.714
aF0.1
aF0.9
aF1.0
aF0.4
aF0.3
aF0.0
aF0.3
aF0.3
aF0.4
aF0.6
aF1.7
aF-0.6
aI0
aI0
aI5
aV711,1610612748
p920
aa(lp921
I201573
aVJerryd Bayless
p922
aI1610612761
aVTOR
p923
aF22.0
aI71
aI25
aI46
aF0.352
aF21.1
aF3.1
aF7.3
aF0.422
aF0.7
aF2.1
aF0.336
aF2.3
aF2.9
aF0.806
aF0.4
aF2.0
aF2.3
aF3.7
aF1.8
aF0.5
aF0.1
aF0.6
aF2.1
aF2.4
aF9.2
aF-4.1
aI2
aI0
aI5
aV201573,1610612761
p924
aa(lp925
I201149
aVJoakim Noah
p926
aI1610612741
aVCHI
p927
aF26.0
aI48
aI36
aI12
aF0.75
aF32.8
aF4.4
aF8.4
aF0.525
aF0.0
aF0.0
aF0.0
aF2.9
aF3.9
aF0.739
aF3.8
aF6.6
aF10.4
aF2.2
aF1.9
aF1.0
aF1.5
aF1.0
aF3.3
aF3.1
aF11.7
aF3.7
aI21
aI0
aI5
aV201149,1610612741
p928
aa(lp929
I201975
aVJodie Meeks
p930
aI1610612755
aVPHI
p931
aF23.0
aI74
aI40
aI34
aF0.541
aF27.9
aF3.3
aF7.7
aF0.425
aF1.9
aF4.7
aF0.397
aF2.1
aF2.3
aF0.894
aF0.3
aF2.0
aF2.3
aF1.1
aF0.8
aF0.9
aF0.1
aF0.4
aF1.3
aF1.6
aF10.5
aF1.2
aI0
aI0
aI5
aV201975,1610612755
p932
aa(lp933
I2207
aVJoe Johnson
p934
aI1610612737
aVATL
p935
aF30.0
aI72
aI38
aI34
aF0.528
aF35.5
aF7.1
aF16.1
aF0.443
aF1.2
aF4.2
aF0.297
aF2.7
aF3.4
aF0.802
aF0.8
aF3.2
aF4.0
aF4.7
aF2.0
aF0.7
aF0.1
aF0.7
aF1.8
aF2.8
aF18.2
aF1.2
aI2
aI0
aI5
aV2207,1610612737
p936
aa(lp937
I693
aVJoe Smith
p938
aI1610612747
aVLAL
p939
aF35.0
aI16
aI14
aI2
aF0.875
aF4.3
aF0.2
aF1.0
aF0.188
aF0.0
aF0.0
aF0.0
aF0.1
aF0.1
aF1.0
aF0.2
aF1.1
aF1.3
aF0.3
aF0.3
aF0.0
aF0.3
aF0.1
aF0.8
aF0.3
aF0.5
aF-0.6
aI0
aI0
aI5
aV693,1610612747
p940
aa(lp941
I201202
aVJoel Anthony
p942
aI1610612748
aVMIA
p943
aF28.0
aI75
aI55
aI20
aF0.733
aF19.5
aF0.7
aF1.3
aF0.535
aF0.0
aF0.0
aF0.0
aF0.6
aF1.0
aF0.644
aF1.4
aF2.2
aF3.5
aF0.3
aF0.5
aF0.1
aF1.2
aF0.2
aF2.6
aF0.9
aF2.0
aF1.6
aI0
aI0
aI5
aV201202,1610612748
p944
aa(lp945
I2038
aVJoel Przybilla
p946
aI1610612766
aVCHA
p947
aF31.0
aI36
aI18
aI18
aF0.5
aF14.4
aF0.7
aF1.2
aF0.568
aF0.0
aF0.0
aF0.0
aF0.4
aF0.8
aF0.519
aF1.0
aF3.0
aF4.0
aF0.4
aF0.8
aF0.1
aF0.4
aF0.2
aF2.2
aF1.0
aF1.8
aF-2.1
aI0
aI0
aI5
aV2038,1610612766
p948
aa(lp949
I201595
aVJoey Dorsey
p950
aI1610612761
aVTOR
p951
aF27.0
aI43
aI11
aI32
aF0.256
aF12.1
aF1.2
aF2.3
aF0.525
aF0.0
aF0.0
aF0.0
aF0.7
aF1.5
aF0.477
aF1.8
aF2.6
aF4.4
aF0.6
aF0.9
aF0.6
aF0.4
aF0.3
aF1.8
aF1.0
aF3.1
aF-0.3
aI4
aI0
aI5
aV201595,1610612761
p952
aa(lp953
I101121
aVJoey Graham
p954
aI1610612739
aVCLE
p955
aF29.0
aI39
aI9
aI30
aF0.231
aF15.0
aF2.1
aF4.6
aF0.458
aF0.2
aF0.8
aF0.3
aF0.7
aF0.9
aF0.806
aF0.2
aF1.9
aF2.2
aF0.5
aF0.7
aF0.2
aF0.2
aF0.2
aF1.9
aF1.0
aF5.2
aF-1.9
aI0
aI0
aI5
aV101121,1610612739
p956
aa(lp957
I101130
aVJohan Petro
p958
aI1610612751
aVNJN
p959
aF25.0
aI77
aI22
aI55
aF0.286
aF11.6
aF1.7
aF3.8
aF0.445
aF0.0
aF0.1
aF0.0
aF0.2
aF0.4
aF0.536
aF0.8
aF1.9
aF2.8
aF0.6
aF0.6
aF0.4
aF0.4
aF0.0
aF2.3
aF0.5
aF3.5
aF-2.0
aI0
aI0
aI5
aV101130,1610612751
p960
aa(lp961
I101249
aVJohn Lucas III
p962
aI1610612741
aVCHI
p963
aF28.0
aI2
aI1
aI1
aF0.5
aF5.1
aF0.5
aF1.5
aF0.333
aF0.0
aF0.5
aF0.0
aF0.0
aF1.0
aF0.0
aF0.0
aF0.0
aF0.0
aF0.5
aF0.0
aF0.0
aF0.0
aF0.0
aF0.0
aF0.5
aF1.0
aF-1.5
aI0
aI0
aI5
aV101249,1610612741
p964
aa(lp965
I2422
aVJohn Salmons
p966
aI1610612749
aVMIL
p967
aF31.0
aI73
aI30
aI43
aF0.411
aF35.0
aF5.1
aF12.3
aF0.415
aF1.1
aF3.0
aF0.379
aF2.7
aF3.3
aF0.813
aF0.4
aF3.3
aF3.6
aF3.5
aF1.9
aF1.0
aF0.4
aF0.8
aF2.2
aF2.7
aF14.0
aF-0.8
aI1
aI0
aI5
aV2422,1610612749
p968
aa(lp969
I202322
aVJohn Wall
p970
aI1610612764
aVWAS
p971
aF20.0
aI69
aI19
aI50
aF0.275
aF37.8
aF5.8
aF14.1
aF0.409
aF0.5
aF1.7
aF0.296
aF4.4
aF5.7
aF0.766
aF0.5
aF4.1
aF4.6
aF8.3
aF3.8
aF1.8
aF0.5
aF1.2
aF2.5
aF4.7
aF16.4
aF-6.4
aI26
aI1
aI5
aV202322,1610612764
p972
aa(lp973
I201972
aVJon Brockman
p974
aI1610612749
aVMIL
p975
aF24.0
aI63
aI28
aI35
aF0.444
aF10.8
aF0.8
aF1.5
aF0.511
aF0.0
aF0.0
aF0.0
aF0.6
aF0.9
aF0.678
aF1.2
aF1.7
aF2.9
aF0.3
aF0.4
aF0.2
aF0.0
aF0.2
aF1.9
aF1.3
aF2.2
aF0.6
aI0
aI0
aI5
aV201972,1610612749
p976
aa(lp977
I201938
aVJonny Flynn
p978
aI1610612750
aVMIN
p979
aF22.0
aI53
aI10
aI43
aF0.189
aF18.5
aF2.0
aF5.6
aF0.365
aF0.6
aF1.9
aF0.31
aF0.6
aF0.8
aF0.762
aF0.2
aF1.2
aF1.5
aF3.4
aF2.1
aF0.6
aF0.1
aF0.2
aF1.1
aF1.0
aF5.3
aF-3.4
aI0
aI0
aI5
aV201938,1610612750
p980
aa(lp981
I202348
aVJordan Crawford
p982
aI1610612764
aVWAS
p983
aF22.0
aI42
aI17
aI25
aF0.405
aF24.4
aF4.6
aF11.9
aF0.384
aF0.8
aF3.0
aF0.258
aF1.7
aF2.0
aF0.869
aF0.7
aF1.8
aF2.5
aF2.8
aF2.0
aF0.9
aF0.1
aF0.5
aF1.5
aF1.5
aF11.7
aF-5.5
aI2
aI1
aI5
aV202348,1610612764
p984
aa(lp985
I200770
aVJordan Farmar
p986
aI1610612751
aVNJN
p987
aF24.0
aI73
aI23
aI50
aF0.315
aF24.6
aF3.5
aF8.9
aF0.392
aF1.5
aF4.2
aF0.359
aF1.1
aF1.4
aF0.82
aF0.3
aF2.0
aF2.4
aF5.0
aF1.9
aF0.8
aF0.1
aF0.4
aF1.8
aF1.4
aF9.6
aF-2.4
aI8
aI0
aI5
aV200770,1610612751
p988
aa(lp989
I201941
aVJordan Hill
p990
aI1610612745
aVHOU
p991
aF23.0
aI72
aI38
aI34
aF0.528
aF15.6
aF2.4
aF4.9
aF0.491
aF0.0
aF0.0
aF0.0
aF0.8
aF1.2
aF0.706
aF1.8
aF2.5
aF4.3
aF0.4
aF0.9
aF0.2
aF0.7
aF0.3
aF2.2
aF1.1
aF5.6
aF-2.1
aI2
aI0
aI5
aV201941,1610612745
p992
aa(lp993
I101181
aVJose Calderon
p994
aI1610612761
aVTOR
p995
aF29.0
aI68
aI18
aI50
aF0.265
aF30.9
aF3.9
aF8.8
aF0.44
aF0.8
aF2.3
aF0.365
aF1.3
aF1.5
aF0.854
aF0.4
aF2.5
aF3.0
aF8.9
aF2.2
aF1.2
aF0.1
aF0.4
aF2.1
aF1.4
aF9.8
aF-2.5
aI12
aI0
aI5
aV101181,1610612761
p996
aa(lp997
I200826
aVJose Juan Barea
p998
aI1610612742
aVDAL
p999
aF27.0
aI81
aI56
aI25
aF0.691
aF20.6
aF3.5
aF8.0
aF0.439
aF0.8
aF2.3
aF0.349
aF1.6
aF1.9
aF0.847
aF0.4
aF1.6
aF2.0
aF3.9
aF1.7
aF0.4
aF0.0
aF0.5
aF1.7
aF2.4
aF9.5
aF1.9
aI3
aI0
aI5
aV200826,1610612742
p1000
aa(lp1001
I2735
aVJosh Childress
p1002
aI1610612756
aVPHX
p1003
aF28.0
aI54
aI23
aI31
aF0.426
aF16.6
aF2.2
aF4.0
aF0.565
aF0.0
aF0.3
aF0.063
aF0.5
aF1.1
aF0.492
aF1.3
aF1.6
aF2.9
aF0.8
aF0.8
aF0.6
aF0.4
aF0.4
aF1.3
aF0.9
aF5.0
aF-2.4
aI0
aI0
aI5
aV2735,1610612756
p1004
aa(lp1005
I2572
aVJosh Howard
p1006
aI1610612764
aVWAS
p1007
aF31.0
aI18
aI3
aI15
aF0.167
aF22.7
aF3.2
aF9.0
aF0.358
aF0.4
aF1.6
aF0.241
aF1.6
aF2.6
aF0.617
aF1.0
aF3.1
aF4.1
aF1.3
aF1.1
aF0.7
aF0.3
aF0.6
aF1.9
aF2.1
aF8.4
aF-4.9
aI0
aI0
aI5
aV2572,1610612764
p1008
aa(lp1009
I201177
aVJosh McRoberts
p1010
aI1610612754
aVIND
p1011
aF24.0
aI72
aI34
aI38
aF0.472
aF22.2
aF2.9
aF5.4
aF0.547
aF0.3
aF0.8
aF0.383
aF1.2
aF1.7
aF0.739
aF1.5
aF3.8
aF5.3
aF2.1
aF1.3
aF0.7
aF0.8
aF0.5
aF2.3
aF1.4
aF7.4
aF0.8
aI3
aI0
aI5
aV201177,1610612754
p1012
aa(lp1013
I2694
aVJosh Powell
p1014
aI1610612737
aVATL
p1015
aF28.0
aI54
aI29
aI25
aF0.537
aF12.1
aF1.7
aF3.9
aF0.452
aF0.0
aF0.0
aF0.0
aF0.7
aF0.8
aF0.8
aF0.9
aF1.6
aF2.5
aF0.4
aF1.0
aF0.1
aF0.1
aF0.3
aF1.4
aF0.8
aF4.1
aF-2.2
aI0
aI0
aI5
aV2694,1610612737
p1016
aa(lp1017
I2746
aVJosh Smith
p1018
aI1610612737
aVATL
p1019
aF25.0
aI77
aI43
aI34
aF0.558
aF34.3
aF6.5
aF13.5
aF0.477
aF0.7
aF2.0
aF0.331
aF3.0
aF4.1
aF0.725
aF1.7
aF6.8
aF8.5
aF3.3
aF2.6
aF1.3
aF1.6
aF0.6
aF2.8
aF3.8
aF16.5
aF1.0
aI31
aI1
aI5
aV2746,1610612737
p1020
aa(lp1021
I201950
aVJrue Holiday
p1022
aI1610612755
aVPHI
p1023
aF21.0
aI82
aI41
aI41
aF0.5
aF35.4
aF5.4
aF12.2
aF0.446
aF1.0
aF2.7
aF0.365
aF2.1
aF2.5
aF0.823
aF0.8
aF3.2
aF4.0
aF6.5
aF2.7
aF1.5
aF0.4
aF0.7
aF2.5
aF2.2
aF14.0
aF2.1
aI15
aI1
aI5
aV201950,1610612755
p1024
aa(lp1025
I201153
aVJulian Wright
p1026
aI1610612761
aVTOR
p1027
aF24.0
aI52
aI9
aI43
aF0.173
aF14.7
aF1.6
aF3.1
aF0.513
aF0.0
aF0.2
aF0.2
aF0.4
aF0.8
aF0.512
aF0.9
aF1.4
aF2.3
aF1.1
aF0.8
aF0.8
aF0.4
aF0.2
aF0.9
aF0.6
aF3.6
aF-0.5
aI0
aI0
aI5
aV201153,1610612761
p1028
aa(lp1029
I436
aVJuwan Howard
p1030
aI1610612748
aVMIA
p1031
aF38.0
aI57
aI43
aI14
aF0.754
aF10.4
aF1.0
aF2.2
aF0.44
aF0.0
aF0.0
aF0.0
aF0.5
aF0.6
aF0.829
aF0.6
aF1.5
aF2.1
aF0.4
aF0.4
aF0.2
aF0.1
aF0.1
aF1.1
aF0.6
aF2.4
aF0.4
aI0
aI0
aI5
aV436,1610612748
p1032
aa(lp1033
I2586
aVKeith Bogans
p1034
aI1610612741
aVCHI
p1035
aF31.0
aI82
aI62
aI20
aF0.756
aF17.8
aF1.5
aF3.7
aF0.404
aF1.1
aF2.9
aF0.38
aF0.3
aF0.4
aF0.656
aF0.2
aF1.6
aF1.8
aF1.2
aF0.5
aF0.5
aF0.1
aF0.1
aF1.4
aF0.6
aF4.4
aF2.0
aI0
aI0
aI5
aV2586,1610612741
p1036
aa(lp1037
I2570
aVKendrick Perkins
p1038
aI1610612760
aVOKC
p1039
aF26.0
aI29
aI21
aI8
aF0.724
aF25.6
aF2.3
aF4.5
aF0.515
aF0.0
aF0.0
aF0.0
aF1.4
aF2.5
aF0.556
aF2.1
aF5.9
aF8.0
aF0.9
aF1.9
aF0.3
aF0.9
aF0.7
aF3.1
aF1.8
aF6.0
aF3.3
aI1
aI0
aI5
aV2570,1610612760
p1040
aa(lp1041
I2030
aVKenyon Martin
p1042
aI1610612743
aVDEN
p1043
aF33.0
aI48
aI31
aI17
aF0.646
aF25.7
aF3.9
aF7.5
aF0.511
aF0.0
aF0.2
aF0.222
aF0.9
aF1.5
aF0.583
aF1.4
aF4.8
aF6.2
aF2.3
aF1.2
aF0.9
aF0.7
aF0.4
aF2.8
aF1.1
aF8.6
aF4.3
aI3
aI0
aI5
aV2030,1610612743
p1044
aa(lp1045
I201142
aVKevin Durant
p1046
aI1610612760
aVOKC
p1047
aF22.0
aI78
aI52
aI26
aF0.667
aF38.9
aF9.1
aF19.7
aF0.462
aF1.9
aF5.3
aF0.35
aF7.6
aF8.7
aF0.88
aF0.7
aF6.1
aF6.8
aF2.7
aF2.8
aF1.1
aF1.0
aF0.6
aF2.0
aF5.3
aF27.7
aF3.5
aI14
aI0
aI5
aV201142,1610612760
p1048
aa(lp1049
I708
aVKevin Garnett
p1050
aI1610612738
aVBOS
p1051
aF35.0
aI71
aI49
aI22
aF0.69
aF31.3
aF6.1
aF11.6
aF0.528
aF0.0
aF0.1
aF0.2
aF2.6
aF3.1
aF0.862
aF1.2
aF7.7
aF8.9
aF2.4
aF1.6
aF1.3
aF0.8
aF0.3
aF2.1
aF3.0
aF14.9
aF7.8
aI28
aI0
aI5
aV708,1610612738
p1052
aa(lp1053
I201567
aVKevin Love
p1054
aI1610612750
aVMIN
p1055
aF22.0
aI73
aI17
aI56
aF0.233
aF35.8
aF6.6
aF14.1
aF0.47
aF1.2
aF2.9
aF0.417
aF5.8
aF6.8
aF0.85
aF4.5
aF10.7
aF15.2
aF2.5
aF2.1
aF0.6
aF0.4
aF1.3
aF2.0
aF5.8
aF20.2
aF-3.7
aI64
aI0
aI5
aV201567,1610612750
p1056
aa(lp1057
I2755
aVKevin Martin
p1058
aI1610612745
aVHOU
p1059
aF28.0
aI80
aI42
aI38
aF0.525
aF32.5
aF6.9
aF15.8
aF0.436
aF2.2
aF5.7
aF0.383
aF7.4
aF8.4
aF0.888
aF0.4
aF2.9
aF3.2
aF2.5
aF2.3
aF1.0
aF0.2
aF0.8
aF1.9
aF5.1
aF23.5
aF2.0
aI0
aI0
aI5
aV2755,1610612745
p1060
aa(lp1061
I202338
aVKevin Seraphin
p1062
aI1610612764
aVWAS
p1063
aF21.0
aI58
aI15
aI43
aF0.259
aF10.9
aF1.1
aF2.5
aF0.449
aF0.0
aF0.0
aF0.0
aF0.4
aF0.5
aF0.71
aF1.4
aF1.2
aF2.6
aF0.2
aF0.7
aF0.3
aF0.5
aF0.3
aF2.2
aF0.4
aF2.7
aF-3.4
aI0
aI0
aI5
aV202338,1610612764
p1064
aa(lp1065
I2039
aVKeyon Dooling
p1066
aI1610612749
aVMIL
p1067
aF31.0
aI80
aI35
aI45
aF0.438
aF22.0
aF2.6
aF6.5
aF0.397
aF1.0
aF2.9
aF0.346
aF1.0
aF1.2
aF0.83
aF0.2
aF1.3
aF1.5
aF3.0
aF1.1
aF0.7
aF0.1
aF0.2
aF1.5
aF1.5
aF7.1
aF0.9
aI2
aI0
aI5
aV2039,1610612749
p1068
aa(lp1069
I2550
aVKirk Hinrich
p1070
aI1610612737
aVATL
p1071
aF30.0
aI72
aI24
aI48
aF0.333
aF30.0
aF3.9
aF8.7
aF0.446
aF1.0
aF2.6
aF0.399
aF1.5
aF1.8
aF0.841
aF0.3
aF2.2
aF2.5
aF4.0
aF1.7
aF1.0
aF0.2
aF0.4
aF2.6
aF1.8
aF10.2
aF-5.3
aI3
aI0
aI5
aV2550,1610612737
p1072
aa(lp1073
I977
aVKobe Bryant
p1074
aI1610612747
aVLAL
p1075
aF32.0
aI82
aI57
aI25
aF0.695
aF33.9
aF9.0
aF20.0
aF0.451
aF1.4
aF4.3
aF0.323
aF5.9
aF7.1
aF0.828
aF1.0
aF4.1
aF5.1
aF4.7
aF3.0
aF1.2
aF0.1
aF0.9
aF2.1
aF5.5
aF25.3
aF5.1
aI9
aI1
aI5
aV977,1610612747
p1076
aa(lp1077
I201585
aVKosta Koufos
p1078
aI1610612743
aVDEN
p1079
aF22.0
aI50
aI17
aI33
aF0.34
aF8.7
aF1.4
aF3.0
aF0.453
aF0.0
aF0.0
aF0.0
aF0.5
aF0.9
aF0.558
aF1.1
aF1.5
aF2.6
aF0.1
aF0.6
aF0.2
aF0.5
aF0.3
aF1.2
aF0.6
aF3.2
aF-1.0
aI0
aI0
aI5
aV201585,1610612743
p1080
aa(lp1081
I2743
aVKris Humphries
p1082
aI1610612751
aVNJN
p1083
aF26.0
aI74
aI23
aI51
aF0.311
aF27.8
aF4.1
aF7.9
aF0.527
aF0.0
aF0.0
aF0.0
aF1.7
aF2.6
aF0.665
aF3.0
aF7.4
aF10.4
aF1.1
aF1.4
aF0.4
aF1.1
aF0.6
aF2.3
aF3.0
aF10.0
aF-3.3
aI29
aI0
aI5
aV2743,1610612751
p1084
aa(lp1085
I703
aVKurt Thomas
p1086
aI1610612741
aVCHI
p1087
aF38.0
aI52
aI39
aI13
aF0.75
aF22.7
aF1.8
aF3.6
aF0.511
aF0.0
aF0.0
aF1.0
aF0.4
aF0.6
aF0.625
aF1.4
aF4.3
aF5.8
aF1.2
aF0.8
aF0.6
aF0.8
aF0.1
aF3.2
aF1.5
aF4.1
aF3.1
aI0
aI0
aI5
aV703,1610612741
p1088
aa(lp1089
I2198
aVKwame Brown
p1090
aI1610612766
aVCHA
p1091
aF29.0
aI66
aI27
aI39
aF0.409
aF26.0
aF2.9
aF5.7
aF0.517
aF0.0
aF0.0
aF0.0
aF2.1
aF3.5
aF0.589
aF2.2
aF4.6
aF6.8
aF0.7
aF1.0
aF0.4
aF0.6
aF0.6
aF2.6
aF3.5
aF7.9
aF-3.6
aI8
aI0
aI5
aV2198,1610612766
p1092
aa(lp1093
I2594
aVKyle Korver
p1094
aI1610612741
aVCHI
p1095
aF30.0
aI82
aI62
aI20
aF0.756
aF20.1
aF3.0
aF6.8
aF0.434
aF1.5
aF3.5
aF0.415
aF0.9
aF1.1
aF0.885
aF0.1
aF1.7
aF1.8
aF1.5
aF0.7
aF0.4
aF0.2
aF0.1
aF1.9
aF0.8
aF8.3
aF3.7
aI0
aI0
aI5
aV2594,1610612741
p1096
aa(lp1097
I200768
aVKyle Lowry
p1098
aI1610612745
aVHOU
p1099
aF25.0
aI75
aI40
aI35
aF0.533
aF34.2
aF4.6
aF10.8
aF0.426
aF1.7
aF4.6
aF0.376
aF2.6
aF3.3
aF0.765
aF1.2
aF2.9
aF4.1
aF6.7
aF2.1
aF1.4
aF0.3
aF0.6
aF2.8
aF3.5
aF13.5
aF4.1
aI10
aI1
aI5
aV200768,1610612745
p1100
aa(lp1101
I201602
aVKyle Weaver
p1102
aI1610612762
aVUTA
p1103
aF25.0
aI5
aI1
aI4
aF0.2
aF13.9
aF1.8
aF5.0
aF0.36
aF0.6
aF1.4
aF0.429
aF1.4
aF1.6
aF0.875
aF0.4
aF1.6
aF2.0
aF1.4
aF1.4
aF0.4
aF0.4
aF0.4
aF0.6
aF1.4
aF5.6
aF0.0
aI0
aI0
aI5
aV201602,1610612762
p1104
aa(lp1105
I201178
aVKyrylo Fesenko
p1106
aI1610612762
aVUTA
p1107
aF24.0
aI53
aI29
aI24
aF0.547
aF8.6
aF0.8
aF1.9
aF0.44
aF0.0
aF0.0
aF0.0
aF0.3
aF0.9
aF0.391
aF0.6
aF1.4
aF2.0
aF0.3
aF0.5
aF0.1
aF0.3
aF0.2
aF1.7
aF0.7
aF2.0
aF0.7
aI0
aI0
aI5
aV201178,1610612762
p1108
aa(lp1109
I200746
aVLaMarcus Aldridge
p1110
aI1610612757
aVPOR
p1111
aF25.0
aI81
aI48
aI33
aF0.593
aF39.6
aF8.7
aF17.5
aF0.5
aF0.0
aF0.3
aF0.174
aF4.3
aF5.5
aF0.791
aF3.4
aF5.3
aF8.8
aF2.1
aF1.9
aF1.0
aF1.2
aF0.7
aF2.7
aF4.9
aF21.8
aF3.6
aI36
aI0
aI5
aV200746,1610612757
p1112
aa(lp1113
I1885
aVLamar Odom
p1114
aI1610612747
aVLAL
p1115
aF31.0
aI82
aI57
aI25
aF0.695
aF32.2
aF5.8
aF10.9
aF0.53
aF0.8
aF2.2
aF0.382
aF2.0
aF3.0
aF0.675
aF2.1
aF6.5
aF8.7
aF3.0
aF1.7
aF0.6
aF0.7
aF0.5
aF2.4
aF2.5
aF14.4
aF4.6
aI28
aI0
aI5
aV1885,1610612747
p1116
aa(lp1117
I202362
aVLance Stephenson
p1118
aI1610612754
aVIND
p1119
aF20.0
aI12
aI3
aI9
aF0.25
aF9.6
aF1.1
aF3.3
aF0.333
aF0.0
aF0.4
aF0.0
aF0.9
aF1.2
aF0.786
aF0.1
aF1.4
aF1.5
aF1.8
aF1.3
aF0.3
aF0.0
aF0.4
aF1.2
aF0.8
aF3.1
aF-0.1
aI0
aI0
aI5
aV202362,1610612754
p1120
aa(lp1121
I202361
aVLandry Fields
p1122
aI1610612752
aVNYK
p1123
aF23.0
aI82
aI42
aI40
aF0.512
aF31.0
aF3.6
aF7.3
aF0.497
aF1.0
aF2.7
aF0.393
aF1.4
aF1.8
aF0.769
aF1.3
aF5.1
aF6.4
aF1.9
aF1.3
aF1.0
aF0.2
aF0.4
aF1.4
aF1.6
aF9.7
aF0.8
aI11
aI0
aI5
aV202361,1610612752
p1124
aa(lp1125
I202082
aVLarry Owens
p1126
aI1610612764
aVWAS
p1127
aF28.0
aI12
aI7
aI5
aF0.583
aF11.9
aF1.3
aF2.7
aF0.469
aF0.5
aF1.1
aF0.462
aF0.3
aF0.8
aF0.444
aF0.1
aF1.2
aF1.3
aF0.7
aF0.4
aF0.8
aF0.4
aF0.0
aF1.5
aF0.5
aF3.3
aF1.1
aI0
aI0
aI5
aV202082,1610612764
p1128
aa(lp1129
I202336
aVLarry Sanders
p1130
aI1610612749
aVMIL
p1131
aF22.0
aI60
aI28
aI32
aF0.467
aF14.5
aF1.9
aF4.5
aF0.433
aF0.0
aF0.0
aF0.0
aF0.5
aF0.8
aF0.56
aF1.0
aF2.0
aF3.0
aF0.3
aF0.6
aF0.4
aF1.2
aF0.2
aF2.0
aF0.7
aF4.3
aF-2.4
aI1
aI0
aI5
aV202336,1610612749
p1132
aa(lp1133
I202351
aVLazar Hayward
p1134
aI1610612750
aVMIN
p1135
aF24.0
aI42
aI10
aI32
aF0.238
aF10.0
aF1.3
aF3.7
aF0.357
aF0.4
aF1.4
aF0.283
aF0.8
aF1.0
aF0.786
aF0.5
aF1.1
aF1.7
aF0.7
aF0.5
aF0.3
aF0.2
aF0.3
aF1.0
aF0.8
aF3.8
aF-2.8
aI0
aI0
aI5
aV202351,1610612750
p1136
aa(lp1137
I2544
aVLeBron James
p1138
aI1610612748
aVMIA
p1139
aF26.0
aI79
aI57
aI22
aF0.722
aF38.8
aF9.6
aF18.8
aF0.51
aF1.2
aF3.5
aF0.33
aF6.4
aF8.4
aF0.759
aF1.0
aF6.5
aF7.5
aF7.0
aF3.6
aF1.6
aF0.6
aF0.5
aF2.1
aF5.9
aF26.7
aF7.8
aI31
aI4
aI5
aV2544,1610612748
p1140
aa(lp1141
I2571
aVLeandro Barbosa
p1142
aI1610612761
aVTOR
p1143
aF28.0
aI58
aI17
aI41
aF0.293
aF24.0
aF5.1
aF11.3
aF0.45
aF1.2
aF3.7
aF0.338
aF1.9
aF2.4
aF0.796
aF0.2
aF1.5
aF1.7
aF2.1
aF1.4
aF0.9
aF0.1
aF0.7
aF1.9
aF2.1
aF13.3
aF-2.5
aI0
aI0
aI5
aV2571,1610612761
p1144
aa(lp1145
I200796
aVLeon Powe
p1146
aI1610612763
aVMEM
p1147
aF27.0
aI30
aI10
aI20
aF0.333
aF10.9
aF2.0
aF4.0
aF0.496
aF0.0
aF0.1
aF0.0
aF1.3
aF2.4
aF0.556
aF0.8
aF1.3
aF2.1
aF0.2
aF0.4
aF0.3
aF0.1
aF0.6
aF1.5
aF2.1
aF5.3
aF-2.5
aI0
aI0
aI5
aV200796,1610612763
p1148
aa(lp1149
I201991
aVLester Hudson
p1150
aI1610612764
aVWAS
p1151
aF26.0
aI11
aI3
aI8
aF0.273
aF6.7
aF0.5
aF2.2
aF0.25
aF0.4
aF1.4
aF0.267
aF0.2
aF0.4
aF0.5
aF0.1
aF0.4
aF0.5
aF1.5
aF0.6
aF0.4
aF0.1
aF0.0
aF0.9
aF0.3
aF1.6
aF-1.2
aI0
aI0
aI5
aV201991,1610612764
p1152
aa(lp1153
I101132
aVLinas Kleiza
p1154
aI1610612761
aVTOR
p1155
aF26.0
aI39
aI12
aI27
aF0.308
aF26.5
aF4.6
aF10.4
aF0.438
aF1.0
aF3.4
aF0.298
aF1.1
aF1.7
aF0.631
aF0.9
aF3.6
aF4.5
aF1.0
aF1.7
aF0.5
aF0.2
aF0.4
aF2.5
aF1.3
aF11.2
aF-1.6
aI4
aI0
aI5
aV101132,1610612761
p1156
aa(lp1157
I200811
aVLou Amundson
p1158
aI1610612744
aVGSW
p1159
aF28.0
aI46
aI20
aI26
aF0.435
aF15.0
aF1.8
aF4.0
aF0.454
aF0.0
aF0.0
aF0.0
aF0.7
aF1.9
aF0.391
aF1.8
aF2.3
aF4.0
aF0.4
aF0.5
aF0.3
aF0.7
aF0.3
aF1.9
aF1.7
aF4.3
aF-1.9
aI0
aI0
aI5
aV200811,1610612744
p1160
aa(lp1161
I101150
aVLou Williams
p1162
aI1610612755
aVPHI
p1163
aF24.0
aI75
aI39
aI36
aF0.52
aF23.3
aF4.3
aF10.6
aF0.406
aF1.2
aF3.4
aF0.348
aF3.9
aF4.7
aF0.823
aF0.4
aF1.6
aF2.0
aF3.4
aF1.4
aF0.6
aF0.2
aF0.7
aF1.7
aF3.4
aF13.7
aF1.3
aI0
aI0
aI5
aV101150,1610612755
p1164
aa(lp1165
I201601
aVLuc Mbah a Moute
p1166
aI1610612749
aVMIL
p1167
aF24.0
aI79
aI34
aI45
aF0.43
aF26.5
aF2.5
aF5.4
aF0.463
aF0.0
aF0.1
aF0.0
aF1.7
aF2.4
aF0.707
aF2.1
aF3.2
aF5.3
aF0.9
aF1.0
aF0.9
aF0.4
aF0.5
aF2.3
aF1.9
aF6.7
aF-0.7
aI8
aI0
aI5
aV201601,1610612749
p1168
aa(lp1169
I2449
aVLuis Scola
p1170
aI1610612745
aVHOU
p1171
aF31.0
aI74
aI38
aI36
aF0.514
aF32.6
aF7.7
aF15.3
aF0.504
aF0.0
aF0.0
aF0.0
aF2.9
aF3.9
aF0.738
aF2.0
aF6.2
aF8.2
aF2.5
aF2.0
aF0.6
aF0.6
aF1.0
aF3.1
aF3.6
aF18.3
aF3.1
aI19
aI0
aI5
aV2449,1610612745
p1172
aa(lp1173
I202337
aVLuke Babbitt
p1174
aI1610612757
aVPOR
p1175
aF22.0
aI24
aI11
aI13
aF0.458
aF5.7
aF0.6
aF2.3
aF0.273
aF0.1
aF0.7
aF0.188
aF0.1
aF0.4
aF0.333
aF0.3
aF1.0
aF1.3
aF0.3
aF0.3
aF0.1
aF0.1
aF0.1
aF0.6
aF0.3
aF1.5
aF-1.4
aI1
aI0
aI5
aV202337,1610612757
p1176
aa(lp1177
I202376
aVLuke Harangody
p1178
aI1610612739
aVCLE
p1179
aF23.0
aI49
aI29
aI20
aF0.592
aF13.1
aF1.6
aF4.2
aF0.383
aF0.3
aF1.3
aF0.242
aF0.4
aF0.5
aF0.731
aF0.8
aF2.1
aF2.9
aF0.6
aF0.3
aF0.3
aF0.3
aF0.3
aF1.6
aF0.5
aF3.9
aF-1.6
aI1
aI0
aI5
aV202376,1610612739
p1180
aa(lp1181
I2557
aVLuke Ridnour
p1182
aI1610612750
aVMIN
p1183
aF30.0
aI71
aI13
aI58
aF0.183
aF30.4
aF4.5
aF9.6
aF0.468
aF1.1
aF2.6
aF0.44
aF1.7
aF1.9
aF0.883
aF0.5
aF2.3
aF2.8
aF5.4
aF2.2
aF1.3
aF0.1
aF0.4
aF2.1
aF1.9
aF11.8
aF-3.5
aI3
aI0
aI5
aV2557,1610612750
p1184
aa(lp1185
I2575
aVLuke Walton
p1186
aI1610612747
aVLAL
p1187
aF31.0
aI54
aI39
aI15
aF0.722
aF9.0
aF0.7
aF2.1
aF0.328
aF0.1
aF0.6
aF0.235
aF0.1
aF0.2
aF0.7
aF0.2
aF1.1
aF1.2
aF1.1
aF0.6
aF0.2
aF0.1
aF0.1
aF0.7
aF0.3
aF1.7
aF0.6
aI0
aI0
aI5
aV2575,1610612747
p1188
aa(lp1189
I2736
aVLuol Deng
p1190
aI1610612741
aVCHI
p1191
aF26.0
aI82
aI62
aI20
aF0.756
aF39.1
aF6.5
aF14.1
aF0.46
aF1.4
aF4.1
aF0.345
aF3.1
aF4.1
aF0.753
aF1.4
aF4.4
aF5.8
aF2.8
aF1.9
aF1.0
aF0.6
aF0.7
aF2.0
aF3.4
aF17.4
aF6.3
aI8
aI0
aI5
aV2736,1610612741
p1192
aa(lp1193
I101129
aVLuther Head
p1194
aI1610612758
aVSAC
p1195
aF28.0
aI36
aI8
aI28
aF0.222
aF16.3
aF1.9
aF4.6
aF0.415
aF0.7
aF1.8
aF0.391
aF1.1
aF1.4
aF0.78
aF0.4
aF1.2
aF1.7
aF1.9
aF0.9
aF0.3
aF0.3
aF0.3
aF1.2
aF1.0
aF5.6
aF-2.9
aI0
aI0
aI5
aV101129,1610612758
p1196
aa(lp1197
I2124
aVMalik Allen
p1198
aI1610612753
aVORL
p1199
aF33.0
aI18
aI9
aI9
aF0.5
aF9.9
aF0.6
aF1.7
aF0.355
aF0.0
aF0.0
aF0.0
aF0.1
aF0.1
aF0.5
aF0.7
aF1.1
aF1.8
aF0.2
aF0.2
aF0.1
aF0.2
aF0.1
aF1.7
aF0.3
aF1.3
aF-3.1
aI0
aI0
aI5
aV2124,1610612753
p1200
aa(lp1201
I202412
aVManny Harris
p1202
aI1610612739
aVCLE
p1203
aF21.0
aI54
aI7
aI47
aF0.13
aF17.3
aF2.0
aF5.4
aF0.374
aF0.6
aF1.7
aF0.37
aF1.3
aF1.7
aF0.763
aF0.7
aF1.9
aF2.6
aF1.6
aF1.2
aF0.6
aF0.1
aF0.5
aF1.2
aF1.3
aF5.9
aF-4.4
aI1
aI0
aI5
aV202412,1610612739
p1204
aa(lp1205
I1938
aVManu Ginobili
p1206
aI1610612759
aVSAS
p1207
aF33.0
aI80
aI61
aI19
aF0.763
aF30.3
aF5.5
aF12.7
aF0.433
aF1.9
aF5.5
aF0.349
aF4.5
aF5.1
aF0.871
aF0.5
aF3.2
aF3.7
aF4.9
aF2.2
aF1.5
aF0.4
aF0.6
aF2.0
aF4.8
aF17.4
aF6.8
aI0
aI0
aI5
aV1938,1610612759
p1208
aa(lp1209
I201188
aVMarc Gasol
p1210
aI1610612763
aVMEM
p1211
aF26.0
aI81
aI46
aI35
aF0.568
aF31.9
aF4.5
aF8.5
aF0.527
aF0.0
aF0.1
aF0.429
aF2.7
aF3.6
aF0.748
aF1.9
aF5.1
aF7.0
aF2.5
aF1.8
aF0.9
aF1.7
aF0.7
aF3.3
aF4.2
aF11.7
aF1.7
aI14
aI0
aI5
aV201188,1610612763
p1212
aa(lp1213
I101162
aVMarcin Gortat
p1214
aI1610612756
aVPHX
p1215
aF27.0
aI80
aI43
aI37
aF0.538
aF25.4
aF4.2
aF7.5
aF0.561
aF0.0
aF0.1
aF0.25
aF1.8
aF2.4
aF0.725
aF1.9
aF6.0
aF7.9
aF0.9
aF1.0
aF0.5
aF1.1
aF0.7
aF2.4
aF2.3
aF10.2
aF0.3
aI24
aI0
aI5
aV101162,1610612756
p1216
aa(lp1217
I201158
aVMarco Belinelli
p1218
aI1610612740
aVNOH
p1219
aF25.0
aI80
aI44
aI36
aF0.55
aF24.5
aF3.8
aF8.6
aF0.437
aF1.7
aF4.1
aF0.414
aF1.2
aF1.6
aF0.784
aF0.2
aF1.7
aF1.9
aF1.2
aF1.0
aF0.5
aF0.1
aF0.3
aF1.8
aF1.6
aF10.5
aF1.1
aI0
aI0
aI5
aV201158,1610612740
p1220
aa(lp1221
I2556
aVMarcus Banks
p1222
aI1610612761
aVTOR
p1223
aF29.0
aI3
aI1
aI2
aF0.333
aF7.3
aF0.0
aF0.7
aF0.0
aF0.0
aF0.0
aF0.0
aF2.0
aF2.7
aF0.75
aF0.0
aF0.3
aF0.3
aF1.0
aF0.7
aF0.3
aF0.0
aF0.0
aF1.3
aF1.7
aF2.0
aF3.0
aI0
aI0
aI5
aV2556,1610612761
p1224
aa(lp1225
I948
aVMarcus Camby
p1226
aI1610612757
aVPOR
p1227
aF37.0
aI59
aI32
aI27
aF0.542
aF26.1
aF2.0
aF5.0
aF0.398
aF0.0
aF0.0
aF0.0
aF0.7
aF1.2
aF0.614
aF3.1
aF7.2
aF10.3
aF2.1
aF1.1
aF0.7
aF1.6
aF0.1
aF2.4
aF1.5
aF4.7
aF0.5
aI8
aI0
aI5
aV948,1610612757
p1228
aa(lp1229
I202408
aVMarcus Cousin
p1230
aI1610612762
aVUTA
p1231
aF24.0
aI4
aI2
aI2
aF0.5
aF4.6
aF0.5
aF0.8
aF0.667
aF0.0
aF0.0
aF0.0
aF0.0
aF0.0
aF0.0
aF0.0
aF0.8
aF0.8
aF0.0
aF0.3
aF0.0
aF0.3
aF0.0
aF0.3
aF0.0
aF1.0
aF-4.3
aI0
aI0
aI5
aV202408,1610612762
p1232
aa(lp1233
I201977
aVMarcus Thornton
p1234
aI1610612758
aVSAC
p1235
aF24.0
aI73
aI37
aI36
aF0.507
aF24.3
aF4.8
aF11.1
aF0.434
aF1.2
aF3.3
aF0.367
aF2.0
aF2.5
aF0.788
aF0.8
aF2.7
aF3.5
aF1.8
aF1.3
aF0.9
aF0.1
aF0.7
aF1.5
aF1.9
aF12.8
aF-1.7
aI2
aI0
aI5
aV201977,1610612758
p1236
aa(lp1237
I201596
aVMario Chalmers
p1238
aI1610612748
aVMIA
p1239
aF25.0
aI70
aI52
aI18
aF0.743
aF22.6
aF2.2
aF5.5
aF0.399
aF1.2
aF3.3
aF0.359
aF0.8
aF0.9
aF0.871
aF0.2
aF1.9
aF2.1
aF2.5
aF1.3
aF1.1
aF0.1
aF0.2
aF2.3
aF1.1
aF6.4
aF3.8
aI0
aI0
aI5
aV201596,1610612748
p1240
aa(lp1241
I201238
aVMario West
p1242
aI1610612751
aVNJN
p1243
aF27.0
aI6
aI1
aI5
aF0.167
aF19.3
aF1.5
aF3.5
aF0.429
aF0.2
aF0.7
aF0.25
aF0.5
aF0.8
aF0.6
aF0.3
aF1.5
aF1.8
aF1.7
aF0.3
aF1.2
aF0.0
aF0.3
aF2.2
aF1.3
aF3.7
aF-1.2
aI0
aI0
aI5
aV201238,1610612751
p1244
aa(lp1245
I2605
aVMarquis Daniels
p1246
aI1610612738
aVBOS
p1247
aF30.0
aI49
aI37
aI12
aF0.755
aF19.1
aF2.3
aF4.7
aF0.491
aF0.1
aF0.4
aF0.19
aF0.8
aF1.2
aF0.684
aF0.5
aF1.8
aF2.3
aF1.3
aF0.8
aF0.8
aF0.4
aF0.4
aF1.3
aF1.2
aF5.5
aF0.0
aI0
aI0
aI5
aV2605,1610612738
p1248
aa(lp1249
I201578
aVMarreese Speights
p1250
aI1610612755
aVPHI
p1251
aF23.0
aI64
aI33
aI31
aF0.516
aF11.5
aF2.3
aF4.5
aF0.495
aF0.0
aF0.1
aF0.25
aF0.9
aF1.1
aF0.753
aF1.0
aF2.3
aF3.3
aF0.5
aF0.6
aF0.1
aF0.3
aF0.3
aF1.9
aF1.1
aF5.4
aF0.9
aI0
aI0
aI5
aV201578,1610612755
p1252
aa(lp1253
I101110
aVMartell Webster
p1254
aI1610612750
aVMIN
p1255
aF24.0
aI46
aI7
aI39
aF0.152
aF23.8
aF3.3
aF7.4
aF0.447
aF1.2
aF2.9
aF0.417
aF2.0
aF2.7
aF0.77
aF0.8
aF2.4
aF3.2
aF1.2
aF1.3
aF0.6
aF0.2
aF0.4
aF2.2
aF2.3
aF9.8
aF-5.5
aI0
aI0
aI5
aV101110,1610612750
p1256
aa(lp1257
I101107
aVMarvin Williams
p1258
aI1610612737
aVATL
p1259
aF25.0
aI65
aI34
aI31
aF0.523
aF28.7
aF3.8
aF8.3
aF0.458
aF0.6
aF1.7
aF0.336
aF2.3
aF2.7
aF0.845
aF1.0
aF3.8
aF4.8
aF1.4
aF1.0
aF0.5
aF0.4
aF0.5
aF1.6
aF2.0
aF10.4
aF-0.6
aI3
aI0
aI5
aV101107,1610612737
p1260
aa(lp1261
I2440
aVMatt Barnes
p1262
aI1610612747
aVLAL
p1263
aF31.0
aI53
aI36
aI17
aF0.679
aF19.2
aF2.5
aF5.3
aF0.47
aF0.6
aF2.0
aF0.318
aF1.1
aF1.5
aF0.779
aF1.4
aF2.9
aF4.3
aF1.3
aF1.1
aF0.7
aF0.4
aF0.3
aF2.4
aF1.3
aF6.7
aF0.5
aI2
aI0
aI5
aV2440,1610612747
p1264
aa(lp1265
I2588
aVMatt Bonner
p1266
aI1610612759
aVSAS
p1267
aF31.0
aI66
aI48
aI18
aF0.727
aF21.7
aF2.6
aF5.6
aF0.464
aF1.6
aF3.5
aF0.457
aF0.5
aF0.7
aF0.744
aF0.9
aF2.7
aF3.6
aF0.9
aF0.4
aF0.4
aF0.3
aF0.1
aF1.7
aF0.6
aF7.3
aF3.9
aI1
aI0
aI5
aV2588,1610612759
p1268
aa(lp1269
I2679
aVMatt Carroll
p1270
aI1610612766
aVCHA
p1271
aF30.0
aI54
aI24
aI30
aF0.444
aF10.8
aF1.6
aF3.7
aF0.447
aF0.3
aF0.9
aF0.37
aF0.7
aF1.0
aF0.769
aF0.2
aF1.0
aF1.3
aF0.4
aF0.4
aF0.3
aF0.1
aF0.3
aF0.8
aF0.8
aF4.4
aF-1.2
aI0
aI0
aI5
aV2679,1610612766
p1272
aa(lp1273
I200772
aVMaurice Ager
p1274
aI1610612750
aVMIN
p1275
aF27.0
aI4
aI1
aI3
aF0.25
aF7.2
aF1.5
aF2.8
aF0.545
aF0.8
aF1.0
aF0.75
aF0.0
aF0.0
aF0.0
aF0.0
aF0.5
aF0.5
aF0.3
aF1.0
aF0.3
aF0.0
aF0.0
aF1.0
aF0.5
aF3.8
aF-1.5
aI0
aI0
aI5
aV200772,1610612750
p1276
aa(lp1277
I2230
aVMaurice Evans
p1278
aI1610612764
aVWAS
p1279
aF32.0
aI73
aI36
aI37
aF0.493
aF21.2
aF2.4
aF5.8
aF0.417
aF0.8
aF2.3
aF0.329
aF0.7
aF0.8
aF0.897
aF0.7
aF1.4
aF2.1
aF0.6
aF0.5
aF0.5
aF0.2
aF0.4
aF1.8
aF0.7
aF6.3
aF-3.6
aI0
aI0
aI5
aV2230,1610612764
p1280
aa(lp1281
I2246
aVMehmet Okur
p1282
aI1610612762
aVUTA
p1283
aF32.0
aI13
aI5
aI8
aF0.385
aF13.0
aF1.7
aF4.8
aF0.355
aF0.4
aF1.2
aF0.313
aF1.2
aF1.5
aF0.75
aF0.7
aF1.6
aF2.3
aF1.5
aF0.5
aF0.3
aF0.3
aF0.2
aF1.4
aF0.9
aF4.9
aF-2.5
aI0
aI0
aI5
aV2246,1610612762
p1284
aa(lp1285
I2408
aVMelvin Ely
p1286
aI1610612743
aVDEN
p1287
aF33.0
aI30
aI18
aI12
aF0.6
aF12.2
aF0.9
aF1.7
aF0.549
aF0.0
aF0.0
aF0.0
aF0.4
aF0.7
aF0.619
aF0.9
aF1.6
aF2.5
aF0.5
aF0.5
aF0.1
aF0.4
aF0.2
aF1.7
aF0.7
aF2.3
aF0.2
aI0
aI0
aI5
aV2408,1610612743
p1288
aa(lp1289
I1897
aVMetta World Peace
p1290
aI1610612747
aVLAL
p1291
aF31.0
aI82
aI57
aI25
aF0.695
aF29.4
aF3.2
aF8.0
aF0.397
aF1.0
aF2.8
aF0.356
aF1.1
aF1.7
aF0.676
aF1.2
aF2.0
aF3.3
aF2.1
aF1.1
aF1.5
aF0.4
aF0.5
aF2.2
aF1.7
aF8.5
aF5.2
aI0
aI0
aI5
aV1897,1610612747
p1292
aa(lp1293
I201563
aVMichael Beasley
p1294
aI1610612750
aVMIN
p1295
aF22.0
aI73
aI14
aI59
aF0.192
aF32.3
aF7.7
aF17.1
aF0.45
aF0.8
aF2.2
aF0.366
aF3.0
aF4.0
aF0.753
aF1.6
aF4.0
aF5.6
aF2.2
aF2.7
aF0.7
aF0.7
aF1.1
aF3.0
aF3.0
aF19.2
aF-3.8
aI8
aI0
aI5
aV201563,1610612750
p1296
aa(lp1297
I200839
aVMichael Harris
p1298
aI1610612745
aVHOU
p1299
aF28.0
aI4
aI3
aI1
aF0.75
aF3.9
aF0.8
aF1.5
aF0.5
aF0.0
aF0.0
aF0.0
aF0.5
aF1.0
aF0.5
aF0.5
aF0.8
aF1.3
aF0.3
aF0.3
aF0.0
aF0.3
aF0.5
aF0.5
aF0.8
aF2.0
aF4.5
aI0
aI0
aI5
aV200839,1610612745
p1300
aa(lp1301
I2072
aVMichael Redd
p1302
aI1610612749
aVMIL
p1303
aF31.0
aI10
aI6
aI4
aF0.6
aF13.5
aF1.8
aF4.5
aF0.4
aF0.4
aF1.7
aF0.235
aF0.4
aF0.4
aF1.0
aF0.0
aF0.8
aF0.8
aF1.2
aF0.4
aF0.2
aF0.1
aF0.0
aF0.4
aF0.2
aF4.4
aF1.0
aI0
aI0
aI5
aV2072,1610612749
p1304
aa(lp1305
I2554
aVMickael Pietrus
p1306
aI1610612756
aVPHX
p1307
aF29.0
aI57
aI33
aI24
aF0.579
aF19.4
aF2.5
aF6.4
aF0.392
aF1.5
aF4.1
aF0.36
aF0.7
aF1.0
aF0.684
aF0.3
aF1.9
aF2.2
aF0.6
aF0.7
aF0.5
aF0.4
aF0.2
aF1.8
aF1.0
aF7.2
aF-0.4
aI0
aI0
aI5
aV2554,1610612756
p1308
aa(lp1309
I1710
aVMike Bibby
p1310
aI1610612748
aVMIA
p1311
aF33.0
aI80
aI49
aI31
aF0.613
aF28.6
aF3.1
aF7.2
aF0.431
aF1.9
aF4.4
aF0.44
aF0.5
aF0.8
aF0.629
aF0.2
aF2.2
aF2.4
aF3.3
aF1.3
aF0.6
aF0.1
aF0.1
aF2.2
aF1.2
aF8.6
aF2.3
aI0
aI0
aI5
aV1710,1610612748
p1312
aa(lp1313
I201144
aVMike Conley
p1314
aI1610612763
aVMEM
p1315
aF23.0
aI81
aI46
aI35
aF0.568
aF35.5
aF5.2
aF11.8
aF0.444
aF1.0
aF2.7
aF0.369
aF2.2
aF3.0
aF0.733
aF0.4
aF2.7
aF3.0
aF6.5
aF2.2
aF1.8
aF0.2
aF0.9
aF2.2
aF2.8
aF13.7
aF3.7
aI7
aI0
aI5
aV201144,1610612763
p1316
aa(lp1317
I2399
aVMike Dunleavy
p1318
aI1610612754
aVIND
p1319
aF30.0
aI61
aI28
aI33
aF0.459
aF27.6
aF3.9
aF8.5
aF0.462
aF1.7
aF4.2
aF0.402
aF1.6
aF2.0
aF0.8
aF0.5
aF4.1
aF4.5
aF1.7
aF1.1
aF0.7
aF0.5
aF0.2
aF1.8
aF1.8
aF11.2
aF1.4
aI1
aI0
aI5
aV2399,1610612754
p1320
aa(lp1321
I2034
aVMike Miller
p1322
aI1610612748
aVMIA
p1323
aF31.0
aI41
aI27
aI14
aF0.659
aF20.4
aF2.0
aF4.9
aF0.401
aF1.0
aF2.9
aF0.364
aF0.6
aF0.8
aF0.676
aF0.9
aF3.6
aF4.5
aF1.2
aF1.0
aF0.5
aF0.0
aF0.2
aF2.1
aF0.9
aF5.6
aF-0.8
aI3
aI0
aI5
aV2034,1610612748
p1324
aa(lp1325
I2590
aVMo Williams
p1326
aI1610612746
aVLAC
p1327
aF28.0
aI58
aI19
aI39
aF0.328
aF30.8
aF5.0
aF12.6
aF0.399
aF1.4
aF4.2
aF0.324
aF2.6
aF3.1
aF0.853
aF0.4
aF2.3
aF2.6
aF6.6
aF2.9
aF0.9
aF0.2
aF0.5
aF2.6
aF2.4
aF14.0
aF-5.7
aI12
aI0
aI5
aV2590,1610612746
p1328
aa(lp1329
I101145
aVMonta Ellis
p1330
aI1610612744
aVGSW
p1331
aF25.0
aI80
aI35
aI45
aF0.438
aF40.3
aF9.1
aF20.1
aF0.451
aF1.7
aF4.7
aF0.361
aF4.3
aF5.4
aF0.789
aF0.6
aF3.0
aF3.5
aF5.6
aF3.2
aF2.1
aF0.3
aF0.7
aF2.5
aF4.8
aF24.1
aF-2.9
aI10
aI0
aI5
aV101145,1610612744
p1332
aa(lp1333
I2050
aVMorris Peterson
p1334
aI1610612760
aVOKC
p1335
aF33.0
aI4
aI2
aI2
aF0.5
aF5.7
aF0.5
aF1.3
aF0.4
aF0.0
aF0.3
aF0.0
aF0.0
aF0.0
aF0.0
aF0.0
aF0.8
aF0.8
aF0.3
aF0.0
aF0.0
aF0.0
aF0.0
aF1.3
aF0.0
aF1.0
aF2.0
aI0
aI0
aI5
aV2050,1610612760
p1336
aa(lp1337
I201203
aVMustafa Shakur
p1338
aI1610612764
aVWAS
p1339
aF26.0
aI22
aI5
aI17
aF0.227
aF7.2
aF1.0
aF2.7
aF0.356
aF0.0
aF0.5
aF0.1
aF0.4
aF0.7
aF0.533
aF0.3
aF0.7
aF1.0
aF1.1
aF0.8
aF0.2
aF0.1
aF0.1
aF0.7
aF0.5
aF2.3
aF-0.3
aI0
aI0
aI5
aV201203,1610612764
p1340
aa(lp1341
I101126
aVNate Robinson
p1342
aI1610612760
aVOKC
p1343
aF27.0
aI59
aI44
aI15
aF0.746
aF17.2
aF2.5
aF6.4
aF0.399
aF1.1
aF3.4
aF0.325
aF0.6
aF0.7
aF0.818
aF0.3
aF1.3
aF1.5
aF1.9
aF1.2
aF0.5
aF0.1
aF0.1
aF1.9
aF1.2
aF6.8
aF0.6
aI1
aI0
aI5
aV101126,1610612760
p1344
aa(lp1345
I1737
aVNazr Mohammed
p1346
aI1610612760
aVOKC
p1347
aF33.0
aI75
aI40
aI35
aF0.533
aF17.1
aF3.1
aF6.0
aF0.522
aF0.0
aF0.0
aF0.0
aF0.9
aF1.5
aF0.598
aF1.9
aF3.0
aF4.9
aF0.3
aF0.9
aF0.4
aF0.7
aF0.6
aF2.5
aF1.3
aF7.1
aF0.2
aI3
aI0
aI5
aV1737,1610612760
p1348
aa(lp1349
I2420
aVNenad Krstic
p1350
aI1610612738
aVBOS
p1351
aF27.0
aI71
aI44
aI27
aF0.62
aF22.1
aF3.3
aF6.4
aF0.511
aF0.0
aF0.0
aF0.0
aF1.6
aF2.1
aF0.774
aF1.7
aF3.0
aF4.7
aF0.4
aF0.8
aF0.4
aF0.4
aF0.5
aF2.6
aF1.7
aF8.1
aF0.6
aI3
aI0
aI5
aV2420,1610612738
p1352
aa(lp1353
I2403
aVNene
p1354
aI1610612743
aVDEN
p1355
aF28.0
aI75
aI46
aI29
aF0.613
aF30.6
aF5.4
aF8.7
aF0.615
aF0.0
aF0.1
aF0.2
aF3.8
aF5.4
aF0.711
aF1.9
aF5.7
aF7.6
aF2.0
aF1.8
aF1.1
aF1.0
aF0.7
aF3.2
aF4.4
aF14.5
aF4.3
aI14
aI0
aI5
aV2403,1610612743
p1356
aa(lp1357
I2555
aVNick Collison
p1358
aI1610612760
aVOKC
p1359
aF30.0
aI71
aI48
aI23
aF0.676
aF21.5
aF1.9
aF3.4
aF0.566
aF0.0
aF0.0
aF0.0
aF0.8
aF1.0
aF0.753
aF1.7
aF2.8
aF4.5
aF1.0
aF0.8
aF0.6
aF0.4
aF0.4
aF3.0
aF1.7
aF4.6
aF4.3
aI1
aI0
aI5
aV2555,1610612760
p1360
aa(lp1361
I201156
aVNick Young
p1362
aI1610612764
aVWAS
p1363
aF26.0
aI64
aI14
aI50
aF0.219
aF31.8
aF6.4
aF14.6
aF0.441
aF1.6
aF4.2
aF0.387
aF2.9
aF3.6
aF0.816
aF0.4
aF2.3
aF2.7
aF1.2
aF1.4
aF0.7
aF0.3
aF0.5
aF2.3
aF2.7
aF17.4
aF-4.4
aI0
aI0
aI5
aV201156,1610612764
p1364
aa(lp1365
I201587
aVNicolas Batum
p1366
aI1610612757
aVPOR
p1367
aF22.0
aI80
aI47
aI33
aF0.588
aF31.5
aF4.6
aF10.1
aF0.455
aF1.5
aF4.3
aF0.345
aF1.7
aF2.1
aF0.841
aF1.4
aF3.2
aF4.5
aF1.5
aF1.0
aF0.9
aF0.6
aF0.5
aF2.4
aF2.4
aF12.4
aF0.6
aI6
aI0
aI5
aV201587,1610612757
p1368
aa(lp1369
I201593
aVNikola Pekovic
p1370
aI1610612750
aVMIN
p1371
aF25.0
aI65
aI15
aI50
aF0.231
aF13.7
aF2.1
aF4.0
aF0.517
aF0.0
aF0.0
aF0.0
aF1.3
aF1.8
aF0.763
aF1.4
aF1.6
aF3.0
aF0.4
aF1.4
aF0.3
aF0.5
aF0.5
aF2.8
aF1.6
aF5.5
aF-3.3
aI1
aI0
aI5
aV201593,1610612750
p1372
aa(lp1373
I201564
aVO.J. Mayo
p1374
aI1610612763
aVMEM
p1375
aF23.0
aI71
aI37
aI34
aF0.521
aF26.3
aF4.3
aF10.5
aF0.407
aF1.4
aF3.7
aF0.364
aF1.4
aF1.8
aF0.756
aF0.5
aF1.9
aF2.4
aF2.0
aF1.4
aF1.0
aF0.4
aF0.6
aF1.8
aF1.4
aF11.3
aF1.7
aI0
aI0
aI5
aV201564,1610612763
p1376
aa(lp1377
I201600
aVOmer Asik
p1378
aI1610612741
aVCHI
p1379
aF24.0
aI82
aI62
aI20
aF0.756
aF12.1
aF1.0
aF1.7
aF0.553
aF0.0
aF0.0
aF0.0
aF0.9
aF1.8
aF0.503
aF1.4
aF2.4
aF3.7
aF0.4
aF0.8
aF0.2
aF0.7
aF0.3
aF1.9
aF1.4
aF2.8
aF2.8
aI1
aI0
aI5
aV201600,1610612741
p1380
aa(lp1381
I201956
aVOmri Casspi
p1382
aI1610612758
aVSAC
p1383
aF23.0
aI71
aI17
aI54
aF0.239
aF24.0
aF3.2
aF7.7
aF0.412
aF1.3
aF3.5
aF0.372
aF1.0
aF1.4
aF0.673
aF1.0
aF3.3
aF4.3
aF1.0
aF1.0
aF0.8
aF0.2
aF0.3
aF1.6
aF1.3
aF8.6
aF-1.9
aI4
aI0
aI5
aV201956,1610612758
p1384
aa(lp1385
I101158
aVOrien Greene
p1386
aI1610612751
aVNJN
p1387
aF29.0
aI3
aI0
aI3
aF0.0
aF1.8
aF0.3
aF0.7
aF0.5
aF0.0
aF0.0
aF0.0
aF0.3
aF0.7
aF0.5
aF0.0
aF0.0
aF0.0
aF0.3
aF0.0
aF0.3
aF0.0
aF0.3
aF0.0
aF0.3
aF1.0
aF1.7
aI0
aI0
aI5
aV101158,1610612751
p1388
aa(lp1389
I201785
aVOthyus Jeffers
p1390
aI1610612764
aVWAS
p1391
aF25.0
aI17
aI8
aI9
aF0.471
aF19.0
aF1.8
aF3.8
aF0.477
aF0.1
aF0.2
aF0.25
aF1.8
aF2.7
aF0.652
aF1.5
aF2.5
aF3.9
aF1.2
aF0.8
aF1.0
aF0.0
aF0.6
aF1.9
aF2.2
aF5.5
aF1.0
aI1
aI0
aI5
aV201785,1610612764
p1392
aa(lp1393
I202377
aVPape Sy
p1394
aI1610612737
aVATL
p1395
aF23.0
aI3
aI0
aI3
aF0.0
aF7.0
aF0.7
aF2.0
aF0.333
aF0.0
aF0.3
aF0.0
aF1.0
aF1.0
aF1.0
aF0.7
aF0.3
aF1.0
aF0.7
aF1.0
aF0.3
aF0.0
aF0.7
aF0.3
aF1.0
aF2.3
aF-2.3
aI0
aI0
aI5
aV202377,1610612737
p1396
aa(lp1397
I201607
aVPatrick Ewing Jr.
p1398
aI1610612740
aVNOH
p1399
aF27.0
aI7
aI3
aI4
aF0.429
aF2.7
aF0.0
aF0.7
aF0.0
aF0.0
aF0.3
aF0.0
aF0.4
aF0.6
aF0.75
aF0.1
aF0.1
aF0.3
aF0.3
aF0.1
aF0.0
aF0.1
aF0.1
aF0.1
aF0.3
aF0.4
aF-0.6
aI0
aI0
aI5
aV201607,1610612740
p1400
aa(lp1401
I202335
aVPatrick Patterson
p1402
aI1610612745
aVHOU
p1403
aF22.0
aI52
aI29
aI23
aF0.558
aF16.7
aF2.9
aF5.1
aF0.558
aF0.0
aF0.0
aF0.0
aF0.6
aF0.8
aF0.714
aF1.7
aF2.2
aF3.8
aF0.8
aF0.6
aF0.3
aF0.7
aF0.2
aF1.5
aF0.7
aF6.3
aF0.2
aI4
aI0
aI5
aV202335,1610612745
p1404
aa(lp1405
I201988
aVPatty Mills
p1406
aI1610612757
aVPOR
p1407
aF22.0
aI64
aI40
aI24
aF0.625
aF12.2
aF2.1
aF5.1
aF0.412
aF0.7
aF2.1
aF0.353
aF0.6
aF0.7
aF0.766
aF0.3
aF0.5
aF0.8
aF1.7
aF1.0
aF0.4
aF0.0
aF0.3
aF1.0
aF1.1
aF5.5
aF-1.5
aI0
aI0
aI5
aV201988,1610612757
p1408
aa(lp1409
I2200
aVPau Gasol
p1410
aI1610612747
aVLAL
p1411
aF30.0
aI82
aI57
aI25
aF0.695
aF37.0
aF7.2
aF13.7
aF0.529
aF0.0
aF0.0
aF0.333
aF4.3
aF5.2
aF0.823
aF3.3
aF6.9
aF10.2
aF3.3
aF1.7
aF0.6
aF1.6
aF1.0
aF2.5
aF4.4
aF18.8
aF6.5
aI43
aI1
aI5
aV2200,1610612747
p1412
aa(lp1413
I202331
aVPaul George
p1414
aI1610612754
aVIND
p1415
aF21.0
aI61
aI29
aI32
aF0.475
aF20.7
aF2.9
aF6.5
aF0.453
aF0.7
aF2.3
aF0.297
aF1.3
aF1.7
aF0.762
aF0.6
aF3.1
aF3.7
aF1.1
aF1.1
aF1.0
aF0.4
aF0.5
aF2.1
aF1.2
aF7.8
aF-0.1
aI0
aI0
aI5
aV202331,1610612754
p1416
aa(lp1417
I200794
aVPaul Millsap
p1418
aI1610612762
aVUTA
p1419
aF26.0
aI76
aI36
aI40
aF0.474
aF34.3
aF6.9
aF13.0
aF0.531
aF0.1
aF0.3
aF0.391
aF3.4
aF4.4
aF0.757
aF2.2
aF5.5
aF7.6
aF2.5
aF1.9
aF1.4
aF0.9
aF0.9
aF3.6
aF3.5
aF17.3
aF0.2
aI19
aI0
aI5
aV200794,1610612762
p1420
aa(lp1421
I1718
aVPaul Pierce
p1422
aI1610612738
aVBOS
p1423
aF33.0
aI80
aI55
aI25
aF0.688
aF34.7
aF6.3
aF12.8
aF0.497
aF1.4
aF3.7
aF0.374
aF4.8
aF5.6
aF0.86
aF0.4
aF5.0
aF5.4
aF3.3
aF2.1
aF1.0
aF0.6
aF0.6
aF2.9
aF4.4
aF18.9
aF7.4
aI7
aI1
aI5
aV1718,1610612738
p1424
aa(lp1425
I978
aVPeja Stojakovic
p1426
aI1610612742
aVDAL
p1427
aF34.0
aI33
aI25
aI8
aF0.758
aF18.7
aF3.0
aF6.9
aF0.441
aF1.7
aF4.1
aF0.419
aF0.7
aF0.8
aF0.92
aF0.4
aF1.8
aF2.3
aF0.9
aF0.5
aF0.4
aF0.1
aF0.2
aF0.7
aF0.5
aF8.5
aF3.7
aI0
aI0
aI5
aV978,1610612742
p1428
aa(lp1429
I200817
aVPooh Jeter
p1430
aI1610612758
aVSAC
p1431
aF27.0
aI62
aI16
aI46
aF0.258
aF13.8
aF1.7
aF4.2
aF0.409
aF0.1
aF0.5
aF0.2
aF0.6
aF0.7
aF0.902
aF0.1
aF1.0
aF1.1
aF2.6
aF0.8
aF0.5
aF0.0
aF0.2
aF0.9
aF0.8
aF4.1
aF-1.4
aI0
aI0
aI5
aV200817,1610612758
p1432
aa(lp1433
I200822
aVPops Mensah-Bonsu
p1434
aI1610612740
aVNOH
p1435
aF27.0
aI7
aI6
aI1
aF0.857
aF5.0
aF0.1
aF0.4
aF0.333
aF0.0
aF0.0
aF0.0
aF0.0
aF0.0
aF0.0
aF0.4
aF1.1
aF1.6
aF0.3
aF0.3
aF0.0
aF0.0
aF0.0
aF1.6
aF0.0
aF0.3
aF-2.3
aI0
aI0
aI5
aV200822,1610612740
p1436
aa(lp1437
I2047
aVQuentin Richardson
p1438
aI1610612753
aVORL
p1439
aF31.0
aI57
aI37
aI20
aF0.649
aF16.8
aF1.5
aF4.5
aF0.341
aF0.7
aF2.6
aF0.288
aF0.6
aF0.8
aF0.75
aF0.7
aF2.4
aF3.1
aF0.7
aF0.6
aF0.4
aF0.1
aF0.2
aF1.3
aF0.9
aF4.4
aF1.1
aI0
aI0
aI5
aV2047,1610612753
p1440
aa(lp1441
I202347
aVQuincy Pondexter
p1442
aI1610612740
aVNOH
p1443
aF23.0
aI66
aI35
aI31
aF0.53
aF11.1
aF1.1
aF2.7
aF0.406
aF0.3
aF0.8
aF0.36
aF0.4
aF0.5
aF0.706
aF0.3
aF1.0
aF1.3
aF0.4
aF0.2
aF0.3
aF0.2
aF0.2
aF1.0
aF0.4
aF2.8
aF-1.0
aI0
aI0
aI5
aV202347,1610612740
p1444
aa(lp1445
I2624
aVQuinton Ross
p1446
aI1610612751
aVNJN
p1447
aF30.0
aI36
aI7
aI29
aF0.194
aF9.8
aF0.7
aF1.6
aF0.441
aF0.0
aF0.1
aF0.0
aF0.1
aF0.4
aF0.357
aF0.3
aF0.6
aF0.8
aF0.3
aF0.2
aF0.1
aF0.2
aF0.1
aF1.1
aF0.5
aF1.6
aF0.4
aI0
aI0
aI5
aV2624,1610612751
p1448
aa(lp1449
I1952
aVRaja Bell
p1450
aI1610612762
aVUTA
p1451
aF34.0
aI68
aI34
aI34
aF0.5
aF30.8
aF2.8
aF6.9
aF0.409
aF1.0
aF2.8
aF0.352
aF1.3
aF1.5
aF0.892
aF0.5
aF2.1
aF2.6
aF1.7
aF0.9
aF0.8
aF0.2
aF0.3
aF2.5
aF1.9
aF8.0
aF-3.1
aI0
aI0
aI5
aV1952,1610612762
p1452
aa(lp1453
I200765
aVRajon Rondo
p1454
aI1610612738
aVBOS
p1455
aF25.0
aI68
aI47
aI21
aF0.691
aF37.2
aF4.7
aF9.9
aF0.475
aF0.1
aF0.6
aF0.233
aF1.1
aF1.9
aF0.568
aF1.3
aF3.1
aF4.4
aF11.2
aF3.4
aF2.3
aF0.2
aF0.8
aF1.8
aF2.3
aF10.6
aF6.4
aI31
aI3
aI5
aV200765,1610612738
p1456
aa(lp1457
I201196
aVRamon Sessions
p1458
aI1610612739
aVCLE
p1459
aF25.0
aI81
aI19
aI62
aF0.235
aF26.3
aF4.5
aF9.6
aF0.466
aF0.0
aF0.2
aF0.2
aF4.3
aF5.2
aF0.823
aF0.6
aF2.6
aF3.1
aF5.2
aF2.2
aF0.7
aF0.1
aF0.8
aF1.1
aF3.9
aF13.3
aF-6.1
aI7
aI0
aI5
aV201196,1610612739
p1460
aa(lp1461
I200751
aVRandy Foye
p1462
aI1610612746
aVLAC
p1463
aF27.0
aI63
aI28
aI35
aF0.444
aF24.6
aF3.3
aF8.4
aF0.388
aF1.1
aF3.4
aF0.327
aF2.1
aF2.4
aF0.893
aF0.2
aF1.4
aF1.6
aF2.7
aF1.5
aF0.7
aF0.3
aF0.4
aF1.9
aF1.6
aF9.8
aF-3.1
aI0
aI0
aI5
aV200751,1610612746
p1464
aa(lp1465
I1740
aVRashard Lewis
p1466
aI1610612764
aVWAS
p1467
aF31.0
aI57
aI24
aI33
aF0.421
aF32.0
aF4.4
aF10.2
aF0.433
aF1.5
aF4.3
aF0.357
aF1.4
aF1.7
aF0.802
aF1.2
aF3.8
aF5.1
aF1.6
aF1.5
aF0.9
aF0.5
aF0.3
aF2.8
aF1.8
aF11.7
aF-1.2
aI6
aI0
aI5
aV1740,1610612764
p1468
aa(lp1469
I2446
aVRasual Butler
p1470
aI1610612741
aVCHI
p1471
aF32.0
aI47
aI17
aI30
aF0.362
aF16.4
aF1.7
aF5.0
aF0.333
aF1.0
aF2.9
aF0.338
aF0.4
aF0.6
aF0.667
aF0.2
aF1.4
aF1.6
aF0.6
aF0.5
aF0.2
aF0.3
aF0.2
aF0.8
aF0.3
aF4.7
aF-1.9
aI0
aI0
aI5
aV2446,1610612741
p1472
aa(lp1473
I951
aVRay Allen
p1474
aI1610612738
aVBOS
p1475
aF35.0
aI80
aI55
aI25
aF0.688
aF36.1
aF6.0
aF12.2
aF0.491
aF2.1
aF4.7
aF0.444
aF2.4
aF2.7
aF0.881
aF0.6
aF2.8
aF3.4
aF2.7
aF1.5
aF1.0
aF0.2
aF0.4
aF1.8
aF1.9
aF16.5
aF5.7
aI0
aI0
aI5
aV951,1610612738
p1476
aa(lp1477
I101109
aVRaymond Felton
p1478
aI1610612743
aVDEN
p1479
aF27.0
aI75
aI44
aI31
aF0.587
aF36.5
aF5.7
aF13.4
aF0.425
aF1.5
aF4.4
aF0.353
aF2.6
aF3.2
aF0.805
aF0.6
aF2.9
aF3.6
aF8.3
aF2.9
aF1.7
aF0.1
aF0.5
aF2.0
aF2.7
aF15.5
aF1.8
aI27
aI1
aI5
aV101109,1610612743
p1480
aa(lp1481
I2501
aVReggie Evans
p1482
aI1610612761
aVTOR
p1483
aF31.0
aI30
aI11
aI19
aF0.367
aF26.6
aF1.4
aF3.4
aF0.408
aF0.0
aF0.0
aF0.0
aF1.6
aF2.9
aF0.545
aF4.0
aF7.5
aF11.5
aF1.3
aF1.3
aF1.0
aF0.2
aF0.7
aF3.0
aF3.2
aF4.4
aF-5.9
aI2
aI0
aI5
aV2501,1610612761
p1484
aa(lp1485
I202130
aVReggie Williams
p1486
aI1610612744
aVGSW
p1487
aF24.0
aI80
aI36
aI44
aF0.45
aF20.3
aF3.4
aF7.2
aF0.469
aF1.3
aF3.0
aF0.423
aF1.3
aF1.7
aF0.746
aF0.6
aF2.1
aF2.7
aF1.5
aF0.7
aF0.4
aF0.0
aF0.3
aF1.6
aF1.5
aF9.2
aF-0.8
aI0
aI0
aI5
aV202130,1610612744
p1488
aa(lp1489
I200764
aVRenaldo Balkman
p1490
aI1610612752
aVNYK
p1491
aF26.0
aI8
aI6
aI2
aF0.75
aF7.8
aF0.8
aF1.6
aF0.462
aF0.1
aF0.3
aF0.5
aF0.4
aF0.5
aF0.75
aF0.3
aF0.6
aF0.9
aF0.3
aF0.1
aF0.5
aF0.3
aF0.3
aF1.9
aF0.4
aF2.0
aF0.4
aI0
aI0
aI5
aV200764,1610612752
p1492
aa(lp1493
I1888
aVRichard Hamilton
p1494
aI1610612765
aVDET
p1495
aF33.0
aI55
aI19
aI36
aF0.345
aF27.2
aF5.2
aF12.2
aF0.429
aF1.0
aF2.6
aF0.382
aF2.7
aF3.1
aF0.849
aF0.4
aF1.9
aF2.3
aF3.1
aF1.6
aF0.7
aF0.1
aF0.4
aF1.7
aF2.1
aF14.1
aF-2.5
aI0
aI0
aI5
aV1888,1610612765
p1496
aa(lp1497
I2210
aVRichard Jefferson
p1498
aI1610612759
aVSAS
p1499
aF31.0
aI81
aI60
aI21
aF0.741
aF30.4
aF3.8
aF7.9
aF0.474
aF1.7
aF3.8
aF0.44
aF1.8
aF2.4
aF0.759
aF0.7
aF3.2
aF3.8
aF1.3
aF1.1
aF0.5
aF0.4
aF0.3
aF2.0
aF2.0
aF11.0
aF3.6
aI1
aI0
aI5
aV2210,1610612759
p1500
aa(lp1501
I201577
aVRobin Lopez
p1502
aI1610612756
aVPHX
p1503
aF23.0
aI67
aI33
aI34
aF0.493
aF14.8
aF2.7
aF5.3
aF0.501
aF0.0
aF0.0
aF0.0
aF1.1
aF1.5
aF0.74
aF1.2
aF2.0
aF3.2
aF0.1
aF0.7
aF0.3
aF0.7
aF0.6
aF2.1
aF1.4
aF6.4
aF-0.7
aI2
aI0
aI5
aV201577,1610612756
p1504
aa(lp1505
I200760
aVRodney Carney
p1506
aI1610612763
aVMEM
p1507
aF27.0
aI27
aI13
aI14
aF0.481
aF12.4
aF1.7
aF4.1
aF0.418
aF0.6
aF1.4
aF0.447
aF0.7
aF1.0
aF0.667
aF0.5
aF1.3
aF1.8
aF0.4
aF0.6
aF0.4
aF0.2
aF0.1
aF1.2
aF0.7
aF4.7
aF-3.1
aI0
aI0
aI5
aV200760,1610612763
p1508
aa(lp1509
I201155
aVRodney Stuckey
p1510
aI1610612765
aVDET
p1511
aF25.0
aI70
aI25
aI45
aF0.357
aF31.2
aF5.2
aF11.8
aF0.439
aF0.4
aF1.3
aF0.289
aF4.7
aF5.4
aF0.866
aF1.0
aF2.1
aF3.1
aF5.2
aF2.2
aF1.1
aF0.1
aF1.1
aF2.5
aF3.8
aF15.5
aF-1.2
aI7
aI0
aI5
aV201155,1610612765
p1512
aa(lp1513
I201958
aVRodrigue Beaubois
p1514
aI1610612742
aVDAL
p1515
aF23.0
aI28
aI19
aI9
aF0.679
aF17.7
aF3.4
aF8.0
aF0.422
aF0.9
aF3.0
aF0.301
aF0.8
aF1.1
aF0.767
aF0.3
aF1.6
aF1.9
aF2.3
aF1.7
aF0.7
aF0.3
aF0.6
aF2.7
aF1.3
aF8.4
aF-0.6
aI0
aI0
aI5
aV201958,1610612742
p1516
aa(lp1517
I2427
aVRoger Mason Jr.
p1518
aI1610612752
aVNYK
p1519
aF30.0
aI26
aI10
aI16
aF0.385
aF12.3
aF1.0
aF3.0
aF0.338
aF0.6
aF1.7
aF0.364
aF0.3
aF0.4
aF0.7
aF0.2
aF1.5
aF1.7
aF0.8
aF0.2
aF0.2
aF0.1
aF0.1
aF1.0
aF0.3
aF2.9
aF-2.2
aI0
aI0
aI5
aV2427,1610612752
p1520
aa(lp1521
I2648
aVRonald Dupree
p1522
aI1610612761
aVTOR
p1523
aF30.0
aI3
aI0
aI3
aF0.0
aF4.3
aF0.3
aF1.3
aF0.25
aF0.0
aF0.3
aF0.0
aF0.0
aF0.0
aF0.0
aF0.0
aF1.0
aF1.0
aF0.3
aF0.0
aF0.0
aF0.0
aF0.3
aF0.7
aF0.0
aF0.7
aF-1.7
aI0
aI0
aI5
aV2648,1610612761
p1524
aa(lp1525
I200758
aVRonnie Brewer
p1526
aI1610612741
aVCHI
p1527
aF26.0
aI81
aI61
aI20
aF0.753
aF22.0
aF2.5
aF5.3
aF0.48
aF0.1
aF0.3
aF0.222
aF1.1
aF1.6
aF0.654
aF0.7
aF2.6
aF3.2
aF1.7
aF0.7
aF1.3
aF0.3
aF0.3
aF1.0
aF1.4
aF6.2
aF3.0
aI0
aI0
aI5
aV200758,1610612741
p1528
aa(lp1529
I101179
aVRonnie Price
p1530
aI1610612762
aVUTA
p1531
aF28.0
aI59
aI31
aI28
aF0.525
aF12.2
aF1.3
aF3.6
aF0.352
aF0.3
aF1.2
aF0.29
aF0.5
aF0.7
aF0.744
aF0.4
aF0.7
aF1.0
aF0.9
aF0.9
aF0.7
aF0.1
aF0.2
aF1.8
aF1.0
aF3.3
aF0.2
aI0
aI0
aI5
aV101179,1610612762
p1532
aa(lp1533
I101142
aVRonny Turiaf
p1534
aI1610612752
aVNYK
p1535
aF28.0
aI64
aI32
aI32
aF0.5
aF17.8
aF1.6
aF2.5
aF0.632
aF0.0
aF0.0
aF0.0
aF1.0
aF1.5
aF0.622
aF1.0
aF2.2
aF3.2
aF1.4
aF0.6
aF0.5
aF1.1
aF0.3
aF2.5
aF1.4
aF4.2
aF-0.2
aI2
aI0
aI5
aV101142,1610612752
p1536
aa(lp1537
I201579
aVRoy Hibbert
p1538
aI1610612754
aVIND
p1539
aF24.0
aI81
aI37
aI44
aF0.457
aF27.7
aF5.1
aF11.0
aF0.461
aF0.0
aF0.0
aF0.0
aF2.5
aF3.4
aF0.745
aF2.2
aF5.3
aF7.5
aF2.0
aF2.3
aF0.4
aF1.8
aF0.9
aF3.2
aF3.5
aF12.7
aF-0.4
aI21
aI0
aI5
aV201579,1610612754
p1540
aa(lp1541
I2767
aVRoyal Ivey
p1542
aI1610612760
aVOKC
p1543
aF29.0
aI25
aI20
aI5
aF0.8
aF6.2
aF0.6
aF1.5
aF0.421
aF0.3
aF0.6
aF0.438
aF0.1
aF0.1
aF1.0
aF0.1
aF0.6
aF0.6
aF0.3
aF0.2
aF0.2
aF0.0
aF0.0
aF0.7
aF0.2
aF1.6
aF-1.4
aI0
aI0
aI5
aV2767,1610612760
p1544
aa(lp1545
I201164
aVRudy Fernandez
p1546
aI1610612757
aVPOR
p1547
aF26.0
aI78
aI46
aI32
aF0.59
aF23.3
aF2.7
aF7.4
aF0.37
aF1.5
aF4.6
aF0.321
aF1.6
aF1.9
aF0.863
aF0.5
aF1.7
aF2.2
aF2.5
aF1.1
aF1.1
aF0.2
aF0.2
aF1.7
aF1.8
aF8.6
aF1.2
aI0
aI0
aI5
aV201164,1610612757
p1548
aa(lp1549
I200752
aVRudy Gay
p1550
aI1610612763
aVMEM
p1551
aF24.0
aI54
aI30
aI24
aF0.556
aF39.8
aF7.6
aF16.1
aF0.471
aF1.1
aF2.7
aF0.396
aF3.6
aF4.5
aF0.805
aF1.5
aF4.7
aF6.2
aF2.8
aF2.5
aF1.7
aF1.1
aF0.8
aF2.4
aF3.1
aF19.8
aF2.6
aI4
aI0
aI5
aV200752,1610612763
p1552
aa(lp1553
I201566
aVRussell Westbrook
p1554
aI1610612760
aVOKC
p1555
aF22.0
aI82
aI55
aI27
aF0.671
aF34.7
aF7.5
aF17.0
aF0.442
aF0.4
aF1.3
aF0.33
aF6.5
aF7.7
aF0.842
aF1.5
aF3.1
aF4.6
aF8.2
aF3.9
aF1.9
aF0.4
aF1.3
aF2.5
aF5.2
aF21.9
aF1.4
aI31
aI3
aI5
aV201566,1610612760
p1556
aa(lp1557
I201583
aVRyan Anderson
p1558
aI1610612753
aVORL
p1559
aF23.0
aI64
aI43
aI21
aF0.672
aF22.3
aF3.5
aF8.2
aF0.43
aF2.1
aF5.3
aF0.393
aF1.5
aF1.8
aF0.812
aF2.0
aF3.5
aF5.5
aF0.8
aF0.8
aF0.5
aF0.6
aF0.4
aF2.1
aF1.5
aF10.6
aF4.3
aI6
aI0
aI5
aV201583,1610612753
p1560
aa(lp1561
I101155
aVRyan Gomes
p1562
aI1610612746
aVLAC
p1563
aF28.0
aI76
aI29
aI47
aF0.382
aF27.6
aF2.7
aF6.6
aF0.41
aF0.9
aF2.8
aF0.341
aF0.8
aF1.1
aF0.718
aF0.8
aF2.5
aF3.3
aF1.6
aF0.7
aF0.8
aF0.2
aF0.1
aF2.1
aF0.8
aF7.2
aF-1.5
aI1
aI0
aI5
aV101155,1610612746
p1564
aa(lp1565
I200797
aVRyan Hollins
p1566
aI1610612739
aVCLE
p1567
aF26.0
aI70
aI17
aI53
aF0.243
aF16.9
aF1.9
aF3.1
aF0.598
aF0.0
aF0.0
aF0.0
aF1.6
aF2.3
aF0.681
aF1.0
aF1.7
aF2.7
aF0.4
aF1.0
aF0.3
aF0.6
aF0.4
aF2.8
aF2.3
aF5.3
aF-1.8
aI0
aI0
aI5
aV200797,1610612739
p1568
aa(lp1569
I201970
aVSam Young
p1570
aI1610612763
aVMEM
p1571
aF26.0
aI78
aI44
aI34
aF0.564
aF20.2
aF3.0
aF6.3
aF0.472
aF0.2
aF0.6
aF0.34
aF1.1
aF1.5
aF0.767
aF0.5
aF1.9
aF2.4
aF0.9
aF0.8
aF0.9
aF0.3
aF0.7
aF1.5
aF1.2
aF7.3
aF0.9
aI0
aI0
aI5
aV201970,1610612763
p1572
aa(lp1573
I202396
aVSamardo Samuels
p1574
aI1610612739
aVCLE
p1575
aF22.0
aI37
aI4
aI33
aF0.108
aF19.0
aF3.0
aF6.5
aF0.456
aF0.0
aF0.1
aF0.0
aF1.8
aF3.0
aF0.618
aF2.0
aF2.2
aF4.3
aF0.5
aF1.4
aF0.4
aF0.5
aF0.9
aF2.4
aF2.8
aF7.8
aF-3.8
aI2
aI0
aI5
aV202396,1610612739
p1576
aa(lp1577
I2223
aVSamuel Dalembert
p1578
aI1610612758
aVSAC
p1579
aF31.0
aI80
aI22
aI58
aF0.275
aF24.2
aF3.4
aF7.1
aF0.473
aF0.0
aF0.0
aF0.0
aF1.4
aF1.9
aF0.73
aF2.7
aF5.6
aF8.2
aF0.8
aF1.7
aF0.5
aF1.5
aF0.4
aF2.8
aF1.6
aF8.1
aF-3.2
aI16
aI0
aI5
aV2223,1610612758
p1580
aa(lp1581
I2562
aVSasha Pavlovic
p1582
aI1610612738
aVBOS
p1583
aF27.0
aI31
aI13
aI18
aF0.419
aF11.7
aF0.9
aF2.3
aF0.403
aF0.4
aF1.0
aF0.387
aF0.2
aF0.3
aF0.6
aF0.0
aF1.0
aF1.0
aF0.5
aF0.4
aF0.3
aF0.2
aF0.1
aF1.1
aF0.4
aF2.5
aF-2.5
aI0
aI0
aI5
aV2562,1610612738
p1584
aa(lp1585
I2756
aVSasha Vujacic
p1586
aI1610612751
aVNJN
p1587
aF27.0
aI67
aI26
aI41
aF0.388
aF24.6
aF3.6
aF8.9
aF0.402
aF1.4
aF3.9
aF0.37
aF1.2
aF1.4
aF0.844
aF0.4
aF2.3
aF2.8
aF2.0
aF1.0
aF0.8
aF0.1
aF0.4
aF2.0
aF1.4
aF9.8
aF-4.1
aI1
aI0
aI5
aV2756,1610612751
p1588
aa(lp1589
I1752
aVSean Marks
p1590
aI1610612757
aVPOR
p1591
aF35.0
aI29
aI15
aI14
aF0.517
aF7.2
aF0.7
aF1.5
aF0.432
aF0.1
aF0.1
aF1.0
aF0.2
aF0.3
aF0.625
aF0.6
aF0.8
aF1.4
aF0.1
aF0.4
aF0.1
aF0.2
aF0.0
aF1.5
aF0.2
aF1.6
aF-2.6
aI0
aI0
aI5
aV1752,1610612757
p1592
aa(lp1593
I2742
aVSebastian Telfair
p1594
aI1610612750
aVMIN
p1595
aF26.0
aI37
aI11
aI26
aF0.297
aF19.2
aF2.6
aF6.5
aF0.402
aF0.8
aF2.1
aF0.359
aF1.2
aF1.6
aF0.733
aF0.5
aF1.0
aF1.5
aF3.0
aF1.7
aF0.7
aF0.1
aF0.5
aF1.7
aF1.5
aF7.2
aF-2.4
aI0
aI0
aI5
aV2742,1610612750
p1596
aa(lp1597
I201623
aVSemih Erden
p1598
aI1610612739
aVCLE
p1599
aF24.0
aI41
aI31
aI10
aF0.756
aF14.5
aF1.5
aF2.7
aF0.559
aF0.0
aF0.0
aF0.0
aF1.0
aF1.5
aF0.65
aF0.9
aF2.0
aF2.9
aF0.5
aF0.8
aF0.4
aF0.6
aF0.4
aF2.5
aF1.3
aF4.0
aF-0.9
aI0
aI0
aI5
aV201623,1610612739
p1600
aa(lp1601
I201586
aVSerge Ibaka
p1602
aI1610612760
aVOKC
p1603
aF21.0
aI82
aI55
aI27
aF0.671
aF27.0
aF4.1
aF7.5
aF0.543
aF0.0
aF0.0
aF0.0
aF1.7
aF2.2
aF0.75
aF2.6
aF5.0
aF7.6
aF0.3
aF0.9
aF0.4
aF2.4
aF0.4
aF3.3
aF1.8
aF9.9
aF1.7
aI12
aI0
aI5
aV201586,1610612760
p1604
aa(lp1605
I2203
aVShane Battier
p1606
aI1610612763
aVMEM
p1607
aF32.0
aI82
aI42
aI40
aF0.512
aF29.0
aF2.8
aF6.2
aF0.45
aF1.2
aF3.3
aF0.382
aF0.8
aF1.1
aF0.688
aF1.1
aF3.5
aF4.5
aF2.3
aF1.0
aF0.8
aF1.0
aF0.2
aF1.9
aF1.6
aF7.6
aF2.3
aI3
aI0
aI5
aV2203,1610612763
p1608
aa(lp1609
I200769
aVShannon Brown
p1610
aI1610612747
aVLAL
p1611
aF25.0
aI82
aI57
aI25
aF0.695
aF19.1
aF3.3
aF7.8
aF0.425
aF0.9
aF2.6
aF0.349
aF1.1
aF1.2
aF0.911
aF0.4
aF1.5
aF1.9
aF1.2
aF0.9
aF0.8
aF0.2
aF0.4
aF1.5
aF0.9
aF8.7
aF1.4
aI0
aI0
aI5
aV200769,1610612747
p1612
aa(lp1613
I406
aVShaquille O'Neal
p1614
aI1610612738
aVBOS
p1615
aF39.0
aI37
aI28
aI9
aF0.757
aF20.3
aF3.6
aF5.4
aF0.667
aF0.0
aF0.0
aF0.0
aF2.0
aF3.5
aF0.557
aF1.3
aF3.5
aF4.8
aF0.7
aF1.5
aF0.4
aF1.1
aF0.4
aF3.2
aF2.7
aF9.2
aF5.2
aI3
aI0
aI5
aV406,1610612738
p1616
aa(lp1617
I2733
aVShaun Livingston
p1618
aI1610612766
aVCHA
p1619
aF25.0
aI73
aI31
aI42
aF0.425
aF17.3
aF2.5
aF5.4
aF0.466
aF0.0
aF0.1
aF0.25
aF1.5
aF1.7
aF0.864
aF0.4
aF1.6
aF2.0
aF2.2
aF1.2
aF0.6
aF0.4
aF0.2
aF1.5
aF1.5
aF6.6
aF-1.0
aI0
aI0
aI5
aV2733,1610612766
p1620
aa(lp1621
I1890
aVShawn Marion
p1622
aI1610612742
aVDAL
p1623
aF33.0
aI80
aI56
aI24
aF0.7
aF28.2
aF5.4
aF10.4
aF0.52
aF0.1
aF0.4
aF0.152
aF1.6
aF2.1
aF0.768
aF2.1
aF4.8
aF6.9
aF1.4
aF1.6
aF0.9
aF0.6
aF0.6
aF1.8
aF1.5
aF12.5
aF-0.1
aI12
aI0
aI5
aV1890,1610612742
p1624
aa(lp1625
I200761
aVShawne Williams
p1626
aI1610612752
aVNYK
p1627
aF25.0
aI64
aI33
aI31
aF0.516
aF20.7
aF2.6
aF6.0
aF0.426
aF1.3
aF3.3
aF0.401
aF0.6
aF0.8
aF0.837
aF0.9
aF2.8
aF3.7
aF0.7
aF0.7
aF0.6
aF0.8
aF0.3
aF2.6
aF0.8
aF7.1
aF0.0
aI1
aI0
aI5
aV200761,1610612752
p1628
aa(lp1629
I200749
aVShelden Williams
p1630
aI1610612752
aVNYK
p1631
aF27.0
aI59
aI38
aI21
aF0.644
aF15.4
aF1.7
aF3.7
aF0.468
aF0.0
aF0.0
aF0.0
aF1.0
aF1.3
aF0.773
aF1.6
aF3.1
aF4.6
aF0.5
aF0.7
aF0.4
aF0.4
aF0.4
aF2.1
aF1.4
aF4.5
aF-0.6
aI0
aI0
aI5
aV200749,1610612752
p1632
aa(lp1633
I202395
aVSherron Collins
p1634
aI1610612766
aVCHA
p1635
aF24.0
aI20
aI8
aI12
aF0.4
aF3.3
aF0.4
aF1.3
aF0.28
aF0.1
aF0.5
aF0.2
aF0.1
aF0.1
aF1.0
aF0.0
aF0.3
aF0.3
aF0.4
aF0.2
aF0.1
aF0.0
aF0.1
aF0.1
aF0.2
aF0.9
aF-0.8
aI0
aI0
aI5
aV202395,1610612766
p1636
aa(lp1637
I202374
aVSolomon Alabi
p1638
aI1610612761
aVTOR
p1639
aF23.0
aI12
aI1
aI11
aF0.083
aF4.9
aF0.3
aF1.3
aF0.2
aF0.0
aF0.0
aF0.0
aF0.0
aF0.2
aF0.0
aF0.6
aF0.6
aF1.2
aF0.2
aF0.3
aF0.2
aF0.2
aF0.3
aF0.4
aF0.1
aF0.5
aF-1.1
aI0
aI0
aI5
aV202374,1610612761
p1640
aa(lp1641
I200780
aVSolomon Jones
p1642
aI1610612754
aVIND
p1643
aF26.0
aI39
aI15
aI24
aF0.385
aF13.5
aF1.3
aF3.1
aF0.405
aF0.0
aF0.0
aF0.0
aF1.1
aF1.6
aF0.661
aF1.2
aF1.7
aF2.9
aF0.8
aF0.9
aF0.3
aF0.6
aF0.4
aF2.4
aF1.4
aF3.6
aF-1.6
aI0
aI0
aI5
aV200780,1610612754
p1644
aa(lp1645
I201603
aVSonny Weems
p1646
aI1610612761
aVTOR
p1647
aF24.0
aI59
aI17
aI42
aF0.288
aF24.0
aF3.9
aF8.7
aF0.444
aF0.3
aF1.0
aF0.279
aF1.2
aF1.6
aF0.766
aF0.7
aF1.9
aF2.6
aF1.8
aF1.5
aF0.6
aF0.0
aF0.6
aF1.5
aF1.1
aF9.2
aF-5.8
aI0
aI0
aI5
aV201603,1610612761
p1648
aa(lp1649
I201150
aVSpencer Hawes
p1650
aI1610612755
aVPHI
p1651
aF23.0
aI81
aI41
aI40
aF0.506
aF21.2
aF3.3
aF7.0
aF0.465
aF0.1
aF0.5
aF0.243
aF0.6
aF1.1
aF0.534
aF1.6
aF4.1
aF5.7
aF1.5
aF1.2
aF0.4
aF0.9
aF0.5
aF2.5
aF1.1
aF7.2
aF-0.7
aI7
aI0
aI5
aV201150,1610612755
p1652
aa(lp1653
I201939
aVStephen Curry
p1654
aI1610612744
aVGSW
p1655
aF23.0
aI74
aI33
aI41
aF0.446
aF33.6
aF6.8
aF14.2
aF0.48
aF2.0
aF4.6
aF0.442
aF2.9
aF3.1
aF0.934
aF0.7
aF3.2
aF3.9
aF5.8
aF3.1
aF1.5
aF0.3
aF0.5
aF3.1
aF2.6
aF18.6
aF-0.2
aI5
aI0
aI5
aV201939,1610612744
p1656
aa(lp1657
I101211
aVStephen Graham
p1658
aI1610612751
aVNJN
p1659
aF29.0
aI59
aI19
aI40
aF0.322
aF16.2
aF1.4
aF3.4
aF0.405
aF0.1
aF0.4
aF0.238
aF0.5
aF0.6
aF0.816
aF0.3
aF1.8
aF2.1
aF0.7
aF0.6
aF0.2
aF0.0
aF0.1
aF1.8
aF0.7
aF3.4
aF-5.1
aI0
aI0
aI5
aV101211,1610612751
p1660
aa(lp1661
I1536
aVStephen Jackson
p1662
aI1610612766
aVCHA
p1663
aF33.0
aI67
aI30
aI37
aF0.448
aF35.9
aF6.5
aF15.8
aF0.411
aF1.8
aF5.4
aF0.337
aF3.7
aF4.6
aF0.816
aF0.8
aF3.7
aF4.5
aF3.6
aF3.1
aF1.2
aF0.4
aF1.2
aF2.4
aF3.4
aF18.5
aF-3.7
aI3
aI1
aI5
aV1536,1610612766
p1664
aa(lp1665
I2581
aVSteve Blake
p1666
aI1610612747
aVLAL
p1667
aF31.0
aI79
aI55
aI24
aF0.696
aF20.0
aF1.4
aF3.9
aF0.359
aF0.9
aF2.4
aF0.378
aF0.3
aF0.4
aF0.867
aF0.2
aF1.7
aF2.0
aF2.2
aF0.9
aF0.5
aF0.0
aF0.1
aF1.3
aF0.6
aF4.0
aF1.0
aI0
aI0
aI5
aV2581,1610612747
p1668
aa(lp1669
I959
aVSteve Nash
p1670
aI1610612756
aVPHX
p1671
aF37.0
aI75
aI39
aI36
aF0.52
aF33.3
aF5.3
aF10.8
aF0.492
aF1.1
aF2.7
aF0.395
aF3.0
aF3.3
aF0.912
aF0.5
aF2.9
aF3.5
aF11.4
aF3.5
aF0.6
aF0.1
aF0.2
aF1.2
aF3.0
aF14.7
aF3.8
aI41
aI0
aI5
aV959,1610612756
p1672
aa(lp1673
I200779
aVSteve Novak
p1674
aI1610612759
aVSAS
p1675
aF28.0
aI30
aI18
aI12
aF0.6
aF7.2
aF1.2
aF2.2
aF0.522
aF0.9
aF1.5
aF0.565
aF0.3
aF0.3
aF1.0
aF0.1
aF0.8
aF0.9
aF0.1
aF0.1
aF0.0
aF0.2
aF0.0
aF0.5
aF0.2
aF3.5
aF-1.3
aI0
aI0
aI5
aV200779,1610612759
p1676
aa(lp1677
I202178
aVSundiata Gaines
p1678
aI1610612751
aVNJN
p1679
aF25.0
aI24
aI9
aI15
aF0.375
aF12.5
aF1.8
aF4.4
aF0.4
aF0.4
aF1.6
aF0.237
aF0.8
aF1.5
aF0.5
aF0.5
aF1.0
aF1.6
aF1.8
aF1.1
aF0.7
aF0.0
aF0.3
aF1.0
aF1.3
aF4.6
aF-1.5
aI0
aI0
aI5
aV202178,1610612751
p1680
aa(lp1681
I2551
aVT.J. Ford
p1682
aI1610612754
aVIND
p1683
aF28.0
aI41
aI17
aI24
aF0.415
aF18.9
aF2.2
aF5.8
aF0.386
aF0.1
aF0.8
aF0.188
aF0.9
aF1.2
aF0.729
aF0.4
aF1.6
aF2.0
aF3.4
aF1.5
aF0.9
aF0.2
aF0.4
aF1.7
aF1.4
aF5.4
aF-0.3
aI0
aI0
aI5
aV2551,1610612754
p1684
aa(lp1685
I201959
aVTaj Gibson
p1686
aI1610612741
aVCHI
p1687
aF26.0
aI80
aI60
aI20
aF0.75
aF21.8
aF2.9
aF6.3
aF0.466
aF0.0
aF0.1
aF0.125
aF1.3
aF1.9
aF0.676
aF2.0
aF3.7
aF5.7
aF0.7
aF0.9
aF0.5
aF1.3
aF0.6
aF2.5
aF1.5
aF7.1
aF3.2
aI6
aI0
aI5
aV201959,1610612741
p1688
aa(lp1689
I2419
aVTayshaun Prince
p1690
aI1610612765
aVDET
p1691
aF31.0
aI78
aI29
aI49
aF0.372
aF32.8
aF6.1
aF12.8
aF0.473
aF0.4
aF1.3
aF0.347
aF1.5
aF2.2
aF0.702
aF1.0
aF3.2
aF4.2
aF2.8
aF1.1
aF0.4
aF0.5
aF0.4
aF1.2
aF2.0
aF14.1
aF-1.7
aI4
aI0
aI5
aV2419,1610612765
p1692
aa(lp1693
I201944
aVTerrence Williams
p1694
aI1610612745
aVHOU
p1695
aF24.0
aI21
aI7
aI14
aF0.333
aF13.8
aF2.0
aF5.5
aF0.374
aF0.3
aF1.0
aF0.273
aF0.7
aF1.0
aF0.667
aF0.2
aF2.2
aF2.4
aF1.8
aF1.6
aF0.4
aF0.0
aF0.3
aF1.2
aF0.9
aF5.0
aF-3.5
aI0
aI0
aI5
aV201944,1610612745
p1696
aa(lp1697
I200757
aVThabo Sefolosha
p1698
aI1610612760
aVOKC
p1699
aF27.0
aI79
aI53
aI26
aF0.671
aF25.9
aF2.0
aF4.2
aF0.471
aF0.4
aF1.3
aF0.275
aF0.7
aF1.0
aF0.747
aF0.8
aF3.6
aF4.4
aF1.4
aF0.7
aF1.2
aF0.5
aF0.3
aF2.2
aF0.8
aF5.1
aF1.3
aI2
aI0
aI5
aV200757,1610612760
p1700
aa(lp1701
I201152
aVThaddeus Young
p1702
aI1610612755
aVPHI
p1703
aF23.0
aI82
aI41
aI41
aF0.5
aF26.0
aF5.6
aF10.3
aF0.541
aF0.1
aF0.3
aF0.273
aF1.5
aF2.1
aF0.707
aF1.9
aF3.4
aF5.3
aF1.0
aF1.2
aF1.1
aF0.3
aF0.5
aF2.1
aF2.1
aF12.7
aF2.0
aI2
aI0
aI5
aV201152,1610612755
p1704
aa(lp1705
I689
aVTheo Ratliff
p1706
aI1610612747
aVLAL
p1707
aF38.0
aI10
aI10
aI0
aF1.0
aF7.1
aF0.1
aF0.6
aF0.167
aF0.0
aF0.0
aF0.0
aF0.0
aF0.2
aF0.0
aF0.6
aF0.7
aF1.3
aF0.3
aF0.3
aF0.2
aF0.5
aF0.1
aF0.7
aF0.6
aF0.2
aF-2.7
aI0
aI0
aI5
aV689,1610612747
p1708
aa(lp1709
I201168
aVTiago Splitter
p1710
aI1610612759
aVSAS
p1711
aF26.0
aI60
aI43
aI17
aF0.717
aF12.3
aF1.7
aF3.2
aF0.529
aF0.0
aF0.0
aF0.0
aF1.3
aF2.3
aF0.543
aF1.2
aF2.2
aF3.4
aF0.4
aF0.5
aF0.5
aF0.3
aF0.4
aF1.5
aF2.1
aF4.6
aF-0.4
aI1
aI0
aI5
aV201168,1610612759
p1712
aa(lp1713
I1495
aVTim Duncan
p1714
aI1610612759
aVSAS
p1715
aF35.0
aI76
aI60
aI16
aF0.789
aF28.4
aF5.5
aF11.0
aF0.5
aF0.0
aF0.1
aF0.0
aF2.4
aF3.4
aF0.716
aF2.2
aF6.7
aF8.9
aF2.7
aF1.6
aF0.7
aF1.9
aF0.6
aF1.6
aF2.5
aF13.4
aF6.0
aI27
aI1
aI5
aV1495,1610612759
p1716
aa(lp1717
I202389
aVTimofey Mozgov
p1718
aI1610612743
aVDEN
p1719
aF24.0
aI45
aI27
aI18
aF0.6
aF11.6
aF1.4
aF3.0
aF0.474
aF0.0
aF0.0
aF0.0
aF0.8
aF1.2
aF0.712
aF1.0
aF1.7
aF2.7
aF0.3
aF0.8
aF0.3
aF0.6
aF0.3
aF1.9
aF1.0
aF3.6
aF-0.9
aI1
aI0
aI5
aV202389,1610612743
p1720
aa(lp1721
I201962
aVToney Douglas
p1722
aI1610612752
aVNYK
p1723
aF25.0
aI81
aI41
aI40
aF0.506
aF24.3
aF3.9
aF9.3
aF0.416
aF1.8
aF4.7
aF0.373
aF1.0
aF1.3
aF0.794
aF0.8
aF2.2
aF3.0
aF3.0
aF1.1
aF1.1
aF0.0
aF0.3
aF2.2
aF1.2
aF10.6
aF1.4
aI3
aI0
aI5
aV201962,1610612752
p1724
aa(lp1725
I2754
aVTony Allen
p1726
aI1610612763
aVMEM
p1727
aF29.0
aI72
aI40
aI32
aF0.556
aF20.8
aF3.5
aF6.8
aF0.51
aF0.1
aF0.3
aF0.174
aF1.9
aF2.5
aF0.753
aF1.0
aF1.7
aF2.7
aF1.4
aF1.2
aF1.8
aF0.6
aF0.5
aF2.2
aF1.9
aF8.9
aF0.7
aI1
aI0
aI5
aV2754,1610612763
p1728
aa(lp1729
I1499
aVTony Battie
p1730
aI1610612755
aVPHI
p1731
aF35.0
aI38
aI14
aI24
aF0.368
aF9.9
aF1.2
aF2.5
aF0.469
aF0.1
aF0.1
aF0.667
aF0.2
aF0.4
aF0.571
aF0.4
aF2.2
aF2.6
aF0.3
aF0.3
aF0.1
aF0.4
aF0.0
aF1.6
aF0.4
aF2.6
aF-0.9
aI0
aI0
aI5
aV1499,1610612755
p1732
aa(lp1733
I2225
aVTony Parker
p1734
aI1610612759
aVSAS
p1735
aF29.0
aI78
aI60
aI18
aF0.769
aF32.4
aF7.1
aF13.7
aF0.519
aF0.3
aF0.9
aF0.357
aF3.0
aF3.9
aF0.769
aF0.4
aF2.7
aF3.1
aF6.6
aF2.6
aF1.2
aF0.0
aF1.0
aF1.7
aF3.1
aF17.5
aF4.0
aI9
aI0
aI5
aV2225,1610612759
p1736
aa(lp1737
I1503
aVTracy McGrady
p1738
aI1610612765
aVDET
p1739
aF32.0
aI72
aI25
aI47
aF0.347
aF23.4
aF3.2
aF7.1
aF0.442
aF0.4
aF1.2
aF0.341
aF1.3
aF1.8
aF0.698
aF0.7
aF2.8
aF3.5
aF3.5
aF1.4
aF0.9
aF0.5
aF0.3
aF1.4
aF1.8
aF8.0
aF-1.2
aI3
aI0
aI5
aV1503,1610612765
p1740
aa(lp1741
I2566
aVTravis Outlaw
p1742
aI1610612751
aVNJN
p1743
aF26.0
aI82
aI24
aI58
aF0.293
aF28.8
aF3.3
aF8.9
aF0.375
aF0.9
aF3.1
aF0.302
aF1.6
aF2.1
aF0.772
aF0.7
aF3.3
aF4.0
aF1.0
aF0.9
aF0.4
aF0.4
aF0.4
aF1.8
aF1.7
aF9.2
aF-4.2
aI0
aI0
aI5
aV2566,1610612751
p1744
aa(lp1745
I2772
aVTrevor Ariza
p1746
aI1610612740
aVNOH
p1747
aF25.0
aI75
aI43
aI32
aF0.573
aF34.7
aF4.0
aF10.2
aF0.398
aF1.1
aF3.6
aF0.303
aF1.8
aF2.6
aF0.701
aF0.8
aF4.6
aF5.4
aF2.2
aF1.6
aF1.6
aF0.4
aF0.6
aF2.4
aF2.1
aF11.0
aF0.1
aI3
aI0
aI5
aV2772,1610612740
p1748
aa(lp1749
I202344
aVTrevor Booker
p1750
aI1610612764
aVWAS
p1751
aF23.0
aI65
aI15
aI50
aF0.231
aF16.4
aF2.1
aF3.9
aF0.549
aF0.0
aF0.0
aF0.0
aF1.0
aF1.6
aF0.673
aF1.5
aF2.4
aF3.9
aF0.5
aF0.6
aF0.4
aF0.6
aF0.1
aF1.8
aF1.2
aF5.3
aF-2.7
aI5
aI0
aI5
aV202344,1610612764
p1752
aa(lp1753
I201234
aVTrey Johnson
p1754
aI1610612747
aVLAL
p1755
aF26.0
aI8
aI3
aI5
aF0.375
aF11.8
aF1.5
aF4.1
aF0.364
aF0.1
aF0.4
aF0.333
aF1.1
aF1.3
aF0.9
aF0.3
aF0.6
aF0.9
aF1.4
aF0.6
aF0.1
aF0.1
aF0.4
aF1.5
aF0.8
aF4.3
aF-2.5
aI0
aI0
aI5
aV201234,1610612747
p1756
aa(lp1757
I2211
aVTroy Murphy
p1758
aI1610612738
aVBOS
p1759
aF31.0
aI35
aI13
aI22
aF0.371
aF13.3
aF1.2
aF3.3
aF0.368
aF0.1
aF0.9
aF0.152
aF0.6
aF0.9
aF0.667
aF0.6
aF2.6
aF3.2
aF0.7
aF0.6
aF0.4
aF0.1
aF0.4
aF1.3
aF0.7
aF3.1
aF-3.6
aI0
aI0
aI5
aV2211,1610612738
p1760
aa(lp1761
I201951
aVTy Lawson
p1762
aI1610612743
aVDEN
p1763
aF23.0
aI80
aI49
aI31
aF0.613
aF26.3
aF4.3
aF8.6
aF0.503
aF0.9
aF2.1
aF0.404
aF2.2
aF2.8
aF0.764
aF0.8
aF1.8
aF2.6
aF4.7
aF1.7
aF1.0
aF0.1
aF0.9
aF1.7
aF2.3
aF11.7
aF2.9
aI4
aI0
aI5
aV201951,1610612743
p1764
aa(lp1765
I201946
aVTyler Hansbrough
p1766
aI1610612754
aVIND
p1767
aF25.0
aI70
aI34
aI36
aF0.486
aF21.9
aF4.1
aF8.8
aF0.465
aF0.0
aF0.0
aF0.0
aF2.8
aF3.6
aF0.779
aF2.1
aF3.2
aF5.2
aF0.6
aF1.1
aF0.5
aF0.2
aF0.6
aF2.3
aF3.1
aF11.0
aF-1.7
aI7
aI0
aI5
aV201946,1610612754
p1768
aa(lp1769
I201936
aVTyreke Evans
p1770
aI1610612758
aVSAC
p1771
aF21.0
aI57
aI18
aI39
aF0.316
aF37.0
aF6.7
aF16.4
aF0.409
aF0.8
aF2.6
aF0.291
aF3.6
aF4.7
aF0.771
aF0.8
aF4.0
aF4.8
aF5.6
aF3.2
aF1.5
aF0.5
aF1.2
aF2.5
aF3.5
aF17.8
aF-3.5
aI6
aI0
aI5
aV201936,1610612758
p1772
aa(lp1773
I200748
aVTyrus Thomas
p1774
aI1610612766
aVCHA
p1775
aF24.0
aI41
aI18
aI23
aF0.439
aF21.0
aF3.8
aF8.1
aF0.471
aF0.0
aF0.1
aF0.0
aF2.6
aF3.3
aF0.787
aF1.6
aF3.9
aF5.5
aF0.7
aF1.6
aF0.7
aF1.6
aF0.8
aF2.8
aF2.9
aF10.2
aF-0.5
aI4
aI0
aI5
aV200748,1610612766
p1776
aa(lp1777
I2199
aVTyson Chandler
p1778
aI1610612742
aVDAL
p1779
aF28.0
aI74
aI54
aI20
aF0.73
aF27.8
aF3.6
aF5.5
aF0.654
aF0.0
aF0.0
aF0.0
aF2.9
aF4.0
aF0.732
aF2.8
aF6.6
aF9.4
aF0.4
aF1.2
aF0.5
aF1.1
aF0.3
aF3.2
aF3.5
aF10.1
aF4.0
aI18
aI0
aI5
aV2199,1610612742
p1780
aa(lp1781
I2617
aVUdonis Haslem
p1782
aI1610612748
aVMIA
p1783
aF31.0
aI13
aI8
aI5
aF0.615
aF26.5
aF3.4
aF6.6
aF0.512
aF0.0
aF0.0
aF0.0
aF1.2
aF1.5
aF0.8
aF2.2
aF5.9
aF8.2
aF0.5
aF1.1
aF0.5
aF0.2
aF0.2
aF3.0
aF2.2
aF8.0
aF4.1
aI4
aI0
aI5
aV2617,1610612748
p1784
aa(lp1785
I1713
aVVince Carter
p1786
aI1610612756
aVPHX
p1787
aF34.0
aI73
aI38
aI35
aF0.521
aF28.1
aF5.3
aF12.2
aF0.437
aF1.6
aF4.4
aF0.361
aF1.8
aF2.4
aF0.74
aF0.7
aF3.0
aF3.8
aF2.0
aF1.2
aF0.9
aF0.3
aF0.5
aF2.6
aF2.2
aF14.0
aF1.8
aI2
aI0
aI5
aV1713,1610612756
p1788
aa(lp1789
I2209
aVVladimir Radmanovic
p1790
aI1610612744
aVGSW
p1791
aF30.0
aI74
aI32
aI42
aF0.432
aF15.8
aF1.9
aF4.3
aF0.431
aF0.9
aF2.3
aF0.405
aF0.4
aF0.5
aF0.882
aF0.9
aF2.0
aF2.9
aF1.1
aF0.8
aF0.6
aF0.6
aF0.2
aF2.1
aF0.5
aF5.1
aF0.7
aI0
aI0
aI5
aV2209,1610612744
p1792
aa(lp1793
I101144
aVVon Wafer
p1794
aI1610612738
aVBOS
p1795
aF25.0
aI58
aI45
aI13
aF0.776
aF9.5
aF1.2
aF2.7
aF0.421
aF0.3
aF1.2
aF0.269
aF0.6
aF0.7
aF0.842
aF0.1
aF0.7
aF0.8
aF0.6
aF0.3
aF0.3
aF0.1
aF0.2
aF0.7
aF0.5
aF3.2
aF0.1
aI0
aI0
aI5
aV101144,1610612738
p1796
aa(lp1797
I201961
aVWayne Ellington
p1798
aI1610612750
aVMIN
p1799
aF23.0
aI62
aI14
aI48
aF0.226
aF19.1
aF2.6
aF6.4
aF0.403
aF0.8
aF2.0
aF0.397
aF0.7
aF0.9
aF0.792
aF0.4
aF1.3
aF1.7
aF1.2
aF0.9
aF0.5
aF0.0
aF0.3
aF1.4
aF0.7
aF6.6
aF-3.3
aI0
aI0
aI5
aV201961,1610612750
p1800
aa(lp1801
I202325
aVWesley Johnson
p1802
aI1610612750
aVMIN
p1803
aF23.0
aI79
aI17
aI62
aF0.215
aF26.2
aF3.4
aF8.6
aF0.397
aF1.3
aF3.7
aF0.356
aF0.8
aF1.2
aF0.696
aF0.6
aF2.4
aF3.0
aF1.9
aF1.2
aF0.7
aF0.7
aF0.2
aF2.1
aF0.9
aF9.0
aF-2.8
aI0
aI0
aI5
aV202325,1610612750
p1804
aa(lp1805
I202083
aVWesley Matthews
p1806
aI1610612757
aVPOR
p1807
aF24.0
aI82
aI48
aI34
aF0.585
aF33.6
aF5.4
aF11.9
aF0.449
aF1.9
aF4.6
aF0.407
aF3.2
aF3.8
aF0.844
aF0.6
aF2.6
aF3.1
aF2.0
aF1.7
aF1.2
aF0.1
aF0.8
aF2.4
aF3.2
aF15.9
aF1.9
aI1
aI0
aI5
aV202083,1610612757
p1808
aa(lp1809
I101198
aVWill Bynum
p1810
aI1610612765
aVDET
p1811
aF28.0
aI61
aI23
aI38
aF0.377
aF18.4
aF3.0
aF6.7
aF0.448
aF0.3
aF0.8
aF0.32
aF1.7
aF2.0
aF0.836
aF0.2
aF1.0
aF1.2
aF3.2
aF1.4
aF0.9
aF0.1
aF0.7
aF1.9
aF1.8
aF7.9
aF-2.8
aI0
aI0
aI5
aV101198,1610612765
p1812
aa(lp1813
I2584
aVWillie Green
p1814
aI1610612740
aVNOH
p1815
aF29.0
aI77
aI44
aI33
aF0.571
aF21.7
aF3.5
aF7.9
aF0.443
aF0.7
aF2.0
aF0.348
aF1.0
aF1.3
aF0.78
aF0.3
aF1.8
aF2.1
aF1.0
aF0.9
aF0.5
aF0.2
aF0.4
aF1.9
aF1.2
aF8.7
aF-0.8
aI0
aI0
aI5
aV2584,1610612740
p1816
aa(lp1817
I202378
aVWillie Warren
p1818
aI1610612746
aVLAC
p1819
aF21.0
aI19
aI5
aI14
aF0.263
aF7.1
aF0.7
aF1.8
aF0.371
aF0.3
aF0.8
aF0.333
aF0.3
aF0.4
aF0.75
aF0.1
aF0.6
aF0.6
aF1.4
aF0.4
aF0.3
aF0.0
aF0.2
aF0.8
aF0.6
aF1.9
aF1.2
aI0
aI0
aI5
aV202378,1610612746
p1820
aa(lp1821
I201163
aVWilson Chandler
p1822
aI1610612743
aVDEN
p1823
aF24.0
aI72
aI41
aI31
aF0.569
aF33.3
aF6.0
aF13.2
aF0.45
aF1.6
aF4.4
aF0.35
aF1.8
aF2.2
aF0.807
aF1.0
aF4.6
aF5.7
aF1.7
aF1.4
aF0.7
aF1.3
aF0.5
aF2.8
aF1.7
aF15.3
aF2.4
aI6
aI0
aI5
aV201163,1610612743
p1824
aa(lp1825
I202333
aVXavier Henry
p1826
aI1610612763
aVMEM
p1827
aF20.0
aI38
aI19
aI19
aF0.5
aF13.9
aF1.7
aF4.2
aF0.406
aF0.1
aF0.4
aF0.118
aF0.9
aF1.4
aF0.635
aF0.2
aF0.7
aF1.0
aF0.5
aF0.3
aF0.3
aF0.1
aF0.2
aF1.3
aF1.1
aF4.3
aF-1.2
aI0
aI0
aI5
aV202333,1610612763
p1828
aa(lp1829
I2397
aVYao Ming
p1830
aI1610612745
aVHOU
p1831
aF30.0
aI5
aI1
aI4
aF0.2
aF18.1
aF3.6
aF7.4
aF0.486
aF0.0
aF0.0
aF0.0
aF3.0
aF3.2
aF0.938
aF1.4
aF4.0
aF5.4
aF0.8
aF1.4
aF0.0
aF1.6
aF0.6
aF2.6
aF3.4
aF10.2
aF-5.4
aI0
aI0
aI5
aV2397,1610612745
p1832
aa(lp1833
I201146
aVYi Jianlian
p1834
aI1610612764
aVWAS
p1835
aF23.0
aI63
aI17
aI46
aF0.27
aF17.6
aF2.3
aF5.5
aF0.418
aF0.0
aF0.2
aF0.231
aF1.0
aF1.4
aF0.681
aF1.3
aF2.7
aF3.9
aF0.4
aF0.8
aF0.4
aF0.5
aF0.3
aF1.8
aF1.1
aF5.6
aF-3.5
aI3
aI0
aI5
aV201146,1610612764
p1836
aa(lp1837
I202220
aVZabian Dowdell
p1838
aI1610612756
aVPHX
p1839
aF26.0
aI24
aI14
aI10
aF0.583
aF12.1
aF2.1
aF5.2
aF0.408
aF0.1
aF0.4
aF0.3
aF0.7
aF0.7
aF0.941
aF0.2
aF0.6
aF0.8
aF2.1
aF1.2
aF0.8
aF0.1
aF0.1
aF1.3
aF0.9
aF5.0
aF-2.0
aI0
aI0
aI5
aV202220,1610612756
p1840
aa(lp1841
I2216
aVZach Randolph
p1842
aI1610612763
aVMEM
p1843
aF29.0
aI75
aI43
aI32
aF0.573
aF36.3
aF8.0
aF15.8
aF0.503
aF0.1
aF0.6
aF0.186
aF4.0
aF5.3
aF0.758
aF4.3
aF7.8
aF12.2
aF2.2
aF2.0
aF0.8
aF0.3
aF1.5
aF2.3
aF4.4
aF20.1
aF3.5
aI53
aI0
aI5
aV2216,1610612763
p1844
aa(lp1845
I2585
aVZaza Pachulia
p1846
aI1610612737
aVATL
p1847
aF27.0
aI79
aI43
aI36
aF0.544
aF15.7
aF1.4
aF2.9
aF0.461
aF0.0
aF0.0
aF0.0
aF1.7
aF2.3
aF0.754
aF1.5
aF2.7
aF4.2
aF0.7
aF0.9
aF0.4
aF0.3
aF0.6
aF2.3
aF2.1
aF4.4
aF-1.7
aI4
aI0
aI5
aV2585,1610612737
p1848
aa(lp1849
I980
aVZydrunas Ilgauskas
p1850
aI1610612748
aVMIA
p1851
aF36.0
aI72
aI51
aI21
aF0.708
aF15.9
aF2.3
aF4.4
aF0.508
aF0.0
aF0.0
aF0.0
aF0.5
aF0.6
aF0.783
aF1.5
aF2.5
aF4.0
aF0.4
aF0.7
aF0.3
aF0.8
aF0.2
aF2.6
aF0.6
aF5.0
aF2.9
aI3
aI0
aI5
aV980,1610612748
p1852
aasVname
p1853
VLeagueDashPlayerStats
p1854
sasVparameters
p1855
(dp1856
VConference
p1857
NsVPlusMinus
p1858
VN
p1859
sVGameScope
p1860
NsVTeamID
p1861
I0
sVHeight
p1862
NsVLocation
p1863
NsVStarterBench
p1864
NsVShotClockRange
p1865
NsVSeasonType
p1866
VRegular Season
p1867
sVDivision
p1868
NsVSeason
p1869
V2010-11
p1870
sVPaceAdjust
p1871
VN
p1872
sVDraftYear
p1873
NsVDateFrom
p1874
NsVPlayerPosition
p1875
NsVCountry
p1876
NsVVsConference
p1877
NsVOpponentTeamID
p1878
I0
sVDateTo
p1879
NsVGameSegment
p1880
NsVDraftPick
p1881
NsVLastNGames
p1882
I0
sVPlayerExperience
p1883
NsVVsDivision
p1884
NsVLeagueID
p1885
V00
p1886
sVOutcome
p1887
NsVMeasureType
p1888
VBase
p1889
sVWeight
p1890
NsVPORound
p1891
I0
sVPerMode
p1892
VPerGame
p1893
sVSeasonSegment
p1894
NsVPeriod
p1895
I0
sVRank
p1896
VN
p1897
sVMonth
p1898
I0
sVCollege
p1899
Nss.