(dp0
S'age'
p1
I25
sS'stats'
p2
(lp3
(lp4
V0021000010
p5
aVOCT 27, 2010
p6
aVNOH vs. MIL
p7
aVW
p8
aI37
aI6
aI11
aF0.545
aI1
aI2
aF0.5
aI4
aI6
aF0.667
aI1
aI3
aI4
aI16
aI0
aI0
aI1
aI3
aI17
aI11
aa(lp9
V0021000027
p10
aVOCT 29, 2010
p11
aVNOH vs. DEN
p12
aVW
p13
aI37
aI6
aI14
aF0.429
aI0
aI3
aF0.0
aI6
aI6
aF1.0
aI2
aI5
aI7
aI7
aI1
aI0
aI0
aI2
aI18
aI1
aa(lp14
V0021000039
p15
aVOCT 30, 2010
p16
aVNOH @ SAS
p17
aVW
p18
aI31
aI8
aI15
aF0.533
aI2
aI2
aF1.0
aI7
aI7
aF1.0
aI0
aI7
aI7
aI5
aI2
aI0
aI3
aI1
aI25
aI4
aa(lp19
V0021000059
p20
aVNOV 03, 2010
p21
aVNOH @ HOU
p22
aVW
p23
aI35
aI7
aI12
aF0.583
aI1
aI1
aF1.0
aI10
aI12
aF0.833
aI1
aI6
aI7
aI8
aI4
aI1
aI1
aI1
aI25
aI12
aa(lp24
V0021000075
p25
aVNOV 05, 2010
p26
aVNOH vs. MIA
p27
aVW
p28
aI36
aI5
aI13
aF0.385
aI0
aI2
aF0.0
aI3
aI3
aF1.0
aI0
aI2
aI2
aI19
aI5
aI0
aI3
aI4
aI13
aI9
aa(lp29
V0021000083
p30
aVNOV 06, 2010
p31
aVNOH @ MIL
p32
aVW
p33
aI33
aI7
aI12
aF0.583
aI0
aI0
aF0.0
aI0
aI0
aF0.0
aI1
aI8
aI9
aI6
aI2
aI0
aI3
aI1
aI14
aI15
aa(lp34
V0021000105
p35
aVNOV 09, 2010
p36
aVNOH vs. LAC
p37
aVW
p38
aI28
aI6
aI10
aF0.6
aI1
aI1
aF1.0
aI0
aI0
aF0.0
aI0
aI2
aI2
aI8
aI3
aI0
aI1
aI1
aI13
aI11
aa(lp39
V0021000136
p40
aVNOV 13, 2010
p41
aVNOH vs. POR
p42
aVW
p43
aI32
aI2
aI6
aF0.333
aI1
aI2
aF0.5
aI6
aI6
aF1.0
aI0
aI4
aI4
aI13
aI5
aI0
aI5
aI2
aI11
aI8
aa(lp44
V0021000146
p45
aVNOV 15, 2010
p46
aVNOH @ DAL
p47
aVL
p48
aI33
aI9
aI16
aF0.563
aI2
aI5
aF0.4
aI2
aI4
aF0.5
aI0
aI4
aI4
aI9
aI3
aI0
aI3
aI4
aI22
aI-1
aa(lp49
V0021000163
p50
aVNOV 17, 2010
p51
aVNOH vs. DAL
p52
aVW
p53
aI37
aI8
aI13
aF0.615
aI2
aI2
aF1.0
aI2
aI3
aF0.667
aI0
aI2
aI2
aI11
aI0
aI0
aI2
aI3
aI20
aI3
aa(lp54
V0021000177
p55
aVNOV 19, 2010
p56
aVNOH vs. CLE
p57
aVW
p58
aI34
aI4
aI8
aF0.5
aI2
aI3
aF0.667
aI5
aI6
aF0.833
aI1
aI3
aI4
aI10
aI6
aI0
aI3
aI3
aI15
aI5
aa(lp59
V0021000193
p60
aVNOV 21, 2010
p61
aVNOH @ SAC
p62
aVW
p63
aI40
aI2
aI12
aF0.167
aI0
aI3
aF0.0
aI5
aI5
aF1.0
aI2
aI5
aI7
aI14
aI5
aI0
aI2
aI3
aI9
aI11
aa(lp64
V0021000202
p65
aVNOV 22, 2010
p66
aVNOH @ LAC
p67
aVL
p68
aI32
aI5
aI12
aF0.417
aI3
aI5
aF0.6
aI1
aI1
aF1.0
aI0
aI4
aI4
aI6
aI2
aI0
aI4
aI3
aI14
aI-2
aa(lp69
V0021000219
p70
aVNOV 24, 2010
p71
aVNOH @ UTA
p72
aVL
p73
aI36
aI4
aI8
aF0.5
aI1
aI3
aF0.333
aI8
aI8
aF1.0
aI0
aI3
aI3
aI9
aI5
aI0
aI1
aI4
aI17
aI-6
aa(lp74
V0021000233
p75
aVNOV 26, 2010
p76
aVNOH @ POR
p77
aVW
p78
aI36
aI4
aI6
aF0.667
aI0
aI0
aF0.0
aI8
aI8
aF1.0
aI0
aI6
aI6
aI13
aI2
aI0
aI5
aI3
aI16
aI27
aa(lp79
V0021000244
p80
aVNOV 28, 2010
p81
aVNOH vs. SAS
p82
aVL
p83
aI33
aI6
aI13
aF0.462
aI1
aI2
aF0.5
aI2
aI2
aF1.0
aI0
aI6
aI6
aI7
aI1
aI0
aI3
aI4
aI15
aI-10
aa(lp84
V0021000251
p85
aVNOV 29, 2010
p86
aVNOH @ OKC
p87
aVL
p88
aI35
aI6
aI13
aF0.462
aI1
aI2
aF0.5
aI4
aI4
aF1.0
aI0
aI2
aI2
aI14
aI5
aI0
aI2
aI2
aI17
aI5
aa(lp89
V0021000267
p90
aVDEC 01, 2010
p91
aVNOH vs. CHA
p92
aVW
p93
aI39
aI4
aI7
aF0.571
aI1
aI2
aF0.5
aI0
aI0
aF0.0
aI0
aI5
aI5
aI14
aI4
aI0
aI3
aI0
aI9
aI19
aa(lp94
V0021000282
p95
aVDEC 03, 2010
p96
aVNOH vs. NYK
p97
aVL
p98
aI31
aI4
aI9
aF0.444
aI2
aI3
aF0.667
aI7
aI7
aF1.0
aI0
aI4
aI4
aI10
aI3
aI0
aI2
aI5
aI17
aI-9
aa(lp99
V0021000298
p100
aVDEC 05, 2010
p101
aVNOH @ SAS
p102
aVL
p103
aI32
aI5
aI13
aF0.385
aI2
aI4
aF0.5
aI4
aI5
aF0.8
aI0
aI5
aI5
aI8
aI2
aI0
aI4
aI2
aI16
aI-21
aa(lp104
V0021000321
p105
aVDEC 08, 2010
p106
aVNOH vs. DET
p107
aVW
p108
aI29
aI2
aI7
aF0.286
aI0
aI1
aF0.0
aI2
aI2
aF1.0
aI0
aI2
aI2
aI14
aI5
aI0
aI1
aI2
aI6
aI24
aa(lp109
V0021000335
p110
aVDEC 10, 2010
p111
aVNOH vs. OKC
p112
aVL
p113
aI36
aI7
aI10
aF0.7
aI1
aI3
aF0.333
aI3
aI3
aF1.0
aI0
aI0
aI0
aI7
aI5
aI0
aI3
aI4
aI18
aI-4
aa(lp114
V0021000350
p115
aVDEC 12, 2010
p116
aVNOH @ PHI
p117
aVL
p118
aI32
aI8
aI12
aF0.667
aI2
aI2
aF1.0
aI7
aI7
aF1.0
aI0
aI2
aI2
aI3
aI3
aI0
aI4
aI4
aI25
aI-11
aa(lp119
V0021000355
p120
aVDEC 13, 2010
p121
aVNOH @ MIA
p122
aVL
p123
aI36
aI3
aI10
aF0.3
aI0
aI3
aF0.0
aI5
aI6
aF0.833
aI1
aI7
aI8
aI5
aI0
aI0
aI2
aI4
aI11
aI-11
aa(lp124
V0021000373
p125
aVDEC 15, 2010
p126
aVNOH vs. SAC
p127
aVW
p128
aI38
aI5
aI11
aF0.455
aI0
aI0
aF0.0
aI12
aI13
aF0.923
aI0
aI3
aI3
aI11
aI1
aI0
aI0
aI2
aI22
aI4
aa(lp129
V0021000387
p130
aVDEC 17, 2010
p131
aVNOH vs. UTA
p132
aVW
p133
aI32
aI5
aI11
aF0.455
aI0
aI0
aF0.0
aI1
aI1
aF1.0
aI1
aI6
aI7
aI10
aI1
aI0
aI3
aI4
aI11
aI18
aa(lp134
V0021000403
p135
aVDEC 19, 2010
p136
aVNOH @ DET
p137
aVL
p138
aI39
aI9
aI16
aF0.563
aI3
aI5
aF0.6
aI2
aI2
aF1.0
aI0
aI2
aI2
aI10
aI3
aI0
aI1
aI1
aI23
aI0
aa(lp139
V0021000408
p140
aVDEC 20, 2010
p141
aVNOH @ IND
p142
aVL
p143
aI36
aI4
aI11
aF0.364
aI1
aI2
aF0.5
aI6
aI6
aF1.0
aI1
aI3
aI4
aI4
aI1
aI0
aI6
aI3
aI15
aI1
aa(lp144
V0021000427
p145
aVDEC 22, 2010
p146
aVNOH vs. NJN
p147
aVW
p148
aI35
aI6
aI8
aF0.75
aI0
aI1
aF0.0
aI0
aI0
aF0.0
aI0
aI6
aI6
aI14
aI2
aI0
aI1
aI0
aI12
aI9
aa(lp149
V0021000442
p150
aVDEC 26, 2010
p151
aVNOH vs. ATL
p152
aVW
p153
aI37
aI10
aI17
aF0.588
aI0
aI2
aF0.0
aI2
aI3
aF0.667
aI1
aI3
aI4
aI8
aI0
aI0
aI1
aI0
aI22
aI7
aa(lp154
V0021000449
p155
aVDEC 27, 2010
p156
aVNOH @ MIN
p157
aVL
p158
aI41
aI6
aI13
aF0.462
aI2
aI3
aF0.667
aI8
aI9
aF0.889
aI1
aI5
aI6
aI13
aI5
aI0
aI2
aI2
aI22
aI-19
aa(lp159
V0021000467
p160
aVDEC 29, 2010
p161
aVNOH vs. LAL
p162
aVL
p163
aI34
aI8
aI14
aF0.571
aI1
aI2
aF0.5
aI3
aI3
aF1.0
aI1
aI2
aI3
aI7
aI3
aI0
aI3
aI2
aI20
aI-7
aa(lp164
V0021000476
p165
aVDEC 31, 2010
p166
aVNOH @ BOS
p167
aVW
p168
aI40
aI7
aI15
aF0.467
aI1
aI3
aF0.333
aI5
aI5
aF1.0
aI1
aI4
aI5
aI11
aI6
aI0
aI4
aI3
aI20
aI17
aa(lp169
V0021000484
p170
aVJAN 01, 2011
p171
aVNOH @ WAS
p172
aVW
p173
aI33
aI6
aI12
aF0.5
aI0
aI2
aF0.0
aI1
aI2
aF0.5
aI2
aI3
aI5
aI11
aI7
aI0
aI1
aI2
aI13
aI13
aa(lp174
V0021000502
p175
aVJAN 03, 2011
p176
aVNOH vs. PHI
p177
aVW
p178
aI36
aI4
aI11
aF0.364
aI1
aI4
aF0.25
aI6
aI6
aF1.0
aI0
aI3
aI3
aI5
aI2
aI0
aI0
aI3
aI15
aI2
aa(lp179
V0021000518
p180
aVJAN 05, 2011
p181
aVNOH vs. GSW
p182
aVL
p183
aI38
aI6
aI12
aF0.5
aI2
aI2
aF1.0
aI10
aI14
aF0.714
aI0
aI6
aI6
aI13
aI1
aI0
aI2
aI3
aI24
aI0
aa(lp184
V0021000535
p185
aVJAN 07, 2011
p186
aVNOH @ LAL
p187
aVL
p188
aI41
aI3
aI6
aF0.5
aI1
aI2
aF0.5
aI5
aI6
aF0.833
aI0
aI0
aI0
aI10
aI0
aI0
aI3
aI5
aI12
aI3
aa(lp189
V0021000548
p190
aVJAN 09, 2011
p191
aVNOH @ DEN
p192
aVW
p193
aI34
aI6
aI13
aF0.462
aI2
aI3
aF0.667
aI6
aI6
aF1.0
aI0
aI3
aI3
aI6
aI0
aI1
aI4
aI5
aI20
aI10
aa(lp194
V0021000567
p195
aVJAN 12, 2011
p196
aVNOH vs. ORL
p197
aVW
p198
aI41
aI5
aI12
aF0.417
aI0
aI1
aF0.0
aI2
aI3
aF0.667
aI0
aI5
aI5
aI13
aI1
aI0
aI1
aI0
aI12
aI2
aa(lp199
V0021000582
p200
aVJAN 14, 2011
p201
aVNOH @ HOU
p202
aVW
p203
aI43
aI4
aI11
aF0.364
aI1
aI2
aF0.5
aI2
aI2
aF1.0
aI0
aI0
aI0
aI8
aI5
aI0
aI5
aI2
aI11
aI3
aa(lp204
V0021000588
p205
aVJAN 15, 2011
p206
aVNOH @ CHA
p207
aVW
p208
aI34
aI6
aI10
aF0.6
aI1
aI1
aF1.0
aI6
aI6
aF1.0
aI0
aI1
aI1
aI4
aI1
aI0
aI0
aI2
aI19
aI13
aa(lp209
V0021000603
p210
aVJAN 17, 2011
p211
aVNOH vs. TOR
p212
aVW
p213
aI31
aI1
aI8
aF0.125
aI0
aI2
aF0.0
aI4
aI4
aF1.0
aI1
aI2
aI3
aI11
aI3
aI0
aI0
aI1
aI6
aI9
aa(lp214
V0021000618
p215
aVJAN 19, 2011
p216
aVNOH vs. MEM
p217
aVW
p218
aI42
aI6
aI14
aF0.429
aI2
aI2
aF1.0
aI6
aI6
aF1.0
aI0
aI3
aI3
aI12
aI0
aI1
aI2
aI4
aI20
aI-2
aa(lp219
V0021000631
p220
aVJAN 21, 2011
p221
aVNOH @ ATL
p222
aVW
p223
aI30
aI4
aI10
aF0.4
aI1
aI2
aF0.5
aI7
aI8
aF0.875
aI0
aI3
aI3
aI8
aI3
aI0
aI1
aI2
aI16
aI26
aa(lp224
V0021000646
p225
aVJAN 22, 2011
p226
aVNOH vs. SAS
p227
aVW
p228
aI31
aI4
aI11
aF0.364
aI1
aI1
aF1.0
aI2
aI4
aF0.5
aI1
aI5
aI6
aI6
aI2
aI0
aI0
aI1
aI11
aI20
aa(lp229
V0021000660
p230
aVJAN 24, 2011
p231
aVNOH vs. OKC
p232
aVW
p233
aI35
aI7
aI14
aF0.5
aI2
aI4
aF0.5
aI8
aI10
aF0.8
aI0
aI4
aI4
aI9
aI3
aI0
aI2
aI3
aI24
aI0
aa(lp234
V0021000677
p235
aVJAN 26, 2011
p236
aVNOH @ GSW
p237
aVW
p238
aI32
aI7
aI9
aF0.778
aI0
aI2
aF0.0
aI4
aI4
aF1.0
aI0
aI2
aI2
aI17
aI0
aI0
aI6
aI1
aI18
aI18
aa(lp239
V0021000699
p240
aVJAN 29, 2011
p241
aVNOH @ SAC
p242
aVL
p243
aI37
aI5
aI10
aF0.5
aI1
aI4
aF0.25
aI8
aI8
aF1.0
aI1
aI4
aI5
aI7
aI3
aI0
aI5
aI5
aI19
aI-1
aa(lp244
V0021000706
p245
aVJAN 30, 2011
p246
aVNOH @ PHX
p247
aVL
p248
aI39
aI7
aI14
aF0.5
aI2
aI4
aF0.5
aI10
aI10
aF1.0
aI2
aI1
aI3
aI12
aI1
aI0
aI0
aI1
aI26
aI-7
aa(lp249
V0021000715
p250
aVFEB 01, 2011
p251
aVNOH vs. WAS
p252
aVW
p253
aI31
aI5
aI9
aF0.556
aI1
aI3
aF0.333
aI4
aI4
aF1.0
aI1
aI4
aI5
aI9
aI2
aI0
aI2
aI3
aI15
aI0
aa(lp254
V0021000725
p255
aVFEB 02, 2011
p256
aVNOH @ OKC
p257
aVL
p258
aI32
aI5
aI9
aF0.556
aI1
aI2
aF0.5
aI4
aI4
aF1.0
aI0
aI1
aI1
aI5
aI2
aI0
aI3
aI2
aI15
aI-13
aa(lp259
V0021000748
p260
aVFEB 05, 2011
p261
aVNOH vs. LAL
p262
aVL
p263
aI44
aI8
aI11
aF0.727
aI3
aI4
aF0.75
aI2
aI2
aF1.0
aI1
aI0
aI1
aI15
aI0
aI0
aI4
aI3
aI21
aI-8
aa(lp264
V0021000760
p265
aVFEB 07, 2011
p266
aVNOH vs. MIN
p267
aVL
p268
aI37
aI5
aI11
aF0.455
aI0
aI3
aF0.0
aI7
aI8
aF0.875
aI1
aI5
aI6
aI13
aI4
aI0
aI1
aI5
aI17
aI6
aa(lp269
V0021000775
p270
aVFEB 09, 2011
p271
aVNOH @ NJN
p272
aVL
p273
aI51
aI4
aI15
aF0.267
aI1
aI3
aF0.333
aI0
aI0
aF0.0
aI2
aI3
aI5
aI11
aI2
aI0
aI7
aI4
aI9
aI1
aa(lp274
V0021000788
p275
aVFEB 11, 2011
p276
aVNOH @ ORL
p277
aVW
p278
aI36
aI4
aI11
aF0.364
aI0
aI2
aF0.0
aI7
aI8
aF0.875
aI0
aI2
aI2
aI7
aI1
aI0
aI2
aI1
aI15
aI12
aa(lp279
V0021000800
p280
aVFEB 12, 2011
p281
aVNOH vs. CHI
p282
aVL
p283
aI38
aI3
aI10
aF0.3
aI1
aI2
aF0.5
aI8
aI10
aF0.8
aI0
aI2
aI2
aI6
aI3
aI0
aI2
aI3
aI15
aI-6
aa(lp284
V0021000823
p285
aVFEB 15, 2011
p286
aVNOH @ GSW
p287
aVL
p288
aI32
aI4
aI12
aF0.333
aI0
aI1
aF0.0
aI3
aI3
aF1.0
aI1
aI3
aI4
aI10
aI1
aI0
aI1
aI1
aI11
aI-10
aa(lp289
V0021000835
p290
aVFEB 16, 2011
p291
aVNOH @ POR
p292
aVL
p293
aI42
aI2
aI6
aF0.333
aI0
aI1
aF0.0
aI4
aI6
aF0.667
aI1
aI1
aI2
aI5
aI1
aI0
aI4
aI4
aI8
aI-5
aa(lp294
V0021000854
p295
aVFEB 23, 2011
p296
aVNOH vs. LAC
p297
aVW
p298
aI39
aI8
aI17
aF0.471
aI0
aI2
aF0.0
aI3
aI4
aF0.75
aI0
aI6
aI6
aI10
aI3
aI0
aI2
aI1
aI19
aI16
aa(lp299
V0021000868
p300
aVFEB 25, 2011
p301
aVNOH @ MIN
p302
aVW
p303
aI39
aI6
aI13
aF0.462
aI2
aI5
aF0.4
aI3
aI4
aF0.75
aI1
aI5
aI6
aI8
aI0
aI0
aI1
aI0
aI17
aI15
aa(lp304
V0021000885
p305
aVFEB 27, 2011
p306
aVNOH vs. HOU
p307
aVL
p308
aI40
aI2
aI12
aF0.167
aI0
aI2
aF0.0
aI2
aI2
aF1.0
aI0
aI1
aI1
aI12
aI3
aI0
aI0
aI5
aI6
aI10
aa(lp309
V0021000897
p310
aVMAR 01, 2011
p311
aVNOH @ TOR
p312
aVL
p313
aI38
aI3
aI10
aF0.3
aI0
aI2
aF0.0
aI1
aI1
aF1.0
aI0
aI4
aI4
aI5
aI1
aI0
aI1
aI5
aI7
aI-7
aa(lp314
V0021000907
p315
aVMAR 02, 2011
p316
aVNOH @ NYK
p317
aVL
p318
aI36
aI2
aI7
aF0.286
aI0
aI1
aF0.0
aI0
aI0
aF0.0
aI1
aI3
aI4
aI10
aI2
aI1
aI3
aI1
aI4
aI-19
aa(lp319
V0021000920
p320
aVMAR 04, 2011
p321
aVNOH @ MEM
p322
aVW
p323
aI38
aI7
aI15
aF0.467
aI2
aI3
aF0.667
aI7
aI8
aF0.875
aI0
aI5
aI5
aI14
aI2
aI0
aI2
aI2
aI23
aI20
aa(lp324
V0021000936
p325
aVMAR 06, 2011
p326
aVNOH @ CLE
p327
aVW
p328
aI27
aI5
aI10
aF0.5
aI1
aI1
aF1.0
aI2
aI2
aF1.0
aI0
aI1
aI1
aI11
aI0
aI0
aI0
aI1
aI13
aI4
aa(lp329
V0021000981
p330
aVMAR 12, 2011
p331
aVNOH vs. SAC
p332
aVW
p333
aI43
aI13
aI21
aF0.619
aI1
aI4
aF0.25
aI6
aI7
aF0.857
aI0
aI7
aI7
aI15
aI5
aI0
aI2
aI1
aI33
aI15
aa(lp334
V0021000995
p335
aVMAR 14, 2011
p336
aVNOH vs. DEN
p337
aVL
p338
aI42
aI9
aI16
aF0.563
aI2
aI5
aF0.4
aI7
aI9
aF0.778
aI0
aI5
aI5
aI10
aI7
aI0
aI2
aI2
aI27
aI-6
aa(lp339
V0021001008
p340
aVMAR 16, 2011
p341
aVNOH vs. PHX
p342
aVW
p343
aI36
aI9
aI16
aF0.563
aI2
aI4
aF0.5
aI6
aI7
aF0.857
aI0
aI5
aI5
aI9
aI3
aI0
aI1
aI2
aI26
aI8
aa(lp344
V0021001032
p345
aVMAR 19, 2011
p346
aVNOH vs. BOS
p347
aVL
p348
aI39
aI0
aI9
aF0.0
aI0
aI4
aF0.0
aI4
aI4
aF1.0
aI1
aI6
aI7
aI15
aI1
aI0
aI3
aI2
aI4
aI0
aa(lp349
V0021001067
p350
aVMAR 24, 2011
p351
aVNOH @ UTA
p352
aVW
p353
aI44
aI8
aI15
aF0.533
aI0
aI2
aF0.0
aI8
aI9
aF0.889
aI1
aI2
aI3
aI12
aI0
aI0
aI1
aI1
aI24
aI10
aa(lp354
V0021001077
p355
aVMAR 25, 2011
p356
aVNOH @ PHX
p357
aVW
p358
aI37
aI10
aI16
aF0.625
aI0
aI2
aF0.0
aI2
aI4
aF0.5
aI0
aI5
aI5
aI7
aI0
aI0
aI1
aI4
aI22
aI5
aa(lp359
V0021001094
p360
aVMAR 27, 2011
p361
aVNOH @ LAL
p362
aVL
p363
aI37
aI4
aI10
aF0.4
aI0
aI1
aF0.0
aI2
aI2
aF1.0
aI1
aI4
aI5
aI9
aI2
aI0
aI2
aI3
aI10
aI-25
aa(lp364
V0021001114
p365
aVMAR 30, 2011
p366
aVNOH vs. POR
p367
aVW
p368
aI45
aI4
aI15
aF0.267
aI0
aI2
aF0.0
aI3
aI3
aF1.0
aI0
aI7
aI7
aI12
aI4
aI0
aI1
aI3
aI11
aI7
aa(lp369
V0021001127
p370
aVAPR 01, 2011
p371
aVNOH vs. MEM
p372
aVL
p373
aI36
aI2
aI8
aF0.25
aI0
aI1
aF0.0
aI1
aI2
aF0.5
aI1
aI4
aI5
aI13
aI1
aI1
aI2
aI1
aI5
aI-12
aa(lp374
V0021001147
p375
aVAPR 03, 2011
p376
aVNOH vs. IND
p377
aVW
p378
aI29
aI8
aI13
aF0.615
aI1
aI2
aF0.5
aI1
aI2
aF0.5
aI0
aI2
aI2
aI8
aI2
aI0
aI2
aI0
aI18
aI23
aa(lp379
V0021001169
p380
aVAPR 06, 2011
p381
aVNOH vs. HOU
p382
aVW
p383
aI42
aI10
aI20
aF0.5
aI1
aI2
aF0.5
aI7
aI8
aF0.875
aI1
aI8
aI9
aI10
aI1
aI0
aI1
aI4
aI28
aI11
aa(lp384
V0021001184
p385
aVAPR 08, 2011
p386
aVNOH vs. PHX
p387
aVW
p388
aI36
aI3
aI8
aF0.375
aI1
aI2
aF0.5
aI0
aI0
aF0.0
aI0
aI5
aI5
aI12
aI2
aI0
aI3
aI4
aI7
aI10
aa(lp389
V0021001197
p390
aVAPR 10, 2011
p391
aVNOH @ MEM
p392
aVL
p393
aI29
aI0
aI6
aF0.0
aI0
aI1
aF0.0
aI0
aI2
aF0.0
aI0
aI3
aI3
aI10
aI2
aI0
aI2
aI1
aI0
aI-12
aa(lp394
V0021001208
p395
aVAPR 11, 2011
p396
aVNOH vs. UTA
p397
aVL
p398
aI35
aI6
aI13
aF0.462
aI0
aI1
aF0.0
aI3
aI4
aF0.75
aI2
aI3
aI5
aI5
aI3
aI0
aI2
aI2
aI15
aI-12
aa(lp399
V0021001223
p400
aVAPR 13, 2011
p401
aVNOH @ DAL
p402
aVL
p403
aI25
aI2
aI9
aF0.222
aI0
aI1
aF0.0
aI3
aI3
aF1.0
aI0
aI1
aI1
aI8
aI1
aI0
aI3
aI3
aI7
aI-12
aasS'name'
p404
VChris Paul
p405
sS'experience'
p406
I5
s.