(dp0
S'age'
p1
I27
sS'stats'
p2
(lp3
(lp4
V0021001223
p5
aVAPR 13, 2011
p6
aVNOH @ DAL
p7
aVL
p8
aI29
aI8
aI15
aF0.533
aI1
aI1
aF1.0
aI5
aI6
aF0.833
aI0
aI0
aI0
aI7
aI0
aI1
aI1
aI2
aI22
aI-21
aa(lp9
V0021001208
p10
aVAPR 11, 2011
p11
aVNOH vs. UTA
p12
aVL
p13
aI21
aI1
aI8
aF0.125
aI0
aI1
aF0.0
aI2
aI2
aF1.0
aI0
aI1
aI1
aI6
aI1
aI0
aI0
aI2
aI4
aI1
aa(lp14
V0021001197
p15
aVAPR 10, 2011
p16
aVNOH @ MEM
p17
aVL
p18
aI20
aI2
aI7
aF0.286
aI1
aI1
aF1.0
aI5
aI5
aF1.0
aI1
aI0
aI1
aI3
aI0
aI0
aI0
aI0
aI10
aI-10
aa(lp19
V0021001184
p20
aVAPR 08, 2011
p21
aVNOH vs. PHX
p22
aVW
p23
aI19
aI3
aI6
aF0.5
aI0
aI0
aF0.0
aI2
aI4
aF0.5
aI0
aI1
aI1
aI6
aI0
aI0
aI1
aI0
aI8
aI10
aa(lp24
V0021001169
p25
aVAPR 06, 2011
p26
aVNOH vs. HOU
p27
aVW
p28
aI32
aI5
aI10
aF0.5
aI2
aI2
aF1.0
aI7
aI8
aF0.875
aI0
aI2
aI2
aI5
aI2
aI0
aI0
aI1
aI19
aI11
aa(lp29
V0021001147
p30
aVAPR 03, 2011
p31
aVNOH vs. IND
p32
aVW
p33
aI24
aI2
aI6
aF0.333
aI0
aI1
aF0.0
aI7
aI7
aF1.0
aI1
aI0
aI1
aI2
aI2
aI0
aI2
aI1
aI11
aI-9
aa(lp34
V0021001127
p35
aVAPR 01, 2011
p36
aVNOH vs. MEM
p37
aVL
p38
aI23
aI4
aI10
aF0.4
aI0
aI2
aF0.0
aI0
aI0
aF0.0
aI0
aI1
aI1
aI4
aI1
aI0
aI0
aI0
aI8
aI-5
aa(lp39
V0021001114
p40
aVMAR 30, 2011
p41
aVNOH vs. POR
p42
aVW
p43
aI25
aI3
aI8
aF0.375
aI0
aI3
aF0.0
aI2
aI2
aF1.0
aI0
aI2
aI2
aI3
aI1
aI0
aI0
aI2
aI8
aI0
aa(lp44
V0021001094
p45
aVMAR 27, 2011
p46
aVNOH @ LAL
p47
aVL
p48
aI15
aI3
aI9
aF0.333
aI2
aI3
aF0.667
aI0
aI0
aF0.0
aI0
aI3
aI3
aI2
aI0
aI0
aI1
aI1
aI8
aI6
aa(lp49
V0021001077
p50
aVMAR 25, 2011
p51
aVNOH @ PHX
p52
aVW
p53
aI27
aI7
aI11
aF0.636
aI2
aI3
aF0.667
aI1
aI1
aF1.0
aI0
aI1
aI1
aI5
aI2
aI0
aI0
aI1
aI17
aI6
aa(lp54
V0021001067
p55
aVMAR 24, 2011
p56
aVNOH @ UTA
p57
aVW
p58
aI30
aI5
aI11
aF0.455
aI1
aI2
aF0.5
aI4
aI5
aF0.8
aI0
aI3
aI3
aI2
aI1
aI0
aI0
aI2
aI15
aI1
aa(lp59
V0021001032
p60
aVMAR 19, 2011
p61
aVNOH vs. BOS
p62
aVL
p63
aI9
aI1
aI3
aF0.333
aI0
aI0
aF0.0
aI0
aI0
aF0.0
aI0
aI0
aI0
aI0
aI0
aI0
aI0
aI2
aI2
aI-4
aa(lp64
V0021001008
p65
aVMAR 16, 2011
p66
aVNOH vs. PHX
p67
aVW
p68
aI12
aI0
aI4
aF0.0
aI0
aI0
aF0.0
aI0
aI0
aF0.0
aI0
aI2
aI2
aI2
aI0
aI0
aI0
aI1
aI0
aI-2
aa(lp69
V0021000995
p70
aVMAR 14, 2011
p71
aVNOH vs. DEN
p72
aVL
p73
aI22
aI4
aI8
aF0.5
aI1
aI2
aF0.5
aI0
aI0
aF0.0
aI0
aI1
aI1
aI2
aI1
aI0
aI2
aI0
aI9
aI-10
aa(lp74
V0021000981
p75
aVMAR 12, 2011
p76
aVNOH vs. SAC
p77
aVW
p78
aI16
aI0
aI5
aF0.0
aI0
aI3
aF0.0
aI0
aI0
aF0.0
aI0
aI0
aI0
aI2
aI0
aI0
aI1
aI0
aI0
aI9
aa(lp79
V0021000961
p80
aVMAR 09, 2011
p81
aVNOH vs. DAL
p82
aVW
p83
aI42
aI8
aI19
aF0.421
aI0
aI1
aF0.0
aI5
aI5
aF1.0
aI1
aI5
aI6
aI7
aI0
aI0
aI2
aI5
aI21
aI10
aa(lp84
V0021000943
p85
aVMAR 07, 2011
p86
aVNOH @ CHI
p87
aVL
p88
aI43
aI8
aI19
aF0.421
aI1
aI2
aF0.5
aI6
aI7
aF0.857
aI0
aI4
aI4
aI3
aI2
aI0
aI5
aI2
aI23
aI-15
aa(lp89
V0021000936
p90
aVMAR 06, 2011
p91
aVNOH @ CLE
p92
aVW
p93
aI28
aI5
aI9
aF0.556
aI0
aI0
aF0.0
aI4
aI4
aF1.0
aI0
aI6
aI6
aI5
aI2
aI0
aI1
aI2
aI14
aI12
aa(lp94
V0021000920
p95
aVMAR 04, 2011
p96
aVNOH @ MEM
p97
aVW
p98
aI30
aI6
aI11
aF0.545
aI3
aI4
aF0.75
aI4
aI4
aF1.0
aI0
aI1
aI1
aI1
aI1
aI0
aI1
aI1
aI19
aI-1
aa(lp99
V0021000907
p100
aVMAR 02, 2011
p101
aVNOH @ NYK
p102
aVL
p103
aI28
aI8
aI13
aF0.615
aI0
aI2
aF0.0
aI5
aI7
aF0.714
aI1
aI4
aI5
aI2
aI0
aI0
aI0
aI0
aI21
aI-14
aa(lp104
V0021000897
p105
aVMAR 01, 2011
p106
aVNOH @ TOR
p107
aVL
p108
aI27
aI7
aI9
aF0.778
aI1
aI1
aF1.0
aI2
aI2
aF1.0
aI0
aI2
aI2
aI2
aI0
aI1
aI2
aI1
aI17
aI3
aa(lp109
V0021000885
p110
aVFEB 27, 2011
p111
aVNOH vs. HOU
p112
aVL
p113
aI20
aI1
aI4
aF0.25
aI0
aI1
aF0.0
aI3
aI3
aF1.0
aI0
aI0
aI0
aI2
aI0
aI0
aI1
aI1
aI5
aI-6
aa(lp114
V0021000868
p115
aVFEB 25, 2011
p116
aVNOH @ MIN
p117
aVW
p118
aI22
aI5
aI9
aF0.556
aI1
aI4
aF0.25
aI2
aI2
aF1.0
aI0
aI1
aI1
aI0
aI4
aI1
aI1
aI1
aI13
aI4
aa(lp119
V0021000854
p120
aVFEB 23, 2011
p121
aVNOH vs. LAC
p122
aVW
p123
aI20
aI3
aI7
aF0.429
aI0
aI2
aF0.0
aI4
aI4
aF1.0
aI0
aI0
aI0
aI4
aI1
aI0
aI2
aI2
aI10
aI2
aa(lp124
V0021000835
p125
aVFEB 16, 2011
p126
aVNOH @ POR
p127
aVL
p128
aI31
aI4
aI7
aF0.571
aI0
aI1
aF0.0
aI4
aI4
aF1.0
aI1
aI4
aI5
aI3
aI2
aI0
aI2
aI4
aI12
aI1
aa(lp129
V0021000823
p130
aVFEB 15, 2011
p131
aVNOH @ GSW
p132
aVL
p133
aI18
aI5
aI10
aF0.5
aI0
aI1
aF0.0
aI1
aI2
aF0.5
aI1
aI3
aI4
aI0
aI2
aI0
aI2
aI1
aI11
aI-3
aa(lp134
V0021000800
p135
aVFEB 12, 2011
p136
aVNOH vs. CHI
p137
aVL
p138
aI13
aI3
aI7
aF0.429
aI0
aI1
aF0.0
aI4
aI4
aF1.0
aI0
aI1
aI1
aI2
aI0
aI0
aI0
aI0
aI10
aI-3
aa(lp139
V0021000788
p140
aVFEB 11, 2011
p141
aVNOH @ ORL
p142
aVW
p143
aI17
aI5
aI6
aF0.833
aI1
aI1
aF1.0
aI2
aI2
aF1.0
aI0
aI0
aI0
aI2
aI0
aI0
aI3
aI3
aI13
aI3
aa(lp144
V0021000775
p145
aVFEB 09, 2011
p146
aVNOH @ NJN
p147
aVL
p148
aI30
aI4
aI9
aF0.444
aI1
aI2
aF0.5
aI3
aI3
aF1.0
aI1
aI0
aI1
aI5
aI1
aI0
aI3
aI1
aI12
aI-14
aa(lp149
V0021000760
p150
aVFEB 07, 2011
p151
aVNOH vs. MIN
p152
aVL
p153
aI11
aI1
aI3
aF0.333
aI0
aI0
aF0.0
aI0
aI0
aF0.0
aI0
aI3
aI3
aI1
aI0
aI0
aI1
aI0
aI2
aI-18
aa(lp154
V0021000748
p155
aVFEB 05, 2011
p156
aVNOH vs. LAL
p157
aVL
p158
aI11
aI2
aI5
aF0.4
aI0
aI0
aF0.0
aI0
aI0
aF0.0
aI0
aI1
aI1
aI0
aI0
aI0
aI0
aI0
aI4
aI-1
aa(lp159
V0021000725
p160
aVFEB 02, 2011
p161
aVNOH @ OKC
p162
aVL
p163
aI12
aI0
aI4
aF0.0
aI0
aI0
aF0.0
aI0
aI0
aF0.0
aI0
aI0
aI0
aI3
aI1
aI0
aI0
aI0
aI0
aI-7
aa(lp164
V0021000715
p165
aVFEB 01, 2011
p166
aVNOH vs. WAS
p167
aVW
p168
aI17
aI2
aI6
aF0.333
aI0
aI0
aF0.0
aI1
aI2
aF0.5
aI0
aI2
aI2
aI5
aI1
aI0
aI1
aI1
aI5
aI8
aa(lp169
V0021000706
p170
aVJAN 30, 2011
p171
aVNOH @ PHX
p172
aVL
p173
aI16
aI0
aI5
aF0.0
aI0
aI1
aF0.0
aI2
aI2
aF1.0
aI0
aI4
aI4
aI1
aI0
aI0
aI1
aI0
aI2
aI3
aa(lp174
V0021000699
p175
aVJAN 29, 2011
p176
aVNOH @ SAC
p177
aVL
p178
aI14
aI2
aI8
aF0.25
aI0
aI1
aF0.0
aI1
aI1
aF1.0
aI0
aI3
aI3
aI2
aI0
aI1
aI1
aI2
aI5
aI-8
aa(lp179
V0021000677
p180
aVJAN 26, 2011
p181
aVNOH @ GSW
p182
aVW
p183
aI16
aI2
aI3
aF0.667
aI0
aI0
aF0.0
aI0
aI0
aF0.0
aI0
aI2
aI2
aI1
aI0
aI0
aI5
aI2
aI4
aI-11
aa(lp184
V0021000660
p185
aVJAN 24, 2011
p186
aVNOH vs. OKC
p187
aVW
p188
aI13
aI1
aI3
aF0.333
aI0
aI0
aF0.0
aI1
aI3
aF0.333
aI0
aI1
aI1
aI3
aI0
aI0
aI0
aI1
aI3
aI2
aa(lp189
V0021000646
p190
aVJAN 22, 2011
p191
aVNOH vs. SAS
p192
aVW
p193
aI21
aI4
aI8
aF0.5
aI0
aI0
aF0.0
aI1
aI2
aF0.5
aI0
aI1
aI1
aI1
aI1
aI0
aI1
aI0
aI9
aI-6
aa(lp194
V0021000631
p195
aVJAN 21, 2011
p196
aVNOH @ ATL
p197
aVW
p198
aI18
aI3
aI10
aF0.3
aI1
aI2
aF0.5
aI1
aI1
aF1.0
aI0
aI2
aI2
aI5
aI1
aI1
aI0
aI0
aI8
aI15
aa(lp199
V0021000618
p200
aVJAN 19, 2011
p201
aVNOH vs. MEM
p202
aVW
p203
aI17
aI2
aI5
aF0.4
aI0
aI1
aF0.0
aI0
aI2
aF0.0
aI0
aI2
aI2
aI3
aI0
aI0
aI1
aI1
aI4
aI0
aa(lp204
V0021000603
p205
aVJAN 17, 2011
p206
aVNOH vs. TOR
p207
aVW
p208
aI27
aI7
aI13
aF0.538
aI1
aI2
aF0.5
aI2
aI2
aF1.0
aI0
aI2
aI2
aI3
aI0
aI0
aI3
aI1
aI17
aI5
aa(lp209
V0021000588
p210
aVJAN 15, 2011
p211
aVNOH @ CHA
p212
aVW
p213
aI17
aI1
aI7
aF0.143
aI0
aI0
aF0.0
aI0
aI0
aF0.0
aI0
aI1
aI1
aI1
aI0
aI0
aI1
aI1
aI2
aI-6
aa(lp214
V0021000582
p215
aVJAN 14, 2011
p216
aVNOH @ HOU
p217
aVW
p218
aI37
aI8
aI14
aF0.571
aI2
aI2
aF1.0
aI5
aI5
aF1.0
aI1
aI2
aI3
aI7
aI0
aI0
aI1
aI3
aI23
aI20
aa(lp219
V0021000567
p220
aVJAN 12, 2011
p221
aVNOH vs. ORL
p222
aVW
p223
aI14
aI1
aI6
aF0.167
aI0
aI1
aF0.0
aI0
aI0
aF0.0
aI0
aI2
aI2
aI1
aI0
aI0
aI0
aI0
aI2
aI0
aa(lp224
V0021000548
p225
aVJAN 09, 2011
p226
aVNOH @ DEN
p227
aVW
p228
aI22
aI3
aI7
aF0.429
aI2
aI3
aF0.667
aI2
aI2
aF1.0
aI0
aI2
aI2
aI2
aI1
aI1
aI3
aI1
aI10
aI5
aa(lp229
V0021000535
p230
aVJAN 07, 2011
p231
aVNOH @ LAL
p232
aVL
p233
aI14
aI2
aI7
aF0.286
aI0
aI1
aF0.0
aI3
aI3
aF1.0
aI0
aI1
aI1
aI0
aI0
aI0
aI0
aI0
aI7
aI-4
aa(lp234
V0021000518
p235
aVJAN 05, 2011
p236
aVNOH vs. GSW
p237
aVL
p238
aI12
aI3
aI3
aF1.0
aI0
aI0
aF0.0
aI1
aI2
aF0.5
aI0
aI0
aI0
aI1
aI0
aI0
aI0
aI0
aI7
aI-5
aa(lp239
V0021000502
p240
aVJAN 03, 2011
p241
aVNOH vs. PHI
p242
aVW
p243
aI18
aI3
aI7
aF0.429
aI0
aI1
aF0.0
aI0
aI0
aF0.0
aI0
aI4
aI4
aI3
aI0
aI0
aI1
aI0
aI6
aI5
aa(lp244
V0021000484
p245
aVJAN 01, 2011
p246
aVNOH @ WAS
p247
aVW
p248
aI16
aI3
aI8
aF0.375
aI0
aI0
aF0.0
aI6
aI7
aF0.857
aI0
aI0
aI0
aI2
aI0
aI0
aI2
aI1
aI12
aI-5
aa(lp249
V0021000476
p250
aVDEC 31, 2010
p251
aVNOH @ BOS
p252
aVW
p253
aI8
aI0
aI2
aF0.0
aI0
aI0
aF0.0
aI0
aI0
aF0.0
aI0
aI3
aI3
aI1
aI0
aI0
aI2
aI0
aI0
aI-14
aa(lp254
V0021000467
p255
aVDEC 29, 2010
p256
aVNOH vs. LAL
p257
aVL
p258
aI14
aI4
aI6
aF0.667
aI1
aI1
aF1.0
aI3
aI5
aF0.6
aI0
aI2
aI2
aI1
aI1
aI0
aI0
aI1
aI12
aI-8
aa(lp259
V0021000449
p260
aVDEC 27, 2010
p261
aVNOH @ MIN
p262
aVL
p263
aI18
aI0
aI4
aF0.0
aI0
aI2
aF0.0
aI1
aI2
aF0.5
aI0
aI3
aI3
aI2
aI0
aI0
aI1
aI4
aI1
aI-1
aa(lp264
V0021000442
p265
aVDEC 26, 2010
p266
aVNOH vs. ATL
p267
aVW
p268
aI22
aI4
aI11
aF0.364
aI0
aI3
aF0.0
aI2
aI2
aF1.0
aI0
aI1
aI1
aI3
aI0
aI0
aI0
aI0
aI10
aI4
aa(lp269
V0021000427
p270
aVDEC 22, 2010
p271
aVNOH vs. NJN
p272
aVW
p273
aI17
aI2
aI6
aF0.333
aI1
aI2
aF0.5
aI2
aI2
aF1.0
aI1
aI2
aI3
aI3
aI0
aI0
aI1
aI1
aI7
aI6
aa(lp274
V0021000408
p275
aVDEC 20, 2010
p276
aVNOH @ IND
p277
aVL
p278
aI26
aI3
aI8
aF0.375
aI2
aI3
aF0.667
aI1
aI1
aF1.0
aI0
aI2
aI2
aI6
aI3
aI0
aI0
aI0
aI9
aI-5
aa(lp279
V0021000403
p280
aVDEC 19, 2010
p281
aVNOH @ DET
p282
aVL
p283
aI16
aI2
aI6
aF0.333
aI0
aI1
aF0.0
aI0
aI0
aF0.0
aI0
aI0
aI0
aI2
aI0
aI0
aI1
aI1
aI4
aI-4
aa(lp284
V0021000387
p285
aVDEC 17, 2010
p286
aVNOH vs. UTA
p287
aVW
p288
aI18
aI4
aI8
aF0.5
aI0
aI2
aF0.0
aI2
aI2
aF1.0
aI0
aI1
aI1
aI5
aI0
aI0
aI0
aI2
aI10
aI11
aa(lp289
V0021000373
p290
aVDEC 15, 2010
p291
aVNOH vs. SAC
p292
aVW
p293
aI14
aI1
aI7
aF0.143
aI0
aI1
aF0.0
aI2
aI4
aF0.5
aI0
aI2
aI2
aI2
aI0
aI0
aI2
aI0
aI4
aI-2
aa(lp294
V0021000355
p295
aVDEC 13, 2010
p296
aVNOH @ MIA
p297
aVL
p298
aI12
aI2
aI3
aF0.667
aI0
aI0
aF0.0
aI2
aI2
aF1.0
aI0
aI0
aI0
aI2
aI0
aI0
aI2
aI1
aI6
aI-1
aa(lp299
V0021000350
p300
aVDEC 12, 2010
p301
aVNOH @ PHI
p302
aVL
p303
aI25
aI3
aI8
aF0.375
aI0
aI1
aF0.0
aI2
aI2
aF1.0
aI1
aI1
aI2
aI0
aI0
aI0
aI1
aI3
aI8
aI-15
aa(lp304
V0021000335
p305
aVDEC 10, 2010
p306
aVNOH vs. OKC
p307
aVL
p308
aI15
aI5
aI7
aF0.714
aI0
aI0
aF0.0
aI3
aI3
aF1.0
aI0
aI4
aI4
aI3
aI3
aI0
aI1
aI0
aI13
aI2
aa(lp309
V0021000321
p310
aVDEC 08, 2010
p311
aVNOH vs. DET
p312
aVW
p313
aI22
aI2
aI9
aF0.222
aI0
aI2
aF0.0
aI0
aI2
aF0.0
aI0
aI3
aI3
aI2
aI1
aI0
aI0
aI1
aI4
aI3
aa(lp314
V0021000298
p315
aVDEC 05, 2010
p316
aVNOH @ SAS
p317
aVL
p318
aI16
aI1
aI3
aF0.333
aI0
aI0
aF0.0
aI2
aI2
aF1.0
aI0
aI2
aI2
aI5
aI0
aI0
aI2
aI2
aI4
aI-4
aa(lp319
V0021000282
p320
aVDEC 03, 2010
p321
aVNOH vs. NYK
p322
aVL
p323
aI21
aI2
aI8
aF0.25
aI0
aI0
aF0.0
aI2
aI4
aF0.5
aI2
aI1
aI3
aI2
aI1
aI0
aI2
aI2
aI6
aI-7
aa(lp324
V0021000267
p325
aVDEC 01, 2010
p326
aVNOH vs. CHA
p327
aVW
p328
aI7
aI0
aI4
aF0.0
aI0
aI0
aF0.0
aI0
aI0
aF0.0
aI0
aI2
aI2
aI1
aI0
aI0
aI0
aI0
aI0
aI-4
aa(lp329
V0021000251
p330
aVNOV 29, 2010
p331
aVNOH @ OKC
p332
aVL
p333
aI13
aI1
aI3
aF0.333
aI1
aI1
aF1.0
aI0
aI0
aF0.0
aI1
aI1
aI2
aI2
aI0
aI0
aI0
aI1
aI3
aI-11
aa(lp334
V0021000244
p335
aVNOV 28, 2010
p336
aVNOH vs. SAS
p337
aVL
p338
aI15
aI0
aI4
aF0.0
aI0
aI0
aF0.0
aI2
aI2
aF1.0
aI0
aI0
aI0
aI2
aI0
aI0
aI2
aI1
aI2
aI-4
aa(lp339
V0021000233
p340
aVNOV 26, 2010
p341
aVNOH @ POR
p342
aVW
p343
aI12
aI1
aI4
aF0.25
aI0
aI1
aF0.0
aI0
aI0
aF0.0
aI0
aI1
aI1
aI1
aI0
aI0
aI2
aI0
aI2
aI-8
aa(lp344
V0021000219
p345
aVNOV 24, 2010
p346
aVNOH @ UTA
p347
aVL
p348
aI13
aI1
aI4
aF0.25
aI0
aI0
aF0.0
aI2
aI2
aF1.0
aI0
aI1
aI1
aI0
aI0
aI0
aI0
aI0
aI4
aI-11
aa(lp349
V0021000202
p350
aVNOV 22, 2010
p351
aVNOH @ LAC
p352
aVL
p353
aI16
aI4
aI8
aF0.5
aI0
aI2
aF0.0
aI4
aI4
aF1.0
aI1
aI2
aI3
aI4
aI0
aI0
aI2
aI4
aI12
aI-3
aa(lp354
V0021000173
p355
aVNOV 19, 2010
p356
aVTOR vs. HOU
p357
aVW
p358
aI23
aI2
aI6
aF0.333
aI0
aI0
aF0.0
aI0
aI0
aF0.0
aI0
aI1
aI1
aI8
aI0
aI0
aI1
aI3
aI4
aI-15
aa(lp359
V0021000159
p360
aVNOV 17, 2010
p361
aVTOR @ PHI
p362
aVW
p363
aI23
aI2
aI13
aF0.154
aI0
aI4
aF0.0
aI2
aI2
aF1.0
aI1
aI0
aI1
aI2
aI1
aI0
aI2
aI3
aI6
aI-4
aa(lp364
V0021000153
p365
aVNOV 16, 2010
p366
aVTOR @ WAS
p367
aVL
p368
aI31
aI5
aI14
aF0.357
aI0
aI1
aF0.0
aI3
aI4
aF0.75
aI0
aI4
aI4
aI5
aI2
aI0
aI0
aI1
aI13
aI-4
aa(lp369
V0021000133
p370
aVNOV 13, 2010
p371
aVTOR @ MIA
p372
aVL
p373
aI23
aI1
aI6
aF0.167
aI0
aI2
aF0.0
aI1
aI1
aF1.0
aI1
aI4
aI5
aI3
aI0
aI0
aI1
aI1
aI3
aI-5
aa(lp374
V0021000123
p375
aVNOV 12, 2010
p376
aVTOR @ ORL
p377
aVW
p378
aI26
aI4
aI8
aF0.5
aI1
aI2
aF0.5
aI4
aI4
aF1.0
aI0
aI5
aI5
aI2
aI0
aI0
aI4
aI2
aI13
aI-4
aa(lp379
V0021000110
p380
aVNOV 10, 2010
p381
aVTOR vs. CHA
p382
aVL
p383
aI25
aI4
aI8
aF0.5
aI0
aI0
aF0.0
aI4
aI4
aF1.0
aI0
aI3
aI3
aI5
aI0
aI0
aI6
aI2
aI12
aI-6
aa(lp384
V0021000097
p385
aVNOV 08, 2010
p386
aVTOR vs. GSW
p387
aVL
p388
aI38
aI7
aI13
aF0.538
aI1
aI3
aF0.333
aI9
aI10
aF0.9
aI0
aI1
aI1
aI8
aI3
aI0
aI1
aI3
aI24
aI1
aa(lp389
V0021000087
p390
aVNOV 06, 2010
p391
aVTOR @ POR
p392
aVL
p393
aI29
aI5
aI11
aF0.455
aI1
aI3
aF0.333
aI5
aI6
aF0.833
aI1
aI2
aI3
aI2
aI1
aI0
aI3
aI2
aI16
aI-15
aa(lp394
V0021000079
p395
aVNOV 05, 2010
p396
aVTOR @ LAL
p397
aVL
p398
aI23
aI4
aI7
aF0.571
aI1
aI2
aF0.5
aI2
aI2
aF1.0
aI1
aI3
aI4
aI5
aI0
aI0
aI2
aI2
aI11
aI-11
aa(lp399
V0021000061
p400
aVNOV 03, 2010
p401
aVTOR @ UTA
p402
aVL
p403
aI31
aI5
aI11
aF0.455
aI0
aI3
aF0.0
aI4
aI4
aF1.0
aI0
aI3
aI3
aI4
aI2
aI0
aI3
aI5
aI14
aI-4
aa(lp404
V0021000045
p405
aVNOV 01, 2010
p406
aVTOR @ SAC
p407
aVL
p408
aI23
aI1
aI5
aF0.2
aI0
aI1
aF0.0
aI0
aI0
aF0.0
aI0
aI3
aI3
aI5
aI0
aI0
aI3
aI0
aI2
aI7
aa(lp409
V0021000022
p410
aVOCT 29, 2010
p411
aVTOR vs. CLE
p412
aVW
p413
aI21
aI1
aI5
aF0.2
aI0
aI1
aF0.0
aI4
aI5
aF0.8
aI0
aI5
aI5
aI4
aI2
aI0
aI5
aI0
aI6
aI4
aa(lp414
V0021000007
p415
aVOCT 27, 2010
p416
aVTOR vs. NYK
p417
aVL
p418
aI31
aI7
aI15
aF0.467
aI0
aI2
aF0.0
aI2
aI4
aF0.5
aI2
aI2
aI4
aI6
aI3
aI0
aI3
aI1
aI16
aI2
aasS'name'
p419
VJarrett Jack
p420
sS'experience'
p421
I5
s.