(dp0
S'age'
p1
I27
sS'stats'
p2
(lp3
(lp4
V0021001100
p5
aVMAR 28, 2011
p6
aVUTA vs. WAS
p7
aVL
p8
aI23
aI2
aI9
aF0.222
aI1
aI5
aF0.2
aI1
aI4
aF0.25
aI1
aI3
aI4
aI3
aI3
aI0
aI3
aI5
aI6
aI-6
aa(lp9
V0021001085
p10
aVMAR 26, 2011
p11
aVUTA vs. DAL
p12
aVL
p13
aI30
aI2
aI9
aF0.222
aI1
aI2
aF0.5
aI1
aI2
aF0.5
aI1
aI4
aI5
aI6
aI3
aI0
aI5
aI6
aI6
aI-7
aa(lp14
V0021001067
p15
aVMAR 24, 2011
p16
aVUTA vs. NOH
p17
aVL
p18
aI15
aI2
aI3
aF0.667
aI2
aI2
aF1.0
aI2
aI2
aF1.0
aI1
aI0
aI1
aI1
aI1
aI0
aI2
aI0
aI8
aI-1
aa(lp19
V0021001061
p20
aVMAR 23, 2011
p21
aVUTA @ OKC
p22
aVL
p23
aI15
aI2
aI4
aF0.5
aI0
aI1
aF0.0
aI2
aI2
aF1.0
aI0
aI0
aI0
aI1
aI0
aI0
aI1
aI1
aI6
aI-5
aa(lp24
V0021001048
p25
aVMAR 21, 2011
p26
aVUTA @ MEM
p27
aVL
p28
aI20
aI1
aI6
aF0.167
aI0
aI1
aF0.0
aI2
aI2
aF1.0
aI0
aI2
aI2
aI4
aI0
aI0
aI3
aI3
aI4
aI-3
aa(lp29
V0021000874
p30
aVFEB 26, 2011
p31
aVUTA @ DET
p32
aVL
p33
aI15
aI0
aI2
aF0.0
aI0
aI2
aF0.0
aI0
aI0
aF0.0
aI1
aI0
aI1
aI0
aI1
aI0
aI1
aI1
aI0
aI-3
aa(lp34
V0021000780
p35
aVFEB 09, 2011
p36
aVUTA vs. CHI
p37
aVL
p38
aI5
aI0
aI1
aF0.0
aI0
aI1
aF0.0
aI0
aI0
aF0.0
aI0
aI0
aI0
aI0
aI0
aI0
aI0
aI0
aI0
aI1
aa(lp39
V0021000764
p40
aVFEB 07, 2011
p41
aVUTA @ SAC
p42
aVW
p43
aI3
aI0
aI1
aF0.0
aI0
aI0
aF0.0
aI0
aI0
aF0.0
aI0
aI0
aI0
aI0
aI0
aI0
aI0
aI2
aI0
aI-4
aa(lp44
V0021000752
p45
aVFEB 05, 2011
p46
aVUTA vs. OKC
p47
aVL
p48
aI9
aI1
aI2
aF0.5
aI0
aI1
aF0.0
aI0
aI0
aF0.0
aI0
aI1
aI1
aI0
aI0
aI0
aI0
aI3
aI2
aI1
aa(lp49
V0021000744
p50
aVFEB 04, 2011
p51
aVUTA @ DEN
p52
aVW
p53
aI5
aI1
aI3
aF0.333
aI0
aI2
aF0.0
aI0
aI0
aF0.0
aI2
aI0
aI2
aI1
aI1
aI0
aI1
aI1
aI2
aI4
aa(lp54
V0021000728
p55
aVFEB 02, 2011
p56
aVUTA vs. HOU
p57
aVL
p58
aI19
aI1
aI7
aF0.143
aI0
aI0
aF0.0
aI0
aI0
aF0.0
aI1
aI0
aI1
aI0
aI1
aI0
aI3
aI2
aI2
aI4
aa(lp59
V0021000713
p60
aVJAN 31, 2011
p61
aVUTA vs. CHA
p62
aVW
p63
aI28
aI1
aI9
aF0.111
aI0
aI1
aF0.0
aI0
aI0
aF0.0
aI2
aI2
aI4
aI2
aI0
aI1
aI3
aI4
aI2
aI-21
aa(lp64
V0021000707
p65
aVJAN 30, 2011
p66
aVUTA @ GSW
p67
aVL
p68
aI16
aI3
aI6
aF0.5
aI0
aI1
aF0.0
aI0
aI0
aF0.0
aI0
aI1
aI1
aI2
aI1
aI0
aI1
aI2
aI6
aI-15
aa(lp69
V0021000689
p70
aVJAN 28, 2011
p71
aVUTA vs. MIN
p72
aVW
p73
aI9
aI1
aI2
aF0.5
aI1
aI1
aF1.0
aI0
aI2
aF0.0
aI0
aI0
aI0
aI0
aI0
aI0
aI1
aI1
aI3
aI-8
aa(lp74
V0021000676
p75
aVJAN 26, 2011
p76
aVUTA vs. SAS
p77
aVL
p78
aI2
aI0
aI0
aF0.0
aI0
aI0
aF0.0
aI0
aI0
aF0.0
aI0
aI0
aI0
aI1
aI0
aI0
aI0
aI2
aI0
aI-3
aa(lp79
V0021000667
p80
aVJAN 25, 2011
p81
aVUTA @ LAL
p82
aVL
p83
aI13
aI0
aI3
aF0.0
aI0
aI1
aF0.0
aI4
aI4
aF1.0
aI2
aI1
aI3
aI3
aI0
aI0
aI1
aI1
aI4
aI-2
aa(lp84
V0021000632
p85
aVJAN 21, 2011
p86
aVUTA @ BOS
p87
aVL
p88
aI16
aI0
aI0
aF0.0
aI0
aI0
aF0.0
aI0
aI0
aF0.0
aI0
aI0
aI0
aI0
aI0
aI1
aI0
aI0
aI0
aI-2
aa(lp89
V0021000614
p90
aVJAN 19, 2011
p91
aVUTA @ NJN
p92
aVL
p93
aI11
aI1
aI3
aF0.333
aI0
aI0
aF0.0
aI0
aI0
aF0.0
aI0
aI1
aI1
aI2
aI0
aI0
aI0
aI2
aI2
aI0
aa(lp94
V0021000599
p95
aVJAN 17, 2011
p96
aVUTA @ WAS
p97
aVL
p98
aI11
aI2
aI3
aF0.667
aI2
aI3
aF0.667
aI0
aI0
aF0.0
aI0
aI0
aI0
aI0
aI0
aI0
aI0
aI3
aI6
aI-1
aa(lp99
V0021000583
p100
aVJAN 14, 2011
p101
aVUTA vs. CLE
p102
aVW
p103
aI15
aI3
aI6
aF0.5
aI1
aI2
aF0.5
aI0
aI0
aF0.0
aI1
aI0
aI1
aI1
aI4
aI0
aI1
aI0
aI7
aI16
aa(lp104
V0021000570
p105
aVJAN 12, 2011
p106
aVUTA vs. NYK
p107
aVW
p108
aI8
aI0
aI1
aF0.0
aI0
aI0
aF0.0
aI0
aI0
aF0.0
aI0
aI1
aI1
aI2
aI1
aI0
aI0
aI2
aI0
aI7
aa(lp109
V0021000543
p110
aVJAN 08, 2011
p111
aVUTA @ HOU
p112
aVW
p113
aI5
aI0
aI1
aF0.0
aI0
aI1
aF0.0
aI1
aI2
aF0.5
aI0
aI0
aI0
aI0
aI0
aI0
aI0
aI0
aI1
aI-3
aa(lp114
V0021000530
p115
aVJAN 07, 2011
p116
aVUTA @ MEM
p117
aVL
p118
aI17
aI2
aI4
aF0.5
aI1
aI2
aF0.5
aI2
aI2
aF1.0
aI2
aI0
aI2
aI2
aI1
aI1
aI1
aI2
aI7
aI-3
aa(lp119
V0021000520
p120
aVJAN 05, 2011
p121
aVUTA vs. ATL
p122
aVL
p123
aI14
aI1
aI5
aF0.2
aI0
aI1
aF0.0
aI3
aI4
aF0.75
aI1
aI3
aI4
aI0
aI0
aI0
aI1
aI2
aI5
aI-5
aa(lp124
V0021000504
p125
aVJAN 03, 2011
p126
aVUTA vs. DET
p127
aVW
p128
aI12
aI3
aI8
aF0.375
aI0
aI1
aF0.0
aI0
aI0
aF0.0
aI0
aI0
aI0
aI1
aI0
aI0
aI0
aI2
aI6
aI9
aa(lp129
V0021000491
p130
aVJAN 01, 2011
p131
aVUTA vs. MEM
p132
aVW
p133
aI17
aI3
aI7
aF0.429
aI1
aI2
aF0.5
aI0
aI0
aF0.0
aI0
aI1
aI1
aI1
aI2
aI0
aI1
aI3
aI7
aI8
aa(lp134
V0021000475
p135
aVDEC 30, 2010
p136
aVUTA @ POR
p137
aVL
p138
aI17
aI2
aI4
aF0.5
aI0
aI1
aF0.0
aI0
aI0
aF0.0
aI0
aI0
aI0
aI0
aI3
aI0
aI3
aI6
aI4
aI-6
aa(lp139
V0021000472
p140
aVDEC 29, 2010
p141
aVUTA @ LAC
p142
aVW
p143
aI12
aI2
aI7
aF0.286
aI0
aI1
aF0.0
aI0
aI0
aF0.0
aI1
aI0
aI1
aI2
aI0
aI0
aI0
aI1
aI4
aI10
aa(lp144
V0021000452
p145
aVDEC 27, 2010
p146
aVUTA vs. POR
p147
aVL
p148
aI5
aI0
aI0
aF0.0
aI0
aI0
aF0.0
aI0
aI0
aF0.0
aI0
aI0
aI0
aI0
aI0
aI0
aI0
aI0
aI0
aI-7
aa(lp149
V0021000426
p150
aVDEC 22, 2010
p151
aVUTA @ MIN
p152
aVW
p153
aI5
aI0
aI0
aF0.0
aI0
aI0
aF0.0
aI0
aI0
aF0.0
aI0
aI0
aI0
aI1
aI1
aI0
aI0
aI1
aI0
aI-6
aa(lp154
V0021000407
p155
aVDEC 20, 2010
p156
aVUTA @ CLE
p157
aVW
p158
aI5
aI0
aI1
aF0.0
aI0
aI1
aF0.0
aI0
aI0
aF0.0
aI0
aI0
aI0
aI0
aI0
aI0
aI1
aI0
aI0
aI-3
aa(lp159
V0021000396
p160
aVDEC 18, 2010
p161
aVUTA @ MIL
p162
aVW
p163
aI5
aI0
aI0
aF0.0
aI0
aI0
aF0.0
aI0
aI0
aF0.0
aI0
aI0
aI0
aI0
aI0
aI0
aI0
aI0
aI0
aI-6
aa(lp164
V0021000387
p165
aVDEC 17, 2010
p166
aVUTA @ NOH
p167
aVL
p168
aI14
aI1
aI3
aF0.333
aI0
aI1
aF0.0
aI0
aI0
aF0.0
aI1
aI0
aI1
aI1
aI0
aI0
aI1
aI2
aI2
aI-12
aa(lp169
V0021000359
p170
aVDEC 13, 2010
p171
aVUTA vs. GSW
p172
aVW
p173
aI20
aI1
aI6
aF0.167
aI0
aI3
aF0.0
aI1
aI2
aF0.5
aI0
aI0
aI0
aI0
aI1
aI0
aI1
aI2
aI3
aI2
aa(lp174
V0021000346
p175
aVDEC 11, 2010
p176
aVUTA @ DAL
p177
aVL
p178
aI28
aI5
aI8
aF0.625
aI3
aI4
aF0.75
aI1
aI1
aF1.0
aI0
aI2
aI2
aI1
aI1
aI0
aI2
aI3
aI14
aI13
aa(lp179
V0021000339
p180
aVDEC 10, 2010
p181
aVUTA vs. ORL
p182
aVW
p183
aI18
aI0
aI2
aF0.0
aI0
aI0
aF0.0
aI0
aI0
aF0.0
aI0
aI0
aI0
aI3
aI0
aI0
aI0
aI4
aI0
aI13
aa(lp184
V0021000324
p185
aVDEC 08, 2010
p186
aVUTA vs. MIA
p187
aVL
p188
aI4
aI0
aI1
aF0.0
aI0
aI1
aF0.0
aI0
aI0
aF0.0
aI0
aI0
aI0
aI0
aI0
aI0
aI0
aI2
aI0
aI-6
aa(lp189
V0021000307
p190
aVDEC 06, 2010
p191
aVUTA vs. MEM
p192
aVW
p193
aI3
aI0
aI1
aF0.0
aI0
aI1
aF0.0
aI0
aI0
aF0.0
aI1
aI0
aI1
aI0
aI0
aI0
aI0
aI0
aI0
aI-6
aa(lp194
V0021000286
p195
aVDEC 03, 2010
p196
aVUTA vs. DAL
p197
aVL
p198
aI7
aI0
aI3
aF0.0
aI0
aI1
aF0.0
aI0
aI0
aF0.0
aI0
aI1
aI1
aI0
aI0
aI0
aI0
aI0
aI0
aI7
aa(lp199
V0021000271
p200
aVDEC 01, 2010
p201
aVUTA vs. IND
p202
aVW
p203
aI11
aI1
aI3
aF0.333
aI0
aI2
aF0.0
aI0
aI0
aF0.0
aI1
aI1
aI2
aI1
aI1
aI0
aI3
aI1
aI2
aI5
aa(lp204
V0021000253
p205
aVNOV 29, 2010
p206
aVUTA vs. MIL
p207
aVW
p208
aI14
aI4
aI7
aF0.571
aI0
aI1
aF0.0
aI2
aI2
aF1.0
aI1
aI2
aI3
aI0
aI3
aI0
aI3
aI4
aI10
aI6
aa(lp209
V0021000245
p210
aVNOV 28, 2010
p211
aVUTA @ LAC
p212
aVW
p213
aI9
aI0
aI1
aF0.0
aI0
aI1
aF0.0
aI1
aI2
aF0.5
aI0
aI1
aI1
aI1
aI0
aI0
aI1
aI4
aI1
aI2
aa(lp214
V0021000231
p215
aVNOV 26, 2010
p216
aVUTA vs. LAL
p217
aVW
p218
aI10
aI3
aI5
aF0.6
aI1
aI1
aF1.0
aI0
aI0
aF0.0
aI0
aI0
aI0
aI0
aI1
aI0
aI0
aI3
aI7
aI4
aa(lp219
V0021000219
p220
aVNOV 24, 2010
p221
aVUTA vs. NOH
p222
aVW
p223
aI14
aI3
aI5
aF0.6
aI1
aI1
aF1.0
aI1
aI1
aF1.0
aI0
aI1
aI1
aI3
aI1
aI0
aI1
aI1
aI8
aI19
aa(lp224
V0021000200
p225
aVNOV 22, 2010
p226
aVUTA vs. SAC
p227
aVW
p228
aI12
aI3
aI4
aF0.75
aI1
aI1
aF1.0
aI2
aI2
aF1.0
aI0
aI0
aI0
aI0
aI0
aI0
aI0
aI2
aI9
aI10
aa(lp229
V0021000189
p230
aVNOV 20, 2010
p231
aVUTA @ POR
p232
aVW
p233
aI13
aI2
aI5
aF0.4
aI1
aI2
aF0.5
aI0
aI0
aF0.0
aI0
aI0
aI0
aI0
aI0
aI0
aI0
aI0
aI5
aI7
aa(lp234
V0021000178
p235
aVNOV 19, 2010
p236
aVUTA vs. SAS
p237
aVL
p238
aI14
aI2
aI6
aF0.333
aI0
aI2
aF0.0
aI1
aI1
aF1.0
aI0
aI0
aI0
aI0
aI2
aI0
aI1
aI2
aI5
aI2
aa(lp239
V0021000165
p240
aVNOV 17, 2010
p241
aVUTA vs. NJN
p242
aVW
p243
aI13
aI1
aI1
aF1.0
aI0
aI0
aF0.0
aI0
aI0
aF0.0
aI0
aI0
aI0
aI0
aI0
aI0
aI1
aI3
aI2
aI7
aa(lp244
V0021000148
p245
aVNOV 15, 2010
p246
aVUTA vs. OKC
p247
aVL
p248
aI14
aI2
aI3
aF0.667
aI0
aI1
aF0.0
aI0
aI0
aF0.0
aI0
aI2
aI2
aI0
aI1
aI1
aI2
aI0
aI4
aI-9
aa(lp249
V0021000130
p250
aVNOV 13, 2010
p251
aVUTA @ CHA
p252
aVW
p253
aI5
aI1
aI2
aF0.5
aI1
aI2
aF0.5
aI0
aI0
aF0.0
aI0
aI0
aI0
aI1
aI0
aI0
aI0
aI1
aI3
aI1
aa(lp254
V0021000121
p255
aVNOV 12, 2010
p256
aVUTA @ ATL
p257
aVW
p258
aI6
aI0
aI3
aF0.0
aI0
aI0
aF0.0
aI0
aI0
aF0.0
aI1
aI0
aI1
aI1
aI0
aI0
aI0
aI0
aI0
aI-2
aa(lp259
V0021000109
p260
aVNOV 10, 2010
p261
aVUTA @ ORL
p262
aVW
p263
aI6
aI0
aI2
aF0.0
aI0
aI1
aF0.0
aI0
aI0
aF0.0
aI0
aI2
aI2
aI0
aI0
aI0
aI1
aI1
aI0
aI-2
aa(lp264
V0021000103
p265
aVNOV 09, 2010
p266
aVUTA @ MIA
p267
aVW
p268
aI20
aI2
aI5
aF0.4
aI1
aI2
aF0.5
aI0
aI0
aF0.0
aI1
aI2
aI3
aI0
aI1
aI0
aI3
aI4
aI5
aI6
aa(lp269
V0021000086
p270
aVNOV 06, 2010
p271
aVUTA vs. LAC
p272
aVW
p273
aI4
aI1
aI3
aF0.333
aI0
aI0
aF0.0
aI0
aI0
aF0.0
aI0
aI0
aI0
aI0
aI0
aI0
aI1
aI0
aI2
aI-3
aa(lp274
V0021000078
p275
aVNOV 05, 2010
p276
aVUTA @ GSW
p277
aVL
p278
aI20
aI1
aI5
aF0.2
aI0
aI2
aF0.0
aI0
aI0
aF0.0
aI0
aI2
aI2
aI3
aI3
aI0
aI0
aI1
aI2
aI-2
aa(lp279
V0021000061
p280
aVNOV 03, 2010
p281
aVUTA vs. TOR
p282
aVW
p283
aI16
aI4
aI6
aF0.667
aI1
aI2
aF0.5
aI2
aI2
aF1.0
aI0
aI1
aI1
aI3
aI2
aI1
aI0
aI3
aI11
aI13
aa(lp284
V0021000042
p285
aVOCT 31, 2010
p286
aVUTA @ OKC
p287
aVW
p288
aI2
aI0
aI0
aF0.0
aI0
aI0
aF0.0
aI0
aI0
aF0.0
aI0
aI0
aI0
aI0
aI0
aI0
aI0
aI1
aI0
aI-1
aa(lp289
V0021000018
p290
aVOCT 28, 2010
p291
aVUTA vs. PHX
p292
aVL
p293
aI3
aI1
aI1
aF1.0
aI0
aI0
aF0.0
aI0
aI0
aF0.0
aI0
aI0
aI0
aI0
aI1
aI0
aI0
aI2
aI2
aI4
aa(lp294
V0021000014
p295
aVOCT 27, 2010
p296
aVUTA @ DEN
p297
aVL
p298
aI14
aI0
aI2
aF0.0
aI0
aI1
aF0.0
aI0
aI0
aF0.0
aI0
aI2
aI2
aI2
aI1
aI0
aI1
aI2
aI0
aI-8
aasS'name'
p299
VRonnie Price
p300
sS'experience'
p301
I5
s.