(dp0
S'age'
p1
I27
sS'stats'
p2
(lp3
(lp4
V0021000429
p5
aVDEC 22, 2010
p6
aVLAC vs. HOU
p7
aVL
p8
aI17
aI4
aI7
aF0.571
aI0
aI0
aF0.0
aI0
aI2
aF0.0
aI2
aI1
aI3
aI0
aI0
aI0
aI1
aI0
aI8
aI-5
aa(lp9
V0021000438
p10
aVDEC 26, 2010
p11
aVLAC vs. PHX
p12
aVW
p13
aI15
aI3
aI8
aF0.375
aI0
aI0
aF0.0
aI0
aI0
aF0.0
aI0
aI3
aI3
aI0
aI1
aI0
aI1
aI0
aI6
aI-3
aa(lp14
V0021000453
p15
aVDEC 27, 2010
p16
aVLAC @ SAC
p17
aVW
p18
aI22
aI4
aI9
aF0.444
aI0
aI0
aF0.0
aI0
aI0
aF0.0
aI3
aI3
aI6
aI0
aI0
aI1
aI1
aI0
aI8
aI-4
aa(lp19
V0021000472
p20
aVDEC 29, 2010
p21
aVLAC vs. UTA
p22
aVL
p23
aI13
aI1
aI3
aF0.333
aI0
aI0
aF0.0
aI0
aI0
aF0.0
aI0
aI2
aI2
aI0
aI0
aI0
aI1
aI2
aI2
aI-12
aa(lp24
V0021000493
p25
aVJAN 02, 2011
p26
aVLAC vs. ATL
p27
aVL
p28
aI13
aI2
aI4
aF0.5
aI0
aI0
aF0.0
aI2
aI2
aF1.0
aI1
aI0
aI1
aI0
aI0
aI0
aI0
aI5
aI6
aI1
aa(lp29
V0021000522
p30
aVJAN 05, 2011
p31
aVLAC vs. DEN
p32
aVW
p33
aI11
aI1
aI2
aF0.5
aI0
aI0
aF0.0
aI0
aI0
aF0.0
aI0
aI0
aI0
aI0
aI0
aI0
aI1
aI3
aI2
aI-5
aa(lp34
V0021000545
p35
aVJAN 09, 2011
p36
aVLAC vs. GSW
p37
aVW
p38
aI14
aI2
aI5
aF0.4
aI0
aI0
aF0.0
aI1
aI3
aF0.333
aI1
aI7
aI8
aI0
aI0
aI0
aI1
aI1
aI5
aI-5
aa(lp39
V0021000572
p40
aVJAN 12, 2011
p41
aVLAC vs. MIA
p42
aVW
p43
aI18
aI3
aI6
aF0.5
aI0
aI0
aF0.0
aI1
aI2
aF0.5
aI2
aI2
aI4
aI0
aI0
aI0
aI0
aI2
aI7
aI2
aa(lp44
V0021000585
p45
aVJAN 14, 2011
p46
aVLAC @ GSW
p47
aVL
p48
aI13
aI6
aI8
aF0.75
aI0
aI0
aF0.0
aI1
aI1
aF1.0
aI0
aI2
aI2
aI0
aI0
aI0
aI1
aI4
aI13
aI12
aa(lp49
V0021000596
p50
aVJAN 16, 2011
p51
aVLAC vs. LAL
p52
aVW
p53
aI20
aI1
aI6
aF0.167
aI0
aI0
aF0.0
aI5
aI6
aF0.833
aI6
aI5
aI11
aI0
aI0
aI0
aI1
aI3
aI7
aI3
aa(lp54
V0021000605
p55
aVJAN 17, 2011
p56
aVLAC vs. IND
p57
aVW
p58
aI19
aI4
aI6
aF0.667
aI0
aI0
aF0.0
aI1
aI3
aF0.333
aI2
aI4
aI6
aI0
aI0
aI0
aI1
aI4
aI9
aI-15
aa(lp59
V0021000625
p60
aVJAN 19, 2011
p61
aVLAC vs. MIN
p62
aVW
p63
aI18
aI5
aI7
aF0.714
aI0
aI0
aF0.0
aI0
aI0
aF0.0
aI4
aI2
aI6
aI1
aI0
aI0
aI1
aI5
aI10
aI2
aa(lp64
V0021000628
p65
aVJAN 20, 2011
p66
aVLAC @ POR
p67
aVL
p68
aI15
aI1
aI2
aF0.5
aI0
aI0
aF0.0
aI0
aI0
aF0.0
aI1
aI1
aI2
aI0
aI0
aI0
aI1
aI1
aI2
aI-11
aa(lp69
V0021000651
p70
aVJAN 22, 2011
p71
aVLAC vs. GSW
p72
aVW
p73
aI13
aI3
aI5
aF0.6
aI0
aI0
aF0.0
aI0
aI1
aF0.0
aI3
aI2
aI5
aI0
aI0
aI0
aI2
aI0
aI6
aI8
aa(lp74
V0021000665
p75
aVJAN 25, 2011
p76
aVLAC @ DAL
p77
aVL
p78
aI13
aI3
aI4
aF0.75
aI0
aI0
aF0.0
aI2
aI2
aF1.0
aI0
aI3
aI3
aI0
aI0
aI0
aI0
aI2
aI8
aI13
aa(lp79
V0021000674
p80
aVJAN 26, 2011
p81
aVLAC @ HOU
p82
aVL
p83
aI13
aI3
aI5
aF0.6
aI0
aI0
aF0.0
aI0
aI1
aF0.0
aI1
aI1
aI2
aI0
aI1
aI0
aI2
aI2
aI6
aI0
aa(lp84
V0021000700
p85
aVJAN 29, 2011
p86
aVLAC vs. CHA
p87
aVW
p88
aI19
aI2
aI4
aF0.5
aI0
aI0
aF0.0
aI6
aI6
aF1.0
aI2
aI4
aI6
aI0
aI0
aI0
aI0
aI4
aI10
aI6
aa(lp89
V0021000714
p90
aVJAN 31, 2011
p91
aVLAC vs. MIL
p92
aVW
p93
aI13
aI2
aI2
aF1.0
aI0
aI0
aF0.0
aI2
aI2
aF1.0
aI0
aI1
aI1
aI0
aI0
aI0
aI0
aI3
aI6
aI-11
aa(lp94
V0021000729
p95
aVFEB 02, 2011
p96
aVLAC vs. CHI
p97
aVL
p98
aI21
aI3
aI4
aF0.75
aI0
aI0
aF0.0
aI2
aI2
aF1.0
aI2
aI1
aI3
aI0
aI0
aI2
aI2
aI3
aI8
aI-9
aa(lp99
V0021000738
p100
aVFEB 04, 2011
p101
aVLAC @ ATL
p102
aVL
p103
aI22
aI5
aI6
aF0.833
aI0
aI0
aF0.0
aI4
aI6
aF0.667
aI2
aI8
aI10
aI0
aI0
aI0
aI0
aI1
aI14
aI3
aa(lp104
V0021000754
p105
aVFEB 06, 2011
p106
aVLAC @ MIA
p107
aVL
p108
aI24
aI2
aI4
aF0.5
aI0
aI0
aF0.0
aI0
aI1
aF0.0
aI1
aI3
aI4
aI0
aI0
aI0
aI1
aI4
aI4
aI-3
aa(lp109
V0021000767
p110
aVFEB 08, 2011
p111
aVLAC @ ORL
p112
aVL
p113
aI22
aI7
aI10
aF0.7
aI0
aI0
aF0.0
aI4
aI5
aF0.8
aI4
aI1
aI5
aI0
aI0
aI0
aI0
aI5
aI18
aI-3
aa(lp114
V0021000779
p115
aVFEB 09, 2011
p116
aVLAC @ NYK
p117
aVW
p118
aI12
aI0
aI3
aF0.0
aI0
aI0
aF0.0
aI4
aI4
aF1.0
aI1
aI2
aI3
aI0
aI0
aI0
aI1
aI1
aI4
aI-4
aa(lp119
V0021000791
p120
aVFEB 11, 2011
p121
aVLAC @ CLE
p122
aVL
p123
aI13
aI2
aI2
aF1.0
aI0
aI0
aF0.0
aI2
aI3
aF0.667
aI0
aI2
aI2
aI0
aI0
aI0
aI1
aI1
aI6
aI-4
aa(lp124
V0021000808
p125
aVFEB 13, 2011
p126
aVLAC @ TOR
p127
aVL
p128
aI3
aI0
aI0
aF0.0
aI0
aI0
aF0.0
aI0
aI0
aF0.0
aI0
aI0
aI0
aI0
aI0
aI0
aI0
aI1
aI0
aI3
aa(lp129
V0021000815
p130
aVFEB 14, 2011
p131
aVLAC @ MIL
p132
aVL
p133
aI5
aI0
aI1
aF0.0
aI0
aI0
aF0.0
aI0
aI0
aF0.0
aI0
aI2
aI2
aI0
aI0
aI0
aI0
aI1
aI0
aI0
aa(lp134
V0021000830
p135
aVFEB 16, 2011
p136
aVLAC @ MIN
p137
aVW
p138
aI8
aI2
aI6
aF0.333
aI0
aI0
aF0.0
aI0
aI0
aF0.0
aI1
aI0
aI1
aI0
aI0
aI0
aI0
aI2
aI4
aI-3
aa(lp139
V0021000843
p140
aVFEB 22, 2011
p141
aVLAC @ OKC
p142
aVL
p143
aI14
aI1
aI2
aF0.5
aI0
aI0
aF0.0
aI1
aI1
aF1.0
aI0
aI2
aI2
aI0
aI0
aI0
aI1
aI3
aI3
aI-24
aa(lp144
V0021000871
p145
aVFEB 25, 2011
p146
aVLAC @ LAL
p147
aVL
p148
aI3
aI0
aI0
aF0.0
aI0
aI0
aF0.0
aI0
aI0
aF0.0
aI0
aI0
aI0
aI0
aI0
aI0
aI0
aI0
aI0
aI4
aa(lp149
V0021000978
p150
aVMAR 12, 2011
p151
aVLAC @ WAS
p152
aVW
p153
aI3
aI0
aI1
aF0.0
aI0
aI0
aF0.0
aI0
aI0
aF0.0
aI1
aI1
aI2
aI1
aI0
aI0
aI0
aI2
aI0
aI1
aa(lp154
V0021000994
p155
aVMAR 14, 2011
p156
aVLAC @ MEM
p157
aVL
p158
aI6
aI3
aI3
aF1.0
aI0
aI0
aF0.0
aI0
aI0
aF0.0
aI1
aI2
aI3
aI0
aI0
aI0
aI0
aI0
aI6
aI2
aa(lp159
V0021001039
p160
aVMAR 20, 2011
p161
aVLAC vs. PHX
p162
aVL
p163
aI12
aI3
aI6
aF0.5
aI0
aI0
aF0.0
aI1
aI2
aF0.5
aI0
aI3
aI3
aI0
aI0
aI0
aI1
aI3
aI7
aI-10
aa(lp164
V0021001065
p165
aVMAR 23, 2011
p166
aVLAC vs. WAS
p167
aVW
p168
aI1
aI0
aI0
aF0.0
aI0
aI0
aF0.0
aI0
aI0
aF0.0
aI0
aI0
aI0
aI0
aI0
aI0
aI0
aI1
aI0
aI0
aa(lp169
V0021001129
p170
aVAPR 01, 2011
p171
aVLAC @ PHX
p172
aVL
p173
aI5
aI0
aI0
aF0.0
aI0
aI0
aF0.0
aI0
aI2
aF0.0
aI0
aI0
aI0
aI0
aI0
aI0
aI0
aI1
aI0
aI0
aa(lp174
V0021001189
p175
aVAPR 09, 2011
p176
aVLAC @ HOU
p177
aVL
p178
aI5
aI2
aI4
aF0.5
aI0
aI0
aF0.0
aI0
aI2
aF0.0
aI0
aI4
aI4
aI0
aI0
aI0
aI0
aI0
aI4
aI5
aa(lp179
V0021001228
p180
aVAPR 13, 2011
p181
aVLAC vs. MEM
p182
aVW
p183
aI12
aI3
aI3
aF1.0
aI0
aI0
aF0.0
aI2
aI3
aF0.667
aI0
aI0
aI0
aI0
aI1
aI0
aI0
aI2
aI8
aI0
aasS'name'
p184
VIke Diogu
p185
sS'experience'
p186
I5
s.