(dp0
S'age'
p1
I28
sS'stats'
p2
(lp3
(lp4
V0021000417
p5
aVDEC 21, 2010
p6
aVCHI vs. PHI
p7
aVW
p8
aI6
aI0
aI1
aF0.0
aI0
aI0
aF0.0
aI0
aI0
aF0.0
aI0
aI0
aI0
aI1
aI0
aI0
aI0
aI0
aI0
aI-4
aa(lp9
V0021000229
p10
aVNOV 26, 2010
p11
aVCHI @ DEN
p12
aVL
p13
aI4
aI1
aI2
aF0.5
aI0
aI1
aF0.0
aI0
aI2
aF0.0
aI0
aI0
aI0
aI0
aI0
aI0
aI0
aI0
aI2
aI1
aasS'name'
p14
VJohn Lucas III
p15
sS'experience'
p16
I5
s.