(dp0
S'age'
p1
I34
sS'stats'
p2
(lp3
(lp4
V0021000013
p5
aVOCT 27, 2010
p6
aVSAS vs. IND
p7
aVW
p8
aI33
aI10
aI12
aF0.833
aI0
aI0
aF0.0
aI3
aI5
aF0.6
aI1
aI11
aI12
aI3
aI3
aI4
aI1
aI2
aI23
aI13
aa(lp9
V0021000039
p10
aVOCT 30, 2010
p11
aVSAS vs. NOH
p12
aVL
p13
aI27
aI2
aI10
aF0.2
aI0
aI0
aF0.0
aI3
aI4
aF0.75
aI2
aI5
aI7
aI1
aI1
aI0
aI2
aI4
aI7
aI-3
aa(lp14
V0021000046
p15
aVNOV 01, 2010
p16
aVSAS @ LAC
p17
aVW
p18
aI30
aI7
aI12
aF0.583
aI0
aI0
aF0.0
aI0
aI0
aF0.0
aI0
aI7
aI7
aI2
aI1
aI0
aI4
aI1
aI14
aI1
aa(lp19
V0021000062
p20
aVNOV 03, 2010
p21
aVSAS @ PHX
p22
aVW
p23
aI33
aI11
aI13
aF0.846
aI0
aI0
aF0.0
aI3
aI3
aF1.0
aI4
aI13
aI17
aI2
aI1
aI3
aI6
aI3
aI25
aI10
aa(lp24
V0021000084
p25
aVNOV 06, 2010
p26
aVSAS vs. HOU
p27
aVW
p28
aI38
aI8
aI15
aF0.533
aI0
aI0
aF0.0
aI3
aI7
aF0.429
aI2
aI9
aI11
aI3
aI1
aI3
aI0
aI1
aI19
aI11
aa(lp29
V0021000095
p30
aVNOV 08, 2010
p31
aVSAS @ CHA
p32
aVW
p33
aI34
aI5
aI12
aF0.417
aI0
aI0
aF0.0
aI4
aI6
aF0.667
aI4
aI6
aI10
aI3
aI1
aI2
aI4
aI3
aI14
aI0
aa(lp34
V0021000116
p35
aVNOV 10, 2010
p36
aVSAS vs. LAC
p37
aVW
p38
aI22
aI3
aI7
aF0.429
aI0
aI0
aF0.0
aI0
aI0
aF0.0
aI1
aI5
aI6
aI0
aI0
aI3
aI2
aI0
aI6
aI15
aa(lp39
V0021000138
p40
aVNOV 13, 2010
p41
aVSAS vs. PHI
p42
aVW
p43
aI24
aI2
aI9
aF0.222
aI0
aI0
aF0.0
aI3
aI3
aF1.0
aI1
aI5
aI6
aI5
aI0
aI0
aI2
aI3
aI7
aI28
aa(lp44
V0021000141
p45
aVNOV 14, 2010
p46
aVSAS @ OKC
p47
aVW
p48
aI23
aI2
aI7
aF0.286
aI0
aI0
aF0.0
aI2
aI4
aF0.5
aI1
aI3
aI4
aI1
aI0
aI3
aI0
aI0
aI6
aI5
aa(lp49
V0021000166
p50
aVNOV 17, 2010
p51
aVSAS vs. CHI
p52
aVW
p53
aI34
aI8
aI19
aF0.421
aI0
aI0
aF0.0
aI0
aI0
aF0.0
aI3
aI15
aI18
aI5
aI1
aI2
aI1
aI0
aI16
aI15
aa(lp54
V0021000178
p55
aVNOV 19, 2010
p56
aVSAS @ UTA
p57
aVW
p58
aI33
aI7
aI16
aF0.438
aI0
aI0
aF0.0
aI5
aI8
aF0.625
aI6
aI8
aI14
aI4
aI0
aI3
aI3
aI1
aI19
aI18
aa(lp59
V0021000187
p60
aVNOV 20, 2010
p61
aVSAS vs. CLE
p62
aVW
p63
aI17
aI3
aI9
aF0.333
aI0
aI0
aF0.0
aI2
aI2
aF1.0
aI1
aI2
aI3
aI5
aI0
aI1
aI1
aI3
aI8
aI11
aa(lp64
V0021000199
p65
aVNOV 22, 2010
p66
aVSAS vs. ORL
p67
aVW
p68
aI28
aI6
aI10
aF0.6
aI0
aI0
aF0.0
aI3
aI4
aF0.75
aI1
aI3
aI4
aI2
aI3
aI2
aI1
aI3
aI15
aI8
aa(lp69
V0021000215
p70
aVNOV 24, 2010
p71
aVSAS @ MIN
p72
aVW
p73
aI30
aI3
aI9
aF0.333
aI0
aI0
aF0.0
aI3
aI4
aF0.75
aI7
aI6
aI13
aI3
aI0
aI0
aI2
aI5
aI9
aI1
aa(lp74
V0021000228
p75
aVNOV 26, 2010
p76
aVSAS vs. DAL
p77
aVL
p78
aI35
aI7
aI12
aF0.583
aI0
aI0
aF0.0
aI1
aI3
aF0.333
aI2
aI6
aI8
aI4
aI1
aI1
aI2
aI1
aI15
aI-4
aa(lp79
V0021000244
p80
aVNOV 28, 2010
p81
aVSAS @ NOH
p82
aVW
p83
aI28
aI7
aI14
aF0.5
aI0
aI0
aF0.0
aI7
aI8
aF0.875
aI5
aI2
aI7
aI1
aI0
aI2
aI3
aI2
aI21
aI7
aa(lp84
V0021000260
p85
aVNOV 30, 2010
p86
aVSAS @ GSW
p87
aVW
p88
aI33
aI6
aI15
aF0.4
aI0
aI0
aF0.0
aI3
aI5
aF0.6
aI6
aI12
aI18
aI11
aI0
aI2
aI2
aI1
aI15
aI14
aa(lp89
V0021000272
p90
aVDEC 01, 2010
p91
aVSAS @ LAC
p92
aVL
p93
aI31
aI2
aI8
aF0.25
aI0
aI0
aF0.0
aI4
aI4
aF1.0
aI5
aI0
aI5
aI3
aI1
aI1
aI3
aI1
aI8
aI-13
aa(lp94
V0021000283
p95
aVDEC 03, 2010
p96
aVSAS vs. MIN
p97
aVW
p98
aI35
aI9
aI14
aF0.643
aI0
aI0
aF0.0
aI4
aI5
aF0.8
aI2
aI8
aI10
aI5
aI3
aI4
aI1
aI2
aI22
aI19
aa(lp99
V0021000298
p100
aVDEC 05, 2010
p101
aVSAS vs. NOH
p102
aVW
p103
aI19
aI4
aI7
aF0.571
aI0
aI0
aF0.0
aI3
aI4
aF0.75
aI2
aI7
aI9
aI3
aI0
aI2
aI1
aI2
aI11
aI21
aa(lp104
V0021000322
p105
aVDEC 08, 2010
p106
aVSAS vs. GSW
p107
aVW
p108
aI18
aI4
aI7
aF0.571
aI0
aI0
aF0.0
aI0
aI0
aF0.0
aI1
aI4
aI5
aI2
aI1
aI0
aI1
aI1
aI8
aI9
aa(lp109
V0021000337
p110
aVDEC 10, 2010
p111
aVSAS vs. ATL
p112
aVW
p113
aI28
aI5
aI11
aF0.455
aI0
aI0
aF0.0
aI2
aI2
aF1.0
aI0
aI4
aI4
aI3
aI0
aI1
aI1
aI2
aI12
aI4
aa(lp114
V0021000353
p115
aVDEC 12, 2010
p116
aVSAS vs. POR
p117
aVW
p118
aI28
aI4
aI10
aF0.4
aI0
aI0
aF0.0
aI0
aI0
aF0.0
aI5
aI8
aI13
aI4
aI0
aI2
aI1
aI0
aI8
aI18
aa(lp119
V0021000375
p120
aVDEC 15, 2010
p121
aVSAS vs. MIL
p122
aVW
p123
aI31
aI6
aI10
aF0.6
aI0
aI0
aF0.0
aI1
aI2
aF0.5
aI1
aI10
aI11
aI1
aI0
aI7
aI3
aI3
aI13
aI2
aa(lp124
V0021000380
p125
aVDEC 16, 2010
p126
aVSAS @ DEN
p127
aVW
p128
aI33
aI12
aI18
aF0.667
aI0
aI0
aF0.0
aI4
aI6
aF0.667
aI5
aI11
aI16
aI4
aI1
aI4
aI0
aI4
aI28
aI-3
aa(lp129
V0021000397
p130
aVDEC 18, 2010
p131
aVSAS vs. MEM
p132
aVW
p133
aI37
aI6
aI13
aF0.462
aI0
aI0
aF0.0
aI1
aI1
aF1.0
aI3
aI7
aI10
aI5
aI1
aI3
aI2
aI1
aI13
aI3
aa(lp134
V0021000411
p135
aVDEC 20, 2010
p136
aVSAS vs. PHX
p137
aVW
p138
aI31
aI10
aI17
aF0.588
aI0
aI0
aF0.0
aI0
aI0
aF0.0
aI5
aI10
aI15
aI6
aI2
aI3
aI3
aI2
aI20
aI10
aa(lp139
V0021000428
p140
aVDEC 22, 2010
p141
aVSAS vs. DEN
p142
aVW
p143
aI27
aI3
aI7
aF0.429
aI0
aI0
aF0.0
aI3
aI4
aF0.75
aI4
aI5
aI9
aI2
aI1
aI0
aI2
aI1
aI9
aI-4
aa(lp144
V0021000430
p145
aVDEC 23, 2010
p146
aVSAS @ ORL
p147
aVL
p148
aI20
aI6
aI12
aF0.5
aI0
aI0
aF0.0
aI0
aI1
aF0.0
aI3
aI3
aI6
aI1
aI0
aI0
aI1
aI1
aI12
aI-1
aa(lp149
V0021000443
p150
aVDEC 26, 2010
p151
aVSAS vs. WAS
p152
aVW
p153
aI25
aI2
aI9
aF0.222
aI0
aI0
aF0.0
aI1
aI2
aF0.5
aI0
aI9
aI9
aI4
aI0
aI3
aI2
aI0
aI5
aI5
aa(lp154
V0021000460
p155
aVDEC 28, 2010
p156
aVSAS vs. LAL
p157
aVW
p158
aI29
aI1
aI7
aF0.143
aI0
aI1
aF0.0
aI0
aI0
aF0.0
aI1
aI3
aI4
aI2
aI0
aI0
aI1
aI1
aI2
aI18
aa(lp159
V0021000474
p160
aVDEC 30, 2010
p161
aVSAS @ DAL
p162
aVW
p163
aI32
aI5
aI9
aF0.556
aI0
aI0
aF0.0
aI7
aI7
aF1.0
aI2
aI9
aI11
aI2
aI0
aI0
aI2
aI1
aI17
aI-12
aa(lp164
V0021000488
p165
aVJAN 01, 2011
p166
aVSAS vs. OKC
p167
aVW
p168
aI27
aI10
aI15
aF0.667
aI0
aI0
aF0.0
aI1
aI3
aF0.333
aI3
aI6
aI9
aI1
aI0
aI1
aI2
aI1
aI21
aI16
aa(lp169
V0021000506
p170
aVJAN 04, 2011
p171
aVSAS @ NYK
p172
aVL
p173
aI29
aI5
aI14
aF0.357
aI0
aI0
aF0.0
aI4
aI4
aF1.0
aI2
aI4
aI6
aI1
aI1
aI1
aI3
aI3
aI14
aI-9
aa(lp174
V0021000516
p175
aVJAN 05, 2011
p176
aVSAS @ BOS
p177
aVL
p178
aI32
aI8
aI15
aF0.533
aI0
aI0
aF0.0
aI2
aI2
aF1.0
aI3
aI2
aI5
aI1
aI0
aI2
aI1
aI1
aI18
aI-6
aa(lp179
V0021000525
p180
aVJAN 07, 2011
p181
aVSAS @ IND
p182
aVW
p183
aI33
aI7
aI14
aF0.5
aI0
aI0
aF0.0
aI1
aI2
aF0.5
aI5
aI10
aI15
aI1
aI0
aI5
aI2
aI1
aI15
aI0
aa(lp184
V0021000546
p185
aVJAN 09, 2011
p186
aVSAS vs. MIN
p187
aVW
p188
aI33
aI4
aI10
aF0.4
aI0
aI0
aF0.0
aI0
aI0
aF0.0
aI4
aI4
aI8
aI5
aI2
aI2
aI2
aI4
aI8
aI-9
aa(lp189
V0021000557
p190
aVJAN 11, 2011
p191
aVSAS @ MIN
p192
aVW
p193
aI30
aI7
aI15
aF0.467
aI0
aI0
aF0.0
aI2
aI4
aF0.5
aI1
aI7
aI8
aI2
aI2
aI3
aI0
aI2
aI16
aI16
aa(lp194
V0021000566
p195
aVJAN 12, 2011
p196
aVSAS @ MIL
p197
aVW
p198
aI33
aI7
aI14
aF0.5
aI0
aI0
aF0.0
aI2
aI2
aF1.0
aI2
aI6
aI8
aI1
aI0
aI3
aI0
aI2
aI16
aI-5
aa(lp199
V0021000581
p200
aVJAN 14, 2011
p201
aVSAS vs. DAL
p202
aVW
p203
aI24
aI6
aI12
aF0.5
aI0
aI0
aF0.0
aI4
aI4
aF1.0
aI3
aI9
aI12
aI3
aI1
aI2
aI0
aI0
aI16
aI13
aa(lp204
V0021000597
p205
aVJAN 16, 2011
p206
aVSAS vs. DEN
p207
aVW
p208
aI34
aI3
aI7
aF0.429
aI0
aI0
aF0.0
aI3
aI4
aF0.75
aI0
aI16
aI16
aI4
aI0
aI3
aI3
aI0
aI9
aI21
aa(lp209
V0021000620
p210
aVJAN 19, 2011
p211
aVSAS vs. TOR
p212
aVW
p213
aI32
aI3
aI7
aF0.429
aI0
aI0
aF0.0
aI4
aI5
aF0.8
aI1
aI11
aI12
aI4
aI0
aI3
aI3
aI1
aI10
aI-1
aa(lp214
V0021000636
p215
aVJAN 21, 2011
p216
aVSAS vs. NYK
p217
aVW
p218
aI35
aI8
aI15
aF0.533
aI0
aI0
aF0.0
aI5
aI6
aF0.833
aI5
aI11
aI16
aI8
aI0
aI5
aI2
aI2
aI21
aI18
aa(lp219
V0021000646
p220
aVJAN 22, 2011
p221
aVSAS @ NOH
p222
aVL
p223
aI23
aI2
aI11
aF0.182
aI0
aI0
aF0.0
aI2
aI2
aF1.0
aI0
aI5
aI5
aI3
aI1
aI0
aI0
aI1
aI6
aI-15
aa(lp224
V0021000662
p225
aVJAN 24, 2011
p226
aVSAS @ GSW
p227
aVW
p228
aI27
aI6
aI12
aF0.5
aI0
aI0
aF0.0
aI4
aI4
aF1.0
aI1
aI6
aI7
aI3
aI2
aI1
aI1
aI0
aI16
aI16
aa(lp229
V0021000676
p230
aVJAN 26, 2011
p231
aVSAS @ UTA
p232
aVW
p233
aI31
aI6
aI13
aF0.462
aI0
aI0
aF0.0
aI1
aI3
aF0.333
aI2
aI5
aI7
aI4
aI1
aI1
aI3
aI4
aI13
aI1
aa(lp234
V0021000698
p235
aVJAN 29, 2011
p236
aVSAS vs. HOU
p237
aVW
p238
aI27
aI5
aI11
aF0.455
aI0
aI0
aF0.0
aI2
aI4
aF0.5
aI0
aI7
aI7
aI1
aI0
aI0
aI4
aI1
aI12
aI2
aa(lp239
V0021000716
p240
aVFEB 01, 2011
p241
aVSAS @ POR
p242
aVL
p243
aI30
aI6
aI9
aF0.667
aI0
aI0
aF0.0
aI3
aI6
aF0.5
aI4
aI3
aI7
aI2
aI0
aI1
aI0
aI2
aI15
aI-8
aa(lp244
V0021000732
p245
aVFEB 03, 2011
p246
aVSAS @ LAL
p247
aVW
p248
aI33
aI3
aI12
aF0.25
aI0
aI0
aF0.0
aI2
aI4
aF0.5
aI2
aI6
aI8
aI3
aI0
aI2
aI1
aI1
aI8
aI2
aa(lp249
V0021000743
p250
aVFEB 04, 2011
p251
aVSAS @ SAC
p252
aVW
p253
aI13
aI6
aI9
aF0.667
aI0
aI0
aF0.0
aI0
aI0
aF0.0
aI1
aI4
aI5
aI2
aI1
aI0
aI0
aI0
aI12
aI15
aa(lp254
V0021000768
p255
aVFEB 08, 2011
p256
aVSAS @ DET
p257
aVW
p258
aI28
aI3
aI10
aF0.3
aI0
aI0
aF0.0
aI4
aI8
aF0.5
aI2
aI8
aI10
aI0
aI0
aI3
aI1
aI2
aI10
aI8
aa(lp259
V0021000777
p260
aVFEB 09, 2011
p261
aVSAS @ TOR
p262
aVW
p263
aI26
aI7
aI11
aF0.636
aI0
aI0
aF0.0
aI2
aI2
aF1.0
aI1
aI6
aI7
aI6
aI1
aI5
aI0
aI0
aI16
aI6
aa(lp264
V0021000789
p265
aVFEB 11, 2011
p266
aVSAS @ PHI
p267
aVL
p268
aI32
aI7
aI18
aF0.389
aI0
aI1
aF0.0
aI2
aI2
aF1.0
aI6
aI7
aI13
aI1
aI1
aI2
aI0
aI1
aI16
aI-10
aa(lp269
V0021000798
p270
aVFEB 12, 2011
p271
aVSAS @ WAS
p272
aVW
p273
aI12
aI3
aI4
aF0.75
aI0
aI0
aF0.0
aI0
aI0
aF0.0
aI0
aI3
aI3
aI1
aI1
aI1
aI2
aI1
aI6
aI21
aa(lp274
V0021000813
p275
aVFEB 14, 2011
p276
aVSAS @ NJN
p277
aVW
p278
aI26
aI7
aI12
aF0.583
aI0
aI0
aF0.0
aI1
aI3
aF0.333
aI3
aI8
aI11
aI2
aI0
aI3
aI3
aI3
aI15
aI18
aa(lp279
V0021000836
p280
aVFEB 17, 2011
p281
aVSAS @ CHI
p282
aVL
p283
aI33
aI7
aI12
aF0.583
aI0
aI0
aF0.0
aI0
aI0
aF0.0
aI1
aI8
aI9
aI3
aI0
aI1
aI1
aI0
aI14
aI-1
aa(lp284
V0021000855
p285
aVFEB 23, 2011
p286
aVSAS vs. OKC
p287
aVW
p288
aI33
aI7
aI15
aF0.467
aI0
aI0
aF0.0
aI3
aI6
aF0.5
aI1
aI9
aI10
aI0
aI0
aI3
aI1
aI3
aI17
aI4
aa(lp289
V0021000869
p290
aVFEB 25, 2011
p291
aVSAS vs. NJN
p292
aVW
p293
aI32
aI8
aI11
aF0.727
aI0
aI0
aF0.0
aI1
aI2
aF0.5
aI2
aI4
aI6
aI1
aI1
aI2
aI2
aI1
aI17
aI29
aa(lp294
V0021000886
p295
aVFEB 27, 2011
p296
aVSAS vs. MEM
p297
aVW
p298
aI32
aI3
aI8
aF0.375
aI0
aI0
aF0.0
aI6
aI6
aF1.0
aI0
aI8
aI8
aI3
aI1
aI5
aI2
aI4
aI12
aI-2
aa(lp299
V0021000898
p300
aVMAR 01, 2011
p301
aVSAS @ MEM
p302
aVL
p303
aI26
aI4
aI10
aF0.4
aI0
aI1
aF0.0
aI1
aI2
aF0.5
aI4
aI4
aI8
aI1
aI0
aI2
aI2
aI1
aI9
aI-12
aa(lp304
V0021000903
p305
aVMAR 02, 2011
p306
aVSAS @ CLE
p307
aVW
p308
aI23
aI7
aI12
aF0.583
aI0
aI0
aF0.0
aI2
aI3
aF0.667
aI0
aI4
aI4
aI6
aI0
aI3
aI3
aI2
aI16
aI18
aa(lp309
V0021000923
p310
aVMAR 04, 2011
p311
aVSAS vs. MIA
p312
aVW
p313
aI27
aI5
aI9
aF0.556
aI0
aI0
aF0.0
aI1
aI2
aF0.5
aI2
aI12
aI14
aI0
aI0
aI0
aI2
aI3
aI11
aI20
aa(lp314
V0021000932
p315
aVMAR 06, 2011
p316
aVSAS vs. LAL
p317
aVL
p318
aI23
aI1
aI7
aF0.143
aI0
aI0
aF0.0
aI0
aI0
aF0.0
aI3
aI4
aI7
aI2
aI0
aI0
aI0
aI0
aI2
aI-29
aa(lp319
V0021000962
p320
aVMAR 09, 2011
p321
aVSAS vs. DET
p322
aVW
p323
aI31
aI6
aI9
aF0.667
aI0
aI0
aF0.0
aI3
aI4
aF0.75
aI3
aI9
aI12
aI2
aI0
aI1
aI1
aI2
aI15
aI1
aa(lp324
V0021000974
p325
aVMAR 11, 2011
p326
aVSAS vs. SAC
p327
aVW
p328
aI25
aI5
aI9
aF0.556
aI0
aI0
aF0.0
aI5
aI6
aF0.833
aI0
aI10
aI10
aI0
aI3
aI1
aI1
aI1
aI15
aI16
aa(lp329
V0021000983
p330
aVMAR 12, 2011
p331
aVSAS @ HOU
p332
aVW
p333
aI29
aI3
aI9
aF0.333
aI0
aI0
aF0.0
aI5
aI6
aF0.833
aI0
aI7
aI7
aI3
aI2
aI1
aI0
aI1
aI11
aI7
aa(lp334
V0021000993
p335
aVMAR 14, 2011
p336
aVSAS @ MIA
p337
aVL
p338
aI30
aI6
aI11
aF0.545
aI0
aI0
aF0.0
aI2
aI4
aF0.5
aI2
aI4
aI6
aI1
aI1
aI0
aI1
aI4
aI14
aI-4
aa(lp339
V0021001023
p340
aVMAR 18, 2011
p341
aVSAS @ DAL
p342
aVW
p343
aI32
aI8
aI13
aF0.615
aI0
aI0
aF0.0
aI6
aI6
aF1.0
aI2
aI6
aI8
aI0
aI2
aI3
aI2
aI1
aI22
aI17
aa(lp344
V0021001049
p345
aVMAR 21, 2011
p346
aVSAS vs. GSW
p347
aVW
p348
aI4
aI2
aI2
aF1.0
aI0
aI0
aF0.0
aI0
aI0
aF0.0
aI0
aI3
aI3
aI0
aI0
aI1
aI0
aI0
aI4
aI9
aa(lp349
V0021001118
p350
aVMAR 31, 2011
p351
aVSAS vs. BOS
p352
aVL
p353
aI33
aI8
aI12
aF0.667
aI0
aI1
aF0.0
aI4
aI5
aF0.8
aI2
aI11
aI13
aI3
aI1
aI2
aI5
aI1
aI20
aI-4
aa(lp354
V0021001128
p355
aVAPR 01, 2011
p356
aVSAS @ HOU
p357
aVL
p358
aI36
aI9
aI16
aF0.563
aI0
aI0
aF0.0
aI5
aI8
aF0.625
aI4
aI9
aI13
aI2
aI1
aI1
aI3
aI5
aI23
aI0
aa(lp359
V0021001138
p360
aVAPR 03, 2011
p361
aVSAS vs. PHX
p362
aVW
p363
aI18
aI4
aI7
aF0.571
aI0
aI0
aF0.0
aI0
aI0
aF0.0
aI1
aI3
aI4
aI3
aI0
aI1
aI0
aI1
aI8
aI8
aa(lp364
V0021001149
p365
aVAPR 05, 2011
p366
aVSAS @ ATL
p367
aVW
p368
aI34
aI6
aI8
aF0.75
aI0
aI0
aF0.0
aI5
aI6
aF0.833
aI2
aI4
aI6
aI3
aI1
aI0
aI0
aI0
aI17
aI10
aa(lp369
V0021001171
p370
aVAPR 06, 2011
p371
aVSAS vs. SAC
p372
aVW
p373
aI25
aI4
aI5
aF0.8
aI0
aI0
aF0.0
aI4
aI4
aF1.0
aI1
aI7
aI8
aI4
aI0
aI3
aI1
aI0
aI12
aI22
aa(lp374
V0021001191
p375
aVAPR 09, 2011
p376
aVSAS vs. UTA
p377
aVW
p378
aI22
aI4
aI9
aF0.444
aI0
aI0
aF0.0
aI2
aI2
aF1.0
aI0
aI3
aI3
aI4
aI0
aI4
aI1
aI0
aI10
aI9
aa(lp379
V0021001229
p380
aVAPR 13, 2011
p381
aVSAS @ PHX
p382
aVL
p383
aI31
aI7
aI14
aF0.5
aI0
aI0
aF0.0
aI3
aI7
aF0.429
aI2
aI10
aI12
aI1
aI0
aI2
aI1
aI1
aI17
aI4
aasS'name'
p384
VTim Duncan
p385
sS'experience'
p386
I13
s.