(dp0
S'age'
p1
I33
sS'stats'
p2
(lp3
(lp4
V0021000001
p5
aVOCT 26, 2010
p6
aVBOS vs. MIA
p7
aVW
p8
aI41
aI4
aI7
aF0.571
aI3
aI4
aF0.75
aI8
aI8
aF1.0
aI1
aI8
aI9
aI3
aI1
aI0
aI3
aI3
aI19
aI12
aa(lp9
V0021000004
p10
aVOCT 27, 2010
p11
aVBOS @ CLE
p12
aVL
p13
aI33
aI5
aI12
aF0.417
aI1
aI2
aF0.5
aI2
aI2
aF1.0
aI0
aI2
aI2
aI2
aI1
aI0
aI3
aI2
aI13
aI-9
aa(lp14
V0021000023
p15
aVOCT 29, 2010
p16
aVBOS vs. NYK
p17
aVW
p18
aI39
aI9
aI20
aF0.45
aI4
aI6
aF0.667
aI3
aI5
aF0.6
aI2
aI12
aI14
aI5
aI0
aI0
aI2
aI4
aI25
aI8
aa(lp19
V0021000049
p20
aVNOV 02, 2010
p21
aVBOS @ DET
p22
aVW
p23
aI32
aI8
aI13
aF0.615
aI3
aI7
aF0.429
aI2
aI2
aF1.0
aI0
aI5
aI5
aI3
aI0
aI1
aI1
aI1
aI21
aI22
aa(lp24
V0021000058
p25
aVNOV 03, 2010
p26
aVBOS vs. MIL
p27
aVW
p28
aI41
aI8
aI17
aF0.471
aI1
aI4
aF0.25
aI11
aI11
aF1.0
aI0
aI5
aI5
aI4
aI1
aI0
aI4
aI4
aI28
aI17
aa(lp29
V0021000073
p30
aVNOV 05, 2010
p31
aVBOS vs. CHI
p32
aVW
p33
aI43
aI4
aI14
aF0.286
aI0
aI2
aF0.0
aI2
aI2
aF1.0
aI1
aI6
aI7
aI5
aI0
aI1
aI1
aI4
aI10
aI5
aa(lp34
V0021000093
p35
aVNOV 07, 2010
p36
aVBOS @ OKC
p37
aVW
p38
aI32
aI6
aI14
aF0.429
aI0
aI2
aF0.0
aI5
aI6
aF0.833
aI0
aI2
aI2
aI0
aI0
aI0
aI0
aI2
aI17
aI-2
aa(lp39
V0021000100
p40
aVNOV 08, 2010
p41
aVBOS @ DAL
p42
aVL
p43
aI37
aI10
aI19
aF0.526
aI2
aI3
aF0.667
aI2
aI2
aF1.0
aI1
aI6
aI7
aI1
aI1
aI1
aI1
aI3
aI24
aI-1
aa(lp44
V0021000118
p45
aVNOV 11, 2010
p46
aVBOS @ MIA
p47
aVW
p48
aI35
aI10
aI16
aF0.625
aI1
aI4
aF0.25
aI4
aI4
aF1.0
aI0
aI0
aI0
aI1
aI0
aI0
aI1
aI5
aI25
aI12
aa(lp49
V0021000135
p50
aVNOV 13, 2010
p51
aVBOS @ MEM
p52
aVW
p53
aI43
aI9
aI13
aF0.692
aI1
aI2
aF0.5
aI9
aI9
aF1.0
aI0
aI3
aI3
aI4
aI1
aI1
aI5
aI5
aI28
aI-3
aa(lp54
V0021000160
p55
aVNOV 17, 2010
p56
aVBOS vs. WAS
p57
aVW
p58
aI27
aI10
aI16
aF0.625
aI3
aI4
aF0.75
aI0
aI0
aF0.0
aI0
aI3
aI3
aI2
aI0
aI0
aI0
aI1
aI23
aI16
aa(lp59
V0021000171
p60
aVNOV 19, 2010
p61
aVBOS vs. OKC
p62
aVL
p63
aI37
aI7
aI13
aF0.538
aI0
aI0
aF0.0
aI0
aI1
aF0.0
aI0
aI6
aI6
aI3
aI0
aI1
aI4
aI3
aI14
aI-4
aa(lp64
V0021000191
p65
aVNOV 21, 2010
p66
aVBOS @ TOR
p67
aVL
p68
aI36
aI5
aI10
aF0.5
aI0
aI2
aF0.0
aI9
aI13
aF0.692
aI0
aI5
aI5
aI5
aI0
aI2
aI1
aI5
aI19
aI14
aa(lp69
V0021000195
p70
aVNOV 22, 2010
p71
aVBOS @ ATL
p72
aVW
p73
aI27
aI6
aI9
aF0.667
aI0
aI0
aF0.0
aI1
aI1
aF1.0
aI1
aI3
aI4
aI1
aI1
aI0
aI1
aI1
aI13
aI35
aa(lp74
V0021000212
p75
aVNOV 24, 2010
p76
aVBOS vs. NJN
p77
aVW
p78
aI39
aI7
aI17
aF0.412
aI1
aI5
aF0.2
aI3
aI6
aF0.5
aI1
aI4
aI5
aI4
aI1
aI0
aI0
aI2
aI18
aI11
aa(lp79
V0021000224
p80
aVNOV 26, 2010
p81
aVBOS vs. TOR
p82
aVW
p83
aI39
aI5
aI12
aF0.417
aI1
aI4
aF0.25
aI7
aI9
aF0.778
aI0
aI2
aI2
aI4
aI1
aI3
aI0
aI3
aI18
aI19
aa(lp84
V0021000254
p85
aVNOV 30, 2010
p86
aVBOS @ CLE
p87
aVW
p88
aI23
aI4
aI7
aF0.571
aI1
aI1
aF1.0
aI2
aI3
aF0.667
aI0
aI3
aI3
aI2
aI2
aI3
aI0
aI2
aI11
aI22
aa(lp89
V0021000264
p90
aVDEC 01, 2010
p91
aVBOS vs. POR
p92
aVW
p93
aI37
aI9
aI11
aF0.818
aI4
aI5
aF0.8
aI6
aI6
aF1.0
aI0
aI7
aI7
aI2
aI1
aI1
aI4
aI3
aI28
aI5
aa(lp94
V0021000280
p95
aVDEC 03, 2010
p96
aVBOS vs. CHI
p97
aVW
p98
aI32
aI8
aI16
aF0.5
aI0
aI3
aF0.0
aI2
aI2
aF1.0
aI0
aI3
aI3
aI0
aI0
aI0
aI0
aI3
aI18
aI17
aa(lp99
V0021000294
p100
aVDEC 05, 2010
p101
aVBOS @ NJN
p102
aVW
p103
aI24
aI2
aI7
aF0.286
aI0
aI4
aF0.0
aI4
aI6
aF0.667
aI0
aI0
aI0
aI4
aI0
aI0
aI1
aI0
aI8
aI11
aa(lp104
V0021000316
p105
aVDEC 08, 2010
p106
aVBOS vs. DEN
p107
aVW
p108
aI37
aI6
aI14
aF0.429
aI0
aI4
aF0.0
aI5
aI5
aF1.0
aI0
aI3
aI3
aI4
aI2
aI1
aI3
aI3
aI17
aI23
aa(lp109
V0021000327
p110
aVDEC 09, 2010
p111
aVBOS @ PHI
p112
aVW
p113
aI40
aI3
aI8
aF0.375
aI0
aI0
aF0.0
aI4
aI4
aF1.0
aI0
aI8
aI8
aI2
aI1
aI0
aI4
aI3
aI10
aI-9
aa(lp114
V0021000343
p115
aVDEC 11, 2010
p116
aVBOS @ CHA
p117
aVW
p118
aI29
aI1
aI9
aF0.111
aI0
aI5
aF0.0
aI6
aI8
aF0.75
aI1
aI3
aI4
aI2
aI2
aI3
aI1
aI2
aI8
aI20
aa(lp119
V0021000368
p120
aVDEC 15, 2010
p121
aVBOS @ NYK
p122
aVW
p123
aI41
aI10
aI18
aF0.556
aI2
aI4
aF0.5
aI10
aI10
aF1.0
aI0
aI10
aI10
aI4
aI2
aI0
aI2
aI5
aI32
aI0
aa(lp124
V0021000379
p125
aVDEC 16, 2010
p126
aVBOS vs. ATL
p127
aVW
p128
aI38
aI5
aI15
aF0.333
aI2
aI5
aF0.4
aI3
aI4
aF0.75
aI1
aI4
aI5
aI10
aI1
aI0
aI1
aI3
aI15
aI22
aa(lp129
V0021000400
p130
aVDEC 19, 2010
p131
aVBOS vs. IND
p132
aVW
p133
aI37
aI6
aI8
aF0.75
aI0
aI2
aF0.0
aI6
aI6
aF1.0
aI0
aI10
aI10
aI12
aI4
aI1
aI3
aI3
aI18
aI18
aa(lp134
V0021000424
p135
aVDEC 22, 2010
p136
aVBOS vs. PHI
p137
aVW
p138
aI34
aI4
aI15
aF0.267
aI1
aI4
aF0.25
aI2
aI2
aF1.0
aI0
aI4
aI4
aI2
aI2
aI0
aI2
aI5
aI11
aI-1
aa(lp139
V0021000434
p140
aVDEC 25, 2010
p141
aVBOS @ ORL
p142
aVL
p143
aI40
aI6
aI14
aF0.429
aI2
aI4
aF0.5
aI4
aI4
aF1.0
aI0
aI8
aI8
aI5
aI1
aI0
aI5
aI0
aI18
aI-9
aa(lp144
V0021000456
p145
aVDEC 28, 2010
p146
aVBOS @ IND
p147
aVW
p148
aI36
aI8
aI14
aF0.571
aI3
aI3
aF1.0
aI2
aI2
aF1.0
aI0
aI5
aI5
aI7
aI0
aI0
aI0
aI3
aI21
aI11
aa(lp149
V0021000465
p150
aVDEC 29, 2010
p151
aVBOS @ DET
p152
aVL
p153
aI39
aI11
aI16
aF0.688
aI3
aI4
aF0.75
aI8
aI8
aF1.0
aI1
aI4
aI5
aI8
aI4
aI0
aI5
aI4
aI33
aI-10
aa(lp154
V0021000476
p155
aVDEC 31, 2010
p156
aVBOS vs. NOH
p157
aVL
p158
aI36
aI5
aI10
aF0.5
aI0
aI4
aF0.0
aI2
aI2
aF1.0
aI0
aI7
aI7
aI3
aI1
aI1
aI6
aI2
aI12
aI-10
aa(lp159
V0021000494
p160
aVJAN 02, 2011
p161
aVBOS @ TOR
p162
aVW
p163
aI36
aI10
aI15
aF0.667
aI3
aI3
aF1.0
aI7
aI8
aF0.875
aI0
aI7
aI7
aI4
aI0
aI0
aI1
aI2
aI30
aI18
aa(lp164
V0021000501
p165
aVJAN 03, 2011
p166
aVBOS vs. MIN
p167
aVW
p168
aI37
aI8
aI16
aF0.5
aI1
aI4
aF0.25
aI6
aI8
aF0.75
aI3
aI3
aI6
aI3
aI0
aI0
aI2
aI4
aI23
aI4
aa(lp169
V0021000516
p170
aVJAN 05, 2011
p171
aVBOS vs. SAS
p172
aVW
p173
aI35
aI7
aI10
aF0.7
aI2
aI2
aF1.0
aI2
aI2
aF1.0
aI0
aI7
aI7
aI1
aI1
aI1
aI1
aI3
aI18
aI12
aa(lp174
V0021000528
p175
aVJAN 07, 2011
p176
aVBOS vs. TOR
p177
aVW
p178
aI28
aI6
aI10
aF0.6
aI2
aI5
aF0.4
aI6
aI8
aF0.75
aI1
aI4
aI5
aI4
aI2
aI0
aI1
aI3
aI20
aI10
aa(lp179
V0021000540
p180
aVJAN 08, 2011
p181
aVBOS @ CHI
p182
aVL
p183
aI39
aI7
aI16
aF0.438
aI2
aI4
aF0.5
aI5
aI6
aF0.833
aI0
aI4
aI4
aI3
aI1
aI0
aI1
aI2
aI21
aI-4
aa(lp184
V0021000552
p185
aVJAN 10, 2011
p186
aVBOS vs. HOU
p187
aVL
p188
aI30
aI5
aI12
aF0.417
aI2
aI5
aF0.4
aI4
aI4
aF1.0
aI0
aI3
aI3
aI2
aI1
aI0
aI2
aI4
aI16
aI-8
aa(lp189
V0021000564
p190
aVJAN 12, 2011
p191
aVBOS vs. SAC
p192
aVW
p193
aI27
aI10
aI14
aF0.714
aI2
aI3
aF0.667
aI3
aI5
aF0.6
aI1
aI5
aI6
aI3
aI4
aI0
aI0
aI1
aI25
aI21
aa(lp194
V0021000579
p195
aVJAN 14, 2011
p196
aVBOS vs. CHA
p197
aVW
p198
aI25
aI7
aI14
aF0.5
aI3
aI7
aF0.429
aI2
aI2
aF1.0
aI0
aI3
aI3
aI0
aI1
aI0
aI0
aI5
aI19
aI12
aa(lp199
V0021000608
p200
aVJAN 17, 2011
p201
aVBOS vs. ORL
p202
aVW
p203
aI39
aI5
aI7
aF0.714
aI0
aI2
aF0.0
aI4
aI5
aF0.8
aI0
aI5
aI5
aI4
aI1
aI2
aI1
aI4
aI14
aI6
aa(lp204
V0021000616
p205
aVJAN 19, 2011
p206
aVBOS vs. DET
p207
aVW
p208
aI37
aI8
aI15
aF0.533
aI3
aI5
aF0.6
aI3
aI4
aF0.75
aI0
aI5
aI5
aI3
aI0
aI0
aI3
aI4
aI22
aI7
aa(lp209
V0021000632
p210
aVJAN 21, 2011
p211
aVBOS vs. UTA
p212
aVW
p213
aI26
aI5
aI8
aF0.625
aI3
aI3
aF1.0
aI7
aI8
aF0.875
aI0
aI3
aI3
aI0
aI2
aI2
aI1
aI2
aI20
aI17
aa(lp214
V0021000641
p215
aVJAN 22, 2011
p216
aVBOS @ WAS
p217
aVL
p218
aI26
aI4
aI10
aF0.4
aI2
aI4
aF0.5
aI2
aI4
aF0.5
aI1
aI7
aI8
aI2
aI0
aI0
aI1
aI5
aI12
aI3
aa(lp219
V0021000664
p220
aVJAN 25, 2011
p221
aVBOS vs. CLE
p222
aVW
p223
aI24
aI8
aI15
aF0.533
aI2
aI5
aF0.4
aI6
aI7
aF0.857
aI0
aI4
aI4
aI2
aI1
aI0
aI1
aI1
aI24
aI15
aa(lp224
V0021000680
p225
aVJAN 27, 2011
p226
aVBOS @ POR
p227
aVW
p228
aI35
aI7
aI14
aF0.5
aI2
aI6
aF0.333
aI1
aI2
aF0.5
aI1
aI2
aI3
aI4
aI0
aI2
aI3
aI4
aI17
aI14
aa(lp229
V0021000690
p230
aVJAN 28, 2011
p231
aVBOS @ PHX
p232
aVL
p233
aI31
aI5
aI15
aF0.333
aI0
aI2
aF0.0
aI4
aI5
aF0.8
aI0
aI2
aI2
aI0
aI1
aI1
aI1
aI1
aI14
aI-15
aa(lp234
V0021000702
p235
aVJAN 30, 2011
p236
aVBOS @ LAL
p237
aVW
p238
aI41
aI11
aI18
aF0.611
aI3
aI5
aF0.6
aI7
aI7
aF1.0
aI1
aI4
aI5
aI3
aI1
aI1
aI3
aI4
aI32
aI5
aa(lp239
V0021000717
p240
aVFEB 01, 2011
p241
aVBOS @ SAC
p242
aVW
p243
aI36
aI7
aI14
aF0.5
aI0
aI1
aF0.0
aI1
aI2
aF0.5
aI0
aI5
aI5
aI5
aI2
aI0
aI4
aI3
aI15
aI7
aa(lp244
V0021000740
p245
aVFEB 04, 2011
p246
aVBOS vs. DAL
p247
aVL
p248
aI40
aI4
aI10
aF0.4
aI1
aI6
aF0.167
aI3
aI4
aF0.75
aI1
aI2
aI3
aI2
aI1
aI1
aI3
aI2
aI12
aI-3
aa(lp249
V0021000757
p250
aVFEB 06, 2011
p251
aVBOS vs. ORL
p252
aVW
p253
aI42
aI4
aI11
aF0.364
aI0
aI2
aF0.0
aI10
aI12
aF0.833
aI0
aI4
aI4
aI5
aI1
aI1
aI3
aI4
aI18
aI20
aa(lp254
V0021000758
p255
aVFEB 07, 2011
p256
aVBOS @ CHA
p257
aVL
p258
aI35
aI6
aI14
aF0.429
aI1
aI5
aF0.2
aI9
aI10
aF0.9
aI0
aI6
aI6
aI3
aI1
aI0
aI1
aI4
aI22
aI2
aa(lp259
V0021000783
p260
aVFEB 10, 2011
p261
aVBOS vs. LAL
p262
aVL
p263
aI40
aI6
aI15
aF0.4
aI1
aI3
aF0.333
aI2
aI2
aF1.0
aI0
aI4
aI4
aI4
aI1
aI1
aI2
aI4
aI15
aI-1
aa(lp264
V0021000804
p265
aVFEB 13, 2011
p266
aVBOS vs. MIA
p267
aVW
p268
aI40
aI0
aI10
aF0.0
aI0
aI5
aF0.0
aI1
aI2
aF0.5
aI0
aI5
aI5
aI3
aI1
aI0
aI3
aI3
aI1
aI4
aa(lp269
V0021000826
p270
aVFEB 16, 2011
p271
aVBOS vs. NJN
p272
aVW
p273
aI33
aI10
aI18
aF0.556
aI1
aI5
aF0.2
aI10
aI13
aF0.769
aI0
aI5
aI5
aI0
aI1
aI1
aI1
aI1
aI31
aI19
aa(lp274
V0021000845
p275
aVFEB 22, 2011
p276
aVBOS @ GSW
p277
aVW
p278
aI35
aI9
aI13
aF0.692
aI3
aI5
aF0.6
aI2
aI2
aF1.0
aI1
aI2
aI3
aI5
aI0
aI0
aI3
aI3
aI23
aI28
aa(lp279
V0021000860
p280
aVFEB 24, 2011
p281
aVBOS @ DEN
p282
aVL
p283
aI28
aI7
aI18
aF0.389
aI2
aI6
aF0.333
aI1
aI1
aF1.0
aI1
aI5
aI6
aI0
aI3
aI1
aI2
aI4
aI17
aI-8
aa(lp284
V0021000878
p285
aVFEB 26, 2011
p286
aVBOS @ LAC
p287
aVW
p288
aI36
aI6
aI14
aF0.429
aI1
aI4
aF0.25
aI11
aI13
aF0.846
aI0
aI5
aI5
aI2
aI2
aI0
aI3
aI1
aI24
aI13
aa(lp289
V0021000892
p290
aVFEB 28, 2011
p291
aVBOS @ UTA
p292
aVW
p293
aI38
aI4
aI10
aF0.4
aI2
aI4
aF0.5
aI11
aI11
aF1.0
aI0
aI7
aI7
aI4
aI1
aI0
aI0
aI5
aI21
aI2
aa(lp294
V0021000905
p295
aVMAR 02, 2011
p296
aVBOS vs. PHX
p297
aVW
p298
aI36
aI6
aI9
aF0.667
aI0
aI3
aF0.0
aI4
aI6
aF0.667
aI0
aI13
aI13
aI3
aI1
aI0
aI3
aI5
aI16
aI26
aa(lp299
V0021000918
p300
aVMAR 04, 2011
p301
aVBOS vs. GSW
p302
aVW
p303
aI37
aI9
aI14
aF0.643
aI1
aI4
aF0.25
aI8
aI8
aF1.0
aI1
aI6
aI7
aI2
aI1
aI1
aI4
aI3
aI27
aI5
aa(lp304
V0021000939
p305
aVMAR 06, 2011
p306
aVBOS @ MIL
p307
aVW
p308
aI37
aI8
aI13
aF0.615
aI1
aI2
aF0.5
aI6
aI6
aF1.0
aI0
aI5
aI5
aI4
aI1
aI1
aI4
aI2
aI23
aI16
aa(lp309
V0021000957
p310
aVMAR 09, 2011
p311
aVBOS vs. LAC
p312
aVL
p313
aI37
aI5
aI11
aF0.455
aI2
aI5
aF0.4
aI7
aI8
aF0.875
aI0
aI4
aI4
aI6
aI0
aI1
aI2
aI3
aI19
aI-10
aa(lp314
V0021000969
p315
aVMAR 11, 2011
p316
aVBOS @ PHI
p317
aVL
p318
aI36
aI4
aI7
aF0.571
aI0
aI2
aF0.0
aI3
aI4
aF0.75
aI1
aI6
aI7
aI5
aI0
aI1
aI3
aI5
aI11
aI0
aa(lp319
V0021000988
p320
aVMAR 13, 2011
p321
aVBOS vs. MIL
p322
aVW
p323
aI28
aI4
aI7
aF0.571
aI0
aI0
aF0.0
aI6
aI7
aF0.857
aI0
aI3
aI3
aI2
aI0
aI2
aI4
aI0
aI14
aI22
aa(lp324
V0021000991
p325
aVMAR 14, 2011
p326
aVBOS @ NJN
p327
aVL
p328
aI32
aI2
aI10
aF0.2
aI0
aI2
aF0.0
aI3
aI3
aF1.0
aI1
aI6
aI7
aI5
aI2
aI2
aI2
aI4
aI7
aI10
aa(lp329
V0021001004
p330
aVMAR 16, 2011
p331
aVBOS vs. IND
p332
aVW
p333
aI28
aI6
aI12
aF0.5
aI2
aI4
aF0.5
aI6
aI7
aF0.857
aI0
aI2
aI2
aI5
aI2
aI1
aI1
aI1
aI20
aI7
aa(lp334
V0021001024
p335
aVMAR 18, 2011
p336
aVBOS @ HOU
p337
aVL
p338
aI28
aI2
aI10
aF0.2
aI0
aI4
aF0.0
aI6
aI6
aF1.0
aI1
aI4
aI5
aI3
aI0
aI0
aI2
aI0
aI10
aI-19
aa(lp339
V0021001032
p340
aVMAR 19, 2011
p341
aVBOS @ NOH
p342
aVW
p343
aI35
aI1
aI9
aF0.111
aI1
aI6
aF0.167
aI6
aI6
aF1.0
aI0
aI4
aI4
aI6
aI2
aI0
aI3
aI2
aI9
aI-12
aa(lp344
V0021001046
p345
aVMAR 21, 2011
p346
aVBOS @ NYK
p347
aVW
p348
aI35
aI8
aI13
aF0.615
aI1
aI2
aF0.5
aI4
aI4
aF1.0
aI0
aI6
aI6
aI2
aI0
aI0
aI0
aI4
aI21
aI16
aa(lp349
V0021001057
p350
aVMAR 23, 2011
p351
aVBOS vs. MEM
p352
aVL
p353
aI35
aI6
aI10
aF0.6
aI2
aI4
aF0.5
aI8
aI8
aF1.0
aI0
aI6
aI6
aI2
aI0
aI0
aI2
aI1
aI22
aI8
aa(lp354
V0021001070
p355
aVMAR 25, 2011
p356
aVBOS vs. CHA
p357
aVL
p358
aI30
aI6
aI14
aF0.429
aI1
aI5
aF0.2
aI5
aI8
aF0.625
aI0
aI3
aI3
aI4
aI1
aI1
aI0
aI4
aI18
aI-5
aa(lp359
V0021001091
p360
aVMAR 27, 2011
p361
aVBOS @ MIN
p362
aVW
p363
aI37
aI6
aI16
aF0.375
aI2
aI8
aF0.25
aI9
aI11
aF0.818
aI1
aI6
aI7
aI3
aI1
aI0
aI6
aI4
aI23
aI7
aa(lp364
V0021001097
p365
aVMAR 28, 2011
p366
aVBOS @ IND
p367
aVL
p368
aI39
aI8
aI13
aF0.615
aI3
aI4
aF0.75
aI4
aI4
aF1.0
aI1
aI5
aI6
aI1
aI1
aI1
aI3
aI3
aI23
aI3
aa(lp369
V0021001118
p370
aVMAR 31, 2011
p371
aVBOS @ SAS
p372
aVW
p373
aI37
aI8
aI16
aF0.5
aI1
aI5
aF0.2
aI4
aI5
aF0.8
aI3
aI8
aI11
aI7
aI1
aI1
aI2
aI2
aI21
aI11
aa(lp374
V0021001125
p375
aVAPR 01, 2011
p376
aVBOS @ ATL
p377
aVL
p378
aI36
aI8
aI15
aF0.533
aI1
aI2
aF0.5
aI8
aI11
aF0.727
aI0
aI8
aI8
aI2
aI1
aI0
aI2
aI5
aI25
aI5
aa(lp379
V0021001140
p380
aVAPR 03, 2011
p381
aVBOS vs. DET
p382
aVW
p383
aI32
aI7
aI10
aF0.7
aI3
aI5
aF0.6
aI5
aI6
aF0.833
aI0
aI6
aI6
aI3
aI1
aI0
aI3
aI2
aI22
aI12
aa(lp384
V0021001154
p385
aVAPR 05, 2011
p386
aVBOS vs. PHI
p387
aVW
p388
aI35
aI6
aI11
aF0.545
aI3
aI4
aF0.75
aI3
aI3
aF1.0
aI0
aI7
aI7
aI4
aI0
aI1
aI3
aI3
aI18
aI20
aa(lp389
V0021001174
p390
aVAPR 07, 2011
p391
aVBOS @ CHI
p392
aVL
p393
aI32
aI6
aI13
aF0.462
aI1
aI5
aF0.2
aI2
aI2
aF1.0
aI0
aI4
aI4
aI1
aI0
aI1
aI4
aI2
aI15
aI-16
aa(lp394
V0021001179
p395
aVAPR 08, 2011
p396
aVBOS vs. WAS
p397
aVW
p398
aI40
aI5
aI14
aF0.357
aI0
aI2
aF0.0
aI12
aI13
aF0.923
aI4
aI8
aI12
aI3
aI2
aI3
aI3
aI0
aI22
aI24
aa(lp399
V0021001194
p400
aVAPR 10, 2011
p401
aVBOS @ MIA
p402
aVL
p403
aI34
aI9
aI14
aF0.643
aI3
aI5
aF0.6
aI3
aI3
aF1.0
aI0
aI7
aI7
aI2
aI2
aI0
aI4
aI4
aI24
aI0
aasS'name'
p404
VPaul Pierce
p405
sS'experience'
p406
I12
s.