(dp0
S'age'
p1
I24
sS'stats'
p2
(lp3
(lp4
V0021000001
p5
aVOCT 26, 2010
p6
aVBOS vs. MIA
p7
aVW
p8
aI41
aI2
aI9
aF0.222
aI0
aI0
aF0.0
aI0
aI0
aF0.0
aI1
aI4
aI5
aI17
aI2
aI0
aI3
aI1
aI4
aI4
aa(lp9
V0021000004
p10
aVOCT 27, 2010
p11
aVBOS @ CLE
p12
aVL
p13
aI38
aI8
aI12
aF0.667
aI1
aI1
aF1.0
aI1
aI2
aF0.5
aI2
aI2
aI4
aI9
aI3
aI0
aI4
aI1
aI18
aI-4
aa(lp14
V0021000023
p15
aVOCT 29, 2010
p16
aVBOS vs. NYK
p17
aVW
p18
aI45
aI4
aI12
aF0.333
aI0
aI1
aF0.0
aI2
aI6
aF0.333
aI3
aI7
aI10
aI24
aI1
aI0
aI7
aI1
aI10
aI9
aa(lp19
V0021000049
p20
aVNOV 02, 2010
p21
aVBOS @ DET
p22
aVW
p23
aI36
aI3
aI7
aF0.429
aI1
aI1
aF1.0
aI2
aI2
aF1.0
aI0
aI3
aI3
aI17
aI4
aI0
aI0
aI1
aI9
aI21
aa(lp24
V0021000058
p25
aVNOV 03, 2010
p26
aVBOS vs. MIL
p27
aVW
p28
aI47
aI7
aI10
aF0.7
aI0
aI0
aF0.0
aI3
aI4
aF0.75
aI3
aI5
aI8
aI15
aI3
aI1
aI6
aI3
aI17
aI11
aa(lp29
V0021000073
p30
aVNOV 05, 2010
p31
aVBOS vs. CHI
p32
aVW
p33
aI40
aI5
aI10
aF0.5
aI0
aI1
aF0.0
aI0
aI0
aF0.0
aI1
aI2
aI3
aI11
aI4
aI0
aI4
aI1
aI10
aI14
aa(lp34
V0021000093
p35
aVNOV 07, 2010
p36
aVBOS @ OKC
p37
aVW
p38
aI36
aI5
aI8
aF0.625
aI0
aI0
aF0.0
aI0
aI2
aF0.0
aI2
aI3
aI5
aI10
aI3
aI0
aI4
aI3
aI10
aI2
aa(lp39
V0021000100
p40
aVNOV 08, 2010
p41
aVBOS @ DAL
p42
aVL
p43
aI42
aI5
aI15
aF0.333
aI0
aI1
aF0.0
aI1
aI1
aF1.0
aI4
aI2
aI6
aI15
aI5
aI1
aI4
aI2
aI11
aI6
aa(lp44
V0021000118
p45
aVNOV 11, 2010
p46
aVBOS @ MIA
p47
aVW
p48
aI40
aI3
aI8
aF0.375
aI0
aI0
aF0.0
aI2
aI4
aF0.5
aI2
aI1
aI3
aI16
aI2
aI0
aI3
aI3
aI8
aI8
aa(lp49
V0021000135
p50
aVNOV 13, 2010
p51
aVBOS @ MEM
p52
aVW
p53
aI44
aI5
aI10
aF0.5
aI0
aI0
aF0.0
aI1
aI5
aF0.2
aI1
aI4
aI5
aI17
aI1
aI0
aI3
aI2
aI11
aI4
aa(lp54
V0021000160
p55
aVNOV 17, 2010
p56
aVBOS vs. WAS
p57
aVW
p58
aI30
aI5
aI7
aF0.714
aI0
aI0
aF0.0
aI2
aI4
aF0.5
aI0
aI2
aI2
aI13
aI1
aI1
aI2
aI2
aI12
aI22
aa(lp59
V0021000171
p60
aVNOV 19, 2010
p61
aVBOS vs. OKC
p62
aVL
p63
aI33
aI7
aI10
aF0.7
aI0
aI1
aF0.0
aI0
aI0
aF0.0
aI1
aI3
aI4
aI7
aI1
aI0
aI4
aI5
aI14
aI-7
aa(lp64
V0021000224
p65
aVNOV 26, 2010
p66
aVBOS vs. TOR
p67
aVW
p68
aI36
aI2
aI6
aF0.333
aI0
aI2
aF0.0
aI0
aI0
aF0.0
aI1
aI3
aI4
aI14
aI3
aI0
aI8
aI3
aI4
aI23
aa(lp69
V0021000254
p70
aVNOV 30, 2010
p71
aVBOS @ CLE
p72
aVW
p73
aI38
aI11
aI17
aF0.647
aI0
aI0
aF0.0
aI1
aI4
aF0.25
aI2
aI3
aI5
aI12
aI0
aI0
aI5
aI2
aI23
aI8
aa(lp74
V0021000264
p75
aVDEC 01, 2010
p76
aVBOS vs. POR
p77
aVW
p78
aI45
aI4
aI7
aF0.571
aI1
aI2
aF0.5
aI1
aI2
aF0.5
aI0
aI1
aI1
aI10
aI0
aI0
aI3
aI1
aI10
aI7
aa(lp79
V0021000280
p80
aVDEC 03, 2010
p81
aVBOS vs. CHI
p82
aVW
p83
aI35
aI6
aI11
aF0.545
aI0
aI0
aF0.0
aI0
aI0
aF0.0
aI2
aI4
aI6
aI19
aI3
aI0
aI3
aI2
aI12
aI29
aa(lp84
V0021000316
p85
aVDEC 08, 2010
p86
aVBOS vs. DEN
p87
aVW
p88
aI30
aI2
aI3
aF0.667
aI0
aI1
aF0.0
aI0
aI1
aF0.0
aI0
aI3
aI3
aI13
aI1
aI0
aI5
aI1
aI4
aI20
aa(lp89
V0021000327
p90
aVDEC 09, 2010
p91
aVBOS @ PHI
p92
aVW
p93
aI47
aI9
aI14
aF0.643
aI1
aI2
aF0.5
aI0
aI0
aF0.0
aI1
aI5
aI6
aI14
aI4
aI0
aI3
aI3
aI19
aI3
aa(lp94
V0021000343
p95
aVDEC 11, 2010
p96
aVBOS @ CHA
p97
aVW
p98
aI31
aI3
aI5
aF0.6
aI1
aI1
aF1.0
aI0
aI0
aF0.0
aI2
aI3
aI5
aI8
aI5
aI0
aI6
aI0
aI7
aI18
aa(lp99
V0021000368
p100
aVDEC 15, 2010
p101
aVBOS @ NYK
p102
aVW
p103
aI34
aI5
aI10
aF0.5
aI0
aI2
aF0.0
aI0
aI0
aF0.0
aI2
aI1
aI3
aI14
aI1
aI0
aI6
aI1
aI10
aI-8
aa(lp104
V0021000494
p105
aVJAN 02, 2011
p106
aVBOS @ TOR
p107
aVW
p108
aI34
aI2
aI3
aF0.667
aI0
aI1
aF0.0
aI0
aI2
aF0.0
aI0
aI1
aI1
aI8
aI1
aI0
aI5
aI2
aI4
aI24
aa(lp109
V0021000501
p110
aVJAN 03, 2011
p111
aVBOS vs. MIN
p112
aVW
p113
aI35
aI3
aI8
aF0.375
aI0
aI0
aF0.0
aI0
aI0
aF0.0
aI1
aI3
aI4
aI16
aI1
aI0
aI3
aI0
aI6
aI4
aa(lp114
V0021000516
p115
aVJAN 05, 2011
p116
aVBOS vs. SAS
p117
aVW
p118
aI43
aI6
aI10
aF0.6
aI0
aI0
aF0.0
aI0
aI0
aF0.0
aI3
aI7
aI10
aI23
aI6
aI1
aI5
aI3
aI12
aI9
aa(lp119
V0021000528
p120
aVJAN 07, 2011
p121
aVBOS vs. TOR
p122
aVW
p123
aI26
aI3
aI7
aF0.429
aI1
aI2
aF0.5
aI2
aI2
aF1.0
aI1
aI3
aI4
aI7
aI2
aI0
aI6
aI0
aI9
aI23
aa(lp124
V0021000540
p125
aVJAN 08, 2011
p126
aVBOS @ CHI
p127
aVL
p128
aI37
aI6
aI14
aF0.429
aI0
aI1
aF0.0
aI1
aI2
aF0.5
aI1
aI4
aI5
aI8
aI5
aI0
aI0
aI5
aI13
aI-1
aa(lp129
V0021000552
p130
aVJAN 10, 2011
p131
aVBOS vs. HOU
p132
aVL
p133
aI38
aI4
aI8
aF0.5
aI0
aI0
aF0.0
aI1
aI2
aF0.5
aI1
aI0
aI1
aI12
aI3
aI0
aI5
aI3
aI9
aI-9
aa(lp134
V0021000564
p135
aVJAN 12, 2011
p136
aVBOS vs. SAC
p137
aVW
p138
aI29
aI5
aI11
aF0.455
aI0
aI2
aF0.0
aI0
aI1
aF0.0
aI1
aI3
aI4
aI13
aI2
aI0
aI4
aI0
aI10
aI17
aa(lp139
V0021000579
p140
aVJAN 14, 2011
p141
aVBOS vs. CHA
p142
aVW
p143
aI37
aI7
aI11
aF0.636
aI1
aI1
aF1.0
aI3
aI4
aF0.75
aI1
aI5
aI6
aI13
aI1
aI1
aI2
aI1
aI18
aI6
aa(lp144
V0021000608
p145
aVJAN 17, 2011
p146
aVBOS vs. ORL
p147
aVW
p148
aI37
aI5
aI6
aF0.833
aI0
aI0
aF0.0
aI0
aI0
aF0.0
aI1
aI3
aI4
aI12
aI3
aI0
aI1
aI1
aI10
aI10
aa(lp149
V0021000616
p150
aVJAN 19, 2011
p151
aVBOS vs. DET
p152
aVW
p153
aI40
aI3
aI9
aF0.333
aI0
aI1
aF0.0
aI0
aI0
aF0.0
aI4
aI4
aI8
aI8
aI1
aI1
aI3
aI2
aI6
aI2
aa(lp154
V0021000632
p155
aVJAN 21, 2011
p156
aVBOS vs. UTA
p157
aVW
p158
aI31
aI2
aI6
aF0.333
aI0
aI0
aF0.0
aI0
aI0
aF0.0
aI1
aI4
aI5
aI12
aI3
aI0
aI5
aI2
aI4
aI29
aa(lp159
V0021000641
p160
aVJAN 22, 2011
p161
aVBOS @ WAS
p162
aVL
p163
aI35
aI6
aI12
aF0.5
aI0
aI1
aF0.0
aI1
aI1
aF1.0
aI0
aI2
aI2
aI9
aI2
aI0
aI4
aI4
aI13
aI6
aa(lp164
V0021000664
p165
aVJAN 25, 2011
p166
aVBOS vs. CLE
p167
aVW
p168
aI44
aI5
aI8
aF0.625
aI1
aI1
aF1.0
aI0
aI0
aF0.0
aI0
aI5
aI5
aI10
aI4
aI0
aI1
aI1
aI11
aI15
aa(lp169
V0021000680
p170
aVJAN 27, 2011
p171
aVBOS @ POR
p172
aVW
p173
aI41
aI5
aI8
aF0.625
aI0
aI0
aF0.0
aI1
aI4
aF0.25
aI1
aI5
aI6
aI5
aI3
aI0
aI6
aI1
aI11
aI15
aa(lp174
V0021000690
p175
aVJAN 28, 2011
p176
aVBOS @ PHX
p177
aVL
p178
aI28
aI1
aI6
aF0.167
aI0
aI0
aF0.0
aI5
aI6
aF0.833
aI1
aI1
aI2
aI6
aI2
aI0
aI7
aI4
aI7
aI-14
aa(lp179
V0021000702
p180
aVJAN 30, 2011
p181
aVBOS @ LAL
p182
aVW
p183
aI41
aI5
aI9
aF0.556
aI0
aI0
aF0.0
aI0
aI0
aF0.0
aI2
aI3
aI5
aI16
aI1
aI0
aI3
aI1
aI10
aI11
aa(lp184
V0021000717
p185
aVFEB 01, 2011
p186
aVBOS @ SAC
p187
aVW
p188
aI31
aI7
aI15
aF0.467
aI0
aI0
aF0.0
aI3
aI3
aF1.0
aI1
aI1
aI2
aI10
aI4
aI0
aI4
aI1
aI17
aI12
aa(lp189
V0021000740
p190
aVFEB 04, 2011
p191
aVBOS vs. DAL
p192
aVL
p193
aI39
aI4
aI9
aF0.444
aI0
aI0
aF0.0
aI0
aI0
aF0.0
aI1
aI1
aI2
aI12
aI3
aI0
aI1
aI2
aI8
aI-6
aa(lp194
V0021000757
p195
aVFEB 06, 2011
p196
aVBOS vs. ORL
p197
aVW
p198
aI37
aI9
aI15
aF0.6
aI1
aI2
aF0.5
aI7
aI9
aF0.778
aI1
aI0
aI1
aI7
aI1
aI0
aI6
aI3
aI26
aI3
aa(lp199
V0021000758
p200
aVFEB 07, 2011
p201
aVBOS @ CHA
p202
aVL
p203
aI43
aI4
aI13
aF0.308
aI0
aI1
aF0.0
aI2
aI2
aF1.0
aI1
aI2
aI3
aI14
aI3
aI1
aI6
aI4
aI10
aI-6
aa(lp204
V0021000783
p205
aVFEB 10, 2011
p206
aVBOS vs. LAL
p207
aVL
p208
aI44
aI5
aI14
aF0.357
aI0
aI0
aF0.0
aI2
aI3
aF0.667
aI4
aI1
aI5
aI10
aI1
aI0
aI0
aI2
aI12
aI-11
aa(lp209
V0021000804
p210
aVFEB 13, 2011
p211
aVBOS vs. MIA
p212
aVW
p213
aI43
aI5
aI10
aF0.5
aI0
aI0
aF0.0
aI1
aI5
aF0.2
aI3
aI7
aI10
aI10
aI0
aI0
aI1
aI4
aI11
aI-1
aa(lp214
V0021000826
p215
aVFEB 16, 2011
p216
aVBOS vs. NJN
p217
aVW
p218
aI37
aI2
aI5
aF0.4
aI0
aI1
aF0.0
aI3
aI4
aF0.75
aI1
aI4
aI5
aI8
aI4
aI0
aI1
aI0
aI7
aI13
aa(lp219
V0021000845
p220
aVFEB 22, 2011
p221
aVBOS @ GSW
p222
aVW
p223
aI35
aI9
aI12
aF0.75
aI1
aI1
aF1.0
aI0
aI1
aF0.0
aI2
aI4
aI6
aI15
aI2
aI0
aI5
aI3
aI19
aI24
aa(lp224
V0021000860
p225
aVFEB 24, 2011
p226
aVBOS @ DEN
p227
aVL
p228
aI43
aI2
aI7
aF0.286
aI0
aI0
aF0.0
aI1
aI2
aF0.5
aI1
aI3
aI4
aI8
aI2
aI0
aI1
aI4
aI5
aI-11
aa(lp229
V0021000878
p230
aVFEB 26, 2011
p231
aVBOS @ LAC
p232
aVW
p233
aI34
aI1
aI2
aF0.5
aI0
aI0
aF0.0
aI0
aI0
aF0.0
aI2
aI5
aI7
aI11
aI2
aI0
aI7
aI1
aI2
aI5
aa(lp234
V0021000892
p235
aVFEB 28, 2011
p236
aVBOS @ UTA
p237
aVW
p238
aI42
aI9
aI16
aF0.563
aI0
aI0
aF0.0
aI0
aI0
aF0.0
aI1
aI3
aI4
aI11
aI2
aI0
aI4
aI1
aI18
aI6
aa(lp239
V0021000905
p240
aVMAR 02, 2011
p241
aVBOS vs. PHX
p242
aVW
p243
aI39
aI6
aI8
aF0.75
aI0
aI0
aF0.0
aI4
aI7
aF0.571
aI0
aI5
aI5
aI15
aI3
aI1
aI1
aI0
aI16
aI26
aa(lp244
V0021000918
p245
aVMAR 04, 2011
p246
aVBOS vs. GSW
p247
aVW
p248
aI42
aI3
aI11
aF0.273
aI0
aI0
aF0.0
aI0
aI0
aF0.0
aI0
aI0
aI0
aI16
aI5
aI0
aI3
aI3
aI6
aI4
aa(lp249
V0021000939
p250
aVMAR 06, 2011
p251
aVBOS @ MIL
p252
aVW
p253
aI38
aI3
aI7
aF0.429
aI0
aI0
aF0.0
aI0
aI0
aF0.0
aI0
aI4
aI4
aI8
aI2
aI0
aI8
aI4
aI6
aI8
aa(lp254
V0021000957
p255
aVMAR 09, 2011
p256
aVBOS vs. LAC
p257
aVL
p258
aI43
aI6
aI15
aF0.4
aI0
aI1
aF0.0
aI1
aI2
aF0.5
aI2
aI5
aI7
aI9
aI3
aI0
aI2
aI2
aI13
aI-3
aa(lp259
V0021000969
p260
aVMAR 11, 2011
p261
aVBOS @ PHI
p262
aVL
p263
aI35
aI6
aI12
aF0.5
aI0
aI0
aF0.0
aI0
aI0
aF0.0
aI0
aI4
aI4
aI5
aI1
aI0
aI2
aI0
aI12
aI-2
aa(lp264
V0021000988
p265
aVMAR 13, 2011
p266
aVBOS vs. MIL
p267
aVW
p268
aI23
aI1
aI6
aF0.167
aI0
aI0
aF0.0
aI0
aI0
aF0.0
aI2
aI1
aI3
aI3
aI3
aI0
aI1
aI0
aI2
aI15
aa(lp269
V0021000991
p270
aVMAR 14, 2011
p271
aVBOS @ NJN
p272
aVL
p273
aI32
aI1
aI10
aF0.1
aI0
aI1
aF0.0
aI0
aI0
aF0.0
aI1
aI3
aI4
aI9
aI1
aI1
aI4
aI5
aI2
aI-13
aa(lp274
V0021001004
p275
aVMAR 16, 2011
p276
aVBOS vs. IND
p277
aVW
p278
aI30
aI0
aI2
aF0.0
aI0
aI0
aF0.0
aI0
aI0
aF0.0
aI0
aI0
aI0
aI8
aI2
aI1
aI2
aI0
aI0
aI8
aa(lp279
V0021001024
p280
aVMAR 18, 2011
p281
aVBOS @ HOU
p282
aVL
p283
aI27
aI2
aI11
aF0.182
aI0
aI1
aF0.0
aI0
aI0
aF0.0
aI1
aI1
aI2
aI6
aI0
aI0
aI1
aI0
aI4
aI-22
aa(lp284
V0021001032
p285
aVMAR 19, 2011
p286
aVBOS @ NOH
p287
aVW
p288
aI29
aI4
aI8
aF0.5
aI0
aI0
aF0.0
aI1
aI2
aF0.5
aI0
aI1
aI1
aI5
aI1
aI0
aI0
aI2
aI9
aI-12
aa(lp289
V0021001046
p290
aVMAR 21, 2011
p291
aVBOS @ NYK
p292
aVW
p293
aI42
aI6
aI15
aF0.4
aI0
aI2
aF0.0
aI1
aI3
aF0.333
aI3
aI2
aI5
aI12
aI2
aI0
aI3
aI2
aI13
aI17
aa(lp294
V0021001057
p295
aVMAR 23, 2011
p296
aVBOS vs. MEM
p297
aVL
p298
aI41
aI2
aI12
aF0.167
aI0
aI1
aF0.0
aI2
aI3
aF0.667
aI0
aI11
aI11
aI11
aI8
aI0
aI4
aI1
aI6
aI5
aa(lp299
V0021001070
p300
aVMAR 25, 2011
p301
aVBOS vs. CHA
p302
aVL
p303
aI40
aI5
aI8
aF0.625
aI0
aI0
aF0.0
aI0
aI0
aF0.0
aI1
aI3
aI4
aI5
aI0
aI0
aI5
aI2
aI10
aI2
aa(lp304
V0021001097
p305
aVMAR 28, 2011
p306
aVBOS @ IND
p307
aVL
p308
aI40
aI9
aI13
aF0.692
aI0
aI0
aF0.0
aI4
aI4
aF1.0
aI2
aI2
aI4
aI8
aI0
aI0
aI1
aI0
aI22
aI2
aa(lp309
V0021001118
p310
aVMAR 31, 2011
p311
aVBOS @ SAS
p312
aVW
p313
aI41
aI11
aI20
aF0.55
aI0
aI1
aF0.0
aI0
aI2
aF0.0
aI2
aI3
aI5
aI14
aI0
aI0
aI0
aI1
aI22
aI10
aa(lp314
V0021001125
p315
aVAPR 01, 2011
p316
aVBOS @ ATL
p317
aVL
p318
aI32
aI6
aI15
aF0.4
aI0
aI1
aF0.0
aI1
aI4
aF0.25
aI2
aI8
aI10
aI5
aI0
aI0
aI1
aI0
aI13
aI-1
aa(lp319
V0021001140
p320
aVAPR 03, 2011
p321
aVBOS vs. DET
p322
aVW
p323
aI34
aI2
aI8
aF0.25
aI0
aI0
aF0.0
aI0
aI0
aF0.0
aI0
aI3
aI3
aI14
aI1
aI0
aI5
aI2
aI4
aI13
aa(lp324
V0021001154
p325
aVAPR 05, 2011
p326
aVBOS vs. PHI
p327
aVW
p328
aI32
aI6
aI14
aF0.429
aI0
aI2
aF0.0
aI4
aI4
aF1.0
aI0
aI4
aI4
aI13
aI1
aI0
aI3
aI1
aI16
aI18
aa(lp329
V0021001174
p330
aVAPR 07, 2011
p331
aVBOS @ CHI
p332
aVL
p333
aI31
aI3
aI10
aF0.3
aI0
aI0
aF0.0
aI1
aI3
aF0.333
aI3
aI2
aI5
aI6
aI1
aI0
aI0
aI1
aI7
aI-14
aa(lp334
V0021001179
p335
aVAPR 08, 2011
p336
aVBOS vs. WAS
p337
aVW
p338
aI42
aI7
aI12
aF0.583
aI0
aI1
aF0.0
aI6
aI6
aF1.0
aI0
aI3
aI3
aI14
aI6
aI1
aI6
aI0
aI20
aI20
aa(lp339
V0021001194
p340
aVAPR 10, 2011
p341
aVBOS @ MIA
p342
aVL
p343
aI37
aI3
aI8
aF0.375
aI0
aI1
aF0.0
aI1
aI2
aF0.5
aI1
aI0
aI1
aI5
aI2
aI0
aI3
aI1
aI7
aI-6
aasS'name'
p344
VRajon Rondo
p345
sS'experience'
p346
I4
s.