(dp0
S'stats'
p1
(lp2
(lp3
V0021000002
p4
aVOCT 26, 2010
p5
aVPOR vs. PHX
p6
aVW
p7
aI40
aI9
aI20
aF0.45
aI4
aI6
aF0.667
aI2
aI2
aF1.0
aI1
aI2
aI3
aI6
aI3
aI0
aI2
aI2
aI24
aI14
aa(lp8
V0021000016
p9
aVOCT 27, 2010
p10
aVPOR @ LAC
p11
aVW
p12
aI40
aI7
aI19
aF0.368
aI2
aI6
aF0.333
aI6
aI8
aF0.75
aI0
aI10
aI10
aI2
aI1
aI1
aI4
aI1
aI22
aI12
aa(lp13
V0021000033
p14
aVOCT 30, 2010
p15
aVPOR @ NYK
p16
aVW
p17
aI40
aI10
aI23
aF0.435
aI2
aI4
aF0.5
aI7
aI8
aF0.875
aI0
aI6
aI6
aI3
aI1
aI1
aI3
aI2
aI29
aI2
aa(lp18
V0021000044
p19
aVNOV 01, 2010
p20
aVPOR @ CHI
p21
aVL
p22
aI39
aI4
aI12
aF0.333
aI0
aI2
aF0.0
aI9
aI11
aF0.818
aI0
aI2
aI2
aI3
aI1
aI0
aI1
aI0
aI17
aI-4
aa(lp23
V0021000052
p24
aVNOV 02, 2010
p25
aVPOR @ MIL
p26
aVW
p27
aI38
aI7
aI17
aF0.412
aI1
aI5
aF0.2
aI2
aI2
aF1.0
aI0
aI0
aI0
aI2
aI5
aI1
aI3
aI3
aI17
aI8
aa(lp28
V0021000067
p29
aVNOV 04, 2010
p30
aVPOR vs. OKC
p31
aVL
p32
aI47
aI6
aI17
aF0.353
aI1
aI4
aF0.25
aI6
aI6
aF1.0
aI0
aI5
aI5
aI5
aI0
aI1
aI4
aI2
aI19
aI3
aa(lp33
V0021000087
p34
aVNOV 06, 2010
p35
aVPOR vs. TOR
p36
aVW
p37
aI37
aI9
aI19
aF0.474
aI0
aI3
aF0.0
aI8
aI8
aF1.0
aI0
aI2
aI2
aI0
aI2
aI2
aI1
aI2
aI26
aI29
aa(lp38
V0021000094
p39
aVNOV 07, 2010
p40
aVPOR @ LAL
p41
aVL
p42
aI31
aI1
aI6
aF0.167
aI0
aI1
aF0.0
aI6
aI6
aF1.0
aI0
aI2
aI2
aI3
aI1
aI0
aI0
aI2
aI8
aI-18
aa(lp43
V0021000106
p44
aVNOV 09, 2010
p45
aVPOR vs. DET
p46
aVW
p47
aI21
aI4
aI7
aF0.571
aI1
aI1
aF1.0
aI2
aI2
aF1.0
aI0
aI1
aI1
aI1
aI0
aI0
aI1
aI1
aI11
aI13
aa(lp48
V0021000128
p49
aVNOV 12, 2010
p50
aVPOR @ OKC
p51
aVL
p52
aI35
aI9
aI17
aF0.529
aI2
aI4
aF0.5
aI4
aI4
aF1.0
aI3
aI1
aI4
aI1
aI1
aI0
aI0
aI5
aI24
aI-10
aa(lp53
V0021000136
p54
aVNOV 13, 2010
p55
aVPOR @ NOH
p56
aVL
p57
aI22
aI1
aI7
aF0.143
aI0
aI2
aF0.0
aI0
aI0
aF0.0
aI1
aI0
aI1
aI2
aI1
aI0
aI1
aI1
aI2
aI-6
aa(lp58
V0021000233
p59
aVNOV 26, 2010
p60
aVPOR vs. NOH
p61
aVL
p62
aI34
aI10
aI20
aF0.5
aI3
aI6
aF0.5
aI4
aI4
aF1.0
aI0
aI3
aI3
aI4
aI1
aI0
aI0
aI1
aI27
aI-6
aa(lp63
V0021000246
p64
aVNOV 28, 2010
p65
aVPOR @ NJN
p66
aVL
p67
aI35
aI9
aI16
aF0.563
aI1
aI1
aF1.0
aI2
aI4
aF0.5
aI2
aI2
aI4
aI4
aI1
aI0
aI2
aI3
aI21
aI-6
aa(lp68
V0021000256
p69
aVNOV 30, 2010
p70
aVPOR @ PHI
p71
aVL
p72
aI33
aI3
aI9
aF0.333
aI2
aI2
aF1.0
aI2
aI2
aF1.0
aI0
aI2
aI2
aI0
aI0
aI1
aI2
aI3
aI10
aI2
aa(lp73
V0021000264
p74
aVDEC 01, 2010
p75
aVPOR @ BOS
p76
aVL
p77
aI37
aI5
aI10
aF0.5
aI0
aI2
aF0.0
aI8
aI9
aF0.889
aI0
aI3
aI3
aI3
aI1
aI0
aI0
aI3
aI18
aI4
aa(lp78
V0021000277
p79
aVDEC 03, 2010
p80
aVPOR @ WAS
p81
aVL
p82
aI38
aI9
aI21
aF0.429
aI0
aI3
aF0.0
aI0
aI0
aF0.0
aI1
aI1
aI2
aI4
aI0
aI1
aI3
aI1
aI18
aI-9
aa(lp83
V0021000301
p84
aVDEC 05, 2010
p85
aVPOR vs. LAC
p86
aVW
p87
aI31
aI3
aI13
aF0.231
aI1
aI1
aF1.0
aI7
aI8
aF0.875
aI0
aI1
aI1
aI3
aI0
aI0
aI1
aI0
aI14
aI7
aa(lp88
V0021000314
p89
aVDEC 07, 2010
p90
aVPOR vs. PHX
p91
aVW
p92
aI38
aI5
aI15
aF0.333
aI1
aI4
aF0.25
aI9
aI9
aF1.0
aI0
aI5
aI5
aI5
aI1
aI1
aI3
aI1
aI20
aI-3
aa(lp93
V0021000329
p94
aVDEC 09, 2010
p95
aVPOR vs. ORL
p96
aVW
p97
aI38
aI4
aI12
aF0.333
aI1
aI3
aF0.333
aI0
aI0
aF0.0
aI0
aI2
aI2
aI3
aI0
aI0
aI0
aI0
aI9
aI16
aa(lp98
V0021000338
p99
aVDEC 10, 2010
p100
aVPOR @ PHX
p101
aVW
p102
aI41
aI10
aI19
aF0.526
aI2
aI4
aF0.5
aI4
aI6
aF0.667
aI1
aI1
aI2
aI6
aI2
aI0
aI3
aI1
aI26
aI11
aa(lp103
V0021000353
p104
aVDEC 12, 2010
p105
aVPOR @ SAS
p106
aVL
p107
aI31
aI4
aI16
aF0.25
aI1
aI4
aF0.25
aI0
aI0
aF0.0
aI1
aI0
aI1
aI6
aI0
aI0
aI2
aI1
aI9
aI-9
aa(lp108
V0021000357
p109
aVDEC 13, 2010
p110
aVPOR @ MEM
p111
aVL
p112
aI38
aI3
aI16
aF0.188
aI0
aI4
aF0.0
aI1
aI1
aF1.0
aI2
aI3
aI5
aI5
aI2
aI1
aI1
aI4
aI7
aI1
aa(lp113
V0021000377
p114
aVDEC 15, 2010
p115
aVPOR @ DAL
p116
aVL
p117
aI30
aI2
aI5
aF0.4
aI0
aI0
aF0.0
aI0
aI2
aF0.0
aI0
aI2
aI2
aI5
aI2
aI0
aI0
aI2
aI4
aI-3
aa(lp118
V0021000858
p119
aVFEB 23, 2011
p120
aVPOR vs. LAL
p121
aVL
p122
aI16
aI2
aI5
aF0.4
aI1
aI2
aF0.5
aI0
aI0
aF0.0
aI0
aI1
aI1
aI0
aI0
aI0
aI0
aI1
aI5
aI8
aa(lp123
V0021000872
p124
aVFEB 25, 2011
p125
aVPOR vs. DEN
p126
aVW
p127
aI24
aI7
aI14
aF0.5
aI2
aI5
aF0.4
aI2
aI2
aF1.0
aI0
aI5
aI5
aI2
aI1
aI1
aI0
aI2
aI18
aI6
aa(lp128
V0021000888
p129
aVFEB 27, 2011
p130
aVPOR vs. ATL
p131
aVL
p132
aI18
aI3
aI9
aF0.333
aI0
aI3
aF0.0
aI0
aI0
aF0.0
aI1
aI0
aI1
aI0
aI0
aI0
aI0
aI1
aI6
aI-5
aa(lp133
V0021000901
p134
aVMAR 01, 2011
p135
aVPOR vs. HOU
p136
aVL
p137
aI21
aI2
aI7
aF0.286
aI0
aI0
aF0.0
aI0
aI0
aF0.0
aI0
aI3
aI3
aI2
aI1
aI0
aI1
aI2
aI4
aI-10
aa(lp138
V0021000929
p139
aVMAR 05, 2011
p140
aVPOR vs. CHA
p141
aVW
p142
aI21
aI4
aI10
aF0.4
aI1
aI3
aF0.333
aI1
aI2
aF0.5
aI1
aI1
aI2
aI1
aI1
aI0
aI0
aI0
aI10
aI11
aa(lp143
V0021000941
p144
aVMAR 07, 2011
p145
aVPOR @ ORL
p146
aVW
p147
aI24
aI4
aI8
aF0.5
aI1
aI3
aF0.333
aI0
aI0
aF0.0
aI0
aI4
aI4
aI2
aI1
aI0
aI0
aI1
aI9
aI2
aa(lp148
V0021000951
p149
aVMAR 08, 2011
p150
aVPOR @ MIA
p151
aVW
p152
aI23
aI5
aI8
aF0.625
aI3
aI3
aF1.0
aI1
aI1
aF1.0
aI0
aI0
aI0
aI1
aI0
aI0
aI0
aI2
aI14
aI14
aa(lp153
V0021000967
p154
aVMAR 11, 2011
p155
aVPOR @ CHA
p156
aVL
p157
aI27
aI4
aI11
aF0.364
aI1
aI4
aF0.25
aI0
aI0
aF0.0
aI0
aI1
aI1
aI5
aI1
aI1
aI0
aI2
aI9
aI-1
aa(lp158
V0021000977
p159
aVMAR 12, 2011
p160
aVPOR @ ATL
p161
aVL
p162
aI21
aI5
aI11
aF0.455
aI2
aI3
aF0.667
aI4
aI4
aF1.0
aI0
aI1
aI1
aI2
aI1
aI0
aI1
aI2
aI16
aI-1
aa(lp163
V0021001002
p164
aVMAR 15, 2011
p165
aVPOR vs. DAL
p166
aVW
p167
aI28
aI9
aI17
aF0.529
aI0
aI2
aF0.0
aI3
aI4
aF0.75
aI2
aI1
aI3
aI2
aI0
aI0
aI0
aI1
aI21
aI6
aa(lp168
V0021001016
p169
aVMAR 17, 2011
p170
aVPOR vs. CLE
p171
aVW
p172
aI14
aI1
aI3
aF0.333
aI0
aI0
aF0.0
aI0
aI0
aF0.0
aI0
aI0
aI0
aI0
aI0
aI0
aI1
aI2
aI2
aI4
aa(lp173
V0021001034
p174
aVMAR 19, 2011
p175
aVPOR vs. PHI
p176
aVW
p177
aI17
aI1
aI4
aF0.25
aI0
aI1
aF0.0
aI4
aI4
aF1.0
aI0
aI4
aI4
aI2
aI0
aI0
aI0
aI0
aI6
aI-2
aa(lp178
V0021001043
p179
aVMAR 20, 2011
p180
aVPOR @ LAL
p181
aVL
p182
aI25
aI3
aI12
aF0.25
aI0
aI5
aF0.0
aI2
aI2
aF1.0
aI1
aI1
aI2
aI1
aI1
aI0
aI1
aI1
aI8
aI3
aa(lp183
V0021001052
p184
aVMAR 22, 2011
p185
aVPOR vs. WAS
p186
aVW
p187
aI20
aI0
aI6
aF0.0
aI0
aI0
aF0.0
aI1
aI2
aF0.5
aI3
aI2
aI5
aI3
aI2
aI0
aI1
aI1
aI1
aI7
aa(lp188
V0021001078
p189
aVMAR 25, 2011
p190
aVPOR vs. SAS
p191
aVW
p192
aI17
aI3
aI7
aF0.429
aI0
aI1
aF0.0
aI0
aI0
aF0.0
aI1
aI1
aI2
aI2
aI0
aI0
aI3
aI2
aI6
aI-10
aa(lp193
V0021001092
p194
aVMAR 27, 2011
p195
aVPOR @ OKC
p196
aVL
p197
aI13
aI2
aI3
aF0.667
aI0
aI0
aF0.0
aI0
aI0
aF0.0
aI0
aI0
aI0
aI3
aI0
aI0
aI0
aI1
aI4
aI-5
aa(lp198
V0021001099
p199
aVMAR 28, 2011
p200
aVPOR @ SAS
p201
aVW
p202
aI24
aI5
aI7
aF0.714
aI0
aI0
aF0.0
aI1
aI3
aF0.333
aI0
aI0
aI0
aI4
aI1
aI0
aI5
aI2
aI11
aI-4
aa(lp203
V0021001114
p204
aVMAR 30, 2011
p205
aVPOR @ NOH
p206
aVL
p207
aI21
aI2
aI6
aF0.333
aI0
aI0
aF0.0
aI1
aI2
aF0.5
aI0
aI0
aI0
aI2
aI0
aI0
aI1
aI1
aI5
aI-1
aa(lp208
V0021001130
p209
aVAPR 01, 2011
p210
aVPOR vs. OKC
p211
aVW
p212
aI15
aI0
aI1
aF0.0
aI0
aI0
aF0.0
aI4
aI4
aF1.0
aI0
aI2
aI2
aI4
aI0
aI0
aI1
aI1
aI4
aI6
aa(lp213
V0021001148
p214
aVAPR 03, 2011
p215
aVPOR vs. DAL
p216
aVW
p217
aI25
aI3
aI9
aF0.333
aI1
aI2
aF0.5
aI2
aI2
aF1.0
aI0
aI2
aI2
aI4
aI0
aI0
aI1
aI2
aI9
aI11
aa(lp218
V0021001160
p219
aVAPR 05, 2011
p220
aVPOR vs. GSW
p221
aVL
p222
aI16
aI2
aI11
aF0.182
aI0
aI1
aF0.0
aI1
aI2
aF0.5
aI5
aI3
aI8
aI1
aI0
aI0
aI0
aI1
aI5
aI-12
aa(lp223
V0021001175
p224
aVAPR 07, 2011
p225
aVPOR @ UTA
p226
aVW
p227
aI21
aI5
aI8
aF0.625
aI0
aI1
aF0.0
aI1
aI2
aF0.5
aI1
aI2
aI3
aI2
aI0
aI0
aI1
aI2
aI11
aI1
aa(lp228
V0021001187
p229
aVAPR 08, 2011
p230
aVPOR vs. LAL
p231
aVW
p232
aI29
aI2
aI6
aF0.333
aI1
aI2
aF0.5
aI0
aI0
aF0.0
aI0
aI3
aI3
aI3
aI1
aI0
aI0
aI4
aI5
aI0
aa(lp233
V0021001214
p234
aVAPR 12, 2011
p235
aVPOR vs. MEM
p236
aVW
p237
aI16
aI1
aI4
aF0.25
aI0
aI1
aF0.0
aI0
aI0
aF0.0
aI1
aI0
aI1
aI5
aI0
aI0
aI1
aI1
aI2
aI5
aasS'name'
p238
VBrandon Roy
p239
sS'weight'
p240
V211
p241
sS'age'
p242
I26
sS'experience'
p243
I4
sS'height'
p244
V6-6
p245
sS'position'
p246
VGuard
p247
s.