(dp0
S'age'
p1
I26
sS'stats'
p2
(lp3
(lp4
V0021000898
p5
aVMAR 01, 2011
p6
aVMEM vs. SAS
p7
aVW
p8
aI2
aI0
aI1
aF0.0
aI0
aI1
aF0.0
aI0
aI0
aF0.0
aI0
aI0
aI0
aI0
aI0
aI0
aI0
aI0
aI0
aI0
aa(lp9
V0021000875
p10
aVFEB 26, 2011
p11
aVMEM vs. SAC
p12
aVW
p13
aI3
aI1
aI2
aF0.5
aI0
aI0
aF0.0
aI0
aI0
aF0.0
aI1
aI0
aI1
aI0
aI1
aI0
aI0
aI0
aI2
aI-5
aa(lp14
V0021000486
p15
aVJAN 01, 2011
p16
aVGSW @ MIA
p17
aVL
p18
aI8
aI1
aI4
aF0.25
aI1
aI1
aF1.0
aI0
aI0
aF0.0
aI0
aI2
aI2
aI1
aI0
aI0
aI0
aI1
aI3
aI-2
aa(lp19
V0021000477
p20
aVDEC 31, 2010
p21
aVGSW @ CHA
p22
aVW
p23
aI5
aI0
aI1
aF0.0
aI0
aI1
aF0.0
aI0
aI0
aF0.0
aI0
aI0
aI0
aI0
aI0
aI2
aI0
aI2
aI0
aI-4
aa(lp24
V0021000454
p25
aVDEC 27, 2010
p26
aVGSW vs. PHI
p27
aVW
p28
aI8
aI2
aI4
aF0.5
aI2
aI2
aF1.0
aI0
aI0
aF0.0
aI1
aI4
aI5
aI0
aI0
aI0
aI0
aI1
aI6
aI9
aa(lp29
V0021000437
p30
aVDEC 25, 2010
p31
aVGSW vs. POR
p32
aVW
p33
aI15
aI1
aI1
aF1.0
aI1
aI1
aF1.0
aI2
aI2
aF1.0
aI0
aI3
aI3
aI0
aI1
aI1
aI1
aI1
aI5
aI-3
aa(lp34
V0021000413
p35
aVDEC 20, 2010
p36
aVGSW vs. HOU
p37
aVL
p38
aI9
aI1
aI4
aF0.25
aI1
aI2
aF0.5
aI0
aI0
aF0.0
aI0
aI0
aI0
aI1
aI1
aI0
aI1
aI0
aI3
aI-1
aa(lp39
V0021000399
p40
aVDEC 18, 2010
p41
aVGSW @ POR
p42
aVL
p43
aI19
aI4
aI6
aF0.667
aI2
aI2
aF1.0
aI0
aI0
aF0.0
aI1
aI2
aI3
aI0
aI1
aI0
aI0
aI1
aI10
aI6
aa(lp44
V0021000274
p45
aVDEC 02, 2010
p46
aVGSW vs. PHX
p47
aVL
p48
aI17
aI1
aI3
aF0.333
aI1
aI1
aF1.0
aI1
aI2
aF0.5
aI0
aI1
aI1
aI0
aI0
aI0
aI1
aI2
aI4
aI3
aa(lp49
V0021000260
p50
aVNOV 30, 2010
p51
aVGSW vs. SAS
p52
aVL
p53
aI19
aI3
aI8
aF0.375
aI1
aI2
aF0.5
aI0
aI0
aF0.0
aI1
aI5
aI6
aI0
aI0
aI0
aI0
aI2
aI7
aI-12
aa(lp54
V0021000238
p55
aVNOV 27, 2010
p56
aVGSW @ MIN
p57
aVW
p58
aI7
aI0
aI2
aF0.0
aI0
aI1
aF0.0
aI0
aI0
aF0.0
aI0
aI0
aI0
aI0
aI0
aI0
aI0
aI0
aI0
aI-8
aa(lp59
V0021000232
p60
aVNOV 26, 2010
p61
aVGSW @ MEM
p62
aVL
p63
aI9
aI0
aI3
aF0.0
aI0
aI1
aF0.0
aI0
aI0
aF0.0
aI0
aI1
aI1
aI0
aI0
aI0
aI1
aI1
aI0
aI-8
aa(lp64
V0021000217
p65
aVNOV 24, 2010
p66
aVGSW @ HOU
p67
aVL
p68
aI14
aI2
aI4
aF0.5
aI0
aI1
aF0.0
aI0
aI0
aF0.0
aI1
aI0
aI1
aI0
aI1
aI0
aI1
aI2
aI4
aI3
aa(lp69
V0021000201
p70
aVNOV 22, 2010
p71
aVGSW vs. DEN
p72
aVL
p73
aI20
aI7
aI9
aF0.778
aI2
aI3
aF0.667
aI0
aI0
aF0.0
aI0
aI0
aI0
aI0
aI1
aI0
aI2
aI1
aI16
aI-8
aa(lp74
V0021000194
p75
aVNOV 21, 2010
p76
aVGSW @ LAL
p77
aVL
p78
aI9
aI2
aI4
aF0.5
aI0
aI1
aF0.0
aI0
aI0
aF0.0
aI0
aI0
aI0
aI0
aI1
aI0
aI1
aI0
aI4
aI-7
aa(lp79
V0021000181
p80
aVNOV 19, 2010
p81
aVGSW vs. NYK
p82
aVL
p83
aI9
aI0
aI1
aF0.0
aI0
aI1
aF0.0
aI0
aI0
aF0.0
aI0
aI0
aI0
aI0
aI0
aI0
aI0
aI2
aI0
aI-10
aa(lp84
V0021000149
p85
aVNOV 15, 2010
p86
aVGSW vs. DET
p87
aVW
p88
aI15
aI2
aI5
aF0.4
aI0
aI1
aF0.0
aI3
aI4
aF0.75
aI0
aI3
aI3
aI0
aI3
aI0
aI0
aI0
aI7
aI9
aa(lp89
V0021000137
p90
aVNOV 13, 2010
p91
aVGSW @ MIL
p92
aVL
p93
aI7
aI1
aI4
aF0.25
aI1
aI1
aF1.0
aI0
aI0
aF0.0
aI1
aI0
aI1
aI0
aI0
aI0
aI0
aI1
aI3
aI-5
aa(lp94
V0021000119
p95
aVNOV 11, 2010
p96
aVGSW @ CHI
p97
aVL
p98
aI18
aI2
aI5
aF0.4
aI1
aI1
aF1.0
aI0
aI1
aF0.0
aI0
aI1
aI1
aI0
aI1
aI0
aI0
aI0
aI5
aI-10
aa(lp99
V0021000113
p100
aVNOV 10, 2010
p101
aVGSW @ NYK
p102
aVW
p103
aI5
aI0
aI0
aF0.0
aI0
aI0
aF0.0
aI0
aI0
aF0.0
aI0
aI0
aI0
aI1
aI0
aI0
aI0
aI2
aI0
aI-1
aa(lp104
V0021000097
p105
aVNOV 08, 2010
p106
aVGSW @ TOR
p107
aVW
p108
aI19
aI2
aI3
aF0.667
aI1
aI2
aF0.5
aI0
aI0
aF0.0
aI0
aI1
aI1
aI1
aI0
aI0
aI0
aI3
aI5
aI-1
aa(lp109
V0021000091
p110
aVNOV 07, 2010
p111
aVGSW @ DET
p112
aVL
p113
aI10
aI1
aI2
aF0.5
aI1
aI2
aF0.5
aI3
aI4
aF0.75
aI0
aI2
aI2
aI0
aI0
aI0
aI0
aI3
aI6
aI-3
aa(lp114
V0021000078
p115
aVNOV 05, 2010
p116
aVGSW vs. UTA
p117
aVW
p118
aI16
aI1
aI5
aF0.2
aI0
aI2
aF0.0
aI0
aI1
aF0.0
aI0
aI0
aI0
aI1
aI0
aI0
aI2
aI3
aI2
aI-6
aa(lp119
V0021000063
p120
aVNOV 03, 2010
p121
aVGSW vs. MEM
p122
aVW
p123
aI20
aI3
aI7
aF0.429
aI0
aI2
aF0.0
aI1
aI1
aF1.0
aI0
aI2
aI2
aI0
aI0
aI1
aI2
aI1
aI7
aI-2
aa(lp124
V0021000043
p125
aVOCT 31, 2010
p126
aVGSW @ LAL
p127
aVL
p128
aI17
aI3
aI7
aF0.429
aI0
aI1
aF0.0
aI2
aI2
aF1.0
aI1
aI7
aI8
aI2
aI1
aI0
aI4
aI0
aI8
aI-6
aa(lp129
V0021000029
p130
aVOCT 29, 2010
p131
aVGSW vs. LAC
p132
aVW
p133
aI20
aI4
aI8
aF0.5
aI2
aI2
aF1.0
aI2
aI6
aF0.333
aI3
aI0
aI3
aI3
aI0
aI0
aI0
aI2
aI12
aI1
aa(lp134
V0021000015
p135
aVOCT 27, 2010
p136
aVGSW vs. HOU
p137
aVW
p138
aI17
aI2
aI7
aF0.286
aI0
aI3
aF0.0
aI4
aI4
aF1.0
aI3
aI1
aI4
aI1
aI0
aI1
aI0
aI2
aI8
aI-12
aasS'name'
p139
VRodney Carney
p140
sS'experience'
p141
I4
s.