(dp0
S'age'
p1
I27
sS'stats'
p2
(lp3
(lp4
V0021001062
p5
aVMAR 23, 2011
p6
aVHOU vs. GSW
p7
aVW
p8
aI2
aI1
aI1
aF1.0
aI0
aI0
aF0.0
aI0
aI0
aF0.0
aI0
aI0
aI0
aI0
aI0
aI0
aI0
aI1
aI2
aI4
aa(lp9
V0021001102
p10
aVMAR 29, 2011
p11
aVHOU @ NJN
p12
aVW
p13
aI3
aI1
aI2
aF0.5
aI0
aI0
aF0.0
aI0
aI0
aF0.0
aI0
aI0
aI0
aI0
aI0
aI0
aI0
aI0
aI2
aI2
aa(lp14
V0021001108
p15
aVMAR 30, 2011
p16
aVHOU @ PHI
p17
aVL
p18
aI1
aI0
aI0
aF0.0
aI0
aI0
aF0.0
aI0
aI0
aF0.0
aI0
aI0
aI0
aI0
aI0
aI0
aI0
aI0
aI0
aI0
aa(lp19
V0021001189
p20
aVAPR 09, 2011
p21
aVHOU vs. LAC
p22
aVW
p23
aI9
aI1
aI3
aF0.333
aI0
aI0
aF0.0
aI2
aI4
aF0.5
aI2
aI3
aI5
aI1
aI0
aI1
aI1
aI1
aI4
aI12
aasS'name'
p24
VMichael Harris
p25
sS'experience'
p26
I3
s.