(dp0
S'age'
p1
I24
sS'stats'
p2
(lp3
(lp4
V0021000010
p5
aVOCT 27, 2010
p6
aVNOH vs. MIL
p7
aVW
p8
aI35
aI6
aI15
aF0.4
aI1
aI5
aF0.2
aI5
aI5
aF1.0
aI0
aI6
aI6
aI2
aI0
aI0
aI1
aI1
aI18
aI5
aa(lp9
V0021000027
p10
aVOCT 29, 2010
p11
aVNOH vs. DEN
p12
aVW
p13
aI24
aI2
aI8
aF0.25
aI1
aI3
aF0.333
aI0
aI0
aF0.0
aI0
aI0
aI0
aI2
aI1
aI0
aI0
aI2
aI5
aI4
aa(lp14
V0021000039
p15
aVOCT 30, 2010
p16
aVNOH @ SAS
p17
aVW
p18
aI23
aI1
aI4
aF0.25
aI1
aI2
aF0.5
aI0
aI0
aF0.0
aI0
aI2
aI2
aI2
aI1
aI1
aI1
aI0
aI3
aI10
aa(lp19
V0021000059
p20
aVNOV 03, 2010
p21
aVNOH @ HOU
p22
aVW
p23
aI25
aI7
aI12
aF0.583
aI4
aI7
aF0.571
aI0
aI1
aF0.0
aI0
aI1
aI1
aI1
aI0
aI0
aI0
aI3
aI18
aI13
aa(lp24
V0021000075
p25
aVNOV 05, 2010
p26
aVNOH vs. MIA
p27
aVW
p28
aI31
aI3
aI7
aF0.429
aI0
aI2
aF0.0
aI2
aI2
aF1.0
aI0
aI1
aI1
aI3
aI0
aI0
aI1
aI3
aI8
aI4
aa(lp29
V0021000083
p30
aVNOV 06, 2010
p31
aVNOH @ MIL
p32
aVW
p33
aI30
aI5
aI9
aF0.556
aI4
aI7
aF0.571
aI0
aI0
aF0.0
aI1
aI4
aI5
aI0
aI1
aI0
aI5
aI2
aI14
aI14
aa(lp34
V0021000105
p35
aVNOV 09, 2010
p36
aVNOH vs. LAC
p37
aVW
p38
aI24
aI4
aI9
aF0.444
aI1
aI4
aF0.25
aI2
aI3
aF0.667
aI0
aI2
aI2
aI1
aI1
aI0
aI2
aI4
aI11
aI9
aa(lp39
V0021000136
p40
aVNOV 13, 2010
p41
aVNOH vs. POR
p42
aVW
p43
aI30
aI6
aI9
aF0.667
aI4
aI6
aF0.667
aI2
aI2
aF1.0
aI0
aI3
aI3
aI0
aI1
aI0
aI0
aI2
aI18
aI9
aa(lp44
V0021000146
p45
aVNOV 15, 2010
p46
aVNOH @ DAL
p47
aVL
p48
aI22
aI2
aI5
aF0.4
aI0
aI3
aF0.0
aI4
aI5
aF0.8
aI0
aI1
aI1
aI0
aI0
aI0
aI0
aI2
aI8
aI2
aa(lp49
V0021000163
p50
aVNOV 17, 2010
p51
aVNOH vs. DAL
p52
aVW
p53
aI32
aI6
aI10
aF0.6
aI3
aI4
aF0.75
aI2
aI3
aF0.667
aI0
aI4
aI4
aI1
aI1
aI0
aI1
aI4
aI17
aI4
aa(lp54
V0021000177
p55
aVNOV 19, 2010
p56
aVNOH vs. CLE
p57
aVW
p58
aI32
aI5
aI11
aF0.455
aI3
aI8
aF0.375
aI7
aI7
aF1.0
aI0
aI1
aI1
aI5
aI0
aI0
aI1
aI4
aI20
aI3
aa(lp59
V0021000193
p60
aVNOV 21, 2010
p61
aVNOH @ SAC
p62
aVW
p63
aI33
aI4
aI12
aF0.333
aI2
aI4
aF0.5
aI2
aI2
aF1.0
aI0
aI4
aI4
aI0
aI0
aI0
aI2
aI2
aI12
aI8
aa(lp64
V0021000202
p65
aVNOV 22, 2010
p66
aVNOH @ LAC
p67
aVL
p68
aI39
aI4
aI11
aF0.364
aI2
aI9
aF0.222
aI4
aI6
aF0.667
aI0
aI0
aI0
aI1
aI0
aI0
aI2
aI2
aI14
aI-4
aa(lp69
V0021000219
p70
aVNOV 24, 2010
p71
aVNOH @ UTA
p72
aVL
p73
aI29
aI3
aI6
aF0.5
aI2
aI4
aF0.5
aI2
aI3
aF0.667
aI0
aI1
aI1
aI0
aI0
aI0
aI1
aI1
aI10
aI-8
aa(lp74
V0021000233
p75
aVNOV 26, 2010
p76
aVNOH @ POR
p77
aVW
p78
aI29
aI5
aI8
aF0.625
aI4
aI5
aF0.8
aI0
aI0
aF0.0
aI0
aI4
aI4
aI0
aI0
aI0
aI1
aI2
aI14
aI18
aa(lp79
V0021000244
p80
aVNOV 28, 2010
p81
aVNOH vs. SAS
p82
aVL
p83
aI29
aI3
aI9
aF0.333
aI1
aI2
aF0.5
aI5
aI6
aF0.833
aI1
aI0
aI1
aI2
aI0
aI0
aI0
aI1
aI12
aI-10
aa(lp84
V0021000251
p85
aVNOV 29, 2010
p86
aVNOH @ OKC
p87
aVL
p88
aI30
aI3
aI10
aF0.3
aI2
aI6
aF0.333
aI2
aI2
aF1.0
aI1
aI1
aI2
aI0
aI0
aI0
aI2
aI1
aI10
aI-1
aa(lp89
V0021000267
p90
aVDEC 01, 2010
p91
aVNOH vs. CHA
p92
aVW
p93
aI20
aI2
aI6
aF0.333
aI1
aI4
aF0.25
aI1
aI2
aF0.5
aI0
aI0
aI0
aI3
aI0
aI0
aI0
aI1
aI6
aI2
aa(lp94
V0021000282
p95
aVDEC 03, 2010
p96
aVNOH vs. NYK
p97
aVL
p98
aI38
aI4
aI12
aF0.333
aI1
aI5
aF0.2
aI0
aI0
aF0.0
aI0
aI2
aI2
aI1
aI1
aI0
aI2
aI1
aI9
aI-6
aa(lp99
V0021000298
p100
aVDEC 05, 2010
p101
aVNOH @ SAS
p102
aVL
p103
aI21
aI0
aI6
aF0.0
aI0
aI0
aF0.0
aI2
aI3
aF0.667
aI0
aI2
aI2
aI2
aI1
aI0
aI0
aI0
aI2
aI-22
aa(lp104
V0021000321
p105
aVDEC 08, 2010
p106
aVNOH vs. DET
p107
aVW
p108
aI27
aI8
aI12
aF0.667
aI4
aI7
aF0.571
aI2
aI2
aF1.0
aI0
aI0
aI0
aI2
aI0
aI0
aI0
aI2
aI22
aI7
aa(lp109
V0021000335
p110
aVDEC 10, 2010
p111
aVNOH vs. OKC
p112
aVL
p113
aI37
aI5
aI14
aF0.357
aI2
aI7
aF0.286
aI3
aI4
aF0.75
aI0
aI4
aI4
aI1
aI1
aI0
aI4
aI2
aI15
aI-13
aa(lp114
V0021000350
p115
aVDEC 12, 2010
p116
aVNOH @ PHI
p117
aVL
p118
aI24
aI3
aI9
aF0.333
aI0
aI3
aF0.0
aI0
aI0
aF0.0
aI0
aI1
aI1
aI0
aI1
aI0
aI0
aI1
aI6
aI-10
aa(lp119
V0021000355
p120
aVDEC 13, 2010
p121
aVNOH @ MIA
p122
aVL
p123
aI30
aI2
aI9
aF0.222
aI1
aI7
aF0.143
aI4
aI5
aF0.8
aI0
aI1
aI1
aI2
aI0
aI0
aI0
aI0
aI9
aI-8
aa(lp124
V0021000373
p125
aVDEC 15, 2010
p126
aVNOH vs. SAC
p127
aVW
p128
aI21
aI3
aI9
aF0.333
aI1
aI4
aF0.25
aI2
aI2
aF1.0
aI1
aI2
aI3
aI1
aI1
aI0
aI3
aI1
aI9
aI-17
aa(lp129
V0021000387
p130
aVDEC 17, 2010
p131
aVNOH vs. UTA
p132
aVW
p133
aI24
aI3
aI7
aF0.429
aI2
aI4
aF0.5
aI0
aI0
aF0.0
aI0
aI4
aI4
aI3
aI1
aI0
aI1
aI1
aI8
aI11
aa(lp134
V0021000403
p135
aVDEC 19, 2010
p136
aVNOH @ DET
p137
aVL
p138
aI29
aI2
aI6
aF0.333
aI2
aI3
aF0.667
aI0
aI0
aF0.0
aI1
aI2
aI3
aI2
aI1
aI0
aI1
aI3
aI6
aI-3
aa(lp139
V0021000408
p140
aVDEC 20, 2010
p141
aVNOH @ IND
p142
aVL
p143
aI34
aI7
aI14
aF0.5
aI0
aI3
aF0.0
aI0
aI4
aF0.0
aI1
aI2
aI3
aI2
aI1
aI0
aI0
aI3
aI14
aI7
aa(lp144
V0021000427
p145
aVDEC 22, 2010
p146
aVNOH vs. NJN
p147
aVW
p148
aI27
aI6
aI8
aF0.75
aI2
aI3
aF0.667
aI0
aI0
aF0.0
aI0
aI1
aI1
aI1
aI0
aI0
aI1
aI2
aI14
aI9
aa(lp149
V0021000442
p150
aVDEC 26, 2010
p151
aVNOH vs. ATL
p152
aVW
p153
aI20
aI0
aI6
aF0.0
aI0
aI3
aF0.0
aI0
aI0
aF0.0
aI1
aI2
aI3
aI0
aI0
aI0
aI1
aI2
aI0
aI1
aa(lp154
V0021000449
p155
aVDEC 27, 2010
p156
aVNOH @ MIN
p157
aVL
p158
aI29
aI5
aI12
aF0.417
aI1
aI1
aF1.0
aI0
aI0
aF0.0
aI0
aI2
aI2
aI0
aI0
aI0
aI1
aI2
aI11
aI-18
aa(lp159
V0021000467
p160
aVDEC 29, 2010
p161
aVNOH vs. LAL
p162
aVL
p163
aI33
aI4
aI16
aF0.25
aI1
aI6
aF0.167
aI6
aI7
aF0.857
aI0
aI1
aI1
aI0
aI1
aI0
aI0
aI3
aI15
aI-10
aa(lp164
V0021000476
p165
aVDEC 31, 2010
p166
aVNOH @ BOS
p167
aVW
p168
aI30
aI4
aI9
aF0.444
aI2
aI3
aF0.667
aI0
aI0
aF0.0
aI1
aI1
aI2
aI3
aI1
aI1
aI0
aI3
aI10
aI19
aa(lp169
V0021000484
p170
aVJAN 01, 2011
p171
aVNOH @ WAS
p172
aVW
p173
aI26
aI3
aI7
aF0.429
aI2
aI3
aF0.667
aI3
aI4
aF0.75
aI0
aI2
aI2
aI2
aI0
aI0
aI2
aI2
aI11
aI10
aa(lp174
V0021000502
p175
aVJAN 03, 2011
p176
aVNOH vs. PHI
p177
aVW
p178
aI29
aI4
aI7
aF0.571
aI1
aI2
aF0.5
aI0
aI0
aF0.0
aI0
aI3
aI3
aI4
aI1
aI0
aI1
aI2
aI9
aI-3
aa(lp179
V0021000518
p180
aVJAN 05, 2011
p181
aVNOH vs. GSW
p182
aVL
p183
aI29
aI7
aI12
aF0.583
aI2
aI6
aF0.333
aI0
aI0
aF0.0
aI1
aI0
aI1
aI1
aI0
aI0
aI1
aI3
aI16
aI0
aa(lp184
V0021000535
p185
aVJAN 07, 2011
p186
aVNOH @ LAL
p187
aVL
p188
aI27
aI5
aI11
aF0.455
aI3
aI4
aF0.75
aI4
aI4
aF1.0
aI1
aI0
aI1
aI0
aI3
aI0
aI2
aI4
aI17
aI2
aa(lp189
V0021000548
p190
aVJAN 09, 2011
p191
aVNOH @ DEN
p192
aVW
p193
aI25
aI2
aI5
aF0.4
aI1
aI1
aF1.0
aI2
aI2
aF1.0
aI0
aI3
aI3
aI2
aI1
aI0
aI1
aI2
aI7
aI7
aa(lp194
V0021000567
p195
aVJAN 12, 2011
p196
aVNOH vs. ORL
p197
aVW
p198
aI1
aI0
aI0
aF0.0
aI0
aI0
aF0.0
aI0
aI0
aF0.0
aI0
aI1
aI1
aI0
aI0
aI0
aI0
aI0
aI0
aI0
aa(lp199
V0021000603
p200
aVJAN 17, 2011
p201
aVNOH vs. TOR
p202
aVW
p203
aI15
aI1
aI5
aF0.2
aI0
aI2
aF0.0
aI0
aI0
aF0.0
aI0
aI1
aI1
aI0
aI1
aI0
aI0
aI1
aI2
aI2
aa(lp204
V0021000618
p205
aVJAN 19, 2011
p206
aVNOH vs. MEM
p207
aVW
p208
aI16
aI4
aI7
aF0.571
aI0
aI2
aF0.0
aI0
aI0
aF0.0
aI1
aI0
aI1
aI2
aI0
aI0
aI2
aI0
aI8
aI-10
aa(lp209
V0021000631
p210
aVJAN 21, 2011
p211
aVNOH @ ATL
p212
aVW
p213
aI22
aI5
aI8
aF0.625
aI3
aI5
aF0.6
aI2
aI2
aF1.0
aI0
aI2
aI2
aI1
aI0
aI0
aI0
aI1
aI15
aI26
aa(lp214
V0021000646
p215
aVJAN 22, 2011
p216
aVNOH vs. SAS
p217
aVW
p218
aI21
aI2
aI10
aF0.2
aI2
aI5
aF0.4
aI1
aI2
aF0.5
aI0
aI1
aI1
aI4
aI0
aI0
aI1
aI3
aI7
aI29
aa(lp219
V0021000660
p220
aVJAN 24, 2011
p221
aVNOH vs. OKC
p222
aVW
p223
aI13
aI1
aI4
aF0.25
aI0
aI2
aF0.0
aI0
aI0
aF0.0
aI0
aI0
aI0
aI0
aI0
aI0
aI2
aI0
aI2
aI-13
aa(lp224
V0021000677
p225
aVJAN 26, 2011
p226
aVNOH @ GSW
p227
aVW
p228
aI21
aI5
aI8
aF0.625
aI1
aI3
aF0.333
aI0
aI0
aF0.0
aI0
aI2
aI2
aI4
aI0
aI0
aI3
aI3
aI11
aI-3
aa(lp229
V0021000699
p230
aVJAN 29, 2011
p231
aVNOH @ SAC
p232
aVL
p233
aI23
aI2
aI9
aF0.222
aI1
aI4
aF0.25
aI0
aI0
aF0.0
aI1
aI1
aI2
aI1
aI0
aI0
aI1
aI2
aI5
aI-7
aa(lp234
V0021000706
p235
aVJAN 30, 2011
p236
aVNOH @ PHX
p237
aVL
p238
aI14
aI1
aI4
aF0.25
aI0
aI2
aF0.0
aI0
aI0
aF0.0
aI0
aI1
aI1
aI0
aI0
aI0
aI0
aI1
aI2
aI-11
aa(lp239
V0021000715
p240
aVFEB 01, 2011
p241
aVNOH vs. WAS
p242
aVW
p243
aI13
aI0
aI5
aF0.0
aI0
aI2
aF0.0
aI2
aI2
aF1.0
aI0
aI1
aI1
aI0
aI0
aI0
aI0
aI0
aI2
aI2
aa(lp244
V0021000725
p245
aVFEB 02, 2011
p246
aVNOH @ OKC
p247
aVL
p248
aI20
aI3
aI6
aF0.5
aI0
aI3
aF0.0
aI0
aI0
aF0.0
aI0
aI1
aI1
aI1
aI0
aI0
aI0
aI1
aI6
aI-4
aa(lp249
V0021000748
p250
aVFEB 05, 2011
p251
aVNOH vs. LAL
p252
aVL
p253
aI24
aI3
aI10
aF0.3
aI3
aI7
aF0.429
aI0
aI0
aF0.0
aI0
aI4
aI4
aI1
aI0
aI0
aI1
aI2
aI9
aI-1
aa(lp254
V0021000760
p255
aVFEB 07, 2011
p256
aVNOH vs. MIN
p257
aVL
p258
aI28
aI6
aI16
aF0.375
aI3
aI8
aF0.375
aI0
aI0
aF0.0
aI0
aI3
aI3
aI3
aI1
aI0
aI1
aI2
aI15
aI4
aa(lp259
V0021000775
p260
aVFEB 09, 2011
p261
aVNOH @ NJN
p262
aVL
p263
aI24
aI6
aI10
aF0.6
aI5
aI7
aF0.714
aI0
aI0
aF0.0
aI0
aI3
aI3
aI1
aI2
aI1
aI0
aI1
aI17
aI7
aa(lp264
V0021000788
p265
aVFEB 11, 2011
p266
aVNOH @ ORL
p267
aVW
p268
aI14
aI1
aI5
aF0.2
aI1
aI3
aF0.333
aI0
aI0
aF0.0
aI0
aI2
aI2
aI1
aI0
aI1
aI0
aI1
aI3
aI4
aa(lp269
V0021000800
p270
aVFEB 12, 2011
p271
aVNOH vs. CHI
p272
aVL
p273
aI8
aI1
aI2
aF0.5
aI0
aI0
aF0.0
aI0
aI2
aF0.0
aI0
aI0
aI0
aI0
aI0
aI0
aI0
aI0
aI2
aI-8
aa(lp274
V0021000823
p275
aVFEB 15, 2011
p276
aVNOH @ GSW
p277
aVL
p278
aI22
aI5
aI8
aF0.625
aI2
aI4
aF0.5
aI3
aI4
aF0.75
aI1
aI1
aI2
aI0
aI0
aI0
aI0
aI3
aI15
aI-4
aa(lp279
V0021000835
p280
aVFEB 16, 2011
p281
aVNOH @ POR
p282
aVL
p283
aI6
aI0
aI1
aF0.0
aI0
aI1
aF0.0
aI0
aI0
aF0.0
aI0
aI1
aI1
aI0
aI0
aI0
aI0
aI0
aI0
aI-4
aa(lp284
V0021000854
p285
aVFEB 23, 2011
p286
aVNOH vs. LAC
p287
aVW
p288
aI16
aI5
aI7
aF0.714
aI1
aI2
aF0.5
aI1
aI1
aF1.0
aI0
aI0
aI0
aI1
aI0
aI0
aI0
aI1
aI12
aI-3
aa(lp289
V0021000868
p290
aVFEB 25, 2011
p291
aVNOH @ MIN
p292
aVW
p293
aI12
aI2
aI5
aF0.4
aI0
aI0
aF0.0
aI1
aI2
aF0.5
aI0
aI1
aI1
aI0
aI0
aI0
aI0
aI1
aI5
aI4
aa(lp294
V0021000885
p295
aVFEB 27, 2011
p296
aVNOH vs. HOU
p297
aVL
p298
aI15
aI6
aI8
aF0.75
aI2
aI2
aF1.0
aI0
aI0
aF0.0
aI2
aI1
aI3
aI1
aI0
aI0
aI1
aI1
aI14
aI-5
aa(lp299
V0021000897
p300
aVMAR 01, 2011
p301
aVNOH @ TOR
p302
aVL
p303
aI24
aI5
aI14
aF0.357
aI3
aI5
aF0.6
aI0
aI0
aF0.0
aI0
aI1
aI1
aI0
aI0
aI0
aI1
aI2
aI13
aI13
aa(lp304
V0021000907
p305
aVMAR 02, 2011
p306
aVNOH @ NYK
p307
aVL
p308
aI17
aI1
aI4
aF0.25
aI0
aI2
aF0.0
aI0
aI0
aF0.0
aI1
aI3
aI4
aI0
aI1
aI0
aI2
aI1
aI2
aI3
aa(lp309
V0021000920
p310
aVMAR 04, 2011
p311
aVNOH @ MEM
p312
aVW
p313
aI17
aI6
aI7
aF0.857
aI1
aI1
aF1.0
aI1
aI1
aF1.0
aI0
aI1
aI1
aI1
aI0
aI0
aI1
aI3
aI14
aI6
aa(lp314
V0021000936
p315
aVMAR 06, 2011
p316
aVNOH @ CLE
p317
aVW
p318
aI41
aI7
aI14
aF0.5
aI2
aI5
aF0.4
aI2
aI2
aF1.0
aI1
aI4
aI5
aI1
aI0
aI1
aI2
aI4
aI18
aI14
aa(lp319
V0021000943
p320
aVMAR 07, 2011
p321
aVNOH @ CHI
p322
aVL
p323
aI44
aI6
aI12
aF0.5
aI3
aI6
aF0.5
aI2
aI2
aF1.0
aI0
aI9
aI9
aI0
aI1
aI0
aI0
aI2
aI17
aI-10
aa(lp324
V0021000961
p325
aVMAR 09, 2011
p326
aVNOH vs. DAL
p327
aVW
p328
aI40
aI8
aI15
aF0.533
aI4
aI7
aF0.571
aI1
aI3
aF0.333
aI0
aI5
aI5
aI1
aI0
aI0
aI0
aI3
aI21
aI5
aa(lp329
V0021000981
p330
aVMAR 12, 2011
p331
aVNOH vs. SAC
p332
aVW
p333
aI23
aI3
aI7
aF0.429
aI1
aI3
aF0.333
aI5
aI5
aF1.0
aI0
aI0
aI0
aI0
aI0
aI0
aI0
aI1
aI12
aI3
aa(lp334
V0021000995
p335
aVMAR 14, 2011
p336
aVNOH vs. DEN
p337
aVL
p338
aI24
aI3
aI10
aF0.3
aI3
aI8
aF0.375
aI0
aI0
aF0.0
aI0
aI1
aI1
aI1
aI0
aI0
aI1
aI1
aI9
aI2
aa(lp339
V0021001008
p340
aVMAR 16, 2011
p341
aVNOH vs. PHX
p342
aVW
p343
aI9
aI1
aI2
aF0.5
aI1
aI2
aF0.5
aI0
aI0
aF0.0
aI0
aI0
aI0
aI0
aI1
aI0
aI2
aI3
aI3
aI9
aa(lp344
V0021001032
p345
aVMAR 19, 2011
p346
aVNOH vs. BOS
p347
aVL
p348
aI37
aI8
aI13
aF0.615
aI5
aI8
aF0.625
aI2
aI2
aF1.0
aI0
aI2
aI2
aI0
aI2
aI0
aI2
aI3
aI23
aI11
aa(lp349
V0021001067
p350
aVMAR 24, 2011
p351
aVNOH @ UTA
p352
aVW
p353
aI28
aI5
aI8
aF0.625
aI3
aI4
aF0.75
aI1
aI1
aF1.0
aI0
aI2
aI2
aI4
aI2
aI0
aI0
aI4
aI14
aI1
aa(lp354
V0021001077
p355
aVMAR 25, 2011
p356
aVNOH @ PHX
p357
aVW
p358
aI19
aI1
aI7
aF0.143
aI1
aI2
aF0.5
aI0
aI0
aF0.0
aI0
aI1
aI1
aI0
aI0
aI1
aI0
aI4
aI3
aI6
aa(lp359
V0021001094
p360
aVMAR 27, 2011
p361
aVNOH @ LAL
p362
aVL
p363
aI25
aI4
aI16
aF0.25
aI1
aI7
aF0.143
aI0
aI0
aF0.0
aI0
aI0
aI0
aI1
aI0
aI0
aI1
aI2
aI9
aI-11
aa(lp364
V0021001114
p365
aVMAR 30, 2011
p366
aVNOH vs. POR
p367
aVW
p368
aI26
aI5
aI7
aF0.714
aI4
aI5
aF0.8
aI2
aI2
aF1.0
aI0
aI2
aI2
aI0
aI0
aI0
aI0
aI2
aI16
aI5
aa(lp369
V0021001127
p370
aVAPR 01, 2011
p371
aVNOH vs. MEM
p372
aVL
p373
aI28
aI5
aI9
aF0.556
aI2
aI5
aF0.4
aI2
aI2
aF1.0
aI0
aI1
aI1
aI0
aI1
aI0
aI2
aI2
aI14
aI-3
aa(lp374
V0021001147
p375
aVAPR 03, 2011
p376
aVNOH vs. IND
p377
aVW
p378
aI23
aI4
aI9
aF0.444
aI1
aI5
aF0.2
aI0
aI0
aF0.0
aI0
aI0
aI0
aI2
aI0
aI0
aI0
aI1
aI9
aI21
aa(lp379
V0021001169
p380
aVAPR 06, 2011
p381
aVNOH vs. HOU
p382
aVW
p383
aI18
aI2
aI5
aF0.4
aI1
aI3
aF0.333
aI0
aI0
aF0.0
aI0
aI1
aI1
aI1
aI1
aI0
aI1
aI0
aI5
aI-4
aa(lp384
V0021001184
p385
aVAPR 08, 2011
p386
aVNOH vs. PHX
p387
aVW
p388
aI17
aI4
aI11
aF0.364
aI1
aI3
aF0.333
aI0
aI0
aF0.0
aI0
aI1
aI1
aI3
aI1
aI0
aI2
aI2
aI9
aI-17
aa(lp389
V0021001197
p390
aVAPR 10, 2011
p391
aVNOH @ MEM
p392
aVL
p393
aI28
aI7
aI12
aF0.583
aI4
aI9
aF0.444
aI0
aI2
aF0.0
aI0
aI2
aI2
aI3
aI0
aI0
aI3
aI3
aI18
aI-1
aa(lp394
V0021001208
p395
aVAPR 11, 2011
p396
aVNOH vs. UTA
p397
aVL
p398
aI23
aI5
aI8
aF0.625
aI1
aI2
aF0.5
aI2
aI2
aF1.0
aI0
aI0
aI0
aI1
aI1
aI0
aI3
aI2
aI13
aI-8
aa(lp399
V0021001223
p400
aVAPR 13, 2011
p401
aVNOH @ DAL
p402
aVL
p403
aI21
aI5
aI11
aF0.455
aI4
aI8
aF0.5
aI0
aI0
aF0.0
aI0
aI1
aI1
aI0
aI2
aI0
aI1
aI1
aI14
aI-10
aasS'name'
p404
VMarco Belinelli
p405
sS'experience'
p406
I3
s.