(dp0
S'stats'
p1
(lp2
(lp3
V0021000008
p4
aVOCT 27, 2010
p5
aVMEM vs. ATL
p6
aVL
p7
aI36
aI9
aI15
aF0.6
aI1
aI2
aF0.5
aI4
aI4
aF1.0
aI1
aI4
aI5
aI8
aI0
aI0
aI2
aI3
aI23
aI-1
aa(lp8
V0021000028
p9
aVOCT 29, 2010
p10
aVMEM @ DAL
p11
aVW
p12
aI37
aI3
aI11
aF0.273
aI0
aI1
aF0.0
aI2
aI4
aF0.5
aI1
aI4
aI5
aI6
aI4
aI0
aI4
aI3
aI8
aI8
aa(lp13
V0021000036
p14
aVOCT 30, 2010
p15
aVMEM vs. MIN
p16
aVW
p17
aI38
aI5
aI15
aF0.333
aI1
aI5
aF0.2
aI3
aI4
aF0.75
aI2
aI5
aI7
aI11
aI7
aI0
aI3
aI1
aI14
aI27
aa(lp18
V0021000053
p19
aVNOV 02, 2010
p20
aVMEM @ LAL
p21
aVL
p22
aI34
aI6
aI11
aF0.545
aI3
aI4
aF0.75
aI1
aI3
aF0.333
aI1
aI4
aI5
aI8
aI3
aI0
aI1
aI0
aI16
aI-1
aa(lp23
V0021000063
p24
aVNOV 03, 2010
p25
aVMEM @ GSW
p26
aVL
p27
aI44
aI6
aI13
aF0.462
aI1
aI5
aF0.2
aI5
aI7
aF0.714
aI0
aI7
aI7
aI13
aI3
aI0
aI3
aI2
aI18
aI-6
aa(lp28
V0021000076
p29
aVNOV 05, 2010
p30
aVMEM @ PHX
p31
aVL
p32
aI47
aI7
aI15
aF0.467
aI0
aI2
aF0.0
aI2
aI6
aF0.333
aI0
aI4
aI4
aI7
aI5
aI0
aI5
aI5
aI16
aI-5
aa(lp33
V0021000088
p34
aVNOV 06, 2010
p35
aVMEM @ SAC
p36
aVW
p37
aI36
aI7
aI17
aF0.412
aI0
aI4
aF0.0
aI0
aI0
aF0.0
aI0
aI3
aI3
aI5
aI1
aI1
aI2
aI4
aI14
aI11
aa(lp38
V0021000099
p39
aVNOV 08, 2010
p40
aVMEM vs. PHX
p41
aVW
p42
aI36
aI6
aI16
aF0.375
aI1
aI4
aF0.25
aI3
aI4
aF0.75
aI0
aI2
aI2
aI6
aI4
aI0
aI3
aI2
aI16
aI5
aa(lp43
V0021000114
p44
aVNOV 10, 2010
p45
aVMEM vs. DAL
p46
aVL
p47
aI37
aI4
aI11
aF0.364
aI1
aI3
aF0.333
aI0
aI0
aF0.0
aI0
aI4
aI4
aI5
aI1
aI1
aI3
aI2
aI9
aI-13
aa(lp48
V0021000135
p49
aVNOV 13, 2010
p50
aVMEM vs. BOS
p51
aVL
p52
aI38
aI3
aI10
aF0.3
aI1
aI4
aF0.25
aI6
aI6
aF1.0
aI0
aI1
aI1
aI4
aI2
aI0
aI6
aI3
aI13
aI-4
aa(lp53
V0021000145
p54
aVNOV 15, 2010
p55
aVMEM @ ORL
p56
aVL
p57
aI36
aI5
aI11
aF0.455
aI1
aI2
aF0.5
aI0
aI0
aF0.0
aI1
aI2
aI3
aI8
aI1
aI0
aI2
aI3
aI11
aI-3
aa(lp58
V0021000154
p59
aVNOV 16, 2010
p60
aVMEM vs. POR
p61
aVL
p62
aI31
aI5
aI14
aF0.357
aI2
aI5
aF0.4
aI4
aI4
aF1.0
aI0
aI2
aI2
aI6
aI0
aI0
aI3
aI1
aI16
aI0
aa(lp63
V0021000174
p64
aVNOV 19, 2010
p65
aVMEM @ WAS
p66
aVL
p67
aI29
aI5
aI13
aF0.385
aI2
aI4
aF0.5
aI0
aI0
aF0.0
aI0
aI0
aI0
aI6
aI4
aI0
aI4
aI4
aI12
aI-4
aa(lp68
V0021000185
p69
aVNOV 20, 2010
p70
aVMEM vs. MIA
p71
aVW
p72
aI36
aI6
aI12
aF0.5
aI1
aI2
aF0.5
aI3
aI4
aF0.75
aI1
aI4
aI5
aI6
aI0
aI0
aI1
aI1
aI16
aI5
aa(lp73
V0021000214
p74
aVNOV 24, 2010
p75
aVMEM vs. DET
p76
aVW
p77
aI32
aI6
aI10
aF0.6
aI0
aI2
aF0.0
aI2
aI2
aF1.0
aI0
aI1
aI1
aI7
aI3
aI0
aI2
aI2
aI14
aI27
aa(lp78
V0021000232
p79
aVNOV 26, 2010
p80
aVMEM vs. GSW
p81
aVW
p82
aI35
aI4
aI8
aF0.5
aI2
aI3
aF0.667
aI4
aI4
aF1.0
aI0
aI3
aI3
aI5
aI0
aI0
aI4
aI4
aI14
aI5
aa(lp83
V0021000236
p84
aVNOV 27, 2010
p85
aVMEM @ CLE
p86
aVL
p87
aI31
aI3
aI9
aF0.333
aI1
aI3
aF0.333
aI4
aI6
aF0.667
aI0
aI1
aI1
aI5
aI2
aI0
aI1
aI1
aI11
aI-16
aa(lp88
V0021000258
p89
aVNOV 30, 2010
p90
aVMEM vs. LAL
p91
aVW
p92
aI35
aI10
aI13
aF0.769
aI4
aI5
aF0.8
aI4
aI6
aF0.667
aI0
aI3
aI3
aI3
aI2
aI0
aI2
aI1
aI28
aI2
aa(lp93
V0021000261
p94
aVDEC 01, 2010
p95
aVMEM @ ATL
p96
aVL
p97
aI39
aI10
aI13
aF0.769
aI0
aI2
aF0.0
aI2
aI2
aF1.0
aI0
aI2
aI2
aI9
aI1
aI0
aI4
aI4
aI22
aI-2
aa(lp98
V0021000281
p99
aVDEC 03, 2010
p100
aVMEM vs. HOU
p101
aVL
p102
aI36
aI7
aI16
aF0.438
aI0
aI3
aF0.0
aI5
aI6
aF0.833
aI0
aI1
aI1
aI8
aI3
aI0
aI2
aI2
aI19
aI-15
aa(lp103
V0021000299
p104
aVDEC 05, 2010
p105
aVMEM @ DEN
p106
aVL
p107
aI41
aI8
aI12
aF0.667
aI2
aI2
aF1.0
aI1
aI2
aF0.5
aI1
aI4
aI5
aI9
aI0
aI0
aI2
aI3
aI19
aI7
aa(lp108
V0021000307
p109
aVDEC 06, 2010
p110
aVMEM @ UTA
p111
aVL
p112
aI38
aI5
aI10
aF0.5
aI0
aI1
aF0.0
aI9
aI10
aF0.9
aI0
aI2
aI2
aI5
aI0
aI0
aI3
aI2
aI19
aI-8
aa(lp113
V0021000323
p114
aVDEC 08, 2010
p115
aVMEM @ PHX
p116
aVW
p117
aI44
aI5
aI13
aF0.385
aI0
aI0
aF0.0
aI1
aI2
aF0.5
aI0
aI0
aI0
aI14
aI3
aI1
aI3
aI0
aI11
aI14
aa(lp118
V0021000341
p119
aVDEC 11, 2010
p120
aVMEM @ LAC
p121
aVW
p122
aI35
aI3
aI14
aF0.214
aI1
aI4
aF0.25
aI0
aI0
aF0.0
aI1
aI0
aI1
aI8
aI2
aI0
aI0
aI1
aI7
aI8
aa(lp123
V0021000357
p124
aVDEC 13, 2010
p125
aVMEM vs. POR
p126
aVW
p127
aI33
aI3
aI9
aF0.333
aI1
aI3
aF0.333
aI4
aI4
aF1.0
aI0
aI5
aI5
aI3
aI2
aI0
aI3
aI2
aI11
aI-4
aa(lp128
V0021000372
p129
aVDEC 15, 2010
p130
aVMEM vs. CHA
p131
aVW
p132
aI30
aI2
aI6
aF0.333
aI0
aI2
aF0.0
aI2
aI2
aF1.0
aI0
aI3
aI3
aI9
aI4
aI0
aI3
aI2
aI6
aI17
aa(lp133
V0021000389
p134
aVDEC 17, 2010
p135
aVMEM @ HOU
p136
aVL
p137
aI23
aI2
aI5
aF0.4
aI1
aI1
aF1.0
aI2
aI2
aF1.0
aI0
aI4
aI4
aI3
aI0
aI0
aI1
aI2
aI7
aI-14
aa(lp138
V0021000397
p139
aVDEC 18, 2010
p140
aVMEM @ SAS
p141
aVL
p142
aI39
aI6
aI12
aF0.5
aI1
aI2
aF0.5
aI0
aI0
aF0.0
aI1
aI1
aI2
aI8
aI1
aI0
aI4
aI3
aI13
aI-2
aa(lp143
V0021000418
p144
aVDEC 21, 2010
p145
aVMEM vs. NJN
p146
aVL
p147
aI33
aI5
aI12
aF0.417
aI1
aI2
aF0.5
aI2
aI3
aF0.667
aI0
aI1
aI1
aI8
aI1
aI0
aI0
aI4
aI13
aI-1
aa(lp148
V0021000441
p149
aVDEC 26, 2010
p150
aVMEM @ IND
p151
aVW
p152
aI39
aI2
aI7
aF0.286
aI0
aI1
aF0.0
aI0
aI1
aF0.0
aI0
aI6
aI6
aI10
aI2
aI1
aI1
aI2
aI4
aI27
aa(lp153
V0021000447
p154
aVDEC 27, 2010
p155
aVMEM vs. TOR
p156
aVW
p157
aI39
aI4
aI7
aF0.571
aI1
aI1
aF1.0
aI3
aI6
aF0.5
aI0
aI0
aI0
aI6
aI2
aI0
aI3
aI0
aI12
aI12
aa(lp158
V0021000471
p159
aVDEC 29, 2010
p160
aVMEM @ SAC
p161
aVL
p162
aI34
aI2
aI6
aF0.333
aI0
aI0
aF0.0
aI1
aI2
aF0.5
aI1
aI3
aI4
aI7
aI1
aI0
aI3
aI3
aI5
aI-1
aa(lp163
V0021000491
p164
aVJAN 01, 2011
p165
aVMEM @ UTA
p166
aVL
p167
aI38
aI6
aI14
aF0.429
aI1
aI7
aF0.143
aI4
aI4
aF1.0
aI1
aI3
aI4
aI7
aI2
aI0
aI4
aI5
aI17
aI-3
aa(lp168
V0021000498
p169
aVJAN 02, 2011
p170
aVMEM @ LAL
p171
aVW
p172
aI32
aI4
aI7
aF0.571
aI1
aI1
aF1.0
aI3
aI4
aF0.75
aI0
aI5
aI5
aI6
aI1
aI0
aI0
aI2
aI12
aI18
aa(lp173
V0021000508
p174
aVJAN 04, 2011
p175
aVMEM vs. OKC
p176
aVW
p177
aI43
aI4
aI11
aF0.364
aI0
aI2
aF0.0
aI1
aI2
aF0.5
aI1
aI4
aI5
aI9
aI0
aI1
aI4
aI3
aI9
aI8
aa(lp178
V0021000530
p179
aVJAN 07, 2011
p180
aVMEM vs. UTA
p181
aVW
p182
aI24
aI4
aI8
aF0.5
aI0
aI0
aF0.0
aI2
aI3
aF0.667
aI1
aI2
aI3
aI4
aI2
aI0
aI1
aI4
aI10
aI1
aa(lp183
V0021000541
p184
aVJAN 08, 2011
p185
aVMEM @ OKC
p186
aVL
p187
aI28
aI3
aI10
aF0.3
aI0
aI3
aF0.0
aI4
aI4
aF1.0
aI0
aI1
aI1
aI4
aI0
aI0
aI1
aI3
aI10
aI-12
aa(lp188
V0021000551
p189
aVJAN 10, 2011
p190
aVMEM @ CHA
p191
aVL
p192
aI37
aI6
aI17
aF0.353
aI1
aI3
aF0.333
aI0
aI0
aF0.0
aI0
aI1
aI1
aI7
aI2
aI0
aI1
aI4
aI13
aI-4
aa(lp193
V0021000565
p194
aVJAN 12, 2011
p195
aVMEM @ DET
p196
aVW
p197
aI33
aI4
aI10
aF0.4
aI0
aI2
aF0.0
aI0
aI0
aF0.0
aI0
aI2
aI2
aI9
aI0
aI0
aI2
aI3
aI8
aI1
aa(lp198
V0021000592
p199
aVJAN 15, 2011
p200
aVMEM vs. DAL
p201
aVW
p202
aI29
aI3
aI6
aF0.5
aI0
aI0
aF0.0
aI2
aI2
aF1.0
aI0
aI4
aI4
aI6
aI0
aI0
aI0
aI3
aI8
aI23
aa(lp203
V0021000600
p204
aVJAN 17, 2011
p205
aVMEM vs. CHI
p206
aVL
p207
aI29
aI2
aI6
aF0.333
aI0
aI0
aF0.0
aI1
aI1
aF1.0
aI0
aI2
aI2
aI6
aI2
aI0
aI1
aI2
aI5
aI-10
aa(lp208
V0021000618
p209
aVJAN 19, 2011
p210
aVMEM @ NOH
p211
aVL
p212
aI39
aI9
aI11
aF0.818
aI1
aI2
aF0.5
aI3
aI4
aF0.75
aI0
aI2
aI2
aI5
aI0
aI0
aI4
aI3
aI22
aI3
aa(lp213
V0021000635
p214
aVJAN 21, 2011
p215
aVMEM vs. HOU
p216
aVW
p217
aI35
aI7
aI11
aF0.636
aI0
aI0
aF0.0
aI3
aI5
aF0.6
aI0
aI2
aI2
aI5
aI2
aI0
aI3
aI1
aI17
aI2
aa(lp218
V0021000649
p219
aVJAN 22, 2011
p220
aVMEM @ MIL
p221
aVW
p222
aI38
aI3
aI11
aF0.273
aI1
aI3
aF0.333
aI1
aI2
aF0.5
aI0
aI5
aI5
aI2
aI1
aI2
aI1
aI1
aI8
aI19
aa(lp223
V0021000656
p224
aVJAN 24, 2011
p225
aVMEM @ TOR
p226
aVW
p227
aI36
aI5
aI9
aF0.556
aI0
aI1
aF0.0
aI3
aI6
aF0.5
aI2
aI5
aI7
aI4
aI1
aI1
aI2
aI3
aI13
aI-5
aa(lp228
V0021000669
p229
aVJAN 26, 2011
p230
aVMEM @ NJN
p231
aVL
p232
aI39
aI7
aI13
aF0.538
aI1
aI4
aF0.25
aI1
aI2
aF0.5
aI1
aI4
aI5
aI5
aI0
aI0
aI2
aI3
aI16
aI4
aa(lp233
V0021000682
p234
aVJAN 28, 2011
p235
aVMEM @ PHI
p236
aVW
p237
aI38
aI6
aI15
aF0.4
aI0
aI1
aF0.0
aI1
aI2
aF0.5
aI0
aI5
aI5
aI4
aI1
aI0
aI1
aI0
aI13
aI6
aa(lp238
V0021000694
p239
aVJAN 29, 2011
p240
aVMEM vs. WAS
p241
aVW
p242
aI40
aI6
aI12
aF0.5
aI2
aI2
aF1.0
aI1
aI2
aF0.5
aI0
aI3
aI3
aI12
aI0
aI0
aI1
aI2
aI15
aI13
aa(lp243
V0021000711
p244
aVJAN 31, 2011
p245
aVMEM vs. ORL
p246
aVW
p247
aI38
aI9
aI14
aF0.643
aI4
aI6
aF0.667
aI4
aI5
aF0.8
aI0
aI2
aI2
aI11
aI2
aI0
aI3
aI3
aI26
aI-2
aa(lp248
V0021000724
p249
aVFEB 02, 2011
p250
aVMEM @ MIN
p251
aVW
p252
aI36
aI3
aI12
aF0.25
aI3
aI5
aF0.6
aI0
aI0
aF0.0
aI0
aI5
aI5
aI9
aI3
aI0
aI2
aI1
aI9
aI25
aa(lp253
V0021000741
p254
aVFEB 04, 2011
p255
aVMEM vs. CLE
p256
aVW
p257
aI38
aI7
aI13
aF0.538
aI2
aI4
aF0.5
aI5
aI6
aF0.833
aI0
aI2
aI2
aI8
aI1
aI0
aI1
aI4
aI21
aI1
aa(lp258
V0021000749
p259
aVFEB 05, 2011
p260
aVMEM @ HOU
p261
aVL
p262
aI41
aI2
aI16
aF0.125
aI0
aI5
aF0.0
aI2
aI3
aF0.667
aI2
aI1
aI3
aI5
aI2
aI0
aI2
aI2
aI6
aI-6
aa(lp263
V0021000759
p264
aVFEB 07, 2011
p265
aVMEM vs. LAL
p266
aVL
p267
aI39
aI5
aI12
aF0.417
aI1
aI2
aF0.5
aI2
aI3
aF0.667
aI0
aI3
aI3
aI4
aI3
aI0
aI2
aI0
aI13
aI-8
aa(lp268
V0021000771
p269
aVFEB 08, 2011
p270
aVMEM @ OKC
p271
aVW
p272
aI36
aI4
aI12
aF0.333
aI1
aI3
aF0.333
aI4
aI6
aF0.667
aI0
aI4
aI4
aI4
aI2
aI0
aI3
aI4
aI13
aI9
aa(lp273
V0021000794
p274
aVFEB 11, 2011
p275
aVMEM vs. MIL
p276
aVW
p277
aI39
aI8
aI19
aF0.421
aI3
aI5
aF0.6
aI4
aI6
aF0.667
aI1
aI4
aI5
aI8
aI3
aI0
aI3
aI3
aI23
aI2
aa(lp278
V0021000809
p279
aVFEB 13, 2011
p280
aVMEM vs. DEN
p281
aVW
p282
aI36
aI7
aI11
aF0.636
aI1
aI1
aF1.0
aI2
aI2
aF1.0
aI0
aI0
aI0
aI5
aI3
aI0
aI2
aI2
aI17
aI8
aa(lp283
V0021000820
p284
aVFEB 15, 2011
p285
aVMEM vs. PHI
p286
aVW
p287
aI37
aI9
aI17
aF0.529
aI4
aI7
aF0.571
aI0
aI1
aF0.0
aI0
aI2
aI2
aI3
aI5
aI2
aI1
aI2
aI22
aI0
aa(lp288
V0021000844
p289
aVFEB 22, 2011
p290
aVMEM @ DEN
p291
aVL
p292
aI30
aI4
aI6
aF0.667
aI2
aI2
aF1.0
aI0
aI0
aF0.0
aI0
aI1
aI1
aI3
aI0
aI1
aI4
aI1
aI10
aI-20
aa(lp293
V0021000853
p294
aVFEB 23, 2011
p295
aVMEM @ MIN
p296
aVW
p297
aI37
aI5
aI15
aF0.333
aI3
aI6
aF0.5
aI9
aI12
aF0.75
aI1
aI4
aI5
aI9
aI1
aI1
aI2
aI3
aI22
aI14
aa(lp298
V0021000875
p299
aVFEB 26, 2011
p300
aVMEM vs. SAC
p301
aVW
p302
aI25
aI3
aI8
aF0.375
aI0
aI0
aF0.0
aI2
aI2
aF1.0
aI0
aI3
aI3
aI4
aI0
aI1
aI2
aI2
aI8
aI20
aa(lp303
V0021000886
p304
aVFEB 27, 2011
p305
aVMEM @ SAS
p306
aVL
p307
aI38
aI9
aI17
aF0.529
aI1
aI3
aF0.333
aI0
aI0
aF0.0
aI0
aI3
aI3
aI1
aI1
aI1
aI2
aI5
aI19
aI5
aa(lp308
V0021000898
p309
aVMAR 01, 2011
p310
aVMEM vs. SAS
p311
aVW
p312
aI34
aI7
aI11
aF0.636
aI0
aI0
aF0.0
aI4
aI4
aF1.0
aI0
aI4
aI4
aI9
aI3
aI1
aI2
aI0
aI18
aI10
aa(lp313
V0021000920
p314
aVMAR 04, 2011
p315
aVMEM vs. NOH
p316
aVL
p317
aI25
aI5
aI7
aF0.714
aI2
aI4
aF0.5
aI0
aI0
aF0.0
aI1
aI0
aI1
aI3
aI1
aI0
aI2
aI4
aI12
aI-1
aa(lp318
V0021000938
p319
aVMAR 06, 2011
p320
aVMEM @ DAL
p321
aVW
p322
aI35
aI7
aI15
aF0.467
aI1
aI2
aF0.5
aI2
aI2
aF1.0
aI1
aI2
aI3
aI10
aI1
aI0
aI1
aI4
aI17
aI1
aa(lp323
V0021000944
p324
aVMAR 07, 2011
p325
aVMEM vs. OKC
p326
aVW
p327
aI39
aI9
aI20
aF0.45
aI0
aI5
aF0.0
aI2
aI2
aF1.0
aI0
aI2
aI2
aI9
aI2
aI1
aI0
aI1
aI20
aI13
aa(lp328
V0021000958
p329
aVMAR 09, 2011
p330
aVMEM vs. NYK
p331
aVL
p332
aI39
aI7
aI13
aF0.538
aI2
aI3
aF0.667
aI4
aI4
aF1.0
aI0
aI0
aI0
aI6
aI5
aI0
aI2
aI0
aI20
aI-7
aa(lp333
V0021000976
p334
aVMAR 12, 2011
p335
aVMEM @ MIA
p336
aVL
p337
aI35
aI1
aI11
aF0.091
aI0
aI2
aF0.0
aI0
aI0
aF0.0
aI2
aI2
aI4
aI10
aI2
aI0
aI4
aI2
aI2
aI-29
aa(lp338
V0021000994
p339
aVMAR 14, 2011
p340
aVMEM vs. LAC
p341
aVW
p342
aI28
aI5
aI12
aF0.417
aI2
aI3
aF0.667
aI1
aI2
aF0.5
aI1
aI3
aI4
aI5
aI2
aI0
aI2
aI4
aI13
aI7
aa(lp343
V0021001015
p344
aVMAR 17, 2011
p345
aVMEM @ NYK
p346
aVL
p347
aI33
aI6
aI12
aF0.5
aI2
aI3
aF0.667
aI2
aI2
aF1.0
aI1
aI3
aI4
aI6
aI0
aI0
aI2
aI3
aI16
aI-2
aa(lp348
V0021001031
p349
aVMAR 19, 2011
p350
aVMEM vs. IND
p351
aVW
p352
aI36
aI8
aI18
aF0.444
aI0
aI3
aF0.0
aI1
aI2
aF0.5
aI1
aI2
aI3
aI9
aI4
aI0
aI1
aI3
aI17
aI23
aa(lp353
V0021001048
p354
aVMAR 21, 2011
p355
aVMEM vs. UTA
p356
aVW
p357
aI35
aI5
aI13
aF0.385
aI1
aI3
aF0.333
aI0
aI0
aF0.0
aI0
aI0
aI0
aI11
aI1
aI0
aI1
aI1
aI11
aI20
aa(lp358
V0021001057
p359
aVMAR 23, 2011
p360
aVMEM @ BOS
p361
aVW
p362
aI37
aI1
aI9
aF0.111
aI1
aI3
aF0.333
aI6
aI8
aF0.75
aI0
aI2
aI2
aI5
aI1
aI0
aI5
aI0
aI9
aI-9
aa(lp363
V0021001074
p364
aVMAR 25, 2011
p365
aVMEM @ CHI
p366
aVL
p367
aI40
aI5
aI16
aF0.313
aI0
aI4
aF0.0
aI2
aI4
aF0.5
aI0
aI1
aI1
aI6
aI3
aI0
aI0
aI1
aI12
aI0
aa(lp368
V0021001090
p369
aVMAR 27, 2011
p370
aVMEM vs. SAS
p371
aVW
p372
aI34
aI4
aI8
aF0.5
aI0
aI1
aF0.0
aI4
aI7
aF0.571
aI1
aI2
aI3
aI4
aI1
aI2
aI3
aI4
aI12
aI10
aa(lp373
V0021001112
p374
aVMAR 30, 2011
p375
aVMEM vs. GSW
p376
aVW
p377
aI37
aI8
aI13
aF0.615
aI2
aI3
aF0.667
aI2
aI4
aF0.5
aI0
aI4
aI4
aI7
aI1
aI0
aI0
aI0
aI20
aI22
aa(lp378
V0021001127
p379
aVAPR 01, 2011
p380
aVMEM @ NOH
p381
aVW
p382
aI39
aI4
aI10
aF0.4
aI1
aI3
aF0.333
aI1
aI2
aF0.5
aI1
aI4
aI5
aI7
aI0
aI0
aI2
aI1
aI10
aI10
aa(lp383
V0021001134
p384
aVAPR 02, 2011
p385
aVMEM vs. MIN
p386
aVW
p387
aI34
aI2
aI11
aF0.182
aI1
aI3
aF0.333
aI0
aI0
aF0.0
aI1
aI2
aI3
aI9
aI3
aI0
aI5
aI2
aI5
aI17
aa(lp388
V0021001157
p389
aVAPR 05, 2011
p390
aVMEM vs. LAC
p391
aVL
p392
aI39
aI8
aI16
aF0.5
aI0
aI3
aF0.0
aI4
aI4
aF1.0
aI1
aI4
aI5
aI4
aI4
aI0
aI1
aI2
aI20
aI-1
aa(lp393
V0021001183
p394
aVAPR 08, 2011
p395
aVMEM vs. SAC
p396
aVW
p397
aI39
aI4
aI11
aF0.364
aI1
aI1
aF1.0
aI3
aI5
aF0.6
aI0
aI5
aI5
aI8
aI2
aI0
aI1
aI2
aI12
aI16
aa(lp398
V0021001197
p399
aVAPR 10, 2011
p400
aVMEM vs. NOH
p401
aVW
p402
aI25
aI1
aI5
aF0.2
aI0
aI1
aF0.0
aI0
aI0
aF0.0
aI0
aI3
aI3
aI3
aI3
aI0
aI0
aI2
aI2
aI11
aa(lp403
V0021001214
p404
aVAPR 12, 2011
p405
aVMEM @ POR
p406
aVL
p407
aI31
aI8
aI13
aF0.615
aI1
aI3
aF0.333
aI0
aI0
aF0.0
aI0
aI0
aI0
aI2
aI1
aI0
aI2
aI0
aI17
aI0
aasS'name'
p408
VMike Conley
p409
sS'weight'
p410
V175
p411
sS'age'
p412
I23
sS'experience'
p413
I3
sS'height'
p414
V6-1
p415
sS'position'
p416
VGuard
p417
s.