(dp0
S'age'
p1
I22
sS'stats'
p2
(lp3
(lp4
V0021001214
p5
aVAPR 12, 2011
p6
aVPOR vs. MEM
p7
aVW
p8
aI33
aI4
aI14
aF0.286
aI1
aI5
aF0.2
aI7
aI8
aF0.875
aI2
aI3
aI5
aI0
aI1
aI2
aI2
aI1
aI16
aI8
aa(lp9
V0021001187
p10
aVAPR 08, 2011
p11
aVPOR vs. LAL
p12
aVW
p13
aI26
aI6
aI12
aF0.5
aI1
aI3
aF0.333
aI0
aI0
aF0.0
aI1
aI3
aI4
aI0
aI1
aI0
aI0
aI1
aI13
aI-15
aa(lp14
V0021001175
p15
aVAPR 07, 2011
p16
aVPOR @ UTA
p17
aVW
p18
aI35
aI9
aI13
aF0.692
aI2
aI3
aF0.667
aI1
aI1
aF1.0
aI1
aI2
aI3
aI0
aI2
aI1
aI2
aI4
aI21
aI12
aa(lp19
V0021001160
p20
aVAPR 05, 2011
p21
aVPOR vs. GSW
p22
aVL
p23
aI30
aI7
aI14
aF0.5
aI1
aI6
aF0.167
aI0
aI0
aF0.0
aI1
aI0
aI1
aI2
aI0
aI1
aI1
aI2
aI15
aI-13
aa(lp24
V0021001148
p25
aVAPR 03, 2011
p26
aVPOR vs. DAL
p27
aVW
p28
aI35
aI5
aI9
aF0.556
aI2
aI5
aF0.4
aI3
aI5
aF0.6
aI0
aI3
aI3
aI4
aI2
aI0
aI0
aI2
aI15
aI3
aa(lp29
V0021001130
p30
aVAPR 01, 2011
p31
aVPOR vs. OKC
p32
aVW
p33
aI34
aI8
aI14
aF0.571
aI2
aI7
aF0.286
aI1
aI1
aF1.0
aI3
aI3
aI6
aI1
aI0
aI1
aI0
aI1
aI19
aI6
aa(lp34
V0021001114
p35
aVMAR 30, 2011
p36
aVPOR @ NOH
p37
aVL
p38
aI23
aI0
aI7
aF0.0
aI0
aI2
aF0.0
aI2
aI2
aF1.0
aI0
aI1
aI1
aI0
aI0
aI1
aI2
aI3
aI2
aI-2
aa(lp39
V0021001099
p40
aVMAR 28, 2011
p41
aVPOR @ SAS
p42
aVW
p43
aI32
aI3
aI7
aF0.429
aI2
aI4
aF0.5
aI2
aI2
aF1.0
aI0
aI13
aI13
aI1
aI0
aI0
aI1
aI3
aI10
aI9
aa(lp44
V0021001092
p45
aVMAR 27, 2011
p46
aVPOR @ OKC
p47
aVL
p48
aI21
aI1
aI4
aF0.25
aI1
aI2
aF0.5
aI3
aI4
aF0.75
aI0
aI0
aI0
aI0
aI1
aI2
aI3
aI3
aI6
aI-23
aa(lp49
V0021001078
p50
aVMAR 25, 2011
p51
aVPOR vs. SAS
p52
aVW
p53
aI33
aI7
aI15
aF0.467
aI3
aI7
aF0.429
aI4
aI4
aF1.0
aI2
aI2
aI4
aI1
aI2
aI0
aI0
aI1
aI21
aI-1
aa(lp54
V0021001052
p55
aVMAR 22, 2011
p56
aVPOR vs. WAS
p57
aVW
p58
aI40
aI9
aI15
aF0.6
aI2
aI4
aF0.5
aI2
aI2
aF1.0
aI4
aI8
aI12
aI3
aI3
aI1
aI4
aI2
aI22
aI34
aa(lp59
V0021001043
p60
aVMAR 20, 2011
p61
aVPOR @ LAL
p62
aVL
p63
aI39
aI10
aI16
aF0.625
aI4
aI9
aF0.444
aI1
aI2
aF0.5
aI0
aI4
aI4
aI3
aI2
aI1
aI2
aI0
aI25
aI-3
aa(lp64
V0021001034
p65
aVMAR 19, 2011
p66
aVPOR vs. PHI
p67
aVW
p68
aI29
aI5
aI10
aF0.5
aI2
aI5
aF0.4
aI4
aI4
aF1.0
aI0
aI2
aI2
aI2
aI0
aI0
aI1
aI2
aI16
aI5
aa(lp69
V0021001016
p70
aVMAR 17, 2011
p71
aVPOR vs. CLE
p72
aVW
p73
aI33
aI5
aI12
aF0.417
aI2
aI5
aF0.4
aI2
aI2
aF1.0
aI1
aI3
aI4
aI5
aI1
aI0
aI0
aI2
aI14
aI25
aa(lp74
V0021001002
p75
aVMAR 15, 2011
p76
aVPOR vs. DAL
p77
aVW
p78
aI21
aI2
aI8
aF0.25
aI0
aI2
aF0.0
aI1
aI2
aF0.5
aI3
aI1
aI4
aI5
aI1
aI0
aI0
aI3
aI5
aI-3
aa(lp79
V0021000977
p80
aVMAR 12, 2011
p81
aVPOR @ ATL
p82
aVL
p83
aI17
aI2
aI8
aF0.25
aI0
aI2
aF0.0
aI1
aI1
aF1.0
aI0
aI2
aI2
aI0
aI0
aI1
aI1
aI2
aI5
aI-4
aa(lp84
V0021000967
p85
aVMAR 11, 2011
p86
aVPOR @ CHA
p87
aVL
p88
aI20
aI6
aI11
aF0.545
aI1
aI3
aF0.333
aI0
aI0
aF0.0
aI3
aI4
aI7
aI0
aI1
aI0
aI1
aI4
aI13
aI-2
aa(lp89
V0021000951
p90
aVMAR 08, 2011
p91
aVPOR @ MIA
p92
aVW
p93
aI22
aI4
aI5
aF0.8
aI0
aI1
aF0.0
aI3
aI3
aF1.0
aI1
aI3
aI4
aI1
aI2
aI0
aI2
aI1
aI11
aI3
aa(lp94
V0021000941
p95
aVMAR 07, 2011
p96
aVPOR @ ORL
p97
aVW
p98
aI22
aI4
aI8
aF0.5
aI1
aI5
aF0.2
aI0
aI0
aF0.0
aI0
aI2
aI2
aI2
aI0
aI0
aI0
aI0
aI9
aI4
aa(lp99
V0021000929
p100
aVMAR 05, 2011
p101
aVPOR vs. CHA
p102
aVW
p103
aI26
aI2
aI7
aF0.286
aI1
aI3
aF0.333
aI2
aI2
aF1.0
aI1
aI2
aI3
aI1
aI0
aI1
aI0
aI0
aI7
aI11
aa(lp104
V0021000910
p105
aVMAR 02, 2011
p106
aVPOR @ SAC
p107
aVW
p108
aI44
aI5
aI7
aF0.714
aI3
aI4
aF0.75
aI4
aI4
aF1.0
aI0
aI1
aI1
aI2
aI3
aI1
aI1
aI2
aI17
aI11
aa(lp109
V0021000901
p110
aVMAR 01, 2011
p111
aVPOR vs. HOU
p112
aVL
p113
aI37
aI7
aI12
aF0.583
aI3
aI6
aF0.5
aI5
aI5
aF1.0
aI0
aI4
aI4
aI0
aI0
aI0
aI1
aI3
aI22
aI-12
aa(lp114
V0021000888
p115
aVFEB 27, 2011
p116
aVPOR vs. ATL
p117
aVL
p118
aI36
aI4
aI9
aF0.444
aI1
aI6
aF0.167
aI0
aI0
aF0.0
aI0
aI2
aI2
aI0
aI1
aI0
aI1
aI3
aI9
aI-6
aa(lp119
V0021000872
p120
aVFEB 25, 2011
p121
aVPOR vs. DEN
p122
aVW
p123
aI37
aI3
aI9
aF0.333
aI2
aI5
aF0.4
aI0
aI1
aF0.0
aI0
aI8
aI8
aI1
aI2
aI1
aI4
aI4
aI8
aI0
aa(lp124
V0021000858
p125
aVFEB 23, 2011
p126
aVPOR vs. LAL
p127
aVL
p128
aI44
aI7
aI16
aF0.438
aI4
aI9
aF0.444
aI4
aI6
aF0.667
aI0
aI1
aI1
aI3
aI0
aI1
aI1
aI1
aI22
aI-7
aa(lp129
V0021000835
p130
aVFEB 16, 2011
p131
aVPOR vs. NOH
p132
aVW
p133
aI42
aI5
aI12
aF0.417
aI2
aI6
aF0.333
aI2
aI2
aF1.0
aI2
aI3
aI5
aI2
aI2
aI1
aI0
aI4
aI14
aI11
aa(lp134
V0021000816
p135
aVFEB 14, 2011
p136
aVPOR @ MIN
p137
aVW
p138
aI31
aI1
aI5
aF0.2
aI0
aI3
aF0.0
aI1
aI1
aF1.0
aI0
aI0
aI0
aI4
aI0
aI0
aI3
aI2
aI3
aI13
aa(lp139
V0021000807
p140
aVFEB 13, 2011
p141
aVPOR @ DET
p142
aVW
p143
aI40
aI2
aI9
aF0.222
aI1
aI5
aF0.2
aI2
aI2
aF1.0
aI0
aI6
aI6
aI2
aI0
aI1
aI0
aI3
aI7
aI8
aa(lp144
V0021000790
p145
aVFEB 11, 2011
p146
aVPOR @ TOR
p147
aVW
p148
aI40
aI3
aI7
aF0.429
aI1
aI4
aF0.25
aI0
aI0
aF0.0
aI2
aI5
aI7
aI4
aI0
aI4
aI1
aI1
aI7
aI1
aa(lp149
V0021000763
p150
aVFEB 07, 2011
p151
aVPOR vs. CHI
p152
aVW
p153
aI39
aI4
aI8
aF0.5
aI0
aI2
aF0.0
aI4
aI4
aF1.0
aI1
aI4
aI5
aI3
aI1
aI0
aI2
aI1
aI12
aI13
aa(lp154
V0021000747
p155
aVFEB 05, 2011
p156
aVPOR @ CLE
p157
aVW
p158
aI43
aI6
aI8
aF0.75
aI5
aI6
aF0.833
aI4
aI4
aF1.0
aI1
aI6
aI7
aI0
aI0
aI1
aI0
aI2
aI21
aI11
aa(lp159
V0021000734
p160
aVFEB 04, 2011
p161
aVPOR @ IND
p162
aVL
p163
aI37
aI4
aI10
aF0.4
aI2
aI6
aF0.333
aI4
aI4
aF1.0
aI1
aI3
aI4
aI2
aI1
aI1
aI1
aI1
aI14
aI-20
aa(lp164
V0021000726
p165
aVFEB 02, 2011
p166
aVPOR @ DEN
p167
aVL
p168
aI40
aI6
aI12
aF0.5
aI4
aI6
aF0.667
aI1
aI2
aF0.5
aI0
aI1
aI1
aI4
aI0
aI1
aI2
aI4
aI17
aI-13
aa(lp169
V0021000716
p170
aVFEB 01, 2011
p171
aVPOR vs. SAS
p172
aVW
p173
aI35
aI2
aI8
aF0.25
aI0
aI3
aF0.0
aI4
aI4
aF1.0
aI0
aI6
aI6
aI0
aI1
aI0
aI2
aI2
aI8
aI-4
aa(lp174
V0021000680
p175
aVJAN 27, 2011
p176
aVPOR vs. BOS
p177
aVL
p178
aI14
aI1
aI6
aF0.167
aI0
aI2
aF0.0
aI0
aI0
aF0.0
aI2
aI2
aI4
aI0
aI1
aI0
aI0
aI2
aI2
aI1
aa(lp179
V0021000661
p180
aVJAN 24, 2011
p181
aVPOR vs. SAC
p182
aVL
p183
aI41
aI6
aI12
aF0.5
aI2
aI4
aF0.5
aI2
aI2
aF1.0
aI3
aI6
aI9
aI1
aI0
aI0
aI2
aI2
aI16
aI-10
aa(lp184
V0021000650
p185
aVJAN 22, 2011
p186
aVPOR vs. IND
p187
aVW
p188
aI43
aI8
aI14
aF0.571
aI5
aI8
aF0.625
aI2
aI2
aF1.0
aI1
aI5
aI6
aI2
aI1
aI0
aI1
aI2
aI23
aI4
aa(lp189
V0021000628
p190
aVJAN 20, 2011
p191
aVPOR vs. LAC
p192
aVW
p193
aI35
aI4
aI8
aF0.5
aI2
aI4
aF0.5
aI0
aI0
aF0.0
aI1
aI3
aI4
aI1
aI1
aI2
aI1
aI3
aI10
aI13
aa(lp194
V0021000623
p195
aVJAN 19, 2011
p196
aVPOR @ SAC
p197
aVW
p198
aI43
aI9
aI16
aF0.563
aI2
aI5
aF0.4
aI4
aI4
aF1.0
aI0
aI6
aI6
aI3
aI2
aI1
aI0
aI2
aI24
aI15
aa(lp199
V0021000609
p200
aVJAN 17, 2011
p201
aVPOR vs. MIN
p202
aVW
p203
aI34
aI1
aI11
aF0.091
aI0
aI2
aF0.0
aI3
aI4
aF0.75
aI3
aI6
aI9
aI3
aI0
aI1
aI0
aI3
aI5
aI14
aa(lp204
V0021000595
p205
aVJAN 15, 2011
p206
aVPOR vs. NJN
p207
aVW
p208
aI37
aI9
aI15
aF0.6
aI2
aI6
aF0.333
aI3
aI3
aF1.0
aI2
aI4
aI6
aI0
aI0
aI0
aI0
aI2
aI23
aI11
aa(lp209
V0021000584
p210
aVJAN 14, 2011
p211
aVPOR @ PHX
p212
aVL
p213
aI39
aI6
aI10
aF0.6
aI2
aI4
aF0.5
aI4
aI5
aF0.8
aI2
aI2
aI4
aI4
aI0
aI0
aI1
aI4
aI18
aI-12
aa(lp214
V0021000559
p215
aVJAN 11, 2011
p216
aVPOR vs. NYK
p217
aVL
p218
aI41
aI5
aI14
aF0.357
aI1
aI4
aF0.25
aI2
aI2
aF1.0
aI2
aI2
aI4
aI0
aI1
aI1
aI1
aI3
aI13
aI-21
aa(lp219
V0021000549
p220
aVJAN 09, 2011
p221
aVPOR vs. MIA
p222
aVL
p223
aI43
aI9
aI16
aF0.563
aI1
aI5
aF0.2
aI3
aI3
aF1.0
aI1
aI3
aI4
aI0
aI0
aI1
aI1
aI3
aI22
aI-5
aa(lp224
V0021000531
p225
aVJAN 07, 2011
p226
aVPOR @ MIN
p227
aVW
p228
aI41
aI4
aI15
aF0.267
aI1
aI5
aF0.2
aI0
aI2
aF0.0
aI4
aI5
aI9
aI0
aI0
aI1
aI0
aI2
aI9
aI-4
aa(lp229
V0021000519
p230
aVJAN 05, 2011
p231
aVPOR @ HOU
p232
aVW
p233
aI38
aI4
aI9
aF0.444
aI2
aI3
aF0.667
aI0
aI0
aF0.0
aI0
aI2
aI2
aI4
aI0
aI0
aI0
aI5
aI10
aI9
aa(lp234
V0021000509
p235
aVJAN 04, 2011
p236
aVPOR @ DAL
p237
aVL
p238
aI35
aI5
aI12
aF0.417
aI1
aI6
aF0.167
aI2
aI2
aF1.0
aI3
aI4
aI7
aI2
aI2
aI1
aI1
aI2
aI13
aI0
aa(lp239
V0021000496
p240
aVJAN 02, 2011
p241
aVPOR vs. HOU
p242
aVW
p243
aI36
aI8
aI12
aF0.667
aI2
aI5
aF0.4
aI3
aI3
aF1.0
aI1
aI1
aI2
aI1
aI1
aI0
aI1
aI4
aI21
aI14
aa(lp244
V0021000475
p245
aVDEC 30, 2010
p246
aVPOR vs. UTA
p247
aVW
p248
aI34
aI3
aI7
aF0.429
aI1
aI2
aF0.5
aI2
aI2
aF1.0
aI1
aI2
aI3
aI0
aI0
aI1
aI1
aI4
aI9
aI10
aa(lp249
V0021000461
p250
aVDEC 28, 2010
p251
aVPOR @ DEN
p252
aVL
p253
aI37
aI6
aI11
aF0.545
aI1
aI4
aF0.25
aI1
aI2
aF0.5
aI1
aI4
aI5
aI2
aI2
aI1
aI2
aI2
aI14
aI-20
aa(lp254
V0021000452
p255
aVDEC 27, 2010
p256
aVPOR @ UTA
p257
aVW
p258
aI33
aI3
aI8
aF0.375
aI1
aI6
aF0.167
aI0
aI0
aF0.0
aI1
aI4
aI5
aI1
aI1
aI1
aI1
aI4
aI7
aI-2
aa(lp259
V0021000437
p260
aVDEC 25, 2010
p261
aVPOR @ GSW
p262
aVL
p263
aI35
aI8
aI14
aF0.571
aI2
aI6
aF0.333
aI0
aI0
aF0.0
aI7
aI3
aI10
aI4
aI1
aI0
aI0
aI2
aI18
aI-11
aa(lp264
V0021000412
p265
aVDEC 20, 2010
p266
aVPOR vs. MIL
p267
aVW
p268
aI32
aI3
aI8
aF0.375
aI1
aI4
aF0.25
aI3
aI3
aF1.0
aI1
aI3
aI4
aI3
aI1
aI0
aI3
aI3
aI10
aI17
aa(lp269
V0021000391
p270
aVDEC 17, 2010
p271
aVPOR vs. MIN
p272
aVW
p273
aI13
aI1
aI2
aF0.5
aI0
aI0
aF0.0
aI0
aI0
aF0.0
aI1
aI0
aI1
aI2
aI1
aI1
aI0
aI1
aI2
aI-4
aa(lp274
V0021000377
p275
aVDEC 15, 2010
p276
aVPOR @ DAL
p277
aVL
p278
aI26
aI5
aI10
aF0.5
aI1
aI3
aF0.333
aI0
aI1
aF0.0
aI4
aI2
aI6
aI2
aI0
aI1
aI0
aI3
aI11
aI1
aa(lp279
V0021000357
p280
aVDEC 13, 2010
p281
aVPOR @ MEM
p282
aVL
p283
aI9
aI0
aI2
aF0.0
aI0
aI1
aF0.0
aI0
aI0
aF0.0
aI0
aI0
aI0
aI0
aI0
aI0
aI0
aI0
aI0
aI-11
aa(lp284
V0021000353
p285
aVDEC 12, 2010
p286
aVPOR @ SAS
p287
aVL
p288
aI26
aI2
aI9
aF0.222
aI1
aI4
aF0.25
aI0
aI0
aF0.0
aI2
aI3
aI5
aI0
aI0
aI0
aI1
aI3
aI5
aI-13
aa(lp289
V0021000338
p290
aVDEC 10, 2010
p291
aVPOR @ PHX
p292
aVW
p293
aI20
aI0
aI7
aF0.0
aI0
aI3
aF0.0
aI0
aI0
aF0.0
aI0
aI1
aI1
aI0
aI0
aI0
aI0
aI3
aI0
aI-6
aa(lp294
V0021000329
p295
aVDEC 09, 2010
p296
aVPOR vs. ORL
p297
aVW
p298
aI27
aI5
aI8
aF0.625
aI0
aI1
aF0.0
aI5
aI7
aF0.714
aI2
aI8
aI10
aI3
aI1
aI0
aI1
aI2
aI15
aI8
aa(lp299
V0021000314
p300
aVDEC 07, 2010
p301
aVPOR vs. PHX
p302
aVW
p303
aI28
aI5
aI9
aF0.556
aI2
aI5
aF0.4
aI0
aI0
aF0.0
aI1
aI1
aI2
aI0
aI0
aI0
aI2
aI2
aI12
aI8
aa(lp304
V0021000301
p305
aVDEC 05, 2010
p306
aVPOR vs. LAC
p307
aVW
p308
aI30
aI4
aI12
aF0.333
aI1
aI3
aF0.333
aI4
aI4
aF1.0
aI5
aI9
aI14
aI0
aI1
aI0
aI3
aI2
aI13
aI10
aa(lp309
V0021000277
p310
aVDEC 03, 2010
p311
aVPOR @ WAS
p312
aVL
p313
aI25
aI4
aI10
aF0.4
aI3
aI7
aF0.429
aI0
aI0
aF0.0
aI3
aI3
aI6
aI1
aI1
aI0
aI0
aI4
aI11
aI-5
aa(lp314
V0021000264
p315
aVDEC 01, 2010
p316
aVPOR @ BOS
p317
aVL
p318
aI15
aI2
aI4
aF0.5
aI0
aI1
aF0.0
aI0
aI0
aF0.0
aI0
aI2
aI2
aI2
aI0
aI1
aI1
aI2
aI4
aI-9
aa(lp319
V0021000256
p320
aVNOV 30, 2010
p321
aVPOR @ PHI
p322
aVL
p323
aI13
aI0
aI4
aF0.0
aI0
aI2
aF0.0
aI2
aI2
aF1.0
aI1
aI1
aI2
aI0
aI0
aI0
aI2
aI0
aI2
aI-13
aa(lp324
V0021000246
p325
aVNOV 28, 2010
p326
aVPOR @ NJN
p327
aVL
p328
aI21
aI0
aI3
aF0.0
aI0
aI0
aF0.0
aI2
aI4
aF0.5
aI1
aI1
aI2
aI2
aI1
aI2
aI2
aI2
aI2
aI-6
aa(lp329
V0021000233
p330
aVNOV 26, 2010
p331
aVPOR vs. NOH
p332
aVL
p333
aI37
aI2
aI8
aF0.25
aI1
aI5
aF0.2
aI0
aI0
aF0.0
aI0
aI0
aI0
aI2
aI3
aI1
aI0
aI4
aI5
aI-17
aa(lp334
V0021000189
p335
aVNOV 20, 2010
p336
aVPOR vs. UTA
p337
aVL
p338
aI34
aI5
aI14
aF0.357
aI1
aI6
aF0.167
aI3
aI3
aF1.0
aI2
aI4
aI6
aI0
aI3
aI2
aI2
aI6
aI14
aI0
aa(lp339
V0021000170
p340
aVNOV 18, 2010
p341
aVPOR vs. DEN
p342
aVW
p343
aI39
aI5
aI14
aF0.357
aI2
aI7
aF0.286
aI2
aI4
aF0.5
aI2
aI4
aI6
aI4
aI2
aI1
aI0
aI3
aI14
aI-8
aa(lp344
V0021000154
p345
aVNOV 16, 2010
p346
aVPOR @ MEM
p347
aVW
p348
aI30
aI5
aI10
aF0.5
aI1
aI3
aF0.333
aI0
aI0
aF0.0
aI2
aI4
aI6
aI2
aI2
aI0
aI1
aI4
aI11
aI4
aa(lp349
V0021000136
p350
aVNOV 13, 2010
p351
aVPOR @ NOH
p352
aVL
p353
aI33
aI6
aI14
aF0.429
aI2
aI7
aF0.286
aI2
aI2
aF1.0
aI0
aI4
aI4
aI0
aI0
aI1
aI2
aI6
aI16
aI-12
aa(lp354
V0021000128
p355
aVNOV 12, 2010
p356
aVPOR @ OKC
p357
aVL
p358
aI32
aI8
aI14
aF0.571
aI2
aI3
aF0.667
aI3
aI3
aF1.0
aI1
aI5
aI6
aI2
aI0
aI0
aI3
aI3
aI21
aI-2
aa(lp359
V0021000106
p360
aVNOV 09, 2010
p361
aVPOR vs. DET
p362
aVW
p363
aI29
aI7
aI11
aF0.636
aI1
aI3
aF0.333
aI2
aI3
aF0.667
aI2
aI2
aI4
aI1
aI2
aI1
aI1
aI2
aI17
aI10
aa(lp364
V0021000094
p365
aVNOV 07, 2010
p366
aVPOR @ LAL
p367
aVL
p368
aI29
aI7
aI13
aF0.538
aI3
aI6
aF0.5
aI0
aI0
aF0.0
aI0
aI1
aI1
aI1
aI0
aI0
aI2
aI3
aI17
aI-16
aa(lp369
V0021000087
p370
aVNOV 06, 2010
p371
aVPOR vs. TOR
p372
aVW
p373
aI35
aI7
aI14
aF0.5
aI3
aI6
aF0.5
aI3
aI4
aF0.75
aI2
aI1
aI3
aI2
aI3
aI1
aI0
aI1
aI20
aI24
aa(lp374
V0021000067
p375
aVNOV 04, 2010
p376
aVPOR vs. OKC
p377
aVL
p378
aI47
aI7
aI16
aF0.438
aI2
aI7
aF0.286
aI0
aI0
aF0.0
aI4
aI1
aI5
aI2
aI1
aI0
aI0
aI4
aI16
aI-6
aa(lp379
V0021000052
p380
aVNOV 02, 2010
p381
aVPOR @ MIL
p382
aVW
p383
aI14
aI1
aI5
aF0.2
aI0
aI3
aF0.0
aI0
aI0
aF0.0
aI0
aI3
aI3
aI0
aI0
aI0
aI1
aI3
aI2
aI-5
aa(lp384
V0021000044
p385
aVNOV 01, 2010
p386
aVPOR @ CHI
p387
aVL
p388
aI18
aI1
aI5
aF0.2
aI0
aI2
aF0.0
aI1
aI2
aF0.5
aI1
aI0
aI1
aI0
aI0
aI0
aI0
aI1
aI3
aI-4
aa(lp389
V0021000033
p390
aVOCT 30, 2010
p391
aVPOR @ NYK
p392
aVW
p393
aI28
aI4
aI6
aF0.667
aI1
aI3
aF0.333
aI1
aI2
aF0.5
aI0
aI4
aI4
aI2
aI0
aI0
aI0
aI0
aI10
aI16
aa(lp394
V0021000016
p395
aVOCT 27, 2010
p396
aVPOR @ LAC
p397
aVW
p398
aI32
aI6
aI7
aF0.857
aI3
aI4
aF0.75
aI0
aI0
aF0.0
aI2
aI4
aI6
aI3
aI2
aI2
aI0
aI3
aI15
aI13
aa(lp399
V0021000002
p400
aVOCT 26, 2010
p401
aVPOR vs. PHX
p402
aVW
p403
aI27
aI8
aI17
aF0.471
aI3
aI8
aF0.375
aI0
aI0
aF0.0
aI5
aI6
aI11
aI1
aI1
aI0
aI2
aI3
aI19
aI10
aasS'name'
p404
VNicolas Batum
p405
sS'experience'
p406
I2
s.