(dp0
S'age'
p1
I24
sS'stats'
p2
(lp3
(lp4
V0021001219
p5
aVAPR 13, 2011
p6
aVIND @ ORL
p7
aVL
p8
aI10
aI0
aI4
aF0.0
aI0
aI0
aF0.0
aI0
aI0
aF0.0
aI1
aI2
aI3
aI0
aI0
aI0
aI0
aI5
aI0
aI-4
aa(lp9
V0021001198
p10
aVAPR 10, 2011
p11
aVIND vs. NYK
p12
aVL
p13
aI34
aI5
aI10
aF0.5
aI0
aI0
aF0.0
aI9
aI11
aF0.818
aI0
aI10
aI10
aI4
aI0
aI1
aI4
aI2
aI19
aI-3
aa(lp14
V0021001176
p15
aVAPR 08, 2011
p16
aVIND vs. ATL
p17
aVW
p18
aI33
aI5
aI12
aF0.417
aI0
aI0
aF0.0
aI4
aI7
aF0.571
aI4
aI7
aI11
aI3
aI1
aI0
aI3
aI3
aI14
aI14
aa(lp19
V0021001163
p20
aVAPR 06, 2011
p21
aVIND vs. WAS
p22
aVW
p23
aI29
aI6
aI8
aF0.75
aI0
aI0
aF0.0
aI4
aI4
aF1.0
aI0
aI6
aI6
aI2
aI1
aI0
aI0
aI3
aI16
aI28
aa(lp24
V0021001147
p25
aVAPR 03, 2011
p26
aVIND @ NOH
p27
aVL
p28
aI21
aI5
aI13
aF0.385
aI0
aI1
aF0.0
aI0
aI0
aF0.0
aI2
aI4
aI6
aI0
aI0
aI0
aI1
aI4
aI10
aI-20
aa(lp29
V0021001120
p30
aVAPR 01, 2011
p31
aVIND vs. MIL
p32
aVW
p33
aI32
aI7
aI13
aF0.538
aI0
aI0
aF0.0
aI1
aI2
aF0.5
aI1
aI10
aI11
aI0
aI0
aI4
aI4
aI5
aI15
aI1
aa(lp34
V0021001107
p35
aVMAR 30, 2011
p36
aVIND vs. DET
p37
aVW
p38
aI31
aI3
aI5
aF0.6
aI0
aI0
aF0.0
aI6
aI7
aF0.857
aI1
aI3
aI4
aI2
aI0
aI2
aI2
aI3
aI12
aI4
aa(lp39
V0021001097
p40
aVMAR 28, 2011
p41
aVIND vs. BOS
p42
aVW
p43
aI33
aI12
aI17
aF0.706
aI0
aI0
aF0.0
aI2
aI2
aF1.0
aI2
aI2
aI4
aI2
aI0
aI1
aI3
aI1
aI26
aI-7
aa(lp44
V0021001083
p45
aVMAR 26, 2011
p46
aVIND @ DET
p47
aVL
p48
aI31
aI3
aI10
aF0.3
aI0
aI0
aF0.0
aI0
aI0
aF0.0
aI4
aI2
aI6
aI3
aI1
aI2
aI4
aI3
aI6
aI-16
aa(lp49
V0021001068
p50
aVMAR 25, 2011
p51
aVIND vs. SAC
p52
aVL
p53
aI32
aI4
aI9
aF0.444
aI0
aI0
aF0.0
aI3
aI3
aF1.0
aI3
aI2
aI5
aI0
aI0
aI2
aI2
aI1
aI11
aI-7
aa(lp54
V0021001054
p55
aVMAR 23, 2011
p56
aVIND @ CHA
p57
aVW
p58
aI29
aI5
aI7
aF0.714
aI0
aI0
aF0.0
aI3
aI3
aF1.0
aI2
aI12
aI14
aI4
aI1
aI2
aI3
aI4
aI13
aI18
aa(lp59
V0021001045
p60
aVMAR 21, 2011
p61
aVIND @ NJN
p62
aVW
p63
aI32
aI10
aI14
aF0.714
aI0
aI0
aF0.0
aI4
aI7
aF0.571
aI1
aI4
aI5
aI0
aI1
aI3
aI4
aI5
aI24
aI11
aa(lp64
V0021001031
p65
aVMAR 19, 2011
p66
aVIND @ MEM
p67
aVL
p68
aI11
aI0
aI1
aF0.0
aI0
aI0
aF0.0
aI2
aI2
aF1.0
aI0
aI0
aI0
aI1
aI0
aI0
aI2
aI5
aI2
aI-27
aa(lp69
V0021001017
p70
aVMAR 18, 2011
p71
aVIND vs. CHI
p72
aVW
p73
aI30
aI5
aI9
aF0.556
aI0
aI1
aF0.0
aI5
aI7
aF0.714
aI2
aI5
aI7
aI2
aI0
aI2
aI0
aI5
aI15
aI26
aa(lp74
V0021001004
p75
aVMAR 16, 2011
p76
aVIND @ BOS
p77
aVL
p78
aI23
aI3
aI7
aF0.429
aI0
aI0
aF0.0
aI0
aI0
aF0.0
aI5
aI2
aI7
aI2
aI1
aI1
aI4
aI5
aI6
aI0
aa(lp79
V0021001000
p80
aVMAR 15, 2011
p81
aVIND vs. NYK
p82
aVW
p83
aI31
aI5
aI13
aF0.385
aI0
aI0
aF0.0
aI5
aI6
aF0.833
aI6
aI6
aI12
aI5
aI0
aI3
aI3
aI3
aI15
aI2
aa(lp84
V0021000989
p85
aVMAR 13, 2011
p86
aVIND @ NYK
p87
aVW
p88
aI28
aI5
aI7
aF0.714
aI0
aI0
aF0.0
aI2
aI2
aF1.0
aI3
aI5
aI8
aI3
aI1
aI5
aI3
aI5
aI12
aI14
aa(lp89
V0021000970
p90
aVMAR 11, 2011
p91
aVIND @ TOR
p92
aVL
p93
aI21
aI2
aI5
aF0.4
aI0
aI0
aF0.0
aI0
aI1
aF0.0
aI0
aI3
aI3
aI1
aI0
aI0
aI2
aI5
aI4
aI-1
aa(lp94
V0021000960
p95
aVMAR 09, 2011
p96
aVIND @ MIN
p97
aVL
p98
aI20
aI0
aI6
aF0.0
aI0
aI0
aF0.0
aI0
aI0
aF0.0
aI1
aI8
aI9
aI1
aI1
aI1
aI1
aI4
aI0
aI-11
aa(lp99
V0021000949
p100
aVMAR 08, 2011
p101
aVIND vs. PHI
p102
aVL
p103
aI29
aI3
aI8
aF0.375
aI0
aI0
aF0.0
aI7
aI8
aF0.875
aI2
aI2
aI4
aI2
aI0
aI1
aI4
aI2
aI13
aI-2
aa(lp104
V0021000927
p105
aVMAR 05, 2011
p106
aVIND @ HOU
p107
aVL
p108
aI27
aI6
aI14
aF0.429
aI0
aI0
aF0.0
aI3
aI4
aF0.75
aI2
aI4
aI6
aI1
aI2
aI3
aI1
aI2
aI15
aI-15
aa(lp109
V0021000921
p110
aVMAR 04, 2011
p111
aVIND @ DAL
p112
aVL
p113
aI31
aI5
aI9
aF0.556
aI0
aI0
aF0.0
aI1
aI2
aF0.5
aI0
aI8
aI8
aI1
aI1
aI0
aI5
aI4
aI11
aI-5
aa(lp114
V0021000908
p115
aVMAR 02, 2011
p116
aVIND @ OKC
p117
aVL
p118
aI27
aI3
aI7
aF0.429
aI0
aI0
aF0.0
aI3
aI4
aF0.75
aI3
aI9
aI12
aI1
aI3
aI2
aI5
aI2
aI9
aI-23
aa(lp119
V0021000894
p120
aVMAR 01, 2011
p121
aVIND vs. GSW
p122
aVW
p123
aI33
aI5
aI12
aF0.417
aI0
aI0
aF0.0
aI2
aI2
aF1.0
aI3
aI6
aI9
aI4
aI1
aI4
aI2
aI3
aI12
aI5
aa(lp124
V0021000879
p125
aVFEB 27, 2011
p126
aVIND vs. PHX
p127
aVL
p128
aI30
aI4
aI8
aF0.5
aI0
aI0
aF0.0
aI0
aI0
aF0.0
aI2
aI4
aI6
aI1
aI0
aI4
aI2
aI2
aI8
aI-8
aa(lp129
V0021000862
p130
aVFEB 25, 2011
p131
aVIND vs. UTA
p132
aVL
p133
aI31
aI6
aI16
aF0.375
aI0
aI0
aF0.0
aI2
aI2
aF1.0
aI5
aI3
aI8
aI2
aI0
aI2
aI3
aI3
aI14
aI-18
aa(lp134
V0021000848
p135
aVFEB 23, 2011
p136
aVIND vs. DET
p137
aVW
p138
aI30
aI2
aI3
aF0.667
aI0
aI0
aF0.0
aI3
aI5
aF0.6
aI1
aI7
aI8
aI0
aI0
aI0
aI1
aI5
aI7
aI0
aa(lp139
V0021000839
p140
aVFEB 22, 2011
p141
aVIND @ WAS
p142
aVW
p143
aI29
aI5
aI9
aF0.556
aI0
aI0
aF0.0
aI6
aI9
aF0.667
aI1
aI5
aI6
aI0
aI1
aI4
aI2
aI2
aI16
aI11
aa(lp144
V0021000828
p145
aVFEB 16, 2011
p146
aVIND @ DET
p147
aVL
p148
aI41
aI12
aI23
aF0.522
aI0
aI0
aF0.0
aI5
aI5
aF1.0
aI4
aI5
aI9
aI3
aI0
aI2
aI3
aI3
aI29
aI-4
aa(lp149
V0021000818
p150
aVFEB 15, 2011
p151
aVIND vs. MIA
p152
aVL
p153
aI33
aI7
aI16
aF0.438
aI0
aI0
aF0.0
aI4
aI6
aF0.667
aI3
aI4
aI7
aI3
aI0
aI2
aI2
aI2
aI18
aI-15
aa(lp154
V0021000802
p155
aVFEB 12, 2011
p156
aVIND @ MIL
p157
aVW
p158
aI33
aI5
aI9
aF0.556
aI0
aI0
aF0.0
aI3
aI4
aF0.75
aI0
aI8
aI8
aI6
aI0
aI1
aI3
aI2
aI13
aI12
aa(lp159
V0021000787
p160
aVFEB 11, 2011
p161
aVIND vs. MIN
p162
aVW
p163
aI29
aI1
aI4
aF0.25
aI0
aI0
aF0.0
aI4
aI4
aF1.0
aI2
aI3
aI5
aI1
aI1
aI1
aI3
aI3
aI6
aI6
aa(lp164
V0021000774
p165
aVFEB 09, 2011
p166
aVIND vs. CHA
p167
aVW
p168
aI34
aI12
aI19
aF0.632
aI0
aI0
aF0.0
aI5
aI7
aF0.714
aI3
aI7
aI10
aI2
aI0
aI2
aI1
aI2
aI29
aI2
aa(lp169
V0021000769
p170
aVFEB 08, 2011
p171
aVIND @ MIA
p172
aVL
p173
aI31
aI8
aI14
aF0.571
aI0
aI0
aF0.0
aI4
aI6
aF0.667
aI4
aI6
aI10
aI1
aI3
aI1
aI3
aI6
aI20
aI-7
aa(lp174
V0021000755
p175
aVFEB 06, 2011
p176
aVIND @ NJN
p177
aVW
p178
aI26
aI5
aI10
aF0.5
aI0
aI0
aF0.0
aI1
aI1
aF1.0
aI1
aI2
aI3
aI4
aI0
aI2
aI0
aI3
aI11
aI12
aa(lp179
V0021000734
p180
aVFEB 04, 2011
p181
aVIND vs. POR
p182
aVW
p183
aI21
aI6
aI13
aF0.462
aI0
aI0
aF0.0
aI3
aI4
aF0.75
aI2
aI4
aI6
aI0
aI0
aI1
aI1
aI5
aI15
aI16
aa(lp184
V0021000720
p185
aVFEB 02, 2011
p186
aVIND @ CLE
p187
aVW
p188
aI31
aI5
aI13
aF0.385
aI0
aI0
aF0.0
aI3
aI3
aF1.0
aI3
aI7
aI10
aI2
aI0
aI2
aI2
aI4
aI13
aI0
aa(lp189
V0021000708
p190
aVJAN 31, 2011
p191
aVIND vs. TOR
p192
aVW
p193
aI30
aI9
aI19
aF0.474
aI0
aI0
aF0.0
aI6
aI9
aF0.667
aI5
aI6
aI11
aI1
aI2
aI2
aI5
aI4
aI24
aI-1
aa(lp194
V0021000693
p195
aVJAN 29, 2011
p196
aVIND @ CHI
p197
aVL
p198
aI21
aI1
aI5
aF0.2
aI0
aI0
aF0.0
aI0
aI0
aF0.0
aI1
aI4
aI5
aI2
aI0
aI5
aI2
aI3
aI2
aI4
aa(lp199
V0021000681
p200
aVJAN 28, 2011
p201
aVIND vs. NJN
p202
aVW
p203
aI25
aI7
aI12
aF0.583
aI0
aI0
aF0.0
aI6
aI7
aF0.857
aI1
aI5
aI6
aI2
aI0
aI2
aI2
aI4
aI20
aI20
aa(lp204
V0021000668
p205
aVJAN 26, 2011
p206
aVIND vs. ORL
p207
aVL
p208
aI15
aI2
aI6
aF0.333
aI0
aI0
aF0.0
aI0
aI2
aF0.0
aI0
aI2
aI2
aI0
aI0
aI0
aI2
aI2
aI4
aI-22
aa(lp209
V0021000652
p210
aVJAN 23, 2011
p211
aVIND @ DEN
p212
aVL
p213
aI22
aI6
aI15
aF0.4
aI0
aI0
aF0.0
aI0
aI2
aF0.0
aI1
aI5
aI6
aI1
aI0
aI0
aI1
aI2
aI12
aI-17
aa(lp214
V0021000650
p215
aVJAN 22, 2011
p216
aVIND @ POR
p217
aVL
p218
aI29
aI5
aI13
aF0.385
aI0
aI0
aF0.0
aI1
aI2
aF0.5
aI4
aI6
aI10
aI3
aI1
aI0
aI2
aI1
aI11
aI-1
aa(lp219
V0021000605
p220
aVJAN 17, 2011
p221
aVIND @ LAC
p222
aVL
p223
aI12
aI1
aI2
aF0.5
aI0
aI0
aF0.0
aI2
aI2
aF1.0
aI0
aI4
aI4
aI1
aI0
aI2
aI1
aI5
aI4
aI-6
aa(lp224
V0021000576
p225
aVJAN 14, 2011
p226
aVIND vs. CHI
p227
aVL
p228
aI22
aI1
aI8
aF0.125
aI0
aI0
aF0.0
aI0
aI0
aF0.0
aI2
aI5
aI7
aI0
aI0
aI3
aI3
aI1
aI2
aI-5
aa(lp229
V0021000562
p230
aVJAN 12, 2011
p231
aVIND vs. DAL
p232
aVW
p233
aI16
aI4
aI8
aF0.5
aI0
aI0
aF0.0
aI1
aI2
aF0.5
aI1
aI6
aI7
aI1
aI0
aI1
aI0
aI3
aI9
aI3
aa(lp234
V0021000555
p235
aVJAN 11, 2011
p236
aVIND @ PHI
p237
aVW
p238
aI24
aI4
aI12
aF0.333
aI0
aI0
aF0.0
aI0
aI0
aF0.0
aI2
aI6
aI8
aI1
aI0
aI2
aI1
aI2
aI8
aI-9
aa(lp239
V0021000536
p240
aVJAN 08, 2011
p241
aVIND @ ATL
p242
aVL
p243
aI19
aI3
aI8
aF0.375
aI0
aI0
aF0.0
aI2
aI2
aF1.0
aI2
aI5
aI7
aI0
aI0
aI1
aI4
aI1
aI8
aI-12
aa(lp244
V0021000525
p245
aVJAN 07, 2011
p246
aVIND vs. SAS
p247
aVL
p248
aI36
aI5
aI17
aF0.294
aI0
aI0
aF0.0
aI0
aI0
aF0.0
aI4
aI10
aI14
aI2
aI0
aI2
aI3
aI1
aI10
aI6
aa(lp249
V0021000492
p250
aVJAN 02, 2011
p251
aVIND @ NYK
p252
aVL
p253
aI16
aI4
aI9
aF0.444
aI0
aI0
aF0.0
aI2
aI4
aF0.5
aI1
aI3
aI4
aI2
aI0
aI0
aI0
aI2
aI10
aI-6
aa(lp254
V0021000478
p255
aVDEC 31, 2010
p256
aVIND vs. WAS
p257
aVW
p258
aI31
aI6
aI13
aF0.462
aI0
aI0
aF0.0
aI5
aI6
aF0.833
aI5
aI3
aI8
aI2
aI0
aI2
aI7
aI2
aI17
aI19
aa(lp259
V0021000464
p260
aVDEC 29, 2010
p261
aVIND @ WAS
p262
aVL
p263
aI15
aI2
aI4
aF0.5
aI0
aI0
aF0.0
aI1
aI2
aF0.5
aI2
aI2
aI4
aI1
aI0
aI2
aI0
aI5
aI5
aI-3
aa(lp264
V0021000456
p265
aVDEC 28, 2010
p266
aVIND vs. BOS
p267
aVL
p268
aI24
aI3
aI9
aF0.333
aI0
aI0
aF0.0
aI2
aI2
aF1.0
aI0
aI8
aI8
aI2
aI0
aI0
aI2
aI4
aI8
aI-3
aa(lp269
V0021000441
p270
aVDEC 26, 2010
p271
aVIND vs. MEM
p272
aVL
p273
aI31
aI5
aI17
aF0.294
aI0
aI0
aF0.0
aI4
aI7
aF0.571
aI3
aI7
aI10
aI0
aI0
aI0
aI0
aI2
aI14
aI-16
aa(lp274
V0021000408
p275
aVDEC 20, 2010
p276
aVIND vs. NOH
p277
aVW
p278
aI25
aI1
aI10
aF0.1
aI0
aI0
aF0.0
aI0
aI0
aF0.0
aI1
aI2
aI3
aI0
aI1
aI2
aI3
aI2
aI2
aI3
aa(lp279
V0021000400
p280
aVDEC 19, 2010
p281
aVIND @ BOS
p282
aVL
p283
aI33
aI8
aI23
aF0.348
aI0
aI0
aF0.0
aI1
aI1
aF1.0
aI5
aI9
aI14
aI2
aI0
aI2
aI1
aI2
aI17
aI-12
aa(lp284
V0021000381
p285
aVDEC 17, 2010
p286
aVIND vs. CLE
p287
aVW
p288
aI36
aI6
aI13
aF0.462
aI0
aI0
aF0.0
aI3
aI5
aF0.6
aI2
aI4
aI6
aI3
aI0
aI6
aI4
aI2
aI15
aI7
aa(lp289
V0021000367
p290
aVDEC 15, 2010
p291
aVIND vs. LAL
p292
aVL
p293
aI31
aI6
aI14
aF0.429
aI0
aI1
aF0.0
aI0
aI1
aF0.0
aI2
aI4
aI6
aI2
aI0
aI3
aI0
aI5
aI12
aI-15
aa(lp294
V0021000356
p295
aVDEC 13, 2010
p296
aVIND @ CHI
p297
aVL
p298
aI20
aI2
aI7
aF0.286
aI0
aI0
aF0.0
aI2
aI2
aF1.0
aI0
aI3
aI3
aI0
aI0
aI0
aI2
aI3
aI6
aI-18
aa(lp299
V0021000342
p300
aVDEC 11, 2010
p301
aVIND @ ATL
p302
aVL
p303
aI34
aI3
aI14
aF0.214
aI0
aI0
aF0.0
aI0
aI0
aF0.0
aI3
aI5
aI8
aI2
aI0
aI1
aI0
aI1
aI6
aI-15
aa(lp304
V0021000330
p305
aVDEC 10, 2010
p306
aVIND vs. CHA
p307
aVW
p308
aI27
aI6
aI11
aF0.545
aI0
aI0
aF0.0
aI1
aI1
aF1.0
aI2
aI12
aI14
aI6
aI1
aI3
aI3
aI5
aI13
aI-2
aa(lp309
V0021000319
p310
aVDEC 08, 2010
p311
aVIND @ MIL
p312
aVL
p313
aI31
aI5
aI8
aF0.625
aI0
aI0
aF0.0
aI3
aI7
aF0.429
aI0
aI5
aI5
aI1
aI1
aI2
aI3
aI4
aI13
aI1
aa(lp314
V0021000302
p315
aVDEC 06, 2010
p316
aVIND vs. TOR
p317
aVW
p318
aI28
aI6
aI9
aF0.667
aI0
aI0
aF0.0
aI1
aI1
aF1.0
aI2
aI4
aI6
aI6
aI0
aI2
aI5
aI2
aI13
aI14
aa(lp319
V0021000285
p320
aVDEC 03, 2010
p321
aVIND @ PHX
p322
aVL
p323
aI18
aI4
aI6
aF0.667
aI0
aI0
aF0.0
aI0
aI0
aF0.0
aI0
aI1
aI1
aI3
aI0
aI1
aI0
aI4
aI8
aI-11
aa(lp324
V0021000271
p325
aVDEC 01, 2010
p326
aVIND @ UTA
p327
aVL
p328
aI32
aI6
aI8
aF0.75
aI0
aI0
aF0.0
aI3
aI4
aF0.75
aI1
aI4
aI5
aI2
aI0
aI0
aI1
aI2
aI15
aI-17
aa(lp329
V0021000259
p330
aVNOV 30, 2010
p331
aVIND @ SAC
p332
aVW
p333
aI32
aI8
aI13
aF0.615
aI0
aI0
aF0.0
aI0
aI1
aF0.0
aI2
aI6
aI8
aI4
aI0
aI1
aI1
aI5
aI16
aI5
aa(lp334
V0021000249
p335
aVNOV 28, 2010
p336
aVIND @ LAL
p337
aVW
p338
aI34
aI9
aI13
aF0.692
aI0
aI0
aF0.0
aI6
aI8
aF0.75
aI2
aI10
aI12
aI6
aI1
aI0
aI3
aI4
aI24
aI6
aa(lp339
V0021000227
p340
aVNOV 26, 2010
p341
aVIND vs. OKC
p342
aVL
p343
aI37
aI9
aI21
aF0.429
aI0
aI0
aF0.0
aI1
aI2
aF0.5
aI4
aI6
aI10
aI2
aI1
aI1
aI2
aI3
aI19
aI-16
aa(lp344
V0021000203
p345
aVNOV 23, 2010
p346
aVIND vs. CLE
p347
aVW
p348
aI21
aI3
aI6
aF0.5
aI0
aI0
aF0.0
aI0
aI0
aF0.0
aI1
aI6
aI7
aI1
aI0
aI2
aI2
aI2
aI6
aI26
aa(lp349
V0021000196
p350
aVNOV 22, 2010
p351
aVIND @ MIA
p352
aVW
p353
aI22
aI4
aI11
aF0.364
aI0
aI0
aF0.0
aI1
aI1
aF1.0
aI3
aI2
aI5
aI1
aI0
aI0
aI1
aI5
aI9
aI-8
aa(lp354
V0021000183
p355
aVNOV 20, 2010
p356
aVIND vs. ORL
p357
aVL
p358
aI29
aI8
aI16
aF0.5
aI0
aI0
aF0.0
aI3
aI5
aF0.6
aI5
aI5
aI10
aI3
aI0
aI1
aI1
aI5
aI19
aI-6
aa(lp359
V0021000168
p360
aVNOV 18, 2010
p361
aVIND vs. LAC
p362
aVW
p363
aI31
aI9
aI13
aF0.692
aI0
aI0
aF0.0
aI0
aI0
aF0.0
aI1
aI7
aI8
aI1
aI1
aI3
aI6
aI0
aI18
aI16
aa(lp364
V0021000152
p365
aVNOV 16, 2010
p366
aVIND vs. ATL
p367
aVL
p368
aI33
aI6
aI16
aF0.375
aI0
aI0
aF0.0
aI6
aI8
aF0.75
aI7
aI8
aI15
aI3
aI1
aI1
aI3
aI4
aI18
aI2
aa(lp369
V0021000132
p370
aVNOV 13, 2010
p371
aVIND @ CLE
p372
aVW
p373
aI28
aI7
aI16
aF0.438
aI0
aI0
aF0.0
aI2
aI2
aF1.0
aI4
aI9
aI13
aI2
aI1
aI2
aI1
aI3
aI16
aI15
aa(lp374
V0021000122
p375
aVNOV 12, 2010
p376
aVIND vs. HOU
p377
aVL
p378
aI29
aI8
aI14
aF0.571
aI0
aI0
aF0.0
aI2
aI2
aF1.0
aI1
aI7
aI8
aI3
aI0
aI2
aI4
aI3
aI18
aI1
aa(lp379
V0021000101
p380
aVNOV 09, 2010
p381
aVIND vs. DEN
p382
aVW
p383
aI24
aI7
aI13
aF0.538
aI0
aI0
aF0.0
aI3
aI4
aF0.75
aI2
aI4
aI6
aI2
aI2
aI3
aI3
aI2
aI17
aI23
aa(lp384
V0021000068
p385
aVNOV 05, 2010
p386
aVIND vs. MIL
p387
aVL
p388
aI35
aI4
aI11
aF0.364
aI0
aI0
aF0.0
aI6
aI7
aF0.857
aI3
aI9
aI12
aI4
aI0
aI6
aI6
aI4
aI14
aI-1
aa(lp389
V0021000057
p390
aVNOV 03, 2010
p391
aVIND @ PHI
p392
aVL
p393
aI27
aI4
aI12
aF0.333
aI0
aI1
aF0.0
aI1
aI2
aF0.5
aI5
aI3
aI8
aI3
aI0
aI3
aI1
aI3
aI9
aI2
aa(lp394
V0021000034
p395
aVOCT 30, 2010
p396
aVIND vs. PHI
p397
aVW
p398
aI33
aI5
aI13
aF0.385
aI0
aI0
aF0.0
aI4
aI6
aF0.667
aI5
aI8
aI13
aI5
aI0
aI1
aI3
aI3
aI14
aI25
aa(lp399
V0021000019
p400
aVOCT 29, 2010
p401
aVIND @ CHA
p402
aVW
p403
aI38
aI3
aI8
aF0.375
aI0
aI0
aF0.0
aI7
aI8
aF0.875
aI2
aI6
aI8
aI6
aI0
aI4
aI0
aI3
aI13
aI12
aa(lp404
V0021000013
p405
aVOCT 27, 2010
p406
aVIND @ SAS
p407
aVL
p408
aI33
aI10
aI17
aF0.588
aI0
aI0
aF0.0
aI8
aI8
aF1.0
aI4
aI5
aI9
aI3
aI0
aI3
aI3
aI5
aI28
aI-6
aasS'name'
p409
VRoy Hibbert
p410
sS'experience'
p411
I2
s.