(dp0
S'stats'
p1
(lp2
(lp3
V0021000009
p4
aVOCT 27, 2010
p5
aVMIN vs. SAC
p6
aVL
p7
aI8
aI2
aI3
aF0.667
aI0
aI0
aF0.0
aI0
aI0
aF0.0
aI0
aI2
aI2
aI0
aI0
aI0
aI0
aI1
aI4
aI-6
aa(lp8
V0021000026
p9
aVOCT 29, 2010
p10
aVMIN vs. MIL
p11
aVW
p12
aI9
aI2
aI3
aF0.667
aI0
aI0
aF0.0
aI0
aI0
aF0.0
aI0
aI2
aI2
aI0
aI0
aI2
aI1
aI3
aI4
aI-3
aa(lp13
V0021000036
p14
aVOCT 30, 2010
p15
aVMIN @ MEM
p16
aVL
p17
aI6
aI1
aI2
aF0.5
aI0
aI0
aF0.0
aI0
aI0
aF0.0
aI1
aI0
aI1
aI0
aI0
aI0
aI1
aI1
aI2
aI4
aa(lp18
V0021000050
p19
aVNOV 02, 2010
p20
aVMIN @ MIA
p21
aVL
p22
aI11
aI1
aI1
aF1.0
aI0
aI0
aF0.0
aI0
aI1
aF0.0
aI1
aI2
aI3
aI0
aI0
aI1
aI0
aI2
aI2
aI-6
aa(lp23
V0021000056
p24
aVNOV 03, 2010
p25
aVMIN @ ORL
p26
aVL
p27
aI16
aI2
aI5
aF0.4
aI0
aI0
aF0.0
aI0
aI0
aF0.0
aI1
aI1
aI2
aI1
aI0
aI0
aI1
aI2
aI4
aI-7
aa(lp28
V0021000092
p29
aVNOV 07, 2010
p30
aVMIN @ HOU
p31
aVL
p32
aI14
aI1
aI4
aF0.25
aI0
aI0
aF0.0
aI1
aI2
aF0.5
aI3
aI3
aI6
aI0
aI1
aI0
aI1
aI2
aI3
aI-4
aa(lp33
V0021000107
p34
aVNOV 09, 2010
p35
aVMIN @ LAL
p36
aVL
p37
aI9
aI2
aI4
aF0.5
aI0
aI0
aF0.0
aI0
aI0
aF0.0
aI1
aI0
aI1
aI0
aI0
aI0
aI1
aI0
aI4
aI-6
aa(lp38
V0021000125
p39
aVNOV 12, 2010
p40
aVMIN vs. NYK
p41
aVW
p42
aI3
aI0
aI1
aF0.0
aI0
aI0
aF0.0
aI0
aI0
aF0.0
aI0
aI0
aI0
aI0
aI0
aI0
aI0
aI0
aI0
aI2
aa(lp43
V0021000139
p44
aVNOV 14, 2010
p45
aVMIN @ ATL
p46
aVL
p47
aI6
aI2
aI4
aF0.5
aI0
aI0
aF0.0
aI0
aI0
aF0.0
aI1
aI1
aI2
aI0
aI1
aI0
aI0
aI1
aI4
aI-12
aa(lp48
V0021000144
p49
aVNOV 15, 2010
p50
aVMIN @ CHA
p51
aVL
p52
aI1
aI0
aI1
aF0.0
aI0
aI1
aF0.0
aI0
aI0
aF0.0
aI0
aI0
aI0
aI0
aI0
aI0
aI0
aI0
aI0
aI0
aa(lp53
V0021000162
p54
aVNOV 17, 2010
p55
aVMIN vs. LAC
p56
aVW
p57
aI5
aI0
aI1
aF0.0
aI0
aI0
aF0.0
aI0
aI0
aF0.0
aI0
aI1
aI1
aI0
aI0
aI0
aI1
aI2
aI0
aI-2
aa(lp58
V0021000176
p59
aVNOV 19, 2010
p60
aVMIN vs. LAL
p61
aVL
p62
aI7
aI1
aI3
aF0.333
aI0
aI0
aF0.0
aI0
aI0
aF0.0
aI1
aI0
aI1
aI0
aI0
aI0
aI1
aI2
aI2
aI5
aa(lp63
V0021000197
p64
aVNOV 22, 2010
p65
aVMIN @ OKC
p66
aVL
p67
aI0
aI0
aI0
aF0.0
aI0
aI0
aF0.0
aI0
aI0
aF0.0
aI0
aI0
aI0
aI0
aI0
aI0
aI0
aI0
aI0
aI0
aa(lp68
V0021000215
p69
aVNOV 24, 2010
p70
aVMIN vs. SAS
p71
aVL
p72
aI6
aI1
aI1
aF1.0
aI0
aI0
aF0.0
aI1
aI2
aF0.5
aI2
aI0
aI2
aI0
aI1
aI0
aI0
aI2
aI3
aI1
aa(lp73
V0021000238
p74
aVNOV 27, 2010
p75
aVMIN vs. GSW
p76
aVL
p77
aI2
aI0
aI1
aF0.0
aI0
aI0
aF0.0
aI0
aI0
aF0.0
aI0
aI0
aI0
aI0
aI0
aI0
aI1
aI0
aI0
aI0
aa(lp78
V0021000268
p79
aVDEC 01, 2010
p80
aVMIN @ DAL
p81
aVL
p82
aI2
aI1
aI1
aF1.0
aI0
aI0
aF0.0
aI3
aI3
aF1.0
aI1
aI0
aI1
aI0
aI0
aI0
aI1
aI0
aI5
aI5
aa(lp83
V0021000283
p84
aVDEC 03, 2010
p85
aVMIN @ SAS
p86
aVL
p87
aI15
aI3
aI8
aF0.375
aI0
aI1
aF0.0
aI0
aI0
aF0.0
aI4
aI4
aI8
aI0
aI1
aI1
aI1
aI1
aI6
aI3
aa(lp88
V0021000291
p89
aVDEC 04, 2010
p90
aVMIN vs. CLE
p91
aVW
p92
aI10
aI1
aI2
aF0.5
aI0
aI0
aF0.0
aI0
aI0
aF0.0
aI0
aI1
aI1
aI0
aI0
aI1
aI0
aI2
aI2
aI-7
aa(lp93
V0021000320
p94
aVDEC 08, 2010
p95
aVMIN vs. OKC
p96
aVL
p97
aI3
aI0
aI0
aF0.0
aI0
aI0
aF0.0
aI0
aI0
aF0.0
aI0
aI0
aI0
aI0
aI0
aI0
aI0
aI0
aI0
aI-5
aa(lp98
V0021000345
p99
aVDEC 11, 2010
p100
aVMIN @ CHI
p101
aVL
p102
aI7
aI0
aI0
aF0.0
aI0
aI0
aF0.0
aI2
aI2
aF1.0
aI0
aI0
aI0
aI0
aI0
aI1
aI2
aI2
aI2
aI-1
aa(lp103
V0021000391
p104
aVDEC 17, 2010
p105
aVMIN @ POR
p106
aVL
p107
aI25
aI3
aI9
aF0.333
aI0
aI0
aF0.0
aI0
aI0
aF0.0
aI7
aI4
aI11
aI1
aI0
aI1
aI0
aI5
aI6
aI8
aa(lp108
V0021000398
p109
aVDEC 18, 2010
p110
aVMIN @ DEN
p111
aVL
p112
aI21
aI2
aI5
aF0.4
aI0
aI0
aF0.0
aI0
aI0
aF0.0
aI1
aI9
aI10
aI1
aI0
aI3
aI1
aI5
aI4
aI-7
aa(lp113
V0021000414
p114
aVDEC 20, 2010
p115
aVMIN @ LAC
p116
aVL
p117
aI23
aI4
aI9
aF0.444
aI0
aI0
aF0.0
aI0
aI0
aF0.0
aI2
aI2
aI4
aI1
aI2
aI0
aI1
aI2
aI8
aI-10
aa(lp118
V0021000426
p119
aVDEC 22, 2010
p120
aVMIN vs. UTA
p121
aVL
p122
aI8
aI0
aI3
aF0.0
aI0
aI0
aF0.0
aI0
aI0
aF0.0
aI1
aI1
aI2
aI1
aI0
aI1
aI1
aI1
aI0
aI2
aa(lp123
V0021000439
p124
aVDEC 26, 2010
p125
aVMIN @ CLE
p126
aVW
p127
aI12
aI1
aI3
aF0.333
aI0
aI0
aF0.0
aI0
aI0
aF0.0
aI1
aI3
aI4
aI1
aI0
aI0
aI1
aI1
aI2
aI-2
aa(lp128
V0021000449
p129
aVDEC 27, 2010
p130
aVMIN vs. NOH
p131
aVW
p132
aI1
aI0
aI1
aF0.0
aI0
aI0
aF0.0
aI0
aI0
aF0.0
aI0
aI0
aI0
aI0
aI0
aI0
aI0
aI0
aI0
aI-1
aa(lp133
V0021000466
p134
aVDEC 29, 2010
p135
aVMIN vs. DEN
p136
aVL
p137
aI3
aI0
aI3
aF0.0
aI0
aI0
aF0.0
aI1
aI2
aF0.5
aI2
aI0
aI2
aI0
aI0
aI0
aI0
aI0
aI1
aI-6
aa(lp138
V0021000487
p139
aVJAN 01, 2011
p140
aVMIN vs. NJN
p141
aVW
p142
aI8
aI2
aI2
aF1.0
aI0
aI0
aF0.0
aI1
aI2
aF0.5
aI1
aI3
aI4
aI0
aI1
aI1
aI0
aI2
aI5
aI-5
aa(lp143
V0021000501
p144
aVJAN 03, 2011
p145
aVMIN @ BOS
p146
aVL
p147
aI3
aI1
aI2
aF0.5
aI0
aI0
aF0.0
aI0
aI0
aF0.0
aI1
aI0
aI1
aI0
aI0
aI0
aI1
aI0
aI2
aI0
aa(lp148
V0021000517
p149
aVJAN 05, 2011
p150
aVMIN vs. CHA
p151
aVL
p152
aI14
aI1
aI3
aF0.333
aI0
aI0
aF0.0
aI0
aI0
aF0.0
aI0
aI6
aI6
aI1
aI0
aI1
aI2
aI1
aI2
aI13
aa(lp153
V0021000531
p154
aVJAN 07, 2011
p155
aVMIN vs. POR
p156
aVL
p157
aI13
aI3
aI5
aF0.6
aI0
aI0
aF0.0
aI0
aI2
aF0.0
aI1
aI1
aI2
aI0
aI0
aI0
aI1
aI2
aI6
aI-11
aa(lp158
V0021000625
p159
aVJAN 19, 2011
p160
aVMIN @ LAC
p161
aVL
p162
aI9
aI0
aI0
aF0.0
aI0
aI0
aF0.0
aI1
aI2
aF0.5
aI1
aI1
aI2
aI0
aI1
aI0
aI1
aI2
aI1
aI-4
aa(lp163
V0021000724
p164
aVFEB 02, 2011
p165
aVMIN vs. MEM
p166
aVL
p167
aI3
aI0
aI0
aF0.0
aI0
aI0
aF0.0
aI0
aI0
aF0.0
aI0
aI1
aI1
aI0
aI0
aI1
aI0
aI0
aI0
aI2
aa(lp168
V0021000736
p169
aVFEB 04, 2011
p170
aVMIN @ TOR
p171
aVL
p172
aI4
aI0
aI0
aF0.0
aI0
aI0
aF0.0
aI0
aI0
aF0.0
aI0
aI0
aI0
aI0
aI0
aI0
aI0
aI2
aI0
aI5
aa(lp173
V0021000760
p174
aVFEB 07, 2011
p175
aVMIN @ NOH
p176
aVW
p177
aI1
aI0
aI0
aF0.0
aI0
aI0
aF0.0
aI0
aI0
aF0.0
aI0
aI0
aI0
aI0
aI0
aI0
aI0
aI0
aI0
aI-6
aa(lp178
V0021000772
p179
aVFEB 08, 2011
p180
aVMIN @ HOU
p181
aVW
p182
aI19
aI4
aI7
aF0.571
aI0
aI0
aF0.0
aI0
aI2
aF0.0
aI3
aI2
aI5
aI0
aI0
aI2
aI1
aI2
aI8
aI8
aa(lp183
V0021000787
p184
aVFEB 11, 2011
p185
aVMIN @ IND
p186
aVL
p187
aI16
aI4
aI5
aF0.8
aI0
aI0
aF0.0
aI1
aI2
aF0.5
aI3
aI3
aI6
aI0
aI0
aI3
aI2
aI1
aI9
aI9
aa(lp188
V0021000799
p189
aVFEB 12, 2011
p190
aVMIN vs. PHI
p191
aVL
p192
aI8
aI1
aI3
aF0.333
aI0
aI0
aF0.0
aI0
aI0
aF0.0
aI1
aI0
aI1
aI0
aI0
aI0
aI0
aI0
aI2
aI-6
aa(lp193
V0021000816
p194
aVFEB 14, 2011
p195
aVMIN vs. POR
p196
aVL
p197
aI5
aI1
aI3
aF0.333
aI0
aI0
aF0.0
aI1
aI2
aF0.5
aI1
aI2
aI3
aI0
aI0
aI1
aI1
aI1
aI3
aI-8
aa(lp198
V0021000909
p199
aVMAR 02, 2011
p200
aVDEN vs. CHA
p201
aVW
p202
aI7
aI1
aI2
aF0.5
aI0
aI0
aF0.0
aI0
aI0
aF0.0
aI1
aI2
aI3
aI0
aI0
aI0
aI0
aI0
aI2
aI14
aa(lp203
V0021000966
p204
aVMAR 10, 2011
p205
aVDEN @ PHX
p206
aVW
p207
aI5
aI1
aI2
aF0.5
aI0
aI0
aF0.0
aI2
aI2
aF1.0
aI2
aI0
aI2
aI0
aI1
aI2
aI0
aI1
aI4
aI-2
aa(lp208
V0021000984
p209
aVMAR 12, 2011
p210
aVDEN vs. DET
p211
aVW
p212
aI4
aI0
aI1
aF0.0
aI0
aI0
aF0.0
aI1
aI2
aF0.5
aI0
aI0
aI0
aI0
aI0
aI0
aI0
aI1
aI1
aI1
aa(lp213
V0021001003
p214
aVMAR 16, 2011
p215
aVDEN @ ATL
p216
aVW
p217
aI1
aI0
aI0
aF0.0
aI0
aI0
aF0.0
aI0
aI0
aF0.0
aI0
aI1
aI1
aI0
aI0
aI0
aI0
aI0
aI0
aI0
aa(lp218
V0021001050
p219
aVMAR 21, 2011
p220
aVDEN vs. TOR
p221
aVW
p222
aI9
aI0
aI5
aF0.0
aI0
aI0
aF0.0
aI0
aI0
aF0.0
aI1
aI2
aI3
aI0
aI0
aI2
aI0
aI0
aI0
aI0
aa(lp223
V0021001076
p224
aVMAR 25, 2011
p225
aVDEN vs. WAS
p226
aVW
p227
aI4
aI0
aI3
aF0.0
aI0
aI0
aF0.0
aI2
aI2
aF1.0
aI0
aI1
aI1
aI0
aI0
aI1
aI0
aI0
aI2
aI-1
aa(lp228
V0021001159
p229
aVAPR 05, 2011
p230
aVDEN vs. OKC
p231
aVL
p232
aI3
aI0
aI2
aF0.0
aI0
aI0
aF0.0
aI0
aI0
aF0.0
aI0
aI0
aI0
aI0
aI0
aI0
aI0
aI0
aI0
aI0
aa(lp233
V0021001185
p234
aVAPR 08, 2011
p235
aVDEN @ OKC
p236
aVL
p237
aI3
aI1
aI2
aF0.5
aI0
aI0
aF0.0
aI0
aI0
aF0.0
aI1
aI1
aI2
aI0
aI0
aI0
aI0
aI0
aI2
aI2
aa(lp238
V0021001192
p239
aVAPR 09, 2011
p240
aVDEN vs. MIN
p241
aVW
p242
aI17
aI5
aI6
aF0.833
aI0
aI0
aF0.0
aI1
aI6
aF0.167
aI3
aI3
aI6
aI0
aI0
aI0
aI2
aI3
aI11
aI-13
aa(lp243
V0021001210
p244
aVAPR 11, 2011
p245
aVDEN vs. GSW
p246
aVW
p247
aI19
aI6
aI8
aF0.75
aI0
aI0
aF0.0
aI6
aI7
aF0.857
aI3
aI6
aI9
aI0
aI1
aI0
aI0
aI1
aI18
aI13
aa(lp248
V0021001226
p249
aVAPR 13, 2011
p250
aVDEN @ UTA
p251
aVL
p252
aI27
aI7
aI11
aF0.636
aI0
aI0
aF0.0
aI0
aI0
aF0.0
aI4
aI2
aI6
aI0
aI0
aI0
aI4
aI3
aI14
aI-7
aasS'name'
p253
VKosta Koufos
p254
sS'weight'
p255
V265
p256
sS'age'
p257
I21
sS'experience'
p258
I2
sS'height'
p259
V7-0
p260
sS'position'
p261
VCenter
p262
s.