(dp0
S'age'
p1
I24
sS'stats'
p2
(lp3
(lp4
V0021000025
p5
aVOCT 29, 2010
p6
aVMIA vs. ORL
p7
aVW
p8
aI4
aI0
aI0
aF0.0
aI0
aI0
aF0.0
aI0
aI0
aF0.0
aI0
aI0
aI0
aI0
aI0
aI0
aI0
aI0
aI0
aI3
aa(lp9
V0021000040
p10
aVOCT 31, 2010
p11
aVMIA @ NJN
p12
aVW
p13
aI3
aI0
aI1
aF0.0
aI0
aI1
aF0.0
aI0
aI0
aF0.0
aI0
aI0
aI0
aI1
aI1
aI0
aI0
aI0
aI0
aI0
aa(lp14
V0021000050
p15
aVNOV 02, 2010
p16
aVMIA vs. MIN
p17
aVW
p18
aI18
aI2
aI4
aF0.5
aI2
aI4
aF0.5
aI2
aI2
aF1.0
aI0
aI2
aI2
aI8
aI1
aI0
aI2
aI1
aI8
aI8
aa(lp19
V0021000082
p20
aVNOV 06, 2010
p21
aVMIA vs. NJN
p22
aVW
p23
aI4
aI0
aI1
aF0.0
aI0
aI1
aF0.0
aI0
aI0
aF0.0
aI0
aI0
aI0
aI0
aI0
aI0
aI1
aI0
aI0
aI-8
aa(lp24
V0021000118
p25
aVNOV 11, 2010
p26
aVMIA vs. BOS
p27
aVL
p28
aI5
aI0
aI1
aF0.0
aI0
aI1
aF0.0
aI0
aI0
aF0.0
aI0
aI1
aI1
aI0
aI0
aI0
aI0
aI0
aI0
aI-8
aa(lp29
V0021000133
p30
aVNOV 13, 2010
p31
aVMIA vs. TOR
p32
aVW
p33
aI10
aI0
aI1
aF0.0
aI0
aI1
aF0.0
aI0
aI0
aF0.0
aI0
aI0
aI0
aI0
aI1
aI0
aI1
aI1
aI0
aI-4
aa(lp34
V0021000158
p35
aVNOV 17, 2010
p36
aVMIA vs. PHX
p37
aVW
p38
aI5
aI0
aI1
aF0.0
aI0
aI0
aF0.0
aI0
aI0
aF0.0
aI0
aI0
aI0
aI1
aI0
aI0
aI0
aI1
aI0
aI1
aa(lp39
V0021000175
p40
aVNOV 19, 2010
p41
aVMIA vs. CHA
p42
aVW
p43
aI6
aI0
aI1
aF0.0
aI0
aI1
aF0.0
aI0
aI0
aF0.0
aI0
aI0
aI0
aI1
aI1
aI0
aI0
aI1
aI0
aI4
aa(lp44
V0021000185
p45
aVNOV 20, 2010
p46
aVMIA @ MEM
p47
aVL
p48
aI11
aI1
aI1
aF1.0
aI0
aI0
aF0.0
aI0
aI0
aF0.0
aI0
aI1
aI1
aI1
aI0
aI1
aI0
aI0
aI2
aI-7
aa(lp49
V0021000226
p50
aVNOV 26, 2010
p51
aVMIA vs. PHI
p52
aVW
p53
aI7
aI0
aI1
aF0.0
aI0
aI1
aF0.0
aI0
aI0
aF0.0
aI0
aI0
aI0
aI1
aI1
aI0
aI0
aI1
aI0
aI-1
aa(lp54
V0021000239
p55
aVNOV 27, 2010
p56
aVMIA @ DAL
p57
aVL
p58
aI21
aI2
aI4
aF0.5
aI2
aI3
aF0.667
aI2
aI2
aF1.0
aI0
aI1
aI1
aI3
aI2
aI0
aI0
aI3
aI8
aI1
aa(lp59
V0021000250
p60
aVNOV 29, 2010
p61
aVMIA vs. WAS
p62
aVW
p63
aI22
aI2
aI8
aF0.25
aI1
aI5
aF0.2
aI0
aI0
aF0.0
aI0
aI5
aI5
aI1
aI0
aI0
aI0
aI1
aI5
aI8
aa(lp64
V0021000265
p65
aVDEC 01, 2010
p66
aVMIA vs. DET
p67
aVW
p68
aI24
aI1
aI4
aF0.25
aI0
aI1
aF0.0
aI2
aI2
aF1.0
aI0
aI4
aI4
aI6
aI3
aI0
aI0
aI0
aI4
aI11
aa(lp69
V0021000273
p70
aVDEC 02, 2010
p71
aVMIA @ CLE
p72
aVW
p73
aI20
aI3
aI5
aF0.6
aI3
aI4
aF0.75
aI0
aI0
aF0.0
aI0
aI0
aI0
aI3
aI0
aI0
aI0
aI5
aI9
aI12
aa(lp74
V0021000288
p75
aVDEC 04, 2010
p76
aVMIA vs. ATL
p77
aVW
p78
aI27
aI4
aI10
aF0.4
aI1
aI3
aF0.333
aI0
aI0
aF0.0
aI0
aI5
aI5
aI4
aI1
aI0
aI1
aI2
aI9
aI14
aa(lp79
V0021000306
p80
aVDEC 06, 2010
p81
aVMIA @ MIL
p82
aVW
p83
aI16
aI1
aI3
aF0.333
aI0
aI0
aF0.0
aI0
aI0
aF0.0
aI0
aI1
aI1
aI2
aI1
aI0
aI4
aI2
aI2
aI0
aa(lp84
V0021000324
p85
aVDEC 08, 2010
p86
aVMIA @ UTA
p87
aVW
p88
aI25
aI3
aI9
aF0.333
aI2
aI7
aF0.286
aI0
aI0
aF0.0
aI0
aI2
aI2
aI3
aI2
aI0
aI2
aI4
aI8
aI16
aa(lp89
V0021000340
p90
aVDEC 10, 2010
p91
aVMIA @ GSW
p92
aVW
p93
aI28
aI2
aI4
aF0.5
aI2
aI3
aF0.667
aI0
aI0
aF0.0
aI0
aI2
aI2
aI2
aI1
aI0
aI3
aI2
aI6
aI5
aa(lp94
V0021000348
p95
aVDEC 11, 2010
p96
aVMIA @ SAC
p97
aVW
p98
aI27
aI2
aI7
aF0.286
aI2
aI4
aF0.5
aI2
aI2
aF1.0
aI1
aI2
aI3
aI3
aI2
aI0
aI2
aI3
aI8
aI11
aa(lp99
V0021000355
p100
aVDEC 13, 2010
p101
aVMIA vs. NOH
p102
aVW
p103
aI27
aI1
aI5
aF0.2
aI0
aI3
aF0.0
aI4
aI4
aF1.0
aI0
aI1
aI1
aI3
aI1
aI0
aI0
aI4
aI6
aI4
aa(lp104
V0021000371
p105
aVDEC 15, 2010
p106
aVMIA vs. CLE
p107
aVW
p108
aI35
aI5
aI9
aF0.556
aI4
aI8
aF0.5
aI0
aI0
aF0.0
aI1
aI2
aI3
aI4
aI0
aI0
aI2
aI4
aI14
aI4
aa(lp109
V0021000382
p110
aVDEC 17, 2010
p111
aVMIA @ NYK
p112
aVW
p113
aI22
aI3
aI6
aF0.5
aI2
aI4
aF0.5
aI0
aI0
aF0.0
aI0
aI2
aI2
aI0
aI2
aI0
aI0
aI1
aI8
aI-1
aa(lp114
V0021000393
p115
aVDEC 18, 2010
p116
aVMIA @ WAS
p117
aVW
p118
aI29
aI3
aI7
aF0.429
aI2
aI5
aF0.4
aI0
aI0
aF0.0
aI0
aI6
aI6
aI4
aI1
aI0
aI1
aI3
aI8
aI14
aa(lp119
V0021000410
p120
aVDEC 20, 2010
p121
aVMIA vs. DAL
p122
aVL
p123
aI30
aI3
aI10
aF0.3
aI3
aI7
aF0.429
aI4
aI4
aF1.0
aI2
aI2
aI4
aI2
aI3
aI0
aI2
aI6
aI13
aI5
aa(lp124
V0021000432
p125
aVDEC 23, 2010
p126
aVMIA @ PHX
p127
aVW
p128
aI27
aI5
aI11
aF0.455
aI1
aI4
aF0.25
aI0
aI0
aF0.0
aI0
aI3
aI3
aI2
aI2
aI1
aI3
aI2
aI11
aI12
aa(lp129
V0021000435
p130
aVDEC 25, 2010
p131
aVMIA @ LAL
p132
aVW
p133
aI29
aI4
aI11
aF0.364
aI3
aI9
aF0.333
aI2
aI3
aF0.667
aI0
aI2
aI2
aI2
aI1
aI0
aI1
aI2
aI13
aI5
aa(lp134
V0021000457
p135
aVDEC 28, 2010
p136
aVMIA vs. NYK
p137
aVW
p138
aI27
aI2
aI4
aF0.5
aI1
aI2
aF0.5
aI0
aI0
aF0.0
aI0
aI3
aI3
aI0
aI0
aI0
aI2
aI3
aI5
aI-7
aa(lp139
V0021000469
p140
aVDEC 29, 2010
p141
aVMIA @ HOU
p142
aVW
p143
aI24
aI1
aI2
aF0.5
aI1
aI2
aF0.5
aI5
aI5
aF1.0
aI0
aI3
aI3
aI4
aI0
aI1
aI1
aI4
aI8
aI3
aa(lp144
V0021000486
p145
aVJAN 01, 2011
p146
aVMIA vs. GSW
p147
aVW
p148
aI22
aI3
aI7
aF0.429
aI2
aI5
aF0.4
aI0
aI0
aF0.0
aI0
aI4
aI4
aI0
aI1
aI0
aI1
aI2
aI8
aI7
aa(lp149
V0021000499
p150
aVJAN 03, 2011
p151
aVMIA @ CHA
p152
aVW
p153
aI29
aI1
aI7
aF0.143
aI0
aI3
aF0.0
aI0
aI0
aF0.0
aI0
aI4
aI4
aI1
aI2
aI0
aI0
aI0
aI2
aI7
aa(lp154
V0021000505
p155
aVJAN 04, 2011
p156
aVMIA vs. MIL
p157
aVW
p158
aI21
aI3
aI9
aF0.333
aI2
aI5
aF0.4
aI1
aI1
aF1.0
aI0
aI0
aI0
aI0
aI3
aI0
aI2
aI1
aI9
aI5
aa(lp159
V0021000532
p160
aVJAN 07, 2011
p161
aVMIA @ MIL
p162
aVW
p163
aI17
aI3
aI5
aF0.6
aI1
aI2
aF0.5
aI0
aI0
aF0.0
aI0
aI0
aI0
aI2
aI0
aI0
aI2
aI4
aI7
aI0
aa(lp164
V0021000549
p165
aVJAN 09, 2011
p166
aVMIA @ POR
p167
aVW
p168
aI20
aI1
aI3
aF0.333
aI0
aI2
aF0.0
aI0
aI0
aF0.0
aI0
aI5
aI5
aI2
aI0
aI0
aI2
aI2
aI2
aI-7
aa(lp169
V0021000572
p170
aVJAN 12, 2011
p171
aVMIA @ LAC
p172
aVL
p173
aI29
aI4
aI12
aF0.333
aI3
aI9
aF0.333
aI1
aI2
aF0.5
aI2
aI2
aI4
aI3
aI2
aI0
aI1
aI3
aI12
aI2
aa(lp174
V0021000575
p175
aVJAN 13, 2011
p176
aVMIA @ DEN
p177
aVL
p178
aI29
aI5
aI10
aF0.5
aI4
aI7
aF0.571
aI0
aI0
aF0.0
aI0
aI0
aI0
aI3
aI2
aI0
aI3
aI3
aI14
aI-13
aa(lp179
V0021000591
p180
aVJAN 15, 2011
p181
aVMIA @ CHI
p182
aVL
p183
aI29
aI4
aI12
aF0.333
aI2
aI9
aF0.222
aI0
aI0
aF0.0
aI0
aI3
aI3
aI3
aI2
aI0
aI3
aI3
aI10
aI-5
aa(lp184
V0021000611
p185
aVJAN 18, 2011
p186
aVMIA vs. ATL
p187
aVL
p188
aI40
aI4
aI8
aF0.5
aI2
aI6
aF0.333
aI0
aI0
aF0.0
aI0
aI4
aI4
aI1
aI1
aI0
aI1
aI1
aI10
aI6
aa(lp189
V0021000643
p190
aVJAN 22, 2011
p191
aVMIA vs. TOR
p192
aVW
p193
aI35
aI3
aI3
aF1.0
aI3
aI3
aF1.0
aI1
aI1
aF1.0
aI1
aI3
aI4
aI9
aI0
aI1
aI3
aI4
aI10
aI20
aa(lp194
V0021000678
p195
aVJAN 27, 2011
p196
aVMIA @ NYK
p197
aVL
p198
aI36
aI1
aI4
aF0.25
aI0
aI3
aF0.0
aI5
aI5
aF1.0
aI0
aI2
aI2
aI1
aI2
aI0
aI1
aI4
aI7
aI1
aa(lp199
V0021000686
p200
aVJAN 28, 2011
p201
aVMIA vs. DET
p202
aVW
p203
aI28
aI3
aI9
aF0.333
aI1
aI5
aF0.2
aI1
aI1
aF1.0
aI0
aI0
aI0
aI4
aI0
aI0
aI2
aI4
aI8
aI-3
aa(lp204
V0021000701
p205
aVJAN 30, 2011
p206
aVMIA @ OKC
p207
aVW
p208
aI23
aI1
aI2
aF0.5
aI1
aI2
aF0.5
aI3
aI3
aF1.0
aI0
aI0
aI0
aI3
aI0
aI0
aI1
aI3
aI6
aI-1
aa(lp209
V0021000710
p210
aVJAN 31, 2011
p211
aVMIA vs. CLE
p212
aVW
p213
aI22
aI2
aI5
aF0.4
aI2
aI5
aF0.4
aI0
aI0
aF0.0
aI1
aI3
aI4
aI1
aI2
aI0
aI3
aI2
aI6
aI5
aa(lp214
V0021000730
p215
aVFEB 03, 2011
p216
aVMIA @ ORL
p217
aVW
p218
aI15
aI0
aI2
aF0.0
aI0
aI2
aF0.0
aI0
aI0
aF0.0
aI0
aI2
aI2
aI0
aI0
aI0
aI0
aI4
aI0
aI5
aa(lp219
V0021000733
p220
aVFEB 04, 2011
p221
aVMIA @ CHA
p222
aVW
p223
aI27
aI3
aI5
aF0.6
aI1
aI2
aF0.5
aI0
aI0
aF0.0
aI1
aI1
aI2
aI4
aI3
aI0
aI0
aI3
aI7
aI7
aa(lp224
V0021000754
p225
aVFEB 06, 2011
p226
aVMIA vs. LAC
p227
aVW
p228
aI20
aI2
aI7
aF0.286
aI0
aI4
aF0.0
aI0
aI0
aF0.0
aI0
aI0
aI0
aI0
aI2
aI0
aI0
aI1
aI4
aI4
aa(lp229
V0021000769
p230
aVFEB 08, 2011
p231
aVMIA vs. IND
p232
aVW
p233
aI30
aI6
aI12
aF0.5
aI2
aI7
aF0.286
aI2
aI2
aF1.0
aI0
aI1
aI1
aI2
aI3
aI0
aI0
aI1
aI16
aI4
aa(lp234
V0021000792
p235
aVFEB 11, 2011
p236
aVMIA @ DET
p237
aVW
p238
aI27
aI4
aI7
aF0.571
aI1
aI3
aF0.333
aI1
aI2
aF0.5
aI0
aI1
aI1
aI2
aI1
aI0
aI4
aI1
aI10
aI-2
aa(lp239
V0021000804
p240
aVFEB 13, 2011
p241
aVMIA @ BOS
p242
aVL
p243
aI13
aI1
aI3
aF0.333
aI1
aI2
aF0.5
aI0
aI0
aF0.0
aI0
aI4
aI4
aI2
aI0
aI0
aI1
aI2
aI3
aI0
aa(lp244
V0021000818
p245
aVFEB 15, 2011
p246
aVMIA @ IND
p247
aVW
p248
aI26
aI1
aI5
aF0.2
aI0
aI3
aF0.0
aI0
aI0
aF0.0
aI0
aI6
aI6
aI2
aI1
aI1
aI2
aI3
aI2
aI15
aa(lp249
V0021000825
p250
aVFEB 16, 2011
p251
aVMIA @ TOR
p252
aVW
p253
aI28
aI2
aI4
aF0.5
aI1
aI2
aF0.5
aI0
aI0
aF0.0
aI0
aI3
aI3
aI6
aI2
aI0
aI0
aI3
aI5
aI6
aa(lp254
V0021000841
p255
aVFEB 22, 2011
p256
aVMIA vs. SAC
p257
aVW
p258
aI28
aI6
aI7
aF0.857
aI0
aI1
aF0.0
aI2
aI2
aF1.0
aI0
aI3
aI3
aI4
aI1
aI1
aI1
aI1
aI14
aI18
aa(lp259
V0021000859
p260
aVFEB 24, 2011
p261
aVMIA @ CHI
p262
aVL
p263
aI40
aI4
aI6
aF0.667
aI2
aI2
aF1.0
aI2
aI2
aF1.0
aI0
aI4
aI4
aI4
aI2
aI0
aI1
aI5
aI12
aI0
aa(lp264
V0021000866
p265
aVFEB 25, 2011
p266
aVMIA vs. WAS
p267
aVW
p268
aI33
aI5
aI9
aF0.556
aI2
aI5
aF0.4
aI2
aI2
aF1.0
aI1
aI2
aI3
aI3
aI1
aI0
aI1
aI4
aI14
aI-10
aa(lp269
V0021000887
p270
aVFEB 27, 2011
p271
aVMIA vs. NYK
p272
aVL
p273
aI25
aI2
aI7
aF0.286
aI2
aI4
aF0.5
aI1
aI2
aF0.5
aI0
aI2
aI2
aI0
aI1
aI0
aI2
aI2
aI7
aI12
aa(lp274
V0021000912
p275
aVMAR 03, 2011
p276
aVMIA vs. ORL
p277
aVL
p278
aI24
aI2
aI11
aF0.182
aI1
aI6
aF0.167
aI1
aI1
aF1.0
aI0
aI4
aI4
aI2
aI0
aI0
aI1
aI1
aI6
aI5
aa(lp279
V0021000923
p280
aVMAR 04, 2011
p281
aVMIA @ SAS
p282
aVL
p283
aI19
aI2
aI5
aF0.4
aI2
aI3
aF0.667
aI1
aI1
aF1.0
aI0
aI0
aI0
aI1
aI0
aI0
aI1
aI3
aI7
aI-23
aa(lp284
V0021000931
p285
aVMAR 06, 2011
p286
aVMIA vs. CHI
p287
aVL
p288
aI31
aI4
aI5
aF0.8
aI1
aI1
aF1.0
aI2
aI3
aF0.667
aI0
aI1
aI1
aI5
aI2
aI0
aI1
aI5
aI11
aI12
aa(lp289
V0021000951
p290
aVMAR 08, 2011
p291
aVMIA vs. POR
p292
aVL
p293
aI35
aI4
aI7
aF0.571
aI1
aI4
aF0.25
aI1
aI1
aF1.0
aI0
aI1
aI1
aI4
aI2
aI0
aI2
aI2
aI10
aI-5
aa(lp294
V0021000964
p295
aVMAR 10, 2011
p296
aVMIA vs. LAL
p297
aVW
p298
aI24
aI3
aI9
aF0.333
aI3
aI6
aF0.5
aI0
aI0
aF0.0
aI1
aI4
aI5
aI0
aI1
aI0
aI1
aI2
aI9
aI-9
aa(lp299
V0021000976
p300
aVMAR 12, 2011
p301
aVMIA vs. MEM
p302
aVW
p303
aI23
aI2
aI7
aF0.286
aI2
aI3
aF0.667
aI1
aI1
aF1.0
aI0
aI3
aI3
aI2
aI2
aI0
aI2
aI1
aI7
aI13
aa(lp304
V0021000993
p305
aVMAR 14, 2011
p306
aVMIA vs. SAS
p307
aVW
p308
aI30
aI4
aI4
aF1.0
aI2
aI2
aF1.0
aI1
aI2
aF0.5
aI0
aI2
aI2
aI5
aI3
aI0
aI2
aI4
aI11
aI22
aa(lp309
V0021001006
p310
aVMAR 16, 2011
p311
aVMIA vs. OKC
p312
aVL
p313
aI22
aI0
aI1
aF0.0
aI0
aI1
aF0.0
aI0
aI0
aF0.0
aI0
aI2
aI2
aI3
aI0
aI0
aI3
aI2
aI0
aI-1
aa(lp314
V0021001020
p315
aVMAR 18, 2011
p316
aVMIA @ ATL
p317
aVW
p318
aI17
aI0
aI3
aF0.0
aI0
aI2
aF0.0
aI0
aI0
aF0.0
aI0
aI3
aI3
aI4
aI1
aI0
aI2
aI2
aI0
aI14
aa(lp319
V0021001030
p320
aVMAR 19, 2011
p321
aVMIA vs. DEN
p322
aVW
p323
aI11
aI1
aI3
aF0.333
aI0
aI1
aF0.0
aI0
aI0
aF0.0
aI0
aI0
aI0
aI2
aI0
aI0
aI0
aI1
aI2
aI9
aa(lp324
V0021001142
p325
aVAPR 03, 2011
p326
aVMIA @ NJN
p327
aVW
p328
aI17
aI1
aI5
aF0.2
aI0
aI1
aF0.0
aI1
aI3
aF0.333
aI0
aI0
aI0
aI1
aI0
aI0
aI0
aI4
aI3
aI4
aa(lp329
V0021001164
p330
aVAPR 06, 2011
p331
aVMIA vs. MIL
p332
aVL
p333
aI17
aI1
aI9
aF0.111
aI0
aI2
aF0.0
aI0
aI0
aF0.0
aI0
aI2
aI2
aI0
aI1
aI0
aI1
aI3
aI2
aI4
aa(lp334
V0021001182
p335
aVAPR 08, 2011
p336
aVMIA vs. CHA
p337
aVW
p338
aI15
aI1
aI2
aF0.5
aI0
aI0
aF0.0
aI0
aI0
aF0.0
aI0
aI1
aI1
aI5
aI0
aI0
aI2
aI2
aI2
aI-4
aa(lp339
V0021001194
p340
aVAPR 10, 2011
p341
aVMIA vs. BOS
p342
aVW
p343
aI20
aI3
aI8
aF0.375
aI2
aI6
aF0.333
aI1
aI1
aF1.0
aI0
aI0
aI0
aI2
aI0
aI0
aI3
aI3
aI9
aI14
aa(lp344
V0021001202
p345
aVAPR 11, 2011
p346
aVMIA @ ATL
p347
aVW
p348
aI17
aI1
aI2
aF0.5
aI1
aI2
aF0.5
aI0
aI0
aF0.0
aI1
aI0
aI1
aI5
aI1
aI0
aI1
aI1
aI3
aI4
aa(lp349
V0021001221
p350
aVAPR 13, 2011
p351
aVMIA @ TOR
p352
aVW
p353
aI32
aI2
aI6
aF0.333
aI1
aI4
aF0.25
aI0
aI0
aF0.0
aI0
aI2
aI2
aI13
aI2
aI1
aI4
aI0
aI5
aI15
aasS'name'
p354
VMario Chalmers
p355
sS'experience'
p356
I2
s.