(dp0
S'age'
p1
I23
sS'stats'
p2
(lp3
(lp4
V0021000008
p5
aVOCT 27, 2010
p6
aVMEM vs. ATL
p7
aVL
p8
aI34
aI4
aI9
aF0.444
aI1
aI2
aF0.5
aI0
aI0
aF0.0
aI1
aI1
aI2
aI0
aI0
aI0
aI2
aI3
aI9
aI-3
aa(lp9
V0021000028
p10
aVOCT 29, 2010
p11
aVMEM @ DAL
p12
aVW
p13
aI37
aI6
aI17
aF0.353
aI4
aI9
aF0.444
aI4
aI4
aF1.0
aI1
aI3
aI4
aI2
aI3
aI1
aI1
aI2
aI20
aI4
aa(lp14
V0021000036
p15
aVOCT 30, 2010
p16
aVMEM vs. MIN
p17
aVW
p18
aI40
aI11
aI21
aF0.524
aI5
aI9
aF0.556
aI2
aI2
aF1.0
aI0
aI7
aI7
aI5
aI3
aI1
aI4
aI2
aI29
aI26
aa(lp19
V0021000053
p20
aVNOV 02, 2010
p21
aVMEM @ LAL
p22
aVL
p23
aI27
aI3
aI11
aF0.273
aI1
aI4
aF0.25
aI1
aI1
aF1.0
aI0
aI1
aI1
aI0
aI2
aI0
aI2
aI2
aI8
aI-2
aa(lp24
V0021000063
p25
aVNOV 03, 2010
p26
aVMEM @ GSW
p27
aVL
p28
aI37
aI9
aI20
aF0.45
aI3
aI5
aF0.6
aI2
aI2
aF1.0
aI0
aI2
aI2
aI5
aI1
aI1
aI2
aI1
aI23
aI-7
aa(lp29
V0021000076
p30
aVNOV 05, 2010
p31
aVMEM @ PHX
p32
aVL
p33
aI51
aI6
aI17
aF0.353
aI3
aI8
aF0.375
aI8
aI10
aF0.8
aI1
aI4
aI5
aI3
aI1
aI1
aI4
aI2
aI23
aI-1
aa(lp34
V0021000088
p35
aVNOV 06, 2010
p36
aVMEM @ SAC
p37
aVW
p38
aI35
aI6
aI12
aF0.5
aI2
aI4
aF0.5
aI0
aI3
aF0.0
aI0
aI4
aI4
aI1
aI1
aI0
aI3
aI4
aI14
aI9
aa(lp39
V0021000099
p40
aVNOV 08, 2010
p41
aVMEM vs. PHX
p42
aVW
p43
aI31
aI7
aI14
aF0.5
aI1
aI2
aF0.5
aI1
aI1
aF1.0
aI0
aI3
aI3
aI4
aI0
aI1
aI1
aI2
aI16
aI9
aa(lp44
V0021000114
p45
aVNOV 10, 2010
p46
aVMEM vs. DAL
p47
aVL
p48
aI29
aI1
aI8
aF0.125
aI0
aI3
aF0.0
aI2
aI2
aF1.0
aI1
aI2
aI3
aI3
aI0
aI0
aI2
aI0
aI4
aI-15
aa(lp49
V0021000135
p50
aVNOV 13, 2010
p51
aVMEM vs. BOS
p52
aVL
p53
aI33
aI5
aI14
aF0.357
aI0
aI3
aF0.0
aI2
aI3
aF0.667
aI0
aI2
aI2
aI1
aI1
aI1
aI2
aI3
aI12
aI-18
aa(lp54
V0021000145
p55
aVNOV 15, 2010
p56
aVMEM @ ORL
p57
aVL
p58
aI29
aI4
aI9
aF0.444
aI1
aI5
aF0.2
aI2
aI3
aF0.667
aI1
aI2
aI3
aI1
aI1
aI0
aI1
aI3
aI11
aI-3
aa(lp59
V0021000154
p60
aVNOV 16, 2010
p61
aVMEM vs. POR
p62
aVL
p63
aI33
aI7
aI13
aF0.538
aI3
aI6
aF0.5
aI0
aI0
aF0.0
aI0
aI3
aI3
aI2
aI1
aI1
aI3
aI1
aI17
aI-1
aa(lp64
V0021000174
p65
aVNOV 19, 2010
p66
aVMEM @ WAS
p67
aVL
p68
aI29
aI1
aI11
aF0.091
aI1
aI4
aF0.25
aI0
aI0
aF0.0
aI1
aI2
aI3
aI1
aI0
aI0
aI0
aI4
aI3
aI-12
aa(lp69
V0021000185
p70
aVNOV 20, 2010
p71
aVMEM vs. MIA
p72
aVW
p73
aI22
aI1
aI7
aF0.143
aI0
aI3
aF0.0
aI0
aI0
aF0.0
aI0
aI0
aI0
aI1
aI0
aI1
aI2
aI0
aI2
aI-3
aa(lp74
V0021000214
p75
aVNOV 24, 2010
p76
aVMEM vs. DET
p77
aVW
p78
aI23
aI4
aI11
aF0.364
aI1
aI2
aF0.5
aI0
aI0
aF0.0
aI1
aI0
aI1
aI2
aI0
aI1
aI0
aI0
aI9
aI5
aa(lp79
V0021000232
p80
aVNOV 26, 2010
p81
aVMEM vs. GSW
p82
aVW
p83
aI27
aI8
aI14
aF0.571
aI2
aI5
aF0.4
aI5
aI5
aF1.0
aI0
aI3
aI3
aI2
aI1
aI1
aI1
aI0
aI23
aI9
aa(lp84
V0021000236
p85
aVNOV 27, 2010
p86
aVMEM @ CLE
p87
aVL
p88
aI26
aI6
aI12
aF0.5
aI1
aI3
aF0.333
aI0
aI0
aF0.0
aI0
aI3
aI3
aI1
aI0
aI0
aI0
aI3
aI13
aI7
aa(lp89
V0021000258
p90
aVNOV 30, 2010
p91
aVMEM vs. LAL
p92
aVW
p93
aI25
aI5
aI11
aF0.455
aI1
aI2
aF0.5
aI0
aI1
aF0.0
aI1
aI1
aI2
aI1
aI1
aI2
aI0
aI1
aI11
aI-7
aa(lp94
V0021000261
p95
aVDEC 01, 2010
p96
aVMEM @ ATL
p97
aVL
p98
aI24
aI4
aI8
aF0.5
aI1
aI2
aF0.5
aI1
aI1
aF1.0
aI1
aI1
aI2
aI2
aI0
aI0
aI1
aI1
aI10
aI2
aa(lp99
V0021000281
p100
aVDEC 03, 2010
p101
aVMEM vs. HOU
p102
aVL
p103
aI24
aI1
aI5
aF0.2
aI1
aI3
aF0.333
aI0
aI0
aF0.0
aI0
aI0
aI0
aI0
aI1
aI0
aI0
aI1
aI3
aI-6
aa(lp104
V0021000299
p105
aVDEC 05, 2010
p106
aVMEM @ DEN
p107
aVL
p108
aI16
aI1
aI4
aF0.25
aI1
aI2
aF0.5
aI0
aI0
aF0.0
aI0
aI3
aI3
aI1
aI0
aI0
aI2
aI3
aI3
aI-8
aa(lp109
V0021000307
p110
aVDEC 06, 2010
p111
aVMEM @ UTA
p112
aVL
p113
aI23
aI3
aI9
aF0.333
aI0
aI2
aF0.0
aI0
aI1
aF0.0
aI1
aI2
aI3
aI2
aI1
aI0
aI1
aI1
aI6
aI-4
aa(lp114
V0021000323
p115
aVDEC 08, 2010
p116
aVMEM @ PHX
p117
aVW
p118
aI24
aI1
aI4
aF0.25
aI0
aI1
aF0.0
aI4
aI4
aF1.0
aI0
aI3
aI3
aI0
aI1
aI0
aI1
aI2
aI6
aI-4
aa(lp119
V0021000341
p120
aVDEC 11, 2010
p121
aVMEM @ LAC
p122
aVW
p123
aI17
aI5
aI11
aF0.455
aI1
aI1
aF1.0
aI2
aI4
aF0.5
aI0
aI0
aI0
aI1
aI0
aI0
aI2
aI2
aI13
aI-5
aa(lp124
V0021000357
p125
aVDEC 13, 2010
p126
aVMEM vs. POR
p127
aVW
p128
aI29
aI5
aI10
aF0.5
aI2
aI4
aF0.5
aI2
aI6
aF0.333
aI0
aI1
aI1
aI2
aI0
aI0
aI1
aI1
aI14
aI15
aa(lp129
V0021000372
p130
aVDEC 15, 2010
p131
aVMEM vs. CHA
p132
aVW
p133
aI24
aI10
aI15
aF0.667
aI3
aI6
aF0.5
aI1
aI1
aF1.0
aI0
aI1
aI1
aI4
aI1
aI0
aI1
aI1
aI24
aI34
aa(lp134
V0021000389
p135
aVDEC 17, 2010
p136
aVMEM @ HOU
p137
aVL
p138
aI20
aI2
aI7
aF0.286
aI0
aI1
aF0.0
aI2
aI2
aF1.0
aI1
aI1
aI2
aI3
aI1
aI0
aI1
aI2
aI6
aI-12
aa(lp139
V0021000397
p140
aVDEC 18, 2010
p141
aVMEM @ SAS
p142
aVL
p143
aI47
aI11
aI19
aF0.579
aI5
aI8
aF0.625
aI0
aI0
aF0.0
aI1
aI4
aI5
aI5
aI2
aI0
aI2
aI1
aI27
aI3
aa(lp144
V0021000418
p145
aVDEC 21, 2010
p146
aVMEM vs. NJN
p147
aVL
p148
aI27
aI6
aI15
aF0.4
aI1
aI6
aF0.167
aI4
aI5
aF0.8
aI0
aI1
aI1
aI0
aI2
aI0
aI0
aI1
aI17
aI-4
aa(lp149
V0021000441
p150
aVDEC 26, 2010
p151
aVMEM @ IND
p152
aVW
p153
aI25
aI5
aI14
aF0.357
aI2
aI4
aF0.5
aI5
aI5
aF1.0
aI2
aI4
aI6
aI2
aI0
aI0
aI2
aI3
aI17
aI17
aa(lp154
V0021000447
p155
aVDEC 27, 2010
p156
aVMEM vs. TOR
p157
aVW
p158
aI26
aI4
aI9
aF0.444
aI1
aI5
aF0.2
aI3
aI4
aF0.75
aI0
aI0
aI0
aI0
aI1
aI0
aI2
aI1
aI12
aI-1
aa(lp159
V0021000471
p160
aVDEC 29, 2010
p161
aVMEM @ SAC
p162
aVL
p163
aI29
aI3
aI10
aF0.3
aI0
aI1
aF0.0
aI4
aI5
aF0.8
aI1
aI5
aI6
aI2
aI0
aI0
aI2
aI3
aI10
aI4
aa(lp164
V0021000491
p165
aVJAN 01, 2011
p166
aVMEM @ UTA
p167
aVL
p168
aI48
aI6
aI18
aF0.333
aI3
aI9
aF0.333
aI3
aI4
aF0.75
aI2
aI4
aI6
aI3
aI1
aI0
aI3
aI4
aI18
aI-6
aa(lp169
V0021000498
p170
aVJAN 02, 2011
p171
aVMEM @ LAL
p172
aVW
p173
aI26
aI5
aI10
aF0.5
aI2
aI5
aF0.4
aI3
aI3
aF1.0
aI0
aI3
aI3
aI5
aI2
aI0
aI1
aI2
aI15
aI22
aa(lp174
V0021000530
p175
aVJAN 07, 2011
p176
aVMEM vs. UTA
p177
aVW
p178
aI29
aI6
aI12
aF0.5
aI1
aI4
aF0.25
aI0
aI1
aF0.0
aI0
aI0
aI0
aI3
aI2
aI0
aI0
aI1
aI13
aI7
aa(lp179
V0021000541
p180
aVJAN 08, 2011
p181
aVMEM @ OKC
p182
aVL
p183
aI33
aI5
aI17
aF0.294
aI1
aI5
aF0.2
aI0
aI1
aF0.0
aI2
aI2
aI4
aI1
aI3
aI0
aI1
aI2
aI11
aI-6
aa(lp184
V0021000551
p185
aVJAN 10, 2011
p186
aVMEM @ CHA
p187
aVL
p188
aI21
aI1
aI8
aF0.125
aI0
aI2
aF0.0
aI2
aI2
aF1.0
aI1
aI2
aI3
aI1
aI0
aI1
aI3
aI0
aI4
aI-23
aa(lp189
V0021000565
p190
aVJAN 12, 2011
p191
aVMEM @ DET
p192
aVW
p193
aI25
aI3
aI9
aF0.333
aI2
aI2
aF1.0
aI0
aI0
aF0.0
aI0
aI1
aI1
aI0
aI2
aI1
aI1
aI4
aI8
aI6
aa(lp194
V0021000592
p195
aVJAN 15, 2011
p196
aVMEM vs. DAL
p197
aVW
p198
aI26
aI1
aI10
aF0.1
aI0
aI4
aF0.0
aI0
aI0
aF0.0
aI0
aI1
aI1
aI1
aI3
aI0
aI2
aI0
aI2
aI-5
aa(lp199
V0021000600
p200
aVJAN 17, 2011
p201
aVMEM vs. CHI
p202
aVL
p203
aI30
aI7
aI14
aF0.5
aI1
aI3
aF0.333
aI0
aI1
aF0.0
aI1
aI1
aI2
aI2
aI0
aI0
aI0
aI1
aI15
aI-3
aa(lp204
V0021000618
p205
aVJAN 19, 2011
p206
aVMEM @ NOH
p207
aVL
p208
aI27
aI4
aI10
aF0.4
aI2
aI4
aF0.5
aI0
aI0
aF0.0
aI2
aI1
aI3
aI2
aI0
aI1
aI3
aI5
aI10
aI0
aa(lp209
V0021000635
p210
aVJAN 21, 2011
p211
aVMEM vs. HOU
p212
aVW
p213
aI33
aI5
aI10
aF0.5
aI0
aI2
aF0.0
aI3
aI4
aF0.75
aI1
aI4
aI5
aI4
aI2
aI1
aI0
aI2
aI13
aI10
aa(lp214
V0021000649
p215
aVJAN 22, 2011
p216
aVMEM @ MIL
p217
aVW
p218
aI25
aI5
aI7
aF0.714
aI1
aI3
aF0.333
aI0
aI0
aF0.0
aI0
aI0
aI0
aI0
aI1
aI0
aI3
aI0
aI11
aI3
aa(lp219
V0021000656
p220
aVJAN 24, 2011
p221
aVMEM @ TOR
p222
aVW
p223
aI33
aI5
aI10
aF0.5
aI2
aI5
aF0.4
aI3
aI3
aF1.0
aI1
aI4
aI5
aI2
aI0
aI1
aI0
aI2
aI15
aI12
aa(lp224
V0021000669
p225
aVJAN 26, 2011
p226
aVMEM @ NJN
p227
aVL
p228
aI17
aI0
aI4
aF0.0
aI0
aI2
aF0.0
aI0
aI0
aF0.0
aI0
aI1
aI1
aI2
aI1
aI1
aI0
aI1
aI0
aI-7
aa(lp229
V0021000820
p230
aVFEB 15, 2011
p231
aVMEM vs. PHI
p232
aVW
p233
aI6
aI1
aI4
aF0.25
aI1
aI2
aF0.5
aI0
aI0
aF0.0
aI0
aI0
aI0
aI0
aI0
aI0
aI0
aI1
aI3
aI-5
aa(lp234
V0021000844
p235
aVFEB 22, 2011
p236
aVMEM @ DEN
p237
aVL
p238
aI30
aI8
aI14
aF0.571
aI2
aI7
aF0.286
aI3
aI5
aF0.6
aI0
aI3
aI3
aI1
aI1
aI0
aI3
aI1
aI21
aI-9
aa(lp239
V0021000853
p240
aVFEB 23, 2011
p241
aVMEM @ MIN
p242
aVW
p243
aI20
aI4
aI12
aF0.333
aI1
aI7
aF0.143
aI0
aI0
aF0.0
aI0
aI1
aI1
aI6
aI3
aI0
aI2
aI1
aI9
aI1
aa(lp244
V0021000875
p245
aVFEB 26, 2011
p246
aVMEM vs. SAC
p247
aVW
p248
aI26
aI4
aI12
aF0.333
aI3
aI7
aF0.429
aI2
aI2
aF1.0
aI0
aI3
aI3
aI1
aI4
aI0
aI2
aI1
aI13
aI16
aa(lp249
V0021000886
p250
aVFEB 27, 2011
p251
aVMEM @ SAS
p252
aVL
p253
aI16
aI0
aI3
aF0.0
aI0
aI0
aF0.0
aI0
aI0
aF0.0
aI0
aI1
aI1
aI3
aI1
aI0
aI3
aI2
aI0
aI4
aa(lp254
V0021000898
p255
aVMAR 01, 2011
p256
aVMEM vs. SAS
p257
aVW
p258
aI19
aI4
aI10
aF0.4
aI0
aI2
aF0.0
aI1
aI2
aF0.5
aI0
aI4
aI4
aI0
aI0
aI1
aI0
aI1
aI9
aI13
aa(lp259
V0021000920
p260
aVMAR 04, 2011
p261
aVMEM vs. NOH
p262
aVL
p263
aI25
aI5
aI10
aF0.5
aI3
aI7
aF0.429
aI0
aI0
aF0.0
aI0
aI2
aI2
aI6
aI1
aI0
aI1
aI2
aI13
aI10
aa(lp264
V0021000938
p265
aVMAR 06, 2011
p266
aVMEM @ DAL
p267
aVW
p268
aI28
aI4
aI11
aF0.364
aI1
aI5
aF0.2
aI2
aI2
aF1.0
aI0
aI1
aI1
aI7
aI2
aI0
aI1
aI3
aI11
aI22
aa(lp269
V0021000944
p270
aVMAR 07, 2011
p271
aVMEM vs. OKC
p272
aVW
p273
aI23
aI2
aI6
aF0.333
aI1
aI2
aF0.5
aI2
aI4
aF0.5
aI2
aI5
aI7
aI2
aI1
aI1
aI1
aI2
aI7
aI0
aa(lp274
V0021000958
p275
aVMAR 09, 2011
p276
aVMEM vs. NYK
p277
aVL
p278
aI20
aI2
aI4
aF0.5
aI0
aI1
aF0.0
aI0
aI0
aF0.0
aI1
aI0
aI1
aI2
aI0
aI0
aI0
aI1
aI4
aI0
aa(lp279
V0021000976
p280
aVMAR 12, 2011
p281
aVMEM @ MIA
p282
aVL
p283
aI25
aI8
aI13
aF0.615
aI0
aI1
aF0.0
aI3
aI3
aF1.0
aI1
aI2
aI3
aI1
aI0
aI0
aI2
aI5
aI19
aI-14
aa(lp284
V0021000994
p285
aVMAR 14, 2011
p286
aVMEM vs. LAC
p287
aVW
p288
aI19
aI0
aI5
aF0.0
aI0
aI0
aF0.0
aI0
aI0
aF0.0
aI0
aI1
aI1
aI2
aI1
aI1
aI0
aI0
aI0
aI16
aa(lp289
V0021001015
p290
aVMAR 17, 2011
p291
aVMEM @ NYK
p292
aVL
p293
aI23
aI1
aI7
aF0.143
aI0
aI1
aF0.0
aI0
aI0
aF0.0
aI0
aI1
aI1
aI2
aI0
aI0
aI0
aI0
aI2
aI-19
aa(lp294
V0021001031
p295
aVMAR 19, 2011
p296
aVMEM vs. IND
p297
aVW
p298
aI21
aI3
aI9
aF0.333
aI0
aI2
aF0.0
aI1
aI2
aF0.5
aI1
aI1
aI2
aI3
aI1
aI2
aI0
aI2
aI7
aI13
aa(lp299
V0021001048
p300
aVMAR 21, 2011
p301
aVMEM vs. UTA
p302
aVW
p303
aI26
aI4
aI7
aF0.571
aI3
aI4
aF0.75
aI0
aI0
aF0.0
aI0
aI2
aI2
aI2
aI0
aI1
aI1
aI2
aI11
aI12
aa(lp304
V0021001057
p305
aVMAR 23, 2011
p306
aVMEM @ BOS
p307
aVW
p308
aI19
aI5
aI11
aF0.455
aI1
aI1
aF1.0
aI0
aI0
aF0.0
aI0
aI1
aI1
aI2
aI2
aI0
aI0
aI3
aI11
aI4
aa(lp309
V0021001074
p310
aVMAR 25, 2011
p311
aVMEM @ CHI
p312
aVL
p313
aI28
aI3
aI10
aF0.3
aI2
aI4
aF0.5
aI1
aI2
aF0.5
aI1
aI1
aI2
aI2
aI0
aI0
aI1
aI1
aI9
aI0
aa(lp314
V0021001090
p315
aVMAR 27, 2011
p316
aVMEM vs. SAS
p317
aVW
p318
aI27
aI6
aI11
aF0.545
aI4
aI6
aF0.667
aI1
aI2
aF0.5
aI0
aI0
aI0
aI1
aI0
aI0
aI2
aI0
aI17
aI8
aa(lp319
V0021001112
p320
aVMAR 30, 2011
p321
aVMEM vs. GSW
p322
aVW
p323
aI13
aI0
aI2
aF0.0
aI0
aI1
aF0.0
aI0
aI0
aF0.0
aI0
aI0
aI0
aI2
aI2
aI1
aI1
aI3
aI0
aI-5
aa(lp324
V0021001127
p325
aVAPR 01, 2011
p326
aVMEM @ NOH
p327
aVW
p328
aI16
aI5
aI7
aF0.714
aI2
aI2
aF1.0
aI1
aI1
aF1.0
aI0
aI1
aI1
aI1
aI1
aI0
aI2
aI3
aI13
aI9
aa(lp329
V0021001134
p330
aVAPR 02, 2011
p331
aVMEM vs. MIN
p332
aVW
p333
aI27
aI8
aI12
aF0.667
aI3
aI4
aF0.75
aI1
aI2
aF0.5
aI1
aI4
aI5
aI3
aI3
aI0
aI1
aI1
aI20
aI12
aa(lp334
V0021001157
p335
aVAPR 05, 2011
p336
aVMEM vs. LAC
p337
aVL
p338
aI11
aI1
aI9
aF0.111
aI0
aI2
aF0.0
aI1
aI1
aF1.0
aI1
aI0
aI1
aI0
aI2
aI0
aI2
aI2
aI3
aI-8
aa(lp339
V0021001183
p340
aVAPR 08, 2011
p341
aVMEM vs. SAC
p342
aVW
p343
aI15
aI3
aI12
aF0.25
aI0
aI5
aF0.0
aI2
aI2
aF1.0
aI1
aI1
aI2
aI2
aI0
aI0
aI1
aI0
aI8
aI-6
aa(lp344
V0021001197
p345
aVAPR 10, 2011
p346
aVMEM vs. NOH
p347
aVW
p348
aI26
aI6
aI12
aF0.5
aI2
aI6
aF0.333
aI4
aI4
aF1.0
aI1
aI0
aI1
aI2
aI3
aI0
aI1
aI2
aI18
aI17
aa(lp349
V0021001214
p350
aVAPR 12, 2011
p351
aVMEM @ POR
p352
aVL
p353
aI34
aI5
aI13
aF0.385
aI2
aI4
aF0.5
aI1
aI1
aF1.0
aI0
aI5
aI5
aI3
aI0
aI0
aI2
aI3
aI13
aI2
aa(lp354
V0021001228
p355
aVAPR 13, 2011
p356
aVMEM @ LAC
p357
aVL
p358
aI30
aI4
aI11
aF0.364
aI2
aI6
aF0.333
aI2
aI2
aF1.0
aI0
aI2
aI2
aI4
aI2
aI1
aI5
aI5
aI12
aI-10
aasS'name'
p359
VO.J. Mayo
p360
sS'experience'
p361
I2
s.