(dp0
S'age'
p1
I24
sS'stats'
p2
(lp3
(lp4
V0021001221
p5
aVAPR 13, 2011
p6
aVMIA @ TOR
p7
aVW
p8
aI32
aI2
aI6
aF0.333
aI1
aI4
aF0.25
aI0
aI0
aF0.0
aI0
aI2
aI2
aI13
aI2
aI1
aI4
aI0
aI5
aI15
aa(lp9
V0021001202
p10
aVAPR 11, 2011
p11
aVMIA @ ATL
p12
aVW
p13
aI17
aI1
aI2
aF0.5
aI1
aI2
aF0.5
aI0
aI0
aF0.0
aI1
aI0
aI1
aI5
aI1
aI0
aI1
aI1
aI3
aI4
aa(lp14
V0021001194
p15
aVAPR 10, 2011
p16
aVMIA vs. BOS
p17
aVW
p18
aI20
aI3
aI8
aF0.375
aI2
aI6
aF0.333
aI1
aI1
aF1.0
aI0
aI0
aI0
aI2
aI0
aI0
aI3
aI3
aI9
aI14
aa(lp19
V0021001182
p20
aVAPR 08, 2011
p21
aVMIA vs. CHA
p22
aVW
p23
aI15
aI1
aI2
aF0.5
aI0
aI0
aF0.0
aI0
aI0
aF0.0
aI0
aI1
aI1
aI5
aI0
aI0
aI2
aI2
aI2
aI-4
aa(lp24
V0021001164
p25
aVAPR 06, 2011
p26
aVMIA vs. MIL
p27
aVL
p28
aI17
aI1
aI9
aF0.111
aI0
aI2
aF0.0
aI0
aI0
aF0.0
aI0
aI2
aI2
aI0
aI1
aI0
aI1
aI3
aI2
aI4
aa(lp29
V0021001142
p30
aVAPR 03, 2011
p31
aVMIA @ NJN
p32
aVW
p33
aI17
aI1
aI5
aF0.2
aI0
aI1
aF0.0
aI1
aI3
aF0.333
aI0
aI0
aI0
aI1
aI0
aI0
aI0
aI4
aI3
aI4
aa(lp34
V0021001030
p35
aVMAR 19, 2011
p36
aVMIA vs. DEN
p37
aVW
p38
aI11
aI1
aI3
aF0.333
aI0
aI1
aF0.0
aI0
aI0
aF0.0
aI0
aI0
aI0
aI2
aI0
aI0
aI0
aI1
aI2
aI9
aa(lp39
V0021001020
p40
aVMAR 18, 2011
p41
aVMIA @ ATL
p42
aVW
p43
aI17
aI0
aI3
aF0.0
aI0
aI2
aF0.0
aI0
aI0
aF0.0
aI0
aI3
aI3
aI4
aI1
aI0
aI2
aI2
aI0
aI14
aa(lp44
V0021001006
p45
aVMAR 16, 2011
p46
aVMIA vs. OKC
p47
aVL
p48
aI22
aI0
aI1
aF0.0
aI0
aI1
aF0.0
aI0
aI0
aF0.0
aI0
aI2
aI2
aI3
aI0
aI0
aI3
aI2
aI0
aI-1
aa(lp49
V0021000993
p50
aVMAR 14, 2011
p51
aVMIA vs. SAS
p52
aVW
p53
aI30
aI4
aI4
aF1.0
aI2
aI2
aF1.0
aI1
aI2
aF0.5
aI0
aI2
aI2
aI5
aI3
aI0
aI2
aI4
aI11
aI22
aa(lp54
V0021000976
p55
aVMAR 12, 2011
p56
aVMIA vs. MEM
p57
aVW
p58
aI23
aI2
aI7
aF0.286
aI2
aI3
aF0.667
aI1
aI1
aF1.0
aI0
aI3
aI3
aI2
aI2
aI0
aI2
aI1
aI7
aI13
aa(lp59
V0021000964
p60
aVMAR 10, 2011
p61
aVMIA vs. LAL
p62
aVW
p63
aI24
aI3
aI9
aF0.333
aI3
aI6
aF0.5
aI0
aI0
aF0.0
aI1
aI4
aI5
aI0
aI1
aI0
aI1
aI2
aI9
aI-9
aa(lp64
V0021000951
p65
aVMAR 08, 2011
p66
aVMIA vs. POR
p67
aVL
p68
aI35
aI4
aI7
aF0.571
aI1
aI4
aF0.25
aI1
aI1
aF1.0
aI0
aI1
aI1
aI4
aI2
aI0
aI2
aI2
aI10
aI-5
aa(lp69
V0021000931
p70
aVMAR 06, 2011
p71
aVMIA vs. CHI
p72
aVL
p73
aI31
aI4
aI5
aF0.8
aI1
aI1
aF1.0
aI2
aI3
aF0.667
aI0
aI1
aI1
aI5
aI2
aI0
aI1
aI5
aI11
aI12
aa(lp74
V0021000923
p75
aVMAR 04, 2011
p76
aVMIA @ SAS
p77
aVL
p78
aI19
aI2
aI5
aF0.4
aI2
aI3
aF0.667
aI1
aI1
aF1.0
aI0
aI0
aI0
aI1
aI0
aI0
aI1
aI3
aI7
aI-23
aa(lp79
V0021000912
p80
aVMAR 03, 2011
p81
aVMIA vs. ORL
p82
aVL
p83
aI24
aI2
aI11
aF0.182
aI1
aI6
aF0.167
aI1
aI1
aF1.0
aI0
aI4
aI4
aI2
aI0
aI0
aI1
aI1
aI6
aI5
aa(lp84
V0021000887
p85
aVFEB 27, 2011
p86
aVMIA vs. NYK
p87
aVL
p88
aI25
aI2
aI7
aF0.286
aI2
aI4
aF0.5
aI1
aI2
aF0.5
aI0
aI2
aI2
aI0
aI1
aI0
aI2
aI2
aI7
aI12
aa(lp89
V0021000866
p90
aVFEB 25, 2011
p91
aVMIA vs. WAS
p92
aVW
p93
aI33
aI5
aI9
aF0.556
aI2
aI5
aF0.4
aI2
aI2
aF1.0
aI1
aI2
aI3
aI3
aI1
aI0
aI1
aI4
aI14
aI-10
aa(lp94
V0021000859
p95
aVFEB 24, 2011
p96
aVMIA @ CHI
p97
aVL
p98
aI40
aI4
aI6
aF0.667
aI2
aI2
aF1.0
aI2
aI2
aF1.0
aI0
aI4
aI4
aI4
aI2
aI0
aI1
aI5
aI12
aI0
aa(lp99
V0021000841
p100
aVFEB 22, 2011
p101
aVMIA vs. SAC
p102
aVW
p103
aI28
aI6
aI7
aF0.857
aI0
aI1
aF0.0
aI2
aI2
aF1.0
aI0
aI3
aI3
aI4
aI1
aI1
aI1
aI1
aI14
aI18
aa(lp104
V0021000825
p105
aVFEB 16, 2011
p106
aVMIA @ TOR
p107
aVW
p108
aI28
aI2
aI4
aF0.5
aI1
aI2
aF0.5
aI0
aI0
aF0.0
aI0
aI3
aI3
aI6
aI2
aI0
aI0
aI3
aI5
aI6
aa(lp109
V0021000818
p110
aVFEB 15, 2011
p111
aVMIA @ IND
p112
aVW
p113
aI26
aI1
aI5
aF0.2
aI0
aI3
aF0.0
aI0
aI0
aF0.0
aI0
aI6
aI6
aI2
aI1
aI1
aI2
aI3
aI2
aI15
aa(lp114
V0021000804
p115
aVFEB 13, 2011
p116
aVMIA @ BOS
p117
aVL
p118
aI13
aI1
aI3
aF0.333
aI1
aI2
aF0.5
aI0
aI0
aF0.0
aI0
aI4
aI4
aI2
aI0
aI0
aI1
aI2
aI3
aI0
aa(lp119
V0021000792
p120
aVFEB 11, 2011
p121
aVMIA @ DET
p122
aVW
p123
aI27
aI4
aI7
aF0.571
aI1
aI3
aF0.333
aI1
aI2
aF0.5
aI0
aI1
aI1
aI2
aI1
aI0
aI4
aI1
aI10
aI-2
aa(lp124
V0021000769
p125
aVFEB 08, 2011
p126
aVMIA vs. IND
p127
aVW
p128
aI30
aI6
aI12
aF0.5
aI2
aI7
aF0.286
aI2
aI2
aF1.0
aI0
aI1
aI1
aI2
aI3
aI0
aI0
aI1
aI16
aI4
aa(lp129
V0021000754
p130
aVFEB 06, 2011
p131
aVMIA vs. LAC
p132
aVW
p133
aI20
aI2
aI7
aF0.286
aI0
aI4
aF0.0
aI0
aI0
aF0.0
aI0
aI0
aI0
aI0
aI2
aI0
aI0
aI1
aI4
aI4
aa(lp134
V0021000733
p135
aVFEB 04, 2011
p136
aVMIA @ CHA
p137
aVW
p138
aI27
aI3
aI5
aF0.6
aI1
aI2
aF0.5
aI0
aI0
aF0.0
aI1
aI1
aI2
aI4
aI3
aI0
aI0
aI3
aI7
aI7
aa(lp139
V0021000730
p140
aVFEB 03, 2011
p141
aVMIA @ ORL
p142
aVW
p143
aI15
aI0
aI2
aF0.0
aI0
aI2
aF0.0
aI0
aI0
aF0.0
aI0
aI2
aI2
aI0
aI0
aI0
aI0
aI4
aI0
aI5
aa(lp144
V0021000710
p145
aVJAN 31, 2011
p146
aVMIA vs. CLE
p147
aVW
p148
aI22
aI2
aI5
aF0.4
aI2
aI5
aF0.4
aI0
aI0
aF0.0
aI1
aI3
aI4
aI1
aI2
aI0
aI3
aI2
aI6
aI5
aa(lp149
V0021000701
p150
aVJAN 30, 2011
p151
aVMIA @ OKC
p152
aVW
p153
aI23
aI1
aI2
aF0.5
aI1
aI2
aF0.5
aI3
aI3
aF1.0
aI0
aI0
aI0
aI3
aI0
aI0
aI1
aI3
aI6
aI-1
aa(lp154
V0021000686
p155
aVJAN 28, 2011
p156
aVMIA vs. DET
p157
aVW
p158
aI28
aI3
aI9
aF0.333
aI1
aI5
aF0.2
aI1
aI1
aF1.0
aI0
aI0
aI0
aI4
aI0
aI0
aI2
aI4
aI8
aI-3
aa(lp159
V0021000678
p160
aVJAN 27, 2011
p161
aVMIA @ NYK
p162
aVL
p163
aI36
aI1
aI4
aF0.25
aI0
aI3
aF0.0
aI5
aI5
aF1.0
aI0
aI2
aI2
aI1
aI2
aI0
aI1
aI4
aI7
aI1
aa(lp164
V0021000643
p165
aVJAN 22, 2011
p166
aVMIA vs. TOR
p167
aVW
p168
aI35
aI3
aI3
aF1.0
aI3
aI3
aF1.0
aI1
aI1
aF1.0
aI1
aI3
aI4
aI9
aI0
aI1
aI3
aI4
aI10
aI20
aa(lp169
V0021000611
p170
aVJAN 18, 2011
p171
aVMIA vs. ATL
p172
aVL
p173
aI40
aI4
aI8
aF0.5
aI2
aI6
aF0.333
aI0
aI0
aF0.0
aI0
aI4
aI4
aI1
aI1
aI0
aI1
aI1
aI10
aI6
aa(lp174
V0021000591
p175
aVJAN 15, 2011
p176
aVMIA @ CHI
p177
aVL
p178
aI29
aI4
aI12
aF0.333
aI2
aI9
aF0.222
aI0
aI0
aF0.0
aI0
aI3
aI3
aI3
aI2
aI0
aI3
aI3
aI10
aI-5
aa(lp179
V0021000575
p180
aVJAN 13, 2011
p181
aVMIA @ DEN
p182
aVL
p183
aI29
aI5
aI10
aF0.5
aI4
aI7
aF0.571
aI0
aI0
aF0.0
aI0
aI0
aI0
aI3
aI2
aI0
aI3
aI3
aI14
aI-13
aa(lp184
V0021000572
p185
aVJAN 12, 2011
p186
aVMIA @ LAC
p187
aVL
p188
aI29
aI4
aI12
aF0.333
aI3
aI9
aF0.333
aI1
aI2
aF0.5
aI2
aI2
aI4
aI3
aI2
aI0
aI1
aI3
aI12
aI2
aa(lp189
V0021000549
p190
aVJAN 09, 2011
p191
aVMIA @ POR
p192
aVW
p193
aI20
aI1
aI3
aF0.333
aI0
aI2
aF0.0
aI0
aI0
aF0.0
aI0
aI5
aI5
aI2
aI0
aI0
aI2
aI2
aI2
aI-7
aa(lp194
V0021000532
p195
aVJAN 07, 2011
p196
aVMIA @ MIL
p197
aVW
p198
aI17
aI3
aI5
aF0.6
aI1
aI2
aF0.5
aI0
aI0
aF0.0
aI0
aI0
aI0
aI2
aI0
aI0
aI2
aI4
aI7
aI0
aa(lp199
V0021000505
p200
aVJAN 04, 2011
p201
aVMIA vs. MIL
p202
aVW
p203
aI21
aI3
aI9
aF0.333
aI2
aI5
aF0.4
aI1
aI1
aF1.0
aI0
aI0
aI0
aI0
aI3
aI0
aI2
aI1
aI9
aI5
aa(lp204
V0021000499
p205
aVJAN 03, 2011
p206
aVMIA @ CHA
p207
aVW
p208
aI29
aI1
aI7
aF0.143
aI0
aI3
aF0.0
aI0
aI0
aF0.0
aI0
aI4
aI4
aI1
aI2
aI0
aI0
aI0
aI2
aI7
aa(lp209
V0021000486
p210
aVJAN 01, 2011
p211
aVMIA vs. GSW
p212
aVW
p213
aI22
aI3
aI7
aF0.429
aI2
aI5
aF0.4
aI0
aI0
aF0.0
aI0
aI4
aI4
aI0
aI1
aI0
aI1
aI2
aI8
aI7
aa(lp214
V0021000469
p215
aVDEC 29, 2010
p216
aVMIA @ HOU
p217
aVW
p218
aI24
aI1
aI2
aF0.5
aI1
aI2
aF0.5
aI5
aI5
aF1.0
aI0
aI3
aI3
aI4
aI0
aI1
aI1
aI4
aI8
aI3
aa(lp219
V0021000457
p220
aVDEC 28, 2010
p221
aVMIA vs. NYK
p222
aVW
p223
aI27
aI2
aI4
aF0.5
aI1
aI2
aF0.5
aI0
aI0
aF0.0
aI0
aI3
aI3
aI0
aI0
aI0
aI2
aI3
aI5
aI-7
aa(lp224
V0021000435
p225
aVDEC 25, 2010
p226
aVMIA @ LAL
p227
aVW
p228
aI29
aI4
aI11
aF0.364
aI3
aI9
aF0.333
aI2
aI3
aF0.667
aI0
aI2
aI2
aI2
aI1
aI0
aI1
aI2
aI13
aI5
aa(lp229
V0021000432
p230
aVDEC 23, 2010
p231
aVMIA @ PHX
p232
aVW
p233
aI27
aI5
aI11
aF0.455
aI1
aI4
aF0.25
aI0
aI0
aF0.0
aI0
aI3
aI3
aI2
aI2
aI1
aI3
aI2
aI11
aI12
aa(lp234
V0021000410
p235
aVDEC 20, 2010
p236
aVMIA vs. DAL
p237
aVL
p238
aI30
aI3
aI10
aF0.3
aI3
aI7
aF0.429
aI4
aI4
aF1.0
aI2
aI2
aI4
aI2
aI3
aI0
aI2
aI6
aI13
aI5
aa(lp239
V0021000393
p240
aVDEC 18, 2010
p241
aVMIA @ WAS
p242
aVW
p243
aI29
aI3
aI7
aF0.429
aI2
aI5
aF0.4
aI0
aI0
aF0.0
aI0
aI6
aI6
aI4
aI1
aI0
aI1
aI3
aI8
aI14
aa(lp244
V0021000382
p245
aVDEC 17, 2010
p246
aVMIA @ NYK
p247
aVW
p248
aI22
aI3
aI6
aF0.5
aI2
aI4
aF0.5
aI0
aI0
aF0.0
aI0
aI2
aI2
aI0
aI2
aI0
aI0
aI1
aI8
aI-1
aa(lp249
V0021000371
p250
aVDEC 15, 2010
p251
aVMIA vs. CLE
p252
aVW
p253
aI35
aI5
aI9
aF0.556
aI4
aI8
aF0.5
aI0
aI0
aF0.0
aI1
aI2
aI3
aI4
aI0
aI0
aI2
aI4
aI14
aI4
aa(lp254
V0021000355
p255
aVDEC 13, 2010
p256
aVMIA vs. NOH
p257
aVW
p258
aI27
aI1
aI5
aF0.2
aI0
aI3
aF0.0
aI4
aI4
aF1.0
aI0
aI1
aI1
aI3
aI1
aI0
aI0
aI4
aI6
aI4
aa(lp259
V0021000348
p260
aVDEC 11, 2010
p261
aVMIA @ SAC
p262
aVW
p263
aI27
aI2
aI7
aF0.286
aI2
aI4
aF0.5
aI2
aI2
aF1.0
aI1
aI2
aI3
aI3
aI2
aI0
aI2
aI3
aI8
aI11
aa(lp264
V0021000340
p265
aVDEC 10, 2010
p266
aVMIA @ GSW
p267
aVW
p268
aI28
aI2
aI4
aF0.5
aI2
aI3
aF0.667
aI0
aI0
aF0.0
aI0
aI2
aI2
aI2
aI1
aI0
aI3
aI2
aI6
aI5
aa(lp269
V0021000324
p270
aVDEC 08, 2010
p271
aVMIA @ UTA
p272
aVW
p273
aI25
aI3
aI9
aF0.333
aI2
aI7
aF0.286
aI0
aI0
aF0.0
aI0
aI2
aI2
aI3
aI2
aI0
aI2
aI4
aI8
aI16
aa(lp274
V0021000306
p275
aVDEC 06, 2010
p276
aVMIA @ MIL
p277
aVW
p278
aI16
aI1
aI3
aF0.333
aI0
aI0
aF0.0
aI0
aI0
aF0.0
aI0
aI1
aI1
aI2
aI1
aI0
aI4
aI2
aI2
aI0
aa(lp279
V0021000288
p280
aVDEC 04, 2010
p281
aVMIA vs. ATL
p282
aVW
p283
aI27
aI4
aI10
aF0.4
aI1
aI3
aF0.333
aI0
aI0
aF0.0
aI0
aI5
aI5
aI4
aI1
aI0
aI1
aI2
aI9
aI14
aa(lp284
V0021000273
p285
aVDEC 02, 2010
p286
aVMIA @ CLE
p287
aVW
p288
aI20
aI3
aI5
aF0.6
aI3
aI4
aF0.75
aI0
aI0
aF0.0
aI0
aI0
aI0
aI3
aI0
aI0
aI0
aI5
aI9
aI12
aa(lp289
V0021000265
p290
aVDEC 01, 2010
p291
aVMIA vs. DET
p292
aVW
p293
aI24
aI1
aI4
aF0.25
aI0
aI1
aF0.0
aI2
aI2
aF1.0
aI0
aI4
aI4
aI6
aI3
aI0
aI0
aI0
aI4
aI11
aa(lp294
V0021000250
p295
aVNOV 29, 2010
p296
aVMIA vs. WAS
p297
aVW
p298
aI22
aI2
aI8
aF0.25
aI1
aI5
aF0.2
aI0
aI0
aF0.0
aI0
aI5
aI5
aI1
aI0
aI0
aI0
aI1
aI5
aI8
aa(lp299
V0021000239
p300
aVNOV 27, 2010
p301
aVMIA @ DAL
p302
aVL
p303
aI21
aI2
aI4
aF0.5
aI2
aI3
aF0.667
aI2
aI2
aF1.0
aI0
aI1
aI1
aI3
aI2
aI0
aI0
aI3
aI8
aI1
aa(lp304
V0021000226
p305
aVNOV 26, 2010
p306
aVMIA vs. PHI
p307
aVW
p308
aI7
aI0
aI1
aF0.0
aI0
aI1
aF0.0
aI0
aI0
aF0.0
aI0
aI0
aI0
aI1
aI1
aI0
aI0
aI1
aI0
aI-1
aa(lp309
V0021000185
p310
aVNOV 20, 2010
p311
aVMIA @ MEM
p312
aVL
p313
aI11
aI1
aI1
aF1.0
aI0
aI0
aF0.0
aI0
aI0
aF0.0
aI0
aI1
aI1
aI1
aI0
aI1
aI0
aI0
aI2
aI-7
aa(lp314
V0021000175
p315
aVNOV 19, 2010
p316
aVMIA vs. CHA
p317
aVW
p318
aI6
aI0
aI1
aF0.0
aI0
aI1
aF0.0
aI0
aI0
aF0.0
aI0
aI0
aI0
aI1
aI1
aI0
aI0
aI1
aI0
aI4
aa(lp319
V0021000158
p320
aVNOV 17, 2010
p321
aVMIA vs. PHX
p322
aVW
p323
aI5
aI0
aI1
aF0.0
aI0
aI0
aF0.0
aI0
aI0
aF0.0
aI0
aI0
aI0
aI1
aI0
aI0
aI0
aI1
aI0
aI1
aa(lp324
V0021000133
p325
aVNOV 13, 2010
p326
aVMIA vs. TOR
p327
aVW
p328
aI10
aI0
aI1
aF0.0
aI0
aI1
aF0.0
aI0
aI0
aF0.0
aI0
aI0
aI0
aI0
aI1
aI0
aI1
aI1
aI0
aI-4
aa(lp329
V0021000118
p330
aVNOV 11, 2010
p331
aVMIA vs. BOS
p332
aVL
p333
aI5
aI0
aI1
aF0.0
aI0
aI1
aF0.0
aI0
aI0
aF0.0
aI0
aI1
aI1
aI0
aI0
aI0
aI0
aI0
aI0
aI-8
aa(lp334
V0021000082
p335
aVNOV 06, 2010
p336
aVMIA vs. NJN
p337
aVW
p338
aI4
aI0
aI1
aF0.0
aI0
aI1
aF0.0
aI0
aI0
aF0.0
aI0
aI0
aI0
aI0
aI0
aI0
aI1
aI0
aI0
aI-8
aa(lp339
V0021000050
p340
aVNOV 02, 2010
p341
aVMIA vs. MIN
p342
aVW
p343
aI18
aI2
aI4
aF0.5
aI2
aI4
aF0.5
aI2
aI2
aF1.0
aI0
aI2
aI2
aI8
aI1
aI0
aI2
aI1
aI8
aI8
aa(lp344
V0021000040
p345
aVOCT 31, 2010
p346
aVMIA @ NJN
p347
aVW
p348
aI3
aI0
aI1
aF0.0
aI0
aI1
aF0.0
aI0
aI0
aF0.0
aI0
aI0
aI0
aI1
aI1
aI0
aI0
aI0
aI0
aI0
aa(lp349
V0021000025
p350
aVOCT 29, 2010
p351
aVMIA vs. ORL
p352
aVW
p353
aI4
aI0
aI0
aF0.0
aI0
aI0
aF0.0
aI0
aI0
aF0.0
aI0
aI0
aI0
aI0
aI0
aI0
aI0
aI0
aI0
aI3
aasS'name'
p354
VMario Chalmers
p355
sS'experience'
p356
I2
s.