(dp0
S'stats'
p1
(lp2
(lp3
V0021000026
p4
aVOCT 29, 2010
p5
aVMIL @ MIN
p6
aVL
p7
aI18
aI1
aI4
aF0.25
aI0
aI0
aF0.0
aI1
aI2
aF0.5
aI1
aI3
aI4
aI1
aI0
aI1
aI0
aI3
aI3
aI3
aa(lp8
V0021000038
p9
aVOCT 30, 2010
p10
aVMIL vs. CHA
p11
aVW
p12
aI35
aI4
aI5
aF0.8
aI0
aI0
aF0.0
aI1
aI4
aF0.25
aI5
aI4
aI9
aI1
aI1
aI0
aI0
aI2
aI9
aI9
aa(lp13
V0021000052
p14
aVNOV 02, 2010
p15
aVMIL vs. POR
p16
aVL
p17
aI16
aI3
aI4
aF0.75
aI0
aI0
aF0.0
aI0
aI0
aF0.0
aI0
aI1
aI1
aI0
aI1
aI1
aI3
aI1
aI6
aI-1
aa(lp18
V0021000058
p19
aVNOV 03, 2010
p20
aVMIL @ BOS
p21
aVL
p22
aI10
aI0
aI2
aF0.0
aI0
aI0
aF0.0
aI0
aI0
aF0.0
aI1
aI1
aI2
aI1
aI0
aI0
aI0
aI0
aI0
aI7
aa(lp23
V0021000068
p24
aVNOV 05, 2010
p25
aVMIL @ IND
p26
aVW
p27
aI39
aI2
aI7
aF0.286
aI0
aI0
aF0.0
aI6
aI8
aF0.75
aI6
aI9
aI15
aI2
aI1
aI1
aI2
aI4
aI10
aI-5
aa(lp28
V0021000083
p29
aVNOV 06, 2010
p30
aVMIL vs. NOH
p31
aVL
p32
aI32
aI3
aI11
aF0.273
aI0
aI1
aF0.0
aI0
aI1
aF0.0
aI4
aI3
aI7
aI1
aI1
aI0
aI1
aI4
aI6
aI-13
aa(lp33
V0021000104
p34
aVNOV 09, 2010
p35
aVMIL vs. NYK
p36
aVW
p37
aI35
aI3
aI6
aF0.5
aI0
aI0
aF0.0
aI4
aI6
aF0.667
aI2
aI6
aI8
aI1
aI2
aI0
aI2
aI3
aI10
aI26
aa(lp38
V0021000108
p39
aVNOV 10, 2010
p40
aVMIL @ ATL
p41
aVW
p42
aI18
aI1
aI4
aF0.25
aI0
aI0
aF0.0
aI0
aI0
aF0.0
aI0
aI0
aI0
aI0
aI2
aI0
aI1
aI0
aI2
aI-1
aa(lp43
V0021000137
p44
aVNOV 13, 2010
p45
aVMIL vs. GSW
p46
aVW
p47
aI39
aI1
aI2
aF0.5
aI0
aI0
aF0.0
aI4
aI5
aF0.8
aI3
aI9
aI12
aI3
aI1
aI0
aI0
aI3
aI6
aI13
aa(lp48
V0021000155
p49
aVNOV 16, 2010
p50
aVMIL vs. LAL
p51
aVL
p52
aI24
aI0
aI4
aF0.0
aI0
aI0
aF0.0
aI0
aI0
aF0.0
aI1
aI2
aI3
aI1
aI1
aI0
aI1
aI4
aI0
aI-6
aa(lp53
V0021000172
p54
aVNOV 19, 2010
p55
aVMIL @ PHI
p56
aVL
p57
aI22
aI2
aI3
aF0.667
aI0
aI0
aF0.0
aI0
aI0
aF0.0
aI1
aI2
aI3
aI1
aI0
aI0
aI2
aI2
aI4
aI-1
aa(lp58
V0021000186
p59
aVNOV 20, 2010
p60
aVMIL vs. OKC
p61
aVL
p62
aI34
aI3
aI4
aF0.75
aI0
aI0
aF0.0
aI1
aI1
aF1.0
aI1
aI3
aI4
aI2
aI1
aI1
aI2
aI3
aI7
aI-1
aa(lp63
V0021000210
p64
aVNOV 24, 2010
p65
aVMIL @ CLE
p66
aVL
p67
aI26
aI4
aI7
aF0.571
aI0
aI0
aF0.0
aI2
aI4
aF0.5
aI3
aI6
aI9
aI0
aI0
aI0
aI1
aI2
aI10
aI-15
aa(lp68
V0021000225
p69
aVNOV 26, 2010
p70
aVMIL @ DET
p71
aVL
p72
aI21
aI2
aI2
aF1.0
aI0
aI0
aF0.0
aI0
aI0
aF0.0
aI1
aI0
aI1
aI0
aI0
aI1
aI0
aI1
aI4
aI-16
aa(lp73
V0021000240
p74
aVNOV 27, 2010
p75
aVMIL vs. CHA
p76
aVW
p77
aI47
aI3
aI7
aF0.429
aI0
aI0
aF0.0
aI6
aI7
aF0.857
aI4
aI6
aI10
aI0
aI1
aI0
aI1
aI3
aI12
aI3
aa(lp78
V0021000253
p79
aVNOV 29, 2010
p80
aVMIL @ UTA
p81
aVL
p82
aI33
aI1
aI4
aF0.25
aI0
aI0
aF0.0
aI0
aI0
aF0.0
aI1
aI3
aI4
aI0
aI1
aI0
aI1
aI3
aI2
aI-17
aa(lp83
V0021000270
p84
aVDEC 01, 2010
p85
aVMIL @ DEN
p86
aVL
p87
aI16
aI1
aI2
aF0.5
aI0
aI0
aF0.0
aI1
aI2
aF0.5
aI1
aI2
aI3
aI2
aI0
aI0
aI1
aI3
aI3
aI-8
aa(lp88
V0021000292
p89
aVDEC 04, 2010
p90
aVMIL vs. ORL
p91
aVW
p92
aI34
aI0
aI3
aF0.0
aI0
aI0
aF0.0
aI1
aI2
aF0.5
aI1
aI5
aI6
aI1
aI1
aI0
aI3
aI0
aI1
aI12
aa(lp93
V0021000306
p94
aVDEC 06, 2010
p95
aVMIL vs. MIA
p96
aVL
p97
aI23
aI2
aI4
aF0.5
aI0
aI0
aF0.0
aI0
aI0
aF0.0
aI1
aI2
aI3
aI1
aI1
aI0
aI1
aI2
aI4
aI-16
aa(lp98
V0021000319
p99
aVDEC 08, 2010
p100
aVMIL vs. IND
p101
aVW
p102
aI32
aI3
aI6
aF0.5
aI0
aI0
aF0.0
aI2
aI2
aF1.0
aI3
aI3
aI6
aI3
aI0
aI1
aI0
aI3
aI8
aI0
aa(lp103
V0021000336
p104
aVDEC 10, 2010
p105
aVMIL vs. HOU
p106
aVW
p107
aI19
aI2
aI5
aF0.4
aI0
aI0
aF0.0
aI0
aI0
aF0.0
aI1
aI3
aI4
aI1
aI0
aI0
aI1
aI3
aI4
aI-5
aa(lp108
V0021000358
p109
aVDEC 13, 2010
p110
aVMIL @ DAL
p111
aVW
p112
aI12
aI0
aI3
aF0.0
aI0
aI0
aF0.0
aI0
aI0
aF0.0
aI0
aI1
aI1
aI1
aI1
aI0
aI1
aI1
aI0
aI-9
aa(lp113
V0021000375
p114
aVDEC 15, 2010
p115
aVMIL @ SAS
p116
aVL
p117
aI22
aI1
aI3
aF0.333
aI0
aI0
aF0.0
aI0
aI0
aF0.0
aI0
aI5
aI5
aI1
aI2
aI0
aI0
aI1
aI2
aI8
aa(lp118
V0021000396
p119
aVDEC 18, 2010
p120
aVMIL vs. UTA
p121
aVL
p122
aI13
aI0
aI1
aF0.0
aI0
aI0
aF0.0
aI0
aI0
aF0.0
aI1
aI1
aI2
aI1
aI0
aI0
aI0
aI2
aI0
aI1
aa(lp123
V0021000412
p124
aVDEC 20, 2010
p125
aVMIL @ POR
p126
aVL
p127
aI34
aI4
aI9
aF0.444
aI0
aI0
aF0.0
aI2
aI2
aF1.0
aI4
aI3
aI7
aI2
aI1
aI0
aI2
aI3
aI10
aI-18
aa(lp128
V0021000420
p129
aVDEC 21, 2010
p130
aVMIL @ LAL
p131
aVW
p132
aI28
aI3
aI5
aF0.6
aI0
aI0
aF0.0
aI2
aI2
aF1.0
aI1
aI2
aI3
aI1
aI0
aI1
aI1
aI3
aI8
aI12
aa(lp133
V0021000431
p134
aVDEC 23, 2010
p135
aVMIL @ SAC
p136
aVW
p137
aI14
aI2
aI3
aF0.667
aI0
aI0
aF0.0
aI2
aI3
aF0.667
aI0
aI2
aI2
aI0
aI0
aI0
aI0
aI1
aI6
aI15
aa(lp138
V0021000448
p139
aVDEC 27, 2010
p140
aVMIL vs. ATL
p141
aVL
p142
aI14
aI1
aI3
aF0.333
aI0
aI0
aF0.0
aI1
aI2
aF0.5
aI1
aI2
aI3
aI1
aI0
aI0
aI0
aI1
aI3
aI-15
aa(lp143
V0021000458
p144
aVDEC 28, 2010
p145
aVMIL @ CHI
p146
aVL
p147
aI34
aI5
aI9
aF0.556
aI0
aI1
aF0.0
aI2
aI2
aF1.0
aI6
aI4
aI10
aI0
aI1
aI1
aI2
aI2
aI12
aI-16
aa(lp148
V0021000489
p149
aVJAN 01, 2011
p150
aVMIL vs. DAL
p151
aVW
p152
aI12
aI1
aI4
aF0.25
aI0
aI0
aF0.0
aI0
aI0
aF0.0
aI1
aI2
aI3
aI0
aI0
aI0
aI0
aI0
aI2
aI-2
aa(lp153
V0021000505
p154
aVJAN 04, 2011
p155
aVMIL @ MIA
p156
aVL
p157
aI42
aI1
aI6
aF0.167
aI0
aI0
aF0.0
aI7
aI10
aF0.7
aI0
aI7
aI7
aI1
aI1
aI1
aI1
aI3
aI9
aI-5
aa(lp158
V0021000514
p159
aVJAN 05, 2011
p160
aVMIL @ ORL
p161
aVL
p162
aI20
aI2
aI5
aF0.4
aI0
aI0
aF0.0
aI2
aI4
aF0.5
aI4
aI3
aI7
aI1
aI1
aI0
aI0
aI4
aI6
aI-7
aa(lp163
V0021000532
p164
aVJAN 07, 2011
p165
aVMIL vs. MIA
p166
aVL
p167
aI41
aI5
aI7
aF0.714
aI0
aI0
aF0.0
aI0
aI0
aF0.0
aI1
aI3
aI4
aI2
aI3
aI2
aI3
aI2
aI10
aI2
aa(lp168
V0021000538
p169
aVJAN 08, 2011
p170
aVMIL @ NJN
p171
aVW
p172
aI17
aI2
aI2
aF1.0
aI0
aI0
aF0.0
aI1
aI2
aF0.5
aI0
aI1
aI1
aI1
aI0
aI1
aI0
aI3
aI5
aI24
aa(lp173
V0021000566
p174
aVJAN 12, 2011
p175
aVMIL vs. SAS
p176
aVL
p177
aI30
aI3
aI5
aF0.6
aI0
aI0
aF0.0
aI1
aI1
aF1.0
aI1
aI3
aI4
aI1
aI0
aI1
aI3
aI2
aI7
aI-10
aa(lp178
V0021000577
p179
aVJAN 14, 2011
p180
aVMIL @ PHI
p181
aVL
p182
aI20
aI1
aI3
aF0.333
aI0
aI0
aF0.0
aI0
aI2
aF0.0
aI1
aI1
aI2
aI0
aI1
aI1
aI2
aI2
aI2
aI-16
aa(lp183
V0021000602
p184
aVJAN 17, 2011
p185
aVMIL @ HOU
p186
aVL
p187
aI14
aI1
aI3
aF0.333
aI0
aI1
aF0.0
aI1
aI2
aF0.5
aI1
aI2
aI3
aI0
aI0
aI1
aI0
aI0
aI3
aI1
aa(lp188
V0021000617
p189
aVJAN 19, 2011
p190
aVMIL vs. WAS
p191
aVW
p192
aI13
aI1
aI2
aF0.5
aI0
aI1
aF0.0
aI0
aI0
aF0.0
aI1
aI0
aI1
aI0
aI0
aI0
aI0
aI3
aI2
aI-1
aa(lp193
V0021000633
p194
aVJAN 21, 2011
p195
aVMIL @ CLE
p196
aVW
p197
aI19
aI2
aI3
aF0.667
aI0
aI0
aF0.0
aI2
aI2
aF1.0
aI3
aI6
aI9
aI0
aI1
aI1
aI2
aI5
aI6
aI-2
aa(lp198
V0021000649
p199
aVJAN 22, 2011
p200
aVMIL vs. MEM
p201
aVL
p202
aI9
aI1
aI1
aF1.0
aI0
aI0
aF0.0
aI0
aI0
aF0.0
aI1
aI0
aI1
aI0
aI0
aI0
aI0
aI1
aI2
aI0
aa(lp203
V0021000658
p204
aVJAN 24, 2011
p205
aVMIL @ CHI
p206
aVL
p207
aI16
aI4
aI5
aF0.8
aI0
aI0
aF0.0
aI0
aI1
aF0.0
aI1
aI6
aI7
aI0
aI1
aI0
aI0
aI3
aI8
aI-4
aa(lp208
V0021000672
p209
aVJAN 26, 2011
p210
aVMIL vs. ATL
p211
aVW
p212
aI20
aI1
aI5
aF0.2
aI0
aI0
aF0.0
aI0
aI0
aF0.0
aI4
aI3
aI7
aI1
aI2
aI0
aI0
aI2
aI2
aI-16
aa(lp213
V0021000683
p214
aVJAN 28, 2011
p215
aVMIL @ TOR
p216
aVW
p217
aI22
aI0
aI0
aF0.0
aI0
aI0
aF0.0
aI0
aI0
aF0.0
aI0
aI4
aI4
aI0
aI0
aI0
aI1
aI3
aI0
aI4
aa(lp218
V0021000697
p219
aVJAN 29, 2011
p220
aVMIL vs. NJN
p221
aVW
p222
aI23
aI2
aI4
aF0.5
aI0
aI0
aF0.0
aI1
aI2
aF0.5
aI2
aI3
aI5
aI0
aI1
aI0
aI0
aI2
aI5
aI9
aa(lp223
V0021000714
p224
aVJAN 31, 2011
p225
aVMIL @ LAC
p226
aVL
p227
aI22
aI5
aI5
aF1.0
aI0
aI0
aF0.0
aI0
aI0
aF0.0
aI4
aI2
aI6
aI0
aI0
aI0
aI2
aI0
aI10
aI7
aa(lp228
V0021000727
p229
aVFEB 02, 2011
p230
aVMIL @ PHX
p231
aVL
p232
aI40
aI1
aI6
aF0.167
aI0
aI0
aF0.0
aI2
aI2
aF1.0
aI4
aI1
aI5
aI1
aI3
aI1
aI0
aI2
aI4
aI-20
aa(lp233
V0021000731
p234
aVFEB 03, 2011
p235
aVMIL @ GSW
p236
aVL
p237
aI41
aI6
aI12
aF0.5
aI0
aI0
aF0.0
aI3
aI3
aF1.0
aI11
aI8
aI19
aI5
aI2
aI0
aI3
aI4
aI15
aI-1
aa(lp238
V0021000750
p239
aVFEB 05, 2011
p240
aVMIL vs. DET
p241
aVL
p242
aI25
aI1
aI1
aF1.0
aI0
aI0
aF0.0
aI2
aI3
aF0.667
aI2
aI3
aI5
aI0
aI0
aI0
aI1
aI1
aI4
aI-2
aa(lp243
V0021000770
p244
aVFEB 08, 2011
p245
aVMIL vs. TOR
p246
aVW
p247
aI29
aI3
aI6
aF0.5
aI0
aI0
aF0.0
aI4
aI7
aF0.571
aI7
aI7
aI14
aI0
aI0
aI0
aI2
aI3
aI10
aI6
aa(lp248
V0021000778
p249
aVFEB 09, 2011
p250
aVMIL @ WAS
p251
aVL
p252
aI14
aI0
aI1
aF0.0
aI0
aI0
aF0.0
aI0
aI2
aF0.0
aI0
aI1
aI1
aI0
aI0
aI0
aI1
aI2
aI0
aI-6
aa(lp253
V0021000794
p254
aVFEB 11, 2011
p255
aVMIL @ MEM
p256
aVL
p257
aI19
aI4
aI6
aF0.667
aI0
aI0
aF0.0
aI1
aI2
aF0.5
aI4
aI5
aI9
aI0
aI1
aI0
aI1
aI5
aI9
aI-12
aa(lp258
V0021000802
p259
aVFEB 12, 2011
p260
aVMIL vs. IND
p261
aVL
p262
aI25
aI2
aI5
aF0.4
aI0
aI0
aF0.0
aI2
aI2
aF1.0
aI0
aI2
aI2
aI1
aI0
aI1
aI1
aI2
aI6
aI0
aa(lp263
V0021000815
p264
aVFEB 14, 2011
p265
aVMIL vs. LAC
p266
aVW
p267
aI39
aI3
aI4
aF0.75
aI0
aI1
aF0.0
aI7
aI8
aF0.875
aI4
aI6
aI10
aI1
aI1
aI0
aI0
aI5
aI13
aI27
aa(lp268
V0021000833
p269
aVFEB 16, 2011
p270
aVMIL vs. DEN
p271
aVL
p272
aI42
aI3
aI7
aF0.429
aI0
aI0
aF0.0
aI2
aI2
aF1.0
aI1
aI2
aI3
aI0
aI1
aI0
aI1
aI3
aI8
aI-12
aa(lp273
V0021000842
p274
aVFEB 22, 2011
p275
aVMIL vs. MIN
p276
aVW
p277
aI12
aI0
aI3
aF0.0
aI0
aI1
aF0.0
aI2
aI2
aF1.0
aI1
aI1
aI2
aI0
aI0
aI0
aI1
aI4
aI2
aI8
aa(lp278
V0021000852
p279
aVFEB 23, 2011
p280
aVMIL @ NYK
p281
aVL
p282
aI25
aI1
aI5
aF0.2
aI0
aI0
aF0.0
aI5
aI6
aF0.833
aI6
aI2
aI8
aI0
aI2
aI1
aI1
aI2
aI7
aI-8
aa(lp283
V0021000877
p284
aVFEB 26, 2011
p285
aVMIL vs. CHI
p286
aVL
p287
aI26
aI7
aI9
aF0.778
aI0
aI0
aF0.0
aI2
aI2
aF1.0
aI4
aI4
aI8
aI1
aI4
aI0
aI1
aI4
aI16
aI9
aa(lp288
V0021000939
p289
aVMAR 06, 2011
p290
aVMIL vs. BOS
p291
aVL
p292
aI37
aI8
aI13
aF0.615
aI0
aI0
aF0.0
aI3
aI5
aF0.6
aI4
aI3
aI7
aI1
aI2
aI0
aI3
aI2
aI19
aI-1
aa(lp293
V0021000950
p294
aVMAR 08, 2011
p295
aVMIL @ WAS
p296
aVW
p297
aI34
aI0
aI3
aF0.0
aI0
aI0
aF0.0
aI1
aI2
aF0.5
aI1
aI4
aI5
aI1
aI2
aI1
aI2
aI1
aI1
aI17
aa(lp298
V0021000959
p299
aVMAR 09, 2011
p300
aVMIL vs. CLE
p301
aVW
p302
aI26
aI2
aI6
aF0.333
aI0
aI0
aF0.0
aI2
aI4
aF0.5
aI0
aI4
aI4
aI0
aI0
aI0
aI2
aI0
aI6
aI3
aa(lp303
V0021000980
p304
aVMAR 12, 2011
p305
aVMIL vs. PHI
p306
aVW
p307
aI33
aI4
aI8
aF0.5
aI0
aI0
aF0.0
aI6
aI7
aF0.857
aI6
aI6
aI12
aI3
aI5
aI0
aI0
aI2
aI14
aI28
aa(lp308
V0021000988
p309
aVMAR 13, 2011
p310
aVMIL @ BOS
p311
aVL
p312
aI27
aI3
aI6
aF0.5
aI0
aI0
aF0.0
aI1
aI1
aF1.0
aI1
aI6
aI7
aI0
aI1
aI2
aI1
aI0
aI7
aI-18
aa(lp313
V0021000554
p314
aVMAR 15, 2011
p315
aVMIL @ ATL
p316
aVL
p317
aI26
aI1
aI6
aF0.167
aI0
aI0
aF0.0
aI0
aI0
aF0.0
aI2
aI0
aI2
aI2
aI3
aI0
aI2
aI2
aI2
aI-11
aa(lp318
V0021001007
p319
aVMAR 16, 2011
p320
aVMIL vs. ORL
p321
aVL
p322
aI45
aI5
aI9
aF0.556
aI0
aI0
aF0.0
aI0
aI1
aF0.0
aI1
aI4
aI5
aI4
aI2
aI0
aI0
aI4
aI10
aI-5
aa(lp323
V0021001025
p324
aVMAR 18, 2011
p325
aVMIL vs. NJN
p326
aVW
p327
aI33
aI7
aI10
aF0.7
aI0
aI0
aF0.0
aI1
aI2
aF0.5
aI2
aI3
aI5
aI1
aI1
aI0
aI0
aI2
aI15
aI15
aa(lp328
V0021001037
p329
aVMAR 20, 2011
p330
aVMIL vs. NYK
p331
aVW
p332
aI46
aI3
aI11
aF0.273
aI0
aI0
aF0.0
aI13
aI13
aF1.0
aI5
aI3
aI8
aI1
aI3
aI3
aI2
aI3
aI19
aI9
aa(lp333
V0021001060
p334
aVMAR 23, 2011
p335
aVMIL vs. SAC
p336
aVL
p337
aI29
aI4
aI6
aF0.667
aI0
aI0
aF0.0
aI3
aI4
aF0.75
aI2
aI2
aI4
aI2
aI0
aI0
aI1
aI3
aI11
aI-8
aa(lp338
V0021001073
p339
aVMAR 25, 2011
p340
aVMIL @ NYK
p341
aVW
p342
aI31
aI5
aI9
aF0.556
aI0
aI0
aF0.0
aI2
aI2
aF1.0
aI2
aI2
aI4
aI1
aI0
aI1
aI2
aI2
aI12
aI10
aa(lp343
V0021001084
p344
aVMAR 26, 2011
p345
aVMIL vs. CHI
p346
aVL
p347
aI36
aI3
aI10
aF0.3
aI0
aI0
aF0.0
aI4
aI4
aF1.0
aI3
aI5
aI8
aI2
aI1
aI0
aI0
aI4
aI10
aI-4
aa(lp348
V0021001096
p349
aVMAR 28, 2011
p350
aVMIL @ CHA
p351
aVL
p352
aI28
aI4
aI8
aF0.5
aI0
aI0
aF0.0
aI3
aI4
aF0.75
aI4
aI2
aI6
aI0
aI0
aI0
aI0
aI5
aI11
aI3
aa(lp353
V0021001109
p354
aVMAR 30, 2011
p355
aVMIL @ TOR
p356
aVW
p357
aI32
aI2
aI7
aF0.286
aI0
aI0
aF0.0
aI3
aI4
aF0.75
aI1
aI1
aI2
aI0
aI0
aI0
aI0
aI1
aI7
aI-10
aa(lp358
V0021001120
p359
aVAPR 01, 2011
p360
aVMIL @ IND
p361
aVL
p362
aI34
aI5
aI8
aF0.625
aI0
aI0
aF0.0
aI0
aI1
aF0.0
aI3
aI4
aI7
aI2
aI1
aI0
aI0
aI2
aI10
aI-2
aa(lp363
V0021001135
p364
aVAPR 02, 2011
p365
aVMIL vs. PHI
p366
aVW
p367
aI26
aI5
aI9
aF0.556
aI0
aI0
aF0.0
aI2
aI4
aF0.5
aI0
aI5
aI5
aI0
aI0
aI0
aI3
aI1
aI12
aI-5
aa(lp368
V0021001152
p369
aVAPR 05, 2011
p370
aVMIL @ ORL
p371
aVL
p372
aI28
aI1
aI6
aF0.167
aI0
aI0
aF0.0
aI0
aI0
aF0.0
aI0
aI2
aI2
aI0
aI2
aI1
aI2
aI2
aI2
aI-4
aa(lp373
V0021001164
p374
aVAPR 06, 2011
p375
aVMIL @ MIA
p376
aVW
p377
aI38
aI7
aI14
aF0.5
aI0
aI1
aF0.0
aI0
aI0
aF0.0
aI4
aI8
aI12
aI0
aI3
aI0
aI0
aI2
aI14
aI10
aa(lp378
V0021001181
p379
aVAPR 08, 2011
p380
aVMIL @ DET
p381
aVL
p382
aI7
aI0
aI1
aF0.0
aI0
aI0
aF0.0
aI0
aI0
aF0.0
aI0
aI1
aI1
aI0
aI0
aI0
aI0
aI3
aI0
aI-13
aa(lp383
V0021001190
p384
aVAPR 09, 2011
p385
aVMIL vs. CLE
p386
aVW
p387
aI37
aI5
aI10
aF0.5
aI0
aI0
aF0.0
aI2
aI4
aF0.5
aI3
aI3
aI6
aI1
aI0
aI1
aI1
aI2
aI12
aI13
aa(lp388
V0021001207
p389
aVAPR 11, 2011
p390
aVMIL vs. TOR
p391
aVW
p392
aI19
aI2
aI5
aF0.4
aI0
aI0
aF0.0
aI0
aI0
aF0.0
aI1
aI2
aI3
aI1
aI1
aI0
aI0
aI2
aI4
aI3
aa(lp393
V0021001225
p394
aVAPR 13, 2011
p395
aVMIL @ OKC
p396
aVW
p397
aI22
aI2
aI6
aF0.333
aI0
aI0
aF0.0
aI2
aI4
aF0.5
aI1
aI0
aI1
aI1
aI0
aI0
aI0
aI0
aI6
aI-8
aasS'name'
p398
VLuc Mbah a Moute
p399
sS'weight'
p400
V230
p401
sS'age'
p402
I24
sS'experience'
p403
I2
sS'height'
p404
V6-8
p405
sS'position'
p406
VForward
p407
s.