(dp0
S'stats'
p1
(lp2
(lp3
V0021000002
p4
aVOCT 26, 2010
p5
aVPHX @ POR
p6
aVL
p7
aI13
aI2
aI5
aF0.4
aI1
aI2
aF0.5
aI1
aI1
aF1.0
aI0
aI0
aI0
aI1
aI0
aI0
aI0
aI1
aI6
aI-7
aa(lp8
V0021000018
p9
aVOCT 28, 2010
p10
aVPHX @ UTA
p11
aVW
p12
aI15
aI4
aI9
aF0.444
aI0
aI1
aF0.0
aI3
aI6
aF0.5
aI0
aI1
aI1
aI6
aI0
aI0
aI2
aI0
aI11
aI8
aa(lp13
V0021000030
p14
aVOCT 29, 2010
p15
aVPHX vs. LAL
p16
aVL
p17
aI19
aI6
aI9
aF0.667
aI2
aI3
aF0.667
aI1
aI1
aF1.0
aI0
aI1
aI1
aI4
aI1
aI0
aI3
aI1
aI15
aI-10
aa(lp18
V0021000062
p19
aVNOV 03, 2010
p20
aVPHX vs. SAS
p21
aVL
p22
aI16
aI3
aI8
aF0.375
aI0
aI3
aF0.0
aI2
aI3
aF0.667
aI1
aI1
aI2
aI8
aI0
aI0
aI2
aI3
aI8
aI-5
aa(lp23
V0021000076
p24
aVNOV 05, 2010
p25
aVPHX vs. MEM
p26
aVW
p27
aI18
aI4
aI6
aF0.667
aI1
aI3
aF0.333
aI4
aI8
aF0.5
aI0
aI0
aI0
aI2
aI1
aI0
aI6
aI2
aI13
aI0
aa(lp28
V0021000090
p29
aVNOV 07, 2010
p30
aVPHX @ ATL
p31
aVW
p32
aI14
aI2
aI5
aF0.4
aI1
aI1
aF1.0
aI1
aI2
aF0.5
aI1
aI0
aI1
aI1
aI2
aI0
aI1
aI1
aI6
aI0
aa(lp33
V0021000099
p34
aVNOV 08, 2010
p35
aVPHX @ MEM
p36
aVL
p37
aI18
aI3
aI6
aF0.5
aI1
aI3
aF0.333
aI0
aI0
aF0.0
aI0
aI1
aI1
aI4
aI0
aI1
aI3
aI2
aI7
aI-11
aa(lp38
V0021000127
p39
aVNOV 12, 2010
p40
aVPHX vs. SAC
p41
aVW
p42
aI13
aI2
aI7
aF0.286
aI1
aI4
aF0.25
aI2
aI4
aF0.5
aI0
aI2
aI2
aI1
aI4
aI0
aI1
aI1
aI7
aI0
aa(lp43
V0021000143
p44
aVNOV 14, 2010
p45
aVPHX @ LAL
p46
aVW
p47
aI14
aI3
aI7
aF0.429
aI3
aI5
aF0.6
aI0
aI0
aF0.0
aI0
aI1
aI1
aI1
aI1
aI0
aI3
aI0
aI9
aI-7
aa(lp48
V0021000147
p49
aVNOV 15, 2010
p50
aVPHX vs. DEN
p51
aVW
p52
aI14
aI1
aI6
aF0.167
aI0
aI2
aF0.0
aI0
aI0
aF0.0
aI0
aI1
aI1
aI1
aI0
aI0
aI1
aI2
aI2
aI2
aa(lp53
V0021000158
p54
aVNOV 17, 2010
p55
aVPHX @ MIA
p56
aVL
p57
aI19
aI4
aI7
aF0.571
aI2
aI4
aF0.5
aI1
aI3
aF0.333
aI0
aI4
aI4
aI0
aI0
aI1
aI5
aI2
aI11
aI-6
aa(lp58
V0021000169
p59
aVNOV 18, 2010
p60
aVPHX @ ORL
p61
aVL
p62
aI27
aI4
aI9
aF0.444
aI0
aI3
aF0.0
aI2
aI5
aF0.4
aI3
aI1
aI4
aI4
aI1
aI0
aI6
aI1
aI10
aI-26
aa(lp63
V0021000182
p64
aVNOV 20, 2010
p65
aVPHX @ CHA
p66
aVL
p67
aI38
aI6
aI13
aF0.462
aI1
aI4
aF0.25
aI4
aI4
aF1.0
aI1
aI3
aI4
aI10
aI1
aI0
aI0
aI4
aI17
aI-11
aa(lp68
V0021000198
p69
aVNOV 22, 2010
p70
aVPHX @ HOU
p71
aVW
p72
aI11
aI1
aI2
aF0.5
aI0
aI0
aF0.0
aI0
aI1
aF0.0
aI0
aI3
aI3
aI2
aI0
aI0
aI1
aI0
aI2
aI-6
aa(lp73
V0021000218
p74
aVNOV 24, 2010
p75
aVPHX vs. CHI
p76
aVL
p77
aI9
aI0
aI2
aF0.0
aI0
aI1
aF0.0
aI1
aI2
aF0.5
aI0
aI0
aI0
aI2
aI2
aI0
aI1
aI0
aI1
aI-4
aa(lp78
V0021000230
p79
aVNOV 26, 2010
p80
aVPHX vs. LAC
p81
aVW
p82
aI18
aI4
aI12
aF0.333
aI1
aI5
aF0.2
aI0
aI2
aF0.0
aI3
aI2
aI5
aI4
aI0
aI0
aI2
aI3
aI9
aI-15
aa(lp83
V0021000248
p84
aVNOV 28, 2010
p85
aVPHX @ DEN
p86
aVL
p87
aI16
aI2
aI4
aF0.5
aI2
aI3
aF0.667
aI1
aI2
aF0.5
aI1
aI0
aI1
aI5
aI0
aI0
aI0
aI4
aI7
aI1
aa(lp88
V0021000274
p89
aVDEC 02, 2010
p90
aVPHX @ GSW
p91
aVW
p92
aI14
aI3
aI5
aF0.6
aI1
aI3
aF0.333
aI0
aI0
aF0.0
aI0
aI2
aI2
aI3
aI1
aI0
aI4
aI2
aI7
aI-2
aa(lp93
V0021000285
p94
aVDEC 03, 2010
p95
aVPHX vs. IND
p96
aVW
p97
aI18
aI3
aI8
aF0.375
aI1
aI4
aF0.25
aI2
aI4
aF0.5
aI1
aI5
aI6
aI4
aI2
aI0
aI5
aI2
aI9
aI-1
aa(lp98
V0021000300
p99
aVDEC 05, 2010
p100
aVPHX vs. WAS
p101
aVW
p102
aI18
aI3
aI6
aF0.5
aI0
aI2
aF0.0
aI0
aI0
aF0.0
aI0
aI3
aI3
aI4
aI0
aI0
aI3
aI2
aI6
aI0
aa(lp103
V0021000314
p104
aVDEC 07, 2010
p105
aVPHX @ POR
p106
aVL
p107
aI9
aI0
aI2
aF0.0
aI0
aI0
aF0.0
aI0
aI0
aF0.0
aI0
aI1
aI1
aI1
aI1
aI0
aI2
aI2
aI0
aI-12
aa(lp108
V0021000323
p109
aVDEC 08, 2010
p110
aVPHX vs. MEM
p111
aVL
p112
aI35
aI7
aI15
aF0.467
aI1
aI6
aF0.167
aI2
aI2
aF1.0
aI0
aI3
aI3
aI5
aI1
aI1
aI3
aI1
aI17
aI3
aa(lp113
V0021000338
p114
aVDEC 10, 2010
p115
aVPHX vs. POR
p116
aVL
p117
aI22
aI2
aI8
aF0.25
aI0
aI1
aF0.0
aI2
aI2
aF1.0
aI1
aI1
aI2
aI2
aI0
aI0
aI1
aI1
aI6
aI-3
aa(lp118
V0021000376
p119
aVDEC 15, 2010
p120
aVPHX vs. MIN
p121
aVW
p122
aI17
aI5
aI9
aF0.556
aI1
aI1
aF1.0
aI0
aI0
aF0.0
aI2
aI0
aI2
aI5
aI1
aI0
aI2
aI3
aI11
aI-15
aa(lp123
V0021000390
p124
aVDEC 17, 2010
p125
aVPHX @ DAL
p126
aVL
p127
aI40
aI5
aI11
aF0.455
aI0
aI1
aF0.0
aI4
aI6
aF0.667
aI2
aI1
aI3
aI10
aI1
aI0
aI3
aI3
aI14
aI-3
aa(lp128
V0021000405
p129
aVDEC 19, 2010
p130
aVPHX @ OKC
p131
aVW
p132
aI32
aI4
aI7
aF0.571
aI1
aI1
aF1.0
aI2
aI2
aF1.0
aI0
aI2
aI2
aI5
aI1
aI0
aI2
aI3
aI11
aI-3
aa(lp133
V0021000411
p134
aVDEC 20, 2010
p135
aVPHX @ SAS
p136
aVL
p137
aI18
aI3
aI7
aF0.429
aI0
aI1
aF0.0
aI0
aI0
aF0.0
aI0
aI1
aI1
aI4
aI0
aI0
aI1
aI2
aI6
aI-6
aa(lp138
V0021000432
p139
aVDEC 23, 2010
p140
aVPHX vs. MIA
p141
aVL
p142
aI16
aI0
aI4
aF0.0
aI0
aI2
aF0.0
aI1
aI2
aF0.5
aI1
aI1
aI2
aI1
aI0
aI0
aI1
aI3
aI1
aI-12
aa(lp143
V0021000438
p144
aVDEC 26, 2010
p145
aVPHX @ LAC
p146
aVL
p147
aI19
aI2
aI6
aF0.333
aI1
aI2
aF0.5
aI0
aI0
aF0.0
aI0
aI1
aI1
aI3
aI0
aI0
aI1
aI0
aI5
aI2
aa(lp148
V0021000470
p149
aVDEC 29, 2010
p150
aVPHX vs. PHI
p151
aVL
p152
aI10
aI0
aI3
aF0.0
aI0
aI1
aF0.0
aI0
aI0
aF0.0
aI0
aI0
aI0
aI2
aI0
aI0
aI0
aI4
aI0
aI-11
aa(lp153
V0021000482
p154
aVDEC 31, 2010
p155
aVPHX vs. DET
p156
aVW
p157
aI29
aI3
aI9
aF0.333
aI2
aI4
aF0.5
aI0
aI0
aF0.0
aI0
aI2
aI2
aI5
aI1
aI1
aI3
aI4
aI8
aI20
aa(lp158
V0021000497
p159
aVJAN 02, 2011
p160
aVPHX @ SAC
p161
aVL
p162
aI11
aI1
aI5
aF0.2
aI0
aI2
aF0.0
aI0
aI0
aF0.0
aI0
aI2
aI2
aI1
aI1
aI0
aI0
aI2
aI2
aI-13
aa(lp163
V0021000521
p164
aVJAN 05, 2011
p165
aVPHX vs. LAL
p166
aVL
p167
aI17
aI2
aI4
aF0.5
aI1
aI2
aF0.5
aI0
aI0
aF0.0
aI1
aI0
aI1
aI4
aI0
aI0
aI3
aI0
aI5
aI2
aa(lp168
V0021000533
p169
aVJAN 07, 2011
p170
aVPHX vs. NYK
p171
aVL
p172
aI20
aI5
aI12
aF0.417
aI2
aI4
aF0.5
aI5
aI5
aF1.0
aI0
aI0
aI0
aI2
aI3
aI0
aI1
aI3
aI17
aI-13
aa(lp173
V0021000547
p174
aVJAN 09, 2011
p175
aVPHX vs. CLE
p176
aVW
p177
aI16
aI3
aI7
aF0.429
aI0
aI2
aF0.0
aI2
aI4
aF0.5
aI0
aI3
aI3
aI0
aI1
aI0
aI2
aI3
aI8
aI0
aa(lp178
V0021000558
p179
aVJAN 11, 2011
p180
aVPHX @ DEN
p181
aVL
p182
aI24
aI3
aI10
aF0.3
aI0
aI2
aF0.0
aI5
aI7
aF0.714
aI2
aI2
aI4
aI2
aI2
aI0
aI3
aI5
aI11
aI-25
aa(lp183
V0021000569
p184
aVJAN 12, 2011
p185
aVPHX vs. NJN
p186
aVW
p187
aI29
aI2
aI5
aF0.4
aI0
aI1
aF0.0
aI5
aI7
aF0.714
aI1
aI4
aI5
aI4
aI0
aI0
aI1
aI1
aI9
aI15
aa(lp188
V0021000584
p189
aVJAN 14, 2011
p190
aVPHX vs. POR
p191
aVW
p192
aI15
aI2
aI7
aF0.286
aI0
aI0
aF0.0
aI0
aI0
aF0.0
aI0
aI1
aI1
aI1
aI0
aI0
aI1
aI3
aI4
aI-7
aa(lp193
V0021000598
p194
aVJAN 17, 2011
p195
aVPHX @ NYK
p196
aVW
p197
aI15
aI3
aI6
aF0.5
aI0
aI1
aF0.0
aI1
aI2
aF0.5
aI1
aI0
aI1
aI1
aI0
aI0
aI0
aI1
aI7
aI-13
aa(lp198
V0021000613
p199
aVJAN 19, 2011
p200
aVPHX @ CLE
p201
aVW
p202
aI11
aI4
aI5
aF0.8
aI0
aI0
aF0.0
aI1
aI2
aF0.5
aI0
aI0
aI0
aI2
aI0
aI0
aI0
aI1
aI9
aI-1
aa(lp203
V0021000634
p204
aVJAN 21, 2011
p205
aVPHX @ WAS
p206
aVW
p207
aI16
aI4
aI7
aF0.571
aI0
aI1
aF0.0
aI3
aI5
aF0.6
aI0
aI1
aI1
aI5
aI1
aI0
aI2
aI1
aI11
aI12
aa(lp208
V0021000642
p209
aVJAN 22, 2011
p210
aVPHX @ DET
p211
aVL
p212
aI12
aI1
aI2
aF0.5
aI0
aI0
aF0.0
aI0
aI1
aF0.0
aI0
aI0
aI0
aI3
aI1
aI0
aI0
aI2
aI2
aI-2
aa(lp213
V0021000655
p214
aVJAN 24, 2011
p215
aVPHX @ PHI
p216
aVL
p217
aI18
aI6
aI8
aF0.75
aI0
aI1
aF0.0
aI0
aI0
aF0.0
aI0
aI1
aI1
aI3
aI3
aI0
aI4
aI2
aI12
aI-1
aa(lp218
V0021000675
p219
aVJAN 26, 2011
p220
aVPHX vs. CHA
p221
aVL
p222
aI21
aI2
aI8
aF0.25
aI1
aI5
aF0.2
aI0
aI0
aF0.0
aI1
aI1
aI2
aI2
aI1
aI0
aI2
aI2
aI5
aI-5
aa(lp223
V0021000690
p224
aVJAN 28, 2011
p225
aVPHX vs. BOS
p226
aVW
p227
aI15
aI1
aI4
aF0.25
aI0
aI0
aF0.0
aI0
aI0
aF0.0
aI0
aI1
aI1
aI1
aI0
aI1
aI3
aI3
aI2
aI-4
aa(lp228
V0021000822
p229
aVFEB 15, 2011
p230
aVPHX vs. UTA
p231
aVW
p232
aI5
aI1
aI3
aF0.333
aI0
aI1
aF0.0
aI0
aI0
aF0.0
aI0
aI1
aI1
aI1
aI0
aI0
aI2
aI0
aI2
aI-8
aa(lp233
V0021000837
p234
aVFEB 17, 2011
p235
aVPHX vs. DAL
p236
aVL
p237
aI12
aI2
aI4
aF0.5
aI0
aI1
aF0.0
aI1
aI2
aF0.5
aI0
aI0
aI0
aI3
aI0
aI1
aI1
aI1
aI5
aI-14
aa(lp238
V0021000857
p239
aVFEB 23, 2011
p240
aVPHX vs. ATL
p241
aVW
p242
aI13
aI0
aI2
aF0.0
aI0
aI2
aF0.0
aI0
aI0
aF0.0
aI1
aI1
aI2
aI4
aI1
aI0
aI3
aI1
aI0
aI6
aa(lp243
V0021000876
p244
aVFEB 26, 2011
p245
aVHOU vs. NJN
p246
aVW
p247
aI11
aI2
aI6
aF0.333
aI1
aI3
aF0.333
aI1
aI2
aF0.5
aI0
aI1
aI1
aI1
aI2
aI0
aI1
aI4
aI6
aI-8
aa(lp248
V0021000901
p249
aVMAR 01, 2011
p250
aVHOU @ POR
p251
aVW
p252
aI8
aI1
aI2
aF0.5
aI0
aI0
aF0.0
aI0
aI0
aF0.0
aI0
aI2
aI2
aI1
aI0
aI0
aI2
aI4
aI2
aI-4
aa(lp253
V0021000911
p254
aVMAR 02, 2011
p255
aVHOU @ LAC
p256
aVL
p257
aI13
aI3
aI6
aF0.5
aI3
aI3
aF1.0
aI0
aI0
aF0.0
aI1
aI2
aI3
aI3
aI0
aI0
aI0
aI0
aI9
aI9
aa(lp258
V0021000927
p259
aVMAR 05, 2011
p260
aVHOU vs. IND
p261
aVW
p262
aI19
aI5
aI11
aF0.455
aI1
aI3
aF0.333
aI1
aI1
aF1.0
aI0
aI2
aI2
aI5
aI2
aI0
aI1
aI2
aI12
aI0
aa(lp263
V0021000946
p264
aVMAR 07, 2011
p265
aVHOU @ SAC
p266
aVW
p267
aI19
aI3
aI6
aF0.5
aI0
aI2
aF0.0
aI4
aI4
aF1.0
aI0
aI2
aI2
aI2
aI1
aI0
aI2
aI4
aI10
aI6
aa(lp268
V0021000952
p269
aVMAR 08, 2011
p270
aVHOU @ PHX
p271
aVL
p272
aI12
aI0
aI4
aF0.0
aI0
aI1
aF0.0
aI6
aI8
aF0.75
aI0
aI1
aI1
aI3
aI1
aI1
aI0
aI2
aI6
aI5
aa(lp273
V0021000983
p274
aVMAR 12, 2011
p275
aVHOU vs. SAS
p276
aVL
p277
aI17
aI5
aI6
aF0.833
aI0
aI1
aF0.0
aI0
aI1
aF0.0
aI0
aI1
aI1
aI2
aI2
aI0
aI4
aI2
aI10
aI-5
aa(lp278
V0021000996
p279
aVMAR 14, 2011
p280
aVHOU vs. PHX
p281
aVW
p282
aI8
aI0
aI1
aF0.0
aI0
aI0
aF0.0
aI0
aI0
aF0.0
aI1
aI3
aI4
aI1
aI0
aI0
aI3
aI0
aI0
aI-7
aa(lp283
V0021001009
p284
aVMAR 16, 2011
p285
aVHOU vs. CHA
p286
aVW
p287
aI10
aI1
aI4
aF0.25
aI1
aI1
aF1.0
aI0
aI0
aF0.0
aI0
aI0
aI0
aI0
aI1
aI0
aI1
aI1
aI3
aI-2
aa(lp288
V0021001024
p289
aVMAR 18, 2011
p290
aVHOU vs. BOS
p291
aVW
p292
aI12
aI1
aI3
aF0.333
aI1
aI2
aF0.5
aI1
aI2
aF0.5
aI0
aI0
aI0
aI2
aI0
aI0
aI1
aI0
aI4
aI-4
aa(lp293
V0021001040
p294
aVMAR 20, 2011
p295
aVHOU vs. UTA
p296
aVW
p297
aI9
aI2
aI5
aF0.4
aI2
aI3
aF0.667
aI0
aI0
aF0.0
aI0
aI0
aI0
aI1
aI0
aI0
aI0
aI2
aI6
aI-1
aa(lp298
V0021001062
p299
aVMAR 23, 2011
p300
aVHOU vs. GSW
p301
aVW
p302
aI19
aI4
aI5
aF0.8
aI2
aI2
aF1.0
aI4
aI6
aF0.667
aI0
aI1
aI1
aI2
aI0
aI0
aI0
aI0
aI14
aI-1
aa(lp303
V0021001089
p304
aVMAR 27, 2011
p305
aVHOU @ MIA
p306
aVL
p307
aI9
aI1
aI3
aF0.333
aI1
aI2
aF0.5
aI1
aI2
aF0.5
aI0
aI1
aI1
aI2
aI0
aI0
aI0
aI0
aI4
aI0
aa(lp308
V0021001102
p309
aVMAR 29, 2011
p310
aVHOU @ NJN
p311
aVW
p312
aI19
aI5
aI6
aF0.833
aI3
aI4
aF0.75
aI0
aI0
aF0.0
aI0
aI2
aI2
aI1
aI0
aI0
aI0
aI1
aI13
aI4
aa(lp313
V0021001108
p314
aVMAR 30, 2011
p315
aVHOU @ PHI
p316
aVL
p317
aI13
aI2
aI4
aF0.5
aI1
aI2
aF0.5
aI3
aI3
aF1.0
aI1
aI1
aI2
aI1
aI0
aI0
aI1
aI1
aI8
aI-1
aa(lp318
V0021001128
p319
aVAPR 01, 2011
p320
aVHOU vs. SAS
p321
aVW
p322
aI8
aI2
aI4
aF0.5
aI1
aI1
aF1.0
aI0
aI0
aF0.0
aI0
aI0
aI0
aI0
aI0
aI0
aI0
aI2
aI5
aI0
aa(lp323
V0021001146
p324
aVAPR 03, 2011
p325
aVHOU vs. ATL
p326
aVW
p327
aI7
aI1
aI2
aF0.5
aI0
aI1
aF0.0
aI0
aI0
aF0.0
aI0
aI2
aI2
aI0
aI0
aI0
aI1
aI1
aI2
aI-6
aa(lp328
V0021001158
p329
aVAPR 05, 2011
p330
aVHOU vs. SAC
p331
aVL
p332
aI6
aI0
aI1
aF0.0
aI0
aI1
aF0.0
aI0
aI0
aF0.0
aI0
aI0
aI0
aI1
aI0
aI0
aI0
aI0
aI0
aI-7
aa(lp333
V0021001169
p334
aVAPR 06, 2011
p335
aVHOU @ NOH
p336
aVL
p337
aI23
aI6
aI9
aF0.667
aI4
aI5
aF0.8
aI0
aI0
aF0.0
aI0
aI1
aI1
aI2
aI0
aI0
aI0
aI4
aI16
aI-2
aa(lp338
V0021001189
p339
aVAPR 09, 2011
p340
aVHOU vs. LAC
p341
aVW
p342
aI38
aI5
aI13
aF0.385
aI2
aI5
aF0.4
aI2
aI3
aF0.667
aI3
aI7
aI10
aI7
aI1
aI2
aI1
aI3
aI14
aI11
aa(lp343
V0021001209
p344
aVAPR 11, 2011
p345
aVHOU vs. DAL
p346
aVL
p347
aI53
aI6
aI16
aF0.375
aI2
aI6
aF0.333
aI1
aI2
aF0.5
aI4
aI6
aI10
aI7
aI4
aI0
aI1
aI1
aI15
aI-7
aa(lp348
V0021001224
p349
aVAPR 13, 2011
p350
aVHOU @ MIN
p351
aVW
p352
aI44
aI4
aI8
aF0.5
aI3
aI6
aF0.5
aI0
aI2
aF0.0
aI2
aI9
aI11
aI11
aI0
aI1
aI2
aI1
aI11
aI18
aasS'name'
p353
VGoran Dragic
p354
sS'weight'
p355
V190
p356
sS'age'
p357
I24
sS'experience'
p358
I2
sS'height'
p359
V6-3
p360
sS'position'
p361
VGuard
p362
s.