(dp0
S'age'
p1
I25
sS'stats'
p2
(lp3
(lp4
V0021001222
p5
aVAPR 13, 2011
p6
aVCHI vs. NJN
p7
aVW
p8
aI22
aI2
aI4
aF0.5
aI0
aI0
aF0.0
aI5
aI6
aF0.833
aI2
aI6
aI8
aI0
aI0
aI3
aI1
aI2
aI9
aI15
aa(lp9
V0021001213
p10
aVAPR 12, 2011
p11
aVCHI @ NYK
p12
aVW
p13
aI22
aI1
aI4
aF0.25
aI0
aI0
aF0.0
aI2
aI2
aF1.0
aI1
aI3
aI4
aI1
aI0
aI1
aI0
aI1
aI4
aI2
aa(lp14
V0021001193
p15
aVAPR 10, 2011
p16
aVCHI @ ORL
p17
aVW
p18
aI30
aI3
aI6
aF0.5
aI0
aI0
aF0.0
aI3
aI5
aF0.6
aI0
aI11
aI11
aI1
aI2
aI0
aI2
aI3
aI9
aI8
aa(lp19
V0021001180
p20
aVAPR 08, 2011
p21
aVCHI @ CLE
p22
aVW
p23
aI24
aI4
aI7
aF0.571
aI0
aI0
aF0.0
aI1
aI2
aF0.5
aI0
aI4
aI4
aI0
aI0
aI0
aI2
aI2
aI9
aI4
aa(lp24
V0021001174
p25
aVAPR 07, 2011
p26
aVCHI vs. BOS
p27
aVW
p28
aI13
aI3
aI5
aF0.6
aI0
aI0
aF0.0
aI0
aI0
aF0.0
aI1
aI2
aI3
aI1
aI3
aI1
aI1
aI0
aI6
aI2
aa(lp29
V0021001156
p30
aVAPR 05, 2011
p31
aVCHI vs. PHX
p32
aVW
p33
aI21
aI4
aI7
aF0.571
aI0
aI0
aF0.0
aI2
aI5
aF0.4
aI1
aI8
aI9
aI1
aI0
aI0
aI1
aI2
aI10
aI0
aa(lp34
V0021001133
p35
aVAPR 02, 2011
p36
aVCHI vs. TOR
p37
aVW
p38
aI31
aI6
aI11
aF0.545
aI0
aI0
aF0.0
aI3
aI3
aF1.0
aI4
aI5
aI9
aI1
aI0
aI0
aI1
aI3
aI15
aI11
aa(lp39
V0021001124
p40
aVAPR 01, 2011
p41
aVCHI @ DET
p42
aVW
p43
aI13
aI1
aI1
aF1.0
aI0
aI0
aF0.0
aI3
aI4
aF0.75
aI2
aI2
aI4
aI0
aI0
aI1
aI2
aI2
aI5
aI10
aa(lp44
V0021001113
p45
aVMAR 30, 2011
p46
aVCHI @ MIN
p47
aVW
p48
aI24
aI4
aI7
aF0.571
aI0
aI0
aF0.0
aI0
aI0
aF0.0
aI2
aI4
aI6
aI2
aI0
aI1
aI0
aI0
aI8
aI4
aa(lp49
V0021001098
p50
aVMAR 28, 2011
p51
aVCHI vs. PHI
p52
aVL
p53
aI16
aI2
aI6
aF0.333
aI0
aI0
aF0.0
aI0
aI0
aF0.0
aI2
aI1
aI3
aI1
aI0
aI2
aI0
aI1
aI4
aI-4
aa(lp54
V0021001084
p55
aVMAR 26, 2011
p56
aVCHI @ MIL
p57
aVW
p58
aI13
aI1
aI2
aF0.5
aI0
aI0
aF0.0
aI0
aI0
aF0.0
aI1
aI3
aI4
aI0
aI0
aI1
aI1
aI3
aI2
aI-6
aa(lp59
V0021001074
p60
aVMAR 25, 2011
p61
aVCHI vs. MEM
p62
aVW
p63
aI16
aI3
aI3
aF1.0
aI0
aI0
aF0.0
aI0
aI0
aF0.0
aI4
aI3
aI7
aI0
aI0
aI1
aI2
aI1
aI6
aI-2
aa(lp64
V0021001051
p65
aVMAR 22, 2011
p66
aVCHI @ ATL
p67
aVW
p68
aI21
aI4
aI6
aF0.667
aI0
aI0
aF0.0
aI1
aI1
aF1.0
aI3
aI5
aI8
aI1
aI0
aI2
aI2
aI4
aI9
aI16
aa(lp69
V0021001047
p70
aVMAR 21, 2011
p71
aVCHI vs. SAC
p72
aVW
p73
aI18
aI1
aI3
aF0.333
aI0
aI0
aF0.0
aI0
aI0
aF0.0
aI3
aI3
aI6
aI2
aI3
aI1
aI0
aI5
aI2
aI17
aa(lp74
V0021001017
p75
aVMAR 18, 2011
p76
aVCHI @ IND
p77
aVL
p78
aI32
aI2
aI7
aF0.286
aI0
aI0
aF0.0
aI4
aI6
aF0.667
aI7
aI9
aI16
aI1
aI2
aI1
aI1
aI2
aI8
aI8
aa(lp79
V0021001014
p80
aVMAR 17, 2011
p81
aVCHI @ NJN
p82
aVW
p83
aI20
aI3
aI4
aF0.75
aI0
aI0
aF0.0
aI1
aI2
aF0.5
aI0
aI4
aI4
aI0
aI0
aI1
aI1
aI1
aI7
aI3
aa(lp84
V0021001001
p85
aVMAR 15, 2011
p86
aVCHI vs. WAS
p87
aVW
p88
aI27
aI4
aI11
aF0.364
aI0
aI0
aF0.0
aI1
aI2
aF0.5
aI5
aI8
aI13
aI1
aI0
aI0
aI0
aI4
aI9
aI20
aa(lp89
V0021000979
p90
aVMAR 12, 2011
p91
aVCHI vs. UTA
p92
aVW
p93
aI18
aI2
aI2
aF1.0
aI0
aI0
aF0.0
aI2
aI4
aF0.5
aI0
aI3
aI3
aI0
aI0
aI1
aI1
aI6
aI6
aI12
aa(lp94
V0021000971
p95
aVMAR 11, 2011
p96
aVCHI vs. ATL
p97
aVW
p98
aI20
aI4
aI6
aF0.667
aI0
aI0
aF0.0
aI0
aI0
aF0.0
aI1
aI4
aI5
aI1
aI0
aI0
aI1
aI1
aI8
aI5
aa(lp99
V0021000953
p100
aVMAR 09, 2011
p101
aVCHI @ CHA
p102
aVW
p103
aI22
aI6
aI7
aF0.857
aI0
aI0
aF0.0
aI2
aI2
aF1.0
aI4
aI2
aI6
aI1
aI0
aI1
aI1
aI1
aI14
aI3
aa(lp104
V0021000943
p105
aVMAR 07, 2011
p106
aVCHI vs. NOH
p107
aVW
p108
aI22
aI1
aI3
aF0.333
aI0
aI0
aF0.0
aI0
aI0
aF0.0
aI1
aI4
aI5
aI1
aI0
aI0
aI0
aI0
aI2
aI-3
aa(lp109
V0021000931
p110
aVMAR 06, 2011
p111
aVCHI @ MIA
p112
aVW
p113
aI17
aI2
aI3
aF0.667
aI0
aI0
aF0.0
aI4
aI4
aF1.0
aI0
aI2
aI2
aI0
aI0
aI0
aI0
aI3
aI8
aI-5
aa(lp114
V0021000915
p115
aVMAR 04, 2011
p116
aVCHI @ ORL
p117
aVW
p118
aI16
aI2
aI2
aF1.0
aI0
aI0
aF0.0
aI1
aI2
aF0.5
aI0
aI2
aI2
aI0
aI0
aI1
aI1
aI3
aI5
aI7
aa(lp119
V0021000902
p120
aVMAR 02, 2011
p121
aVCHI @ ATL
p122
aVL
p123
aI15
aI3
aI5
aF0.6
aI0
aI0
aF0.0
aI0
aI0
aF0.0
aI2
aI0
aI2
aI1
aI1
aI0
aI1
aI3
aI6
aI-2
aa(lp124
V0021000890
p125
aVFEB 28, 2011
p126
aVCHI @ WAS
p127
aVW
p128
aI21
aI2
aI2
aF1.0
aI0
aI0
aF0.0
aI0
aI0
aF0.0
aI3
aI4
aI7
aI1
aI0
aI3
aI0
aI1
aI4
aI8
aa(lp129
V0021000877
p130
aVFEB 26, 2011
p131
aVCHI @ MIL
p132
aVW
p133
aI14
aI1
aI3
aF0.333
aI0
aI0
aF0.0
aI1
aI2
aF0.5
aI1
aI1
aI2
aI1
aI0
aI0
aI0
aI0
aI3
aI8
aa(lp134
V0021000859
p135
aVFEB 24, 2011
p136
aVCHI vs. MIA
p137
aVW
p138
aI15
aI2
aI8
aF0.25
aI0
aI0
aF0.0
aI1
aI2
aF0.5
aI2
aI0
aI2
aI0
aI0
aI1
aI0
aI4
aI5
aI6
aa(lp139
V0021000851
p140
aVFEB 23, 2011
p141
aVCHI @ TOR
p142
aVL
p143
aI16
aI2
aI8
aF0.25
aI0
aI0
aF0.0
aI2
aI2
aF1.0
aI3
aI1
aI4
aI0
aI0
aI0
aI1
aI4
aI6
aI4
aa(lp144
V0021000836
p145
aVFEB 17, 2011
p146
aVCHI vs. SAS
p147
aVW
p148
aI29
aI3
aI5
aF0.6
aI0
aI0
aF0.0
aI0
aI0
aF0.0
aI1
aI5
aI6
aI2
aI0
aI2
aI1
aI2
aI6
aI5
aa(lp149
V0021000819
p150
aVFEB 15, 2011
p151
aVCHI vs. CHA
p152
aVW
p153
aI23
aI2
aI6
aF0.333
aI0
aI0
aF0.0
aI7
aI10
aF0.7
aI1
aI2
aI3
aI1
aI3
aI2
aI0
aI2
aI11
aI0
aa(lp154
V0021000800
p155
aVFEB 12, 2011
p156
aVCHI @ NOH
p157
aVW
p158
aI17
aI3
aI4
aF0.75
aI0
aI0
aF0.0
aI0
aI0
aF0.0
aI0
aI2
aI2
aI0
aI0
aI1
aI2
aI5
aI6
aI15
aa(lp159
V0021000780
p160
aVFEB 09, 2011
p161
aVCHI @ UTA
p162
aVW
p163
aI14
aI2
aI7
aF0.286
aI0
aI1
aF0.0
aI0
aI0
aF0.0
aI2
aI3
aI5
aI0
aI1
aI1
aI0
aI3
aI4
aI7
aa(lp164
V0021000763
p165
aVFEB 07, 2011
p166
aVCHI @ POR
p167
aVL
p168
aI27
aI1
aI3
aF0.333
aI0
aI0
aF0.0
aI0
aI0
aF0.0
aI3
aI4
aI7
aI0
aI0
aI0
aI1
aI4
aI2
aI2
aa(lp169
V0021000753
p170
aVFEB 05, 2011
p171
aVCHI @ GSW
p172
aVL
p173
aI21
aI3
aI4
aF0.75
aI0
aI0
aF0.0
aI2
aI4
aF0.5
aI4
aI4
aI8
aI2
aI0
aI0
aI0
aI1
aI8
aI-12
aa(lp174
V0021000729
p175
aVFEB 02, 2011
p176
aVCHI @ LAC
p177
aVW
p178
aI34
aI4
aI8
aF0.5
aI0
aI0
aF0.0
aI1
aI3
aF0.333
aI5
aI7
aI12
aI2
aI1
aI2
aI0
aI2
aI9
aI10
aa(lp179
V0021000693
p180
aVJAN 29, 2011
p181
aVCHI vs. IND
p182
aVW
p183
aI18
aI1
aI2
aF0.5
aI0
aI0
aF0.0
aI2
aI2
aF1.0
aI2
aI5
aI7
aI0
aI0
aI4
aI0
aI2
aI4
aI13
aa(lp184
V0021000687
p185
aVJAN 28, 2011
p186
aVCHI vs. ORL
p187
aVW
p188
aI17
aI3
aI4
aF0.75
aI0
aI0
aF0.0
aI1
aI2
aF0.5
aI1
aI4
aI5
aI1
aI2
aI1
aI0
aI2
aI7
aI5
aa(lp189
V0021000658
p190
aVJAN 24, 2011
p191
aVCHI vs. MIL
p192
aVW
p193
aI19
aI3
aI5
aF0.6
aI0
aI0
aF0.0
aI0
aI0
aF0.0
aI2
aI5
aI7
aI0
aI0
aI0
aI1
aI1
aI6
aI7
aa(lp194
V0021000645
p195
aVJAN 22, 2011
p196
aVCHI vs. CLE
p197
aVW
p198
aI15
aI1
aI6
aF0.167
aI0
aI0
aF0.0
aI0
aI0
aF0.0
aI1
aI1
aI2
aI0
aI0
aI1
aI0
aI4
aI2
aI2
aa(lp199
V0021000627
p200
aVJAN 20, 2011
p201
aVCHI vs. DAL
p202
aVW
p203
aI20
aI2
aI7
aF0.286
aI0
aI0
aF0.0
aI0
aI0
aF0.0
aI3
aI3
aI6
aI0
aI1
aI0
aI1
aI5
aI4
aI-5
aa(lp204
V0021000612
p205
aVJAN 18, 2011
p206
aVCHI vs. CHA
p207
aVL
p208
aI47
aI2
aI7
aF0.286
aI0
aI0
aF0.0
aI5
aI6
aF0.833
aI4
aI5
aI9
aI0
aI0
aI6
aI0
aI1
aI9
aI-3
aa(lp209
V0021000600
p210
aVJAN 17, 2011
p211
aVCHI @ MEM
p212
aVW
p213
aI43
aI5
aI11
aF0.455
aI0
aI0
aF0.0
aI0
aI0
aF0.0
aI2
aI5
aI7
aI1
aI1
aI6
aI2
aI5
aI10
aI16
aa(lp214
V0021000591
p215
aVJAN 15, 2011
p216
aVCHI vs. MIA
p217
aVW
p218
aI16
aI1
aI3
aF0.333
aI0
aI0
aF0.0
aI0
aI2
aF0.0
aI1
aI2
aI3
aI2
aI1
aI1
aI1
aI4
aI2
aI-7
aa(lp219
V0021000576
p220
aVJAN 14, 2011
p221
aVCHI @ IND
p222
aVW
p223
aI15
aI4
aI6
aF0.667
aI0
aI0
aF0.0
aI1
aI1
aF1.0
aI2
aI3
aI5
aI0
aI0
aI2
aI0
aI3
aI9
aI17
aa(lp224
V0021000561
p225
aVJAN 12, 2011
p226
aVCHI @ CHA
p227
aVL
p228
aI18
aI1
aI6
aF0.167
aI0
aI0
aF0.0
aI2
aI4
aF0.5
aI0
aI3
aI3
aI0
aI0
aI1
aI1
aI5
aI4
aI3
aa(lp229
V0021000553
p230
aVJAN 10, 2011
p231
aVCHI vs. DET
p232
aVW
p233
aI26
aI3
aI10
aF0.3
aI0
aI0
aF0.0
aI2
aI2
aF1.0
aI2
aI3
aI5
aI0
aI0
aI2
aI0
aI2
aI8
aI3
aa(lp234
V0021000540
p235
aVJAN 08, 2011
p236
aVCHI vs. BOS
p237
aVW
p238
aI20
aI0
aI4
aF0.0
aI0
aI0
aF0.0
aI0
aI0
aF0.0
aI1
aI3
aI4
aI0
aI0
aI4
aI0
aI1
aI0
aI14
aa(lp239
V0021000526
p240
aVJAN 07, 2011
p241
aVCHI @ PHI
p242
aVL
p243
aI22
aI3
aI5
aF0.6
aI0
aI1
aF0.0
aI1
aI2
aF0.5
aI2
aI3
aI5
aI1
aI0
aI2
aI1
aI5
aI7
aI-1
aa(lp244
V0021000513
p245
aVJAN 05, 2011
p246
aVCHI @ NJN
p247
aVL
p248
aI11
aI2
aI7
aF0.286
aI0
aI1
aF0.0
aI2
aI2
aF1.0
aI1
aI1
aI2
aI0
aI0
aI0
aI0
aI0
aI6
aI0
aa(lp249
V0021000507
p250
aVJAN 04, 2011
p251
aVCHI vs. TOR
p252
aVW
p253
aI25
aI8
aI11
aF0.727
aI0
aI0
aF0.0
aI0
aI2
aF0.0
aI6
aI8
aI14
aI0
aI0
aI0
aI0
aI5
aI16
aI19
aa(lp254
V0021000485
p255
aVJAN 01, 2011
p256
aVCHI vs. CLE
p257
aVW
p258
aI17
aI2
aI6
aF0.333
aI0
aI0
aF0.0
aI2
aI2
aF1.0
aI2
aI3
aI5
aI0
aI0
aI2
aI0
aI2
aI6
aI-4
aa(lp259
V0021000479
p260
aVDEC 31, 2010
p261
aVCHI vs. NJN
p262
aVW
p263
aI15
aI1
aI4
aF0.25
aI0
aI0
aF0.0
aI0
aI0
aF0.0
aI0
aI4
aI4
aI0
aI0
aI1
aI0
aI2
aI2
aI-3
aa(lp264
V0021000458
p265
aVDEC 28, 2010
p266
aVCHI vs. MIL
p267
aVW
p268
aI15
aI0
aI5
aF0.0
aI0
aI0
aF0.0
aI0
aI0
aF0.0
aI0
aI2
aI2
aI0
aI0
aI5
aI1
aI2
aI0
aI5
aa(lp269
V0021000440
p270
aVDEC 26, 2010
p271
aVCHI @ DET
p272
aVW
p273
aI30
aI2
aI8
aF0.25
aI0
aI0
aF0.0
aI1
aI2
aF0.5
aI3
aI6
aI9
aI0
aI0
aI2
aI0
aI1
aI5
aI-8
aa(lp274
V0021000433
p275
aVDEC 25, 2010
p276
aVCHI @ NYK
p277
aVL
p278
aI13
aI2
aI2
aF1.0
aI0
aI0
aF0.0
aI0
aI0
aF0.0
aI3
aI0
aI3
aI0
aI1
aI1
aI0
aI2
aI4
aI-2
aa(lp279
V0021000423
p280
aVDEC 22, 2010
p281
aVCHI @ WAS
p282
aVW
p283
aI1
aI0
aI0
aF0.0
aI0
aI0
aF0.0
aI0
aI0
aF0.0
aI0
aI0
aI0
aI0
aI0
aI0
aI0
aI0
aI0
aI0
aa(lp284
V0021000395
p285
aVDEC 18, 2010
p286
aVCHI vs. LAC
p287
aVL
p288
aI9
aI1
aI1
aF1.0
aI0
aI0
aF0.0
aI1
aI2
aF0.5
aI1
aI1
aI2
aI0
aI0
aI0
aI1
aI3
aI3
aI-8
aa(lp289
V0021000370
p290
aVDEC 15, 2010
p291
aVCHI @ TOR
p292
aVW
p293
aI31
aI3
aI11
aF0.273
aI0
aI1
aF0.0
aI0
aI0
aF0.0
aI3
aI3
aI6
aI1
aI1
aI4
aI2
aI1
aI6
aI0
aa(lp294
V0021000356
p295
aVDEC 13, 2010
p296
aVCHI vs. IND
p297
aVW
p298
aI22
aI3
aI5
aF0.6
aI0
aI0
aF0.0
aI2
aI2
aF1.0
aI0
aI2
aI2
aI1
aI0
aI1
aI1
aI1
aI8
aI4
aa(lp299
V0021000345
p300
aVDEC 11, 2010
p301
aVCHI vs. MIN
p302
aVW
p303
aI24
aI5
aI16
aF0.313
aI0
aI0
aF0.0
aI2
aI2
aF1.0
aI7
aI3
aI10
aI3
aI1
aI1
aI1
aI2
aI12
aI10
aa(lp304
V0021000333
p305
aVDEC 10, 2010
p306
aVCHI vs. LAL
p307
aVW
p308
aI13
aI0
aI4
aF0.0
aI0
aI0
aF0.0
aI0
aI0
aF0.0
aI0
aI5
aI5
aI0
aI1
aI0
aI3
aI2
aI0
aI-3
aa(lp309
V0021000317
p310
aVDEC 08, 2010
p311
aVCHI @ CLE
p312
aVW
p313
aI21
aI2
aI4
aF0.5
aI0
aI0
aF0.0
aI0
aI0
aF0.0
aI1
aI2
aI3
aI1
aI0
aI2
aI0
aI2
aI4
aI7
aa(lp314
V0021000305
p315
aVDEC 06, 2010
p316
aVCHI vs. OKC
p317
aVW
p318
aI26
aI2
aI5
aF0.4
aI0
aI1
aF0.0
aI0
aI2
aF0.0
aI1
aI5
aI6
aI0
aI1
aI2
aI1
aI2
aI4
aI0
aa(lp319
V0021000290
p320
aVDEC 04, 2010
p321
aVCHI vs. HOU
p322
aVW
p323
aI24
aI2
aI6
aF0.333
aI0
aI0
aF0.0
aI4
aI4
aF1.0
aI2
aI5
aI7
aI2
aI1
aI2
aI2
aI3
aI8
aI2
aa(lp324
V0021000280
p325
aVDEC 03, 2010
p326
aVCHI @ BOS
p327
aVL
p328
aI26
aI3
aI8
aF0.375
aI0
aI0
aF0.0
aI4
aI4
aF1.0
aI4
aI4
aI8
aI1
aI0
aI0
aI3
aI2
aI10
aI11
aa(lp329
V0021000266
p330
aVDEC 01, 2010
p331
aVCHI vs. ORL
p332
aVL
p333
aI23
aI5
aI8
aF0.625
aI0
aI0
aF0.0
aI0
aI0
aF0.0
aI2
aI2
aI4
aI0
aI0
aI1
aI1
aI3
aI10
aI-11
aa(lp334
V0021000241
p335
aVNOV 27, 2010
p336
aVCHI @ SAC
p337
aVW
p338
aI19
aI4
aI9
aF0.444
aI0
aI1
aF0.0
aI1
aI2
aF0.5
aI0
aI4
aI4
aI0
aI1
aI0
aI1
aI5
aI9
aI-9
aa(lp339
V0021000229
p340
aVNOV 26, 2010
p341
aVCHI @ DEN
p342
aVL
p343
aI12
aI0
aI3
aF0.0
aI0
aI0
aF0.0
aI0
aI0
aF0.0
aI0
aI0
aI0
aI1
aI0
aI1
aI1
aI1
aI0
aI-16
aa(lp344
V0021000208
p345
aVNOV 23, 2010
p346
aVCHI @ LAL
p347
aVL
p348
aI40
aI7
aI12
aF0.583
aI0
aI1
aF0.0
aI2
aI2
aF1.0
aI2
aI10
aI12
aI3
aI2
aI2
aI3
aI2
aI16
aI-6
aa(lp349
V0021000179
p350
aVNOV 19, 2010
p351
aVCHI @ DAL
p352
aVW
p353
aI29
aI7
aI12
aF0.583
aI1
aI1
aF1.0
aI2
aI4
aF0.5
aI8
aI10
aI18
aI1
aI0
aI1
aI1
aI6
aI17
aI-1
aa(lp354
V0021000166
p355
aVNOV 17, 2010
p356
aVCHI @ SAS
p357
aVL
p358
aI16
aI0
aI7
aF0.0
aI0
aI0
aF0.0
aI0
aI0
aF0.0
aI1
aI4
aI5
aI1
aI0
aI1
aI2
aI1
aI0
aI-9
aa(lp359
V0021000156
p360
aVNOV 16, 2010
p361
aVCHI @ HOU
p362
aVW
p363
aI29
aI1
aI9
aF0.111
aI0
aI0
aF0.0
aI0
aI0
aF0.0
aI2
aI4
aI6
aI1
aI1
aI1
aI1
aI3
aI2
aI-12
aa(lp364
V0021000134
p365
aVNOV 13, 2010
p366
aVCHI vs. WAS
p367
aVW
p368
aI26
aI4
aI8
aF0.5
aI0
aI0
aF0.0
aI1
aI2
aF0.5
aI5
aI2
aI7
aI1
aI2
aI5
aI0
aI3
aI9
aI8
aa(lp369
V0021000119
p370
aVNOV 11, 2010
p371
aVCHI vs. GSW
p372
aVW
p373
aI26
aI5
aI10
aF0.5
aI0
aI0
aF0.0
aI4
aI4
aF1.0
aI3
aI4
aI7
aI0
aI2
aI3
aI1
aI3
aI14
aI31
aa(lp374
V0021000098
p375
aVNOV 08, 2010
p376
aVCHI vs. DEN
p377
aVW
p378
aI34
aI7
aI12
aF0.583
aI0
aI0
aF0.0
aI2
aI4
aF0.5
aI3
aI3
aI6
aI3
aI1
aI5
aI5
aI4
aI16
aI12
aa(lp379
V0021000073
p380
aVNOV 05, 2010
p381
aVCHI @ BOS
p382
aVL
p383
aI40
aI9
aI14
aF0.643
aI0
aI0
aF0.0
aI0
aI0
aF0.0
aI0
aI7
aI7
aI2
aI0
aI0
aI1
aI2
aI18
aI-4
aa(lp384
V0021000066
p385
aVNOV 04, 2010
p386
aVCHI vs. NYK
p387
aVL
p388
aI34
aI6
aI10
aF0.6
aI0
aI0
aF0.0
aI6
aI8
aF0.75
aI4
aI6
aI10
aI2
aI1
aI2
aI2
aI2
aI18
aI11
aa(lp389
V0021000044
p390
aVNOV 01, 2010
p391
aVCHI vs. POR
p392
aVW
p393
aI22
aI6
aI9
aF0.667
aI0
aI0
aF0.0
aI0
aI0
aF0.0
aI2
aI1
aI3
aI1
aI0
aI0
aI1
aI5
aI12
aI2
aa(lp394
V0021000035
p395
aVOCT 30, 2010
p396
aVCHI vs. DET
p397
aVW
p398
aI18
aI5
aI8
aF0.625
aI0
aI0
aF0.0
aI1
aI2
aF0.5
aI0
aI0
aI0
aI0
aI0
aI0
aI0
aI6
aI11
aI0
aa(lp399
V0021000011
p400
aVOCT 27, 2010
p401
aVCHI @ OKC
p402
aVL
p403
aI34
aI8
aI12
aF0.667
aI0
aI0
aF0.0
aI0
aI2
aF0.0
aI2
aI9
aI11
aI2
aI2
aI0
aI2
aI4
aI16
aI-7
aasS'name'
p404
VTaj Gibson
p405
sS'experience'
p406
I1
s.