(dp0
S'stats'
p1
(lp2
(lp3
V0021000087
p4
aVNOV 06, 2010
p5
aVPOR vs. TOR
p6
aVW
p7
aI3
aI0
aI1
aF0.0
aI0
aI1
aF0.0
aI1
aI2
aF0.5
aI0
aI0
aI0
aI0
aI0
aI0
aI0
aI1
aI1
aI-10
aa(lp8
V0021000106
p9
aVNOV 09, 2010
p10
aVPOR vs. DET
p11
aVW
p12
aI2
aI0
aI1
aF0.0
aI0
aI0
aF0.0
aI0
aI0
aF0.0
aI0
aI0
aI0
aI1
aI0
aI0
aI1
aI1
aI0
aI-2
aa(lp13
V0021000136
p14
aVNOV 13, 2010
p15
aVPOR @ NOH
p16
aVL
p17
aI1
aI0
aI0
aF0.0
aI0
aI0
aF0.0
aI0
aI0
aF0.0
aI0
aI0
aI0
aI0
aI0
aI0
aI0
aI0
aI0
aI-5
aa(lp18
V0021000264
p19
aVDEC 01, 2010
p20
aVPOR @ BOS
p21
aVL
p22
aI8
aI0
aI1
aF0.0
aI0
aI0
aF0.0
aI0
aI0
aF0.0
aI0
aI1
aI1
aI2
aI0
aI0
aI0
aI2
aI0
aI-2
aa(lp23
V0021000277
p24
aVDEC 03, 2010
p25
aVPOR @ WAS
p26
aVL
p27
aI18
aI3
aI10
aF0.3
aI1
aI4
aF0.25
aI0
aI0
aF0.0
aI0
aI0
aI0
aI6
aI3
aI0
aI3
aI0
aI7
aI-3
aa(lp28
V0021000301
p29
aVDEC 05, 2010
p30
aVPOR vs. LAC
p31
aVW
p32
aI10
aI3
aI3
aF1.0
aI2
aI2
aF1.0
aI0
aI0
aF0.0
aI0
aI0
aI0
aI1
aI0
aI0
aI1
aI1
aI8
aI7
aa(lp33
V0021000314
p34
aVDEC 07, 2010
p35
aVPOR vs. PHX
p36
aVW
p37
aI29
aI4
aI9
aF0.444
aI0
aI4
aF0.0
aI1
aI1
aF1.0
aI2
aI1
aI3
aI7
aI0
aI0
aI2
aI4
aI9
aI0
aa(lp38
V0021000329
p39
aVDEC 09, 2010
p40
aVPOR vs. ORL
p41
aVW
p42
aI5
aI0
aI2
aF0.0
aI0
aI2
aF0.0
aI0
aI0
aF0.0
aI0
aI0
aI0
aI0
aI0
aI0
aI1
aI0
aI0
aI-8
aa(lp43
V0021000338
p44
aVDEC 10, 2010
p45
aVPOR @ PHX
p46
aVW
p47
aI6
aI2
aI2
aF1.0
aI1
aI1
aF1.0
aI0
aI0
aF0.0
aI0
aI0
aI0
aI0
aI0
aI0
aI1
aI2
aI5
aI-2
aa(lp48
V0021000353
p49
aVDEC 12, 2010
p50
aVPOR @ SAS
p51
aVL
p52
aI8
aI0
aI0
aF0.0
aI0
aI0
aF0.0
aI0
aI0
aF0.0
aI0
aI1
aI1
aI1
aI0
aI0
aI2
aI1
aI0
aI-3
aa(lp53
V0021000357
p54
aVDEC 13, 2010
p55
aVPOR @ MEM
p56
aVL
p57
aI4
aI1
aI1
aF1.0
aI1
aI1
aF1.0
aI1
aI2
aF0.5
aI0
aI0
aI0
aI1
aI0
aI0
aI1
aI1
aI4
aI-4
aa(lp58
V0021000377
p59
aVDEC 15, 2010
p60
aVPOR @ DAL
p61
aVL
p62
aI13
aI2
aI7
aF0.286
aI0
aI3
aF0.0
aI0
aI0
aF0.0
aI0
aI1
aI1
aI3
aI0
aI0
aI0
aI0
aI4
aI7
aa(lp63
V0021000391
p64
aVDEC 17, 2010
p65
aVPOR vs. MIN
p66
aVW
p67
aI24
aI3
aI6
aF0.5
aI0
aI2
aF0.0
aI2
aI2
aF1.0
aI1
aI1
aI2
aI4
aI2
aI0
aI3
aI1
aI8
aI7
aa(lp68
V0021000399
p69
aVDEC 18, 2010
p70
aVPOR vs. GSW
p71
aVW
p72
aI20
aI4
aI10
aF0.4
aI2
aI5
aF0.4
aI2
aI4
aF0.5
aI2
aI0
aI2
aI4
aI1
aI0
aI2
aI2
aI12
aI-10
aa(lp73
V0021000412
p74
aVDEC 20, 2010
p75
aVPOR vs. MIL
p76
aVW
p77
aI18
aI3
aI7
aF0.429
aI2
aI4
aF0.5
aI0
aI0
aF0.0
aI1
aI1
aI2
aI3
aI1
aI0
aI2
aI0
aI8
aI-2
aa(lp78
V0021000437
p79
aVDEC 25, 2010
p80
aVPOR @ GSW
p81
aVL
p82
aI14
aI3
aI7
aF0.429
aI1
aI2
aF0.5
aI0
aI0
aF0.0
aI0
aI0
aI0
aI1
aI0
aI0
aI1
aI1
aI7
aI7
aa(lp83
V0021000452
p84
aVDEC 27, 2010
p85
aVPOR @ UTA
p86
aVW
p87
aI15
aI2
aI4
aF0.5
aI2
aI3
aF0.667
aI0
aI0
aF0.0
aI0
aI1
aI1
aI2
aI0
aI0
aI2
aI3
aI6
aI-6
aa(lp88
V0021000461
p89
aVDEC 28, 2010
p90
aVPOR @ DEN
p91
aVL
p92
aI17
aI1
aI4
aF0.25
aI0
aI2
aF0.0
aI0
aI0
aF0.0
aI0
aI2
aI2
aI2
aI1
aI1
aI1
aI2
aI2
aI4
aa(lp93
V0021000475
p94
aVDEC 30, 2010
p95
aVPOR vs. UTA
p96
aVW
p97
aI15
aI1
aI7
aF0.143
aI0
aI2
aF0.0
aI0
aI0
aF0.0
aI0
aI1
aI1
aI2
aI0
aI0
aI0
aI1
aI2
aI-14
aa(lp98
V0021000496
p99
aVJAN 02, 2011
p100
aVPOR vs. HOU
p101
aVW
p102
aI23
aI6
aI12
aF0.5
aI2
aI4
aF0.5
aI0
aI0
aF0.0
aI1
aI1
aI2
aI5
aI5
aI0
aI4
aI3
aI14
aI2
aa(lp103
V0021000509
p104
aVJAN 04, 2011
p105
aVPOR @ DAL
p106
aVL
p107
aI21
aI4
aI7
aF0.571
aI1
aI2
aF0.5
aI0
aI0
aF0.0
aI0
aI0
aI0
aI4
aI0
aI0
aI1
aI4
aI9
aI-7
aa(lp108
V0021000519
p109
aVJAN 05, 2011
p110
aVPOR @ HOU
p111
aVW
p112
aI28
aI5
aI9
aF0.556
aI4
aI7
aF0.571
aI0
aI0
aF0.0
aI0
aI0
aI0
aI3
aI1
aI0
aI1
aI1
aI14
aI10
aa(lp113
V0021000531
p114
aVJAN 07, 2011
p115
aVPOR @ MIN
p116
aVW
p117
aI17
aI4
aI9
aF0.444
aI0
aI3
aF0.0
aI2
aI2
aF1.0
aI1
aI2
aI3
aI1
aI0
aI0
aI0
aI1
aI10
aI4
aa(lp118
V0021000549
p119
aVJAN 09, 2011
p120
aVPOR vs. MIA
p121
aVL
p122
aI23
aI5
aI10
aF0.5
aI1
aI5
aF0.2
aI2
aI2
aF1.0
aI0
aI1
aI1
aI2
aI0
aI0
aI0
aI0
aI13
aI-5
aa(lp123
V0021000559
p124
aVJAN 11, 2011
p125
aVPOR vs. NYK
p126
aVL
p127
aI15
aI3
aI9
aF0.333
aI0
aI4
aF0.0
aI3
aI4
aF0.75
aI0
aI0
aI0
aI0
aI0
aI0
aI1
aI0
aI9
aI-2
aa(lp128
V0021000584
p129
aVJAN 14, 2011
p130
aVPOR @ PHX
p131
aVL
p132
aI15
aI3
aI6
aF0.5
aI0
aI0
aF0.0
aI2
aI2
aF1.0
aI1
aI1
aI2
aI2
aI0
aI0
aI1
aI2
aI8
aI3
aa(lp133
V0021000595
p134
aVJAN 15, 2011
p135
aVPOR vs. NJN
p136
aVW
p137
aI13
aI2
aI7
aF0.286
aI1
aI2
aF0.5
aI4
aI4
aF1.0
aI0
aI0
aI0
aI0
aI0
aI0
aI1
aI0
aI9
aI-5
aa(lp138
V0021000609
p139
aVJAN 17, 2011
p140
aVPOR vs. MIN
p141
aVW
p142
aI12
aI2
aI5
aF0.4
aI1
aI3
aF0.333
aI0
aI0
aF0.0
aI2
aI1
aI3
aI1
aI0
aI0
aI2
aI0
aI5
aI-6
aa(lp143
V0021000623
p144
aVJAN 19, 2011
p145
aVPOR @ SAC
p146
aVW
p147
aI11
aI1
aI4
aF0.25
aI0
aI0
aF0.0
aI2
aI2
aF1.0
aI0
aI0
aI0
aI3
aI0
aI0
aI1
aI0
aI4
aI0
aa(lp148
V0021000628
p149
aVJAN 20, 2011
p150
aVPOR vs. LAC
p151
aVW
p152
aI12
aI1
aI3
aF0.333
aI0
aI1
aF0.0
aI1
aI2
aF0.5
aI0
aI0
aI0
aI2
aI0
aI0
aI2
aI1
aI3
aI6
aa(lp153
V0021000650
p154
aVJAN 22, 2011
p155
aVPOR vs. IND
p156
aVW
p157
aI14
aI1
aI6
aF0.167
aI1
aI4
aF0.25
aI0
aI0
aF0.0
aI0
aI0
aI0
aI4
aI2
aI0
aI1
aI0
aI3
aI8
aa(lp158
V0021000661
p159
aVJAN 24, 2011
p160
aVPOR vs. SAC
p161
aVL
p162
aI11
aI2
aI5
aF0.4
aI1
aI1
aF1.0
aI0
aI0
aF0.0
aI1
aI0
aI1
aI1
aI1
aI0
aI0
aI0
aI5
aI-12
aa(lp163
V0021000680
p164
aVJAN 27, 2011
p165
aVPOR vs. BOS
p166
aVL
p167
aI14
aI3
aI10
aF0.3
aI0
aI3
aF0.0
aI1
aI2
aF0.5
aI1
aI2
aI3
aI1
aI1
aI0
aI1
aI1
aI7
aI1
aa(lp168
V0021000716
p169
aVFEB 01, 2011
p170
aVPOR vs. SAS
p171
aVW
p172
aI12
aI2
aI5
aF0.4
aI0
aI2
aF0.0
aI0
aI0
aF0.0
aI0
aI2
aI2
aI3
aI0
aI0
aI2
aI1
aI4
aI0
aa(lp173
V0021000726
p174
aVFEB 02, 2011
p175
aVPOR @ DEN
p176
aVL
p177
aI12
aI2
aI7
aF0.286
aI1
aI1
aF1.0
aI0
aI0
aF0.0
aI0
aI1
aI1
aI1
aI1
aI0
aI1
aI1
aI5
aI-6
aa(lp178
V0021000734
p179
aVFEB 04, 2011
p180
aVPOR @ IND
p181
aVL
p182
aI14
aI2
aI10
aF0.2
aI0
aI3
aF0.0
aI2
aI2
aF1.0
aI1
aI1
aI2
aI3
aI1
aI0
aI4
aI0
aI6
aI0
aa(lp183
V0021000747
p184
aVFEB 05, 2011
p185
aVPOR @ CLE
p186
aVW
p187
aI15
aI3
aI7
aF0.429
aI0
aI1
aF0.0
aI1
aI1
aF1.0
aI0
aI1
aI1
aI4
aI0
aI0
aI0
aI3
aI7
aI-4
aa(lp188
V0021000763
p189
aVFEB 07, 2011
p190
aVPOR vs. CHI
p191
aVW
p192
aI6
aI1
aI2
aF0.5
aI0
aI1
aF0.0
aI0
aI0
aF0.0
aI0
aI1
aI1
aI1
aI0
aI0
aI0
aI0
aI2
aI-4
aa(lp193
V0021000790
p194
aVFEB 11, 2011
p195
aVPOR @ TOR
p196
aVW
p197
aI12
aI3
aI6
aF0.5
aI0
aI1
aF0.0
aI1
aI1
aF1.0
aI0
aI2
aI2
aI3
aI1
aI0
aI0
aI1
aI7
aI5
aa(lp198
V0021000807
p199
aVFEB 13, 2011
p200
aVPOR @ DET
p201
aVW
p202
aI9
aI3
aI5
aF0.6
aI1
aI1
aF1.0
aI2
aI2
aF1.0
aI0
aI0
aI0
aI1
aI0
aI0
aI1
aI0
aI9
aI-8
aa(lp203
V0021000816
p204
aVFEB 14, 2011
p205
aVPOR @ MIN
p206
aVW
p207
aI12
aI1
aI4
aF0.25
aI0
aI1
aF0.0
aI0
aI0
aF0.0
aI0
aI0
aI0
aI3
aI0
aI0
aI2
aI1
aI2
aI2
aa(lp208
V0021000835
p209
aVFEB 16, 2011
p210
aVPOR vs. NOH
p211
aVW
p212
aI7
aI1
aI1
aF1.0
aI0
aI0
aF0.0
aI0
aI0
aF0.0
aI0
aI0
aI0
aI1
aI0
aI0
aI1
aI0
aI2
aI-4
aa(lp213
V0021000872
p214
aVFEB 25, 2011
p215
aVPOR vs. DEN
p216
aVW
p217
aI8
aI2
aI3
aF0.667
aI1
aI1
aF1.0
aI0
aI0
aF0.0
aI0
aI0
aI0
aI0
aI0
aI0
aI2
aI0
aI5
aI-6
aa(lp218
V0021000888
p219
aVFEB 27, 2011
p220
aVPOR vs. ATL
p221
aVL
p222
aI4
aI1
aI2
aF0.5
aI1
aI1
aF1.0
aI0
aI0
aF0.0
aI1
aI0
aI1
aI0
aI0
aI0
aI0
aI0
aI3
aI1
aa(lp223
V0021000901
p224
aVMAR 01, 2011
p225
aVPOR vs. HOU
p226
aVL
p227
aI12
aI4
aI8
aF0.5
aI0
aI2
aF0.0
aI0
aI0
aF0.0
aI0
aI0
aI0
aI0
aI0
aI0
aI0
aI1
aI8
aI1
aa(lp228
V0021000910
p229
aVMAR 02, 2011
p230
aVPOR @ SAC
p231
aVW
p232
aI14
aI6
aI8
aF0.75
aI1
aI1
aF1.0
aI1
aI2
aF0.5
aI0
aI0
aI0
aI3
aI1
aI0
aI0
aI1
aI14
aI2
aa(lp233
V0021000929
p234
aVMAR 05, 2011
p235
aVPOR vs. CHA
p236
aVW
p237
aI18
aI4
aI9
aF0.444
aI4
aI7
aF0.571
aI0
aI0
aF0.0
aI0
aI0
aI0
aI1
aI0
aI0
aI2
aI3
aI12
aI11
aa(lp238
V0021000941
p239
aVMAR 07, 2011
p240
aVPOR @ ORL
p241
aVW
p242
aI14
aI2
aI7
aF0.286
aI1
aI4
aF0.25
aI0
aI0
aF0.0
aI1
aI0
aI1
aI2
aI0
aI0
aI0
aI2
aI5
aI0
aa(lp243
V0021000951
p244
aVMAR 08, 2011
p245
aVPOR @ MIA
p246
aVW
p247
aI15
aI1
aI5
aF0.2
aI0
aI2
aF0.0
aI0
aI0
aF0.0
aI0
aI1
aI1
aI4
aI1
aI0
aI0
aI0
aI2
aI1
aa(lp248
V0021000967
p249
aVMAR 11, 2011
p250
aVPOR @ CHA
p251
aVL
p252
aI14
aI2
aI4
aF0.5
aI1
aI2
aF0.5
aI0
aI2
aF0.0
aI0
aI0
aI0
aI2
aI0
aI0
aI0
aI1
aI5
aI-8
aa(lp253
V0021000977
p254
aVMAR 12, 2011
p255
aVPOR @ ATL
p256
aVL
p257
aI9
aI0
aI3
aF0.0
aI0
aI1
aF0.0
aI0
aI0
aF0.0
aI0
aI0
aI0
aI1
aI0
aI0
aI1
aI0
aI0
aI-7
aa(lp258
V0021001002
p259
aVMAR 15, 2011
p260
aVPOR vs. DAL
p261
aVW
p262
aI5
aI0
aI1
aF0.0
aI0
aI1
aF0.0
aI0
aI0
aF0.0
aI0
aI0
aI0
aI1
aI1
aI0
aI1
aI1
aI0
aI-6
aa(lp263
V0021001016
p264
aVMAR 17, 2011
p265
aVPOR vs. CLE
p266
aVW
p267
aI18
aI4
aI9
aF0.444
aI3
aI6
aF0.5
aI0
aI0
aF0.0
aI0
aI0
aI0
aI0
aI0
aI0
aI2
aI1
aI11
aI-2
aa(lp268
V0021001034
p269
aVMAR 19, 2011
p270
aVPOR vs. PHI
p271
aVW
p272
aI6
aI1
aI3
aF0.333
aI0
aI1
aF0.0
aI0
aI0
aF0.0
aI0
aI0
aI0
aI0
aI0
aI0
aI1
aI2
aI2
aI1
aa(lp273
V0021001043
p274
aVMAR 20, 2011
p275
aVPOR @ LAL
p276
aVL
p277
aI6
aI0
aI0
aF0.0
aI0
aI0
aF0.0
aI0
aI0
aF0.0
aI1
aI1
aI2
aI0
aI0
aI0
aI1
aI1
aI0
aI-3
aa(lp278
V0021001052
p279
aVMAR 22, 2011
p280
aVPOR vs. WAS
p281
aVW
p282
aI5
aI0
aI1
aF0.0
aI0
aI0
aF0.0
aI0
aI0
aF0.0
aI0
aI0
aI0
aI0
aI0
aI0
aI0
aI0
aI0
aI-1
aa(lp283
V0021001099
p284
aVMAR 28, 2011
p285
aVPOR @ SAS
p286
aVW
p287
aI5
aI1
aI1
aF1.0
aI1
aI1
aF1.0
aI0
aI0
aF0.0
aI0
aI0
aI0
aI1
aI0
aI0
aI0
aI0
aI3
aI1
aa(lp288
V0021001114
p289
aVMAR 30, 2011
p290
aVPOR @ NOH
p291
aVL
p292
aI11
aI5
aI5
aF1.0
aI3
aI3
aF1.0
aI0
aI0
aF0.0
aI0
aI0
aI0
aI1
aI1
aI0
aI2
aI3
aI13
aI14
aa(lp293
V0021001148
p294
aVAPR 03, 2011
p295
aVPOR vs. DAL
p296
aVW
p297
aI1
aI0
aI1
aF0.0
aI0
aI0
aF0.0
aI0
aI0
aF0.0
aI0
aI0
aI0
aI0
aI0
aI0
aI0
aI0
aI0
aI-4
aa(lp298
V0021001160
p299
aVAPR 05, 2011
p300
aVPOR vs. GSW
p301
aVL
p302
aI8
aI1
aI3
aF0.333
aI1
aI2
aF0.5
aI0
aI0
aF0.0
aI0
aI1
aI1
aI0
aI0
aI0
aI0
aI1
aI3
aI-12
aa(lp303
V0021001175
p304
aVAPR 07, 2011
p305
aVPOR @ UTA
p306
aVW
p307
aI6
aI0
aI0
aF0.0
aI0
aI0
aF0.0
aI0
aI0
aF0.0
aI0
aI0
aI0
aI2
aI0
aI0
aI0
aI0
aI0
aI-2
aa(lp308
V0021001187
p309
aVAPR 08, 2011
p310
aVPOR vs. LAL
p311
aVW
p312
aI9
aI1
aI6
aF0.167
aI0
aI3
aF0.0
aI0
aI0
aF0.0
aI0
aI0
aI0
aI0
aI0
aI0
aI0
aI1
aI2
aI-16
aa(lp313
V0021001214
p314
aVAPR 12, 2011
p315
aVPOR vs. MEM
p316
aVW
p317
aI6
aI1
aI2
aF0.5
aI0
aI0
aF0.0
aI0
aI0
aF0.0
aI0
aI0
aI0
aI0
aI0
aI0
aI0
aI0
aI2
aI2
aa(lp318
V0021001227
p319
aVAPR 13, 2011
p320
aVPOR @ GSW
p321
aVL
p322
aI29
aI7
aI16
aF0.438
aI4
aI7
aF0.571
aI5
aI6
aF0.833
aI2
aI3
aI5
aI2
aI2
aI0
aI0
aI2
aI23
aI-7
aasS'name'
p323
VPatty Mills
p324
sS'weight'
p325
V185
p326
sS'age'
p327
I22
sS'experience'
p328
I1
sS'height'
p329
V6-0
p330
sS'position'
p331
VGuard
p332
s.