(dp0
S'stats'
p1
(lp2
(lp3
V0021000012
p4
aVOCT 27, 2010
p5
aVCHA @ DAL
p6
aVL
p7
aI16
aI1
aI3
aF0.333
aI0
aI1
aF0.0
aI0
aI0
aF0.0
aI0
aI4
aI4
aI1
aI0
aI2
aI2
aI2
aI2
aI14
aa(lp8
V0021000019
p9
aVOCT 29, 2010
p10
aVCHA vs. IND
p11
aVL
p12
aI15
aI3
aI3
aF1.0
aI0
aI0
aF0.0
aI0
aI0
aF0.0
aI0
aI1
aI1
aI0
aI1
aI0
aI0
aI1
aI6
aI5
aa(lp13
V0021000038
p14
aVOCT 30, 2010
p15
aVCHA @ MIL
p16
aVL
p17
aI14
aI1
aI3
aF0.333
aI0
aI1
aF0.0
aI0
aI0
aF0.0
aI0
aI1
aI1
aI0
aI0
aI0
aI0
aI2
aI2
aI10
aa(lp18
V0021000055
p19
aVNOV 03, 2010
p20
aVCHA @ NJN
p21
aVW
p22
aI13
aI1
aI4
aF0.25
aI0
aI0
aF0.0
aI0
aI0
aF0.0
aI1
aI0
aI1
aI0
aI0
aI0
aI1
aI2
aI2
aI-6
aa(lp23
V0021000071
p24
aVNOV 05, 2010
p25
aVCHA @ DET
p26
aVL
p27
aI7
aI0
aI1
aF0.0
aI0
aI0
aF0.0
aI0
aI0
aF0.0
aI0
aI0
aI0
aI0
aI0
aI0
aI0
aI1
aI0
aI-4
aa(lp28
V0021000080
p29
aVNOV 06, 2010
p30
aVCHA vs. ORL
p31
aVL
p32
aI11
aI2
aI2
aF1.0
aI0
aI0
aF0.0
aI0
aI0
aF0.0
aI0
aI3
aI3
aI1
aI0
aI1
aI1
aI0
aI4
aI4
aa(lp33
V0021000095
p34
aVNOV 08, 2010
p35
aVCHA vs. SAS
p36
aVL
p37
aI21
aI3
aI7
aF0.429
aI0
aI1
aF0.0
aI2
aI2
aF1.0
aI2
aI1
aI3
aI3
aI0
aI0
aI1
aI1
aI8
aI6
aa(lp38
V0021000110
p39
aVNOV 10, 2010
p40
aVCHA @ TOR
p41
aVW
p42
aI19
aI3
aI5
aF0.6
aI0
aI0
aF0.0
aI4
aI6
aF0.667
aI1
aI4
aI5
aI0
aI1
aI0
aI0
aI1
aI10
aI-6
aa(lp43
V0021000124
p44
aVNOV 12, 2010
p45
aVCHA @ WAS
p46
aVW
p47
aI3
aI0
aI2
aF0.0
aI0
aI0
aF0.0
aI0
aI0
aF0.0
aI0
aI0
aI0
aI0
aI0
aI0
aI0
aI0
aI0
aI-2
aa(lp48
V0021000360
p49
aVDEC 14, 2010
p50
aVCHA vs. TOR
p51
aVW
p52
aI3
aI0
aI1
aF0.0
aI0
aI0
aF0.0
aI0
aI0
aF0.0
aI0
aI0
aI0
aI0
aI0
aI0
aI1
aI0
aI0
aI-3
aa(lp53
V0021000372
p54
aVDEC 15, 2010
p55
aVCHA @ MEM
p56
aVL
p57
aI10
aI0
aI2
aF0.0
aI0
aI0
aF0.0
aI1
aI2
aF0.5
aI0
aI0
aI0
aI1
aI1
aI0
aI0
aI0
aI1
aI-14
aa(lp58
V0021000385
p59
aVDEC 17, 2010
p60
aVCHA @ ATL
p61
aVL
p62
aI6
aI0
aI1
aF0.0
aI0
aI0
aF0.0
aI0
aI0
aF0.0
aI0
aI0
aI0
aI2
aI0
aI0
aI0
aI2
aI0
aI-3
aa(lp63
V0021000409
p64
aVDEC 20, 2010
p65
aVCHA @ WAS
p66
aVL
p67
aI15
aI1
aI3
aF0.333
aI0
aI0
aF0.0
aI0
aI2
aF0.0
aI1
aI0
aI1
aI2
aI1
aI0
aI4
aI2
aI2
aI-5
aa(lp68
V0021000415
p69
aVDEC 21, 2010
p70
aVCHA vs. OKC
p71
aVL
p72
aI10
aI0
aI3
aF0.0
aI0
aI1
aF0.0
aI0
aI0
aF0.0
aI0
aI2
aI2
aI0
aI0
aI1
aI0
aI2
aI0
aI-4
aa(lp73
V0021000445
p74
aVDEC 27, 2010
p75
aVCHA vs. DET
p76
aVW
p77
aI29
aI1
aI6
aF0.167
aI0
aI0
aF0.0
aI1
aI2
aF0.5
aI0
aI3
aI3
aI1
aI0
aI0
aI2
aI3
aI3
aI-7
aa(lp78
V0021000463
p79
aVDEC 29, 2010
p80
aVCHA vs. CLE
p81
aVW
p82
aI4
aI1
aI2
aF0.5
aI0
aI0
aF0.0
aI0
aI0
aF0.0
aI1
aI0
aI1
aI0
aI0
aI0
aI0
aI0
aI2
aI-4
aa(lp83
V0021000477
p84
aVDEC 31, 2010
p85
aVCHA vs. GSW
p86
aVL
p87
aI22
aI5
aI6
aF0.833
aI0
aI0
aF0.0
aI0
aI0
aF0.0
aI2
aI4
aI6
aI0
aI1
aI1
aI0
aI0
aI10
aI9
aa(lp88
V0021000499
p89
aVJAN 03, 2011
p90
aVCHA vs. MIA
p91
aVL
p92
aI22
aI3
aI9
aF0.333
aI0
aI0
aF0.0
aI0
aI0
aF0.0
aI0
aI2
aI2
aI0
aI2
aI1
aI0
aI2
aI6
aI-20
aa(lp93
V0021000517
p94
aVJAN 05, 2011
p95
aVCHA @ MIN
p96
aVW
p97
aI33
aI3
aI7
aF0.429
aI0
aI0
aF0.0
aI1
aI2
aF0.5
aI2
aI3
aI5
aI3
aI1
aI0
aI0
aI3
aI7
aI0
aa(lp98
V0021000537
p99
aVJAN 08, 2011
p100
aVCHA vs. WAS
p101
aVW
p102
aI40
aI8
aI11
aF0.727
aI0
aI1
aF0.0
aI3
aI4
aF0.75
aI1
aI8
aI9
aI2
aI0
aI3
aI1
aI1
aI19
aI18
aa(lp103
V0021000551
p104
aVJAN 10, 2011
p105
aVCHA vs. MEM
p106
aVW
p107
aI32
aI3
aI9
aF0.333
aI0
aI0
aF0.0
aI3
aI5
aF0.6
aI0
aI1
aI1
aI2
aI1
aI1
aI0
aI1
aI9
aI3
aa(lp108
V0021000561
p109
aVJAN 12, 2011
p110
aVCHA vs. CHI
p111
aVW
p112
aI10
aI1
aI3
aF0.333
aI0
aI0
aF0.0
aI0
aI0
aF0.0
aI0
aI0
aI0
aI0
aI0
aI0
aI0
aI1
aI2
aI-10
aa(lp113
V0021000579
p114
aVJAN 14, 2011
p115
aVCHA @ BOS
p116
aVL
p117
aI14
aI1
aI3
aF0.333
aI0
aI1
aF0.0
aI0
aI0
aF0.0
aI0
aI1
aI1
aI2
aI1
aI0
aI1
aI2
aI2
aI10
aa(lp118
V0021000588
p119
aVJAN 15, 2011
p120
aVCHA vs. NOH
p121
aVL
p122
aI13
aI2
aI4
aF0.5
aI0
aI0
aF0.0
aI2
aI2
aF1.0
aI0
aI1
aI1
aI0
aI0
aI0
aI3
aI1
aI6
aI0
aa(lp123
V0021000601
p124
aVJAN 17, 2011
p125
aVCHA @ PHI
p126
aVL
p127
aI18
aI1
aI8
aF0.125
aI0
aI1
aF0.0
aI0
aI0
aF0.0
aI1
aI1
aI2
aI0
aI1
aI0
aI0
aI0
aI2
aI-14
aa(lp128
V0021000612
p129
aVJAN 18, 2011
p130
aVCHA @ CHI
p131
aVW
p132
aI24
aI3
aI9
aF0.333
aI0
aI0
aF0.0
aI2
aI2
aF1.0
aI0
aI2
aI2
aI0
aI1
aI0
aI0
aI0
aI8
aI-3
aa(lp133
V0021000626
p134
aVJAN 20, 2011
p135
aVCHA vs. PHI
p136
aVW
p137
aI19
aI5
aI8
aF0.625
aI0
aI0
aF0.0
aI1
aI2
aF0.5
aI0
aI4
aI4
aI2
aI0
aI0
aI0
aI3
aI11
aI0
aa(lp138
V0021000639
p139
aVJAN 22, 2011
p140
aVCHA vs. ATL
p141
aVL
p142
aI18
aI4
aI7
aF0.571
aI0
aI0
aF0.0
aI0
aI0
aF0.0
aI1
aI1
aI2
aI1
aI0
aI0
aI0
aI3
aI8
aI-4
aa(lp143
V0021000666
p144
aVJAN 25, 2011
p145
aVCHA @ SAC
p146
aVW
p147
aI16
aI2
aI6
aF0.333
aI0
aI0
aF0.0
aI0
aI0
aF0.0
aI1
aI2
aI3
aI1
aI0
aI0
aI0
aI1
aI4
aI2
aa(lp148
V0021000675
p149
aVJAN 26, 2011
p150
aVCHA @ PHX
p151
aVW
p152
aI33
aI6
aI12
aF0.5
aI0
aI1
aF0.0
aI3
aI4
aF0.75
aI1
aI2
aI3
aI1
aI0
aI2
aI0
aI2
aI15
aI8
aa(lp153
V0021000691
p154
aVJAN 28, 2011
p155
aVCHA @ GSW
p156
aVW
p157
aI30
aI3
aI10
aF0.3
aI0
aI1
aF0.0
aI2
aI2
aF1.0
aI5
aI1
aI6
aI5
aI1
aI2
aI2
aI2
aI8
aI15
aa(lp158
V0021000700
p159
aVJAN 29, 2011
p160
aVCHA @ LAC
p161
aVL
p162
aI23
aI5
aI6
aF0.833
aI1
aI1
aF1.0
aI3
aI5
aF0.6
aI0
aI4
aI4
aI1
aI0
aI0
aI2
aI3
aI14
aI4
aa(lp163
V0021000713
p164
aVJAN 31, 2011
p165
aVCHA @ UTA
p166
aVL
p167
aI15
aI2
aI4
aF0.5
aI0
aI1
aF0.0
aI0
aI0
aF0.0
aI0
aI1
aI1
aI0
aI0
aI0
aI0
aI1
aI4
aI-10
aa(lp168
V0021000722
p169
aVFEB 02, 2011
p170
aVCHA @ DET
p171
aVW
p172
aI23
aI4
aI9
aF0.444
aI0
aI0
aF0.0
aI1
aI1
aF1.0
aI0
aI4
aI4
aI1
aI0
aI0
aI1
aI1
aI9
aI6
aa(lp173
V0021000733
p174
aVFEB 04, 2011
p175
aVCHA vs. MIA
p176
aVL
p177
aI29
aI6
aI10
aF0.6
aI0
aI1
aF0.0
aI2
aI4
aF0.5
aI1
aI1
aI2
aI1
aI1
aI3
aI2
aI3
aI14
aI-8
aa(lp178
V0021000745
p179
aVFEB 05, 2011
p180
aVCHA vs. DAL
p181
aVL
p182
aI16
aI1
aI2
aF0.5
aI0
aI0
aF0.0
aI0
aI0
aF0.0
aI0
aI2
aI2
aI0
aI0
aI0
aI0
aI1
aI2
aI-5
aa(lp183
V0021000758
p184
aVFEB 07, 2011
p185
aVCHA vs. BOS
p186
aVW
p187
aI35
aI5
aI13
aF0.385
aI0
aI1
aF0.0
aI5
aI5
aF1.0
aI0
aI4
aI4
aI2
aI0
aI1
aI1
aI1
aI15
aI9
aa(lp188
V0021000774
p189
aVFEB 09, 2011
p190
aVCHA @ IND
p191
aVL
p192
aI24
aI3
aI7
aF0.429
aI0
aI0
aF0.0
aI3
aI4
aF0.75
aI2
aI6
aI8
aI1
aI1
aI0
aI1
aI3
aI9
aI2
aa(lp193
V0021000786
p194
aVFEB 11, 2011
p195
aVCHA vs. NJN
p196
aVL
p197
aI17
aI3
aI5
aF0.6
aI0
aI0
aF0.0
aI5
aI8
aF0.625
aI0
aI5
aI5
aI0
aI1
aI0
aI0
aI1
aI11
aI2
aa(lp198
V0021000796
p199
aVFEB 12, 2011
p200
aVCHA @ ATL
p201
aVW
p202
aI11
aI1
aI4
aF0.25
aI0
aI0
aF0.0
aI1
aI2
aF0.5
aI1
aI2
aI3
aI0
aI0
aI0
aI1
aI0
aI3
aI-17
aa(lp203
V0021000812
p204
aVFEB 14, 2011
p205
aVCHA vs. LAL
p206
aVW
p207
aI29
aI6
aI9
aF0.667
aI1
aI2
aF0.5
aI5
aI5
aF1.0
aI0
aI4
aI4
aI4
aI0
aI0
aI0
aI1
aI18
aI22
aa(lp208
V0021000819
p209
aVFEB 15, 2011
p210
aVCHA @ CHI
p211
aVL
p212
aI26
aI6
aI9
aF0.667
aI0
aI0
aF0.0
aI10
aI12
aF0.833
aI1
aI4
aI5
aI2
aI1
aI0
aI3
aI2
aI22
aI0
aa(lp213
V0021000838
p214
aVFEB 22, 2011
p215
aVCHA vs. TOR
p216
aVW
p217
aI27
aI5
aI11
aF0.455
aI0
aI0
aF0.0
aI5
aI8
aF0.625
aI2
aI4
aI6
aI0
aI0
aI0
aI3
aI2
aI15
aI4
aa(lp218
V0021000861
p219
aVFEB 25, 2011
p220
aVCHA vs. SAC
p221
aVW
p222
aI33
aI8
aI17
aF0.471
aI0
aI0
aF0.0
aI5
aI6
aF0.833
aI2
aI2
aI4
aI1
aI0
aI2
aI1
aI2
aI21
aI2
aa(lp223
V0021000883
p224
aVFEB 27, 2011
p225
aVCHA @ ORL
p226
aVL
p227
aI32
aI2
aI13
aF0.154
aI0
aI2
aF0.0
aI0
aI0
aF0.0
aI1
aI3
aI4
aI2
aI4
aI0
aI0
aI1
aI4
aI-6
aa(lp228
V0021000909
p229
aVMAR 02, 2011
p230
aVCHA @ DEN
p231
aVL
p232
aI27
aI3
aI8
aF0.375
aI0
aI0
aF0.0
aI3
aI4
aF0.75
aI1
aI0
aI1
aI2
aI0
aI0
aI1
aI4
aI9
aI-21
aa(lp233
V0021000924
p234
aVMAR 04, 2011
p235
aVCHA @ LAL
p236
aVL
p237
aI28
aI3
aI11
aF0.273
aI0
aI0
aF0.0
aI1
aI1
aF1.0
aI0
aI3
aI3
aI1
aI1
aI1
aI1
aI3
aI7
aI-10
aa(lp238
V0021000929
p239
aVMAR 05, 2011
p240
aVCHA @ POR
p241
aVL
p242
aI34
aI8
aI13
aF0.615
aI0
aI1
aF0.0
aI0
aI0
aF0.0
aI0
aI2
aI2
aI0
aI0
aI0
aI3
aI1
aI16
aI-20
aa(lp243
V0021000940
p244
aVMAR 07, 2011
p245
aVCHA vs. LAC
p246
aVL
p247
aI38
aI10
aI18
aF0.556
aI0
aI0
aF0.0
aI0
aI0
aF0.0
aI0
aI3
aI3
aI4
aI2
aI1
aI1
aI1
aI20
aI1
aa(lp248
V0021000953
p249
aVMAR 09, 2011
p250
aVCHA vs. CHI
p251
aVL
p252
aI37
aI8
aI15
aF0.533
aI1
aI1
aF1.0
aI3
aI3
aF1.0
aI1
aI2
aI3
aI8
aI0
aI0
aI2
aI2
aI20
aI-12
aa(lp253
V0021000967
p254
aVMAR 11, 2011
p255
aVCHA vs. POR
p256
aVW
p257
aI34
aI4
aI12
aF0.333
aI0
aI1
aF0.0
aI4
aI4
aF1.0
aI0
aI2
aI2
aI1
aI3
aI0
aI2
aI2
aI12
aI-10
aa(lp258
V0021000986
p259
aVMAR 13, 2011
p260
aVCHA @ TOR
p261
aVW
p262
aI39
aI7
aI13
aF0.538
aI0
aI0
aF0.0
aI4
aI4
aF1.0
aI1
aI3
aI4
aI2
aI4
aI1
aI1
aI1
aI18
aI7
aa(lp263
V0021001009
p264
aVMAR 16, 2011
p265
aVCHA @ HOU
p266
aVL
p267
aI35
aI3
aI11
aF0.273
aI0
aI0
aF0.0
aI2
aI2
aF1.0
aI1
aI3
aI4
aI2
aI0
aI1
aI0
aI1
aI8
aI-10
aa(lp268
V0021001022
p269
aVMAR 18, 2011
p270
aVCHA @ OKC
p271
aVL
p272
aI30
aI2
aI7
aF0.286
aI0
aI0
aF0.0
aI0
aI1
aF0.0
aI0
aI0
aI0
aI1
aI2
aI0
aI3
aI4
aI4
aI-18
aa(lp273
V0021001033
p274
aVMAR 19, 2011
p275
aVCHA @ SAS
p276
aVL
p277
aI37
aI9
aI14
aF0.643
aI0
aI0
aF0.0
aI1
aI1
aF1.0
aI0
aI4
aI4
aI1
aI2
aI0
aI2
aI4
aI19
aI-7
aa(lp278
V0021001054
p279
aVMAR 23, 2011
p280
aVCHA vs. IND
p281
aVL
p282
aI37
aI4
aI14
aF0.286
aI0
aI1
aF0.0
aI4
aI4
aF1.0
aI0
aI1
aI1
aI1
aI2
aI1
aI1
aI3
aI12
aI-19
aa(lp283
V0021001070
p284
aVMAR 25, 2011
p285
aVCHA @ BOS
p286
aVW
p287
aI22
aI5
aI8
aF0.625
aI0
aI1
aF0.0
aI5
aI6
aF0.833
aI2
aI0
aI2
aI1
aI0
aI0
aI2
aI4
aI15
aI3
aa(lp288
V0021001082
p289
aVMAR 26, 2011
p290
aVCHA vs. NYK
p291
aVW
p292
aI32
aI4
aI9
aF0.444
aI0
aI0
aF0.0
aI5
aI5
aF1.0
aI1
aI3
aI4
aI1
aI0
aI3
aI0
aI4
aI13
aI0
aa(lp293
V0021001096
p294
aVMAR 28, 2011
p295
aVCHA vs. MIL
p296
aVW
p297
aI34
aI7
aI10
aF0.7
aI0
aI0
aF0.0
aI2
aI4
aF0.5
aI0
aI5
aI5
aI1
aI1
aI0
aI2
aI1
aI16
aI-4
aa(lp298
V0021001106
p299
aVMAR 30, 2011
p300
aVCHA vs. CLE
p301
aVW
p302
aI33
aI6
aI12
aF0.5
aI0
aI1
aF0.0
aI2
aI2
aF1.0
aI2
aI3
aI5
aI2
aI1
aI1
aI0
aI1
aI14
aI10
aa(lp303
V0021001121
p304
aVAPR 01, 2011
p305
aVCHA @ ORL
p306
aVL
p307
aI36
aI4
aI15
aF0.267
aI0
aI0
aF0.0
aI3
aI3
aF1.0
aI2
aI5
aI7
aI5
aI2
aI0
aI2
aI1
aI11
aI-3
aa(lp308
V0021001141
p309
aVAPR 03, 2011
p310
aVCHA vs. WAS
p311
aVL
p312
aI30
aI5
aI10
aF0.5
aI0
aI0
aF0.0
aI3
aI4
aF0.75
aI1
aI5
aI6
aI1
aI0
aI0
aI3
aI3
aI13
aI-8
aa(lp313
V0021001150
p314
aVAPR 05, 2011
p315
aVCHA @ CLE
p316
aVL
p317
aI35
aI6
aI15
aF0.4
aI1
aI2
aF0.5
aI2
aI2
aF1.0
aI1
aI2
aI3
aI4
aI2
aI1
aI1
aI2
aI15
aI0
aa(lp318
V0021001162
p319
aVAPR 06, 2011
p320
aVCHA vs. ORL
p321
aVL
p322
aI45
aI12
aI22
aF0.545
aI1
aI2
aF0.5
aI7
aI7
aF1.0
aI1
aI4
aI5
aI4
aI0
aI0
aI1
aI1
aI32
aI-8
aa(lp323
V0021001182
p324
aVAPR 08, 2011
p325
aVCHA @ MIA
p326
aVL
p327
aI22
aI2
aI6
aF0.333
aI0
aI1
aF0.0
aI0
aI0
aF0.0
aI1
aI1
aI2
aI3
aI1
aI0
aI1
aI6
aI4
aI3
aa(lp328
V0021001195
p329
aVAPR 10, 2011
p330
aVCHA vs. DET
p331
aVL
p332
aI34
aI8
aI17
aF0.471
aI2
aI5
aF0.4
aI3
aI4
aF0.75
aI1
aI2
aI3
aI3
aI1
aI1
aI1
aI2
aI21
aI7
aa(lp333
V0021001203
p334
aVAPR 11, 2011
p335
aVCHA @ NJN
p336
aVW
p337
aI42
aI6
aI14
aF0.429
aI0
aI1
aF0.0
aI2
aI3
aF0.667
aI2
aI2
aI4
aI2
aI1
aI0
aI0
aI2
aI14
aI2
aa(lp338
V0021001217
p339
aVAPR 13, 2011
p340
aVCHA vs. ATL
p341
aVW
p342
aI37
aI9
aI17
aF0.529
aI0
aI2
aF0.0
aI2
aI2
aF1.0
aI1
aI5
aI6
aI6
aI4
aI1
aI0
aI2
aI20
aI14
aasS'name'
p343
VGerald Henderson
p344
sS'weight'
p345
V215
p346
sS'age'
p347
I23
sS'experience'
p348
I1
sS'height'
p349
V6-5
p350
sS'position'
p351
VGuard
p352
s.