(dp0
S'age'
p1
I22
sS'stats'
p2
(lp3
(lp4
V0021001220
p5
aVAPR 13, 2011
p6
aVDET @ PHI
p7
aVW
p8
aI25
aI4
aI9
aF0.444
aI1
aI3
aF0.333
aI1
aI2
aF0.5
aI0
aI2
aI2
aI0
aI0
aI1
aI1
aI0
aI10
aI-7
aa(lp9
V0021001153
p10
aVAPR 05, 2011
p11
aVDET @ WAS
p12
aVL
p13
aI2
aI0
aI1
aF0.0
aI0
aI1
aF0.0
aI0
aI0
aF0.0
aI0
aI0
aI0
aI0
aI0
aI0
aI0
aI1
aI0
aI-2
aa(lp14
V0021001107
p15
aVMAR 30, 2011
p16
aVDET @ IND
p17
aVL
p18
aI9
aI2
aI4
aF0.5
aI1
aI2
aF0.5
aI0
aI0
aF0.0
aI1
aI2
aI3
aI0
aI0
aI0
aI2
aI1
aI5
aI9
aa(lp19
V0021000906
p20
aVMAR 02, 2011
p21
aVDET vs. MIN
p22
aVL
p23
aI5
aI0
aI1
aF0.0
aI0
aI1
aF0.0
aI0
aI0
aF0.0
aI0
aI0
aI0
aI0
aI0
aI0
aI0
aI0
aI0
aI-4
aa(lp24
V0021000899
p25
aVMAR 01, 2011
p26
aVDET @ MIL
p27
aVL
p28
aI4
aI0
aI0
aF0.0
aI0
aI0
aF0.0
aI0
aI0
aF0.0
aI0
aI0
aI0
aI0
aI0
aI0
aI0
aI3
aI0
aI-3
aa(lp29
V0021000874
p30
aVFEB 26, 2011
p31
aVDET vs. UTA
p32
aVW
p33
aI18
aI3
aI5
aF0.6
aI1
aI3
aF0.333
aI0
aI0
aF0.0
aI0
aI0
aI0
aI0
aI0
aI0
aI1
aI4
aI7
aI8
aa(lp34
V0021000863
p35
aVFEB 25, 2011
p36
aVDET @ PHI
p37
aVL
p38
aI39
aI3
aI8
aF0.375
aI0
aI1
aF0.0
aI4
aI6
aF0.667
aI0
aI2
aI2
aI1
aI1
aI0
aI2
aI1
aI10
aI-9
aa(lp39
V0021000848
p40
aVFEB 23, 2011
p41
aVDET @ IND
p42
aVL
p43
aI0
aI0
aI0
aF0.0
aI0
aI0
aF0.0
aI0
aI0
aF0.0
aI0
aI0
aI0
aI0
aI0
aI0
aI0
aI0
aI0
aI0
aa(lp44
V0021000814
p45
aVFEB 14, 2011
p46
aVDET vs. ATL
p47
aVL
p48
aI3
aI1
aI2
aF0.5
aI0
aI0
aF0.0
aI0
aI2
aF0.0
aI0
aI0
aI0
aI0
aI0
aI0
aI1
aI0
aI2
aI2
aa(lp49
V0021000739
p50
aVFEB 04, 2011
p51
aVDET vs. NJN
p52
aVW
p53
aI11
aI0
aI3
aF0.0
aI0
aI0
aF0.0
aI0
aI0
aF0.0
aI0
aI0
aI0
aI0
aI0
aI0
aI1
aI2
aI0
aI-8
aa(lp54
V0021000705
p55
aVJAN 30, 2011
p56
aVDET @ NYK
p57
aVL
p58
aI12
aI1
aI4
aF0.25
aI1
aI2
aF0.5
aI1
aI2
aF0.5
aI0
aI0
aI0
aI1
aI0
aI0
aI0
aI3
aI4
aI-3
aa(lp59
V0021000671
p60
aVJAN 26, 2011
p61
aVDET vs. DEN
p62
aVL
p63
aI0
aI0
aI0
aF0.0
aI0
aI0
aF0.0
aI0
aI0
aF0.0
aI0
aI0
aI0
aI0
aI0
aI0
aI0
aI0
aI0
aI0
aa(lp64
V0021000629
p65
aVJAN 21, 2011
p66
aVDET @ NJN
p67
aVL
p68
aI4
aI1
aI2
aF0.5
aI0
aI0
aF0.0
aI1
aI2
aF0.5
aI0
aI0
aI0
aI0
aI0
aI0
aI0
aI0
aI3
aI1
aa(lp69
V0021000604
p70
aVJAN 17, 2011
p71
aVDET vs. DAL
p72
aVW
p73
aI2
aI0
aI1
aF0.0
aI0
aI0
aF0.0
aI0
aI0
aF0.0
aI0
aI0
aI0
aI0
aI0
aI0
aI0
aI0
aI0
aI-3
aa(lp74
V0021000511
p75
aVJAN 04, 2011
p76
aVDET @ LAL
p77
aVL
p78
aI7
aI2
aI3
aF0.667
aI0
aI1
aF0.0
aI0
aI0
aF0.0
aI0
aI0
aI0
aI0
aI0
aI0
aI0
aI0
aI4
aI4
aa(lp79
V0021000482
p80
aVDEC 31, 2010
p81
aVDET @ PHX
p82
aVL
p83
aI6
aI1
aI4
aF0.25
aI1
aI2
aF0.5
aI0
aI0
aF0.0
aI0
aI0
aI0
aI0
aI1
aI0
aI1
aI3
aI3
aI6
aa(lp84
V0021000403
p85
aVDEC 19, 2010
p86
aVDET vs. NOH
p87
aVW
p88
aI9
aI3
aI4
aF0.75
aI2
aI2
aF1.0
aI0
aI2
aF0.0
aI0
aI1
aI1
aI0
aI1
aI0
aI0
aI0
aI8
aI2
aa(lp89
V0021000386
p90
aVDEC 17, 2010
p91
aVDET vs. LAC
p92
aVL
p93
aI7
aI1
aI3
aF0.333
aI0
aI0
aF0.0
aI0
aI0
aF0.0
aI0
aI0
aI0
aI0
aI0
aI0
aI0
aI0
aI2
aI5
aa(lp94
V0021000106
p95
aVNOV 09, 2010
p96
aVDET @ POR
p97
aVL
p98
aI5
aI1
aI3
aF0.333
aI1
aI2
aF0.5
aI1
aI2
aF0.5
aI0
aI0
aI0
aI0
aI0
aI0
aI0
aI0
aI4
aI1
aa(lp99
V0021000054
p100
aVNOV 03, 2010
p101
aVDET @ ATL
p102
aVL
p103
aI16
aI2
aI6
aF0.333
aI1
aI1
aF1.0
aI0
aI0
aF0.0
aI1
aI1
aI2
aI0
aI0
aI0
aI2
aI1
aI5
aI-8
aa(lp104
V0021000049
p105
aVNOV 02, 2010
p106
aVDET vs. BOS
p107
aVL
p108
aI14
aI3
aI6
aF0.5
aI0
aI0
aF0.0
aI1
aI2
aF0.5
aI0
aI2
aI2
aI0
aI0
aI0
aI2
aI1
aI7
aI-11
aa(lp109
V0021000024
p110
aVOCT 29, 2010
p111
aVDET vs. OKC
p112
aVL
p113
aI0
aI0
aI0
aF0.0
aI0
aI0
aF0.0
aI0
aI0
aF0.0
aI0
aI0
aI0
aI0
aI0
aI0
aI0
aI1
aI0
aI-1
aasS'name'
p114
VDaJuan Summers
p115
sS'experience'
p116
I1
s.