(dp0
S'stats'
p1
(lp2
(lp3
V0021000166
p4
aVNOV 17, 2010
p5
aVSAS vs. CHI
p6
aVW
p7
aI0
aI0
aI0
aF0.0
aI0
aI0
aF0.0
aI0
aI0
aF0.0
aI0
aI0
aI0
aI0
aI0
aI0
aI0
aI0
aI0
aI-2
aa(lp8
V0021000187
p9
aVNOV 20, 2010
p10
aVSAS vs. CLE
p11
aVW
p12
aI9
aI2
aI5
aF0.4
aI2
aI4
aF0.5
aI0
aI0
aF0.0
aI0
aI1
aI1
aI0
aI0
aI0
aI0
aI0
aI6
aI7
aa(lp13
V0021001033
p14
aVMAR 19, 2011
p15
aVSAS vs. CHA
p16
aVW
p17
aI4
aI0
aI1
aF0.0
aI0
aI1
aF0.0
aI0
aI0
aF0.0
aI0
aI0
aI0
aI1
aI0
aI0
aI1
aI0
aI0
aI-2
aa(lp18
V0021001049
p19
aVMAR 21, 2011
p20
aVSAS vs. GSW
p21
aVW
p22
aI1
aI0
aI0
aF0.0
aI0
aI0
aF0.0
aI0
aI0
aF0.0
aI0
aI0
aI0
aI0
aI0
aI0
aI0
aI0
aI0
aI2
aa(lp23
V0021001099
p24
aVMAR 28, 2011
p25
aVSAS vs. POR
p26
aVL
p27
aI20
aI3
aI3
aF1.0
aI1
aI1
aF1.0
aI0
aI0
aF0.0
aI1
aI2
aI3
aI1
aI1
aI0
aI1
aI0
aI7
aI-3
aa(lp28
V0021001171
p29
aVAPR 06, 2011
p30
aVSAS vs. SAC
p31
aVW
p32
aI13
aI4
aI7
aF0.571
aI1
aI2
aF0.5
aI0
aI0
aF0.0
aI1
aI2
aI3
aI0
aI0
aI0
aI1
aI3
aI9
aI10
aa(lp33
V0021001215
p34
aVAPR 12, 2011
p35
aVSAS @ LAL
p36
aVL
p37
aI21
aI3
aI10
aF0.3
aI0
aI5
aF0.0
aI0
aI0
aF0.0
aI0
aI4
aI4
aI0
aI0
aI0
aI1
aI2
aI6
aI-2
aa(lp38
V0021001229
p39
aVAPR 13, 2011
p40
aVSAS @ PHX
p41
aVL
p42
aI24
aI5
aI9
aF0.556
aI3
aI6
aF0.5
aI0
aI0
aF0.0
aI1
aI3
aI4
aI0
aI1
aI1
aI1
aI2
aI13
aI8
aasS'name'
p43
VDanny Green
p44
sS'weight'
p45
V215
p46
sS'age'
p47
I23
sS'experience'
p48
I1
sS'height'
p49
V6-6
p50
sS'position'
p51
VGuard-Forward
p52
s.