(dp0
S'age'
p1
I23
sS'stats'
p2
(lp3
(lp4
V0021000012
p5
aVOCT 27, 2010
p6
aVCHA @ DAL
p7
aVL
p8
aI16
aI1
aI3
aF0.333
aI0
aI1
aF0.0
aI0
aI0
aF0.0
aI0
aI4
aI4
aI1
aI0
aI2
aI2
aI2
aI2
aI14
aa(lp9
V0021000019
p10
aVOCT 29, 2010
p11
aVCHA vs. IND
p12
aVL
p13
aI15
aI3
aI3
aF1.0
aI0
aI0
aF0.0
aI0
aI0
aF0.0
aI0
aI1
aI1
aI0
aI1
aI0
aI0
aI1
aI6
aI5
aa(lp14
V0021000038
p15
aVOCT 30, 2010
p16
aVCHA @ MIL
p17
aVL
p18
aI14
aI1
aI3
aF0.333
aI0
aI1
aF0.0
aI0
aI0
aF0.0
aI0
aI1
aI1
aI0
aI0
aI0
aI0
aI2
aI2
aI10
aa(lp19
V0021000055
p20
aVNOV 03, 2010
p21
aVCHA @ NJN
p22
aVW
p23
aI13
aI1
aI4
aF0.25
aI0
aI0
aF0.0
aI0
aI0
aF0.0
aI1
aI0
aI1
aI0
aI0
aI0
aI1
aI2
aI2
aI-6
aa(lp24
V0021000071
p25
aVNOV 05, 2010
p26
aVCHA @ DET
p27
aVL
p28
aI7
aI0
aI1
aF0.0
aI0
aI0
aF0.0
aI0
aI0
aF0.0
aI0
aI0
aI0
aI0
aI0
aI0
aI0
aI1
aI0
aI-4
aa(lp29
V0021000080
p30
aVNOV 06, 2010
p31
aVCHA vs. ORL
p32
aVL
p33
aI11
aI2
aI2
aF1.0
aI0
aI0
aF0.0
aI0
aI0
aF0.0
aI0
aI3
aI3
aI1
aI0
aI1
aI1
aI0
aI4
aI4
aa(lp34
V0021000095
p35
aVNOV 08, 2010
p36
aVCHA vs. SAS
p37
aVL
p38
aI21
aI3
aI7
aF0.429
aI0
aI1
aF0.0
aI2
aI2
aF1.0
aI2
aI1
aI3
aI3
aI0
aI0
aI1
aI1
aI8
aI6
aa(lp39
V0021000110
p40
aVNOV 10, 2010
p41
aVCHA @ TOR
p42
aVW
p43
aI19
aI3
aI5
aF0.6
aI0
aI0
aF0.0
aI4
aI6
aF0.667
aI1
aI4
aI5
aI0
aI1
aI0
aI0
aI1
aI10
aI-6
aa(lp44
V0021000124
p45
aVNOV 12, 2010
p46
aVCHA @ WAS
p47
aVW
p48
aI3
aI0
aI2
aF0.0
aI0
aI0
aF0.0
aI0
aI0
aF0.0
aI0
aI0
aI0
aI0
aI0
aI0
aI0
aI0
aI0
aI-2
aa(lp49
V0021000360
p50
aVDEC 14, 2010
p51
aVCHA vs. TOR
p52
aVW
p53
aI3
aI0
aI1
aF0.0
aI0
aI0
aF0.0
aI0
aI0
aF0.0
aI0
aI0
aI0
aI0
aI0
aI0
aI1
aI0
aI0
aI-3
aa(lp54
V0021000372
p55
aVDEC 15, 2010
p56
aVCHA @ MEM
p57
aVL
p58
aI10
aI0
aI2
aF0.0
aI0
aI0
aF0.0
aI1
aI2
aF0.5
aI0
aI0
aI0
aI1
aI1
aI0
aI0
aI0
aI1
aI-14
aa(lp59
V0021000385
p60
aVDEC 17, 2010
p61
aVCHA @ ATL
p62
aVL
p63
aI6
aI0
aI1
aF0.0
aI0
aI0
aF0.0
aI0
aI0
aF0.0
aI0
aI0
aI0
aI2
aI0
aI0
aI0
aI2
aI0
aI-3
aa(lp64
V0021000409
p65
aVDEC 20, 2010
p66
aVCHA @ WAS
p67
aVL
p68
aI15
aI1
aI3
aF0.333
aI0
aI0
aF0.0
aI0
aI2
aF0.0
aI1
aI0
aI1
aI2
aI1
aI0
aI4
aI2
aI2
aI-5
aa(lp69
V0021000415
p70
aVDEC 21, 2010
p71
aVCHA vs. OKC
p72
aVL
p73
aI10
aI0
aI3
aF0.0
aI0
aI1
aF0.0
aI0
aI0
aF0.0
aI0
aI2
aI2
aI0
aI0
aI1
aI0
aI2
aI0
aI-4
aa(lp74
V0021000445
p75
aVDEC 27, 2010
p76
aVCHA vs. DET
p77
aVW
p78
aI29
aI1
aI6
aF0.167
aI0
aI0
aF0.0
aI1
aI2
aF0.5
aI0
aI3
aI3
aI1
aI0
aI0
aI2
aI3
aI3
aI-7
aa(lp79
V0021000463
p80
aVDEC 29, 2010
p81
aVCHA vs. CLE
p82
aVW
p83
aI4
aI1
aI2
aF0.5
aI0
aI0
aF0.0
aI0
aI0
aF0.0
aI1
aI0
aI1
aI0
aI0
aI0
aI0
aI0
aI2
aI-4
aa(lp84
V0021000477
p85
aVDEC 31, 2010
p86
aVCHA vs. GSW
p87
aVL
p88
aI22
aI5
aI6
aF0.833
aI0
aI0
aF0.0
aI0
aI0
aF0.0
aI2
aI4
aI6
aI0
aI1
aI1
aI0
aI0
aI10
aI9
aa(lp89
V0021000499
p90
aVJAN 03, 2011
p91
aVCHA vs. MIA
p92
aVL
p93
aI22
aI3
aI9
aF0.333
aI0
aI0
aF0.0
aI0
aI0
aF0.0
aI0
aI2
aI2
aI0
aI2
aI1
aI0
aI2
aI6
aI-20
aa(lp94
V0021000517
p95
aVJAN 05, 2011
p96
aVCHA @ MIN
p97
aVW
p98
aI33
aI3
aI7
aF0.429
aI0
aI0
aF0.0
aI1
aI2
aF0.5
aI2
aI3
aI5
aI3
aI1
aI0
aI0
aI3
aI7
aI0
aa(lp99
V0021000537
p100
aVJAN 08, 2011
p101
aVCHA vs. WAS
p102
aVW
p103
aI40
aI8
aI11
aF0.727
aI0
aI1
aF0.0
aI3
aI4
aF0.75
aI1
aI8
aI9
aI2
aI0
aI3
aI1
aI1
aI19
aI18
aa(lp104
V0021000551
p105
aVJAN 10, 2011
p106
aVCHA vs. MEM
p107
aVW
p108
aI32
aI3
aI9
aF0.333
aI0
aI0
aF0.0
aI3
aI5
aF0.6
aI0
aI1
aI1
aI2
aI1
aI1
aI0
aI1
aI9
aI3
aa(lp109
V0021000561
p110
aVJAN 12, 2011
p111
aVCHA vs. CHI
p112
aVW
p113
aI10
aI1
aI3
aF0.333
aI0
aI0
aF0.0
aI0
aI0
aF0.0
aI0
aI0
aI0
aI0
aI0
aI0
aI0
aI1
aI2
aI-10
aa(lp114
V0021000579
p115
aVJAN 14, 2011
p116
aVCHA @ BOS
p117
aVL
p118
aI14
aI1
aI3
aF0.333
aI0
aI1
aF0.0
aI0
aI0
aF0.0
aI0
aI1
aI1
aI2
aI1
aI0
aI1
aI2
aI2
aI10
aa(lp119
V0021000588
p120
aVJAN 15, 2011
p121
aVCHA vs. NOH
p122
aVL
p123
aI13
aI2
aI4
aF0.5
aI0
aI0
aF0.0
aI2
aI2
aF1.0
aI0
aI1
aI1
aI0
aI0
aI0
aI3
aI1
aI6
aI0
aa(lp124
V0021000601
p125
aVJAN 17, 2011
p126
aVCHA @ PHI
p127
aVL
p128
aI18
aI1
aI8
aF0.125
aI0
aI1
aF0.0
aI0
aI0
aF0.0
aI1
aI1
aI2
aI0
aI1
aI0
aI0
aI0
aI2
aI-14
aa(lp129
V0021000612
p130
aVJAN 18, 2011
p131
aVCHA @ CHI
p132
aVW
p133
aI24
aI3
aI9
aF0.333
aI0
aI0
aF0.0
aI2
aI2
aF1.0
aI0
aI2
aI2
aI0
aI1
aI0
aI0
aI0
aI8
aI-3
aa(lp134
V0021000626
p135
aVJAN 20, 2011
p136
aVCHA vs. PHI
p137
aVW
p138
aI19
aI5
aI8
aF0.625
aI0
aI0
aF0.0
aI1
aI2
aF0.5
aI0
aI4
aI4
aI2
aI0
aI0
aI0
aI3
aI11
aI0
aa(lp139
V0021000639
p140
aVJAN 22, 2011
p141
aVCHA vs. ATL
p142
aVL
p143
aI18
aI4
aI7
aF0.571
aI0
aI0
aF0.0
aI0
aI0
aF0.0
aI1
aI1
aI2
aI1
aI0
aI0
aI0
aI3
aI8
aI-4
aa(lp144
V0021000666
p145
aVJAN 25, 2011
p146
aVCHA @ SAC
p147
aVW
p148
aI16
aI2
aI6
aF0.333
aI0
aI0
aF0.0
aI0
aI0
aF0.0
aI1
aI2
aI3
aI1
aI0
aI0
aI0
aI1
aI4
aI2
aa(lp149
V0021000675
p150
aVJAN 26, 2011
p151
aVCHA @ PHX
p152
aVW
p153
aI33
aI6
aI12
aF0.5
aI0
aI1
aF0.0
aI3
aI4
aF0.75
aI1
aI2
aI3
aI1
aI0
aI2
aI0
aI2
aI15
aI8
aa(lp154
V0021000691
p155
aVJAN 28, 2011
p156
aVCHA @ GSW
p157
aVW
p158
aI30
aI3
aI10
aF0.3
aI0
aI1
aF0.0
aI2
aI2
aF1.0
aI5
aI1
aI6
aI5
aI1
aI2
aI2
aI2
aI8
aI15
aa(lp159
V0021000700
p160
aVJAN 29, 2011
p161
aVCHA @ LAC
p162
aVL
p163
aI23
aI5
aI6
aF0.833
aI1
aI1
aF1.0
aI3
aI5
aF0.6
aI0
aI4
aI4
aI1
aI0
aI0
aI2
aI3
aI14
aI4
aa(lp164
V0021000713
p165
aVJAN 31, 2011
p166
aVCHA @ UTA
p167
aVL
p168
aI15
aI2
aI4
aF0.5
aI0
aI1
aF0.0
aI0
aI0
aF0.0
aI0
aI1
aI1
aI0
aI0
aI0
aI0
aI1
aI4
aI-10
aa(lp169
V0021000722
p170
aVFEB 02, 2011
p171
aVCHA @ DET
p172
aVW
p173
aI23
aI4
aI9
aF0.444
aI0
aI0
aF0.0
aI1
aI1
aF1.0
aI0
aI4
aI4
aI1
aI0
aI0
aI1
aI1
aI9
aI6
aa(lp174
V0021000733
p175
aVFEB 04, 2011
p176
aVCHA vs. MIA
p177
aVL
p178
aI29
aI6
aI10
aF0.6
aI0
aI1
aF0.0
aI2
aI4
aF0.5
aI1
aI1
aI2
aI1
aI1
aI3
aI2
aI3
aI14
aI-8
aa(lp179
V0021000745
p180
aVFEB 05, 2011
p181
aVCHA vs. DAL
p182
aVL
p183
aI16
aI1
aI2
aF0.5
aI0
aI0
aF0.0
aI0
aI0
aF0.0
aI0
aI2
aI2
aI0
aI0
aI0
aI0
aI1
aI2
aI-5
aa(lp184
V0021000758
p185
aVFEB 07, 2011
p186
aVCHA vs. BOS
p187
aVW
p188
aI35
aI5
aI13
aF0.385
aI0
aI1
aF0.0
aI5
aI5
aF1.0
aI0
aI4
aI4
aI2
aI0
aI1
aI1
aI1
aI15
aI9
aa(lp189
V0021000774
p190
aVFEB 09, 2011
p191
aVCHA @ IND
p192
aVL
p193
aI24
aI3
aI7
aF0.429
aI0
aI0
aF0.0
aI3
aI4
aF0.75
aI2
aI6
aI8
aI1
aI1
aI0
aI1
aI3
aI9
aI2
aa(lp194
V0021000786
p195
aVFEB 11, 2011
p196
aVCHA vs. NJN
p197
aVL
p198
aI17
aI3
aI5
aF0.6
aI0
aI0
aF0.0
aI5
aI8
aF0.625
aI0
aI5
aI5
aI0
aI1
aI0
aI0
aI1
aI11
aI2
aa(lp199
V0021000796
p200
aVFEB 12, 2011
p201
aVCHA @ ATL
p202
aVW
p203
aI11
aI1
aI4
aF0.25
aI0
aI0
aF0.0
aI1
aI2
aF0.5
aI1
aI2
aI3
aI0
aI0
aI0
aI1
aI0
aI3
aI-17
aa(lp204
V0021000812
p205
aVFEB 14, 2011
p206
aVCHA vs. LAL
p207
aVW
p208
aI29
aI6
aI9
aF0.667
aI1
aI2
aF0.5
aI5
aI5
aF1.0
aI0
aI4
aI4
aI4
aI0
aI0
aI0
aI1
aI18
aI22
aa(lp209
V0021000819
p210
aVFEB 15, 2011
p211
aVCHA @ CHI
p212
aVL
p213
aI26
aI6
aI9
aF0.667
aI0
aI0
aF0.0
aI10
aI12
aF0.833
aI1
aI4
aI5
aI2
aI1
aI0
aI3
aI2
aI22
aI0
aa(lp214
V0021000838
p215
aVFEB 22, 2011
p216
aVCHA vs. TOR
p217
aVW
p218
aI27
aI5
aI11
aF0.455
aI0
aI0
aF0.0
aI5
aI8
aF0.625
aI2
aI4
aI6
aI0
aI0
aI0
aI3
aI2
aI15
aI4
aa(lp219
V0021000861
p220
aVFEB 25, 2011
p221
aVCHA vs. SAC
p222
aVW
p223
aI33
aI8
aI17
aF0.471
aI0
aI0
aF0.0
aI5
aI6
aF0.833
aI2
aI2
aI4
aI1
aI0
aI2
aI1
aI2
aI21
aI2
aa(lp224
V0021000883
p225
aVFEB 27, 2011
p226
aVCHA @ ORL
p227
aVL
p228
aI32
aI2
aI13
aF0.154
aI0
aI2
aF0.0
aI0
aI0
aF0.0
aI1
aI3
aI4
aI2
aI4
aI0
aI0
aI1
aI4
aI-6
aa(lp229
V0021000909
p230
aVMAR 02, 2011
p231
aVCHA @ DEN
p232
aVL
p233
aI27
aI3
aI8
aF0.375
aI0
aI0
aF0.0
aI3
aI4
aF0.75
aI1
aI0
aI1
aI2
aI0
aI0
aI1
aI4
aI9
aI-21
aa(lp234
V0021000924
p235
aVMAR 04, 2011
p236
aVCHA @ LAL
p237
aVL
p238
aI28
aI3
aI11
aF0.273
aI0
aI0
aF0.0
aI1
aI1
aF1.0
aI0
aI3
aI3
aI1
aI1
aI1
aI1
aI3
aI7
aI-10
aa(lp239
V0021000929
p240
aVMAR 05, 2011
p241
aVCHA @ POR
p242
aVL
p243
aI34
aI8
aI13
aF0.615
aI0
aI1
aF0.0
aI0
aI0
aF0.0
aI0
aI2
aI2
aI0
aI0
aI0
aI3
aI1
aI16
aI-20
aa(lp244
V0021000940
p245
aVMAR 07, 2011
p246
aVCHA vs. LAC
p247
aVL
p248
aI38
aI10
aI18
aF0.556
aI0
aI0
aF0.0
aI0
aI0
aF0.0
aI0
aI3
aI3
aI4
aI2
aI1
aI1
aI1
aI20
aI1
aa(lp249
V0021000953
p250
aVMAR 09, 2011
p251
aVCHA vs. CHI
p252
aVL
p253
aI37
aI8
aI15
aF0.533
aI1
aI1
aF1.0
aI3
aI3
aF1.0
aI1
aI2
aI3
aI8
aI0
aI0
aI2
aI2
aI20
aI-12
aa(lp254
V0021000967
p255
aVMAR 11, 2011
p256
aVCHA vs. POR
p257
aVW
p258
aI34
aI4
aI12
aF0.333
aI0
aI1
aF0.0
aI4
aI4
aF1.0
aI0
aI2
aI2
aI1
aI3
aI0
aI2
aI2
aI12
aI-10
aa(lp259
V0021000986
p260
aVMAR 13, 2011
p261
aVCHA @ TOR
p262
aVW
p263
aI39
aI7
aI13
aF0.538
aI0
aI0
aF0.0
aI4
aI4
aF1.0
aI1
aI3
aI4
aI2
aI4
aI1
aI1
aI1
aI18
aI7
aa(lp264
V0021001009
p265
aVMAR 16, 2011
p266
aVCHA @ HOU
p267
aVL
p268
aI35
aI3
aI11
aF0.273
aI0
aI0
aF0.0
aI2
aI2
aF1.0
aI1
aI3
aI4
aI2
aI0
aI1
aI0
aI1
aI8
aI-10
aa(lp269
V0021001022
p270
aVMAR 18, 2011
p271
aVCHA @ OKC
p272
aVL
p273
aI30
aI2
aI7
aF0.286
aI0
aI0
aF0.0
aI0
aI1
aF0.0
aI0
aI0
aI0
aI1
aI2
aI0
aI3
aI4
aI4
aI-18
aa(lp274
V0021001033
p275
aVMAR 19, 2011
p276
aVCHA @ SAS
p277
aVL
p278
aI37
aI9
aI14
aF0.643
aI0
aI0
aF0.0
aI1
aI1
aF1.0
aI0
aI4
aI4
aI1
aI2
aI0
aI2
aI4
aI19
aI-7
aa(lp279
V0021001054
p280
aVMAR 23, 2011
p281
aVCHA vs. IND
p282
aVL
p283
aI37
aI4
aI14
aF0.286
aI0
aI1
aF0.0
aI4
aI4
aF1.0
aI0
aI1
aI1
aI1
aI2
aI1
aI1
aI3
aI12
aI-19
aa(lp284
V0021001070
p285
aVMAR 25, 2011
p286
aVCHA @ BOS
p287
aVW
p288
aI22
aI5
aI8
aF0.625
aI0
aI1
aF0.0
aI5
aI6
aF0.833
aI2
aI0
aI2
aI1
aI0
aI0
aI2
aI4
aI15
aI3
aa(lp289
V0021001082
p290
aVMAR 26, 2011
p291
aVCHA vs. NYK
p292
aVW
p293
aI32
aI4
aI9
aF0.444
aI0
aI0
aF0.0
aI5
aI5
aF1.0
aI1
aI3
aI4
aI1
aI0
aI3
aI0
aI4
aI13
aI0
aa(lp294
V0021001096
p295
aVMAR 28, 2011
p296
aVCHA vs. MIL
p297
aVW
p298
aI34
aI7
aI10
aF0.7
aI0
aI0
aF0.0
aI2
aI4
aF0.5
aI0
aI5
aI5
aI1
aI1
aI0
aI2
aI1
aI16
aI-4
aa(lp299
V0021001106
p300
aVMAR 30, 2011
p301
aVCHA vs. CLE
p302
aVW
p303
aI33
aI6
aI12
aF0.5
aI0
aI1
aF0.0
aI2
aI2
aF1.0
aI2
aI3
aI5
aI2
aI1
aI1
aI0
aI1
aI14
aI10
aa(lp304
V0021001121
p305
aVAPR 01, 2011
p306
aVCHA @ ORL
p307
aVL
p308
aI36
aI4
aI15
aF0.267
aI0
aI0
aF0.0
aI3
aI3
aF1.0
aI2
aI5
aI7
aI5
aI2
aI0
aI2
aI1
aI11
aI-3
aa(lp309
V0021001141
p310
aVAPR 03, 2011
p311
aVCHA vs. WAS
p312
aVL
p313
aI30
aI5
aI10
aF0.5
aI0
aI0
aF0.0
aI3
aI4
aF0.75
aI1
aI5
aI6
aI1
aI0
aI0
aI3
aI3
aI13
aI-8
aa(lp314
V0021001150
p315
aVAPR 05, 2011
p316
aVCHA @ CLE
p317
aVL
p318
aI35
aI6
aI15
aF0.4
aI1
aI2
aF0.5
aI2
aI2
aF1.0
aI1
aI2
aI3
aI4
aI2
aI1
aI1
aI2
aI15
aI0
aa(lp319
V0021001162
p320
aVAPR 06, 2011
p321
aVCHA vs. ORL
p322
aVL
p323
aI45
aI12
aI22
aF0.545
aI1
aI2
aF0.5
aI7
aI7
aF1.0
aI1
aI4
aI5
aI4
aI0
aI0
aI1
aI1
aI32
aI-8
aa(lp324
V0021001182
p325
aVAPR 08, 2011
p326
aVCHA @ MIA
p327
aVL
p328
aI22
aI2
aI6
aF0.333
aI0
aI1
aF0.0
aI0
aI0
aF0.0
aI1
aI1
aI2
aI3
aI1
aI0
aI1
aI6
aI4
aI3
aa(lp329
V0021001195
p330
aVAPR 10, 2011
p331
aVCHA vs. DET
p332
aVL
p333
aI34
aI8
aI17
aF0.471
aI2
aI5
aF0.4
aI3
aI4
aF0.75
aI1
aI2
aI3
aI3
aI1
aI1
aI1
aI2
aI21
aI7
aa(lp334
V0021001203
p335
aVAPR 11, 2011
p336
aVCHA @ NJN
p337
aVW
p338
aI42
aI6
aI14
aF0.429
aI0
aI1
aF0.0
aI2
aI3
aF0.667
aI2
aI2
aI4
aI2
aI1
aI0
aI0
aI2
aI14
aI2
aa(lp339
V0021001217
p340
aVAPR 13, 2011
p341
aVCHA vs. ATL
p342
aVW
p343
aI37
aI9
aI17
aF0.529
aI0
aI2
aF0.0
aI2
aI2
aF1.0
aI1
aI5
aI6
aI6
aI4
aI1
aI0
aI2
aI20
aI14
aasS'name'
p344
VGerald Henderson
p345
sS'experience'
p346
I1
s.