(dp0
S'age'
p1
I25
sS'stats'
p2
(lp3
(lp4
V0021000011
p5
aVOCT 27, 2010
p6
aVCHI @ OKC
p7
aVL
p8
aI34
aI8
aI12
aF0.667
aI0
aI0
aF0.0
aI0
aI2
aF0.0
aI2
aI9
aI11
aI2
aI2
aI0
aI2
aI4
aI16
aI-7
aa(lp9
V0021000035
p10
aVOCT 30, 2010
p11
aVCHI vs. DET
p12
aVW
p13
aI18
aI5
aI8
aF0.625
aI0
aI0
aF0.0
aI1
aI2
aF0.5
aI0
aI0
aI0
aI0
aI0
aI0
aI0
aI6
aI11
aI0
aa(lp14
V0021000044
p15
aVNOV 01, 2010
p16
aVCHI vs. POR
p17
aVW
p18
aI22
aI6
aI9
aF0.667
aI0
aI0
aF0.0
aI0
aI0
aF0.0
aI2
aI1
aI3
aI1
aI0
aI0
aI1
aI5
aI12
aI2
aa(lp19
V0021000066
p20
aVNOV 04, 2010
p21
aVCHI vs. NYK
p22
aVL
p23
aI34
aI6
aI10
aF0.6
aI0
aI0
aF0.0
aI6
aI8
aF0.75
aI4
aI6
aI10
aI2
aI1
aI2
aI2
aI2
aI18
aI11
aa(lp24
V0021000073
p25
aVNOV 05, 2010
p26
aVCHI @ BOS
p27
aVL
p28
aI40
aI9
aI14
aF0.643
aI0
aI0
aF0.0
aI0
aI0
aF0.0
aI0
aI7
aI7
aI2
aI0
aI0
aI1
aI2
aI18
aI-4
aa(lp29
V0021000098
p30
aVNOV 08, 2010
p31
aVCHI vs. DEN
p32
aVW
p33
aI34
aI7
aI12
aF0.583
aI0
aI0
aF0.0
aI2
aI4
aF0.5
aI3
aI3
aI6
aI3
aI1
aI5
aI5
aI4
aI16
aI12
aa(lp34
V0021000119
p35
aVNOV 11, 2010
p36
aVCHI vs. GSW
p37
aVW
p38
aI26
aI5
aI10
aF0.5
aI0
aI0
aF0.0
aI4
aI4
aF1.0
aI3
aI4
aI7
aI0
aI2
aI3
aI1
aI3
aI14
aI31
aa(lp39
V0021000134
p40
aVNOV 13, 2010
p41
aVCHI vs. WAS
p42
aVW
p43
aI26
aI4
aI8
aF0.5
aI0
aI0
aF0.0
aI1
aI2
aF0.5
aI5
aI2
aI7
aI1
aI2
aI5
aI0
aI3
aI9
aI8
aa(lp44
V0021000156
p45
aVNOV 16, 2010
p46
aVCHI @ HOU
p47
aVW
p48
aI29
aI1
aI9
aF0.111
aI0
aI0
aF0.0
aI0
aI0
aF0.0
aI2
aI4
aI6
aI1
aI1
aI1
aI1
aI3
aI2
aI-12
aa(lp49
V0021000166
p50
aVNOV 17, 2010
p51
aVCHI @ SAS
p52
aVL
p53
aI16
aI0
aI7
aF0.0
aI0
aI0
aF0.0
aI0
aI0
aF0.0
aI1
aI4
aI5
aI1
aI0
aI1
aI2
aI1
aI0
aI-9
aa(lp54
V0021000179
p55
aVNOV 19, 2010
p56
aVCHI @ DAL
p57
aVW
p58
aI29
aI7
aI12
aF0.583
aI1
aI1
aF1.0
aI2
aI4
aF0.5
aI8
aI10
aI18
aI1
aI0
aI1
aI1
aI6
aI17
aI-1
aa(lp59
V0021000208
p60
aVNOV 23, 2010
p61
aVCHI @ LAL
p62
aVL
p63
aI40
aI7
aI12
aF0.583
aI0
aI1
aF0.0
aI2
aI2
aF1.0
aI2
aI10
aI12
aI3
aI2
aI2
aI3
aI2
aI16
aI-6
aa(lp64
V0021000229
p65
aVNOV 26, 2010
p66
aVCHI @ DEN
p67
aVL
p68
aI12
aI0
aI3
aF0.0
aI0
aI0
aF0.0
aI0
aI0
aF0.0
aI0
aI0
aI0
aI1
aI0
aI1
aI1
aI1
aI0
aI-16
aa(lp69
V0021000241
p70
aVNOV 27, 2010
p71
aVCHI @ SAC
p72
aVW
p73
aI19
aI4
aI9
aF0.444
aI0
aI1
aF0.0
aI1
aI2
aF0.5
aI0
aI4
aI4
aI0
aI1
aI0
aI1
aI5
aI9
aI-9
aa(lp74
V0021000266
p75
aVDEC 01, 2010
p76
aVCHI vs. ORL
p77
aVL
p78
aI23
aI5
aI8
aF0.625
aI0
aI0
aF0.0
aI0
aI0
aF0.0
aI2
aI2
aI4
aI0
aI0
aI1
aI1
aI3
aI10
aI-11
aa(lp79
V0021000280
p80
aVDEC 03, 2010
p81
aVCHI @ BOS
p82
aVL
p83
aI26
aI3
aI8
aF0.375
aI0
aI0
aF0.0
aI4
aI4
aF1.0
aI4
aI4
aI8
aI1
aI0
aI0
aI3
aI2
aI10
aI11
aa(lp84
V0021000290
p85
aVDEC 04, 2010
p86
aVCHI vs. HOU
p87
aVW
p88
aI24
aI2
aI6
aF0.333
aI0
aI0
aF0.0
aI4
aI4
aF1.0
aI2
aI5
aI7
aI2
aI1
aI2
aI2
aI3
aI8
aI2
aa(lp89
V0021000305
p90
aVDEC 06, 2010
p91
aVCHI vs. OKC
p92
aVW
p93
aI26
aI2
aI5
aF0.4
aI0
aI1
aF0.0
aI0
aI2
aF0.0
aI1
aI5
aI6
aI0
aI1
aI2
aI1
aI2
aI4
aI0
aa(lp94
V0021000317
p95
aVDEC 08, 2010
p96
aVCHI @ CLE
p97
aVW
p98
aI21
aI2
aI4
aF0.5
aI0
aI0
aF0.0
aI0
aI0
aF0.0
aI1
aI2
aI3
aI1
aI0
aI2
aI0
aI2
aI4
aI7
aa(lp99
V0021000333
p100
aVDEC 10, 2010
p101
aVCHI vs. LAL
p102
aVW
p103
aI13
aI0
aI4
aF0.0
aI0
aI0
aF0.0
aI0
aI0
aF0.0
aI0
aI5
aI5
aI0
aI1
aI0
aI3
aI2
aI0
aI-3
aa(lp104
V0021000345
p105
aVDEC 11, 2010
p106
aVCHI vs. MIN
p107
aVW
p108
aI24
aI5
aI16
aF0.313
aI0
aI0
aF0.0
aI2
aI2
aF1.0
aI7
aI3
aI10
aI3
aI1
aI1
aI1
aI2
aI12
aI10
aa(lp109
V0021000356
p110
aVDEC 13, 2010
p111
aVCHI vs. IND
p112
aVW
p113
aI22
aI3
aI5
aF0.6
aI0
aI0
aF0.0
aI2
aI2
aF1.0
aI0
aI2
aI2
aI1
aI0
aI1
aI1
aI1
aI8
aI4
aa(lp114
V0021000370
p115
aVDEC 15, 2010
p116
aVCHI @ TOR
p117
aVW
p118
aI31
aI3
aI11
aF0.273
aI0
aI1
aF0.0
aI0
aI0
aF0.0
aI3
aI3
aI6
aI1
aI1
aI4
aI2
aI1
aI6
aI0
aa(lp119
V0021000395
p120
aVDEC 18, 2010
p121
aVCHI vs. LAC
p122
aVL
p123
aI9
aI1
aI1
aF1.0
aI0
aI0
aF0.0
aI1
aI2
aF0.5
aI1
aI1
aI2
aI0
aI0
aI0
aI1
aI3
aI3
aI-8
aa(lp124
V0021000423
p125
aVDEC 22, 2010
p126
aVCHI @ WAS
p127
aVW
p128
aI1
aI0
aI0
aF0.0
aI0
aI0
aF0.0
aI0
aI0
aF0.0
aI0
aI0
aI0
aI0
aI0
aI0
aI0
aI0
aI0
aI0
aa(lp129
V0021000433
p130
aVDEC 25, 2010
p131
aVCHI @ NYK
p132
aVL
p133
aI13
aI2
aI2
aF1.0
aI0
aI0
aF0.0
aI0
aI0
aF0.0
aI3
aI0
aI3
aI0
aI1
aI1
aI0
aI2
aI4
aI-2
aa(lp134
V0021000440
p135
aVDEC 26, 2010
p136
aVCHI @ DET
p137
aVW
p138
aI30
aI2
aI8
aF0.25
aI0
aI0
aF0.0
aI1
aI2
aF0.5
aI3
aI6
aI9
aI0
aI0
aI2
aI0
aI1
aI5
aI-8
aa(lp139
V0021000458
p140
aVDEC 28, 2010
p141
aVCHI vs. MIL
p142
aVW
p143
aI15
aI0
aI5
aF0.0
aI0
aI0
aF0.0
aI0
aI0
aF0.0
aI0
aI2
aI2
aI0
aI0
aI5
aI1
aI2
aI0
aI5
aa(lp144
V0021000479
p145
aVDEC 31, 2010
p146
aVCHI vs. NJN
p147
aVW
p148
aI15
aI1
aI4
aF0.25
aI0
aI0
aF0.0
aI0
aI0
aF0.0
aI0
aI4
aI4
aI0
aI0
aI1
aI0
aI2
aI2
aI-3
aa(lp149
V0021000485
p150
aVJAN 01, 2011
p151
aVCHI vs. CLE
p152
aVW
p153
aI17
aI2
aI6
aF0.333
aI0
aI0
aF0.0
aI2
aI2
aF1.0
aI2
aI3
aI5
aI0
aI0
aI2
aI0
aI2
aI6
aI-4
aa(lp154
V0021000507
p155
aVJAN 04, 2011
p156
aVCHI vs. TOR
p157
aVW
p158
aI25
aI8
aI11
aF0.727
aI0
aI0
aF0.0
aI0
aI2
aF0.0
aI6
aI8
aI14
aI0
aI0
aI0
aI0
aI5
aI16
aI19
aa(lp159
V0021000513
p160
aVJAN 05, 2011
p161
aVCHI @ NJN
p162
aVL
p163
aI11
aI2
aI7
aF0.286
aI0
aI1
aF0.0
aI2
aI2
aF1.0
aI1
aI1
aI2
aI0
aI0
aI0
aI0
aI0
aI6
aI0
aa(lp164
V0021000526
p165
aVJAN 07, 2011
p166
aVCHI @ PHI
p167
aVL
p168
aI22
aI3
aI5
aF0.6
aI0
aI1
aF0.0
aI1
aI2
aF0.5
aI2
aI3
aI5
aI1
aI0
aI2
aI1
aI5
aI7
aI-1
aa(lp169
V0021000540
p170
aVJAN 08, 2011
p171
aVCHI vs. BOS
p172
aVW
p173
aI20
aI0
aI4
aF0.0
aI0
aI0
aF0.0
aI0
aI0
aF0.0
aI1
aI3
aI4
aI0
aI0
aI4
aI0
aI1
aI0
aI14
aa(lp174
V0021000553
p175
aVJAN 10, 2011
p176
aVCHI vs. DET
p177
aVW
p178
aI26
aI3
aI10
aF0.3
aI0
aI0
aF0.0
aI2
aI2
aF1.0
aI2
aI3
aI5
aI0
aI0
aI2
aI0
aI2
aI8
aI3
aa(lp179
V0021000561
p180
aVJAN 12, 2011
p181
aVCHI @ CHA
p182
aVL
p183
aI18
aI1
aI6
aF0.167
aI0
aI0
aF0.0
aI2
aI4
aF0.5
aI0
aI3
aI3
aI0
aI0
aI1
aI1
aI5
aI4
aI3
aa(lp184
V0021000576
p185
aVJAN 14, 2011
p186
aVCHI @ IND
p187
aVW
p188
aI15
aI4
aI6
aF0.667
aI0
aI0
aF0.0
aI1
aI1
aF1.0
aI2
aI3
aI5
aI0
aI0
aI2
aI0
aI3
aI9
aI17
aa(lp189
V0021000591
p190
aVJAN 15, 2011
p191
aVCHI vs. MIA
p192
aVW
p193
aI16
aI1
aI3
aF0.333
aI0
aI0
aF0.0
aI0
aI2
aF0.0
aI1
aI2
aI3
aI2
aI1
aI1
aI1
aI4
aI2
aI-7
aa(lp194
V0021000600
p195
aVJAN 17, 2011
p196
aVCHI @ MEM
p197
aVW
p198
aI43
aI5
aI11
aF0.455
aI0
aI0
aF0.0
aI0
aI0
aF0.0
aI2
aI5
aI7
aI1
aI1
aI6
aI2
aI5
aI10
aI16
aa(lp199
V0021000612
p200
aVJAN 18, 2011
p201
aVCHI vs. CHA
p202
aVL
p203
aI47
aI2
aI7
aF0.286
aI0
aI0
aF0.0
aI5
aI6
aF0.833
aI4
aI5
aI9
aI0
aI0
aI6
aI0
aI1
aI9
aI-3
aa(lp204
V0021000627
p205
aVJAN 20, 2011
p206
aVCHI vs. DAL
p207
aVW
p208
aI20
aI2
aI7
aF0.286
aI0
aI0
aF0.0
aI0
aI0
aF0.0
aI3
aI3
aI6
aI0
aI1
aI0
aI1
aI5
aI4
aI-5
aa(lp209
V0021000645
p210
aVJAN 22, 2011
p211
aVCHI vs. CLE
p212
aVW
p213
aI15
aI1
aI6
aF0.167
aI0
aI0
aF0.0
aI0
aI0
aF0.0
aI1
aI1
aI2
aI0
aI0
aI1
aI0
aI4
aI2
aI2
aa(lp214
V0021000658
p215
aVJAN 24, 2011
p216
aVCHI vs. MIL
p217
aVW
p218
aI19
aI3
aI5
aF0.6
aI0
aI0
aF0.0
aI0
aI0
aF0.0
aI2
aI5
aI7
aI0
aI0
aI0
aI1
aI1
aI6
aI7
aa(lp219
V0021000687
p220
aVJAN 28, 2011
p221
aVCHI vs. ORL
p222
aVW
p223
aI17
aI3
aI4
aF0.75
aI0
aI0
aF0.0
aI1
aI2
aF0.5
aI1
aI4
aI5
aI1
aI2
aI1
aI0
aI2
aI7
aI5
aa(lp224
V0021000693
p225
aVJAN 29, 2011
p226
aVCHI vs. IND
p227
aVW
p228
aI18
aI1
aI2
aF0.5
aI0
aI0
aF0.0
aI2
aI2
aF1.0
aI2
aI5
aI7
aI0
aI0
aI4
aI0
aI2
aI4
aI13
aa(lp229
V0021000729
p230
aVFEB 02, 2011
p231
aVCHI @ LAC
p232
aVW
p233
aI34
aI4
aI8
aF0.5
aI0
aI0
aF0.0
aI1
aI3
aF0.333
aI5
aI7
aI12
aI2
aI1
aI2
aI0
aI2
aI9
aI10
aa(lp234
V0021000753
p235
aVFEB 05, 2011
p236
aVCHI @ GSW
p237
aVL
p238
aI21
aI3
aI4
aF0.75
aI0
aI0
aF0.0
aI2
aI4
aF0.5
aI4
aI4
aI8
aI2
aI0
aI0
aI0
aI1
aI8
aI-12
aa(lp239
V0021000763
p240
aVFEB 07, 2011
p241
aVCHI @ POR
p242
aVL
p243
aI27
aI1
aI3
aF0.333
aI0
aI0
aF0.0
aI0
aI0
aF0.0
aI3
aI4
aI7
aI0
aI0
aI0
aI1
aI4
aI2
aI2
aa(lp244
V0021000780
p245
aVFEB 09, 2011
p246
aVCHI @ UTA
p247
aVW
p248
aI14
aI2
aI7
aF0.286
aI0
aI1
aF0.0
aI0
aI0
aF0.0
aI2
aI3
aI5
aI0
aI1
aI1
aI0
aI3
aI4
aI7
aa(lp249
V0021000800
p250
aVFEB 12, 2011
p251
aVCHI @ NOH
p252
aVW
p253
aI17
aI3
aI4
aF0.75
aI0
aI0
aF0.0
aI0
aI0
aF0.0
aI0
aI2
aI2
aI0
aI0
aI1
aI2
aI5
aI6
aI15
aa(lp254
V0021000819
p255
aVFEB 15, 2011
p256
aVCHI vs. CHA
p257
aVW
p258
aI23
aI2
aI6
aF0.333
aI0
aI0
aF0.0
aI7
aI10
aF0.7
aI1
aI2
aI3
aI1
aI3
aI2
aI0
aI2
aI11
aI0
aa(lp259
V0021000836
p260
aVFEB 17, 2011
p261
aVCHI vs. SAS
p262
aVW
p263
aI29
aI3
aI5
aF0.6
aI0
aI0
aF0.0
aI0
aI0
aF0.0
aI1
aI5
aI6
aI2
aI0
aI2
aI1
aI2
aI6
aI5
aa(lp264
V0021000851
p265
aVFEB 23, 2011
p266
aVCHI @ TOR
p267
aVL
p268
aI16
aI2
aI8
aF0.25
aI0
aI0
aF0.0
aI2
aI2
aF1.0
aI3
aI1
aI4
aI0
aI0
aI0
aI1
aI4
aI6
aI4
aa(lp269
V0021000859
p270
aVFEB 24, 2011
p271
aVCHI vs. MIA
p272
aVW
p273
aI15
aI2
aI8
aF0.25
aI0
aI0
aF0.0
aI1
aI2
aF0.5
aI2
aI0
aI2
aI0
aI0
aI1
aI0
aI4
aI5
aI6
aa(lp274
V0021000877
p275
aVFEB 26, 2011
p276
aVCHI @ MIL
p277
aVW
p278
aI14
aI1
aI3
aF0.333
aI0
aI0
aF0.0
aI1
aI2
aF0.5
aI1
aI1
aI2
aI1
aI0
aI0
aI0
aI0
aI3
aI8
aa(lp279
V0021000890
p280
aVFEB 28, 2011
p281
aVCHI @ WAS
p282
aVW
p283
aI21
aI2
aI2
aF1.0
aI0
aI0
aF0.0
aI0
aI0
aF0.0
aI3
aI4
aI7
aI1
aI0
aI3
aI0
aI1
aI4
aI8
aa(lp284
V0021000902
p285
aVMAR 02, 2011
p286
aVCHI @ ATL
p287
aVL
p288
aI15
aI3
aI5
aF0.6
aI0
aI0
aF0.0
aI0
aI0
aF0.0
aI2
aI0
aI2
aI1
aI1
aI0
aI1
aI3
aI6
aI-2
aa(lp289
V0021000915
p290
aVMAR 04, 2011
p291
aVCHI @ ORL
p292
aVW
p293
aI16
aI2
aI2
aF1.0
aI0
aI0
aF0.0
aI1
aI2
aF0.5
aI0
aI2
aI2
aI0
aI0
aI1
aI1
aI3
aI5
aI7
aa(lp294
V0021000931
p295
aVMAR 06, 2011
p296
aVCHI @ MIA
p297
aVW
p298
aI17
aI2
aI3
aF0.667
aI0
aI0
aF0.0
aI4
aI4
aF1.0
aI0
aI2
aI2
aI0
aI0
aI0
aI0
aI3
aI8
aI-5
aa(lp299
V0021000943
p300
aVMAR 07, 2011
p301
aVCHI vs. NOH
p302
aVW
p303
aI22
aI1
aI3
aF0.333
aI0
aI0
aF0.0
aI0
aI0
aF0.0
aI1
aI4
aI5
aI1
aI0
aI0
aI0
aI0
aI2
aI-3
aa(lp304
V0021000953
p305
aVMAR 09, 2011
p306
aVCHI @ CHA
p307
aVW
p308
aI22
aI6
aI7
aF0.857
aI0
aI0
aF0.0
aI2
aI2
aF1.0
aI4
aI2
aI6
aI1
aI0
aI1
aI1
aI1
aI14
aI3
aa(lp309
V0021000971
p310
aVMAR 11, 2011
p311
aVCHI vs. ATL
p312
aVW
p313
aI20
aI4
aI6
aF0.667
aI0
aI0
aF0.0
aI0
aI0
aF0.0
aI1
aI4
aI5
aI1
aI0
aI0
aI1
aI1
aI8
aI5
aa(lp314
V0021000979
p315
aVMAR 12, 2011
p316
aVCHI vs. UTA
p317
aVW
p318
aI18
aI2
aI2
aF1.0
aI0
aI0
aF0.0
aI2
aI4
aF0.5
aI0
aI3
aI3
aI0
aI0
aI1
aI1
aI6
aI6
aI12
aa(lp319
V0021001001
p320
aVMAR 15, 2011
p321
aVCHI vs. WAS
p322
aVW
p323
aI27
aI4
aI11
aF0.364
aI0
aI0
aF0.0
aI1
aI2
aF0.5
aI5
aI8
aI13
aI1
aI0
aI0
aI0
aI4
aI9
aI20
aa(lp324
V0021001014
p325
aVMAR 17, 2011
p326
aVCHI @ NJN
p327
aVW
p328
aI20
aI3
aI4
aF0.75
aI0
aI0
aF0.0
aI1
aI2
aF0.5
aI0
aI4
aI4
aI0
aI0
aI1
aI1
aI1
aI7
aI3
aa(lp329
V0021001017
p330
aVMAR 18, 2011
p331
aVCHI @ IND
p332
aVL
p333
aI32
aI2
aI7
aF0.286
aI0
aI0
aF0.0
aI4
aI6
aF0.667
aI7
aI9
aI16
aI1
aI2
aI1
aI1
aI2
aI8
aI8
aa(lp334
V0021001047
p335
aVMAR 21, 2011
p336
aVCHI vs. SAC
p337
aVW
p338
aI18
aI1
aI3
aF0.333
aI0
aI0
aF0.0
aI0
aI0
aF0.0
aI3
aI3
aI6
aI2
aI3
aI1
aI0
aI5
aI2
aI17
aa(lp339
V0021001051
p340
aVMAR 22, 2011
p341
aVCHI @ ATL
p342
aVW
p343
aI21
aI4
aI6
aF0.667
aI0
aI0
aF0.0
aI1
aI1
aF1.0
aI3
aI5
aI8
aI1
aI0
aI2
aI2
aI4
aI9
aI16
aa(lp344
V0021001074
p345
aVMAR 25, 2011
p346
aVCHI vs. MEM
p347
aVW
p348
aI16
aI3
aI3
aF1.0
aI0
aI0
aF0.0
aI0
aI0
aF0.0
aI4
aI3
aI7
aI0
aI0
aI1
aI2
aI1
aI6
aI-2
aa(lp349
V0021001084
p350
aVMAR 26, 2011
p351
aVCHI @ MIL
p352
aVW
p353
aI13
aI1
aI2
aF0.5
aI0
aI0
aF0.0
aI0
aI0
aF0.0
aI1
aI3
aI4
aI0
aI0
aI1
aI1
aI3
aI2
aI-6
aa(lp354
V0021001098
p355
aVMAR 28, 2011
p356
aVCHI vs. PHI
p357
aVL
p358
aI16
aI2
aI6
aF0.333
aI0
aI0
aF0.0
aI0
aI0
aF0.0
aI2
aI1
aI3
aI1
aI0
aI2
aI0
aI1
aI4
aI-4
aa(lp359
V0021001113
p360
aVMAR 30, 2011
p361
aVCHI @ MIN
p362
aVW
p363
aI24
aI4
aI7
aF0.571
aI0
aI0
aF0.0
aI0
aI0
aF0.0
aI2
aI4
aI6
aI2
aI0
aI1
aI0
aI0
aI8
aI4
aa(lp364
V0021001124
p365
aVAPR 01, 2011
p366
aVCHI @ DET
p367
aVW
p368
aI13
aI1
aI1
aF1.0
aI0
aI0
aF0.0
aI3
aI4
aF0.75
aI2
aI2
aI4
aI0
aI0
aI1
aI2
aI2
aI5
aI10
aa(lp369
V0021001133
p370
aVAPR 02, 2011
p371
aVCHI vs. TOR
p372
aVW
p373
aI31
aI6
aI11
aF0.545
aI0
aI0
aF0.0
aI3
aI3
aF1.0
aI4
aI5
aI9
aI1
aI0
aI0
aI1
aI3
aI15
aI11
aa(lp374
V0021001156
p375
aVAPR 05, 2011
p376
aVCHI vs. PHX
p377
aVW
p378
aI21
aI4
aI7
aF0.571
aI0
aI0
aF0.0
aI2
aI5
aF0.4
aI1
aI8
aI9
aI1
aI0
aI0
aI1
aI2
aI10
aI0
aa(lp379
V0021001174
p380
aVAPR 07, 2011
p381
aVCHI vs. BOS
p382
aVW
p383
aI13
aI3
aI5
aF0.6
aI0
aI0
aF0.0
aI0
aI0
aF0.0
aI1
aI2
aI3
aI1
aI3
aI1
aI1
aI0
aI6
aI2
aa(lp384
V0021001180
p385
aVAPR 08, 2011
p386
aVCHI @ CLE
p387
aVW
p388
aI24
aI4
aI7
aF0.571
aI0
aI0
aF0.0
aI1
aI2
aF0.5
aI0
aI4
aI4
aI0
aI0
aI0
aI2
aI2
aI9
aI4
aa(lp389
V0021001193
p390
aVAPR 10, 2011
p391
aVCHI @ ORL
p392
aVW
p393
aI30
aI3
aI6
aF0.5
aI0
aI0
aF0.0
aI3
aI5
aF0.6
aI0
aI11
aI11
aI1
aI2
aI0
aI2
aI3
aI9
aI8
aa(lp394
V0021001213
p395
aVAPR 12, 2011
p396
aVCHI @ NYK
p397
aVW
p398
aI22
aI1
aI4
aF0.25
aI0
aI0
aF0.0
aI2
aI2
aF1.0
aI1
aI3
aI4
aI1
aI0
aI1
aI0
aI1
aI4
aI2
aa(lp399
V0021001222
p400
aVAPR 13, 2011
p401
aVCHI vs. NJN
p402
aVW
p403
aI22
aI2
aI4
aF0.5
aI0
aI0
aF0.0
aI5
aI6
aF0.833
aI2
aI6
aI8
aI0
aI0
aI3
aI1
aI2
aI9
aI15
aasS'name'
p404
VTaj Gibson
p405
sS'experience'
p406
I1
s.