(dp0
S'age'
p1
I22
sS'stats'
p2
(lp3
(lp4
V0021001220
p5
aVAPR 13, 2011
p6
aVDET @ PHI
p7
aVW
p8
aI31
aI2
aI10
aF0.2
aI0
aI3
aF0.0
aI2
aI2
aF1.0
aI0
aI7
aI7
aI5
aI1
aI2
aI1
aI4
aI6
aI-2
aa(lp9
V0021001206
p10
aVAPR 11, 2011
p11
aVDET vs. CLE
p12
aVL
p13
aI31
aI2
aI7
aF0.286
aI0
aI1
aF0.0
aI2
aI4
aF0.5
aI3
aI5
aI8
aI1
aI1
aI2
aI1
aI4
aI6
aI-8
aa(lp14
V0021001195
p15
aVAPR 10, 2011
p16
aVDET @ CHA
p17
aVW
p18
aI22
aI2
aI3
aF0.667
aI1
aI1
aF1.0
aI3
aI6
aF0.5
aI1
aI1
aI2
aI1
aI2
aI0
aI4
aI4
aI8
aI13
aa(lp19
V0021001181
p20
aVAPR 08, 2011
p21
aVDET vs. MIL
p22
aVW
p23
aI20
aI2
aI4
aF0.5
aI1
aI1
aF1.0
aI0
aI0
aF0.0
aI2
aI2
aI4
aI3
aI0
aI0
aI0
aI1
aI5
aI3
aa(lp24
V0021001167
p25
aVAPR 06, 2011
p26
aVDET vs. NJN
p27
aVW
p28
aI19
aI3
aI5
aF0.6
aI1
aI2
aF0.5
aI2
aI2
aF1.0
aI1
aI3
aI4
aI3
aI0
aI1
aI0
aI2
aI9
aI0
aa(lp29
V0021001153
p30
aVAPR 05, 2011
p31
aVDET @ WAS
p32
aVL
p33
aI25
aI6
aI10
aF0.6
aI2
aI4
aF0.5
aI0
aI1
aF0.0
aI1
aI5
aI6
aI1
aI1
aI0
aI2
aI1
aI14
aI8
aa(lp34
V0021001140
p35
aVAPR 03, 2011
p36
aVDET @ BOS
p37
aVL
p38
aI15
aI1
aI5
aF0.2
aI0
aI1
aF0.0
aI2
aI2
aF1.0
aI1
aI3
aI4
aI1
aI1
aI0
aI0
aI2
aI4
aI0
aa(lp39
V0021001124
p40
aVAPR 01, 2011
p41
aVDET vs. CHI
p42
aVL
p43
aI24
aI2
aI6
aF0.333
aI1
aI4
aF0.25
aI1
aI2
aF0.5
aI0
aI5
aI5
aI2
aI0
aI3
aI1
aI3
aI6
aI1
aa(lp44
V0021001107
p45
aVMAR 30, 2011
p46
aVDET @ IND
p47
aVL
p48
aI15
aI2
aI5
aF0.4
aI0
aI0
aF0.0
aI0
aI0
aF0.0
aI0
aI2
aI2
aI0
aI2
aI0
aI0
aI1
aI4
aI-13
aa(lp49
V0021001083
p50
aVMAR 26, 2011
p51
aVDET vs. IND
p52
aVW
p53
aI24
aI3
aI8
aF0.375
aI1
aI2
aF0.5
aI0
aI0
aF0.0
aI0
aI6
aI6
aI2
aI1
aI0
aI1
aI3
aI7
aI8
aa(lp54
V0021001071
p55
aVMAR 25, 2011
p56
aVDET @ CLE
p57
aVL
p58
aI28
aI4
aI9
aF0.444
aI1
aI4
aF0.25
aI3
aI3
aF1.0
aI3
aI4
aI7
aI3
aI2
aI3
aI0
aI2
aI12
aI5
aa(lp59
V0021001058
p60
aVMAR 23, 2011
p61
aVDET vs. MIA
p62
aVL
p63
aI14
aI1
aI4
aF0.25
aI0
aI1
aF0.0
aI0
aI0
aF0.0
aI1
aI3
aI4
aI2
aI0
aI1
aI1
aI3
aI2
aI-9
aa(lp64
V0021001036
p65
aVMAR 20, 2011
p66
aVDET @ ATL
p67
aVL
p68
aI18
aI1
aI3
aF0.333
aI1
aI2
aF0.5
aI2
aI2
aF1.0
aI2
aI0
aI2
aI1
aI0
aI0
aI0
aI4
aI5
aI-8
aa(lp69
V0021001021
p70
aVMAR 18, 2011
p71
aVDET vs. NYK
p72
aVW
p73
aI22
aI3
aI9
aF0.333
aI0
aI2
aF0.0
aI5
aI5
aF1.0
aI1
aI2
aI3
aI0
aI2
aI1
aI0
aI2
aI11
aI6
aa(lp74
V0021001005
p75
aVMAR 16, 2011
p76
aVDET vs. TOR
p77
aVW
p78
aI14
aI1
aI5
aF0.2
aI0
aI2
aF0.0
aI1
aI2
aF0.5
aI1
aI4
aI5
aI0
aI0
aI1
aI0
aI0
aI3
aI4
aa(lp79
V0021000984
p80
aVMAR 12, 2011
p81
aVDET @ DEN
p82
aVL
p83
aI21
aI3
aI3
aF1.0
aI0
aI0
aF0.0
aI2
aI2
aF1.0
aI1
aI5
aI6
aI0
aI0
aI0
aI1
aI1
aI8
aI-12
aa(lp84
V0021000973
p85
aVMAR 11, 2011
p86
aVDET @ OKC
p87
aVL
p88
aI19
aI2
aI8
aF0.25
aI0
aI1
aF0.0
aI0
aI0
aF0.0
aI3
aI2
aI5
aI1
aI0
aI1
aI1
aI3
aI4
aI-10
aa(lp89
V0021000962
p90
aVMAR 09, 2011
p91
aVDET @ SAS
p92
aVL
p93
aI24
aI2
aI6
aF0.333
aI1
aI2
aF0.5
aI0
aI0
aF0.0
aI0
aI5
aI5
aI2
aI0
aI0
aI3
aI6
aI5
aI-4
aa(lp94
V0021000934
p95
aVMAR 06, 2011
p96
aVDET vs. WAS
p97
aVW
p98
aI18
aI5
aI6
aF0.833
aI2
aI3
aF0.667
aI0
aI0
aF0.0
aI0
aI5
aI5
aI2
aI0
aI2
aI1
aI4
aI12
aI1
aa(lp99
V0021000906
p100
aVMAR 02, 2011
p101
aVDET vs. MIN
p102
aVL
p103
aI39
aI7
aI18
aF0.389
aI2
aI6
aF0.333
aI6
aI7
aF0.857
aI1
aI3
aI4
aI3
aI0
aI1
aI2
aI6
aI22
aI2
aa(lp104
V0021000899
p105
aVMAR 01, 2011
p106
aVDET @ MIL
p107
aVL
p108
aI27
aI3
aI8
aF0.375
aI0
aI3
aF0.0
aI0
aI0
aF0.0
aI0
aI5
aI5
aI1
aI0
aI0
aI1
aI4
aI6
aI-1
aa(lp109
V0021000874
p110
aVFEB 26, 2011
p111
aVDET vs. UTA
p112
aVW
p113
aI38
aI6
aI13
aF0.462
aI4
aI5
aF0.8
aI2
aI2
aF1.0
aI1
aI1
aI2
aI0
aI0
aI0
aI0
aI5
aI18
aI-6
aa(lp114
V0021000848
p115
aVFEB 23, 2011
p116
aVDET @ IND
p117
aVL
p118
aI14
aI2
aI4
aF0.5
aI0
aI0
aF0.0
aI0
aI0
aF0.0
aI2
aI1
aI3
aI1
aI0
aI2
aI1
aI0
aI4
aI-6
aa(lp119
V0021000840
p120
aVFEB 22, 2011
p121
aVDET vs. HOU
p122
aVL
p123
aI26
aI3
aI9
aF0.333
aI1
aI5
aF0.2
aI2
aI2
aF1.0
aI0
aI5
aI5
aI0
aI3
aI1
aI1
aI2
aI9
aI-9
aa(lp124
V0021000828
p125
aVFEB 16, 2011
p126
aVDET vs. IND
p127
aVW
p128
aI28
aI3
aI7
aF0.429
aI0
aI2
aF0.0
aI0
aI2
aF0.0
aI0
aI4
aI4
aI1
aI1
aI1
aI1
aI2
aI6
aI8
aa(lp129
V0021000814
p130
aVFEB 14, 2011
p131
aVDET vs. ATL
p132
aVL
p133
aI24
aI3
aI6
aF0.5
aI3
aI5
aF0.6
aI2
aI2
aF1.0
aI0
aI5
aI5
aI1
aI1
aI0
aI1
aI3
aI11
aI-4
aa(lp134
V0021000807
p135
aVFEB 13, 2011
p136
aVDET vs. POR
p137
aVL
p138
aI19
aI1
aI3
aF0.333
aI1
aI2
aF0.5
aI3
aI3
aF1.0
aI0
aI1
aI1
aI1
aI0
aI0
aI2
aI4
aI6
aI0
aa(lp139
V0021000792
p140
aVFEB 11, 2011
p141
aVDET vs. MIA
p142
aVL
p143
aI23
aI6
aI13
aF0.462
aI3
aI6
aF0.5
aI3
aI4
aF0.75
aI0
aI2
aI2
aI3
aI3
aI0
aI1
aI1
aI18
aI11
aa(lp144
V0021000773
p145
aVFEB 09, 2011
p146
aVDET @ CLE
p147
aVW
p148
aI23
aI1
aI5
aF0.2
aI1
aI3
aF0.333
aI0
aI0
aF0.0
aI0
aI5
aI5
aI3
aI0
aI0
aI0
aI2
aI3
aI10
aa(lp149
V0021000768
p150
aVFEB 08, 2011
p151
aVDET vs. SAS
p152
aVL
p153
aI28
aI3
aI6
aF0.5
aI1
aI4
aF0.25
aI3
aI4
aF0.75
aI1
aI5
aI6
aI1
aI1
aI2
aI0
aI4
aI10
aI0
aa(lp154
V0021000750
p155
aVFEB 05, 2011
p156
aVDET @ MIL
p157
aVW
p158
aI28
aI3
aI5
aF0.6
aI1
aI1
aF1.0
aI0
aI0
aF0.0
aI1
aI3
aI4
aI1
aI0
aI1
aI0
aI2
aI7
aI5
aa(lp159
V0021000739
p160
aVFEB 04, 2011
p161
aVDET vs. NJN
p162
aVW
p163
aI26
aI5
aI10
aF0.5
aI2
aI5
aF0.4
aI0
aI0
aF0.0
aI2
aI2
aI4
aI1
aI0
aI1
aI0
aI1
aI12
aI3
aa(lp164
V0021000722
p165
aVFEB 02, 2011
p166
aVDET vs. CHA
p167
aVL
p168
aI26
aI4
aI9
aF0.444
aI2
aI4
aF0.5
aI1
aI2
aF0.5
aI2
aI3
aI5
aI0
aI1
aI1
aI1
aI2
aI11
aI-8
aa(lp169
V0021000705
p170
aVJAN 30, 2011
p171
aVDET @ NYK
p172
aVL
p173
aI10
aI0
aI3
aF0.0
aI0
aI2
aF0.0
aI0
aI2
aF0.0
aI0
aI1
aI1
aI0
aI0
aI0
aI2
aI2
aI0
aI-13
aa(lp174
V0021000686
p175
aVJAN 28, 2011
p176
aVDET @ MIA
p177
aVL
p178
aI42
aI7
aI17
aF0.412
aI3
aI7
aF0.429
aI2
aI2
aF1.0
aI2
aI7
aI9
aI2
aI1
aI1
aI3
aI5
aI19
aI2
aa(lp179
V0021000671
p180
aVJAN 26, 2011
p181
aVDET vs. DEN
p182
aVL
p183
aI24
aI1
aI6
aF0.167
aI0
aI2
aF0.0
aI4
aI4
aF1.0
aI1
aI3
aI4
aI2
aI0
aI0
aI0
aI4
aI6
aI-10
aa(lp184
V0021000654
p185
aVJAN 24, 2011
p186
aVDET @ ORL
p187
aVW
p188
aI34
aI5
aI9
aF0.556
aI4
aI4
aF1.0
aI6
aI8
aF0.75
aI0
aI7
aI7
aI0
aI2
aI0
aI0
aI4
aI20
aI7
aa(lp189
V0021000642
p190
aVJAN 22, 2011
p191
aVDET vs. PHX
p192
aVW
p193
aI29
aI4
aI11
aF0.364
aI1
aI3
aF0.333
aI2
aI2
aF1.0
aI0
aI1
aI1
aI1
aI1
aI0
aI1
aI1
aI11
aI6
aa(lp194
V0021000629
p195
aVJAN 21, 2011
p196
aVDET @ NJN
p197
aVL
p198
aI20
aI1
aI4
aF0.25
aI1
aI2
aF0.5
aI2
aI2
aF1.0
aI0
aI3
aI3
aI0
aI0
aI0
aI0
aI2
aI5
aI-4
aa(lp199
V0021000616
p200
aVJAN 19, 2011
p201
aVDET @ BOS
p202
aVL
p203
aI9
aI2
aI4
aF0.5
aI0
aI1
aF0.0
aI0
aI0
aF0.0
aI0
aI0
aI0
aI0
aI0
aI1
aI0
aI2
aI4
aI-5
aa(lp204
V0021000604
p205
aVJAN 17, 2011
p206
aVDET vs. DAL
p207
aVW
p208
aI14
aI1
aI5
aF0.2
aI0
aI2
aF0.0
aI0
aI0
aF0.0
aI3
aI5
aI8
aI2
aI1
aI0
aI2
aI1
aI2
aI-3
aa(lp209
V0021000590
p210
aVJAN 15, 2011
p211
aVDET vs. SAC
p212
aVW
p213
aI12
aI1
aI2
aF0.5
aI0
aI0
aF0.0
aI0
aI0
aF0.0
aI1
aI1
aI2
aI0
aI0
aI1
aI1
aI3
aI2
aI-7
aa(lp214
V0021000578
p215
aVJAN 14, 2011
p216
aVDET @ TOR
p217
aVW
p218
aI14
aI1
aI4
aF0.25
aI0
aI0
aF0.0
aI0
aI0
aF0.0
aI2
aI2
aI4
aI3
aI1
aI1
aI1
aI1
aI2
aI5
aa(lp219
V0021000565
p220
aVJAN 12, 2011
p221
aVDET vs. MEM
p222
aVL
p223
aI10
aI1
aI1
aF1.0
aI0
aI0
aF0.0
aI0
aI0
aF0.0
aI1
aI0
aI1
aI0
aI0
aI0
aI1
aI1
aI2
aI-8
aa(lp224
V0021000553
p225
aVJAN 10, 2011
p226
aVDET @ CHI
p227
aVL
p228
aI24
aI6
aI10
aF0.6
aI2
aI4
aF0.5
aI0
aI2
aF0.0
aI2
aI2
aI4
aI2
aI0
aI1
aI0
aI3
aI14
aI-10
aa(lp229
V0021000539
p230
aVJAN 08, 2011
p231
aVDET vs. PHI
p232
aVW
p233
aI25
aI5
aI8
aF0.625
aI3
aI4
aF0.75
aI2
aI2
aF1.0
aI0
aI6
aI6
aI3
aI0
aI1
aI2
aI3
aI15
aI7
aa(lp234
V0021000511
p235
aVJAN 04, 2011
p236
aVDET @ LAL
p237
aVL
p238
aI20
aI3
aI8
aF0.375
aI0
aI1
aF0.0
aI1
aI2
aF0.5
aI3
aI0
aI3
aI2
aI0
aI1
aI0
aI0
aI7
aI-11
aa(lp239
V0021000504
p240
aVJAN 03, 2011
p241
aVDET @ UTA
p242
aVL
p243
aI17
aI2
aI8
aF0.25
aI1
aI4
aF0.25
aI2
aI2
aF1.0
aI2
aI2
aI4
aI1
aI2
aI0
aI0
aI4
aI7
aI-11
aa(lp244
V0021000482
p245
aVDEC 31, 2010
p246
aVDET @ PHX
p247
aVL
p248
aI20
aI4
aI8
aF0.5
aI1
aI3
aF0.333
aI0
aI0
aF0.0
aI2
aI6
aI8
aI1
aI0
aI0
aI1
aI4
aI9
aI-6
aa(lp249
V0021000465
p250
aVDEC 29, 2010
p251
aVDET vs. BOS
p252
aVW
p253
aI12
aI5
aI7
aF0.714
aI2
aI3
aF0.667
aI0
aI2
aF0.0
aI0
aI0
aI0
aI0
aI1
aI0
aI1
aI0
aI12
aI2
aa(lp254
V0021000445
p255
aVDEC 27, 2010
p256
aVDET @ CHA
p257
aVL
p258
aI6
aI0
aI0
aF0.0
aI0
aI0
aF0.0
aI0
aI0
aF0.0
aI0
aI1
aI1
aI0
aI2
aI0
aI0
aI0
aI0
aI1
aa(lp259
V0021000422
p260
aVDEC 22, 2010
p261
aVDET @ TOR
p262
aVW
p263
aI4
aI0
aI4
aF0.0
aI0
aI2
aF0.0
aI0
aI0
aF0.0
aI0
aI2
aI2
aI1
aI0
aI0
aI0
aI1
aI0
aI-10
aa(lp264
V0021000344
p265
aVDEC 11, 2010
p266
aVDET vs. TOR
p267
aVL
p268
aI4
aI0
aI0
aF0.0
aI0
aI0
aF0.0
aI0
aI0
aF0.0
aI0
aI1
aI1
aI1
aI0
aI0
aI0
aI0
aI0
aI-5
aa(lp269
V0021000321
p270
aVDEC 08, 2010
p271
aVDET @ NOH
p272
aVL
p273
aI20
aI1
aI9
aF0.111
aI0
aI4
aF0.0
aI0
aI0
aF0.0
aI0
aI5
aI5
aI0
aI1
aI1
aI1
aI2
aI2
aI-5
aa(lp274
V0021000313
p275
aVDEC 07, 2010
p276
aVDET @ HOU
p277
aVL
p278
aI18
aI4
aI6
aF0.667
aI2
aI2
aF1.0
aI2
aI2
aF1.0
aI0
aI1
aI1
aI0
aI0
aI0
aI0
aI1
aI12
aI9
aa(lp279
V0021000296
p280
aVDEC 05, 2010
p281
aVDET vs. CLE
p282
aVW
p283
aI2
aI0
aI1
aF0.0
aI0
aI0
aF0.0
aI0
aI0
aF0.0
aI1
aI0
aI1
aI0
aI0
aI0
aI1
aI1
aI0
aI-6
aa(lp284
V0021000279
p285
aVDEC 03, 2010
p286
aVDET vs. ORL
p287
aVL
p288
aI5
aI0
aI1
aF0.0
aI0
aI0
aF0.0
aI0
aI0
aF0.0
aI0
aI0
aI0
aI0
aI0
aI0
aI0
aI2
aI0
aI-4
aa(lp289
V0021000265
p290
aVDEC 01, 2010
p291
aVDET @ MIA
p292
aVL
p293
aI13
aI1
aI7
aF0.143
aI0
aI3
aF0.0
aI0
aI0
aF0.0
aI1
aI1
aI2
aI0
aI1
aI0
aI1
aI0
aI2
aI-5
aa(lp294
V0021000243
p295
aVNOV 28, 2010
p296
aVDET vs. NYK
p297
aVL
p298
aI8
aI0
aI2
aF0.0
aI0
aI1
aF0.0
aI0
aI0
aF0.0
aI1
aI1
aI2
aI1
aI0
aI0
aI1
aI0
aI0
aI-5
aa(lp299
V0021000225
p300
aVNOV 26, 2010
p301
aVDET vs. MIL
p302
aVW
p303
aI4
aI1
aI2
aF0.5
aI1
aI2
aF0.5
aI0
aI0
aF0.0
aI0
aI0
aI0
aI0
aI0
aI0
aI1
aI2
aI3
aI-9
aa(lp304
V0021000214
p305
aVNOV 24, 2010
p306
aVDET @ MEM
p307
aVL
p308
aI6
aI0
aI2
aF0.0
aI0
aI0
aF0.0
aI0
aI0
aF0.0
aI0
aI1
aI1
aI0
aI0
aI0
aI0
aI0
aI0
aI-3
aa(lp309
V0021000161
p310
aVNOV 17, 2010
p311
aVDET vs. LAL
p312
aVL
p313
aI23
aI4
aI9
aF0.444
aI1
aI3
aF0.333
aI3
aI3
aF1.0
aI3
aI4
aI7
aI0
aI0
aI2
aI1
aI3
aI12
aI-8
aa(lp314
V0021000149
p315
aVNOV 15, 2010
p316
aVDET @ GSW
p317
aVL
p318
aI25
aI5
aI7
aF0.714
aI2
aI3
aF0.667
aI2
aI4
aF0.5
aI1
aI2
aI3
aI3
aI0
aI0
aI1
aI0
aI14
aI2
aa(lp319
V0021000129
p320
aVNOV 12, 2010
p321
aVDET @ LAC
p322
aVW
p323
aI25
aI5
aI7
aF0.714
aI2
aI2
aF1.0
aI0
aI0
aF0.0
aI0
aI4
aI4
aI0
aI1
aI0
aI2
aI3
aI12
aI5
aa(lp324
V0021000106
p325
aVNOV 09, 2010
p326
aVDET @ POR
p327
aVL
p328
aI23
aI4
aI5
aF0.8
aI3
aI3
aF1.0
aI4
aI4
aF1.0
aI2
aI6
aI8
aI1
aI1
aI1
aI1
aI2
aI15
aI-15
aa(lp329
V0021000091
p330
aVNOV 07, 2010
p331
aVDET vs. GSW
p332
aVW
p333
aI17
aI4
aI5
aF0.8
aI1
aI1
aF1.0
aI0
aI0
aF0.0
aI1
aI1
aI2
aI1
aI0
aI0
aI0
aI5
aI9
aI-4
aa(lp334
V0021000071
p335
aVNOV 05, 2010
p336
aVDET vs. CHA
p337
aVW
p338
aI18
aI3
aI6
aF0.5
aI2
aI2
aF1.0
aI0
aI0
aF0.0
aI0
aI2
aI2
aI0
aI1
aI0
aI2
aI1
aI8
aI17
aa(lp339
V0021000054
p340
aVNOV 03, 2010
p341
aVDET @ ATL
p342
aVL
p343
aI24
aI2
aI12
aF0.167
aI0
aI3
aF0.0
aI2
aI2
aF1.0
aI2
aI2
aI4
aI3
aI0
aI0
aI0
aI3
aI6
aI4
aa(lp344
V0021000049
p345
aVNOV 02, 2010
p346
aVDET vs. BOS
p347
aVL
p348
aI27
aI7
aI14
aF0.5
aI1
aI4
aF0.25
aI1
aI2
aF0.5
aI1
aI4
aI5
aI0
aI0
aI0
aI2
aI5
aI16
aI-13
aa(lp349
V0021000035
p350
aVOCT 30, 2010
p351
aVDET @ CHI
p352
aVL
p353
aI17
aI2
aI6
aF0.333
aI1
aI2
aF0.5
aI0
aI0
aF0.0
aI0
aI6
aI6
aI0
aI0
aI0
aI1
aI1
aI5
aI-3
aa(lp354
V0021000024
p355
aVOCT 29, 2010
p356
aVDET vs. OKC
p357
aVL
p358
aI25
aI2
aI11
aF0.182
aI2
aI4
aF0.5
aI0
aI0
aF0.0
aI1
aI3
aI4
aI0
aI0
aI1
aI1
aI3
aI6
aI-1
aa(lp359
V0021000005
p360
aVOCT 27, 2010
p361
aVDET @ NJN
p362
aVL
p363
aI21
aI2
aI8
aF0.25
aI0
aI2
aF0.0
aI0
aI0
aF0.0
aI0
aI3
aI3
aI1
aI0
aI0
aI0
aI2
aI4
aI-4
aasS'name'
p364
VAustin Daye
p365
sS'experience'
p366
I1
s.