(dp0
S'age'
p1
I23
sS'stats'
p2
(lp3
(lp4
V0021001218
p5
aVAPR 13, 2011
p6
aVCLE vs. WAS
p7
aVW
p8
aI27
aI3
aI9
aF0.333
aI0
aI2
aF0.0
aI0
aI0
aF0.0
aI1
aI3
aI4
aI3
aI0
aI0
aI3
aI0
aI6
aI-9
aa(lp9
V0021001206
p10
aVAPR 11, 2011
p11
aVCLE @ DET
p12
aVW
p13
aI30
aI6
aI8
aF0.75
aI0
aI0
aF0.0
aI4
aI5
aF0.8
aI0
aI2
aI2
aI2
aI1
aI1
aI1
aI3
aI16
aI-3
aa(lp14
V0021001190
p15
aVAPR 09, 2011
p16
aVCLE @ MIL
p17
aVL
p18
aI30
aI5
aI5
aF1.0
aI2
aI2
aF1.0
aI2
aI2
aF1.0
aI3
aI2
aI5
aI1
aI1
aI1
aI1
aI3
aI14
aI-16
aa(lp19
V0021001180
p20
aVAPR 08, 2011
p21
aVCLE vs. CHI
p22
aVL
p23
aI27
aI5
aI10
aF0.5
aI1
aI3
aF0.333
aI0
aI0
aF0.0
aI1
aI4
aI5
aI0
aI1
aI0
aI1
aI4
aI11
aI-16
aa(lp24
V0021001166
p25
aVAPR 06, 2011
p26
aVCLE @ TOR
p27
aVW
p28
aI36
aI4
aI9
aF0.444
aI0
aI2
aF0.0
aI2
aI2
aF1.0
aI5
aI4
aI9
aI0
aI0
aI0
aI1
aI2
aI10
aI11
aa(lp29
V0021001150
p30
aVAPR 05, 2011
p31
aVCLE vs. CHA
p32
aVW
p33
aI32
aI5
aI8
aF0.625
aI2
aI3
aF0.667
aI1
aI2
aF0.5
aI3
aI3
aI6
aI1
aI1
aI0
aI3
aI2
aI13
aI-1
aa(lp34
V0021001143
p35
aVAPR 03, 2011
p36
aVCLE @ NYK
p37
aVL
p38
aI28
aI2
aI4
aF0.5
aI1
aI2
aF0.5
aI6
aI6
aF1.0
aI0
aI4
aI4
aI1
aI0
aI1
aI1
aI3
aI11
aI0
aa(lp39
V0021001123
p40
aVAPR 01, 2011
p41
aVCLE @ WAS
p42
aVL
p43
aI24
aI5
aI9
aF0.556
aI2
aI2
aF1.0
aI0
aI0
aF0.0
aI2
aI3
aI5
aI0
aI1
aI1
aI2
aI3
aI12
aI-4
aa(lp44
V0021001106
p45
aVMAR 30, 2011
p46
aVCLE @ CHA
p47
aVL
p48
aI24
aI4
aI7
aF0.571
aI1
aI1
aF1.0
aI1
aI2
aF0.5
aI3
aI1
aI4
aI0
aI1
aI0
aI0
aI1
aI10
aI-7
aa(lp49
V0021001101
p50
aVMAR 29, 2011
p51
aVCLE vs. MIA
p52
aVW
p53
aI17
aI3
aI3
aF1.0
aI0
aI0
aF0.0
aI0
aI0
aF0.0
aI1
aI3
aI4
aI1
aI0
aI1
aI1
aI4
aI6
aI13
aa(lp54
V0021001088
p55
aVMAR 27, 2011
p56
aVCLE vs. ATL
p57
aVL
p58
aI26
aI4
aI11
aF0.364
aI0
aI0
aF0.0
aI2
aI3
aF0.667
aI1
aI5
aI6
aI1
aI1
aI0
aI1
aI3
aI10
aI-1
aa(lp59
V0021001071
p60
aVMAR 25, 2011
p61
aVCLE vs. DET
p62
aVW
p63
aI28
aI4
aI10
aF0.4
aI0
aI2
aF0.0
aI0
aI0
aF0.0
aI2
aI4
aI6
aI0
aI0
aI0
aI1
aI3
aI8
aI10
aa(lp64
V0021001055
p65
aVMAR 23, 2011
p66
aVCLE vs. NJN
p67
aVL
p68
aI27
aI4
aI11
aF0.364
aI0
aI3
aF0.0
aI2
aI3
aF0.667
aI1
aI2
aI3
aI0
aI1
aI2
aI1
aI3
aI10
aI-1
aa(lp69
V0021001044
p70
aVMAR 21, 2011
p71
aVCLE vs. ORL
p72
aVL
p73
aI26
aI3
aI10
aF0.3
aI0
aI2
aF0.0
aI0
aI0
aF0.0
aI2
aI1
aI3
aI1
aI1
aI0
aI0
aI1
aI6
aI-12
aa(lp74
V0021001029
p75
aVMAR 19, 2011
p76
aVCLE @ LAC
p77
aVL
p78
aI31
aI3
aI5
aF0.6
aI0
aI0
aF0.0
aI3
aI3
aF1.0
aI1
aI6
aI7
aI1
aI1
aI0
aI0
aI0
aI9
aI6
aa(lp79
V0021001016
p80
aVMAR 17, 2011
p81
aVCLE @ POR
p82
aVL
p83
aI27
aI0
aI5
aF0.0
aI0
aI0
aF0.0
aI2
aI2
aF1.0
aI0
aI3
aI3
aI0
aI0
aI0
aI2
aI2
aI2
aI-33
aa(lp84
V0021001011
p85
aVMAR 16, 2011
p86
aVCLE @ SAC
p87
aVW
p88
aI24
aI2
aI2
aF1.0
aI0
aI0
aF0.0
aI4
aI4
aF1.0
aI0
aI4
aI4
aI0
aI0
aI0
aI2
aI1
aI8
aI5
aa(lp89
V0021000985
p90
aVMAR 13, 2011
p91
aVCLE vs. OKC
p92
aVL
p93
aI24
aI2
aI6
aF0.333
aI0
aI1
aF0.0
aI4
aI6
aF0.667
aI1
aI2
aI3
aI1
aI0
aI1
aI1
aI1
aI8
aI0
aa(lp94
V0021000959
p95
aVMAR 09, 2011
p96
aVCLE @ MIL
p97
aVL
p98
aI26
aI4
aI8
aF0.5
aI0
aI0
aF0.0
aI4
aI4
aF1.0
aI0
aI1
aI1
aI1
aI2
aI0
aI1
aI2
aI12
aI-29
aa(lp99
V0021000948
p100
aVMAR 08, 2011
p101
aVCLE vs. GSW
p102
aVL
p103
aI21
aI2
aI7
aF0.286
aI0
aI3
aF0.0
aI0
aI0
aF0.0
aI4
aI4
aI8
aI0
aI0
aI1
aI2
aI4
aI4
aI-4
aa(lp104
V0021000936
p105
aVMAR 06, 2011
p106
aVCLE vs. NOH
p107
aVL
p108
aI29
aI3
aI7
aF0.429
aI0
aI2
aF0.0
aI0
aI0
aF0.0
aI0
aI5
aI5
aI2
aI1
aI2
aI1
aI1
aI6
aI-6
aa(lp109
V0021000919
p110
aVMAR 04, 2011
p111
aVCLE @ NYK
p112
aVW
p113
aI18
aI1
aI1
aF1.0
aI0
aI0
aF0.0
aI2
aI2
aF1.0
aI0
aI2
aI2
aI0
aI0
aI0
aI1
aI4
aI4
aI0
aa(lp114
V0021000903
p115
aVMAR 02, 2011
p116
aVCLE vs. SAS
p117
aVL
p118
aI38
aI6
aI13
aF0.462
aI2
aI3
aF0.667
aI4
aI4
aF1.0
aI3
aI4
aI7
aI2
aI1
aI0
aI0
aI3
aI18
aI2
aa(lp119
V0021000881
p120
aVFEB 27, 2011
p121
aVCLE vs. PHI
p122
aVL
p123
aI12
aI1
aI4
aF0.25
aI0
aI1
aF0.0
aI2
aI4
aF0.5
aI0
aI0
aI0
aI0
aI1
aI0
aI1
aI0
aI4
aI-11
aa(lp124
V0021000865
p125
aVFEB 25, 2011
p126
aVCLE vs. NYK
p127
aVW
p128
aI24
aI3
aI4
aF0.75
aI2
aI3
aF0.667
aI3
aI4
aF0.75
aI2
aI4
aI6
aI0
aI0
aI1
aI1
aI2
aI11
aI-16
aa(lp129
V0021000720
p130
aVFEB 02, 2011
p131
aVCLE vs. IND
p132
aVL
p133
aI11
aI1
aI1
aF1.0
aI0
aI0
aF0.0
aI0
aI0
aF0.0
aI1
aI0
aI1
aI1
aI1
aI0
aI0
aI1
aI2
aI-9
aa(lp134
V0021000710
p135
aVJAN 31, 2011
p136
aVCLE @ MIA
p137
aVL
p138
aI9
aI1
aI3
aF0.333
aI0
aI0
aF0.0
aI0
aI0
aF0.0
aI0
aI0
aI0
aI0
aI0
aI0
aI0
aI1
aI2
aI-8
aa(lp139
V0021000703
p140
aVJAN 30, 2011
p141
aVCLE @ ORL
p142
aVL
p143
aI8
aI1
aI1
aF1.0
aI0
aI0
aF0.0
aI0
aI0
aF0.0
aI0
aI0
aI0
aI0
aI0
aI0
aI1
aI0
aI2
aI9
aa(lp144
V0021000685
p145
aVJAN 28, 2011
p146
aVCLE vs. DEN
p147
aVL
p148
aI1
aI0
aI1
aF0.0
aI0
aI0
aF0.0
aI0
aI0
aF0.0
aI0
aI0
aI0
aI0
aI0
aI0
aI0
aI0
aI0
aI0
aa(lp149
V0021000633
p150
aVJAN 21, 2011
p151
aVCLE vs. MIL
p152
aVL
p153
aI23
aI1
aI1
aF1.0
aI0
aI0
aF0.0
aI0
aI0
aF0.0
aI0
aI4
aI4
aI0
aI0
aI0
aI0
aI0
aI2
aI-13
aa(lp154
V0021000613
p155
aVJAN 19, 2011
p156
aVCLE vs. PHX
p157
aVL
p158
aI20
aI1
aI2
aF0.5
aI0
aI1
aF0.0
aI1
aI2
aF0.5
aI1
aI2
aI3
aI2
aI1
aI0
aI0
aI2
aI3
aI-7
aa(lp159
V0021000594
p160
aVJAN 15, 2011
p161
aVCLE @ DEN
p162
aVL
p163
aI41
aI4
aI13
aF0.308
aI1
aI2
aF0.5
aI3
aI3
aF1.0
aI2
aI6
aI8
aI3
aI6
aI1
aI4
aI3
aI12
aI-30
aa(lp164
V0021000583
p165
aVJAN 14, 2011
p166
aVCLE @ UTA
p167
aVL
p168
aI31
aI1
aI3
aF0.333
aI0
aI1
aF0.0
aI0
aI0
aF0.0
aI0
aI0
aI0
aI1
aI0
aI0
aI0
aI1
aI2
aI-6
aa(lp169
V0021000560
p170
aVJAN 11, 2011
p171
aVCLE @ LAL
p172
aVL
p173
aI30
aI6
aI12
aF0.5
aI0
aI2
aF0.0
aI0
aI0
aF0.0
aI4
aI4
aI8
aI0
aI3
aI1
aI1
aI2
aI12
aI-17
aa(lp174
V0021000547
p175
aVJAN 09, 2011
p176
aVCLE @ PHX
p177
aVL
p178
aI21
aI2
aI5
aF0.4
aI1
aI1
aF1.0
aI3
aI4
aF0.75
aI0
aI0
aI0
aI2
aI0
aI0
aI2
aI3
aI8
aI-2
aa(lp179
V0021000534
p180
aVJAN 07, 2011
p181
aVCLE @ GSW
p182
aVL
p183
aI25
aI0
aI3
aF0.0
aI0
aI1
aF0.0
aI0
aI2
aF0.0
aI0
aI3
aI3
aI1
aI3
aI0
aI1
aI3
aI0
aI-13
aa(lp184
V0021000512
p185
aVJAN 05, 2011
p186
aVCLE vs. TOR
p187
aVL
p188
aI25
aI2
aI4
aF0.5
aI1
aI1
aF1.0
aI4
aI5
aF0.8
aI0
aI2
aI2
aI2
aI1
aI1
aI2
aI3
aI9
aI0
aa(lp189
V0021000495
p190
aVJAN 02, 2011
p191
aVCLE vs. DAL
p192
aVL
p193
aI20
aI2
aI2
aF1.0
aI0
aI0
aF0.0
aI1
aI2
aF0.5
aI2
aI3
aI5
aI1
aI1
aI0
aI2
aI1
aI5
aI9
aa(lp194
V0021000485
p195
aVJAN 01, 2011
p196
aVCLE @ CHI
p197
aVL
p198
aI28
aI1
aI4
aF0.25
aI0
aI1
aF0.0
aI4
aI4
aF1.0
aI1
aI1
aI2
aI1
aI0
aI0
aI0
aI2
aI6
aI-1
aa(lp199
V0021000463
p200
aVDEC 29, 2010
p201
aVCLE @ CHA
p202
aVL
p203
aI27
aI1
aI3
aF0.333
aI1
aI2
aF0.5
aI0
aI0
aF0.0
aI2
aI7
aI9
aI1
aI2
aI1
aI2
aI4
aI3
aI6
aa(lp204
V0021000393
p205
aVDEC 18, 2010
p206
aVWAS vs. MIA
p207
aVL
p208
aI1
aI0
aI0
aF0.0
aI0
aI0
aF0.0
aI0
aI0
aF0.0
aI0
aI0
aI0
aI0
aI0
aI0
aI0
aI0
aI0
aI0
aa(lp209
V0021000378
p210
aVDEC 16, 2010
p211
aVWAS @ NJN
p212
aVL
p213
aI5
aI0
aI0
aF0.0
aI0
aI0
aF0.0
aI0
aI0
aF0.0
aI0
aI0
aI0
aI0
aI0
aI0
aI0
aI1
aI0
aI-3
aa(lp214
V0021000325
p215
aVDEC 08, 2010
p216
aVWAS @ SAC
p217
aVL
p218
aI3
aI0
aI2
aF0.0
aI0
aI0
aF0.0
aI0
aI0
aF0.0
aI0
aI1
aI1
aI0
aI0
aI0
aI0
aI0
aI0
aI-12
aa(lp219
V0021000315
p220
aVDEC 07, 2010
p221
aVWAS @ LAL
p222
aVL
p223
aI0
aI0
aI0
aF0.0
aI0
aI0
aF0.0
aI0
aI0
aF0.0
aI0
aI0
aI0
aI0
aI0
aI0
aI0
aI0
aI0
aI0
aa(lp224
V0021000300
p225
aVDEC 05, 2010
p226
aVWAS @ PHX
p227
aVL
p228
aI17
aI3
aI6
aF0.5
aI0
aI2
aF0.0
aI2
aI2
aF1.0
aI2
aI1
aI3
aI0
aI0
aI0
aI1
aI1
aI8
aI-18
aa(lp229
V0021000277
p230
aVDEC 03, 2010
p231
aVWAS vs. POR
p232
aVW
p233
aI19
aI1
aI3
aF0.333
aI0
aI0
aF0.0
aI1
aI2
aF0.5
aI2
aI2
aI4
aI1
aI1
aI0
aI2
aI1
aI3
aI2
aa(lp234
V0021000263
p235
aVDEC 01, 2010
p236
aVWAS @ TOR
p237
aVL
p238
aI14
aI2
aI3
aF0.667
aI0
aI0
aF0.0
aI0
aI0
aF0.0
aI0
aI4
aI4
aI1
aI1
aI0
aI1
aI1
aI4
aI-8
aa(lp239
V0021000250
p240
aVNOV 29, 2010
p241
aVWAS @ MIA
p242
aVL
p243
aI24
aI2
aI4
aF0.5
aI0
aI0
aF0.0
aI3
aI4
aF0.75
aI0
aI1
aI1
aI0
aI1
aI0
aI1
aI5
aI7
aI-6
aa(lp244
V0021000235
p245
aVNOV 27, 2010
p246
aVWAS vs. ORL
p247
aVL
p248
aI30
aI3
aI5
aF0.6
aI0
aI0
aF0.0
aI2
aI4
aF0.5
aI5
aI2
aI7
aI2
aI4
aI0
aI2
aI0
aI8
aI2
aa(lp249
V0021000220
p250
aVNOV 25, 2010
p251
aVWAS @ ATL
p252
aVL
p253
aI13
aI1
aI4
aF0.25
aI0
aI0
aF0.0
aI0
aI0
aF0.0
aI2
aI0
aI2
aI1
aI0
aI0
aI1
aI1
aI2
aI-12
aa(lp254
V0021000205
p255
aVNOV 23, 2010
p256
aVWAS vs. PHI
p257
aVW
p258
aI0
aI0
aI0
aF0.0
aI0
aI0
aF0.0
aI0
aI0
aF0.0
aI0
aI0
aI0
aI0
aI0
aI0
aI0
aI0
aI0
aI0
aa(lp259
V0021000141
p260
aVNOV 14, 2010
p261
aVSAS @ OKC
p262
aVW
p263
aI2
aI0
aI0
aF0.0
aI0
aI0
aF0.0
aI0
aI0
aF0.0
aI0
aI0
aI0
aI0
aI0
aI0
aI0
aI0
aI0
aI-3
aa(lp264
V0021000138
p265
aVNOV 13, 2010
p266
aVSAS vs. PHI
p267
aVW
p268
aI15
aI1
aI3
aF0.333
aI0
aI0
aF0.0
aI0
aI0
aF0.0
aI2
aI0
aI2
aI0
aI0
aI1
aI3
aI3
aI2
aI-9
aa(lp269
V0021000116
p270
aVNOV 10, 2010
p271
aVSAS vs. LAC
p272
aVW
p273
aI1
aI0
aI0
aF0.0
aI0
aI0
aF0.0
aI0
aI0
aF0.0
aI0
aI1
aI1
aI0
aI0
aI1
aI0
aI0
aI0
aI1
aa(lp274
V0021000095
p275
aVNOV 08, 2010
p276
aVSAS @ CHA
p277
aVW
p278
aI0
aI0
aI0
aF0.0
aI0
aI0
aF0.0
aI0
aI0
aF0.0
aI0
aI0
aI0
aI0
aI0
aI0
aI0
aI0
aI0
aI0
aa(lp279
V0021000062
p280
aVNOV 03, 2010
p281
aVSAS @ PHX
p282
aVW
p283
aI0
aI0
aI0
aF0.0
aI0
aI0
aF0.0
aI0
aI0
aF0.0
aI0
aI0
aI0
aI0
aI0
aI0
aI0
aI0
aI0
aI0
aasS'name'
p284
VAlonzo Gee
p285
sS'experience'
p286
I1
s.