(dp0
S'age'
p1
I27
sS'stats'
p2
(lp3
(lp4
V0021000597
p5
aVJAN 16, 2011
p6
aVSAS vs. DEN
p7
aVW
p8
aI2
aI0
aI0
aF0.0
aI0
aI0
aF0.0
aI0
aI0
aF0.0
aI0
aI1
aI1
aI1
aI0
aI0
aI0
aI0
aI0
aI0
aa(lp9
V0021000620
p10
aVJAN 19, 2011
p11
aVSAS vs. TOR
p12
aVW
p13
aI2
aI0
aI0
aF0.0
aI0
aI0
aF0.0
aI0
aI0
aF0.0
aI0
aI1
aI1
aI0
aI0
aI0
aI0
aI1
aI0
aI2
aa(lp14
V0021000636
p15
aVJAN 21, 2011
p16
aVSAS vs. NYK
p17
aVW
p18
aI9
aI1
aI2
aF0.5
aI1
aI2
aF0.5
aI1
aI2
aF0.5
aI0
aI0
aI0
aI0
aI0
aI0
aI0
aI1
aI4
aI7
aa(lp19
V0021000646
p20
aVJAN 22, 2011
p21
aVSAS @ NOH
p22
aVL
p23
aI12
aI2
aI2
aF1.0
aI0
aI0
aF0.0
aI1
aI2
aF0.5
aI0
aI2
aI2
aI0
aI1
aI0
aI0
aI1
aI5
aI0
aa(lp24
V0021000662
p25
aVJAN 24, 2011
p26
aVSAS @ GSW
p27
aVW
p28
aI2
aI0
aI1
aF0.0
aI0
aI1
aF0.0
aI0
aI0
aF0.0
aI0
aI0
aI0
aI0
aI0
aI0
aI0
aI0
aI0
aI-4
aa(lp29
V0021000698
p30
aVJAN 29, 2011
p31
aVSAS vs. HOU
p32
aVW
p33
aI3
aI0
aI0
aF0.0
aI0
aI0
aF0.0
aI0
aI0
aF0.0
aI0
aI0
aI0
aI0
aI0
aI0
aI0
aI1
aI0
aI-1
aa(lp34
V0021000716
p35
aVFEB 01, 2011
p36
aVSAS @ POR
p37
aVL
p38
aI1
aI0
aI1
aF0.0
aI0
aI0
aF0.0
aI0
aI0
aF0.0
aI0
aI0
aI0
aI0
aI1
aI0
aI0
aI0
aI0
aI0
aa(lp39
V0021001163
p40
aVAPR 06, 2011
p41
aVWAS @ IND
p42
aVL
p43
aI17
aI4
aI5
aF0.8
aI1
aI1
aF1.0
aI0
aI0
aF0.0
aI0
aI2
aI2
aI2
aI1
aI0
aI0
aI2
aI9
aI-5
aa(lp44
V0021001179
p45
aVAPR 08, 2011
p46
aVWAS @ BOS
p47
aVL
p48
aI26
aI1
aI4
aF0.25
aI0
aI1
aF0.0
aI0
aI0
aF0.0
aI1
aI5
aI6
aI0
aI1
aI1
aI1
aI2
aI2
aI1
aa(lp49
V0021001188
p50
aVAPR 09, 2011
p51
aVWAS vs. ATL
p52
aVW
p53
aI22
aI4
aI8
aF0.5
aI2
aI3
aF0.667
aI0
aI0
aF0.0
aI0
aI0
aI0
aI1
aI1
aI2
aI0
aI2
aI10
aI19
aa(lp54
V0021001205
p55
aVAPR 11, 2011
p56
aVWAS vs. BOS
p57
aVW
p58
aI22
aI2
aI3
aF0.667
aI1
aI2
aF0.5
aI2
aI5
aF0.4
aI0
aI1
aI1
aI0
aI4
aI0
aI3
aI4
aI7
aI13
aa(lp59
V0021001218
p60
aVAPR 13, 2011
p61
aVWAS @ CLE
p62
aVL
p63
aI24
aI1
aI6
aF0.167
aI1
aI3
aF0.333
aI0
aI0
aF0.0
aI0
aI2
aI2
aI4
aI0
aI2
aI1
aI4
aI3
aI-19
aasS'name'
p64
VLarry Owens
p65
sS'experience'
p66
I0
s.