(dp0
S'age'
p1
I21
sS'stats'
p2
(lp3
(lp4
V0021000871
p5
aVFEB 25, 2011
p6
aVLAL vs. LAC
p7
aVW
p8
aI7
aI2
aI5
aF0.4
aI0
aI0
aF0.0
aI0
aI0
aF0.0
aI0
aI2
aI2
aI0
aI0
aI0
aI0
aI0
aI4
aI-8
aa(lp9
V0021000846
p10
aVFEB 22, 2011
p11
aVLAL vs. ATL
p12
aVW
p13
aI8
aI2
aI4
aF0.5
aI0
aI1
aF0.0
aI4
aI4
aF1.0
aI2
aI0
aI2
aI0
aI0
aI1
aI1
aI1
aI8
aI-3
aa(lp14
V0021000812
p15
aVFEB 14, 2011
p16
aVLAL @ CHA
p17
aVL
p18
aI5
aI0
aI2
aF0.0
aI0
aI1
aF0.0
aI3
aI4
aF0.75
aI2
aI0
aI2
aI0
aI0
aI0
aI1
aI1
aI3
aI5
aa(lp19
V0021000805
p20
aVFEB 13, 2011
p21
aVLAL @ ORL
p22
aVL
p23
aI1
aI0
aI1
aF0.0
aI0
aI0
aF0.0
aI0
aI0
aF0.0
aI0
aI0
aI0
aI0
aI0
aI0
aI0
aI0
aI0
aI4
aa(lp24
V0021000718
p25
aVFEB 01, 2011
p26
aVLAL vs. HOU
p27
aVW
p28
aI4
aI0
aI0
aF0.0
aI0
aI0
aF0.0
aI0
aI0
aF0.0
aI0
aI1
aI1
aI0
aI0
aI0
aI0
aI1
aI0
aI-1
aa(lp29
V0021000667
p30
aVJAN 25, 2011
p31
aVLAL vs. UTA
p32
aVW
p33
aI8
aI1
aI3
aF0.333
aI1
aI2
aF0.5
aI2
aI2
aF1.0
aI1
aI0
aI1
aI1
aI1
aI0
aI1
aI1
aI5
aI-9
aa(lp34
V0021000621
p35
aVJAN 19, 2011
p36
aVLAL @ DAL
p37
aVL
p38
aI0
aI0
aI0
aF0.0
aI0
aI0
aF0.0
aI0
aI0
aF0.0
aI0
aI0
aI0
aI0
aI0
aI0
aI0
aI0
aI0
aI2
aa(lp39
V0021000560
p40
aVJAN 11, 2011
p41
aVLAL vs. CLE
p42
aVW
p43
aI6
aI3
aI5
aF0.6
aI1
aI1
aF1.0
aI0
aI1
aF0.0
aI1
aI0
aI1
aI0
aI2
aI0
aI1
aI0
aI7
aI5
aa(lp44
V0021000420
p45
aVDEC 21, 2010
p46
aVLAL vs. MIL
p47
aVL
p48
aI1
aI0
aI0
aF0.0
aI0
aI0
aF0.0
aI0
aI0
aF0.0
aI0
aI0
aI0
aI0
aI0
aI0
aI0
aI0
aI0
aI2
aa(lp49
V0021000367
p50
aVDEC 15, 2010
p51
aVLAL @ IND
p52
aVW
p53
aI2
aI0
aI1
aF0.0
aI0
aI0
aF0.0
aI0
aI0
aF0.0
aI1
aI2
aI3
aI0
aI0
aI0
aI0
aI0
aI0
aI-1
aa(lp54
V0021000351
p55
aVDEC 12, 2010
p56
aVLAL @ NJN
p57
aVW
p58
aI4
aI1
aI1
aF1.0
aI0
aI0
aF0.0
aI0
aI0
aF0.0
aI0
aI1
aI1
aI0
aI0
aI0
aI0
aI0
aI2
aI1
aa(lp59
V0021000287
p60
aVDEC 03, 2010
p61
aVLAL vs. SAC
p62
aVW
p63
aI9
aI4
aI4
aF1.0
aI0
aI0
aF0.0
aI1
aI1
aF1.0
aI0
aI0
aI0
aI0
aI0
aI0
aI0
aI0
aI9
aI5
aa(lp64
V0021000194
p65
aVNOV 21, 2010
p66
aVLAL vs. GSW
p67
aVW
p68
aI15
aI3
aI5
aF0.6
aI0
aI0
aF0.0
aI1
aI4
aF0.25
aI4
aI1
aI5
aI0
aI0
aI1
aI0
aI1
aI7
aI-3
aa(lp69
V0021000176
p70
aVNOV 19, 2010
p71
aVLAL @ MIN
p72
aVW
p73
aI3
aI1
aI1
aF1.0
aI0
aI0
aF0.0
aI0
aI0
aF0.0
aI0
aI1
aI1
aI0
aI0
aI1
aI0
aI0
aI2
aI-8
aa(lp74
V0021000161
p75
aVNOV 17, 2010
p76
aVLAL @ DET
p77
aVW
p78
aI8
aI1
aI5
aF0.2
aI0
aI0
aF0.0
aI2
aI2
aF1.0
aI3
aI1
aI4
aI0
aI0
aI1
aI0
aI0
aI4
aI-13
aa(lp79
V0021000155
p80
aVNOV 16, 2010
p81
aVLAL @ MIL
p82
aVW
p83
aI5
aI1
aI2
aF0.5
aI0
aI0
aF0.0
aI1
aI1
aF1.0
aI0
aI1
aI1
aI0
aI0
aI0
aI0
aI0
aI3
aI1
aa(lp84
V0021000143
p85
aVNOV 14, 2010
p86
aVLAL vs. PHX
p87
aVL
p88
aI4
aI0
aI2
aF0.0
aI0
aI0
aF0.0
aI0
aI0
aF0.0
aI0
aI0
aI0
aI0
aI0
aI0
aI0
aI0
aI0
aI3
aa(lp89
V0021000065
p90
aVNOV 03, 2010
p91
aVLAL @ SAC
p92
aVW
p93
aI2
aI0
aI2
aF0.0
aI0
aI0
aF0.0
aI0
aI0
aF0.0
aI0
aI0
aI0
aI0
aI0
aI0
aI0
aI0
aI0
aI-3
aa(lp94
V0021000053
p95
aVNOV 02, 2010
p96
aVLAL vs. MEM
p97
aVW
p98
aI11
aI2
aI4
aF0.5
aI0
aI0
aF0.0
aI0
aI0
aF0.0
aI1
aI1
aI2
aI1
aI0
aI1
aI0
aI1
aI4
aI-9
aa(lp99
V0021000043
p100
aVOCT 31, 2010
p101
aVLAL vs. GSW
p102
aVW
p103
aI12
aI0
aI4
aF0.0
aI0
aI0
aF0.0
aI4
aI4
aF1.0
aI0
aI1
aI1
aI0
aI1
aI0
aI2
aI1
aI4
aI-12
aasS'name'
p104
VDevin Ebanks
p105
sS'experience'
p106
I0
s.