(dp0
S'age'
p1
I23
sS'stats'
p2
(lp3
(lp4
V0021000009
p5
aVOCT 27, 2010
p6
aVMIN vs. SAC
p7
aVL
p8
aI18
aI5
aI10
aF0.5
aI0
aI2
aF0.0
aI3
aI4
aF0.75
aI3
aI1
aI4
aI1
aI1
aI0
aI1
aI4
aI13
aI14
aa(lp9
V0021000026
p10
aVOCT 29, 2010
p11
aVMIN vs. MIL
p12
aVW
p13
aI27
aI4
aI10
aF0.4
aI2
aI6
aF0.333
aI2
aI3
aF0.667
aI3
aI0
aI3
aI1
aI0
aI1
aI5
aI4
aI12
aI5
aa(lp14
V0021000036
p15
aVOCT 30, 2010
p16
aVMIN @ MEM
p17
aVL
p18
aI25
aI2
aI10
aF0.2
aI0
aI2
aF0.0
aI2
aI3
aF0.667
aI1
aI6
aI7
aI1
aI1
aI0
aI0
aI2
aI6
aI-2
aa(lp19
V0021000050
p20
aVNOV 02, 2010
p21
aVMIN @ MIA
p22
aVL
p23
aI24
aI4
aI12
aF0.333
aI1
aI3
aF0.333
aI4
aI6
aF0.667
aI2
aI1
aI3
aI5
aI2
aI0
aI4
aI0
aI13
aI-15
aa(lp24
V0021000056
p25
aVNOV 03, 2010
p26
aVMIN @ ORL
p27
aVL
p28
aI30
aI3
aI11
aF0.273
aI0
aI2
aF0.0
aI2
aI2
aF1.0
aI2
aI2
aI4
aI2
aI0
aI0
aI0
aI2
aI8
aI-16
aa(lp29
V0021000074
p30
aVNOV 05, 2010
p31
aVMIN vs. ATL
p32
aVL
p33
aI35
aI7
aI11
aF0.636
aI4
aI6
aF0.667
aI0
aI0
aF0.0
aI0
aI1
aI1
aI2
aI1
aI1
aI0
aI2
aI18
aI-2
aa(lp34
V0021000092
p35
aVNOV 07, 2010
p36
aVMIN @ HOU
p37
aVL
p38
aI29
aI2
aI9
aF0.222
aI0
aI1
aF0.0
aI0
aI0
aF0.0
aI0
aI2
aI2
aI1
aI1
aI0
aI2
aI2
aI4
aI-6
aa(lp39
V0021000107
p40
aVNOV 09, 2010
p41
aVMIN @ LAL
p42
aVL
p43
aI25
aI3
aI11
aF0.273
aI1
aI3
aF0.333
aI0
aI0
aF0.0
aI2
aI2
aI4
aI2
aI0
aI0
aI3
aI5
aI7
aI3
aa(lp44
V0021000117
p45
aVNOV 10, 2010
p46
aVMIN @ SAC
p47
aVW
p48
aI31
aI5
aI8
aF0.625
aI2
aI4
aF0.5
aI0
aI0
aF0.0
aI2
aI5
aI7
aI2
aI0
aI0
aI2
aI3
aI12
aI-6
aa(lp49
V0021000125
p50
aVNOV 12, 2010
p51
aVMIN vs. NYK
p52
aVW
p53
aI37
aI6
aI9
aF0.667
aI3
aI5
aF0.6
aI0
aI0
aF0.0
aI2
aI2
aI4
aI3
aI0
aI3
aI1
aI3
aI15
aI15
aa(lp54
V0021000139
p55
aVNOV 14, 2010
p56
aVMIN @ ATL
p57
aVL
p58
aI37
aI4
aI8
aF0.5
aI2
aI6
aF0.333
aI0
aI0
aF0.0
aI1
aI3
aI4
aI3
aI0
aI0
aI1
aI6
aI10
aI-1
aa(lp59
V0021000144
p60
aVNOV 15, 2010
p61
aVMIN @ CHA
p62
aVL
p63
aI29
aI2
aI5
aF0.4
aI0
aI2
aF0.0
aI0
aI2
aF0.0
aI0
aI2
aI2
aI4
aI0
aI2
aI0
aI1
aI4
aI0
aa(lp64
V0021000162
p65
aVNOV 17, 2010
p66
aVMIN vs. LAC
p67
aVW
p68
aI29
aI2
aI6
aF0.333
aI1
aI3
aF0.333
aI2
aI3
aF0.667
aI0
aI1
aI1
aI2
aI0
aI1
aI0
aI2
aI7
aI-1
aa(lp69
V0021000176
p70
aVNOV 19, 2010
p71
aVMIN vs. LAL
p72
aVL
p73
aI26
aI2
aI9
aF0.222
aI1
aI5
aF0.2
aI0
aI0
aF0.0
aI1
aI0
aI1
aI3
aI0
aI1
aI1
aI3
aI5
aI-8
aa(lp74
V0021000197
p75
aVNOV 22, 2010
p76
aVMIN @ OKC
p77
aVL
p78
aI25
aI3
aI6
aF0.5
aI1
aI2
aF0.5
aI0
aI2
aF0.0
aI0
aI1
aI1
aI1
aI1
aI0
aI1
aI4
aI7
aI-6
aa(lp79
V0021000215
p80
aVNOV 24, 2010
p81
aVMIN vs. SAS
p82
aVL
p83
aI36
aI5
aI7
aF0.714
aI2
aI3
aF0.667
aI3
aI4
aF0.75
aI0
aI1
aI1
aI1
aI0
aI3
aI0
aI6
aI15
aI3
aa(lp84
V0021000238
p85
aVNOV 27, 2010
p86
aVMIN vs. GSW
p87
aVL
p88
aI21
aI2
aI6
aF0.333
aI0
aI3
aF0.0
aI1
aI1
aF1.0
aI1
aI3
aI4
aI0
aI1
aI1
aI2
aI4
aI5
aI-15
aa(lp89
V0021000268
p90
aVDEC 01, 2010
p91
aVMIN @ DAL
p92
aVL
p93
aI20
aI2
aI3
aF0.667
aI1
aI2
aF0.5
aI0
aI0
aF0.0
aI0
aI3
aI3
aI1
aI0
aI0
aI0
aI4
aI5
aI3
aa(lp94
V0021000283
p95
aVDEC 03, 2010
p96
aVMIN @ SAS
p97
aVL
p98
aI31
aI1
aI7
aF0.143
aI1
aI4
aF0.25
aI1
aI2
aF0.5
aI2
aI4
aI6
aI2
aI1
aI0
aI4
aI1
aI4
aI-10
aa(lp99
V0021000291
p100
aVDEC 04, 2010
p101
aVMIN vs. CLE
p102
aVW
p103
aI30
aI8
aI9
aF0.889
aI3
aI4
aF0.75
aI1
aI1
aF1.0
aI0
aI6
aI6
aI2
aI0
aI2
aI4
aI2
aI20
aI28
aa(lp104
V0021000304
p105
aVDEC 06, 2010
p106
aVMIN @ NYK
p107
aVL
p108
aI34
aI2
aI6
aF0.333
aI1
aI4
aF0.25
aI0
aI0
aF0.0
aI0
aI2
aI2
aI3
aI0
aI0
aI1
aI1
aI5
aI0
aa(lp109
V0021000320
p110
aVDEC 08, 2010
p111
aVMIN vs. OKC
p112
aVL
p113
aI43
aI2
aI5
aF0.4
aI1
aI2
aF0.5
aI0
aI0
aF0.0
aI1
aI4
aI5
aI3
aI2
aI0
aI2
aI0
aI5
aI-10
aa(lp114
V0021000334
p115
aVDEC 10, 2010
p116
aVMIN vs. DET
p117
aVW
p118
aI26
aI5
aI9
aF0.556
aI1
aI1
aF1.0
aI0
aI0
aF0.0
aI1
aI4
aI5
aI1
aI0
aI1
aI2
aI5
aI11
aI3
aa(lp119
V0021000345
p120
aVDEC 11, 2010
p121
aVMIN @ CHI
p122
aVL
p123
aI24
aI3
aI7
aF0.429
aI2
aI4
aF0.5
aI0
aI0
aF0.0
aI0
aI2
aI2
aI1
aI0
aI0
aI2
aI1
aI8
aI-13
aa(lp124
V0021000366
p125
aVDEC 14, 2010
p126
aVMIN @ GSW
p127
aVL
p128
aI20
aI2
aI5
aF0.4
aI0
aI3
aF0.0
aI0
aI0
aF0.0
aI0
aI2
aI2
aI1
aI0
aI0
aI0
aI2
aI4
aI-5
aa(lp129
V0021000376
p130
aVDEC 15, 2010
p131
aVMIN @ PHX
p132
aVL
p133
aI36
aI7
aI12
aF0.583
aI1
aI4
aF0.25
aI2
aI2
aF1.0
aI0
aI4
aI4
aI5
aI0
aI2
aI2
aI4
aI17
aI-11
aa(lp134
V0021000391
p135
aVDEC 17, 2010
p136
aVMIN @ POR
p137
aVL
p138
aI24
aI4
aI6
aF0.667
aI1
aI2
aF0.5
aI0
aI0
aF0.0
aI0
aI2
aI2
aI1
aI1
aI1
aI0
aI1
aI9
aI-3
aa(lp139
V0021000398
p140
aVDEC 18, 2010
p141
aVMIN @ DEN
p142
aVL
p143
aI23
aI4
aI7
aF0.571
aI0
aI3
aF0.0
aI0
aI0
aF0.0
aI1
aI2
aI3
aI3
aI0
aI2
aI0
aI4
aI8
aI-2
aa(lp144
V0021000414
p145
aVDEC 20, 2010
p146
aVMIN @ LAC
p147
aVL
p148
aI24
aI3
aI6
aF0.5
aI1
aI1
aF1.0
aI0
aI0
aF0.0
aI0
aI1
aI1
aI2
aI0
aI0
aI3
aI5
aI7
aI-18
aa(lp149
V0021000426
p150
aVDEC 22, 2010
p151
aVMIN vs. UTA
p152
aVL
p153
aI40
aI5
aI8
aF0.625
aI4
aI6
aF0.667
aI0
aI0
aF0.0
aI0
aI2
aI2
aI3
aI2
aI1
aI2
aI2
aI14
aI-8
aa(lp154
V0021000439
p155
aVDEC 26, 2010
p156
aVMIN @ CLE
p157
aVW
p158
aI23
aI1
aI5
aF0.2
aI1
aI4
aF0.25
aI0
aI0
aF0.0
aI0
aI5
aI5
aI1
aI0
aI0
aI1
aI0
aI3
aI-8
aa(lp159
V0021000449
p160
aVDEC 27, 2010
p161
aVMIN vs. NOH
p162
aVW
p163
aI36
aI8
aI12
aF0.667
aI6
aI8
aF0.75
aI2
aI2
aF1.0
aI0
aI0
aI0
aI3
aI1
aI0
aI2
aI2
aI24
aI13
aa(lp164
V0021000466
p165
aVDEC 29, 2010
p166
aVMIN vs. DEN
p167
aVL
p168
aI31
aI4
aI11
aF0.364
aI2
aI6
aF0.333
aI0
aI0
aF0.0
aI0
aI1
aI1
aI5
aI2
aI0
aI2
aI3
aI10
aI-4
aa(lp169
V0021000487
p170
aVJAN 01, 2011
p171
aVMIN vs. NJN
p172
aVW
p173
aI17
aI2
aI8
aF0.25
aI0
aI3
aF0.0
aI3
aI4
aF0.75
aI0
aI4
aI4
aI2
aI0
aI1
aI1
aI2
aI7
aI10
aa(lp174
V0021000501
p175
aVJAN 03, 2011
p176
aVMIN @ BOS
p177
aVL
p178
aI28
aI3
aI3
aF1.0
aI2
aI2
aF1.0
aI0
aI0
aF0.0
aI0
aI2
aI2
aI2
aI0
aI1
aI2
aI1
aI8
aI9
aa(lp179
V0021000517
p180
aVJAN 05, 2011
p181
aVMIN vs. CHA
p182
aVL
p183
aI33
aI4
aI14
aF0.286
aI2
aI8
aF0.25
aI0
aI0
aF0.0
aI0
aI2
aI2
aI1
aI1
aI0
aI3
aI2
aI10
aI-6
aa(lp184
V0021000531
p185
aVJAN 07, 2011
p186
aVMIN vs. POR
p187
aVL
p188
aI19
aI0
aI3
aF0.0
aI0
aI1
aF0.0
aI0
aI0
aF0.0
aI0
aI1
aI1
aI1
aI2
aI0
aI1
aI1
aI0
aI-15
aa(lp189
V0021000546
p190
aVJAN 09, 2011
p191
aVMIN @ SAS
p192
aVL
p193
aI25
aI4
aI13
aF0.308
aI1
aI3
aF0.333
aI0
aI0
aF0.0
aI0
aI3
aI3
aI0
aI0
aI0
aI1
aI1
aI9
aI-5
aa(lp194
V0021000557
p195
aVJAN 11, 2011
p196
aVMIN vs. SAS
p197
aVL
p198
aI16
aI3
aI8
aF0.375
aI1
aI2
aF0.5
aI0
aI0
aF0.0
aI1
aI0
aI1
aI2
aI2
aI1
aI0
aI2
aI7
aI-2
aa(lp199
V0021000573
p200
aVJAN 13, 2011
p201
aVMIN vs. WAS
p202
aVW
p203
aI15
aI2
aI6
aF0.333
aI2
aI2
aF1.0
aI0
aI0
aF0.0
aI0
aI2
aI2
aI0
aI0
aI0
aI0
aI2
aI6
aI8
aa(lp204
V0021000593
p205
aVJAN 15, 2011
p206
aVMIN vs. ORL
p207
aVL
p208
aI21
aI1
aI3
aF0.333
aI0
aI0
aF0.0
aI2
aI2
aF1.0
aI0
aI1
aI1
aI2
aI0
aI0
aI3
aI1
aI4
aI9
aa(lp209
V0021000625
p210
aVJAN 19, 2011
p211
aVMIN @ LAC
p212
aVL
p213
aI12
aI0
aI5
aF0.0
aI0
aI4
aF0.0
aI0
aI1
aF0.0
aI0
aI0
aI0
aI1
aI1
aI1
aI0
aI1
aI0
aI3
aa(lp214
V0021000659
p215
aVJAN 24, 2011
p216
aVMIN vs. HOU
p217
aVL
p218
aI33
aI7
aI13
aF0.538
aI2
aI3
aF0.667
aI3
aI5
aF0.6
aI0
aI3
aI3
aI4
aI3
aI2
aI1
aI6
aI19
aI-1
aa(lp219
V0021000673
p220
aVJAN 26, 2011
p221
aVMIN vs. OKC
p222
aVL
p223
aI33
aI5
aI10
aF0.5
aI2
aI5
aF0.4
aI1
aI2
aF0.5
aI2
aI3
aI5
aI1
aI2
aI0
aI2
aI3
aI13
aI-3
aa(lp224
V0021000689
p225
aVJAN 28, 2011
p226
aVMIN @ UTA
p227
aVL
p228
aI27
aI8
aI14
aF0.571
aI3
aI7
aF0.429
aI0
aI0
aF0.0
aI0
aI1
aI1
aI2
aI0
aI0
aI0
aI2
aI19
aI-7
aa(lp229
V0021000695
p230
aVJAN 29, 2011
p231
aVMIN vs. TOR
p232
aVW
p233
aI28
aI5
aI11
aF0.455
aI2
aI6
aF0.333
aI2
aI2
aF1.0
aI1
aI1
aI2
aI2
aI0
aI1
aI1
aI1
aI14
aI25
aa(lp234
V0021000724
p235
aVFEB 02, 2011
p236
aVMIN vs. MEM
p237
aVL
p238
aI15
aI2
aI11
aF0.182
aI0
aI4
aF0.0
aI0
aI0
aF0.0
aI0
aI1
aI1
aI1
aI1
aI0
aI1
aI1
aI4
aI-5
aa(lp239
V0021000736
p240
aVFEB 04, 2011
p241
aVMIN @ TOR
p242
aVL
p243
aI23
aI4
aI11
aF0.364
aI2
aI5
aF0.4
aI0
aI0
aF0.0
aI2
aI1
aI3
aI3
aI2
aI0
aI0
aI1
aI10
aI4
aa(lp244
V0021000751
p245
aVFEB 05, 2011
p246
aVMIN vs. DEN
p247
aVL
p248
aI22
aI4
aI11
aF0.364
aI2
aI7
aF0.286
aI0
aI0
aF0.0
aI1
aI3
aI4
aI2
aI2
aI0
aI1
aI1
aI10
aI-5
aa(lp249
V0021000760
p250
aVFEB 07, 2011
p251
aVMIN @ NOH
p252
aVW
p253
aI22
aI1
aI7
aF0.143
aI1
aI3
aF0.333
aI0
aI0
aF0.0
aI1
aI3
aI4
aI5
aI0
aI1
aI0
aI2
aI3
aI5
aa(lp254
V0021000772
p255
aVFEB 08, 2011
p256
aVMIN @ HOU
p257
aVW
p258
aI28
aI6
aI11
aF0.545
aI1
aI2
aF0.5
aI0
aI0
aF0.0
aI2
aI4
aI6
aI1
aI0
aI4
aI0
aI0
aI13
aI5
aa(lp259
V0021000787
p260
aVFEB 11, 2011
p261
aVMIN @ IND
p262
aVL
p263
aI15
aI2
aI7
aF0.286
aI0
aI2
aF0.0
aI0
aI0
aF0.0
aI0
aI2
aI2
aI1
aI0
aI0
aI1
aI4
aI4
aI-7
aa(lp264
V0021000799
p265
aVFEB 12, 2011
p266
aVMIN vs. PHI
p267
aVL
p268
aI25
aI2
aI10
aF0.2
aI0
aI6
aF0.0
aI2
aI3
aF0.667
aI0
aI2
aI2
aI3
aI1
aI0
aI1
aI4
aI6
aI-2
aa(lp269
V0021000816
p270
aVFEB 14, 2011
p271
aVMIN vs. POR
p272
aVL
p273
aI12
aI0
aI6
aF0.0
aI0
aI0
aF0.0
aI1
aI2
aF0.5
aI0
aI0
aI0
aI0
aI1
aI1
aI1
aI0
aI1
aI-21
aa(lp274
V0021000830
p275
aVFEB 16, 2011
p276
aVMIN vs. LAC
p277
aVL
p278
aI10
aI0
aI2
aF0.0
aI0
aI2
aF0.0
aI0
aI0
aF0.0
aI1
aI1
aI2
aI0
aI1
aI0
aI2
aI0
aI0
aI6
aa(lp279
V0021000842
p280
aVFEB 22, 2011
p281
aVMIN @ MIL
p282
aVL
p283
aI38
aI5
aI14
aF0.357
aI1
aI6
aF0.167
aI3
aI4
aF0.75
aI2
aI6
aI8
aI3
aI1
aI1
aI2
aI3
aI14
aI2
aa(lp284
V0021000853
p285
aVFEB 23, 2011
p286
aVMIN vs. MEM
p287
aVL
p288
aI24
aI2
aI7
aF0.286
aI0
aI2
aF0.0
aI0
aI1
aF0.0
aI0
aI0
aI0
aI2
aI0
aI1
aI1
aI2
aI4
aI-10
aa(lp289
V0021000868
p290
aVFEB 25, 2011
p291
aVMIN vs. NOH
p292
aVL
p293
aI43
aI10
aI19
aF0.526
aI2
aI5
aF0.4
aI0
aI0
aF0.0
aI0
aI3
aI3
aI4
aI0
aI1
aI1
aI1
aI22
aI-6
aa(lp294
V0021000882
p295
aVFEB 27, 2011
p296
aVMIN vs. GSW
p297
aVW
p298
aI38
aI6
aI14
aF0.429
aI4
aI9
aF0.444
aI1
aI2
aF0.5
aI1
aI6
aI7
aI3
aI4
aI2
aI3
aI1
aI17
aI18
aa(lp299
V0021000900
p300
aVMAR 01, 2011
p301
aVMIN vs. LAL
p302
aVL
p303
aI37
aI8
aI17
aF0.471
aI3
aI7
aF0.429
aI1
aI2
aF0.5
aI1
aI7
aI8
aI2
aI1
aI0
aI0
aI6
aI20
aI-11
aa(lp304
V0021000906
p305
aVMAR 02, 2011
p306
aVMIN @ DET
p307
aVW
p308
aI29
aI3
aI9
aF0.333
aI1
aI3
aF0.333
aI4
aI5
aF0.8
aI0
aI4
aI4
aI4
aI1
aI3
aI2
aI2
aI11
aI-3
aa(lp309
V0021000945
p310
aVMAR 07, 2011
p311
aVMIN vs. DAL
p312
aVL
p313
aI14
aI2
aI5
aF0.4
aI1
aI3
aF0.333
aI0
aI0
aF0.0
aI1
aI1
aI2
aI2
aI0
aI0
aI0
aI1
aI5
aI1
aa(lp314
V0021000960
p315
aVMAR 09, 2011
p316
aVMIN vs. IND
p317
aVW
p318
aI12
aI0
aI3
aF0.0
aI0
aI1
aF0.0
aI2
aI4
aF0.5
aI0
aI5
aI5
aI0
aI0
aI0
aI0
aI2
aI2
aI2
aa(lp319
V0021000972
p320
aVMAR 11, 2011
p321
aVMIN vs. UTA
p322
aVW
p323
aI24
aI2
aI2
aF1.0
aI2
aI2
aF1.0
aI0
aI0
aF0.0
aI2
aI0
aI2
aI2
aI1
aI0
aI1
aI2
aI6
aI5
aa(lp324
V0021000990
p325
aVMAR 13, 2011
p326
aVMIN @ GSW
p327
aVL
p328
aI22
aI1
aI9
aF0.111
aI1
aI3
aF0.333
aI0
aI0
aF0.0
aI1
aI1
aI2
aI1
aI1
aI0
aI1
aI1
aI3
aI-10
aa(lp329
V0021001010
p330
aVMAR 16, 2011
p331
aVMIN @ UTA
p332
aVL
p333
aI18
aI1
aI4
aF0.25
aI1
aI3
aF0.333
aI2
aI3
aF0.667
aI0
aI0
aI0
aI0
aI0
aI0
aI0
aI1
aI5
aI-6
aa(lp334
V0021001028
p335
aVMAR 18, 2011
p336
aVMIN @ LAL
p337
aVL
p338
aI37
aI11
aI21
aF0.524
aI3
aI11
aF0.273
aI4
aI4
aF1.0
aI2
aI2
aI4
aI1
aI3
aI1
aI1
aI2
aI29
aI-12
aa(lp339
V0021001038
p340
aVMAR 20, 2011
p341
aVMIN vs. SAC
p342
aVL
p343
aI22
aI1
aI5
aF0.2
aI0
aI2
aF0.0
aI0
aI0
aF0.0
aI1
aI2
aI3
aI0
aI0
aI0
aI0
aI1
aI2
aI-15
aa(lp344
V0021001066
p345
aVMAR 24, 2011
p346
aVMIN @ DAL
p347
aVL
p348
aI27
aI3
aI12
aF0.25
aI3
aI7
aF0.429
aI2
aI2
aF1.0
aI0
aI4
aI4
aI1
aI0
aI1
aI1
aI0
aI11
aI-5
aa(lp349
V0021001075
p350
aVMAR 25, 2011
p351
aVMIN @ OKC
p352
aVL
p353
aI25
aI4
aI10
aF0.4
aI2
aI3
aF0.667
aI0
aI0
aF0.0
aI1
aI1
aI2
aI3
aI0
aI0
aI0
aI2
aI10
aI-1
aa(lp354
V0021001091
p355
aVMAR 27, 2011
p356
aVMIN vs. BOS
p357
aVL
p358
aI32
aI2
aI9
aF0.222
aI1
aI3
aF0.333
aI0
aI0
aF0.0
aI0
aI3
aI3
aI0
aI0
aI1
aI2
aI2
aI5
aI-10
aa(lp359
V0021001113
p360
aVMAR 30, 2011
p361
aVMIN vs. CHI
p362
aVL
p363
aI16
aI0
aI6
aF0.0
aI0
aI1
aF0.0
aI0
aI0
aF0.0
aI0
aI4
aI4
aI0
aI0
aI0
aI0
aI1
aI0
aI-15
aa(lp364
V0021001126
p365
aVAPR 01, 2011
p366
aVMIN vs. MIA
p367
aVL
p368
aI21
aI2
aI9
aF0.222
aI0
aI3
aF0.0
aI2
aI3
aF0.667
aI0
aI2
aI2
aI0
aI2
aI1
aI2
aI0
aI6
aI-24
aa(lp369
V0021001134
p370
aVAPR 02, 2011
p371
aVMIN @ MEM
p372
aVL
p373
aI25
aI1
aI7
aF0.143
aI0
aI3
aF0.0
aI0
aI0
aF0.0
aI1
aI3
aI4
aI4
aI3
aI2
aI1
aI1
aI2
aI-4
aa(lp374
V0021001151
p375
aVAPR 05, 2011
p376
aVMIN @ NJN
p377
aVL
p378
aI21
aI3
aI4
aF0.75
aI2
aI2
aF1.0
aI0
aI0
aF0.0
aI0
aI5
aI5
aI2
aI0
aI1
aI1
aI0
aI8
aI-12
aa(lp379
V0021001168
p380
aVAPR 06, 2011
p381
aVMIN vs. PHX
p382
aVL
p383
aI29
aI4
aI13
aF0.308
aI2
aI5
aF0.4
aI0
aI0
aF0.0
aI0
aI3
aI3
aI2
aI3
aI1
aI2
aI0
aI10
aI-6
aa(lp384
V0021001192
p385
aVAPR 09, 2011
p386
aVMIN @ DEN
p387
aVL
p388
aI24
aI4
aI12
aF0.333
aI3
aI8
aF0.375
aI2
aI2
aF1.0
aI1
aI5
aI6
aI3
aI1
aI2
aI0
aI1
aI13
aI-23
aa(lp389
V0021001211
p390
aVAPR 11, 2011
p391
aVMIN @ PHX
p392
aVL
p393
aI30
aI5
aI11
aF0.455
aI2
aI4
aF0.5
aI2
aI2
aF1.0
aI0
aI1
aI1
aI0
aI0
aI1
aI0
aI1
aI14
aI-4
aa(lp394
V0021001224
p395
aVAPR 13, 2011
p396
aVMIN vs. HOU
p397
aVL
p398
aI32
aI4
aI7
aF0.571
aI0
aI0
aF0.0
aI0
aI0
aF0.0
aI1
aI4
aI5
aI2
aI1
aI0
aI2
aI2
aI8
aI7
aasS'name'
p399
VWesley Johnson
p400
sS'experience'
p401
I0
s.