(dp0
S'stats'
p1
(lp2
(lp3
V0021000016
p4
aVOCT 27, 2010
p5
aVLAC vs. POR
p6
aVL
p7
aI1
aI0
aI1
aF0.0
aI0
aI1
aF0.0
aI0
aI0
aF0.0
aI0
aI0
aI0
aI0
aI0
aI0
aI0
aI0
aI0
aI-1
aa(lp8
V0021000029
p9
aVOCT 29, 2010
p10
aVLAC @ GSW
p11
aVL
p12
aI5
aI0
aI1
aF0.0
aI0
aI0
aF0.0
aI1
aI2
aF0.5
aI0
aI0
aI0
aI1
aI0
aI0
aI0
aI0
aI1
aI2
aa(lp13
V0021000041
p14
aVOCT 31, 2010
p15
aVLAC vs. DAL
p16
aVL
p17
aI16
aI3
aI5
aF0.6
aI0
aI1
aF0.0
aI0
aI0
aF0.0
aI2
aI1
aI3
aI2
aI1
aI0
aI4
aI3
aI6
aI5
aa(lp18
V0021000046
p19
aVNOV 01, 2010
p20
aVLAC vs. SAS
p21
aVL
p22
aI40
aI4
aI11
aF0.364
aI1
aI1
aF1.0
aI0
aI0
aF0.0
aI1
aI4
aI5
aI3
aI4
aI2
aI3
aI5
aI9
aI-10
aa(lp23
V0021000064
p24
aVNOV 03, 2010
p25
aVLAC vs. OKC
p26
aVW
p27
aI38
aI7
aI10
aF0.7
aI2
aI3
aF0.667
aI1
aI2
aF0.5
aI0
aI4
aI4
aI8
aI0
aI2
aI3
aI3
aI17
aI22
aa(lp28
V0021000077
p29
aVNOV 05, 2010
p30
aVLAC @ DEN
p31
aVL
p32
aI38
aI6
aI9
aF0.667
aI0
aI0
aF0.0
aI0
aI1
aF0.0
aI0
aI2
aI2
aI13
aI2
aI0
aI4
aI2
aI12
aI-8
aa(lp33
V0021000086
p34
aVNOV 06, 2010
p35
aVLAC @ UTA
p36
aVL
p37
aI45
aI5
aI10
aF0.5
aI1
aI1
aF1.0
aI3
aI4
aF0.75
aI1
aI4
aI5
aI5
aI1
aI1
aI4
aI5
aI14
aI-2
aa(lp38
V0021000105
p39
aVNOV 09, 2010
p40
aVLAC @ NOH
p41
aVL
p42
aI38
aI3
aI6
aF0.5
aI0
aI1
aF0.0
aI0
aI0
aF0.0
aI1
aI5
aI6
aI8
aI0
aI0
aI5
aI1
aI6
aI-13
aa(lp43
V0021000116
p44
aVNOV 10, 2010
p45
aVLAC @ SAS
p46
aVL
p47
aI31
aI5
aI15
aF0.333
aI1
aI1
aF1.0
aI0
aI0
aF0.0
aI1
aI1
aI2
aI7
aI1
aI1
aI3
aI2
aI11
aI-17
aa(lp48
V0021000129
p49
aVNOV 12, 2010
p50
aVLAC vs. DET
p51
aVL
p52
aI46
aI6
aI10
aF0.6
aI0
aI2
aF0.0
aI6
aI6
aF1.0
aI2
aI4
aI6
aI5
aI1
aI1
aI3
aI2
aI18
aI-10
aa(lp53
V0021000150
p54
aVNOV 15, 2010
p55
aVLAC vs. NJN
p56
aVL
p57
aI40
aI6
aI16
aF0.375
aI0
aI2
aF0.0
aI3
aI4
aF0.75
aI4
aI4
aI8
aI6
aI2
aI0
aI4
aI0
aI15
aI-20
aa(lp58
V0021000162
p59
aVNOV 17, 2010
p60
aVLAC @ MIN
p61
aVL
p62
aI35
aI2
aI7
aF0.286
aI0
aI2
aF0.0
aI6
aI6
aF1.0
aI1
aI2
aI3
aI4
aI2
aI0
aI4
aI3
aI10
aI-5
aa(lp63
V0021000168
p64
aVNOV 18, 2010
p65
aVLAC @ IND
p66
aVL
p67
aI32
aI3
aI5
aF0.6
aI0
aI0
aF0.0
aI2
aI2
aF1.0
aI0
aI8
aI8
aI5
aI3
aI0
aI4
aI1
aI8
aI-18
aa(lp68
V0021000190
p69
aVNOV 20, 2010
p70
aVLAC vs. NYK
p71
aVL
p72
aI24
aI3
aI4
aF0.75
aI0
aI0
aF0.0
aI0
aI0
aF0.0
aI0
aI2
aI2
aI4
aI0
aI0
aI5
aI3
aI6
aI-12
aa(lp73
V0021000202
p74
aVNOV 22, 2010
p75
aVLAC vs. NOH
p76
aVW
p77
aI23
aI2
aI5
aF0.4
aI0
aI0
aF0.0
aI0
aI0
aF0.0
aI0
aI4
aI4
aI6
aI2
aI1
aI2
aI4
aI4
aI-4
aa(lp78
V0021000221
p79
aVNOV 25, 2010
p80
aVLAC vs. SAC
p81
aVW
p82
aI31
aI3
aI8
aF0.375
aI0
aI2
aF0.0
aI0
aI0
aF0.0
aI1
aI2
aI3
aI5
aI1
aI0
aI2
aI2
aI6
aI18
aa(lp83
V0021000230
p84
aVNOV 26, 2010
p85
aVLAC @ PHX
p86
aVL
p87
aI11
aI1
aI1
aF1.0
aI0
aI0
aF0.0
aI0
aI0
aF0.0
aI0
aI0
aI0
aI1
aI0
aI1
aI1
aI2
aI2
aI-11
aa(lp88
V0021000245
p89
aVNOV 28, 2010
p90
aVLAC vs. UTA
p91
aVL
p92
aI34
aI5
aI7
aF0.714
aI0
aI0
aF0.0
aI2
aI2
aF1.0
aI3
aI0
aI3
aI5
aI1
aI0
aI2
aI3
aI12
aI-12
aa(lp93
V0021000272
p94
aVDEC 01, 2010
p95
aVLAC vs. SAS
p96
aVW
p97
aI24
aI2
aI5
aF0.4
aI0
aI1
aF0.0
aI1
aI1
aF1.0
aI0
aI4
aI4
aI7
aI0
aI0
aI2
aI0
aI5
aI-2
aa(lp98
V0021000284
p99
aVDEC 03, 2010
p100
aVLAC @ DEN
p101
aVL
p102
aI33
aI3
aI8
aF0.375
aI0
aI1
aF0.0
aI3
aI4
aF0.75
aI2
aI1
aI3
aI8
aI1
aI0
aI4
aI4
aI9
aI-4
aa(lp103
V0021000301
p104
aVDEC 05, 2010
p105
aVLAC @ POR
p106
aVL
p107
aI23
aI0
aI3
aF0.0
aI0
aI2
aF0.0
aI0
aI0
aF0.0
aI0
aI2
aI2
aI2
aI2
aI0
aI4
aI2
aI0
aI-10
aa(lp108
V0021000308
p109
aVDEC 06, 2010
p110
aVLAC vs. SAC
p111
aVW
p112
aI28
aI4
aI12
aF0.333
aI2
aI5
aF0.4
aI5
aI6
aF0.833
aI0
aI3
aI3
aI3
aI1
aI0
aI0
aI2
aI15
aI19
aa(lp113
V0021000326
p114
aVDEC 08, 2010
p115
aVLAC vs. LAL
p116
aVL
p117
aI34
aI4
aI6
aF0.667
aI1
aI3
aF0.333
aI2
aI2
aF1.0
aI0
aI4
aI4
aI7
aI0
aI0
aI5
aI1
aI11
aI6
aa(lp118
V0021000341
p119
aVDEC 11, 2010
p120
aVLAC vs. MEM
p121
aVL
p122
aI23
aI0
aI5
aF0.0
aI0
aI1
aF0.0
aI0
aI0
aF0.0
aI1
aI3
aI4
aI6
aI0
aI0
aI5
aI2
aI0
aI-14
aa(lp123
V0021000354
p124
aVDEC 12, 2010
p125
aVLAC vs. ORL
p126
aVL
p127
aI15
aI1
aI3
aF0.333
aI0
aI1
aF0.0
aI0
aI0
aF0.0
aI0
aI3
aI3
aI1
aI0
aI0
aI0
aI2
aI2
aI-7
aa(lp128
V0021000369
p129
aVDEC 15, 2010
p130
aVLAC @ PHI
p131
aVL
p132
aI16
aI2
aI9
aF0.222
aI0
aI2
aF0.0
aI2
aI2
aF1.0
aI1
aI2
aI3
aI1
aI1
aI0
aI1
aI2
aI6
aI-15
aa(lp133
V0021000386
p134
aVDEC 17, 2010
p135
aVLAC @ DET
p136
aVW
p137
aI29
aI5
aI7
aF0.714
aI2
aI3
aF0.667
aI0
aI0
aF0.0
aI1
aI0
aI1
aI8
aI1
aI0
aI4
aI2
aI12
aI15
aa(lp138
V0021000395
p139
aVDEC 18, 2010
p140
aVLAC @ CHI
p141
aVW
p142
aI21
aI3
aI4
aF0.75
aI1
aI1
aF1.0
aI0
aI0
aF0.0
aI0
aI1
aI1
aI0
aI0
aI1
aI1
aI1
aI7
aI1
aa(lp143
V0021000414
p144
aVDEC 20, 2010
p145
aVLAC vs. MIN
p146
aVW
p147
aI20
aI1
aI5
aF0.2
aI0
aI2
aF0.0
aI1
aI2
aF0.5
aI1
aI5
aI6
aI2
aI0
aI0
aI1
aI0
aI3
aI-4
aa(lp148
V0021000429
p149
aVDEC 22, 2010
p150
aVLAC vs. HOU
p151
aVL
p152
aI26
aI2
aI6
aF0.333
aI0
aI3
aF0.0
aI0
aI0
aF0.0
aI0
aI1
aI1
aI4
aI2
aI1
aI1
aI2
aI4
aI2
aa(lp153
V0021000438
p154
aVDEC 26, 2010
p155
aVLAC vs. PHX
p156
aVW
p157
aI17
aI1
aI3
aF0.333
aI0
aI0
aF0.0
aI0
aI0
aF0.0
aI0
aI2
aI2
aI2
aI1
aI1
aI2
aI3
aI2
aI-1
aa(lp158
V0021000453
p159
aVDEC 27, 2010
p160
aVLAC @ SAC
p161
aVW
p162
aI18
aI1
aI7
aF0.143
aI1
aI4
aF0.25
aI2
aI2
aF1.0
aI2
aI0
aI2
aI3
aI2
aI1
aI3
aI0
aI5
aI8
aa(lp163
V0021000472
p164
aVDEC 29, 2010
p165
aVLAC vs. UTA
p166
aVL
p167
aI16
aI1
aI6
aF0.167
aI1
aI4
aF0.25
aI0
aI0
aF0.0
aI1
aI0
aI1
aI2
aI0
aI0
aI3
aI2
aI3
aI-9
aa(lp168
V0021000493
p169
aVJAN 02, 2011
p170
aVLAC vs. ATL
p171
aVL
p172
aI21
aI4
aI8
aF0.5
aI1
aI2
aF0.5
aI1
aI2
aF0.5
aI0
aI2
aI2
aI3
aI2
aI0
aI2
aI1
aI10
aI-2
aa(lp173
V0021000522
p174
aVJAN 05, 2011
p175
aVLAC vs. DEN
p176
aVW
p177
aI17
aI3
aI8
aF0.375
aI1
aI3
aF0.333
aI1
aI3
aF0.333
aI1
aI3
aI4
aI1
aI1
aI2
aI2
aI3
aI8
aI-8
aa(lp178
V0021000545
p179
aVJAN 09, 2011
p180
aVLAC vs. GSW
p181
aVW
p182
aI17
aI1
aI6
aF0.167
aI0
aI2
aF0.0
aI0
aI0
aF0.0
aI1
aI0
aI1
aI2
aI2
aI0
aI0
aI1
aI2
aI6
aa(lp183
V0021000572
p184
aVJAN 12, 2011
p185
aVLAC vs. MIA
p186
aVW
p187
aI16
aI1
aI5
aF0.2
aI1
aI1
aF1.0
aI0
aI1
aF0.0
aI1
aI1
aI2
aI4
aI1
aI2
aI2
aI1
aI3
aI8
aa(lp188
V0021000585
p189
aVJAN 14, 2011
p190
aVLAC @ GSW
p191
aVL
p192
aI19
aI2
aI4
aF0.5
aI0
aI0
aF0.0
aI2
aI2
aF1.0
aI1
aI0
aI1
aI5
aI1
aI0
aI0
aI1
aI6
aI4
aa(lp193
V0021000596
p194
aVJAN 16, 2011
p195
aVLAC vs. LAL
p196
aVW
p197
aI17
aI1
aI3
aF0.333
aI0
aI0
aF0.0
aI0
aI0
aF0.0
aI0
aI1
aI1
aI3
aI0
aI1
aI0
aI0
aI2
aI-5
aa(lp198
V0021000605
p199
aVJAN 17, 2011
p200
aVLAC vs. IND
p201
aVW
p202
aI16
aI1
aI1
aF1.0
aI0
aI0
aF0.0
aI0
aI0
aF0.0
aI0
aI3
aI3
aI2
aI0
aI1
aI2
aI0
aI2
aI-11
aa(lp203
V0021000625
p204
aVJAN 19, 2011
p205
aVLAC vs. MIN
p206
aVW
p207
aI21
aI3
aI6
aF0.5
aI2
aI2
aF1.0
aI2
aI2
aF1.0
aI1
aI4
aI5
aI4
aI1
aI0
aI5
aI1
aI10
aI-1
aa(lp208
V0021000628
p209
aVJAN 20, 2011
p210
aVLAC @ POR
p211
aVL
p212
aI8
aI0
aI3
aF0.0
aI0
aI1
aF0.0
aI0
aI0
aF0.0
aI0
aI1
aI1
aI1
aI0
aI0
aI1
aI2
aI0
aI-7
aa(lp213
V0021000651
p214
aVJAN 22, 2011
p215
aVLAC vs. GSW
p216
aVW
p217
aI25
aI3
aI6
aF0.5
aI0
aI2
aF0.0
aI0
aI0
aF0.0
aI2
aI2
aI4
aI5
aI1
aI1
aI0
aI2
aI6
aI12
aa(lp218
V0021000665
p219
aVJAN 25, 2011
p220
aVLAC @ DAL
p221
aVL
p222
aI16
aI1
aI2
aF0.5
aI0
aI0
aF0.0
aI1
aI3
aF0.333
aI0
aI0
aI0
aI4
aI1
aI0
aI4
aI2
aI3
aI11
aa(lp223
V0021000674
p224
aVJAN 26, 2011
p225
aVLAC @ HOU
p226
aVL
p227
aI22
aI2
aI7
aF0.286
aI0
aI2
aF0.0
aI1
aI1
aF1.0
aI0
aI1
aI1
aI6
aI3
aI2
aI0
aI1
aI5
aI-4
aa(lp228
V0021000700
p229
aVJAN 29, 2011
p230
aVLAC vs. CHA
p231
aVW
p232
aI16
aI1
aI7
aF0.143
aI0
aI3
aF0.0
aI0
aI0
aF0.0
aI1
aI1
aI2
aI3
aI0
aI0
aI0
aI0
aI2
aI-5
aa(lp233
V0021000714
p234
aVJAN 31, 2011
p235
aVLAC vs. MIL
p236
aVW
p237
aI16
aI0
aI2
aF0.0
aI0
aI0
aF0.0
aI2
aI2
aF1.0
aI0
aI1
aI1
aI5
aI0
aI0
aI1
aI1
aI2
aI6
aa(lp238
V0021000729
p239
aVFEB 02, 2011
p240
aVLAC vs. CHI
p241
aVL
p242
aI20
aI1
aI4
aF0.25
aI0
aI1
aF0.0
aI0
aI0
aF0.0
aI0
aI0
aI0
aI3
aI0
aI0
aI3
aI2
aI2
aI-13
aa(lp243
V0021000738
p244
aVFEB 04, 2011
p245
aVLAC @ ATL
p246
aVL
p247
aI23
aI3
aI4
aF0.75
aI0
aI0
aF0.0
aI2
aI4
aF0.5
aI1
aI1
aI2
aI2
aI1
aI0
aI1
aI1
aI8
aI7
aa(lp248
V0021000754
p249
aVFEB 06, 2011
p250
aVLAC @ MIA
p251
aVL
p252
aI14
aI0
aI5
aF0.0
aI0
aI1
aF0.0
aI4
aI4
aF1.0
aI1
aI3
aI4
aI0
aI1
aI0
aI2
aI0
aI4
aI-8
aa(lp253
V0021000767
p254
aVFEB 08, 2011
p255
aVLAC @ ORL
p256
aVL
p257
aI24
aI1
aI2
aF0.5
aI0
aI1
aF0.0
aI2
aI3
aF0.667
aI0
aI1
aI1
aI4
aI1
aI0
aI4
aI2
aI4
aI-17
aa(lp258
V0021000779
p259
aVFEB 09, 2011
p260
aVLAC @ NYK
p261
aVW
p262
aI29
aI6
aI13
aF0.462
aI2
aI4
aF0.5
aI2
aI2
aF1.0
aI4
aI4
aI8
aI3
aI0
aI0
aI1
aI1
aI16
aI1
aa(lp263
V0021000791
p264
aVFEB 11, 2011
p265
aVLAC @ CLE
p266
aVL
p267
aI35
aI5
aI12
aF0.417
aI0
aI4
aF0.0
aI3
aI3
aF1.0
aI3
aI3
aI6
aI4
aI2
aI0
aI0
aI5
aI13
aI-14
aa(lp268
V0021000808
p269
aVFEB 13, 2011
p270
aVLAC @ TOR
p271
aVL
p272
aI34
aI2
aI9
aF0.222
aI0
aI1
aF0.0
aI3
aI5
aF0.6
aI3
aI3
aI6
aI2
aI3
aI0
aI4
aI0
aI7
aI-1
aa(lp273
V0021000815
p274
aVFEB 14, 2011
p275
aVLAC @ MIL
p276
aVL
p277
aI22
aI1
aI2
aF0.5
aI0
aI1
aF0.0
aI0
aI0
aF0.0
aI0
aI1
aI1
aI0
aI2
aI0
aI5
aI3
aI2
aI-19
aa(lp278
V0021000830
p279
aVFEB 16, 2011
p280
aVLAC @ MIN
p281
aVW
p282
aI30
aI3
aI6
aF0.5
aI0
aI2
aF0.0
aI4
aI5
aF0.8
aI2
aI6
aI8
aI5
aI4
aI0
aI4
aI3
aI10
aI-3
aa(lp283
V0021000843
p284
aVFEB 22, 2011
p285
aVLAC @ OKC
p286
aVL
p287
aI23
aI5
aI9
aF0.556
aI2
aI2
aF1.0
aI1
aI4
aF0.25
aI1
aI3
aI4
aI2
aI2
aI0
aI5
aI1
aI13
aI-4
aa(lp288
V0021000854
p289
aVFEB 23, 2011
p290
aVLAC @ NOH
p291
aVL
p292
aI40
aI3
aI5
aF0.6
aI1
aI3
aF0.333
aI0
aI0
aF0.0
aI0
aI1
aI1
aI7
aI1
aI0
aI4
aI0
aI7
aI-16
aa(lp293
V0021000871
p294
aVFEB 25, 2011
p295
aVLAC @ LAL
p296
aVL
p297
aI36
aI2
aI11
aF0.182
aI0
aI2
aF0.0
aI4
aI4
aF1.0
aI1
aI3
aI4
aI8
aI0
aI0
aI3
aI1
aI8
aI-19
aa(lp298
V0021000878
p299
aVFEB 26, 2011
p300
aVLAC vs. BOS
p301
aVL
p302
aI41
aI3
aI10
aF0.3
aI0
aI1
aF0.0
aI0
aI0
aF0.0
aI3
aI1
aI4
aI6
aI3
aI0
aI5
aI0
aI6
aI-12
aa(lp303
V0021000893
p304
aVFEB 28, 2011
p305
aVLAC @ SAC
p306
aVL
p307
aI16
aI2
aI5
aF0.4
aI1
aI1
aF1.0
aI0
aI0
aF0.0
aI0
aI1
aI1
aI5
aI0
aI0
aI3
aI1
aI5
aI-7
aa(lp308
V0021000911
p309
aVMAR 02, 2011
p310
aVLAC vs. HOU
p311
aVW
p312
aI8
aI0
aI1
aF0.0
aI0
aI0
aF0.0
aI0
aI0
aF0.0
aI0
aI0
aI0
aI1
aI0
aI0
aI1
aI1
aI0
aI-11
aa(lp313
V0021000930
p314
aVMAR 05, 2011
p315
aVLAC vs. DEN
p316
aVW
p317
aI22
aI7
aI11
aF0.636
aI2
aI5
aF0.4
aI4
aI5
aF0.8
aI1
aI3
aI4
aI3
aI7
aI0
aI3
aI2
aI20
aI12
aa(lp318
V0021000940
p319
aVMAR 07, 2011
p320
aVLAC @ CHA
p321
aVW
p322
aI21
aI5
aI8
aF0.625
aI2
aI2
aF1.0
aI1
aI2
aF0.5
aI1
aI3
aI4
aI4
aI0
aI0
aI2
aI3
aI13
aI17
aa(lp323
V0021000957
p324
aVMAR 09, 2011
p325
aVLAC @ BOS
p326
aVW
p327
aI18
aI3
aI6
aF0.5
aI1
aI3
aF0.333
aI0
aI0
aF0.0
aI1
aI2
aI3
aI2
aI0
aI1
aI3
aI1
aI7
aI-4
aa(lp328
V0021000968
p329
aVMAR 11, 2011
p330
aVLAC @ NJN
p331
aVL
p332
aI14
aI0
aI1
aF0.0
aI0
aI1
aF0.0
aI0
aI0
aF0.0
aI1
aI1
aI2
aI1
aI2
aI0
aI1
aI0
aI0
aI5
aa(lp333
V0021000978
p334
aVMAR 12, 2011
p335
aVLAC @ WAS
p336
aVW
p337
aI22
aI9
aI14
aF0.643
aI0
aI1
aF0.0
aI5
aI9
aF0.556
aI3
aI5
aI8
aI6
aI0
aI0
aI2
aI1
aI23
aI8
aa(lp338
V0021000994
p339
aVMAR 14, 2011
p340
aVLAC @ MEM
p341
aVL
p342
aI27
aI6
aI11
aF0.545
aI0
aI2
aF0.0
aI7
aI7
aF1.0
aI2
aI0
aI2
aI4
aI1
aI1
aI4
aI2
aI19
aI-6
aa(lp343
V0021001013
p344
aVMAR 16, 2011
p345
aVLAC vs. PHI
p346
aVL
p347
aI20
aI4
aI8
aF0.5
aI1
aI2
aF0.5
aI0
aI1
aF0.0
aI0
aI1
aI1
aI5
aI0
aI0
aI3
aI3
aI9
aI9
aa(lp348
V0021001029
p349
aVMAR 19, 2011
p350
aVLAC vs. CLE
p351
aVW
p352
aI24
aI3
aI5
aF0.6
aI0
aI0
aF0.0
aI0
aI0
aF0.0
aI0
aI3
aI3
aI0
aI1
aI0
aI1
aI0
aI6
aI9
aa(lp353
V0021001039
p354
aVMAR 20, 2011
p355
aVLAC vs. PHX
p356
aVL
p357
aI17
aI2
aI6
aF0.333
aI1
aI4
aF0.25
aI0
aI0
aF0.0
aI0
aI2
aI2
aI1
aI2
aI0
aI2
aI1
aI5
aI-14
aa(lp358
V0021001065
p359
aVMAR 23, 2011
p360
aVLAC vs. WAS
p361
aVW
p362
aI12
aI0
aI3
aF0.0
aI0
aI0
aF0.0
aI0
aI0
aF0.0
aI0
aI0
aI0
aI2
aI1
aI0
aI1
aI1
aI0
aI-9
aa(lp363
V0021001080
p364
aVMAR 25, 2011
p365
aVLAC @ LAL
p366
aVL
p367
aI9
aI0
aI2
aF0.0
aI0
aI1
aF0.0
aI0
aI0
aF0.0
aI0
aI1
aI1
aI0
aI1
aI0
aI0
aI0
aI0
aI7
aa(lp368
V0021001086
p369
aVMAR 26, 2011
p370
aVLAC vs. TOR
p371
aVW
p372
aI15
aI1
aI4
aF0.25
aI0
aI1
aF0.0
aI1
aI2
aF0.5
aI0
aI0
aI0
aI2
aI1
aI0
aI3
aI1
aI3
aI-11
aa(lp373
V0021001117
p374
aVMAR 30, 2011
p375
aVLAC vs. DAL
p376
aVL
p377
aI2
aI0
aI0
aF0.0
aI0
aI0
aF0.0
aI0
aI0
aF0.0
aI0
aI0
aI0
aI0
aI0
aI0
aI0
aI1
aI0
aI-4
aa(lp378
V0021001129
p379
aVAPR 01, 2011
p380
aVLAC @ PHX
p381
aVL
p382
aI27
aI4
aI6
aF0.667
aI1
aI2
aF0.5
aI0
aI0
aF0.0
aI2
aI1
aI3
aI2
aI3
aI0
aI1
aI2
aI9
aI3
aa(lp383
V0021001137
p384
aVAPR 02, 2011
p385
aVLAC vs. OKC
p386
aVW
p387
aI16
aI0
aI2
aF0.0
aI0
aI0
aF0.0
aI1
aI2
aF0.5
aI0
aI1
aI1
aI3
aI1
aI0
aI2
aI1
aI1
aI-5
aa(lp388
V0021001157
p389
aVAPR 05, 2011
p390
aVLAC @ MEM
p391
aVW
p392
aI21
aI0
aI0
aF0.0
aI0
aI0
aF0.0
aI3
aI4
aF0.75
aI1
aI0
aI1
aI2
aI1
aI0
aI5
aI5
aI3
aI10
aa(lp393
V0021001170
p394
aVAPR 06, 2011
p395
aVLAC @ OKC
p396
aVL
p397
aI14
aI2
aI4
aF0.5
aI0
aI0
aF0.0
aI1
aI2
aF0.5
aI2
aI0
aI2
aI2
aI1
aI0
aI3
aI0
aI5
aI-7
aa(lp398
V0021001186
p399
aVAPR 08, 2011
p400
aVLAC @ DAL
p401
aVL
p402
aI2
aI0
aI0
aF0.0
aI0
aI0
aF0.0
aI0
aI0
aF0.0
aI0
aI0
aI0
aI0
aI2
aI0
aI2
aI1
aI0
aI-2
aa(lp403
V0021001228
p404
aVAPR 13, 2011
p405
aVLAC vs. MEM
p406
aVW
p407
aI22
aI6
aI9
aF0.667
aI0
aI0
aF0.0
aI1
aI1
aF1.0
aI1
aI3
aI4
aI6
aI3
aI2
aI3
aI2
aI13
aI8
aasS'name'
p408
VEric Bledsoe
p409
sS'weight'
p410
V190
p411
sS'age'
p412
I21
sS'experience'
p413
I0
sS'height'
p414
V6-1
p415
sS'position'
p416
VGuard
p417
s.