(dp0
S'stats'
p1
(lp2
(lp3
V0021000410
p4
aVDEC 20, 2010
p5
aVMIA vs. DAL
p6
aVL
p7
aI4
aI0
aI4
aF0.0
aI0
aI4
aF0.0
aI0
aI0
aF0.0
aI2
aI2
aI4
aI0
aI0
aI0
aI0
aI1
aI0
aI5
aa(lp8
V0021000432
p9
aVDEC 23, 2010
p10
aVMIA @ PHX
p11
aVW
p12
aI19
aI0
aI3
aF0.0
aI0
aI0
aF0.0
aI1
aI2
aF0.5
aI1
aI4
aI5
aI0
aI0
aI0
aI2
aI3
aI1
aI17
aa(lp13
V0021000435
p14
aVDEC 25, 2010
p15
aVMIA @ LAL
p16
aVW
p17
aI2
aI0
aI1
aF0.0
aI0
aI0
aF0.0
aI0
aI0
aF0.0
aI0
aI0
aI0
aI0
aI0
aI0
aI0
aI0
aI0
aI-2
aa(lp18
V0021000469
p19
aVDEC 29, 2010
p20
aVMIA @ HOU
p21
aVW
p22
aI7
aI1
aI2
aF0.5
aI0
aI1
aF0.0
aI0
aI0
aF0.0
aI0
aI1
aI1
aI0
aI0
aI0
aI0
aI0
aI2
aI-11
aa(lp23
V0021000499
p24
aVJAN 03, 2011
p25
aVMIA @ CHA
p26
aVW
p27
aI9
aI0
aI2
aF0.0
aI0
aI0
aF0.0
aI0
aI0
aF0.0
aI1
aI1
aI2
aI0
aI0
aI0
aI0
aI0
aI0
aI-2
aa(lp28
V0021000505
p29
aVJAN 04, 2011
p30
aVMIA vs. MIL
p31
aVW
p32
aI9
aI0
aI1
aF0.0
aI0
aI1
aF0.0
aI0
aI0
aF0.0
aI1
aI1
aI2
aI0
aI0
aI0
aI1
aI2
aI0
aI-3
aa(lp33
V0021000572
p34
aVJAN 12, 2011
p35
aVMIA @ LAC
p36
aVL
p37
aI3
aI0
aI0
aF0.0
aI0
aI0
aF0.0
aI0
aI0
aF0.0
aI0
aI1
aI1
aI0
aI0
aI0
aI1
aI0
aI0
aI-7
aa(lp38
V0021000575
p39
aVJAN 13, 2011
p40
aVMIA @ DEN
p41
aVL
p42
aI33
aI2
aI7
aF0.286
aI0
aI1
aF0.0
aI0
aI0
aF0.0
aI1
aI7
aI8
aI8
aI1
aI0
aI3
aI3
aI4
aI-19
aa(lp43
V0021000591
p44
aVJAN 15, 2011
p45
aVMIA @ CHI
p46
aVL
p47
aI26
aI3
aI6
aF0.5
aI2
aI3
aF0.667
aI0
aI0
aF0.0
aI0
aI3
aI3
aI2
aI0
aI0
aI2
aI1
aI8
aI16
aa(lp48
V0021000611
p49
aVJAN 18, 2011
p50
aVMIA vs. ATL
p51
aVL
p52
aI10
aI0
aI2
aF0.0
aI0
aI2
aF0.0
aI0
aI0
aF0.0
aI0
aI2
aI2
aI0
aI0
aI0
aI1
aI0
aI0
aI-10
aa(lp53
V0021000643
p54
aVJAN 22, 2011
p55
aVMIA vs. TOR
p56
aVW
p57
aI33
aI12
aI20
aF0.6
aI6
aI11
aF0.545
aI2
aI3
aF0.667
aI3
aI7
aI10
aI3
aI1
aI0
aI3
aI4
aI32
aI9
aa(lp58
V0021000678
p59
aVJAN 27, 2011
p60
aVMIA @ NYK
p61
aVL
p62
aI21
aI0
aI3
aF0.0
aI0
aI2
aF0.0
aI0
aI0
aF0.0
aI2
aI4
aI6
aI1
aI0
aI1
aI2
aI3
aI0
aI-8
aa(lp63
V0021000686
p64
aVJAN 28, 2011
p65
aVMIA vs. DET
p66
aVW
p67
aI42
aI4
aI12
aF0.333
aI0
aI6
aF0.0
aI4
aI5
aF0.8
aI1
aI9
aI10
aI3
aI1
aI0
aI2
aI4
aI12
aI0
aa(lp68
V0021000701
p69
aVJAN 30, 2011
p70
aVMIA @ OKC
p71
aVW
p72
aI29
aI2
aI6
aF0.333
aI2
aI4
aF0.5
aI0
aI0
aF0.0
aI3
aI5
aI8
aI2
aI2
aI0
aI1
aI0
aI6
aI14
aa(lp73
V0021000710
p74
aVJAN 31, 2011
p75
aVMIA vs. CLE
p76
aVW
p77
aI27
aI4
aI6
aF0.667
aI2
aI3
aF0.667
aI0
aI0
aF0.0
aI2
aI9
aI11
aI1
aI0
aI0
aI0
aI1
aI10
aI20
aa(lp78
V0021000730
p79
aVFEB 03, 2011
p80
aVMIA @ ORL
p81
aVW
p82
aI20
aI2
aI3
aF0.667
aI1
aI1
aF1.0
aI0
aI0
aF0.0
aI3
aI8
aI11
aI1
aI0
aI0
aI1
aI5
aI5
aI1
aa(lp83
V0021000733
p84
aVFEB 04, 2011
p85
aVMIA @ CHA
p86
aVW
p87
aI19
aI4
aI4
aF1.0
aI3
aI3
aF1.0
aI2
aI2
aF1.0
aI0
aI2
aI2
aI0
aI0
aI0
aI0
aI4
aI13
aI12
aa(lp88
V0021000754
p89
aVFEB 06, 2011
p90
aVMIA vs. LAC
p91
aVW
p92
aI21
aI2
aI7
aF0.286
aI2
aI6
aF0.333
aI2
aI2
aF1.0
aI0
aI5
aI5
aI1
aI0
aI0
aI0
aI5
aI8
aI-3
aa(lp93
V0021000769
p94
aVFEB 08, 2011
p95
aVMIA vs. IND
p96
aVW
p97
aI22
aI3
aI7
aF0.429
aI2
aI4
aF0.5
aI0
aI0
aF0.0
aI1
aI4
aI5
aI0
aI0
aI0
aI0
aI4
aI8
aI12
aa(lp98
V0021000792
p99
aVFEB 11, 2011
p100
aVMIA @ DET
p101
aVW
p102
aI30
aI6
aI9
aF0.667
aI3
aI5
aF0.6
aI1
aI1
aF1.0
aI0
aI3
aI3
aI2
aI1
aI0
aI1
aI3
aI16
aI4
aa(lp103
V0021000804
p104
aVFEB 13, 2011
p105
aVMIA @ BOS
p106
aVL
p107
aI25
aI1
aI5
aF0.2
aI1
aI5
aF0.2
aI2
aI3
aF0.667
aI0
aI9
aI9
aI1
aI0
aI0
aI1
aI2
aI5
aI-11
aa(lp108
V0021000818
p109
aVFEB 15, 2011
p110
aVMIA @ IND
p111
aVW
p112
aI15
aI0
aI2
aF0.0
aI0
aI0
aF0.0
aI0
aI0
aF0.0
aI1
aI2
aI3
aI1
aI1
aI0
aI1
aI1
aI0
aI-21
aa(lp113
V0021000887
p114
aVFEB 27, 2011
p115
aVMIA vs. NYK
p116
aVL
p117
aI27
aI3
aI6
aF0.5
aI3
aI5
aF0.6
aI1
aI1
aF1.0
aI0
aI4
aI4
aI0
aI0
aI0
aI2
aI4
aI10
aI-22
aa(lp118
V0021000912
p119
aVMAR 03, 2011
p120
aVMIA vs. ORL
p121
aVL
p122
aI24
aI2
aI3
aF0.667
aI1
aI2
aF0.5
aI0
aI0
aF0.0
aI1
aI5
aI6
aI0
aI2
aI0
aI1
aI1
aI5
aI-5
aa(lp123
V0021000923
p124
aVMAR 04, 2011
p125
aVMIA @ SAS
p126
aVL
p127
aI33
aI4
aI8
aF0.5
aI3
aI5
aF0.6
aI1
aI1
aF1.0
aI0
aI4
aI4
aI1
aI0
aI0
aI0
aI2
aI12
aI-20
aa(lp128
V0021000931
p129
aVMAR 06, 2011
p130
aVMIA vs. CHI
p131
aVL
p132
aI31
aI0
aI5
aF0.0
aI0
aI4
aF0.0
aI1
aI2
aF0.5
aI0
aI2
aI2
aI0
aI2
aI0
aI0
aI5
aI1
aI-1
aa(lp133
V0021000951
p134
aVMAR 08, 2011
p135
aVMIA vs. POR
p136
aVL
p137
aI24
aI1
aI7
aF0.143
aI0
aI2
aF0.0
aI0
aI0
aF0.0
aI1
aI3
aI4
aI2
aI1
aI0
aI0
aI3
aI2
aI-5
aa(lp138
V0021000964
p139
aVMAR 10, 2011
p140
aVMIA vs. LAL
p141
aVW
p142
aI16
aI4
aI6
aF0.667
aI2
aI3
aF0.667
aI2
aI4
aF0.5
aI3
aI4
aI7
aI0
aI0
aI0
aI1
aI0
aI12
aI12
aa(lp143
V0021000976
p144
aVMAR 12, 2011
p145
aVMIA vs. MEM
p146
aVW
p147
aI19
aI1
aI3
aF0.333
aI1
aI2
aF0.5
aI0
aI0
aF0.0
aI1
aI2
aI3
aI4
aI1
aI0
aI1
aI3
aI3
aI17
aa(lp148
V0021000993
p149
aVMAR 14, 2011
p150
aVMIA vs. SAS
p151
aVW
p152
aI21
aI1
aI3
aF0.333
aI0
aI2
aF0.0
aI0
aI0
aF0.0
aI1
aI2
aI3
aI6
aI1
aI0
aI1
aI2
aI2
aI9
aa(lp153
V0021001006
p154
aVMAR 16, 2011
p155
aVMIA vs. OKC
p156
aVL
p157
aI18
aI1
aI3
aF0.333
aI0
aI2
aF0.0
aI0
aI0
aF0.0
aI1
aI2
aI3
aI1
aI1
aI0
aI0
aI4
aI2
aI-6
aa(lp158
V0021001020
p159
aVMAR 18, 2011
p160
aVMIA @ ATL
p161
aVW
p162
aI24
aI1
aI2
aF0.5
aI1
aI2
aF0.5
aI1
aI1
aF1.0
aI2
aI2
aI4
aI4
aI0
aI0
aI4
aI1
aI4
aI-5
aa(lp163
V0021001030
p164
aVMAR 19, 2011
p165
aVMIA vs. DEN
p166
aVW
p167
aI18
aI0
aI1
aF0.0
aI0
aI1
aF0.0
aI0
aI0
aF0.0
aI0
aI2
aI2
aI0
aI1
aI1
aI0
aI1
aI0
aI-20
aa(lp168
V0021001058
p169
aVMAR 23, 2011
p170
aVMIA @ DET
p171
aVW
p172
aI27
aI4
aI8
aF0.5
aI3
aI7
aF0.429
aI2
aI2
aF1.0
aI0
aI2
aI2
aI0
aI0
aI0
aI2
aI3
aI13
aI8
aa(lp173
V0021001072
p174
aVMAR 25, 2011
p175
aVMIA vs. PHI
p176
aVW
p177
aI21
aI1
aI6
aF0.167
aI1
aI3
aF0.333
aI1
aI2
aF0.5
aI1
aI2
aI3
aI2
aI1
aI0
aI2
aI1
aI4
aI-7
aa(lp178
V0021001089
p179
aVMAR 27, 2011
p180
aVMIA vs. HOU
p181
aVW
p182
aI23
aI2
aI4
aF0.5
aI0
aI2
aF0.0
aI0
aI2
aF0.0
aI1
aI3
aI4
aI0
aI0
aI0
aI2
aI2
aI4
aI-3
aa(lp183
V0021001142
p184
aVAPR 03, 2011
p185
aVMIA @ NJN
p186
aVW
p187
aI21
aI2
aI6
aF0.333
aI0
aI3
aF0.0
aI0
aI0
aF0.0
aI1
aI4
aI5
aI0
aI1
aI0
aI1
aI2
aI4
aI-4
aa(lp188
V0021001164
p189
aVAPR 06, 2011
p190
aVMIA vs. MIL
p191
aVL
p192
aI26
aI3
aI7
aF0.429
aI2
aI6
aF0.333
aI0
aI0
aF0.0
aI2
aI10
aI12
aI2
aI1
aI0
aI1
aI2
aI8
aI3
aa(lp193
V0021001182
p194
aVAPR 08, 2011
p195
aVMIA vs. CHA
p196
aVW
p197
aI20
aI4
aI9
aF0.444
aI1
aI3
aF0.333
aI0
aI1
aF0.0
aI0
aI2
aI2
aI2
aI1
aI0
aI0
aI2
aI9
aI1
aa(lp198
V0021001194
p199
aVAPR 10, 2011
p200
aVMIA vs. BOS
p201
aVW
p202
aI8
aI1
aI1
aF1.0
aI1
aI1
aF1.0
aI0
aI0
aF0.0
aI0
aI2
aI2
aI0
aI0
aI0
aI1
aI2
aI3
aI6
aa(lp203
V0021001202
p204
aVAPR 11, 2011
p205
aVMIA @ ATL
p206
aVW
p207
aI12
aI0
aI2
aF0.0
aI0
aI1
aF0.0
aI0
aI0
aF0.0
aI1
aI0
aI1
aI1
aI0
aI0
aI0
aI2
aI0
aI-4
aasS'name'
p208
VMike Miller
p209
sS'weight'
p210
V218
p211
sS'age'
p212
I30
sS'experience'
p213
I10
sS'height'
p214
V6-8
p215
sS'position'
p216
VGuard-Forward
p217
s.