(dp0
S'age'
p1
I34
sS'stats'
p2
(lp3
(lp4
V0021001096
p5
aVMAR 28, 2011
p6
aVCHA vs. MIL
p7
aVW
p8
aI12
aI0
aI2
aF0.0
aI0
aI0
aF0.0
aI0
aI0
aF0.0
aI0
aI0
aI0
aI1
aI0
aI0
aI0
aI1
aI0
aI-2
aa(lp9
V0021001070
p10
aVMAR 25, 2011
p11
aVCHA @ BOS
p12
aVW
p13
aI6
aI0
aI0
aF0.0
aI0
aI0
aF0.0
aI0
aI0
aF0.0
aI0
aI0
aI0
aI0
aI0
aI0
aI1
aI1
aI0
aI2
aa(lp14
V0021001033
p15
aVMAR 19, 2011
p16
aVCHA @ SAS
p17
aVL
p18
aI4
aI0
aI0
aF0.0
aI0
aI0
aF0.0
aI0
aI0
aF0.0
aI0
aI0
aI0
aI0
aI0
aI0
aI0
aI1
aI0
aI0
aa(lp19
V0021000986
p20
aVMAR 13, 2011
p21
aVCHA @ TOR
p22
aVW
p23
aI4
aI0
aI0
aF0.0
aI0
aI0
aF0.0
aI0
aI0
aF0.0
aI1
aI0
aI1
aI0
aI0
aI0
aI0
aI1
aI0
aI-7
aa(lp24
V0021000953
p25
aVMAR 09, 2011
p26
aVCHA vs. CHI
p27
aVL
p28
aI14
aI3
aI5
aF0.6
aI1
aI2
aF0.5
aI0
aI0
aF0.0
aI0
aI2
aI2
aI2
aI1
aI2
aI1
aI1
aI7
aI-2
aa(lp29
V0021000940
p30
aVMAR 07, 2011
p31
aVCHA vs. LAC
p32
aVL
p33
aI5
aI0
aI0
aF0.0
aI0
aI0
aF0.0
aI0
aI0
aF0.0
aI0
aI1
aI1
aI1
aI0
aI0
aI0
aI2
aI0
aI-1
aa(lp34
V0021000929
p35
aVMAR 05, 2011
p36
aVCHA @ POR
p37
aVL
p38
aI8
aI0
aI0
aF0.0
aI0
aI0
aF0.0
aI0
aI0
aF0.0
aI0
aI0
aI0
aI0
aI0
aI0
aI1
aI2
aI0
aI-5
aa(lp39
V0021000924
p40
aVMAR 04, 2011
p41
aVCHA @ LAL
p42
aVL
p43
aI7
aI0
aI1
aF0.0
aI0
aI1
aF0.0
aI0
aI0
aF0.0
aI0
aI0
aI0
aI1
aI0
aI0
aI0
aI1
aI0
aI5
aa(lp44
V0021000909
p45
aVMAR 02, 2011
p46
aVCHA @ DEN
p47
aVL
p48
aI17
aI2
aI5
aF0.4
aI1
aI3
aF0.333
aI0
aI0
aF0.0
aI3
aI1
aI4
aI0
aI1
aI1
aI1
aI3
aI5
aI-17
aa(lp49
V0021000883
p50
aVFEB 27, 2011
p51
aVCHA @ ORL
p52
aVL
p53
aI16
aI1
aI3
aF0.333
aI0
aI0
aF0.0
aI0
aI0
aF0.0
aI0
aI2
aI2
aI1
aI1
aI0
aI0
aI0
aI2
aI-1
aa(lp54
V0021000861
p55
aVFEB 25, 2011
p56
aVCHA vs. SAC
p57
aVW
p58
aI22
aI1
aI5
aF0.2
aI1
aI5
aF0.2
aI0
aI0
aF0.0
aI0
aI3
aI3
aI3
aI1
aI1
aI0
aI1
aI3
aI10
aa(lp59
V0021000838
p60
aVFEB 22, 2011
p61
aVCHA vs. TOR
p62
aVW
p63
aI8
aI0
aI1
aF0.0
aI0
aI0
aF0.0
aI1
aI2
aF0.5
aI0
aI0
aI0
aI1
aI1
aI0
aI0
aI2
aI1
aI-7
aa(lp64
V0021000812
p65
aVFEB 14, 2011
p66
aVCHA vs. LAL
p67
aVW
p68
aI19
aI0
aI1
aF0.0
aI0
aI1
aF0.0
aI0
aI0
aF0.0
aI0
aI3
aI3
aI3
aI2
aI0
aI0
aI4
aI0
aI19
aa(lp69
V0021000796
p70
aVFEB 12, 2011
p71
aVCHA @ ATL
p72
aVW
p73
aI29
aI1
aI3
aF0.333
aI0
aI1
aF0.0
aI0
aI2
aF0.0
aI1
aI2
aI3
aI3
aI0
aI0
aI1
aI2
aI2
aI14
aa(lp74
V0021000786
p75
aVFEB 11, 2011
p76
aVCHA vs. NJN
p77
aVL
p78
aI17
aI1
aI5
aF0.2
aI0
aI0
aF0.0
aI0
aI0
aF0.0
aI0
aI3
aI3
aI2
aI0
aI0
aI1
aI2
aI2
aI1
aa(lp79
V0021000774
p80
aVFEB 09, 2011
p81
aVCHA @ IND
p82
aVL
p83
aI25
aI3
aI4
aF0.75
aI1
aI2
aF0.5
aI1
aI1
aF1.0
aI0
aI4
aI4
aI0
aI1
aI0
aI0
aI4
aI8
aI3
aa(lp84
V0021000758
p85
aVFEB 07, 2011
p86
aVCHA vs. BOS
p87
aVW
p88
aI19
aI2
aI5
aF0.4
aI1
aI3
aF0.333
aI0
aI0
aF0.0
aI2
aI0
aI2
aI0
aI1
aI0
aI0
aI2
aI5
aI10
aa(lp89
V0021000745
p90
aVFEB 05, 2011
p91
aVCHA vs. DAL
p92
aVL
p93
aI22
aI2
aI5
aF0.4
aI0
aI1
aF0.0
aI0
aI0
aF0.0
aI1
aI2
aI3
aI0
aI0
aI1
aI0
aI3
aI4
aI5
aa(lp94
V0021000713
p95
aVJAN 31, 2011
p96
aVCHA @ UTA
p97
aVL
p98
aI28
aI1
aI3
aF0.333
aI1
aI3
aF0.333
aI0
aI0
aF0.0
aI1
aI1
aI2
aI2
aI0
aI0
aI2
aI2
aI3
aI17
aa(lp99
V0021000691
p100
aVJAN 28, 2011
p101
aVCHA @ GSW
p102
aVW
p103
aI7
aI1
aI2
aF0.5
aI1
aI2
aF0.5
aI0
aI0
aF0.0
aI0
aI1
aI1
aI0
aI0
aI0
aI0
aI1
aI3
aI-4
aa(lp104
V0021000675
p105
aVJAN 26, 2011
p106
aVCHA @ PHX
p107
aVW
p108
aI4
aI0
aI1
aF0.0
aI0
aI0
aF0.0
aI0
aI0
aF0.0
aI0
aI0
aI0
aI0
aI0
aI0
aI0
aI0
aI0
aI0
aa(lp109
V0021000666
p110
aVJAN 25, 2011
p111
aVCHA @ SAC
p112
aVW
p113
aI15
aI1
aI2
aF0.5
aI1
aI1
aF1.0
aI2
aI2
aF1.0
aI2
aI3
aI5
aI0
aI0
aI0
aI1
aI5
aI5
aI-1
aa(lp114
V0021000639
p115
aVJAN 22, 2011
p116
aVCHA vs. ATL
p117
aVL
p118
aI6
aI1
aI2
aF0.5
aI0
aI1
aF0.0
aI0
aI0
aF0.0
aI0
aI0
aI0
aI0
aI0
aI0
aI0
aI1
aI2
aI-4
aa(lp119
V0021000626
p120
aVJAN 20, 2011
p121
aVCHA vs. PHI
p122
aVW
p123
aI2
aI0
aI0
aF0.0
aI0
aI0
aF0.0
aI0
aI0
aF0.0
aI0
aI0
aI0
aI0
aI0
aI0
aI0
aI0
aI0
aI-1
aa(lp124
V0021000601
p125
aVJAN 17, 2011
p126
aVCHA @ PHI
p127
aVL
p128
aI8
aI0
aI1
aF0.0
aI0
aI1
aF0.0
aI1
aI2
aF0.5
aI0
aI0
aI0
aI0
aI0
aI0
aI2
aI1
aI1
aI-15
aa(lp129
V0021000537
p130
aVJAN 08, 2011
p131
aVCHA vs. WAS
p132
aVW
p133
aI10
aI1
aI1
aF1.0
aI0
aI0
aF0.0
aI0
aI0
aF0.0
aI0
aI0
aI0
aI0
aI0
aI0
aI1
aI2
aI2
aI-1
aa(lp134
V0021000517
p135
aVJAN 05, 2011
p136
aVCHA @ MIN
p137
aVW
p138
aI13
aI4
aI9
aF0.444
aI2
aI4
aF0.5
aI1
aI2
aF0.5
aI2
aI0
aI2
aI0
aI1
aI1
aI1
aI3
aI11
aI1
aa(lp139
V0021000499
p140
aVJAN 03, 2011
p141
aVCHA vs. MIA
p142
aVL
p143
aI4
aI0
aI1
aF0.0
aI0
aI0
aF0.0
aI0
aI0
aF0.0
aI0
aI1
aI1
aI0
aI0
aI0
aI0
aI0
aI0
aI4
aa(lp144
V0021000343
p145
aVDEC 11, 2010
p146
aVCHA vs. BOS
p147
aVL
p148
aI10
aI0
aI4
aF0.0
aI0
aI2
aF0.0
aI0
aI0
aF0.0
aI1
aI0
aI1
aI0
aI0
aI0
aI0
aI2
aI0
aI-5
aa(lp149
V0021000330
p150
aVDEC 10, 2010
p151
aVCHA @ IND
p152
aVL
p153
aI5
aI1
aI1
aF1.0
aI1
aI1
aF1.0
aI0
aI0
aF0.0
aI0
aI0
aI0
aI0
aI1
aI0
aI0
aI0
aI3
aI-2
aa(lp154
V0021000130
p155
aVNOV 13, 2010
p156
aVCHA vs. UTA
p157
aVL
p158
aI7
aI0
aI0
aF0.0
aI0
aI0
aF0.0
aI0
aI0
aF0.0
aI0
aI1
aI1
aI0
aI0
aI0
aI0
aI2
aI0
aI-4
aasS'name'
p159
VEduardo Najera
p160
sS'experience'
p161
I10
s.