(dp0
S'age'
p1
I33
sS'stats'
p2
(lp3
(lp4
V0021001223
p5
aVAPR 13, 2011
p6
aVDAL vs. NOH
p7
aVW
p8
aI19
aI1
aI1
aF1.0
aI1
aI1
aF1.0
aI0
aI0
aF0.0
aI0
aI3
aI3
aI3
aI0
aI1
aI0
aI3
aI3
aI22
aa(lp9
V0021001209
p10
aVAPR 11, 2011
p11
aVDAL @ HOU
p12
aVW
p13
aI7
aI1
aI2
aF0.5
aI1
aI2
aF0.5
aI0
aI0
aF0.0
aI0
aI0
aI0
aI0
aI0
aI0
aI0
aI1
aI3
aI-7
aa(lp14
V0021001199
p15
aVAPR 10, 2011
p16
aVDAL vs. PHX
p17
aVW
p18
aI9
aI1
aI1
aF1.0
aI1
aI1
aF1.0
aI0
aI0
aF0.0
aI0
aI1
aI1
aI3
aI1
aI1
aI2
aI2
aI3
aI7
aa(lp19
V0021001186
p20
aVAPR 08, 2011
p21
aVDAL vs. LAC
p22
aVW
p23
aI4
aI0
aI0
aF0.0
aI0
aI0
aF0.0
aI0
aI0
aF0.0
aI0
aI0
aI0
aI0
aI0
aI0
aI0
aI1
aI0
aI-7
aa(lp24
V0021001172
p25
aVAPR 06, 2011
p26
aVDAL vs. DEN
p27
aVL
p28
aI2
aI0
aI0
aF0.0
aI0
aI0
aF0.0
aI0
aI0
aF0.0
aI0
aI1
aI1
aI0
aI0
aI0
aI0
aI0
aI0
aI1
aa(lp29
V0021001148
p30
aVAPR 03, 2011
p31
aVDAL @ POR
p32
aVL
p33
aI12
aI1
aI2
aF0.5
aI1
aI2
aF0.5
aI0
aI0
aF0.0
aI0
aI0
aI0
aI1
aI0
aI0
aI0
aI2
aI3
aI10
aa(lp34
V0021001119
p35
aVMAR 31, 2011
p36
aVDAL @ LAL
p37
aVL
p38
aI5
aI0
aI0
aF0.0
aI0
aI0
aF0.0
aI0
aI0
aF0.0
aI0
aI0
aI0
aI0
aI0
aI0
aI0
aI1
aI0
aI-5
aa(lp39
V0021001117
p40
aVMAR 30, 2011
p41
aVDAL @ LAC
p42
aVW
p43
aI7
aI2
aI2
aF1.0
aI2
aI2
aF1.0
aI0
aI0
aF0.0
aI0
aI0
aI0
aI1
aI0
aI0
aI0
aI2
aI6
aI0
aa(lp44
V0021001085
p45
aVMAR 26, 2011
p46
aVDAL @ UTA
p47
aVW
p48
aI4
aI0
aI0
aF0.0
aI0
aI0
aF0.0
aI0
aI0
aF0.0
aI0
aI0
aI0
aI0
aI0
aI0
aI0
aI0
aI0
aI0
aa(lp49
V0021001066
p50
aVMAR 24, 2011
p51
aVDAL vs. MIN
p52
aVW
p53
aI2
aI0
aI0
aF0.0
aI0
aI0
aF0.0
aI0
aI0
aF0.0
aI0
aI0
aI0
aI1
aI0
aI0
aI1
aI0
aI0
aI-2
aa(lp54
V0021001042
p55
aVMAR 20, 2011
p56
aVDAL vs. GSW
p57
aVW
p58
aI16
aI0
aI2
aF0.0
aI0
aI1
aF0.0
aI2
aI2
aF1.0
aI0
aI1
aI1
aI1
aI2
aI0
aI0
aI3
aI2
aI-3
aa(lp59
V0021001023
p60
aVMAR 18, 2011
p61
aVDAL vs. SAS
p62
aVL
p63
aI4
aI0
aI0
aF0.0
aI0
aI0
aF0.0
aI0
aI0
aF0.0
aI0
aI2
aI2
aI0
aI0
aI0
aI0
aI0
aI0
aI0
aa(lp64
V0021001012
p65
aVMAR 16, 2011
p66
aVDAL @ GSW
p67
aVW
p68
aI7
aI0
aI0
aF0.0
aI0
aI0
aF0.0
aI0
aI0
aF0.0
aI0
aI0
aI0
aI0
aI0
aI0
aI2
aI1
aI0
aI-8
aa(lp69
V0021001002
p70
aVMAR 15, 2011
p71
aVDAL @ POR
p72
aVL
p73
aI5
aI0
aI1
aF0.0
aI0
aI1
aF0.0
aI0
aI0
aF0.0
aI0
aI0
aI0
aI0
aI0
aI0
aI0
aI0
aI0
aI-3
aa(lp74
V0021000982
p75
aVMAR 12, 2011
p76
aVDAL vs. LAL
p77
aVL
p78
aI17
aI1
aI2
aF0.5
aI1
aI1
aF1.0
aI0
aI0
aF0.0
aI0
aI0
aI0
aI0
aI0
aI1
aI0
aI3
aI3
aI-4
aa(lp79
V0021000965
p80
aVMAR 10, 2011
p81
aVDAL vs. NYK
p82
aVW
p83
aI14
aI1
aI4
aF0.25
aI1
aI4
aF0.25
aI2
aI2
aF1.0
aI0
aI2
aI2
aI1
aI0
aI0
aI0
aI4
aI5
aI-4
aa(lp84
V0021000961
p85
aVMAR 09, 2011
p86
aVDAL @ NOH
p87
aVL
p88
aI21
aI1
aI2
aF0.5
aI1
aI2
aF0.5
aI2
aI2
aF1.0
aI0
aI0
aI0
aI2
aI0
aI0
aI1
aI1
aI5
aI-8
aa(lp89
V0021000945
p90
aVMAR 07, 2011
p91
aVDAL @ MIN
p92
aVW
p93
aI17
aI4
aI8
aF0.5
aI4
aI8
aF0.5
aI0
aI0
aF0.0
aI0
aI0
aI0
aI1
aI3
aI0
aI0
aI1
aI12
aI0
aa(lp94
V0021000921
p95
aVMAR 04, 2011
p96
aVDAL vs. IND
p97
aVW
p98
aI2
aI0
aI0
aF0.0
aI0
aI0
aF0.0
aI0
aI0
aF0.0
aI0
aI1
aI1
aI0
aI0
aI0
aI0
aI0
aI0
aI3
aa(lp99
V0021000884
p100
aVFEB 27, 2011
p101
aVDAL @ TOR
p102
aVW
p103
aI8
aI0
aI0
aF0.0
aI0
aI0
aF0.0
aI0
aI0
aF0.0
aI0
aI0
aI0
aI1
aI0
aI0
aI0
aI1
aI0
aI-3
aa(lp104
V0021000856
p105
aVFEB 23, 2011
p106
aVDAL vs. UTA
p107
aVW
p108
aI11
aI0
aI0
aF0.0
aI0
aI0
aF0.0
aI0
aI0
aF0.0
aI0
aI2
aI2
aI0
aI1
aI0
aI0
aI4
aI0
aI6
aa(lp109
V0021000831
p110
aVFEB 16, 2011
p111
aVDAL vs. SAC
p112
aVW
p113
aI6
aI0
aI0
aF0.0
aI0
aI0
aF0.0
aI0
aI0
aF0.0
aI0
aI0
aI0
aI1
aI1
aI0
aI0
aI1
aI0
aI-7
aa(lp114
V0021000785
p115
aVFEB 10, 2011
p116
aVDAL @ DEN
p117
aVL
p118
aI16
aI1
aI1
aF1.0
aI1
aI1
aF1.0
aI0
aI0
aF0.0
aI0
aI3
aI3
aI0
aI0
aI0
aI1
aI4
aI3
aI18
aa(lp119
V0021000781
p120
aVFEB 09, 2011
p121
aVDAL @ SAC
p122
aVW
p123
aI9
aI1
aI1
aF1.0
aI1
aI1
aF1.0
aI0
aI0
aF0.0
aI0
aI0
aI0
aI1
aI0
aI0
aI0
aI1
aI3
aI12
aa(lp124
V0021000761
p125
aVFEB 07, 2011
p126
aVDAL vs. CLE
p127
aVW
p128
aI3
aI0
aI0
aF0.0
aI0
aI0
aF0.0
aI0
aI0
aF0.0
aI0
aI0
aI0
aI0
aI0
aI1
aI0
aI0
aI0
aI-2
aa(lp129
V0021000745
p130
aVFEB 05, 2011
p131
aVDAL @ CHA
p132
aVW
p133
aI6
aI0
aI1
aF0.0
aI0
aI1
aF0.0
aI0
aI0
aF0.0
aI0
aI0
aI0
aI1
aI0
aI0
aI0
aI0
aI0
aI9
aa(lp134
V0021000740
p135
aVFEB 04, 2011
p136
aVDAL @ BOS
p137
aVW
p138
aI2
aI0
aI0
aF0.0
aI0
aI0
aF0.0
aI0
aI0
aF0.0
aI0
aI0
aI0
aI1
aI0
aI0
aI0
aI1
aI0
aI-1
aa(lp139
V0021000723
p140
aVFEB 02, 2011
p141
aVDAL @ NYK
p142
aVW
p143
aI10
aI1
aI1
aF1.0
aI1
aI1
aF1.0
aI0
aI0
aF0.0
aI0
aI0
aI0
aI3
aI0
aI0
aI0
aI1
aI3
aI-3
aa(lp144
V0021000712
p145
aVJAN 31, 2011
p146
aVDAL vs. WAS
p147
aVW
p148
aI31
aI3
aI8
aF0.375
aI3
aI8
aF0.375
aI0
aI0
aF0.0
aI0
aI4
aI4
aI1
aI0
aI1
aI1
aI3
aI9
aI-1
aa(lp149
V0021000679
p150
aVJAN 27, 2011
p151
aVDAL vs. HOU
p152
aVW
p153
aI2
aI0
aI0
aF0.0
aI0
aI0
aF0.0
aI0
aI0
aF0.0
aI0
aI0
aI0
aI0
aI0
aI0
aI1
aI1
aI0
aI-6
aa(lp154
V0021000621
p155
aVJAN 19, 2011
p156
aVDAL vs. LAL
p157
aVW
p158
aI8
aI1
aI1
aF1.0
aI1
aI1
aF1.0
aI0
aI0
aF0.0
aI0
aI1
aI1
aI2
aI0
aI0
aI0
aI0
aI3
aI-6
aa(lp159
V0021000604
p160
aVJAN 17, 2011
p161
aVDAL @ DET
p162
aVL
p163
aI13
aI2
aI3
aF0.667
aI2
aI3
aF0.667
aI0
aI0
aF0.0
aI1
aI1
aI2
aI1
aI0
aI0
aI2
aI1
aI6
aI-5
aa(lp164
V0021000592
p165
aVJAN 15, 2011
p166
aVDAL @ MEM
p167
aVL
p168
aI16
aI1
aI4
aF0.25
aI1
aI4
aF0.25
aI1
aI2
aF0.5
aI0
aI0
aI0
aI0
aI1
aI0
aI0
aI2
aI4
aI-8
aa(lp169
V0021000581
p170
aVJAN 14, 2011
p171
aVDAL @ SAS
p172
aVL
p173
aI17
aI1
aI1
aF1.0
aI1
aI1
aF1.0
aI0
aI0
aF0.0
aI0
aI1
aI1
aI0
aI0
aI0
aI0
aI3
aI3
aI-3
aa(lp174
V0021000562
p175
aVJAN 12, 2011
p176
aVDAL @ IND
p177
aVL
p178
aI17
aI1
aI2
aF0.5
aI1
aI1
aF1.0
aI0
aI0
aF0.0
aI2
aI0
aI2
aI0
aI0
aI0
aI1
aI1
aI3
aI-5
aa(lp179
V0021000542
p180
aVJAN 08, 2011
p181
aVDAL vs. ORL
p182
aVL
p183
aI7
aI3
aI5
aF0.6
aI3
aI4
aF0.75
aI0
aI0
aF0.0
aI0
aI0
aI0
aI1
aI2
aI0
aI1
aI1
aI9
aI-1
aa(lp184
V0021000523
p185
aVJAN 06, 2011
p186
aVDAL vs. OKC
p187
aVL
p188
aI16
aI0
aI3
aF0.0
aI0
aI2
aF0.0
aI2
aI2
aF1.0
aI0
aI3
aI3
aI0
aI0
aI0
aI0
aI3
aI2
aI0
aa(lp189
V0021000509
p190
aVJAN 04, 2011
p191
aVDAL vs. POR
p192
aVW
p193
aI21
aI0
aI1
aF0.0
aI0
aI1
aF0.0
aI0
aI0
aF0.0
aI0
aI1
aI1
aI2
aI1
aI0
aI0
aI4
aI0
aI8
aa(lp194
V0021000495
p195
aVJAN 02, 2011
p196
aVDAL @ CLE
p197
aVW
p198
aI17
aI1
aI2
aF0.5
aI1
aI2
aF0.5
aI0
aI0
aF0.0
aI1
aI1
aI2
aI1
aI1
aI1
aI1
aI2
aI3
aI5
aa(lp199
V0021000489
p200
aVJAN 01, 2011
p201
aVDAL @ MIL
p202
aVL
p203
aI34
aI1
aI6
aF0.167
aI1
aI5
aF0.2
aI4
aI4
aF1.0
aI2
aI3
aI5
aI3
aI2
aI0
aI1
aI3
aI7
aI4
aa(lp204
V0021000474
p205
aVDEC 30, 2010
p206
aVDAL vs. SAS
p207
aVL
p208
aI29
aI3
aI5
aF0.6
aI3
aI3
aF1.0
aI0
aI0
aF0.0
aI0
aI3
aI3
aI2
aI2
aI0
aI0
aI2
aI9
aI-8
aa(lp209
V0021000459
p210
aVDEC 28, 2010
p211
aVDAL vs. TOR
p212
aVL
p213
aI21
aI2
aI4
aF0.5
aI2
aI4
aF0.5
aI2
aI2
aF1.0
aI0
aI7
aI7
aI1
aI1
aI0
aI0
aI4
aI8
aI8
aa(lp214
V0021000390
p215
aVDEC 17, 2010
p216
aVDAL vs. PHX
p217
aVW
p218
aI2
aI0
aI0
aF0.0
aI0
aI0
aF0.0
aI0
aI0
aF0.0
aI0
aI0
aI0
aI0
aI0
aI0
aI0
aI0
aI0
aI1
aa(lp219
V0021000286
p220
aVDEC 03, 2010
p221
aVDAL @ UTA
p222
aVW
p223
aI1
aI0
aI0
aF0.0
aI0
aI0
aF0.0
aI0
aI0
aF0.0
aI0
aI0
aI0
aI0
aI0
aI0
aI0
aI1
aI0
aI-3
aa(lp224
V0021000268
p225
aVDEC 01, 2010
p226
aVDAL vs. MIN
p227
aVW
p228
aI19
aI2
aI3
aF0.667
aI2
aI2
aF1.0
aI0
aI0
aF0.0
aI1
aI2
aI3
aI0
aI1
aI0
aI0
aI3
aI6
aI2
aa(lp229
V0021000252
p230
aVNOV 29, 2010
p231
aVDAL vs. HOU
p232
aVW
p233
aI6
aI0
aI1
aF0.0
aI0
aI1
aF0.0
aI0
aI0
aF0.0
aI0
aI0
aI0
aI0
aI0
aI0
aI0
aI1
aI0
aI-9
aa(lp234
V0021000239
p235
aVNOV 27, 2010
p236
aVDAL vs. MIA
p237
aVW
p238
aI0
aI0
aI0
aF0.0
aI0
aI0
aF0.0
aI0
aI0
aF0.0
aI0
aI0
aI0
aI0
aI0
aI0
aI0
aI0
aI0
aI0
aa(lp239
V0021000216
p240
aVNOV 24, 2010
p241
aVDAL @ OKC
p242
aVW
p243
aI7
aI0
aI1
aF0.0
aI0
aI0
aF0.0
aI0
aI0
aF0.0
aI0
aI0
aI0
aI0
aI0
aI0
aI0
aI1
aI0
aI-4
aa(lp244
V0021000163
p245
aVNOV 17, 2010
p246
aVDAL @ NOH
p247
aVL
p248
aI3
aI0
aI0
aF0.0
aI0
aI0
aF0.0
aI0
aI0
aF0.0
aI0
aI0
aI0
aI0
aI0
aI0
aI0
aI0
aI0
aI-13
aa(lp249
V0021000146
p250
aVNOV 15, 2010
p251
aVDAL vs. NOH
p252
aVW
p253
aI17
aI2
aI6
aF0.333
aI2
aI5
aF0.4
aI0
aI0
aF0.0
aI2
aI1
aI3
aI2
aI1
aI0
aI1
aI1
aI6
aI-8
aa(lp254
V0021000126
p255
aVNOV 12, 2010
p256
aVDAL vs. PHI
p257
aVW
p258
aI23
aI1
aI2
aF0.5
aI1
aI2
aF0.5
aI2
aI2
aF1.0
aI1
aI1
aI2
aI0
aI2
aI1
aI0
aI3
aI5
aI7
aa(lp259
V0021000114
p260
aVNOV 10, 2010
p261
aVDAL @ MEM
p262
aVW
p263
aI20
aI2
aI6
aF0.333
aI1
aI4
aF0.25
aI0
aI0
aF0.0
aI0
aI2
aI2
aI1
aI2
aI0
aI1
aI3
aI5
aI-1
aa(lp264
V0021000085
p265
aVNOV 06, 2010
p266
aVDAL vs. DEN
p267
aVL
p268
aI1
aI0
aI0
aF0.0
aI0
aI0
aF0.0
aI0
aI0
aF0.0
aI0
aI0
aI0
aI0
aI0
aI0
aI0
aI0
aI0
aI2
aa(lp269
V0021000060
p270
aVNOV 03, 2010
p271
aVDAL @ DEN
p272
aVW
p273
aI3
aI0
aI1
aF0.0
aI0
aI1
aF0.0
aI0
aI0
aF0.0
aI0
aI1
aI1
aI0
aI0
aI0
aI0
aI0
aI0
aI-4
aa(lp274
V0021000041
p275
aVOCT 31, 2010
p276
aVDAL @ LAC
p277
aVW
p278
aI8
aI1
aI3
aF0.333
aI1
aI3
aF0.333
aI0
aI0
aF0.0
aI0
aI1
aI1
aI1
aI0
aI0
aI0
aI1
aI3
aI-3
aa(lp279
V0021000012
p280
aVOCT 27, 2010
p281
aVDAL vs. CHA
p282
aVW
p283
aI2
aI0
aI1
aF0.0
aI0
aI1
aF0.0
aI0
aI0
aF0.0
aI0
aI0
aI0
aI0
aI0
aI0
aI0
aI0
aI0
aI2
aasS'name'
p284
VBrian Cardinal
p285
sS'experience'
p286
I10
s.