(dp0
S'stats'
p1
(lp2
(lp3
V0021000012
p4
aVOCT 27, 2010
p5
aVDAL vs. CHA
p6
aVW
p7
aI23
aI2
aI3
aF0.667
aI0
aI0
aF0.0
aI4
aI4
aF1.0
aI2
aI6
aI8
aI0
aI1
aI2
aI1
aI5
aI8
aI15
aa(lp8
V0021000028
p9
aVOCT 29, 2010
p10
aVDAL vs. MEM
p11
aVL
p12
aI28
aI0
aI1
aF0.0
aI0
aI0
aF0.0
aI3
aI4
aF0.75
aI0
aI9
aI9
aI0
aI0
aI3
aI2
aI4
aI3
aI-1
aa(lp13
V0021000041
p14
aVOCT 31, 2010
p15
aVDAL @ LAC
p16
aVW
p17
aI19
aI2
aI2
aF1.0
aI0
aI0
aF0.0
aI4
aI4
aF1.0
aI0
aI5
aI5
aI0
aI1
aI0
aI1
aI3
aI8
aI21
aa(lp18
V0021000060
p19
aVNOV 03, 2010
p20
aVDAL @ DEN
p21
aVW
p22
aI29
aI3
aI3
aF1.0
aI0
aI0
aF0.0
aI3
aI4
aF0.75
aI3
aI6
aI9
aI1
aI0
aI1
aI1
aI3
aI9
aI9
aa(lp23
V0021000085
p24
aVNOV 06, 2010
p25
aVDAL vs. DEN
p26
aVL
p27
aI27
aI1
aI2
aF0.5
aI0
aI0
aF0.0
aI1
aI1
aF1.0
aI2
aI3
aI5
aI0
aI1
aI1
aI2
aI3
aI3
aI8
aa(lp28
V0021000100
p29
aVNOV 08, 2010
p30
aVDAL vs. BOS
p31
aVW
p32
aI33
aI5
aI5
aF1.0
aI0
aI0
aF0.0
aI2
aI2
aF1.0
aI3
aI10
aI13
aI0
aI1
aI2
aI0
aI1
aI12
aI-1
aa(lp33
V0021000114
p34
aVNOV 10, 2010
p35
aVDAL @ MEM
p36
aVW
p37
aI23
aI4
aI7
aF0.571
aI0
aI0
aF0.0
aI3
aI3
aF1.0
aI2
aI6
aI8
aI1
aI1
aI1
aI0
aI2
aI11
aI13
aa(lp38
V0021000126
p39
aVNOV 12, 2010
p40
aVDAL vs. PHI
p41
aVW
p42
aI25
aI3
aI4
aF0.75
aI0
aI0
aF0.0
aI5
aI7
aF0.714
aI3
aI9
aI12
aI0
aI1
aI2
aI1
aI6
aI11
aI1
aa(lp43
V0021000146
p44
aVNOV 15, 2010
p45
aVDAL vs. NOH
p46
aVW
p47
aI23
aI3
aI4
aF0.75
aI0
aI0
aF0.0
aI1
aI2
aF0.5
aI1
aI4
aI5
aI0
aI0
aI0
aI0
aI5
aI7
aI10
aa(lp48
V0021000163
p49
aVNOV 17, 2010
p50
aVDAL @ NOH
p51
aVL
p52
aI29
aI4
aI4
aF1.0
aI0
aI0
aF0.0
aI2
aI2
aF1.0
aI1
aI6
aI7
aI0
aI0
aI3
aI2
aI3
aI10
aI-5
aa(lp53
V0021000179
p54
aVNOV 19, 2010
p55
aVDAL vs. CHI
p56
aVL
p57
aI28
aI1
aI1
aF1.0
aI0
aI0
aF0.0
aI6
aI9
aF0.667
aI3
aI7
aI10
aI0
aI0
aI3
aI1
aI5
aI8
aI2
aa(lp58
V0021000184
p59
aVNOV 20, 2010
p60
aVDAL @ ATL
p61
aVW
p62
aI28
aI3
aI6
aF0.5
aI0
aI0
aF0.0
aI2
aI2
aF1.0
aI2
aI3
aI5
aI1
aI0
aI1
aI2
aI3
aI8
aI-4
aa(lp63
V0021000207
p64
aVNOV 23, 2010
p65
aVDAL vs. DET
p66
aVW
p67
aI26
aI1
aI2
aF0.5
aI0
aI0
aF0.0
aI1
aI2
aF0.5
aI1
aI4
aI5
aI0
aI0
aI1
aI2
aI5
aI3
aI5
aa(lp68
V0021000216
p69
aVNOV 24, 2010
p70
aVDAL @ OKC
p71
aVW
p72
aI35
aI5
aI9
aF0.556
aI0
aI0
aF0.0
aI7
aI8
aF0.875
aI7
aI11
aI18
aI0
aI1
aI1
aI2
aI2
aI17
aI16
aa(lp73
V0021000228
p74
aVNOV 26, 2010
p75
aVDAL @ SAS
p76
aVW
p77
aI32
aI3
aI3
aF1.0
aI0
aI0
aF0.0
aI13
aI16
aF0.813
aI3
aI5
aI8
aI1
aI0
aI1
aI0
aI1
aI19
aI7
aa(lp78
V0021000239
p79
aVNOV 27, 2010
p80
aVDAL vs. MIA
p81
aVW
p82
aI36
aI6
aI10
aF0.6
aI0
aI0
aF0.0
aI2
aI4
aF0.5
aI7
aI10
aI17
aI0
aI0
aI3
aI0
aI4
aI14
aI14
aa(lp83
V0021000252
p84
aVNOV 29, 2010
p85
aVDAL vs. HOU
p86
aVW
p87
aI23
aI0
aI2
aF0.0
aI0
aI0
aF0.0
aI5
aI6
aF0.833
aI2
aI6
aI8
aI1
aI1
aI0
aI0
aI1
aI5
aI18
aa(lp88
V0021000268
p89
aVDEC 01, 2010
p90
aVDAL vs. MIN
p91
aVW
p92
aI22
aI2
aI3
aF0.667
aI0
aI0
aF0.0
aI5
aI6
aF0.833
aI4
aI14
aI18
aI0
aI0
aI1
aI2
aI3
aI9
aI7
aa(lp93
V0021000286
p94
aVDEC 03, 2010
p95
aVDAL @ UTA
p96
aVW
p97
aI17
aI1
aI3
aF0.333
aI0
aI0
aF0.0
aI0
aI0
aF0.0
aI0
aI8
aI8
aI2
aI0
aI0
aI3
aI4
aI2
aI2
aa(lp98
V0021000293
p99
aVDEC 04, 2010
p100
aVDAL @ SAC
p101
aVW
p102
aI25
aI3
aI5
aF0.6
aI0
aI0
aF0.0
aI4
aI5
aF0.8
aI2
aI5
aI7
aI1
aI1
aI1
aI0
aI3
aI10
aI3
aa(lp103
V0021000328
p104
aVDEC 09, 2010
p105
aVDAL vs. NJN
p106
aVW
p107
aI22
aI1
aI5
aF0.2
aI0
aI0
aF0.0
aI0
aI0
aF0.0
aI0
aI5
aI5
aI0
aI1
aI0
aI1
aI5
aI2
aI4
aa(lp108
V0021000346
p109
aVDEC 11, 2010
p110
aVDAL vs. UTA
p111
aVW
p112
aI29
aI3
aI4
aF0.75
aI0
aI0
aF0.0
aI0
aI0
aF0.0
aI4
aI5
aI9
aI0
aI0
aI3
aI1
aI6
aI6
aI16
aa(lp113
V0021000358
p114
aVDEC 13, 2010
p115
aVDAL vs. MIL
p116
aVL
p117
aI28
aI4
aI5
aF0.8
aI0
aI0
aF0.0
aI3
aI4
aF0.75
aI2
aI7
aI9
aI0
aI0
aI1
aI0
aI4
aI11
aI-11
aa(lp118
V0021000377
p119
aVDEC 15, 2010
p120
aVDAL vs. POR
p121
aVW
p122
aI35
aI4
aI5
aF0.8
aI0
aI0
aF0.0
aI3
aI3
aF1.0
aI2
aI6
aI8
aI1
aI1
aI1
aI0
aI2
aI11
aI8
aa(lp123
V0021000390
p124
aVDEC 17, 2010
p125
aVDAL vs. PHX
p126
aVW
p127
aI24
aI3
aI8
aF0.375
aI0
aI0
aF0.0
aI1
aI4
aF0.25
aI1
aI11
aI12
aI1
aI2
aI3
aI0
aI1
aI7
aI17
aa(lp128
V0021000410
p129
aVDEC 20, 2010
p130
aVDAL @ MIA
p131
aVW
p132
aI31
aI3
aI3
aF1.0
aI0
aI0
aF0.0
aI2
aI2
aF1.0
aI2
aI7
aI9
aI0
aI0
aI0
aI1
aI5
aI8
aI6
aa(lp133
V0021000416
p134
aVDEC 21, 2010
p135
aVDAL @ ORL
p136
aVW
p137
aI34
aI7
aI7
aF1.0
aI0
aI0
aF0.0
aI2
aI3
aF0.667
aI1
aI3
aI4
aI0
aI1
aI0
aI1
aI2
aI16
aI13
aa(lp138
V0021000450
p139
aVDEC 27, 2010
p140
aVDAL @ OKC
p141
aVW
p142
aI30
aI3
aI6
aF0.5
aI0
aI0
aF0.0
aI1
aI2
aF0.5
aI3
aI7
aI10
aI0
aI1
aI1
aI1
aI4
aI7
aI18
aa(lp143
V0021000459
p144
aVDEC 28, 2010
p145
aVDAL vs. TOR
p146
aVL
p147
aI26
aI1
aI1
aF1.0
aI0
aI0
aF0.0
aI1
aI1
aF1.0
aI2
aI4
aI6
aI1
aI1
aI0
aI3
aI1
aI3
aI-13
aa(lp148
V0021000474
p149
aVDEC 30, 2010
p150
aVDAL vs. SAS
p151
aVL
p152
aI37
aI4
aI4
aF1.0
aI0
aI0
aF0.0
aI0
aI1
aF0.0
aI0
aI11
aI11
aI1
aI0
aI1
aI2
aI5
aI8
aI9
aa(lp153
V0021000489
p154
aVJAN 01, 2011
p155
aVDAL @ MIL
p156
aVL
p157
aI34
aI4
aI5
aF0.8
aI0
aI0
aF0.0
aI3
aI3
aF1.0
aI1
aI4
aI5
aI0
aI0
aI0
aI1
aI4
aI11
aI-10
aa(lp158
V0021000495
p159
aVJAN 02, 2011
p160
aVDAL @ CLE
p161
aVW
p162
aI30
aI6
aI6
aF1.0
aI0
aI0
aF0.0
aI2
aI6
aF0.333
aI4
aI10
aI14
aI0
aI0
aI1
aI3
aI4
aI14
aI16
aa(lp163
V0021000509
p164
aVJAN 04, 2011
p165
aVDAL vs. POR
p166
aVW
p167
aI32
aI7
aI9
aF0.778
aI0
aI0
aF0.0
aI0
aI1
aF0.0
aI6
aI7
aI13
aI1
aI0
aI1
aI2
aI3
aI14
aI-2
aa(lp168
V0021000523
p169
aVJAN 06, 2011
p170
aVDAL vs. OKC
p171
aVL
p172
aI35
aI3
aI5
aF0.6
aI0
aI0
aF0.0
aI8
aI10
aF0.8
aI6
aI12
aI18
aI0
aI0
aI2
aI1
aI2
aI14
aI-6
aa(lp173
V0021000542
p174
aVJAN 08, 2011
p175
aVDAL vs. ORL
p176
aVL
p177
aI23
aI1
aI2
aF0.5
aI0
aI0
aF0.0
aI4
aI6
aF0.667
aI1
aI6
aI7
aI1
aI0
aI0
aI2
aI6
aI6
aI-9
aa(lp178
V0021000562
p179
aVJAN 12, 2011
p180
aVDAL @ IND
p181
aVL
p182
aI35
aI3
aI6
aF0.5
aI0
aI0
aF0.0
aI7
aI9
aF0.778
aI4
aI5
aI9
aI0
aI0
aI3
aI0
aI1
aI13
aI-6
aa(lp183
V0021000581
p184
aVJAN 14, 2011
p185
aVDAL @ SAS
p186
aVL
p187
aI16
aI4
aI5
aF0.8
aI0
aI0
aF0.0
aI0
aI0
aF0.0
aI0
aI2
aI2
aI0
aI0
aI1
aI1
aI5
aI8
aI-6
aa(lp188
V0021000621
p189
aVJAN 19, 2011
p190
aVDAL vs. LAL
p191
aVW
p192
aI28
aI2
aI5
aF0.4
aI0
aI0
aF0.0
aI2
aI2
aF1.0
aI6
aI4
aI10
aI2
aI2
aI2
aI1
aI0
aI6
aI6
aa(lp193
V0021000627
p194
aVJAN 20, 2011
p195
aVDAL @ CHI
p196
aVL
p197
aI32
aI5
aI9
aF0.556
aI0
aI0
aF0.0
aI2
aI2
aF1.0
aI5
aI7
aI12
aI0
aI0
aI3
aI0
aI4
aI12
aI-4
aa(lp198
V0021000640
p199
aVJAN 22, 2011
p200
aVDAL @ NJN
p201
aVW
p202
aI30
aI7
aI11
aF0.636
aI0
aI0
aF0.0
aI5
aI6
aF0.833
aI2
aI6
aI8
aI0
aI3
aI0
aI1
aI5
aI19
aI-1
aa(lp203
V0021000665
p204
aVJAN 25, 2011
p205
aVDAL vs. LAC
p206
aVW
p207
aI17
aI5
aI5
aF1.0
aI0
aI0
aF0.0
aI11
aI11
aF1.0
aI1
aI1
aI2
aI0
aI0
aI0
aI2
aI4
aI21
aI-10
aa(lp208
V0021000679
p209
aVJAN 27, 2011
p210
aVDAL vs. HOU
p211
aVW
p212
aI33
aI5
aI8
aF0.625
aI0
aI0
aF0.0
aI11
aI12
aF0.917
aI4
aI11
aI15
aI0
aI0
aI1
aI2
aI3
aI21
aI-2
aa(lp213
V0021000696
p214
aVJAN 29, 2011
p215
aVDAL vs. ATL
p216
aVW
p217
aI29
aI5
aI9
aF0.556
aI0
aI0
aF0.0
aI2
aI2
aF1.0
aI2
aI4
aI6
aI0
aI0
aI1
aI0
aI2
aI12
aI3
aa(lp218
V0021000712
p219
aVJAN 31, 2011
p220
aVDAL vs. WAS
p221
aVW
p222
aI30
aI5
aI10
aF0.5
aI0
aI0
aF0.0
aI8
aI14
aF0.571
aI8
aI10
aI18
aI0
aI0
aI0
aI4
aI2
aI18
aI8
aa(lp223
V0021000723
p224
aVFEB 02, 2011
p225
aVDAL @ NYK
p226
aVW
p227
aI29
aI6
aI9
aF0.667
aI0
aI0
aF0.0
aI3
aI4
aF0.75
aI3
aI8
aI11
aI0
aI0
aI1
aI1
aI3
aI15
aI16
aa(lp228
V0021000740
p229
aVFEB 04, 2011
p230
aVDAL @ BOS
p231
aVW
p232
aI37
aI7
aI10
aF0.7
aI0
aI0
aF0.0
aI0
aI0
aF0.0
aI4
aI11
aI15
aI1
aI1
aI1
aI2
aI1
aI14
aI9
aa(lp233
V0021000745
p234
aVFEB 05, 2011
p235
aVDAL @ CHA
p236
aVW
p237
aI35
aI4
aI10
aF0.4
aI0
aI0
aF0.0
aI1
aI2
aF0.5
aI8
aI7
aI15
aI1
aI0
aI2
aI0
aI4
aI9
aI11
aa(lp238
V0021000761
p239
aVFEB 07, 2011
p240
aVDAL vs. CLE
p241
aVW
p242
aI31
aI3
aI7
aF0.429
aI0
aI0
aF0.0
aI4
aI4
aF1.0
aI4
aI7
aI11
aI0
aI0
aI1
aI2
aI5
aI10
aI-16
aa(lp243
V0021000781
p244
aVFEB 09, 2011
p245
aVDAL @ SAC
p246
aVW
p247
aI28
aI5
aI6
aF0.833
aI0
aI0
aF0.0
aI3
aI4
aF0.75
aI0
aI4
aI4
aI0
aI0
aI1
aI2
aI3
aI13
aI3
aa(lp248
V0021000785
p249
aVFEB 10, 2011
p250
aVDAL @ DEN
p251
aVL
p252
aI31
aI8
aI9
aF0.889
aI0
aI0
aF0.0
aI4
aI5
aF0.8
aI5
aI6
aI11
aI0
aI2
aI0
aI3
aI1
aI20
aI-7
aa(lp253
V0021000801
p254
aVFEB 12, 2011
p255
aVDAL @ HOU
p256
aVW
p257
aI23
aI6
aI8
aF0.75
aI0
aI0
aF0.0
aI0
aI0
aF0.0
aI1
aI6
aI7
aI0
aI0
aI1
aI1
aI2
aI12
aI3
aa(lp258
V0021000831
p259
aVFEB 16, 2011
p260
aVDAL vs. SAC
p261
aVW
p262
aI23
aI3
aI3
aF1.0
aI0
aI0
aF0.0
aI0
aI0
aF0.0
aI3
aI3
aI6
aI1
aI0
aI0
aI3
aI2
aI6
aI-4
aa(lp263
V0021000837
p264
aVFEB 17, 2011
p265
aVDAL @ PHX
p266
aVW
p267
aI30
aI5
aI8
aF0.625
aI0
aI0
aF0.0
aI2
aI3
aF0.667
aI3
aI9
aI12
aI0
aI0
aI0
aI2
aI4
aI12
aI-4
aa(lp268
V0021000856
p269
aVFEB 23, 2011
p270
aVDAL vs. UTA
p271
aVW
p272
aI22
aI3
aI7
aF0.429
aI0
aI0
aF0.0
aI1
aI2
aF0.5
aI3
aI7
aI10
aI1
aI1
aI1
aI5
aI4
aI7
aI9
aa(lp273
V0021000873
p274
aVFEB 26, 2011
p275
aVDAL @ WAS
p276
aVW
p277
aI31
aI10
aI14
aF0.714
aI0
aI0
aF0.0
aI3
aI4
aF0.75
aI4
aI9
aI13
aI0
aI0
aI1
aI0
aI0
aI23
aI14
aa(lp278
V0021000884
p279
aVFEB 27, 2011
p280
aVDAL @ TOR
p281
aVW
p282
aI25
aI1
aI6
aF0.167
aI0
aI0
aF0.0
aI1
aI2
aF0.5
aI5
aI4
aI9
aI1
aI1
aI1
aI0
aI1
aI3
aI-2
aa(lp283
V0021000896
p284
aVMAR 01, 2011
p285
aVDAL @ PHI
p286
aVW
p287
aI13
aI1
aI4
aF0.25
aI0
aI0
aF0.0
aI0
aI0
aF0.0
aI0
aI5
aI5
aI1
aI0
aI0
aI1
aI1
aI2
aI7
aa(lp288
V0021000961
p289
aVMAR 09, 2011
p290
aVDAL @ NOH
p291
aVL
p292
aI25
aI4
aI5
aF0.8
aI0
aI0
aF0.0
aI8
aI12
aF0.667
aI3
aI10
aI13
aI0
aI0
aI1
aI1
aI5
aI16
aI13
aa(lp293
V0021000965
p294
aVMAR 10, 2011
p295
aVDAL vs. NYK
p296
aVW
p297
aI17
aI3
aI4
aF0.75
aI0
aI0
aF0.0
aI3
aI5
aF0.6
aI3
aI5
aI8
aI0
aI1
aI3
aI2
aI5
aI9
aI4
aa(lp298
V0021000982
p299
aVMAR 12, 2011
p300
aVDAL vs. LAL
p301
aVL
p302
aI35
aI2
aI4
aF0.5
aI0
aI0
aF0.0
aI0
aI0
aF0.0
aI2
aI4
aI6
aI3
aI1
aI2
aI0
aI4
aI4
aI-1
aa(lp303
V0021001002
p304
aVMAR 15, 2011
p305
aVDAL @ POR
p306
aVL
p307
aI32
aI6
aI7
aF0.857
aI0
aI0
aF0.0
aI0
aI0
aF0.0
aI1
aI4
aI5
aI1
aI1
aI2
aI1
aI5
aI12
aI8
aa(lp308
V0021001012
p309
aVMAR 16, 2011
p310
aVDAL @ GSW
p311
aVW
p312
aI38
aI5
aI6
aF0.833
aI0
aI0
aF0.0
aI3
aI4
aF0.75
aI2
aI7
aI9
aI1
aI2
aI0
aI1
aI3
aI13
aI18
aa(lp313
V0021001023
p314
aVMAR 18, 2011
p315
aVDAL vs. SAS
p316
aVL
p317
aI22
aI1
aI1
aF1.0
aI0
aI0
aF0.0
aI1
aI2
aF0.5
aI4
aI1
aI5
aI1
aI0
aI1
aI1
aI6
aI3
aI-5
aa(lp318
V0021001042
p319
aVMAR 20, 2011
p320
aVDAL vs. GSW
p321
aVW
p322
aI28
aI0
aI4
aF0.0
aI0
aI0
aF0.0
aI7
aI8
aF0.875
aI5
aI12
aI17
aI0
aI1
aI1
aI0
aI2
aI7
aI9
aa(lp323
V0021001066
p324
aVMAR 24, 2011
p325
aVDAL vs. MIN
p326
aVW
p327
aI27
aI4
aI7
aF0.571
aI0
aI0
aF0.0
aI1
aI1
aF1.0
aI4
aI6
aI10
aI0
aI1
aI2
aI1
aI2
aI9
aI6
aa(lp328
V0021001085
p329
aVMAR 26, 2011
p330
aVDAL @ UTA
p331
aVW
p332
aI27
aI4
aI7
aF0.571
aI0
aI0
aF0.0
aI2
aI3
aF0.667
aI0
aI7
aI7
aI2
aI0
aI0
aI2
aI4
aI10
aI14
aa(lp333
V0021001095
p334
aVMAR 27, 2011
p335
aVDAL @ PHX
p336
aVW
p337
aI38
aI5
aI7
aF0.714
aI0
aI0
aF0.0
aI6
aI9
aF0.667
aI6
aI12
aI18
aI1
aI1
aI1
aI1
aI2
aI16
aI4
aa(lp338
V0021001117
p339
aVMAR 30, 2011
p340
aVDAL @ LAC
p341
aVW
p342
aI25
aI3
aI7
aF0.429
aI0
aI0
aF0.0
aI0
aI4
aF0.0
aI1
aI2
aI3
aI0
aI2
aI0
aI1
aI4
aI6
aI-3
aa(lp343
V0021001119
p344
aVMAR 31, 2011
p345
aVDAL @ LAL
p346
aVL
p347
aI30
aI2
aI4
aF0.5
aI0
aI0
aF0.0
aI3
aI5
aF0.6
aI4
aI6
aI10
aI1
aI0
aI0
aI0
aI4
aI7
aI-19
aa(lp348
V0021001136
p349
aVAPR 02, 2011
p350
aVDAL @ GSW
p351
aVL
p352
aI25
aI5
aI6
aF0.833
aI0
aI0
aF0.0
aI2
aI5
aF0.4
aI3
aI4
aI7
aI0
aI0
aI1
aI0
aI4
aI12
aI-2
aa(lp353
V0021001186
p354
aVAPR 08, 2011
p355
aVDAL vs. LAC
p356
aVW
p357
aI22
aI6
aI6
aF1.0
aI0
aI0
aF0.0
aI3
aI7
aF0.429
aI1
aI6
aI7
aI0
aI0
aI2
aI0
aI2
aI15
aI2
aa(lp358
V0021001199
p359
aVAPR 10, 2011
p360
aVDAL vs. PHX
p361
aVW
p362
aI19
aI2
aI3
aF0.667
aI0
aI0
aF0.0
aI0
aI0
aF0.0
aI4
aI8
aI12
aI0
aI0
aI0
aI1
aI4
aI4
aI14
aa(lp363
V0021001209
p364
aVAPR 11, 2011
p365
aVDAL @ HOU
p366
aVW
p367
aI35
aI3
aI4
aF0.75
aI0
aI0
aF0.0
aI2
aI2
aF1.0
aI3
aI9
aI12
aI0
aI0
aI2
aI2
aI3
aI8
aI6
aa(lp368
V0021001223
p369
aVAPR 13, 2011
p370
aVDAL vs. NOH
p371
aVW
p372
aI22
aI2
aI2
aF1.0
aI0
aI0
aF0.0
aI2
aI3
aF0.667
aI2
aI5
aI7
aI0
aI0
aI0
aI0
aI4
aI6
aI6
aasS'name'
p373
VTyson Chandler
p374
sS'weight'
p375
V240
p376
sS'age'
p377
I28
sS'experience'
p378
I9
sS'height'
p379
V7-1
p380
sS'position'
p381
VCenter
p382
s.