(dp0
S'stats'
p1
(lp2
(lp3
V0021000003
p4
aVOCT 26, 2010
p5
aVLAL vs. HOU
p6
aVW
p7
aI40
aI11
aI23
aF0.478
aI0
aI0
aF0.0
aI7
aI9
aF0.778
aI4
aI7
aI11
aI2
aI0
aI2
aI3
aI5
aI29
aI1
aa(lp8
V0021000030
p9
aVOCT 29, 2010
p10
aVLAL @ PHX
p11
aVW
p12
aI40
aI10
aI17
aF0.588
aI0
aI0
aF0.0
aI1
aI2
aF0.5
aI2
aI6
aI8
aI9
aI1
aI2
aI1
aI0
aI21
aI15
aa(lp13
V0021000043
p14
aVOCT 31, 2010
p15
aVLAL vs. GSW
p16
aVW
p17
aI35
aI10
aI19
aF0.526
aI0
aI0
aF0.0
aI6
aI9
aF0.667
aI5
aI8
aI13
aI4
aI0
aI2
aI2
aI2
aI26
aI33
aa(lp18
V0021000053
p19
aVNOV 02, 2010
p20
aVLAL vs. MEM
p21
aVW
p22
aI29
aI9
aI16
aF0.563
aI0
aI0
aF0.0
aI3
aI3
aF1.0
aI5
aI8
aI13
aI5
aI1
aI0
aI3
aI2
aI21
aI11
aa(lp23
V0021000065
p24
aVNOV 03, 2010
p25
aVLAL @ SAC
p26
aVW
p27
aI44
aI7
aI15
aF0.467
aI0
aI0
aF0.0
aI8
aI10
aF0.8
aI2
aI9
aI11
aI2
aI0
aI2
aI1
aI4
aI22
aI13
aa(lp28
V0021000079
p29
aVNOV 05, 2010
p30
aVLAL vs. TOR
p31
aVW
p32
aI44
aI12
aI22
aF0.545
aI0
aI0
aF0.0
aI6
aI6
aF1.0
aI2
aI5
aI7
aI3
aI0
aI2
aI1
aI4
aI30
aI13
aa(lp33
V0021000094
p34
aVNOV 07, 2010
p35
aVLAL vs. POR
p36
aVW
p37
aI33
aI9
aI13
aF0.692
aI0
aI0
aF0.0
aI2
aI2
aF1.0
aI5
aI9
aI14
aI10
aI3
aI0
aI0
aI2
aI20
aI27
aa(lp38
V0021000107
p39
aVNOV 09, 2010
p40
aVLAL vs. MIN
p41
aVW
p42
aI38
aI8
aI13
aF0.615
aI0
aI0
aF0.0
aI2
aI2
aF1.0
aI2
aI8
aI10
aI3
aI0
aI2
aI1
aI0
aI18
aI3
aa(lp43
V0021000120
p44
aVNOV 11, 2010
p45
aVLAL @ DEN
p46
aVL
p47
aI44
aI6
aI17
aF0.353
aI0
aI0
aF0.0
aI5
aI6
aF0.833
aI5
aI15
aI20
aI2
aI2
aI1
aI3
aI3
aI17
aI-5
aa(lp48
V0021000143
p49
aVNOV 14, 2010
p50
aVLAL vs. PHX
p51
aVL
p52
aI41
aI12
aI17
aF0.706
aI0
aI0
aF0.0
aI4
aI6
aF0.667
aI9
aI8
aI17
aI2
aI1
aI1
aI4
aI1
aI28
aI-4
aa(lp53
V0021000155
p54
aVNOV 16, 2010
p55
aVLAL @ MIL
p56
aVW
p57
aI44
aI7
aI13
aF0.538
aI0
aI0
aF0.0
aI4
aI7
aF0.571
aI2
aI8
aI10
aI4
aI0
aI3
aI1
aI3
aI18
aI15
aa(lp58
V0021000161
p59
aVNOV 17, 2010
p60
aVLAL @ DET
p61
aVW
p62
aI33
aI10
aI17
aF0.588
aI0
aI0
aF0.0
aI5
aI5
aF1.0
aI2
aI10
aI12
aI1
aI1
aI1
aI1
aI1
aI25
aI21
aa(lp63
V0021000176
p64
aVNOV 19, 2010
p65
aVLAL @ MIN
p66
aVW
p67
aI38
aI6
aI13
aF0.462
aI0
aI0
aF0.0
aI4
aI4
aF1.0
aI3
aI11
aI14
aI6
aI0
aI2
aI1
aI4
aI16
aI19
aa(lp68
V0021000194
p69
aVNOV 21, 2010
p70
aVLAL vs. GSW
p71
aVW
p72
aI30
aI10
aI10
aF1.0
aI0
aI0
aF0.0
aI8
aI8
aF1.0
aI1
aI8
aI9
aI5
aI0
aI4
aI1
aI0
aI28
aI27
aa(lp73
V0021000208
p74
aVNOV 23, 2010
p75
aVLAL vs. CHI
p76
aVW
p77
aI42
aI3
aI10
aF0.3
aI0
aI0
aF0.0
aI6
aI8
aF0.75
aI4
aI7
aI11
aI4
aI2
aI5
aI3
aI5
aI12
aI11
aa(lp78
V0021000231
p79
aVNOV 26, 2010
p80
aVLAL @ UTA
p81
aVL
p82
aI45
aI9
aI14
aF0.643
aI0
aI0
aF0.0
aI3
aI5
aF0.6
aI2
aI9
aI11
aI4
aI0
aI1
aI1
aI3
aI21
aI2
aa(lp83
V0021000249
p84
aVNOV 28, 2010
p85
aVLAL vs. IND
p86
aVL
p87
aI46
aI5
aI15
aF0.333
aI0
aI0
aF0.0
aI3
aI3
aF1.0
aI4
aI8
aI12
aI3
aI1
aI3
aI5
aI5
aI13
aI-4
aa(lp88
V0021000258
p89
aVNOV 30, 2010
p90
aVLAL @ MEM
p91
aVL
p92
aI45
aI5
aI13
aF0.385
aI0
aI0
aF0.0
aI5
aI5
aF1.0
aI5
aI9
aI14
aI4
aI1
aI4
aI1
aI2
aI15
aI2
aa(lp93
V0021000269
p94
aVDEC 01, 2010
p95
aVLAL @ HOU
p96
aVL
p97
aI39
aI2
aI8
aF0.25
aI0
aI0
aF0.0
aI4
aI4
aF1.0
aI4
aI5
aI9
aI3
aI0
aI1
aI1
aI2
aI8
aI-13
aa(lp98
V0021000287
p99
aVDEC 03, 2010
p100
aVLAL vs. SAC
p101
aVW
p102
aI27
aI6
aI8
aF0.75
aI0
aI0
aF0.0
aI4
aI5
aF0.8
aI1
aI4
aI5
aI5
aI0
aI3
aI1
aI1
aI16
aI27
aa(lp103
V0021000315
p104
aVDEC 07, 2010
p105
aVLAL vs. WAS
p106
aVW
p107
aI43
aI7
aI18
aF0.389
aI0
aI0
aF0.0
aI7
aI8
aF0.875
aI9
aI5
aI14
aI8
aI1
aI5
aI2
aI2
aI21
aI19
aa(lp108
V0021000326
p109
aVDEC 08, 2010
p110
aVLAL @ LAC
p111
aVW
p112
aI40
aI4
aI13
aF0.308
aI0
aI0
aF0.0
aI2
aI2
aF1.0
aI1
aI9
aI10
aI5
aI0
aI0
aI3
aI2
aI10
aI2
aa(lp113
V0021000333
p114
aVDEC 10, 2010
p115
aVLAL @ CHI
p116
aVL
p117
aI45
aI9
aI15
aF0.6
aI0
aI0
aF0.0
aI3
aI4
aF0.75
aI3
aI5
aI8
aI4
aI0
aI4
aI3
aI1
aI21
aI4
aa(lp118
V0021000351
p119
aVDEC 12, 2010
p120
aVLAL @ NJN
p121
aVW
p122
aI42
aI6
aI19
aF0.316
aI0
aI0
aF0.0
aI3
aI5
aF0.6
aI3
aI8
aI11
aI3
aI0
aI5
aI0
aI3
aI15
aI7
aa(lp123
V0021000362
p124
aVDEC 14, 2010
p125
aVLAL @ WAS
p126
aVW
p127
aI31
aI6
aI11
aF0.545
aI0
aI0
aF0.0
aI4
aI6
aF0.667
aI5
aI4
aI9
aI7
aI1
aI0
aI3
aI2
aI16
aI19
aa(lp128
V0021000367
p129
aVDEC 15, 2010
p130
aVLAL @ IND
p131
aVW
p132
aI36
aI10
aI17
aF0.588
aI0
aI0
aF0.0
aI8
aI12
aF0.667
aI1
aI7
aI8
aI4
aI0
aI2
aI0
aI1
aI28
aI12
aa(lp133
V0021000383
p134
aVDEC 17, 2010
p135
aVLAL @ PHI
p136
aVW
p137
aI41
aI6
aI14
aF0.429
aI0
aI0
aF0.0
aI7
aI9
aF0.778
aI6
aI7
aI13
aI3
aI0
aI2
aI4
aI1
aI19
aI3
aa(lp138
V0021000402
p139
aVDEC 19, 2010
p140
aVLAL @ TOR
p141
aVW
p142
aI30
aI9
aI15
aF0.6
aI0
aI0
aF0.0
aI1
aI2
aF0.5
aI2
aI6
aI8
aI4
aI1
aI0
aI3
aI4
aI19
aI4
aa(lp143
V0021000420
p144
aVDEC 21, 2010
p145
aVLAL vs. MIL
p146
aVL
p147
aI35
aI6
aI12
aF0.5
aI0
aI0
aF0.0
aI3
aI4
aF0.75
aI7
aI4
aI11
aI2
aI0
aI0
aI2
aI4
aI15
aI-21
aa(lp148
V0021000435
p149
aVDEC 25, 2010
p150
aVLAL vs. MIA
p151
aVL
p152
aI37
aI8
aI17
aF0.471
aI0
aI0
aF0.0
aI1
aI1
aF1.0
aI3
aI5
aI8
aI3
aI0
aI0
aI1
aI3
aI17
aI-11
aa(lp153
V0021000460
p154
aVDEC 28, 2010
p155
aVLAL @ SAS
p156
aVL
p157
aI34
aI3
aI8
aF0.375
aI0
aI0
aF0.0
aI3
aI3
aF1.0
aI1
aI8
aI9
aI5
aI0
aI3
aI2
aI1
aI9
aI-11
aa(lp158
V0021000467
p159
aVDEC 29, 2010
p160
aVLAL @ NOH
p161
aVW
p162
aI35
aI3
aI5
aF0.6
aI0
aI0
aF0.0
aI5
aI6
aF0.833
aI4
aI8
aI12
aI5
aI0
aI1
aI2
aI3
aI11
aI13
aa(lp163
V0021000483
p164
aVDEC 31, 2010
p165
aVLAL vs. PHI
p166
aVW
p167
aI34
aI9
aI12
aF0.75
aI0
aI0
aF0.0
aI2
aI2
aF1.0
aI5
aI3
aI8
aI1
aI2
aI2
aI1
aI1
aI20
aI12
aa(lp168
V0021000498
p169
aVJAN 02, 2011
p170
aVLAL vs. MEM
p171
aVL
p172
aI32
aI5
aI9
aF0.556
aI0
aI0
aF0.0
aI0
aI0
aF0.0
aI1
aI7
aI8
aI0
aI0
aI2
aI5
aI2
aI10
aI-14
aa(lp173
V0021000511
p174
aVJAN 04, 2011
p175
aVLAL vs. DET
p176
aVW
p177
aI35
aI7
aI11
aF0.636
aI0
aI0
aF0.0
aI7
aI7
aF1.0
aI3
aI4
aI7
aI2
aI2
aI1
aI0
aI3
aI21
aI15
aa(lp178
V0021000521
p179
aVJAN 05, 2011
p180
aVLAL @ PHX
p181
aVW
p182
aI35
aI3
aI10
aF0.3
aI0
aI0
aF0.0
aI0
aI0
aF0.0
aI2
aI7
aI9
aI6
aI2
aI2
aI1
aI1
aI6
aI0
aa(lp183
V0021000535
p184
aVJAN 07, 2011
p185
aVLAL vs. NOH
p186
aVW
p187
aI34
aI6
aI8
aF0.75
aI0
aI0
aF0.0
aI9
aI12
aF0.75
aI4
aI9
aI13
aI7
aI2
aI0
aI4
aI4
aI21
aI5
aa(lp188
V0021000550
p189
aVJAN 09, 2011
p190
aVLAL vs. NYK
p191
aVW
p192
aI41
aI5
aI13
aF0.385
aI0
aI0
aF0.0
aI10
aI11
aF0.909
aI5
aI9
aI14
aI4
aI2
aI4
aI4
aI1
aI20
aI10
aa(lp193
V0021000560
p194
aVJAN 11, 2011
p195
aVLAL vs. CLE
p196
aVW
p197
aI31
aI6
aI12
aF0.5
aI0
aI0
aF0.0
aI1
aI1
aF1.0
aI3
aI11
aI14
aI3
aI3
aI1
aI0
aI2
aI13
aI41
aa(lp198
V0021000571
p199
aVJAN 12, 2011
p200
aVLAL @ GSW
p201
aVW
p202
aI37
aI8
aI14
aF0.571
aI0
aI0
aF0.0
aI8
aI9
aF0.889
aI7
aI4
aI11
aI3
aI0
aI0
aI1
aI1
aI24
aI8
aa(lp203
V0021000586
p204
aVJAN 14, 2011
p205
aVLAL vs. NJN
p206
aVW
p207
aI33
aI6
aI15
aF0.4
aI0
aI0
aF0.0
aI8
aI8
aF1.0
aI4
aI5
aI9
aI3
aI0
aI4
aI2
aI3
aI20
aI9
aa(lp208
V0021000596
p209
aVJAN 16, 2011
p210
aVLAL @ LAC
p211
aVL
p212
aI37
aI4
aI9
aF0.444
aI0
aI0
aF0.0
aI5
aI7
aF0.714
aI1
aI7
aI8
aI1
aI0
aI2
aI2
aI6
aI13
aI-14
aa(lp213
V0021000610
p214
aVJAN 17, 2011
p215
aVLAL vs. OKC
p216
aVW
p217
aI41
aI8
aI19
aF0.421
aI0
aI0
aF0.0
aI5
aI5
aF1.0
aI2
aI5
aI7
aI2
aI0
aI3
aI1
aI2
aI21
aI17
aa(lp218
V0021000621
p219
aVJAN 19, 2011
p220
aVLAL @ DAL
p221
aVL
p222
aI37
aI11
aI16
aF0.688
aI0
aI0
aF0.0
aI1
aI1
aF1.0
aI2
aI3
aI5
aI4
aI0
aI2
aI1
aI4
aI23
aI-13
aa(lp223
V0021000637
p224
aVJAN 21, 2011
p225
aVLAL @ DEN
p226
aVW
p227
aI34
aI8
aI14
aF0.571
aI0
aI0
aF0.0
aI3
aI4
aF0.75
aI6
aI7
aI13
aI3
aI1
aI0
aI3
aI2
aI19
aI2
aa(lp228
V0021000667
p229
aVJAN 25, 2011
p230
aVLAL vs. UTA
p231
aVW
p232
aI30
aI9
aI13
aF0.692
aI0
aI0
aF0.0
aI2
aI4
aF0.5
aI2
aI5
aI7
aI5
aI1
aI1
aI2
aI1
aI20
aI23
aa(lp233
V0021000692
p234
aVJAN 28, 2011
p235
aVLAL vs. SAC
p236
aVL
p237
aI38
aI4
aI11
aF0.364
aI0
aI0
aF0.0
aI1
aI2
aF0.5
aI7
aI4
aI11
aI1
aI0
aI2
aI4
aI1
aI9
aI-12
aa(lp238
V0021000702
p239
aVJAN 30, 2011
p240
aVLAL vs. BOS
p241
aVL
p242
aI39
aI5
aI13
aF0.385
aI0
aI0
aF0.0
aI2
aI2
aF1.0
aI4
aI3
aI7
aI1
aI1
aI1
aI2
aI3
aI12
aI-20
aa(lp243
V0021000718
p244
aVFEB 01, 2011
p245
aVLAL vs. HOU
p246
aVW
p247
aI47
aI10
aI20
aF0.5
aI0
aI0
aF0.0
aI6
aI6
aF1.0
aI6
aI10
aI16
aI0
aI0
aI4
aI2
aI2
aI26
aI14
aa(lp248
V0021000732
p249
aVFEB 03, 2011
p250
aVLAL vs. SAS
p251
aVL
p252
aI35
aI8
aI10
aF0.8
aI0
aI0
aF0.0
aI3
aI4
aF0.75
aI3
aI4
aI7
aI2
aI1
aI0
aI2
aI1
aI19
aI-3
aa(lp253
V0021000748
p254
aVFEB 05, 2011
p255
aVLAL @ NOH
p256
aVW
p257
aI36
aI13
aI17
aF0.765
aI0
aI0
aF0.0
aI8
aI9
aF0.889
aI3
aI7
aI10
aI3
aI0
aI1
aI1
aI0
aI34
aI2
aa(lp258
V0021000759
p259
aVFEB 07, 2011
p260
aVLAL @ MEM
p261
aVW
p262
aI36
aI6
aI11
aF0.545
aI0
aI0
aF0.0
aI5
aI9
aF0.556
aI2
aI7
aI9
aI2
aI0
aI2
aI0
aI2
aI17
aI6
aa(lp263
V0021000783
p264
aVFEB 10, 2011
p265
aVLAL @ BOS
p266
aVW
p267
aI37
aI8
aI13
aF0.615
aI0
aI0
aF0.0
aI4
aI6
aF0.667
aI1
aI9
aI10
aI4
aI0
aI1
aI0
aI4
aI20
aI13
aa(lp268
V0021000793
p269
aVFEB 11, 2011
p270
aVLAL @ NYK
p271
aVW
p272
aI32
aI9
aI16
aF0.563
aI0
aI0
aF0.0
aI2
aI2
aF1.0
aI0
aI6
aI6
aI1
aI1
aI1
aI1
aI2
aI20
aI8
aa(lp273
V0021000805
p274
aVFEB 13, 2011
p275
aVLAL @ ORL
p276
aVL
p277
aI35
aI5
aI12
aF0.417
aI0
aI0
aF0.0
aI1
aI1
aF1.0
aI0
aI4
aI4
aI3
aI0
aI1
aI1
aI4
aI11
aI-9
aa(lp278
V0021000812
p279
aVFEB 14, 2011
p280
aVLAL @ CHA
p281
aVL
p282
aI36
aI6
aI9
aF0.667
aI0
aI0
aF0.0
aI5
aI6
aF0.833
aI1
aI9
aI10
aI5
aI2
aI0
aI1
aI4
aI17
aI-19
aa(lp283
V0021000827
p284
aVFEB 16, 2011
p285
aVLAL @ CLE
p286
aVL
p287
aI41
aI8
aI15
aF0.533
aI0
aI0
aF0.0
aI14
aI14
aF1.0
aI10
aI10
aI20
aI3
aI0
aI0
aI2
aI3
aI30
aI1
aa(lp288
V0021000846
p289
aVFEB 22, 2011
p290
aVLAL vs. ATL
p291
aVW
p292
aI34
aI4
aI9
aF0.444
aI0
aI0
aF0.0
aI6
aI9
aF0.667
aI0
aI10
aI10
aI4
aI1
aI2
aI2
aI0
aI14
aI16
aa(lp293
V0021000858
p294
aVFEB 23, 2011
p295
aVLAL @ POR
p296
aVW
p297
aI42
aI8
aI15
aF0.533
aI0
aI0
aF0.0
aI2
aI2
aF1.0
aI2
aI12
aI14
aI5
aI0
aI1
aI4
aI6
aI18
aI9
aa(lp298
V0021000871
p299
aVFEB 25, 2011
p300
aVLAL vs. LAC
p301
aVW
p302
aI30
aI8
aI9
aF0.889
aI0
aI0
aF0.0
aI6
aI6
aF1.0
aI1
aI4
aI5
aI4
aI0
aI2
aI1
aI1
aI22
aI16
aa(lp303
V0021000880
p304
aVFEB 27, 2011
p305
aVLAL @ OKC
p306
aVW
p307
aI32
aI7
aI13
aF0.538
aI0
aI0
aF0.0
aI4
aI6
aF0.667
aI5
aI6
aI11
aI0
aI0
aI0
aI1
aI3
aI18
aI-13
aa(lp308
V0021000900
p309
aVMAR 01, 2011
p310
aVLAL @ MIN
p311
aVW
p312
aI37
aI3
aI10
aF0.3
aI0
aI0
aF0.0
aI6
aI7
aF0.857
aI5
aI12
aI17
aI1
aI0
aI0
aI1
aI3
aI12
aI5
aa(lp313
V0021000924
p314
aVMAR 04, 2011
p315
aVLAL vs. CHA
p316
aVW
p317
aI39
aI8
aI14
aF0.571
aI0
aI0
aF0.0
aI4
aI4
aF1.0
aI4
aI6
aI10
aI4
aI0
aI2
aI0
aI4
aI20
aI7
aa(lp318
V0021000932
p319
aVMAR 06, 2011
p320
aVLAL @ SAS
p321
aVW
p322
aI36
aI7
aI12
aF0.583
aI1
aI2
aF0.5
aI6
aI6
aF1.0
aI1
aI5
aI6
aI5
aI1
aI1
aI2
aI3
aI21
aI13
aa(lp323
V0021000947
p324
aVMAR 08, 2011
p325
aVLAL @ ATL
p326
aVW
p327
aI36
aI6
aI16
aF0.375
aI0
aI0
aF0.0
aI2
aI2
aF1.0
aI5
aI6
aI11
aI5
aI2
aI0
aI2
aI2
aI14
aI14
aa(lp328
V0021000964
p329
aVMAR 10, 2011
p330
aVLAL @ MIA
p331
aVL
p332
aI40
aI8
aI16
aF0.5
aI0
aI1
aF0.0
aI4
aI5
aF0.8
aI2
aI3
aI5
aI1
aI1
aI1
aI1
aI1
aI20
aI0
aa(lp333
V0021000982
p334
aVMAR 12, 2011
p335
aVLAL @ DAL
p336
aVW
p337
aI35
aI6
aI14
aF0.429
aI0
aI0
aF0.0
aI6
aI9
aF0.667
aI1
aI4
aI5
aI3
aI0
aI1
aI2
aI2
aI18
aI5
aa(lp338
V0021000999
p339
aVMAR 14, 2011
p340
aVLAL vs. ORL
p341
aVW
p342
aI35
aI10
aI17
aF0.588
aI0
aI0
aF0.0
aI3
aI4
aF0.75
aI1
aI4
aI5
aI5
aI0
aI0
aI0
aI2
aI23
aI9
aa(lp343
V0021001028
p344
aVMAR 18, 2011
p345
aVLAL vs. MIN
p346
aVW
p347
aI33
aI12
aI17
aF0.706
aI0
aI0
aF0.0
aI1
aI1
aF1.0
aI1
aI4
aI5
aI1
aI0
aI4
aI5
aI1
aI25
aI21
aa(lp348
V0021001043
p349
aVMAR 20, 2011
p350
aVLAL vs. POR
p351
aVW
p352
aI45
aI6
aI15
aF0.4
aI0
aI0
aF0.0
aI2
aI3
aF0.667
aI5
aI8
aI13
aI3
aI0
aI2
aI1
aI2
aI14
aI8
aa(lp353
V0021001053
p354
aVMAR 22, 2011
p355
aVLAL vs. PHX
p356
aVW
p357
aI52
aI9
aI25
aF0.36
aI0
aI0
aF0.0
aI6
aI6
aF1.0
aI6
aI7
aI13
aI3
aI2
aI2
aI0
aI4
aI24
aI12
aa(lp358
V0021001080
p359
aVMAR 25, 2011
p360
aVLAL vs. LAC
p361
aVW
p362
aI37
aI10
aI15
aF0.667
aI0
aI0
aF0.0
aI6
aI6
aF1.0
aI3
aI5
aI8
aI3
aI1
aI0
aI0
aI5
aI26
aI18
aa(lp363
V0021001094
p364
aVMAR 27, 2011
p365
aVLAL vs. NOH
p366
aVW
p367
aI37
aI9
aI14
aF0.643
aI0
aI0
aF0.0
aI5
aI6
aF0.833
aI4
aI12
aI16
aI1
aI0
aI4
aI2
aI1
aI23
aI19
aa(lp368
V0021001119
p369
aVMAR 31, 2011
p370
aVLAL vs. DAL
p371
aVW
p372
aI30
aI7
aI14
aF0.5
aI0
aI0
aF0.0
aI6
aI7
aF0.857
aI6
aI1
aI7
aI2
aI0
aI1
aI1
aI4
aI20
aI9
aa(lp373
V0021001132
p374
aVAPR 01, 2011
p375
aVLAL @ UTA
p376
aVW
p377
aI36
aI6
aI10
aF0.6
aI0
aI0
aF0.0
aI4
aI4
aF1.0
aI2
aI7
aI9
aI2
aI1
aI2
aI3
aI3
aI16
aI15
aa(lp378
V0021001139
p379
aVAPR 03, 2011
p380
aVLAL vs. DEN
p381
aVL
p382
aI32
aI7
aI10
aF0.7
aI0
aI0
aF0.0
aI2
aI3
aF0.667
aI2
aI10
aI12
aI0
aI0
aI1
aI4
aI2
aI16
aI0
aa(lp383
V0021001161
p384
aVAPR 05, 2011
p385
aVLAL vs. UTA
p386
aVL
p387
aI32
aI5
aI10
aF0.5
aI0
aI0
aF0.0
aI9
aI11
aF0.818
aI2
aI3
aI5
aI4
aI0
aI2
aI2
aI4
aI19
aI3
aa(lp388
V0021001173
p389
aVAPR 06, 2011
p390
aVLAL @ GSW
p391
aVL
p392
aI27
aI7
aI11
aF0.636
aI0
aI0
aF0.0
aI4
aI8
aF0.5
aI1
aI6
aI7
aI0
aI0
aI0
aI1
aI1
aI18
aI-2
aa(lp393
V0021001187
p394
aVAPR 08, 2011
p395
aVLAL @ POR
p396
aVL
p397
aI33
aI4
aI11
aF0.364
aI0
aI0
aF0.0
aI0
aI0
aF0.0
aI6
aI7
aI13
aI2
aI2
aI0
aI2
aI3
aI8
aI-12
aa(lp398
V0021001201
p399
aVAPR 10, 2011
p400
aVLAL vs. OKC
p401
aVL
p402
aI33
aI10
aI16
aF0.625
aI0
aI0
aF0.0
aI6
aI6
aF1.0
aI1
aI3
aI4
aI1
aI0
aI0
aI1
aI3
aI26
aI-10
aa(lp403
V0021001215
p404
aVAPR 12, 2011
p405
aVLAL vs. SAS
p406
aVW
p407
aI41
aI7
aI12
aF0.583
aI0
aI0
aF0.0
aI3
aI4
aF0.75
aI3
aI14
aI17
aI5
aI0
aI1
aI0
aI3
aI17
aI20
aa(lp408
V0021001230
p409
aVAPR 13, 2011
p410
aVLAL @ SAC
p411
aVW
p412
aI47
aI8
aI16
aF0.5
aI0
aI0
aF0.0
aI2
aI2
aF1.0
aI1
aI12
aI13
aI6
aI1
aI1
aI1
aI5
aI18
aI16
aasS'name'
p413
VPau Gasol
p414
sS'weight'
p415
V250
p416
sS'age'
p417
I30
sS'experience'
p418
I9
sS'height'
p419
V7-0
p420
sS'position'
p421
VCenter-Forward
p422
s.