(dp0
S'stats'
p1
(lp2
(lp3
V0021000013
p4
aVOCT 27, 2010
p5
aVSAS vs. IND
p6
aVW
p7
aI21
aI4
aI6
aF0.667
aI1
aI2
aF0.5
aI7
aI10
aF0.7
aI1
aI1
aI2
aI2
aI1
aI0
aI1
aI5
aI16
aI7
aa(lp8
V0021000039
p9
aVOCT 30, 2010
p10
aVSAS vs. NOH
p11
aVL
p12
aI33
aI7
aI11
aF0.636
aI1
aI4
aF0.25
aI3
aI5
aF0.6
aI1
aI3
aI4
aI3
aI0
aI1
aI1
aI2
aI18
aI-3
aa(lp13
V0021000046
p14
aVNOV 01, 2010
p15
aVSAS @ LAC
p16
aVW
p17
aI31
aI7
aI11
aF0.636
aI2
aI4
aF0.5
aI2
aI4
aF0.5
aI0
aI3
aI3
aI2
aI1
aI0
aI0
aI2
aI18
aI-2
aa(lp18
V0021000062
p19
aVNOV 03, 2010
p20
aVSAS @ PHX
p21
aVW
p22
aI34
aI9
aI13
aF0.692
aI4
aI5
aF0.8
aI6
aI6
aF1.0
aI1
aI3
aI4
aI1
aI1
aI0
aI4
aI0
aI28
aI8
aa(lp23
V0021000084
p24
aVNOV 06, 2010
p25
aVSAS vs. HOU
p26
aVW
p27
aI39
aI8
aI13
aF0.615
aI4
aI5
aF0.8
aI2
aI4
aF0.5
aI0
aI3
aI3
aI1
aI1
aI0
aI1
aI1
aI22
aI13
aa(lp28
V0021000095
p29
aVNOV 08, 2010
p30
aVSAS @ CHA
p31
aVW
p32
aI33
aI3
aI9
aF0.333
aI0
aI3
aF0.0
aI0
aI2
aF0.0
aI1
aI6
aI7
aI4
aI1
aI0
aI0
aI3
aI6
aI6
aa(lp33
V0021000116
p34
aVNOV 10, 2010
p35
aVSAS vs. LAC
p36
aVW
p37
aI36
aI6
aI12
aF0.5
aI4
aI7
aF0.571
aI6
aI6
aF1.0
aI1
aI2
aI3
aI1
aI2
aI1
aI2
aI2
aI22
aI4
aa(lp38
V0021000138
p39
aVNOV 13, 2010
p40
aVSAS vs. PHI
p41
aVW
p42
aI27
aI3
aI6
aF0.5
aI1
aI4
aF0.25
aI3
aI4
aF0.75
aI1
aI3
aI4
aI2
aI1
aI1
aI1
aI2
aI10
aI25
aa(lp43
V0021000141
p44
aVNOV 14, 2010
p45
aVSAS @ OKC
p46
aVW
p47
aI38
aI5
aI11
aF0.455
aI1
aI3
aF0.333
aI7
aI7
aF1.0
aI0
aI3
aI3
aI0
aI1
aI1
aI2
aI3
aI18
aI11
aa(lp48
V0021000166
p49
aVNOV 17, 2010
p50
aVSAS vs. CHI
p51
aVW
p52
aI34
aI3
aI10
aF0.3
aI1
aI4
aF0.25
aI5
aI5
aF1.0
aI2
aI3
aI5
aI1
aI0
aI1
aI0
aI3
aI12
aI8
aa(lp53
V0021000178
p54
aVNOV 19, 2010
p55
aVSAS @ UTA
p56
aVW
p57
aI34
aI3
aI8
aF0.375
aI1
aI4
aF0.25
aI4
aI6
aF0.667
aI1
aI1
aI2
aI2
aI0
aI1
aI2
aI2
aI11
aI18
aa(lp58
V0021000187
p59
aVNOV 20, 2010
p60
aVSAS vs. CLE
p61
aVW
p62
aI25
aI5
aI7
aF0.714
aI2
aI3
aF0.667
aI2
aI2
aF1.0
aI0
aI4
aI4
aI1
aI0
aI1
aI0
aI0
aI14
aI6
aa(lp63
V0021000199
p64
aVNOV 22, 2010
p65
aVSAS vs. ORL
p66
aVW
p67
aI34
aI2
aI7
aF0.286
aI2
aI4
aF0.5
aI2
aI2
aF1.0
aI0
aI4
aI4
aI0
aI1
aI1
aI0
aI1
aI8
aI8
aa(lp68
V0021000215
p69
aVNOV 24, 2010
p70
aVSAS @ MIN
p71
aVW
p72
aI38
aI6
aI15
aF0.4
aI1
aI5
aF0.2
aI6
aI9
aF0.667
aI0
aI4
aI4
aI2
aI0
aI0
aI0
aI1
aI19
aI2
aa(lp73
V0021000228
p74
aVNOV 26, 2010
p75
aVSAS vs. DAL
p76
aVL
p77
aI22
aI0
aI4
aF0.0
aI0
aI2
aF0.0
aI2
aI2
aF1.0
aI0
aI3
aI3
aI0
aI0
aI0
aI2
aI2
aI2
aI-7
aa(lp78
V0021000244
p79
aVNOV 28, 2010
p80
aVSAS @ NOH
p81
aVW
p82
aI34
aI7
aI11
aF0.636
aI3
aI4
aF0.75
aI2
aI3
aF0.667
aI0
aI1
aI1
aI1
aI0
aI1
aI0
aI1
aI19
aI19
aa(lp83
V0021000260
p84
aVNOV 30, 2010
p85
aVSAS @ GSW
p86
aVW
p87
aI30
aI4
aI9
aF0.444
aI0
aI3
aF0.0
aI4
aI4
aF1.0
aI0
aI4
aI4
aI2
aI1
aI0
aI1
aI1
aI12
aI-5
aa(lp88
V0021000272
p89
aVDEC 01, 2010
p90
aVSAS @ LAC
p91
aVL
p92
aI33
aI5
aI11
aF0.455
aI3
aI4
aF0.75
aI0
aI0
aF0.0
aI2
aI7
aI9
aI2
aI1
aI0
aI0
aI2
aI13
aI-8
aa(lp93
V0021000283
p94
aVDEC 03, 2010
p95
aVSAS vs. MIN
p96
aVW
p97
aI36
aI5
aI13
aF0.385
aI2
aI6
aF0.333
aI3
aI4
aF0.75
aI2
aI8
aI10
aI1
aI1
aI2
aI0
aI3
aI15
aI-9
aa(lp98
V0021000298
p99
aVDEC 05, 2010
p100
aVSAS vs. NOH
p101
aVW
p102
aI26
aI5
aI12
aF0.417
aI3
aI7
aF0.429
aI0
aI0
aF0.0
aI1
aI3
aI4
aI1
aI0
aI0
aI1
aI1
aI13
aI27
aa(lp103
V0021000322
p104
aVDEC 08, 2010
p105
aVSAS vs. GSW
p106
aVW
p107
aI27
aI4
aI8
aF0.5
aI2
aI5
aF0.4
aI0
aI0
aF0.0
aI1
aI1
aI2
aI1
aI0
aI1
aI1
aI1
aI10
aI12
aa(lp108
V0021000337
p109
aVDEC 10, 2010
p110
aVSAS vs. ATL
p111
aVW
p112
aI35
aI6
aI8
aF0.75
aI5
aI6
aF0.833
aI1
aI2
aF0.5
aI1
aI3
aI4
aI1
aI1
aI1
aI0
aI0
aI18
aI12
aa(lp113
V0021000353
p114
aVDEC 12, 2010
p115
aVSAS vs. POR
p116
aVW
p117
aI29
aI1
aI3
aF0.333
aI1
aI1
aF1.0
aI2
aI2
aF1.0
aI1
aI0
aI1
aI0
aI1
aI0
aI2
aI1
aI5
aI6
aa(lp118
V0021000375
p119
aVDEC 15, 2010
p120
aVSAS vs. MIL
p121
aVW
p122
aI34
aI4
aI10
aF0.4
aI0
aI3
aF0.0
aI3
aI5
aF0.6
aI0
aI9
aI9
aI1
aI0
aI1
aI1
aI0
aI11
aI12
aa(lp123
V0021000380
p124
aVDEC 16, 2010
p125
aVSAS @ DEN
p126
aVW
p127
aI36
aI4
aI6
aF0.667
aI3
aI4
aF0.75
aI2
aI4
aF0.5
aI0
aI2
aI2
aI3
aI1
aI2
aI2
aI5
aI13
aI-21
aa(lp128
V0021000397
p129
aVDEC 18, 2010
p130
aVSAS vs. MEM
p131
aVW
p132
aI33
aI5
aI8
aF0.625
aI2
aI4
aF0.5
aI0
aI0
aF0.0
aI0
aI9
aI9
aI1
aI1
aI0
aI4
aI5
aI12
aI6
aa(lp133
V0021000411
p134
aVDEC 20, 2010
p135
aVSAS vs. PHX
p136
aVW
p137
aI33
aI5
aI14
aF0.357
aI2
aI6
aF0.333
aI5
aI6
aF0.833
aI2
aI1
aI3
aI3
aI0
aI0
aI0
aI3
aI17
aI-6
aa(lp138
V0021000428
p139
aVDEC 22, 2010
p140
aVSAS vs. DEN
p141
aVW
p142
aI36
aI7
aI12
aF0.583
aI2
aI4
aF0.5
aI0
aI0
aF0.0
aI1
aI3
aI4
aI1
aI1
aI1
aI3
aI2
aI16
aI-8
aa(lp143
V0021000430
p144
aVDEC 23, 2010
p145
aVSAS @ ORL
p146
aVL
p147
aI30
aI4
aI11
aF0.364
aI2
aI5
aF0.4
aI0
aI0
aF0.0
aI3
aI3
aI6
aI2
aI1
aI0
aI0
aI1
aI10
aI-10
aa(lp148
V0021000443
p149
aVDEC 26, 2010
p150
aVSAS vs. WAS
p151
aVW
p152
aI32
aI2
aI5
aF0.4
aI1
aI4
aF0.25
aI0
aI0
aF0.0
aI0
aI9
aI9
aI3
aI1
aI0
aI1
aI0
aI5
aI5
aa(lp153
V0021000460
p154
aVDEC 28, 2010
p155
aVSAS vs. LAL
p156
aVW
p157
aI29
aI6
aI14
aF0.429
aI2
aI8
aF0.25
aI1
aI2
aF0.5
aI1
aI6
aI7
aI2
aI0
aI1
aI0
aI2
aI15
aI18
aa(lp158
V0021000474
p159
aVDEC 30, 2010
p160
aVSAS @ DAL
p161
aVW
p162
aI31
aI3
aI10
aF0.3
aI1
aI4
aF0.25
aI0
aI2
aF0.0
aI0
aI4
aI4
aI1
aI0
aI0
aI3
aI2
aI7
aI-5
aa(lp163
V0021000488
p164
aVJAN 01, 2011
p165
aVSAS vs. OKC
p166
aVW
p167
aI22
aI3
aI7
aF0.429
aI1
aI2
aF0.5
aI1
aI1
aF1.0
aI1
aI3
aI4
aI0
aI1
aI1
aI0
aI2
aI8
aI12
aa(lp168
V0021000506
p169
aVJAN 04, 2011
p170
aVSAS @ NYK
p171
aVL
p172
aI35
aI5
aI8
aF0.625
aI1
aI3
aF0.333
aI2
aI4
aF0.5
aI1
aI2
aI3
aI1
aI0
aI0
aI2
aI0
aI13
aI-4
aa(lp173
V0021000516
p174
aVJAN 05, 2011
p175
aVSAS @ BOS
p176
aVL
p177
aI31
aI4
aI10
aF0.4
aI3
aI6
aF0.5
aI3
aI3
aF1.0
aI2
aI0
aI2
aI2
aI0
aI0
aI2
aI4
aI14
aI-3
aa(lp178
V0021000525
p179
aVJAN 07, 2011
p180
aVSAS @ IND
p181
aVW
p182
aI20
aI2
aI4
aF0.5
aI0
aI1
aF0.0
aI0
aI1
aF0.0
aI0
aI1
aI1
aI1
aI0
aI0
aI2
aI4
aI4
aI2
aa(lp183
V0021000546
p184
aVJAN 09, 2011
p185
aVSAS vs. MIN
p186
aVW
p187
aI36
aI6
aI12
aF0.5
aI1
aI5
aF0.2
aI0
aI0
aF0.0
aI0
aI5
aI5
aI2
aI1
aI0
aI3
aI0
aI13
aI-1
aa(lp188
V0021000557
p189
aVJAN 11, 2011
p190
aVSAS @ MIN
p191
aVW
p192
aI36
aI5
aI10
aF0.5
aI3
aI4
aF0.75
aI4
aI4
aF1.0
aI1
aI4
aI5
aI4
aI0
aI0
aI3
aI3
aI17
aI13
aa(lp193
V0021000566
p194
aVJAN 12, 2011
p195
aVSAS @ MIL
p196
aVW
p197
aI28
aI0
aI5
aF0.0
aI0
aI4
aF0.0
aI0
aI0
aF0.0
aI2
aI4
aI6
aI3
aI1
aI0
aI1
aI0
aI0
aI0
aa(lp198
V0021000581
p199
aVJAN 14, 2011
p200
aVSAS vs. DAL
p201
aVW
p202
aI30
aI2
aI7
aF0.286
aI2
aI4
aF0.5
aI1
aI2
aF0.5
aI1
aI4
aI5
aI0
aI0
aI1
aI0
aI1
aI7
aI7
aa(lp203
V0021000597
p204
aVJAN 16, 2011
p205
aVSAS vs. DEN
p206
aVW
p207
aI35
aI2
aI6
aF0.333
aI2
aI4
aF0.5
aI4
aI8
aF0.5
aI0
aI2
aI2
aI2
aI1
aI0
aI0
aI3
aI10
aI14
aa(lp208
V0021000620
p209
aVJAN 19, 2011
p210
aVSAS vs. TOR
p211
aVW
p212
aI24
aI1
aI4
aF0.25
aI0
aI2
aF0.0
aI0
aI0
aF0.0
aI2
aI2
aI4
aI0
aI0
aI0
aI2
aI4
aI2
aI2
aa(lp213
V0021000636
p214
aVJAN 21, 2011
p215
aVSAS vs. NYK
p216
aVW
p217
aI26
aI3
aI4
aF0.75
aI0
aI1
aF0.0
aI0
aI0
aF0.0
aI1
aI6
aI7
aI0
aI1
aI1
aI2
aI5
aI6
aI-1
aa(lp218
V0021000646
p219
aVJAN 22, 2011
p220
aVSAS @ NOH
p221
aVL
p222
aI28
aI3
aI8
aF0.375
aI1
aI3
aF0.333
aI2
aI2
aF1.0
aI1
aI3
aI4
aI1
aI0
aI0
aI3
aI3
aI9
aI-24
aa(lp223
V0021000662
p224
aVJAN 24, 2011
p225
aVSAS @ GSW
p226
aVW
p227
aI32
aI4
aI10
aF0.4
aI1
aI4
aF0.25
aI0
aI0
aF0.0
aI0
aI4
aI4
aI1
aI0
aI0
aI1
aI3
aI9
aI7
aa(lp228
V0021000676
p229
aVJAN 26, 2011
p230
aVSAS @ UTA
p231
aVW
p232
aI34
aI6
aI12
aF0.5
aI2
aI6
aF0.333
aI0
aI0
aF0.0
aI1
aI4
aI5
aI1
aI0
aI1
aI1
aI3
aI14
aI4
aa(lp233
V0021000698
p234
aVJAN 29, 2011
p235
aVSAS vs. HOU
p236
aVW
p237
aI31
aI7
aI8
aF0.875
aI2
aI3
aF0.667
aI2
aI2
aF1.0
aI1
aI2
aI3
aI1
aI0
aI0
aI1
aI1
aI18
aI13
aa(lp238
V0021000716
p239
aVFEB 01, 2011
p240
aVSAS @ POR
p241
aVL
p242
aI36
aI4
aI7
aF0.571
aI1
aI1
aF1.0
aI1
aI1
aF1.0
aI1
aI2
aI3
aI1
aI0
aI1
aI1
aI2
aI10
aI-6
aa(lp243
V0021000732
p244
aVFEB 03, 2011
p245
aVSAS @ LAL
p246
aVW
p247
aI36
aI7
aI12
aF0.583
aI4
aI8
aF0.5
aI0
aI0
aF0.0
aI0
aI1
aI1
aI1
aI1
aI1
aI2
aI2
aI18
aI3
aa(lp248
V0021000743
p249
aVFEB 04, 2011
p250
aVSAS @ SAC
p251
aVW
p252
aI28
aI6
aI8
aF0.75
aI3
aI5
aF0.6
aI1
aI1
aF1.0
aI0
aI3
aI3
aI1
aI1
aI1
aI1
aI3
aI16
aI15
aa(lp253
V0021000768
p254
aVFEB 08, 2011
p255
aVSAS @ DET
p256
aVW
p257
aI36
aI3
aI7
aF0.429
aI3
aI5
aF0.6
aI2
aI2
aF1.0
aI0
aI3
aI3
aI1
aI0
aI0
aI1
aI2
aI11
aI8
aa(lp258
V0021000777
p259
aVFEB 09, 2011
p260
aVSAS @ TOR
p261
aVW
p262
aI25
aI1
aI2
aF0.5
aI1
aI1
aF1.0
aI0
aI0
aF0.0
aI0
aI1
aI1
aI0
aI1
aI0
aI0
aI4
aI3
aI-7
aa(lp263
V0021000789
p264
aVFEB 11, 2011
p265
aVSAS @ PHI
p266
aVL
p267
aI26
aI1
aI8
aF0.125
aI1
aI4
aF0.25
aI0
aI0
aF0.0
aI1
aI3
aI4
aI0
aI0
aI0
aI2
aI1
aI3
aI-12
aa(lp268
V0021000798
p269
aVFEB 12, 2011
p270
aVSAS @ WAS
p271
aVW
p272
aI27
aI5
aI9
aF0.556
aI2
aI5
aF0.4
aI2
aI2
aF1.0
aI1
aI2
aI3
aI2
aI0
aI0
aI1
aI1
aI14
aI19
aa(lp273
V0021000813
p274
aVFEB 14, 2011
p275
aVSAS @ NJN
p276
aVW
p277
aI32
aI3
aI5
aF0.6
aI1
aI3
aF0.333
aI0
aI0
aF0.0
aI1
aI3
aI4
aI3
aI0
aI0
aI2
aI3
aI7
aI21
aa(lp278
V0021000836
p279
aVFEB 17, 2011
p280
aVSAS @ CHI
p281
aVL
p282
aI36
aI4
aI5
aF0.8
aI1
aI1
aF1.0
aI3
aI7
aF0.429
aI0
aI3
aI3
aI2
aI0
aI0
aI0
aI2
aI12
aI-5
aa(lp283
V0021000855
p284
aVFEB 23, 2011
p285
aVSAS vs. OKC
p286
aVW
p287
aI28
aI4
aI5
aF0.8
aI4
aI5
aF0.8
aI0
aI0
aF0.0
aI0
aI2
aI2
aI3
aI0
aI0
aI0
aI4
aI12
aI5
aa(lp288
V0021000869
p289
aVFEB 25, 2011
p290
aVSAS vs. NJN
p291
aVW
p292
aI26
aI0
aI7
aF0.0
aI0
aI2
aF0.0
aI2
aI2
aF1.0
aI0
aI3
aI3
aI0
aI0
aI0
aI1
aI2
aI2
aI2
aa(lp293
V0021000886
p294
aVFEB 27, 2011
p295
aVSAS vs. MEM
p296
aVW
p297
aI36
aI1
aI3
aF0.333
aI1
aI2
aF0.5
aI2
aI2
aF1.0
aI1
aI3
aI4
aI3
aI1
aI0
aI1
aI2
aI5
aI3
aa(lp298
V0021000898
p299
aVMAR 01, 2011
p300
aVSAS @ MEM
p301
aVL
p302
aI27
aI3
aI3
aF1.0
aI1
aI1
aF1.0
aI0
aI0
aF0.0
aI0
aI4
aI4
aI0
aI1
aI1
aI2
aI3
aI7
aI-14
aa(lp303
V0021000903
p304
aVMAR 02, 2011
p305
aVSAS @ CLE
p306
aVW
p307
aI27
aI2
aI4
aF0.5
aI1
aI2
aF0.5
aI2
aI2
aF1.0
aI0
aI4
aI4
aI2
aI0
aI0
aI2
aI3
aI7
aI23
aa(lp308
V0021000923
p309
aVMAR 04, 2011
p310
aVSAS vs. MIA
p311
aVW
p312
aI28
aI4
aI7
aF0.571
aI2
aI3
aF0.667
aI1
aI2
aF0.5
aI1
aI0
aI1
aI1
aI1
aI0
aI0
aI3
aI11
aI11
aa(lp313
V0021000932
p314
aVMAR 06, 2011
p315
aVSAS vs. LAL
p316
aVL
p317
aI20
aI0
aI3
aF0.0
aI0
aI1
aF0.0
aI1
aI2
aF0.5
aI0
aI1
aI1
aI0
aI0
aI1
aI1
aI3
aI1
aI-25
aa(lp318
V0021000962
p319
aVMAR 09, 2011
p320
aVSAS vs. DET
p321
aVW
p322
aI29
aI4
aI6
aF0.667
aI2
aI4
aF0.5
aI2
aI2
aF1.0
aI0
aI3
aI3
aI0
aI0
aI1
aI0
aI3
aI12
aI5
aa(lp323
V0021000983
p324
aVMAR 12, 2011
p325
aVSAS @ HOU
p326
aVW
p327
aI34
aI3
aI5
aF0.6
aI0
aI1
aF0.0
aI4
aI4
aF1.0
aI0
aI4
aI4
aI1
aI0
aI1
aI3
aI2
aI10
aI7
aa(lp328
V0021000993
p329
aVMAR 14, 2011
p330
aVSAS @ MIA
p331
aVL
p332
aI29
aI2
aI7
aF0.286
aI1
aI4
aF0.25
aI0
aI0
aF0.0
aI0
aI5
aI5
aI1
aI0
aI0
aI2
aI2
aI5
aI-9
aa(lp333
V0021001023
p334
aVMAR 18, 2011
p335
aVSAS @ DAL
p336
aVW
p337
aI19
aI1
aI3
aF0.333
aI1
aI1
aF1.0
aI0
aI0
aF0.0
aI0
aI1
aI1
aI0
aI2
aI0
aI1
aI2
aI3
aI-3
aa(lp338
V0021001033
p339
aVMAR 19, 2011
p340
aVSAS vs. CHA
p341
aVW
p342
aI24
aI3
aI8
aF0.375
aI3
aI7
aF0.429
aI0
aI0
aF0.0
aI0
aI3
aI3
aI1
aI0
aI1
aI1
aI1
aI9
aI8
aa(lp343
V0021001049
p344
aVMAR 21, 2011
p345
aVSAS vs. GSW
p346
aVW
p347
aI30
aI3
aI7
aF0.429
aI0
aI4
aF0.0
aI6
aI6
aF1.0
aI0
aI0
aI0
aI1
aI0
aI1
aI0
aI0
aI12
aI23
aa(lp348
V0021001064
p349
aVMAR 23, 2011
p350
aVSAS @ DEN
p351
aVL
p352
aI32
aI2
aI8
aF0.25
aI1
aI5
aF0.2
aI4
aI4
aF1.0
aI1
aI3
aI4
aI3
aI1
aI0
aI1
aI0
aI9
aI2
aa(lp353
V0021001078
p354
aVMAR 25, 2011
p355
aVSAS @ POR
p356
aVL
p357
aI30
aI4
aI7
aF0.571
aI3
aI4
aF0.75
aI0
aI0
aF0.0
aI0
aI6
aI6
aI1
aI0
aI1
aI1
aI1
aI11
aI5
aa(lp358
V0021001090
p359
aVMAR 27, 2011
p360
aVSAS @ MEM
p361
aVL
p362
aI36
aI4
aI10
aF0.4
aI3
aI6
aF0.5
aI2
aI3
aF0.667
aI1
aI2
aI3
aI2
aI1
aI0
aI1
aI1
aI13
aI-1
aa(lp363
V0021001099
p364
aVMAR 28, 2011
p365
aVSAS vs. POR
p366
aVL
p367
aI25
aI2
aI5
aF0.4
aI1
aI3
aF0.333
aI2
aI4
aF0.5
aI2
aI4
aI6
aI0
aI0
aI0
aI2
aI5
aI7
aI-8
aa(lp368
V0021001118
p369
aVMAR 31, 2011
p370
aVSAS vs. BOS
p371
aVL
p372
aI36
aI5
aI11
aF0.455
aI4
aI8
aF0.5
aI0
aI0
aF0.0
aI1
aI2
aI3
aI1
aI0
aI0
aI0
aI0
aI14
aI-9
aa(lp373
V0021001128
p374
aVAPR 01, 2011
p375
aVSAS @ HOU
p376
aVL
p377
aI25
aI2
aI4
aF0.5
aI1
aI1
aF1.0
aI0
aI0
aF0.0
aI0
aI1
aI1
aI2
aI0
aI1
aI2
aI3
aI5
aI9
aa(lp378
V0021001138
p379
aVAPR 03, 2011
p380
aVSAS vs. PHX
p381
aVW
p382
aI26
aI4
aI5
aF0.8
aI4
aI4
aF1.0
aI0
aI0
aF0.0
aI1
aI6
aI7
aI0
aI2
aI0
aI0
aI0
aI12
aI9
aa(lp383
V0021001149
p384
aVAPR 05, 2011
p385
aVSAS @ ATL
p386
aVW
p387
aI30
aI2
aI6
aF0.333
aI0
aI2
aF0.0
aI1
aI2
aF0.5
aI2
aI3
aI5
aI0
aI0
aI0
aI0
aI1
aI5
aI8
aa(lp388
V0021001171
p389
aVAPR 06, 2011
p390
aVSAS vs. SAC
p391
aVW
p392
aI24
aI4
aI5
aF0.8
aI1
aI1
aF1.0
aI0
aI0
aF0.0
aI1
aI1
aI2
aI1
aI0
aI1
aI2
aI0
aI9
aI13
aa(lp393
V0021001191
p394
aVAPR 09, 2011
p395
aVSAS vs. UTA
p396
aVW
p397
aI35
aI6
aI10
aF0.6
aI4
aI7
aF0.571
aI4
aI4
aF1.0
aI1
aI3
aI4
aI3
aI0
aI0
aI1
aI5
aI20
aI10
aa(lp398
V0021001215
p399
aVAPR 12, 2011
p400
aVSAS @ LAL
p401
aVL
p402
aI23
aI2
aI9
aF0.222
aI1
aI3
aF0.333
aI5
aI6
aF0.833
aI0
aI4
aI4
aI1
aI1
aI0
aI0
aI1
aI10
aI-4
aa(lp403
V0021001229
p404
aVAPR 13, 2011
p405
aVSAS @ PHX
p406
aVL
p407
aI27
aI2
aI8
aF0.25
aI1
aI4
aF0.25
aI2
aI2
aF1.0
aI0
aI2
aI2
aI2
aI0
aI0
aI1
aI2
aI7
aI-3
aasS'name'
p408
VRichard Jefferson
p409
sS'weight'
p410
V233
p411
sS'age'
p412
I30
sS'experience'
p413
I9
sS'height'
p414
V6-7
p415
sS'position'
p416
VForward
p417
s.