(dp0
S'age'
p1
I28
sS'stats'
p2
(lp3
(lp4
V0021000007
p5
aVOCT 27, 2010
p6
aVNYK @ TOR
p7
aVW
p8
aI36
aI7
aI16
aF0.438
aI0
aI0
aF0.0
aI5
aI6
aF0.833
aI3
aI7
aI10
aI2
aI0
aI2
aI9
aI3
aI19
aI2
aa(lp9
V0021000023
p10
aVOCT 29, 2010
p11
aVNYK @ BOS
p12
aVL
p13
aI36
aI8
aI17
aF0.471
aI2
aI3
aF0.667
aI9
aI13
aF0.692
aI2
aI6
aI8
aI4
aI0
aI2
aI2
aI5
aI27
aI-3
aa(lp14
V0021000033
p15
aVOCT 30, 2010
p16
aVNYK vs. POR
p17
aVL
p18
aI35
aI8
aI17
aF0.471
aI0
aI2
aF0.0
aI2
aI4
aF0.5
aI3
aI2
aI5
aI3
aI0
aI0
aI6
aI5
aI18
aI-2
aa(lp19
V0021000066
p20
aVNOV 04, 2010
p21
aVNYK @ CHI
p22
aVW
p23
aI37
aI5
aI21
aF0.238
aI0
aI0
aF0.0
aI4
aI5
aF0.8
aI2
aI6
aI8
aI3
aI1
aI2
aI8
aI6
aI14
aI1
aa(lp24
V0021000072
p25
aVNOV 05, 2010
p26
aVNYK vs. WAS
p27
aVW
p28
aI33
aI6
aI11
aF0.545
aI0
aI0
aF0.0
aI6
aI7
aF0.857
aI1
aI3
aI4
aI2
aI1
aI4
aI2
aI1
aI18
aI11
aa(lp29
V0021000089
p30
aVNOV 07, 2010
p31
aVNYK vs. PHI
p32
aVL
p33
aI36
aI8
aI18
aF0.444
aI0
aI0
aF0.0
aI5
aI8
aF0.625
aI5
aI10
aI15
aI1
aI2
aI1
aI1
aI4
aI21
aI-9
aa(lp34
V0021000104
p35
aVNOV 09, 2010
p36
aVNYK @ MIL
p37
aVL
p38
aI26
aI7
aI13
aF0.538
aI1
aI1
aF1.0
aI4
aI4
aF1.0
aI0
aI4
aI4
aI0
aI1
aI2
aI2
aI3
aI19
aI-18
aa(lp39
V0021000113
p40
aVNOV 10, 2010
p41
aVNYK vs. GSW
p42
aVL
p43
aI41
aI9
aI15
aF0.6
aI1
aI1
aF1.0
aI14
aI16
aF0.875
aI1
aI9
aI10
aI3
aI3
aI1
aI6
aI3
aI33
aI-2
aa(lp44
V0021000125
p45
aVNOV 12, 2010
p46
aVNYK @ MIN
p47
aVL
p48
aI28
aI6
aI15
aF0.4
aI0
aI0
aF0.0
aI2
aI3
aF0.667
aI1
aI8
aI9
aI2
aI0
aI4
aI2
aI5
aI14
aI-12
aa(lp49
V0021000142
p50
aVNOV 14, 2010
p51
aVNYK vs. HOU
p52
aVL
p53
aI37
aI10
aI19
aF0.526
aI0
aI0
aF0.0
aI5
aI8
aF0.625
aI1
aI7
aI8
aI2
aI1
aI0
aI3
aI4
aI25
aI-3
aa(lp54
V0021000157
p55
aVNOV 16, 2010
p56
aVNYK @ DEN
p57
aVL
p58
aI32
aI10
aI19
aF0.526
aI1
aI2
aF0.5
aI3
aI8
aF0.375
aI1
aI5
aI6
aI2
aI1
aI2
aI2
aI3
aI24
aI-12
aa(lp59
V0021000167
p60
aVNOV 17, 2010
p61
aVNYK @ SAC
p62
aVW
p63
aI40
aI11
aI19
aF0.579
aI0
aI0
aF0.0
aI5
aI8
aF0.625
aI4
aI6
aI10
aI2
aI2
aI2
aI3
aI3
aI27
aI2
aa(lp64
V0021000181
p65
aVNOV 19, 2010
p66
aVNYK @ GSW
p67
aVW
p68
aI39
aI10
aI12
aF0.833
aI0
aI0
aF0.0
aI6
aI7
aF0.857
aI2
aI9
aI11
aI4
aI2
aI2
aI5
aI2
aI26
aI2
aa(lp69
V0021000190
p70
aVNOV 20, 2010
p71
aVNYK @ LAC
p72
aVW
p73
aI40
aI14
aI24
aF0.583
aI0
aI0
aF0.0
aI11
aI16
aF0.688
aI5
aI6
aI11
aI2
aI0
aI2
aI2
aI5
aI39
aI5
aa(lp74
V0021000206
p75
aVNOV 23, 2010
p76
aVNYK vs. CHA
p77
aVW
p78
aI31
aI5
aI12
aF0.417
aI0
aI0
aF0.0
aI7
aI7
aF1.0
aI1
aI6
aI7
aI1
aI0
aI3
aI7
aI5
aI17
aI9
aa(lp79
V0021000209
p80
aVNOV 24, 2010
p81
aVNYK @ CHA
p82
aVW
p83
aI34
aI8
aI15
aF0.533
aI0
aI0
aF0.0
aI4
aI4
aF1.0
aI2
aI2
aI4
aI1
aI0
aI6
aI0
aI2
aI20
aI-4
aa(lp84
V0021000234
p85
aVNOV 27, 2010
p86
aVNYK vs. ATL
p87
aVL
p88
aI37
aI7
aI15
aF0.467
aI0
aI0
aF0.0
aI10
aI12
aF0.833
aI1
aI9
aI10
aI3
aI1
aI1
aI4
aI4
aI24
aI-8
aa(lp89
V0021000243
p90
aVNOV 28, 2010
p91
aVNYK @ DET
p92
aVW
p93
aI54
aI12
aI20
aF0.6
aI0
aI0
aF0.0
aI13
aI15
aF0.867
aI5
aI10
aI15
aI7
aI0
aI1
aI6
aI4
aI37
aI6
aa(lp94
V0021000257
p95
aVNOV 30, 2010
p96
aVNYK vs. NJN
p97
aVW
p98
aI41
aI13
aI22
aF0.591
aI0
aI0
aF0.0
aI9
aI11
aF0.818
aI1
aI8
aI9
aI2
aI2
aI1
aI1
aI3
aI35
aI14
aa(lp99
V0021000282
p100
aVDEC 03, 2010
p101
aVNYK @ NOH
p102
aVW
p103
aI41
aI15
aI22
aF0.682
aI0
aI0
aF0.0
aI4
aI5
aF0.8
aI2
aI8
aI10
aI2
aI2
aI1
aI4
aI4
aI34
aI11
aa(lp104
V0021000295
p105
aVDEC 05, 2010
p106
aVNYK @ TOR
p107
aVW
p108
aI38
aI12
aI24
aF0.5
aI0
aI0
aF0.0
aI7
aI7
aF1.0
aI5
aI11
aI16
aI2
aI1
aI1
aI2
aI3
aI31
aI24
aa(lp109
V0021000304
p110
aVDEC 06, 2010
p111
aVNYK vs. MIN
p112
aVW
p113
aI39
aI15
aI23
aF0.652
aI0
aI0
aF0.0
aI4
aI5
aF0.8
aI2
aI3
aI5
aI1
aI2
aI2
aI3
aI5
aI34
aI2
aa(lp114
V0021000318
p115
aVDEC 08, 2010
p116
aVNYK vs. TOR
p117
aVW
p118
aI43
aI15
aI27
aF0.556
aI0
aI0
aF0.0
aI4
aI4
aF1.0
aI7
aI7
aI14
aI2
aI0
aI2
aI3
aI5
aI34
aI6
aa(lp119
V0021000332
p120
aVDEC 10, 2010
p121
aVNYK @ WAS
p122
aVW
p123
aI42
aI13
aI24
aF0.542
aI0
aI0
aF0.0
aI10
aI11
aF0.909
aI3
aI7
aI10
aI5
aI0
aI2
aI11
aI4
aI36
aI13
aa(lp124
V0021000349
p125
aVDEC 12, 2010
p126
aVNYK vs. DEN
p127
aVW
p128
aI40
aI13
aI23
aF0.565
aI0
aI0
aF0.0
aI4
aI4
aF1.0
aI0
aI8
aI8
aI4
aI0
aI3
aI2
aI5
aI30
aI16
aa(lp129
V0021000368
p130
aVDEC 15, 2010
p131
aVNYK vs. BOS
p132
aVL
p133
aI42
aI15
aI22
aF0.682
aI0
aI0
aF0.0
aI9
aI11
aF0.818
aI3
aI7
aI10
aI0
aI1
aI3
aI4
aI4
aI39
aI9
aa(lp134
V0021000382
p135
aVDEC 17, 2010
p136
aVNYK vs. MIA
p137
aVL
p138
aI38
aI11
aI28
aF0.393
aI0
aI0
aF0.0
aI2
aI7
aF0.286
aI7
aI7
aI14
aI4
aI1
aI2
aI4
aI1
aI24
aI-22
aa(lp139
V0021000394
p140
aVDEC 18, 2010
p141
aVNYK @ CLE
p142
aVL
p143
aI41
aI8
aI19
aF0.421
aI1
aI1
aF1.0
aI6
aI6
aF1.0
aI1
aI10
aI11
aI1
aI3
aI4
aI8
aI4
aI23
aI-7
aa(lp144
V0021000425
p145
aVDEC 22, 2010
p146
aVNYK vs. OKC
p147
aVW
p148
aI37
aI7
aI16
aF0.438
aI0
aI0
aF0.0
aI9
aI10
aF0.9
aI2
aI5
aI7
aI4
aI0
aI3
aI5
aI3
aI23
aI28
aa(lp149
V0021000433
p150
aVDEC 25, 2010
p151
aVNYK vs. CHI
p152
aVW
p153
aI37
aI10
aI18
aF0.556
aI0
aI0
aF0.0
aI0
aI2
aF0.0
aI1
aI9
aI10
aI2
aI2
aI6
aI7
aI3
aI20
aI2
aa(lp154
V0021000457
p155
aVDEC 28, 2010
p156
aVNYK @ MIA
p157
aVL
p158
aI43
aI10
aI23
aF0.435
aI0
aI1
aF0.0
aI10
aI12
aF0.833
aI4
aI3
aI7
aI1
aI2
aI2
aI1
aI1
aI30
aI-6
aa(lp159
V0021000473
p160
aVDEC 30, 2010
p161
aVNYK @ ORL
p162
aVL
p163
aI32
aI12
aI22
aF0.545
aI0
aI0
aF0.0
aI6
aI9
aF0.667
aI2
aI2
aI4
aI4
aI0
aI4
aI0
aI5
aI30
aI5
aa(lp164
V0021000492
p165
aVJAN 02, 2011
p166
aVNYK vs. IND
p167
aVW
p168
aI37
aI9
aI24
aF0.375
aI0
aI0
aF0.0
aI8
aI13
aF0.615
aI4
aI4
aI8
aI2
aI2
aI2
aI3
aI4
aI26
aI-5
aa(lp169
V0021000506
p170
aVJAN 04, 2011
p171
aVNYK vs. SAS
p172
aVW
p173
aI36
aI11
aI17
aF0.647
aI0
aI0
aF0.0
aI6
aI8
aF0.75
aI1
aI8
aI9
aI6
aI0
aI3
aI2
aI3
aI28
aI11
aa(lp174
V0021000533
p175
aVJAN 07, 2011
p176
aVNYK @ PHX
p177
aVW
p178
aI31
aI9
aI18
aF0.5
aI0
aI0
aF0.0
aI5
aI6
aF0.833
aI3
aI6
aI9
aI2
aI0
aI2
aI3
aI3
aI23
aI22
aa(lp179
V0021000550
p180
aVJAN 09, 2011
p181
aVNYK @ LAL
p182
aVL
p183
aI36
aI7
aI23
aF0.304
aI0
aI0
aF0.0
aI9
aI11
aF0.818
aI4
aI6
aI10
aI4
aI0
aI6
aI2
aI4
aI23
aI-19
aa(lp184
V0021000559
p185
aVJAN 11, 2011
p186
aVNYK @ POR
p187
aVW
p188
aI36
aI9
aI23
aF0.391
aI0
aI0
aF0.0
aI5
aI8
aF0.625
aI5
aI3
aI8
aI4
aI0
aI1
aI3
aI4
aI23
aI15
aa(lp189
V0021000570
p190
aVJAN 12, 2011
p191
aVNYK @ UTA
p192
aVL
p193
aI28
aI5
aI11
aF0.455
aI1
aI1
aF1.0
aI11
aI12
aF0.917
aI2
aI1
aI3
aI5
aI0
aI1
aI0
aI4
aI22
aI-8
aa(lp194
V0021000580
p195
aVJAN 14, 2011
p196
aVNYK vs. SAC
p197
aVL
p198
aI42
aI6
aI22
aF0.273
aI1
aI2
aF0.5
aI12
aI14
aF0.857
aI5
aI8
aI13
aI4
aI2
aI5
aI3
aI4
aI25
aI-8
aa(lp199
V0021000598
p200
aVJAN 17, 2011
p201
aVNYK vs. PHX
p202
aVL
p203
aI35
aI15
aI25
aF0.6
aI0
aI1
aF0.0
aI11
aI12
aF0.917
aI2
aI4
aI6
aI1
aI0
aI1
aI2
aI5
aI41
aI-12
aa(lp204
V0021000619
p205
aVJAN 19, 2011
p206
aVNYK @ HOU
p207
aVL
p208
aI37
aI11
aI21
aF0.524
aI0
aI0
aF0.0
aI3
aI6
aF0.5
aI0
aI5
aI5
aI1
aI2
aI1
aI5
aI3
aI25
aI-16
aa(lp209
V0021000636
p210
aVJAN 21, 2011
p211
aVNYK @ SAS
p212
aVL
p213
aI39
aI8
aI25
aF0.32
aI0
aI0
aF0.0
aI2
aI2
aF1.0
aI8
aI7
aI15
aI1
aI4
aI2
aI2
aI4
aI18
aI-13
aa(lp214
V0021000647
p215
aVJAN 22, 2011
p216
aVNYK @ OKC
p217
aVL
p218
aI37
aI7
aI18
aF0.389
aI0
aI0
aF0.0
aI4
aI6
aF0.667
aI2
aI10
aI12
aI4
aI2
aI1
aI2
aI3
aI18
aI3
aa(lp219
V0021000657
p220
aVJAN 24, 2011
p221
aVNYK vs. WAS
p222
aVW
p223
aI39
aI13
aI23
aF0.565
aI0
aI0
aF0.0
aI4
aI7
aF0.571
aI5
aI4
aI9
aI5
aI1
aI2
aI3
aI3
aI30
aI10
aa(lp224
V0021000678
p225
aVJAN 27, 2011
p226
aVNYK vs. MIA
p227
aVW
p228
aI38
aI10
aI17
aF0.588
aI1
aI1
aF1.0
aI3
aI4
aF0.75
aI2
aI6
aI8
aI4
aI2
aI1
aI1
aI4
aI24
aI11
aa(lp229
V0021000684
p230
aVJAN 28, 2011
p231
aVNYK @ ATL
p232
aVL
p233
aI32
aI9
aI21
aF0.429
aI0
aI2
aF0.0
aI9
aI9
aF1.0
aI1
aI2
aI3
aI1
aI0
aI1
aI3
aI4
aI27
aI-3
aa(lp234
V0021000705
p235
aVJAN 30, 2011
p236
aVNYK vs. DET
p237
aVW
p238
aI40
aI11
aI19
aF0.579
aI0
aI0
aF0.0
aI11
aI12
aF0.917
aI3
aI3
aI6
aI4
aI1
aI1
aI2
aI0
aI33
aI13
aa(lp239
V0021000723
p240
aVFEB 02, 2011
p241
aVNYK vs. DAL
p242
aVL
p243
aI36
aI10
aI20
aF0.5
aI0
aI0
aF0.0
aI1
aI2
aF0.5
aI1
aI4
aI5
aI4
aI1
aI3
aI1
aI2
aI21
aI-14
aa(lp244
V0021000735
p245
aVFEB 04, 2011
p246
aVNYK @ PHI
p247
aVL
p248
aI38
aI7
aI19
aF0.368
aI0
aI0
aF0.0
aI7
aI9
aF0.778
aI1
aI6
aI7
aI2
aI2
aI0
aI3
aI4
aI21
aI3
aa(lp249
V0021000756
p250
aVFEB 06, 2011
p251
aVNYK vs. PHI
p252
aVW
p253
aI36
aI17
aI21
aF0.81
aI0
aI0
aF0.0
aI7
aI7
aF1.0
aI4
aI3
aI7
aI4
aI1
aI4
aI3
aI5
aI41
aI11
aa(lp254
V0021000779
p255
aVFEB 09, 2011
p256
aVNYK vs. LAC
p257
aVL
p258
aI27
aI10
aI13
aF0.769
aI0
aI0
aF0.0
aI3
aI4
aF0.75
aI1
aI4
aI5
aI2
aI1
aI2
aI5
aI4
aI23
aI-9
aa(lp259
V0021000793
p260
aVFEB 11, 2011
p261
aVNYK vs. LAL
p262
aVL
p263
aI32
aI9
aI20
aF0.45
aI0
aI0
aF0.0
aI6
aI7
aF0.857
aI2
aI7
aI9
aI1
aI0
aI2
aI6
aI4
aI24
aI-14
aa(lp264
V0021000829
p265
aVFEB 16, 2011
p266
aVNYK vs. ATL
p267
aVW
p268
aI33
aI8
aI17
aF0.471
aI0
aI0
aF0.0
aI7
aI8
aF0.875
aI1
aI6
aI7
aI3
aI0
aI3
aI5
aI2
aI23
aI8
aa(lp269
V0021000852
p270
aVFEB 23, 2011
p271
aVNYK vs. MIL
p272
aVW
p273
aI34
aI6
aI13
aF0.462
aI0
aI0
aF0.0
aI7
aI7
aF1.0
aI1
aI4
aI5
aI4
aI1
aI0
aI4
aI6
aI19
aI7
aa(lp274
V0021000865
p275
aVFEB 25, 2011
p276
aVNYK @ CLE
p277
aVL
p278
aI42
aI14
aI27
aF0.519
aI0
aI1
aF0.0
aI3
aI5
aF0.6
aI5
aI6
aI11
aI3
aI3
aI5
aI3
aI3
aI31
aI-11
aa(lp279
V0021000887
p280
aVFEB 27, 2011
p281
aVNYK @ MIA
p282
aVW
p283
aI40
aI8
aI14
aF0.571
aI0
aI0
aF0.0
aI0
aI0
aF0.0
aI2
aI8
aI10
aI3
aI0
aI1
aI2
aI4
aI16
aI4
aa(lp284
V0021000895
p285
aVMAR 01, 2011
p286
aVNYK @ ORL
p287
aVL
p288
aI38
aI10
aI17
aF0.588
aI0
aI0
aF0.0
aI10
aI14
aF0.714
aI2
aI0
aI2
aI1
aI1
aI0
aI2
aI4
aI30
aI-1
aa(lp289
V0021000907
p290
aVMAR 02, 2011
p291
aVNYK vs. NOH
p292
aVW
p293
aI35
aI10
aI19
aF0.526
aI0
aI0
aF0.0
aI4
aI7
aF0.571
aI2
aI5
aI7
aI4
aI0
aI0
aI4
aI2
aI24
aI21
aa(lp294
V0021000919
p295
aVMAR 04, 2011
p296
aVNYK vs. CLE
p297
aVL
p298
aI39
aI16
aI32
aF0.5
aI1
aI2
aF0.5
aI8
aI10
aF0.8
aI4
aI5
aI9
aI3
aI0
aI1
aI5
aI4
aI41
aI-7
aa(lp299
V0021000933
p300
aVMAR 06, 2011
p301
aVNYK @ ATL
p302
aVW
p303
aI40
aI10
aI20
aF0.5
aI0
aI0
aF0.0
aI6
aI6
aF1.0
aI2
aI5
aI7
aI2
aI3
aI1
aI2
aI2
aI26
aI7
aa(lp304
V0021000942
p305
aVMAR 07, 2011
p306
aVNYK vs. UTA
p307
aVW
p308
aI24
aI12
aI15
aF0.8
aI0
aI0
aF0.0
aI7
aI7
aF1.0
aI1
aI3
aI4
aI0
aI0
aI3
aI3
aI4
aI31
aI28
aa(lp309
V0021000958
p310
aVMAR 09, 2011
p311
aVNYK @ MEM
p312
aVW
p313
aI41
aI13
aI22
aF0.591
aI0
aI0
aF0.0
aI0
aI0
aF0.0
aI1
aI5
aI6
aI3
aI2
aI0
aI6
aI2
aI26
aI3
aa(lp314
V0021000965
p315
aVMAR 10, 2011
p316
aVNYK @ DAL
p317
aVL
p318
aI38
aI12
aI27
aF0.444
aI0
aI0
aF0.0
aI12
aI13
aF0.923
aI3
aI4
aI7
aI1
aI1
aI1
aI3
aI2
aI36
aI-23
aa(lp319
V0021000989
p320
aVMAR 13, 2011
p321
aVNYK vs. IND
p322
aVL
p323
aI34
aI8
aI15
aF0.533
aI0
aI0
aF0.0
aI12
aI14
aF0.857
aI1
aI5
aI6
aI2
aI0
aI0
aI3
aI5
aI28
aI0
aa(lp324
V0021001000
p325
aVMAR 15, 2011
p326
aVNYK @ IND
p327
aVL
p328
aI34
aI7
aI17
aF0.412
aI0
aI0
aF0.0
aI7
aI9
aF0.778
aI1
aI9
aI10
aI1
aI0
aI2
aI2
aI5
aI21
aI-5
aa(lp329
V0021001015
p330
aVMAR 17, 2011
p331
aVNYK vs. MEM
p332
aVW
p333
aI37
aI6
aI12
aF0.5
aI0
aI0
aF0.0
aI4
aI4
aF1.0
aI2
aI7
aI9
aI3
aI0
aI0
aI1
aI5
aI16
aI10
aa(lp334
V0021001021
p335
aVMAR 18, 2011
p336
aVNYK @ DET
p337
aVL
p338
aI42
aI8
aI16
aF0.5
aI0
aI0
aF0.0
aI4
aI5
aF0.8
aI4
aI8
aI12
aI0
aI0
aI1
aI5
aI3
aI20
aI-3
aa(lp339
V0021001037
p340
aVMAR 20, 2011
p341
aVNYK @ MIL
p342
aVL
p343
aI40
aI11
aI28
aF0.393
aI0
aI1
aF0.0
aI3
aI3
aF1.0
aI6
aI5
aI11
aI3
aI0
aI0
aI1
aI2
aI25
aI4
aa(lp344
V0021001046
p345
aVMAR 21, 2011
p346
aVNYK vs. BOS
p347
aVL
p348
aI35
aI7
aI15
aF0.467
aI0
aI0
aF0.0
aI2
aI4
aF0.5
aI2
aI9
aI11
aI1
aI1
aI1
aI3
aI3
aI16
aI-17
aa(lp349
V0021001059
p350
aVMAR 23, 2011
p351
aVNYK vs. ORL
p352
aVL
p353
aI40
aI6
aI20
aF0.3
aI0
aI0
aF0.0
aI1
aI3
aF0.333
aI4
aI3
aI7
aI2
aI1
aI2
aI1
aI5
aI13
aI-15
aa(lp354
V0021001073
p355
aVMAR 25, 2011
p356
aVNYK vs. MIL
p357
aVL
p358
aI39
aI10
aI20
aF0.5
aI0
aI0
aF0.0
aI8
aI10
aF0.8
aI6
aI3
aI9
aI2
aI1
aI1
aI2
aI3
aI28
aI-7
aa(lp359
V0021001082
p360
aVMAR 26, 2011
p361
aVNYK @ CHA
p362
aVL
p363
aI39
aI4
aI13
aF0.308
aI0
aI0
aF0.0
aI6
aI7
aF0.857
aI3
aI3
aI6
aI3
aI0
aI4
aI2
aI3
aI14
aI-9
aa(lp364
V0021000051
p365
aVMAR 28, 2011
p366
aVNYK vs. ORL
p367
aVW
p368
aI44
aI6
aI10
aF0.6
aI0
aI0
aF0.0
aI8
aI10
aF0.8
aI3
aI6
aI9
aI3
aI2
aI0
aI4
aI2
aI20
aI13
aa(lp369
V0021001111
p370
aVMAR 30, 2011
p371
aVNYK vs. NJN
p372
aVW
p373
aI31
aI10
aI15
aF0.667
aI0
aI0
aF0.0
aI3
aI6
aF0.5
aI0
aI1
aI1
aI3
aI0
aI2
aI0
aI5
aI23
aI-4
aa(lp374
V0021001143
p375
aVAPR 03, 2011
p376
aVNYK vs. CLE
p377
aVW
p378
aI39
aI9
aI20
aF0.45
aI0
aI0
aF0.0
aI10
aI12
aF0.833
aI2
aI5
aI7
aI0
aI1
aI2
aI2
aI4
aI28
aI15
aa(lp379
V0021001155
p380
aVAPR 05, 2011
p381
aVNYK vs. TOR
p382
aVW
p383
aI36
aI7
aI13
aF0.538
aI0
aI0
aF0.0
aI9
aI11
aF0.818
aI1
aI5
aI6
aI5
aI1
aI2
aI2
aI3
aI23
aI7
aa(lp384
V0021001165
p385
aVAPR 06, 2011
p386
aVNYK @ PHI
p387
aVW
p388
aI39
aI7
aI19
aF0.368
aI0
aI1
aF0.0
aI4
aI5
aF0.8
aI1
aI5
aI6
aI7
aI1
aI3
aI2
aI2
aI18
aI3
aa(lp389
V0021001216
p390
aVAPR 13, 2011
p391
aVNYK @ BOS
p392
aVL
p393
aI20
aI6
aI15
aF0.4
aI0
aI0
aF0.0
aI2
aI3
aF0.667
aI2
aI2
aI4
aI1
aI0
aI1
aI2
aI1
aI14
aI-3
aasS'name'
p394
VAmar'e Stoudemire
p395
sS'experience'
p396
I8
s.