(dp0
S'age'
p1
I30
sS'stats'
p2
(lp3
(lp4
V0021000012
p5
aVOCT 27, 2010
p6
aVDAL vs. CHA
p7
aVW
p8
aI34
aI5
aI16
aF0.313
aI0
aI2
aF0.0
aI3
aI4
aF0.75
aI1
aI1
aI2
aI4
aI1
aI0
aI3
aI2
aI13
aI25
aa(lp9
V0021000028
p10
aVOCT 29, 2010
p11
aVDAL vs. MEM
p12
aVL
p13
aI34
aI8
aI17
aF0.471
aI0
aI0
aF0.0
aI2
aI3
aF0.667
aI3
aI3
aI6
aI1
aI2
aI1
aI2
aI2
aI18
aI-4
aa(lp14
V0021000041
p15
aVOCT 31, 2010
p16
aVDAL @ LAC
p17
aVW
p18
aI28
aI4
aI10
aF0.4
aI1
aI1
aF1.0
aI8
aI10
aF0.8
aI1
aI3
aI4
aI2
aI1
aI0
aI2
aI2
aI17
aI20
aa(lp19
V0021000060
p20
aVNOV 03, 2010
p21
aVDAL @ DEN
p22
aVW
p23
aI35
aI7
aI14
aF0.5
aI2
aI3
aF0.667
aI0
aI0
aF0.0
aI2
aI5
aI7
aI1
aI1
aI0
aI0
aI5
aI16
aI-2
aa(lp24
V0021000085
p25
aVNOV 06, 2010
p26
aVDAL vs. DEN
p27
aVL
p28
aI34
aI5
aI17
aF0.294
aI0
aI2
aF0.0
aI3
aI5
aF0.6
aI2
aI8
aI10
aI0
aI3
aI0
aI4
aI1
aI13
aI5
aa(lp29
V0021000100
p30
aVNOV 08, 2010
p31
aVDAL vs. BOS
p32
aVW
p33
aI27
aI5
aI13
aF0.385
aI1
aI3
aF0.333
aI0
aI2
aF0.0
aI0
aI1
aI1
aI0
aI2
aI1
aI3
aI2
aI11
aI-9
aa(lp34
V0021000163
p35
aVNOV 17, 2010
p36
aVDAL @ NOH
p37
aVL
p38
aI22
aI2
aI7
aF0.286
aI0
aI0
aF0.0
aI1
aI2
aF0.5
aI0
aI0
aI0
aI2
aI0
aI0
aI1
aI0
aI5
aI2
aa(lp39
V0021000179
p40
aVNOV 19, 2010
p41
aVDAL vs. CHI
p42
aVL
p43
aI31
aI3
aI10
aF0.3
aI0
aI0
aF0.0
aI6
aI6
aF1.0
aI1
aI4
aI5
aI2
aI1
aI0
aI2
aI5
aI12
aI6
aa(lp44
V0021000184
p45
aVNOV 20, 2010
p46
aVDAL @ ATL
p47
aVW
p48
aI23
aI5
aI11
aF0.455
aI0
aI1
aF0.0
aI3
aI3
aF1.0
aI0
aI5
aI5
aI1
aI1
aI0
aI1
aI3
aI13
aI9
aa(lp49
V0021000207
p50
aVNOV 23, 2010
p51
aVDAL vs. DET
p52
aVW
p53
aI38
aI4
aI11
aF0.364
aI0
aI0
aF0.0
aI3
aI4
aF0.75
aI2
aI6
aI8
aI4
aI2
aI1
aI0
aI3
aI11
aI4
aa(lp54
V0021000216
p55
aVNOV 24, 2010
p56
aVDAL @ OKC
p57
aVW
p58
aI30
aI6
aI13
aF0.462
aI1
aI3
aF0.333
aI2
aI2
aF1.0
aI0
aI5
aI5
aI1
aI1
aI0
aI1
aI2
aI15
aI-3
aa(lp59
V0021000228
p60
aVNOV 26, 2010
p61
aVDAL @ SAS
p62
aVW
p63
aI26
aI4
aI11
aF0.364
aI0
aI1
aF0.0
aI0
aI2
aF0.0
aI1
aI2
aI3
aI1
aI0
aI1
aI4
aI2
aI8
aI-3
aa(lp64
V0021000239
p65
aVNOV 27, 2010
p66
aVDAL vs. MIA
p67
aVW
p68
aI37
aI9
aI15
aF0.6
aI3
aI3
aF1.0
aI2
aI2
aF1.0
aI1
aI2
aI3
aI0
aI1
aI0
aI0
aI2
aI23
aI12
aa(lp69
V0021000252
p70
aVNOV 29, 2010
p71
aVDAL vs. HOU
p72
aVW
p73
aI27
aI8
aI14
aF0.571
aI1
aI3
aF0.333
aI2
aI2
aF1.0
aI0
aI1
aI1
aI2
aI1
aI0
aI0
aI2
aI19
aI11
aa(lp74
V0021000268
p75
aVDEC 01, 2010
p76
aVDAL vs. MIN
p77
aVW
p78
aI20
aI4
aI8
aF0.5
aI0
aI2
aF0.0
aI2
aI2
aF1.0
aI0
aI1
aI1
aI2
aI0
aI0
aI2
aI4
aI10
aI4
aa(lp79
V0021000286
p80
aVDEC 03, 2010
p81
aVDAL @ UTA
p82
aVW
p83
aI29
aI6
aI12
aF0.5
aI2
aI2
aF1.0
aI2
aI4
aF0.5
aI1
aI2
aI3
aI2
aI1
aI1
aI0
aI2
aI16
aI4
aa(lp84
V0021000293
p85
aVDEC 04, 2010
p86
aVDAL @ SAC
p87
aVW
p88
aI26
aI4
aI10
aF0.4
aI0
aI0
aF0.0
aI5
aI6
aF0.833
aI0
aI5
aI5
aI1
aI1
aI0
aI2
aI3
aI13
aI-3
aa(lp89
V0021000312
p90
aVDEC 07, 2010
p91
aVDAL vs. GSW
p92
aVW
p93
aI34
aI8
aI18
aF0.444
aI2
aI5
aF0.4
aI1
aI2
aF0.5
aI2
aI4
aI6
aI1
aI0
aI0
aI1
aI0
aI19
aI-5
aa(lp94
V0021000328
p95
aVDEC 09, 2010
p96
aVDAL vs. NJN
p97
aVW
p98
aI27
aI7
aI11
aF0.636
aI0
aI1
aF0.0
aI1
aI1
aF1.0
aI1
aI3
aI4
aI4
aI0
aI2
aI3
aI1
aI15
aI0
aa(lp99
V0021000346
p100
aVDEC 11, 2010
p101
aVDAL vs. UTA
p102
aVW
p103
aI34
aI6
aI9
aF0.667
aI4
aI5
aF0.8
aI0
aI0
aF0.0
aI0
aI4
aI4
aI3
aI2
aI0
aI2
aI1
aI16
aI15
aa(lp104
V0021000358
p105
aVDEC 13, 2010
p106
aVDAL vs. MIL
p107
aVL
p108
aI28
aI4
aI11
aF0.364
aI0
aI4
aF0.0
aI1
aI2
aF0.5
aI0
aI3
aI3
aI0
aI0
aI0
aI2
aI3
aI9
aI7
aa(lp109
V0021000377
p110
aVDEC 15, 2010
p111
aVDAL vs. POR
p112
aVW
p113
aI33
aI10
aI19
aF0.526
aI0
aI2
aF0.0
aI3
aI3
aF1.0
aI1
aI6
aI7
aI4
aI0
aI0
aI1
aI1
aI23
aI14
aa(lp114
V0021000390
p115
aVDEC 17, 2010
p116
aVDAL vs. PHX
p117
aVW
p118
aI28
aI6
aI13
aF0.462
aI1
aI2
aF0.5
aI4
aI5
aF0.8
aI2
aI5
aI7
aI1
aI1
aI1
aI3
aI0
aI17
aI21
aa(lp119
V0021000410
p120
aVDEC 20, 2010
p121
aVDAL @ MIA
p122
aVW
p123
aI28
aI4
aI9
aF0.444
aI1
aI2
aF0.5
aI4
aI5
aF0.8
aI0
aI3
aI3
aI3
aI2
aI0
aI2
aI1
aI13
aI-4
aa(lp124
V0021000416
p125
aVDEC 21, 2010
p126
aVDAL @ ORL
p127
aVW
p128
aI27
aI8
aI14
aF0.571
aI4
aI6
aF0.667
aI0
aI0
aF0.0
aI0
aI4
aI4
aI0
aI0
aI0
aI1
aI3
aI20
aI9
aa(lp129
V0021000450
p130
aVDEC 27, 2010
p131
aVDAL @ OKC
p132
aVW
p133
aI39
aI9
aI22
aF0.409
aI3
aI5
aF0.6
aI0
aI0
aF0.0
aI0
aI4
aI4
aI3
aI1
aI0
aI0
aI1
aI21
aI10
aa(lp134
V0021000459
p135
aVDEC 28, 2010
p136
aVDAL vs. TOR
p137
aVL
p138
aI38
aI7
aI16
aF0.438
aI0
aI2
aF0.0
aI1
aI2
aF0.5
aI1
aI2
aI3
aI0
aI2
aI0
aI4
aI3
aI15
aI-4
aa(lp139
V0021000474
p140
aVDEC 30, 2010
p141
aVDAL vs. SAS
p142
aVL
p143
aI39
aI10
aI21
aF0.476
aI1
aI3
aF0.333
aI9
aI9
aF1.0
aI0
aI3
aI3
aI1
aI1
aI0
aI2
aI2
aI30
aI10
aa(lp144
V0021000489
p145
aVJAN 01, 2011
p146
aVDAL @ MIL
p147
aVL
p148
aI9
aI2
aI6
aF0.333
aI1
aI2
aF0.5
aI0
aI0
aF0.0
aI0
aI1
aI1
aI0
aI0
aI0
aI1
aI1
aI5
aI-3
aasS'name'
p149
VCaron Butler
p150
sS'experience'
p151
I8
s.