(dp0
S'age'
p1
I26
sS'stats'
p2
(lp3
(lp4
V0021001225
p5
aVAPR 13, 2011
p6
aVOKC vs. MIL
p7
aVL
p8
aI21
aI1
aI3
aF0.333
aI0
aI0
aF0.0
aI0
aI0
aF0.0
aI1
aI6
aI7
aI0
aI0
aI1
aI3
aI1
aI2
aI18
aa(lp9
V0021001212
p10
aVAPR 11, 2011
p11
aVOKC @ SAC
p12
aVW
p13
aI28
aI2
aI4
aF0.5
aI0
aI0
aF0.0
aI2
aI3
aF0.667
aI2
aI1
aI3
aI0
aI0
aI0
aI0
aI5
aI6
aI0
aa(lp14
V0021001201
p15
aVAPR 10, 2011
p16
aVOKC @ LAL
p17
aVW
p18
aI29
aI1
aI1
aF1.0
aI0
aI0
aF0.0
aI0
aI0
aF0.0
aI1
aI4
aI5
aI2
aI0
aI1
aI2
aI3
aI2
aI10
aa(lp19
V0021001185
p20
aVAPR 08, 2011
p21
aVOKC vs. DEN
p22
aVW
p23
aI21
aI2
aI4
aF0.5
aI0
aI0
aF0.0
aI0
aI0
aF0.0
aI1
aI4
aI5
aI1
aI0
aI2
aI3
aI5
aI4
aI-3
aa(lp24
V0021001170
p25
aVAPR 06, 2011
p26
aVOKC vs. LAC
p27
aVW
p28
aI33
aI2
aI11
aF0.182
aI0
aI0
aF0.0
aI1
aI2
aF0.5
aI10
aI7
aI17
aI0
aI0
aI1
aI2
aI2
aI5
aI-2
aa(lp29
V0021001159
p30
aVAPR 05, 2011
p31
aVOKC @ DEN
p32
aVW
p33
aI26
aI2
aI3
aF0.667
aI0
aI0
aF0.0
aI0
aI0
aF0.0
aI1
aI13
aI14
aI1
aI0
aI0
aI2
aI4
aI4
aI-10
aa(lp34
V0021001137
p35
aVAPR 02, 2011
p36
aVOKC @ LAC
p37
aVL
p38
aI29
aI3
aI6
aF0.5
aI0
aI0
aF0.0
aI0
aI0
aF0.0
aI3
aI5
aI8
aI1
aI0
aI2
aI0
aI2
aI6
aI-5
aa(lp39
V0021001130
p40
aVAPR 01, 2011
p41
aVOKC @ POR
p42
aVL
p43
aI23
aI1
aI4
aF0.25
aI0
aI0
aF0.0
aI2
aI2
aF1.0
aI3
aI4
aI7
aI2
aI0
aI0
aI2
aI5
aI4
aI15
aa(lp44
V0021001116
p45
aVMAR 30, 2011
p46
aVOKC @ PHX
p47
aVW
p48
aI14
aI4
aI6
aF0.667
aI0
aI0
aF0.0
aI5
aI6
aF0.833
aI0
aI3
aI3
aI1
aI1
aI1
aI0
aI4
aI13
aI9
aa(lp49
V0021001103
p50
aVMAR 29, 2011
p51
aVOKC vs. GSW
p52
aVW
p53
aI31
aI0
aI3
aF0.0
aI0
aI0
aF0.0
aI0
aI2
aF0.0
aI2
aI11
aI13
aI0
aI0
aI1
aI1
aI0
aI0
aI-7
aa(lp54
V0021001092
p55
aVMAR 27, 2011
p56
aVOKC vs. POR
p57
aVW
p58
aI31
aI3
aI6
aF0.5
aI0
aI0
aF0.0
aI0
aI1
aF0.0
aI4
aI6
aI10
aI0
aI0
aI2
aI3
aI3
aI6
aI13
aa(lp59
V0021001075
p60
aVMAR 25, 2011
p61
aVOKC vs. MIN
p62
aVW
p63
aI24
aI6
aI6
aF1.0
aI0
aI0
aF0.0
aI1
aI6
aF0.167
aI2
aI3
aI5
aI1
aI3
aI1
aI2
aI3
aI13
aI-1
aa(lp64
V0021001061
p65
aVMAR 23, 2011
p66
aVOKC vs. UTA
p67
aVW
p68
aI26
aI2
aI4
aF0.5
aI0
aI0
aF0.0
aI0
aI0
aF0.0
aI0
aI3
aI3
aI0
aI0
aI2
aI4
aI2
aI4
aI-6
aa(lp69
V0021001041
p70
aVMAR 20, 2011
p71
aVOKC vs. TOR
p72
aVL
p73
aI27
aI2
aI5
aF0.4
aI0
aI0
aF0.0
aI1
aI4
aF0.25
aI4
aI8
aI12
aI4
aI1
aI0
aI2
aI3
aI5
aI-3
aa(lp74
V0021001022
p75
aVMAR 18, 2011
p76
aVOKC vs. CHA
p77
aVW
p78
aI27
aI1
aI1
aF1.0
aI0
aI0
aF0.0
aI1
aI2
aF0.5
aI1
aI8
aI9
aI1
aI1
aI2
aI3
aI3
aI3
aI13
aa(lp79
V0021001006
p80
aVMAR 16, 2011
p81
aVOKC @ MIA
p82
aVW
p83
aI18
aI1
aI1
aF1.0
aI0
aI0
aF0.0
aI2
aI2
aF1.0
aI2
aI3
aI5
aI0
aI1
aI0
aI0
aI6
aI4
aI-5
aa(lp84
V0021000992
p85
aVMAR 14, 2011
p86
aVOKC @ WAS
p87
aVW
p88
aI20
aI2
aI3
aF0.667
aI0
aI0
aF0.0
aI2
aI2
aF1.0
aI2
aI7
aI9
aI2
aI0
aI0
aI2
aI3
aI6
aI18
aa(lp89
V0021000845
p90
aVFEB 22, 2011
p91
aVBOS @ GSW
p92
aVW
p93
aI12
aI2
aI5
aF0.4
aI0
aI0
aF0.0
aI1
aI2
aF0.5
aI3
aI4
aI7
aI0
aI0
aI1
aI1
aI3
aI5
aI4
aa(lp94
V0021000826
p95
aVFEB 16, 2011
p96
aVBOS vs. NJN
p97
aVW
p98
aI27
aI1
aI4
aF0.25
aI0
aI0
aF0.0
aI3
aI4
aF0.75
aI2
aI6
aI8
aI0
aI1
aI1
aI3
aI4
aI5
aI12
aa(lp99
V0021000804
p100
aVFEB 13, 2011
p101
aVBOS vs. MIA
p102
aVW
p103
aI31
aI4
aI8
aF0.5
aI0
aI0
aF0.0
aI7
aI9
aF0.778
aI2
aI4
aI6
aI0
aI0
aI0
aI4
aI3
aI15
aI11
aa(lp104
V0021000783
p105
aVFEB 10, 2011
p106
aVBOS vs. LAL
p107
aVL
p108
aI31
aI4
aI6
aF0.667
aI0
aI0
aF0.0
aI4
aI7
aF0.571
aI2
aI7
aI9
aI1
aI0
aI2
aI3
aI5
aI12
aI-7
aa(lp109
V0021000758
p110
aVFEB 07, 2011
p111
aVBOS @ CHA
p112
aVL
p113
aI35
aI4
aI6
aF0.667
aI0
aI0
aF0.0
aI0
aI2
aF0.0
aI2
aI5
aI7
aI0
aI0
aI3
aI1
aI3
aI8
aI-2
aa(lp114
V0021000757
p115
aVFEB 06, 2011
p116
aVBOS vs. ORL
p117
aVW
p118
aI33
aI0
aI5
aF0.0
aI0
aI0
aF0.0
aI0
aI0
aF0.0
aI1
aI12
aI13
aI3
aI1
aI2
aI0
aI3
aI0
aI3
aa(lp119
V0021000740
p120
aVFEB 04, 2011
p121
aVBOS vs. DAL
p122
aVL
p123
aI33
aI6
aI7
aF0.857
aI0
aI0
aF0.0
aI1
aI2
aF0.5
aI4
aI8
aI12
aI0
aI0
aI1
aI4
aI3
aI13
aI-4
aa(lp124
V0021000717
p125
aVFEB 01, 2011
p126
aVBOS @ SAC
p127
aVW
p128
aI25
aI3
aI6
aF0.5
aI0
aI0
aF0.0
aI2
aI2
aF1.0
aI2
aI8
aI10
aI1
aI0
aI0
aI0
aI2
aI8
aI7
aa(lp129
V0021000702
p130
aVJAN 30, 2011
p131
aVBOS @ LAL
p132
aVW
p133
aI28
aI1
aI1
aF1.0
aI0
aI0
aF0.0
aI0
aI2
aF0.0
aI1
aI5
aI6
aI2
aI0
aI0
aI3
aI4
aI2
aI13
aa(lp134
V0021000690
p135
aVJAN 28, 2011
p136
aVBOS @ PHX
p137
aVL
p138
aI21
aI1
aI2
aF0.5
aI0
aI0
aF0.0
aI0
aI2
aF0.0
aI0
aI4
aI4
aI0
aI0
aI0
aI2
aI3
aI2
aI-1
aa(lp139
V0021000680
p140
aVJAN 27, 2011
p141
aVBOS @ POR
p142
aVW
p143
aI21
aI3
aI4
aF0.75
aI0
aI0
aF0.0
aI4
aI4
aF1.0
aI1
aI8
aI9
aI0
aI0
aI0
aI4
aI2
aI10
aI0
aa(lp144
V0021000664
p145
aVJAN 25, 2011
p146
aVBOS vs. CLE
p147
aVW
p148
aI17
aI3
aI5
aF0.6
aI0
aI0
aF0.0
aI1
aI4
aF0.25
aI3
aI3
aI6
aI3
aI0
aI0
aI0
aI2
aI7
aI5
aasS'name'
p149
VKendrick Perkins
p150
sS'experience'
p151
I7
s.