(dp0
S'age'
p1
I30
sS'stats'
p2
(lp3
(lp4
V0021000992
p5
aVMAR 14, 2011
p6
aVWAS vs. OKC
p7
aVL
p8
aI11
aI0
aI6
aF0.0
aI0
aI1
aF0.0
aI0
aI0
aF0.0
aI0
aI0
aI0
aI0
aI0
aI1
aI1
aI0
aI0
aI-12
aa(lp9
V0021000978
p10
aVMAR 12, 2011
p11
aVWAS vs. LAC
p12
aVL
p13
aI22
aI4
aI9
aF0.444
aI0
aI1
aF0.0
aI1
aI2
aF0.5
aI1
aI4
aI5
aI3
aI0
aI0
aI1
aI2
aI9
aI0
aa(lp14
V0021000904
p15
aVMAR 02, 2011
p16
aVWAS vs. GSW
p17
aVL
p18
aI19
aI4
aI9
aF0.444
aI0
aI0
aF0.0
aI5
aI6
aF0.833
aI0
aI5
aI5
aI1
aI0
aI1
aI1
aI2
aI13
aI-11
aa(lp19
V0021000890
p20
aVFEB 28, 2011
p21
aVWAS vs. CHI
p22
aVL
p23
aI19
aI5
aI10
aF0.5
aI0
aI1
aF0.0
aI0
aI0
aF0.0
aI2
aI2
aI4
aI2
aI0
aI0
aI1
aI2
aI10
aI-12
aa(lp24
V0021000873
p25
aVFEB 26, 2011
p26
aVWAS vs. DAL
p27
aVL
p28
aI29
aI3
aI9
aF0.333
aI0
aI0
aF0.0
aI3
aI5
aF0.6
aI1
aI5
aI6
aI2
aI0
aI0
aI1
aI0
aI9
aI-13
aa(lp29
V0021000866
p30
aVFEB 25, 2011
p31
aVWAS @ MIA
p32
aVL
p33
aI36
aI4
aI11
aF0.364
aI1
aI4
aF0.25
aI0
aI0
aF0.0
aI0
aI5
aI5
aI3
aI0
aI0
aI0
aI6
aI9
aI-2
aa(lp34
V0021000850
p35
aVFEB 23, 2011
p36
aVWAS @ PHI
p37
aVL
p38
aI30
aI2
aI5
aF0.4
aI0
aI0
aF0.0
aI2
aI5
aF0.4
aI2
aI4
aI6
aI1
aI0
aI0
aI2
aI4
aI6
aI-26
aa(lp39
V0021000839
p40
aVFEB 22, 2011
p41
aVWAS vs. IND
p42
aVL
p43
aI29
aI7
aI16
aF0.438
aI0
aI1
aF0.0
aI0
aI0
aF0.0
aI2
aI3
aI5
aI3
aI0
aI0
aI2
aI2
aI14
aI-13
aa(lp44
V0021000824
p45
aVFEB 16, 2011
p46
aVWAS @ ORL
p47
aVL
p48
aI24
aI1
aI10
aF0.1
aI0
aI1
aF0.0
aI1
aI3
aF0.333
aI0
aI7
aI7
aI1
aI0
aI0
aI1
aI1
aI3
aI-16
aa(lp49
V0021000806
p50
aVFEB 13, 2011
p51
aVWAS @ CLE
p52
aVW
p53
aI25
aI6
aI11
aF0.545
aI3
aI6
aF0.5
aI1
aI1
aF1.0
aI0
aI5
aI5
aI2
aI2
aI1
aI2
aI2
aI16
aI16
aa(lp54
V0021000515
p55
aVJAN 05, 2011
p56
aVWAS @ PHI
p57
aVL
p58
aI12
aI0
aI3
aF0.0
aI0
aI0
aF0.0
aI0
aI0
aF0.0
aI1
aI2
aI3
aI1
aI0
aI0
aI0
aI1
aI0
aI5
aa(lp59
V0021000478
p60
aVDEC 31, 2010
p61
aVWAS @ IND
p62
aVL
p63
aI15
aI0
aI5
aF0.0
aI0
aI3
aF0.0
aI4
aI6
aF0.667
aI2
aI1
aI3
aI0
aI3
aI0
aI2
aI0
aI4
aI-10
aa(lp64
V0021000464
p65
aVDEC 29, 2010
p66
aVWAS vs. IND
p67
aVW
p68
aI24
aI2
aI9
aF0.222
aI0
aI3
aF0.0
aI0
aI0
aF0.0
aI2
aI2
aI4
aI1
aI3
aI2
aI1
aI2
aI4
aI4
aa(lp69
V0021000451
p70
aVDEC 27, 2010
p71
aVWAS @ HOU
p72
aVL
p73
aI23
aI5
aI13
aF0.385
aI1
aI2
aF0.5
aI1
aI2
aF0.5
aI1
aI1
aI2
aI2
aI1
aI0
aI1
aI3
aI12
aI8
aa(lp74
V0021000443
p75
aVDEC 26, 2010
p76
aVWAS @ SAS
p77
aVL
p78
aI24
aI4
aI12
aF0.333
aI0
aI1
aF0.0
aI3
aI4
aF0.75
aI2
aI4
aI6
aI0
aI1
aI0
aI1
aI1
aI11
aI-12
aa(lp79
V0021000423
p80
aVDEC 22, 2010
p81
aVWAS vs. CHI
p82
aVL
p83
aI25
aI4
aI8
aF0.5
aI1
aI1
aF1.0
aI4
aI5
aF0.8
aI0
aI1
aI1
aI0
aI1
aI0
aI1
aI1
aI13
aI2
aa(lp84
V0021000409
p85
aVDEC 20, 2010
p86
aVWAS vs. CHA
p87
aVW
p88
aI21
aI2
aI7
aF0.286
aI1
aI2
aF0.5
aI1
aI2
aF0.5
aI0
aI3
aI3
aI1
aI1
aI0
aI1
aI3
aI6
aI11
aa(lp89
V0021000393
p90
aVDEC 18, 2010
p91
aVWAS vs. MIA
p92
aVL
p93
aI22
aI5
aI9
aF0.556
aI0
aI2
aF0.0
aI3
aI6
aF0.5
aI2
aI2
aI4
aI1
aI1
aI0
aI1
aI2
aI13
aI-6
aasS'name'
p94
VJosh Howard
p95
sS'experience'
p96
I7
s.