(dp0
S'age'
p1
I27
sS'stats'
p2
(lp3
(lp4
V0021000002
p5
aVOCT 26, 2010
p6
aVPHX @ POR
p7
aVL
p8
aI17
aI2
aI4
aF0.5
aI0
aI0
aF0.0
aI0
aI0
aF0.0
aI0
aI0
aI0
aI0
aI0
aI0
aI0
aI2
aI4
aI-11
aa(lp9
V0021000018
p10
aVOCT 28, 2010
p11
aVPHX @ UTA
p12
aVW
p13
aI19
aI1
aI1
aF1.0
aI0
aI0
aF0.0
aI0
aI2
aF0.0
aI1
aI2
aI3
aI0
aI2
aI0
aI0
aI1
aI2
aI12
aa(lp14
V0021000030
p15
aVOCT 29, 2010
p16
aVPHX vs. LAL
p17
aVL
p18
aI14
aI2
aI5
aF0.4
aI0
aI1
aF0.0
aI0
aI0
aF0.0
aI1
aI2
aI3
aI0
aI0
aI1
aI1
aI0
aI4
aI-6
aa(lp19
V0021000062
p20
aVNOV 03, 2010
p21
aVPHX vs. SAS
p22
aVL
p23
aI14
aI3
aI4
aF0.75
aI0
aI0
aF0.0
aI0
aI0
aF0.0
aI1
aI1
aI2
aI1
aI0
aI1
aI0
aI1
aI6
aI-5
aa(lp24
V0021000076
p25
aVNOV 05, 2010
p26
aVPHX vs. MEM
p27
aVW
p28
aI16
aI3
aI5
aF0.6
aI0
aI0
aF0.0
aI0
aI0
aF0.0
aI3
aI2
aI5
aI1
aI0
aI0
aI2
aI0
aI6
aI8
aa(lp29
V0021000090
p30
aVNOV 07, 2010
p31
aVPHX @ ATL
p32
aVW
p33
aI22
aI4
aI9
aF0.444
aI0
aI1
aF0.0
aI3
aI4
aF0.75
aI3
aI3
aI6
aI2
aI0
aI0
aI1
aI3
aI11
aI6
aa(lp34
V0021000099
p35
aVNOV 08, 2010
p36
aVPHX @ MEM
p37
aVL
p38
aI17
aI2
aI5
aF0.4
aI0
aI0
aF0.0
aI0
aI0
aF0.0
aI4
aI1
aI5
aI1
aI0
aI1
aI1
aI0
aI4
aI-9
aa(lp39
V0021000127
p40
aVNOV 12, 2010
p41
aVPHX vs. SAC
p42
aVW
p43
aI25
aI3
aI4
aF0.75
aI0
aI0
aF0.0
aI4
aI6
aF0.667
aI1
aI4
aI5
aI1
aI0
aI1
aI1
aI0
aI10
aI12
aa(lp44
V0021000143
p45
aVNOV 14, 2010
p46
aVPHX @ LAL
p47
aVW
p48
aI23
aI1
aI3
aF0.333
aI0
aI0
aF0.0
aI0
aI0
aF0.0
aI4
aI1
aI5
aI2
aI0
aI0
aI0
aI1
aI2
aI-2
aa(lp49
V0021000147
p50
aVNOV 15, 2010
p51
aVPHX vs. DEN
p52
aVW
p53
aI21
aI4
aI5
aF0.8
aI0
aI0
aF0.0
aI2
aI2
aF1.0
aI4
aI4
aI8
aI0
aI0
aI1
aI3
aI4
aI10
aI-2
aa(lp54
V0021000158
p55
aVNOV 17, 2010
p56
aVPHX @ MIA
p57
aVL
p58
aI18
aI1
aI1
aF1.0
aI0
aI0
aF0.0
aI4
aI6
aF0.667
aI0
aI2
aI2
aI2
aI0
aI0
aI1
aI1
aI6
aI-4
aa(lp59
V0021000169
p60
aVNOV 18, 2010
p61
aVPHX @ ORL
p62
aVL
p63
aI20
aI2
aI5
aF0.4
aI0
aI0
aF0.0
aI3
aI3
aF1.0
aI2
aI1
aI3
aI0
aI1
aI0
aI2
aI3
aI7
aI14
aa(lp64
V0021000182
p65
aVNOV 20, 2010
p66
aVPHX @ CHA
p67
aVL
p68
aI22
aI3
aI4
aF0.75
aI0
aI0
aF0.0
aI0
aI0
aF0.0
aI0
aI4
aI4
aI2
aI1
aI1
aI1
aI2
aI6
aI-3
aa(lp69
V0021000198
p70
aVNOV 22, 2010
p71
aVPHX @ HOU
p72
aVW
p73
aI16
aI3
aI6
aF0.5
aI0
aI0
aF0.0
aI4
aI4
aF1.0
aI0
aI2
aI2
aI2
aI1
aI0
aI1
aI2
aI10
aI0
aa(lp74
V0021000218
p75
aVNOV 24, 2010
p76
aVPHX vs. CHI
p77
aVL
p78
aI12
aI0
aI0
aF0.0
aI0
aI0
aF0.0
aI1
aI2
aF0.5
aI1
aI0
aI1
aI0
aI0
aI0
aI1
aI0
aI1
aI-16
aa(lp79
V0021000230
p80
aVNOV 26, 2010
p81
aVPHX vs. LAC
p82
aVW
p83
aI15
aI0
aI0
aF0.0
aI0
aI0
aF0.0
aI0
aI0
aF0.0
aI1
aI1
aI2
aI3
aI0
aI0
aI0
aI0
aI0
aI-11
aa(lp84
V0021000248
p85
aVNOV 28, 2010
p86
aVPHX @ DEN
p87
aVL
p88
aI21
aI6
aI9
aF0.667
aI0
aI1
aF0.0
aI3
aI4
aF0.75
aI1
aI4
aI5
aI0
aI1
aI1
aI0
aI2
aI15
aI3
aa(lp89
V0021000274
p90
aVDEC 02, 2010
p91
aVPHX @ GSW
p92
aVW
p93
aI16
aI2
aI4
aF0.5
aI0
aI1
aF0.0
aI0
aI0
aF0.0
aI0
aI0
aI0
aI1
aI0
aI0
aI0
aI0
aI4
aI-5
aa(lp94
V0021000285
p95
aVDEC 03, 2010
p96
aVPHX vs. IND
p97
aVW
p98
aI8
aI0
aI2
aF0.0
aI0
aI0
aF0.0
aI0
aI0
aF0.0
aI0
aI1
aI1
aI1
aI1
aI0
aI0
aI1
aI0
aI-9
aa(lp99
V0021000300
p100
aVDEC 05, 2010
p101
aVPHX vs. WAS
p102
aVW
p103
aI17
aI3
aI3
aF1.0
aI0
aI0
aF0.0
aI0
aI4
aF0.0
aI0
aI1
aI1
aI0
aI2
aI0
aI1
aI2
aI6
aI-2
aa(lp104
V0021000314
p105
aVDEC 07, 2010
p106
aVPHX @ POR
p107
aVL
p108
aI6
aI1
aI1
aF1.0
aI0
aI0
aF0.0
aI0
aI0
aF0.0
aI0
aI0
aI0
aI0
aI0
aI0
aI1
aI0
aI2
aI-3
aa(lp109
V0021000323
p110
aVDEC 08, 2010
p111
aVPHX vs. MEM
p112
aVL
p113
aI23
aI3
aI6
aF0.5
aI0
aI0
aF0.0
aI1
aI5
aF0.2
aI4
aI3
aI7
aI1
aI1
aI1
aI0
aI2
aI7
aI8
aa(lp114
V0021000338
p115
aVDEC 10, 2010
p116
aVPHX vs. POR
p117
aVL
p118
aI8
aI0
aI0
aF0.0
aI0
aI0
aF0.0
aI0
aI0
aF0.0
aI0
aI0
aI0
aI0
aI0
aI1
aI0
aI1
aI0
aI-1
aa(lp119
V0021000405
p120
aVDEC 19, 2010
p121
aVPHX @ OKC
p122
aVW
p123
aI28
aI5
aI9
aF0.556
aI0
aI1
aF0.0
aI0
aI0
aF0.0
aI2
aI3
aI5
aI1
aI3
aI0
aI2
aI3
aI10
aI-4
aa(lp124
V0021000411
p125
aVDEC 20, 2010
p126
aVPHX @ SAS
p127
aVL
p128
aI29
aI7
aI11
aF0.636
aI0
aI0
aF0.0
aI1
aI2
aF0.5
aI5
aI0
aI5
aI0
aI1
aI1
aI1
aI3
aI15
aI-3
aa(lp129
V0021000432
p130
aVDEC 23, 2010
p131
aVPHX vs. MIA
p132
aVL
p133
aI10
aI1
aI3
aF0.333
aI0
aI0
aF0.0
aI0
aI0
aF0.0
aI1
aI1
aI2
aI0
aI1
aI0
aI2
aI4
aI2
aI-10
aa(lp134
V0021000438
p135
aVDEC 26, 2010
p136
aVPHX @ LAC
p137
aVL
p138
aI9
aI1
aI3
aF0.333
aI0
aI0
aF0.0
aI0
aI0
aF0.0
aI1
aI1
aI2
aI0
aI0
aI0
aI1
aI1
aI2
aI2
aa(lp139
V0021000497
p140
aVJAN 02, 2011
p141
aVPHX @ SAC
p142
aVL
p143
aI9
aI1
aI2
aF0.5
aI0
aI0
aF0.0
aI0
aI0
aF0.0
aI0
aI1
aI1
aI0
aI0
aI1
aI0
aI1
aI2
aI-5
aa(lp144
V0021000533
p145
aVJAN 07, 2011
p146
aVPHX vs. NYK
p147
aVL
p148
aI12
aI1
aI1
aF1.0
aI0
aI0
aF0.0
aI1
aI2
aF0.5
aI0
aI5
aI5
aI0
aI0
aI0
aI1
aI0
aI3
aI0
aa(lp149
V0021000558
p150
aVJAN 11, 2011
p151
aVPHX @ DEN
p152
aVL
p153
aI26
aI2
aI6
aF0.333
aI0
aI1
aF0.0
aI1
aI4
aF0.25
aI4
aI1
aI5
aI2
aI0
aI1
aI2
aI3
aI5
aI-13
aa(lp154
V0021000569
p155
aVJAN 12, 2011
p156
aVPHX vs. NJN
p157
aVW
p158
aI21
aI1
aI4
aF0.25
aI0
aI3
aF0.0
aI0
aI0
aF0.0
aI2
aI2
aI4
aI1
aI0
aI0
aI2
aI1
aI2
aI-12
aa(lp159
V0021000655
p160
aVJAN 24, 2011
p161
aVPHX @ PHI
p162
aVL
p163
aI20
aI1
aI3
aF0.333
aI0
aI0
aF0.0
aI0
aI0
aF0.0
aI1
aI3
aI4
aI2
aI0
aI0
aI4
aI0
aI2
aI6
aa(lp164
V0021000784
p165
aVFEB 10, 2011
p166
aVPHX vs. GSW
p167
aVW
p168
aI9
aI2
aI2
aF1.0
aI0
aI0
aF0.0
aI0
aI0
aF0.0
aI0
aI1
aI1
aI0
aI0
aI0
aI0
aI1
aI4
aI-2
aa(lp169
V0021000864
p170
aVFEB 25, 2011
p171
aVPHX @ TOR
p172
aVW
p173
aI3
aI1
aI1
aF1.0
aI0
aI0
aF0.0
aI0
aI0
aF0.0
aI1
aI0
aI1
aI0
aI0
aI0
aI0
aI0
aI2
aI-1
aa(lp174
V0021000922
p175
aVMAR 04, 2011
p176
aVPHX @ MIL
p177
aVW
p178
aI6
aI1
aI1
aF1.0
aI0
aI0
aF0.0
aI0
aI0
aF0.0
aI0
aI0
aI0
aI0
aI0
aI0
aI0
aI1
aI2
aI0
aa(lp179
V0021000952
p180
aVMAR 08, 2011
p181
aVPHX vs. HOU
p182
aVW
p183
aI4
aI1
aI1
aF1.0
aI0
aI0
aF0.0
aI0
aI0
aF0.0
aI0
aI1
aI1
aI0
aI0
aI0
aI0
aI0
aI2
aI-2
aa(lp184
V0021000966
p185
aVMAR 10, 2011
p186
aVPHX vs. DEN
p187
aVL
p188
aI19
aI2
aI5
aF0.4
aI0
aI1
aF0.0
aI1
aI2
aF0.5
aI1
aI1
aI2
aI0
aI2
aI0
aI0
aI4
aI5
aI3
aa(lp189
V0021000987
p190
aVMAR 13, 2011
p191
aVPHX vs. ORL
p192
aVL
p193
aI19
aI1
aI5
aF0.2
aI0
aI1
aF0.0
aI0
aI0
aF0.0
aI2
aI1
aI3
aI2
aI1
aI2
aI1
aI1
aI2
aI-8
aa(lp194
V0021000996
p195
aVMAR 14, 2011
p196
aVPHX @ HOU
p197
aVL
p198
aI21
aI7
aI10
aF0.7
aI1
aI1
aF1.0
aI0
aI0
aF0.0
aI2
aI4
aI6
aI4
aI1
aI1
aI3
aI2
aI15
aI13
aa(lp199
V0021001008
p200
aVMAR 16, 2011
p201
aVPHX @ NOH
p202
aVL
p203
aI17
aI2
aI3
aF0.667
aI0
aI0
aF0.0
aI0
aI0
aF0.0
aI1
aI2
aI3
aI1
aI0
aI0
aI1
aI0
aI4
aI1
aa(lp204
V0021001026
p205
aVMAR 18, 2011
p206
aVPHX vs. GSW
p207
aVW
p208
aI4
aI0
aI1
aF0.0
aI0
aI0
aF0.0
aI0
aI0
aF0.0
aI1
aI0
aI1
aI0
aI0
aI0
aI0
aI1
aI0
aI-9
aa(lp209
V0021001063
p210
aVMAR 23, 2011
p211
aVPHX vs. TOR
p212
aVW
p213
aI10
aI2
aI3
aF0.667
aI0
aI0
aF0.0
aI0
aI0
aF0.0
aI1
aI1
aI2
aI1
aI1
aI0
aI0
aI0
aI4
aI2
aa(lp214
V0021001077
p215
aVMAR 25, 2011
p216
aVPHX vs. NOH
p217
aVL
p218
aI15
aI0
aI1
aF0.0
aI0
aI0
aF0.0
aI0
aI0
aF0.0
aI0
aI0
aI0
aI0
aI0
aI2
aI1
aI2
aI0
aI-3
aa(lp219
V0021001095
p220
aVMAR 27, 2011
p221
aVPHX vs. DAL
p222
aVL
p223
aI22
aI6
aI9
aF0.667
aI0
aI0
aF0.0
aI0
aI2
aF0.0
aI2
aI1
aI3
aI2
aI0
aI2
aI1
aI0
aI12
aI-8
aa(lp224
V0021001104
p225
aVMAR 29, 2011
p226
aVPHX @ SAC
p227
aVL
p228
aI17
aI5
aI5
aF1.0
aI0
aI0
aF0.0
aI0
aI0
aF0.0
aI1
aI3
aI4
aI2
aI1
aI0
aI0
aI1
aI10
aI-5
aa(lp229
V0021001116
p230
aVMAR 30, 2011
p231
aVPHX vs. OKC
p232
aVL
p233
aI20
aI1
aI3
aF0.333
aI0
aI1
aF0.0
aI0
aI0
aF0.0
aI2
aI2
aI4
aI0
aI0
aI0
aI0
aI2
aI2
aI-6
aa(lp234
V0021001129
p235
aVAPR 01, 2011
p236
aVPHX vs. LAC
p237
aVW
p238
aI22
aI3
aI4
aF0.75
aI0
aI0
aF0.0
aI0
aI2
aF0.0
aI1
aI0
aI1
aI0
aI4
aI0
aI2
aI1
aI6
aI-2
aa(lp239
V0021001138
p240
aVAPR 03, 2011
p241
aVPHX @ SAS
p242
aVL
p243
aI19
aI2
aI5
aF0.4
aI0
aI1
aF0.0
aI0
aI0
aF0.0
aI1
aI2
aI3
aI0
aI2
aI1
aI0
aI0
aI4
aI-17
aa(lp244
V0021001156
p245
aVAPR 05, 2011
p246
aVPHX @ CHI
p247
aVL
p248
aI15
aI2
aI5
aF0.4
aI0
aI0
aF0.0
aI0
aI0
aF0.0
aI3
aI2
aI5
aI0
aI2
aI0
aI1
aI1
aI4
aI-2
aa(lp249
V0021001168
p250
aVAPR 06, 2011
p251
aVPHX @ MIN
p252
aVW
p253
aI29
aI5
aI6
aF0.833
aI0
aI0
aF0.0
aI0
aI0
aF0.0
aI2
aI2
aI4
aI3
aI3
aI0
aI0
aI2
aI10
aI4
aa(lp254
V0021001184
p255
aVAPR 08, 2011
p256
aVPHX @ NOH
p257
aVL
p258
aI10
aI2
aI4
aF0.5
aI0
aI0
aF0.0
aI0
aI1
aF0.0
aI0
aI2
aI2
aI0
aI0
aI0
aI0
aI0
aI4
aI3
aa(lp259
V0021001199
p260
aVAPR 10, 2011
p261
aVPHX @ DAL
p262
aVL
p263
aI29
aI4
aI6
aF0.667
aI0
aI2
aF0.0
aI0
aI2
aF0.0
aI0
aI1
aI1
aI0
aI0
aI1
aI2
aI1
aI8
aI-14
aa(lp264
V0021001211
p265
aVAPR 11, 2011
p266
aVPHX vs. MIN
p267
aVW
p268
aI19
aI2
aI4
aF0.5
aI0
aI0
aF0.0
aI0
aI0
aF0.0
aI0
aI3
aI3
aI0
aI0
aI2
aI0
aI3
aI4
aI-2
aa(lp269
V0021001229
p270
aVAPR 13, 2011
p271
aVPHX vs. SAS
p272
aVW
p273
aI12
aI1
aI2
aF0.5
aI0
aI0
aF0.0
aI0
aI0
aF0.0
aI1
aI1
aI2
aI1
aI1
aI0
aI0
aI1
aI2
aI-9
aasS'name'
p274
VJosh Childress
p275
sS'experience'
p276
I6
s.