(dp0
S'age'
p1
I25
sS'stats'
p2
(lp3
(lp4
V0021001226
p5
aVAPR 13, 2011
p6
aVUTA vs. DEN
p7
aVW
p8
aI33
aI8
aI15
aF0.533
aI0
aI0
aF0.0
aI1
aI2
aF0.5
aI1
aI9
aI10
aI3
aI0
aI1
aI2
aI3
aI17
aI11
aa(lp9
V0021001208
p10
aVAPR 11, 2011
p11
aVUTA @ NOH
p12
aVW
p13
aI28
aI4
aI10
aF0.4
aI0
aI0
aF0.0
aI0
aI0
aF0.0
aI0
aI6
aI6
aI5
aI1
aI2
aI0
aI4
aI8
aI19
aa(lp14
V0021001191
p15
aVAPR 09, 2011
p16
aVUTA @ SAS
p17
aVL
p18
aI37
aI10
aI15
aF0.667
aI0
aI0
aF0.0
aI3
aI6
aF0.5
aI2
aI6
aI8
aI1
aI1
aI1
aI1
aI3
aI23
aI-9
aa(lp19
V0021001175
p20
aVAPR 07, 2011
p21
aVUTA vs. POR
p22
aVL
p23
aI37
aI4
aI10
aF0.4
aI0
aI0
aF0.0
aI2
aI2
aF1.0
aI5
aI9
aI14
aI5
aI0
aI3
aI0
aI0
aI10
aI-13
aa(lp24
V0021001161
p25
aVAPR 05, 2011
p26
aVUTA @ LAL
p27
aVW
p28
aI39
aI5
aI18
aF0.278
aI0
aI0
aF0.0
aI1
aI2
aF0.5
aI1
aI10
aI11
aI3
aI2
aI3
aI0
aI3
aI11
aI9
aa(lp29
V0021001145
p30
aVAPR 03, 2011
p31
aVUTA @ SAC
p32
aVL
p33
aI30
aI4
aI13
aF0.308
aI0
aI0
aF0.0
aI3
aI4
aF0.75
aI4
aI5
aI9
aI3
aI0
aI0
aI3
aI1
aI11
aI-6
aa(lp34
V0021001132
p35
aVAPR 01, 2011
p36
aVUTA vs. LAL
p37
aVL
p38
aI36
aI7
aI18
aF0.389
aI0
aI0
aF0.0
aI3
aI4
aF0.75
aI5
aI5
aI10
aI5
aI1
aI1
aI3
aI4
aI17
aI-5
aa(lp39
V0021001100
p40
aVMAR 28, 2011
p41
aVUTA vs. WAS
p42
aVL
p43
aI30
aI7
aI15
aF0.467
aI0
aI0
aF0.0
aI1
aI3
aF0.333
aI4
aI12
aI16
aI0
aI0
aI1
aI0
aI2
aI15
aI-3
aa(lp44
V0021001085
p45
aVMAR 26, 2011
p46
aVUTA vs. DAL
p47
aVL
p48
aI39
aI9
aI21
aF0.429
aI0
aI0
aF0.0
aI3
aI3
aF1.0
aI3
aI4
aI7
aI2
aI0
aI0
aI1
aI2
aI21
aI-11
aa(lp49
V0021001067
p50
aVMAR 24, 2011
p51
aVUTA vs. NOH
p52
aVL
p53
aI37
aI11
aI17
aF0.647
aI0
aI0
aF0.0
aI0
aI0
aF0.0
aI5
aI8
aI13
aI2
aI1
aI1
aI3
aI3
aI22
aI-9
aa(lp54
V0021001061
p55
aVMAR 23, 2011
p56
aVUTA @ OKC
p57
aVL
p58
aI41
aI14
aI18
aF0.778
aI0
aI0
aF0.0
aI4
aI5
aF0.8
aI3
aI9
aI12
aI2
aI0
aI0
aI0
aI4
aI32
aI-14
aa(lp59
V0021001048
p60
aVMAR 21, 2011
p61
aVUTA @ MEM
p62
aVL
p63
aI34
aI6
aI10
aF0.6
aI0
aI0
aF0.0
aI0
aI0
aF0.0
aI0
aI4
aI4
aI0
aI0
aI1
aI2
aI2
aI12
aI-13
aa(lp64
V0021001040
p65
aVMAR 20, 2011
p66
aVUTA @ HOU
p67
aVL
p68
aI38
aI7
aI23
aF0.304
aI0
aI0
aF0.0
aI3
aI5
aF0.6
aI9
aI10
aI19
aI4
aI0
aI1
aI2
aI3
aI17
aI-5
aa(lp69
V0021001010
p70
aVMAR 16, 2011
p71
aVUTA vs. MIN
p72
aVW
p73
aI39
aI11
aI20
aF0.55
aI0
aI0
aF0.0
aI4
aI5
aF0.8
aI1
aI10
aI11
aI2
aI0
aI4
aI1
aI2
aI26
aI21
aa(lp74
V0021000997
p75
aVMAR 14, 2011
p76
aVUTA vs. PHI
p77
aVW
p78
aI45
aI11
aI26
aF0.423
aI0
aI0
aF0.0
aI8
aI9
aF0.889
aI6
aI11
aI17
aI6
aI0
aI2
aI1
aI2
aI30
aI5
aa(lp79
V0021000979
p80
aVMAR 12, 2011
p81
aVUTA @ CHI
p82
aVL
p83
aI45
aI15
aI29
aF0.517
aI0
aI0
aF0.0
aI3
aI4
aF0.75
aI6
aI12
aI18
aI2
aI1
aI1
aI4
aI4
aI33
aI-11
aa(lp84
V0021000972
p85
aVMAR 11, 2011
p86
aVUTA @ MIN
p87
aVL
p88
aI31
aI4
aI13
aF0.308
aI0
aI0
aF0.0
aI1
aI2
aF0.5
aI2
aI7
aI9
aI3
aI0
aI4
aI1
aI2
aI9
aI-25
aa(lp89
V0021000956
p90
aVMAR 09, 2011
p91
aVUTA @ TOR
p92
aVW
p93
aI42
aI17
aI24
aF0.708
aI0
aI0
aF0.0
aI0
aI0
aF0.0
aI6
aI2
aI8
aI2
aI0
aI1
aI3
aI2
aI34
aI18
aa(lp94
V0021000942
p95
aVMAR 07, 2011
p96
aVUTA @ NYK
p97
aVL
p98
aI32
aI17
aI26
aF0.654
aI0
aI0
aF0.0
aI2
aI3
aF0.667
aI8
aI4
aI12
aI1
aI0
aI1
aI2
aI3
aI36
aI-33
aa(lp99
V0021000928
p100
aVMAR 05, 2011
p101
aVUTA vs. SAC
p102
aVW
p103
aI44
aI13
aI25
aF0.52
aI0
aI0
aF0.0
aI1
aI2
aF0.5
aI1
aI6
aI7
aI4
aI1
aI2
aI1
aI5
aI27
aI14
aa(lp104
V0021000913
p105
aVMAR 03, 2011
p106
aVUTA vs. DEN
p107
aVL
p108
aI37
aI9
aI17
aF0.529
aI0
aI0
aF0.0
aI1
aI1
aF1.0
aI1
aI9
aI10
aI1
aI1
aI6
aI1
aI4
aI19
aI0
aa(lp109
V0021000892
p110
aVFEB 28, 2011
p111
aVUTA vs. BOS
p112
aVL
p113
aI42
aI11
aI21
aF0.524
aI0
aI0
aF0.0
aI6
aI7
aF0.857
aI4
aI15
aI19
aI1
aI0
aI2
aI2
aI4
aI28
aI-10
aa(lp114
V0021000874
p115
aVFEB 26, 2011
p116
aVUTA @ DET
p117
aVL
p118
aI37
aI10
aI17
aF0.588
aI0
aI0
aF0.0
aI0
aI0
aF0.0
aI1
aI8
aI9
aI1
aI0
aI1
aI0
aI2
aI20
aI-1
aa(lp119
V0021000862
p120
aVFEB 25, 2011
p121
aVUTA @ IND
p122
aVW
p123
aI39
aI14
aI26
aF0.538
aI0
aI0
aF0.0
aI2
aI2
aF1.0
aI2
aI7
aI9
aI3
aI2
aI5
aI2
aI1
aI30
aI15
aa(lp124
V0021000856
p125
aVFEB 23, 2011
p126
aVUTA @ DAL
p127
aVL
p128
aI39
aI11
aI14
aF0.786
aI0
aI0
aF0.0
aI8
aI10
aF0.8
aI2
aI6
aI8
aI2
aI2
aI1
aI0
aI2
aI30
aI-14
aa(lp129
V0021000834
p130
aVFEB 16, 2011
p131
aVUTA vs. GSW
p132
aVL
p133
aI41
aI10
aI20
aF0.5
aI0
aI0
aF0.0
aI3
aI4
aF0.75
aI6
aI5
aI11
aI0
aI0
aI1
aI0
aI2
aI23
aI-4
aa(lp134
V0021000822
p135
aVFEB 15, 2011
p136
aVUTA @ PHX
p137
aVL
p138
aI35
aI14
aI23
aF0.609
aI0
aI0
aF0.0
aI4
aI5
aF0.8
aI3
aI7
aI10
aI1
aI0
aI2
aI1
aI4
aI32
aI-3
aa(lp139
V0021000795
p140
aVFEB 11, 2011
p141
aVUTA vs. PHX
p142
aVL
p143
aI37
aI2
aI14
aF0.143
aI0
aI0
aF0.0
aI0
aI0
aF0.0
aI3
aI9
aI12
aI2
aI1
aI2
aI1
aI3
aI4
aI-8
aa(lp144
V0021000780
p145
aVFEB 09, 2011
p146
aVUTA vs. CHI
p147
aVL
p148
aI41
aI12
aI19
aF0.632
aI0
aI0
aF0.0
aI2
aI5
aF0.4
aI2
aI6
aI8
aI1
aI0
aI3
aI2
aI2
aI26
aI-7
aa(lp149
V0021000764
p150
aVFEB 07, 2011
p151
aVUTA @ SAC
p152
aVW
p153
aI37
aI10
aI18
aF0.556
aI0
aI0
aF0.0
aI3
aI4
aF0.75
aI1
aI3
aI4
aI0
aI3
aI0
aI1
aI3
aI23
aI5
aa(lp154
V0021000752
p155
aVFEB 05, 2011
p156
aVUTA vs. OKC
p157
aVL
p158
aI40
aI7
aI12
aF0.583
aI0
aI0
aF0.0
aI7
aI9
aF0.778
aI3
aI5
aI8
aI2
aI0
aI2
aI1
aI3
aI21
aI-15
aa(lp159
V0021000744
p160
aVFEB 04, 2011
p161
aVUTA @ DEN
p162
aVW
p163
aI33
aI12
aI20
aF0.6
aI0
aI0
aF0.0
aI4
aI4
aF1.0
aI3
aI7
aI10
aI0
aI0
aI3
aI0
aI4
aI28
aI7
aa(lp164
V0021000728
p165
aVFEB 02, 2011
p166
aVUTA vs. HOU
p167
aVL
p168
aI40
aI8
aI16
aF0.5
aI0
aI0
aF0.0
aI4
aI5
aF0.8
aI4
aI8
aI12
aI2
aI2
aI2
aI1
aI4
aI20
aI-1
aa(lp169
V0021000713
p170
aVJAN 31, 2011
p171
aVUTA vs. CHA
p172
aVW
p173
aI37
aI9
aI18
aF0.5
aI0
aI0
aF0.0
aI3
aI3
aF1.0
aI2
aI9
aI11
aI1
aI0
aI3
aI3
aI1
aI21
aI-3
aa(lp174
V0021000707
p175
aVJAN 30, 2011
p176
aVUTA @ GSW
p177
aVL
p178
aI33
aI6
aI18
aF0.333
aI0
aI0
aF0.0
aI4
aI6
aF0.667
aI5
aI9
aI14
aI0
aI1
aI1
aI0
aI3
aI16
aI-1
aa(lp179
V0021000689
p180
aVJAN 28, 2011
p181
aVUTA vs. MIN
p182
aVW
p183
aI28
aI3
aI14
aF0.214
aI0
aI0
aF0.0
aI2
aI2
aF1.0
aI4
aI10
aI14
aI1
aI2
aI0
aI1
aI6
aI8
aI9
aa(lp184
V0021000676
p185
aVJAN 26, 2011
p186
aVUTA vs. SAS
p187
aVL
p188
aI36
aI10
aI15
aF0.667
aI0
aI0
aF0.0
aI2
aI3
aF0.667
aI2
aI7
aI9
aI2
aI1
aI2
aI1
aI3
aI22
aI-9
aa(lp189
V0021000667
p190
aVJAN 25, 2011
p191
aVUTA @ LAL
p192
aVL
p193
aI28
aI5
aI11
aF0.455
aI0
aI0
aF0.0
aI0
aI0
aF0.0
aI4
aI5
aI9
aI1
aI0
aI2
aI0
aI3
aI10
aI-15
aa(lp194
V0021000644
p195
aVJAN 22, 2011
p196
aVUTA @ PHI
p197
aVL
p198
aI36
aI8
aI19
aF0.421
aI0
aI0
aF0.0
aI3
aI4
aF0.75
aI5
aI8
aI13
aI0
aI1
aI3
aI1
aI3
aI19
aI-5
aa(lp199
V0021000632
p200
aVJAN 21, 2011
p201
aVUTA @ BOS
p202
aVL
p203
aI25
aI1
aI11
aF0.091
aI0
aI0
aF0.0
aI5
aI6
aF0.833
aI2
aI3
aI5
aI4
aI0
aI2
aI3
aI3
aI7
aI-14
aa(lp204
V0021000614
p205
aVJAN 19, 2011
p206
aVUTA @ NJN
p207
aVL
p208
aI33
aI10
aI18
aF0.556
aI0
aI0
aF0.0
aI1
aI1
aF1.0
aI6
aI2
aI8
aI0
aI1
aI1
aI2
aI6
aI21
aI-1
aa(lp209
V0021000599
p210
aVJAN 17, 2011
p211
aVUTA @ WAS
p212
aVL
p213
aI34
aI11
aI18
aF0.611
aI0
aI0
aF0.0
aI3
aI6
aF0.5
aI6
aI4
aI10
aI1
aI1
aI0
aI2
aI2
aI25
aI-4
aa(lp214
V0021000583
p215
aVJAN 14, 2011
p216
aVUTA vs. CLE
p217
aVW
p218
aI29
aI7
aI14
aF0.5
aI0
aI0
aF0.0
aI1
aI1
aF1.0
aI3
aI4
aI7
aI2
aI1
aI1
aI0
aI4
aI15
aI17
aa(lp219
V0021000570
p220
aVJAN 12, 2011
p221
aVUTA vs. NYK
p222
aVW
p223
aI30
aI9
aI13
aF0.692
aI0
aI0
aF0.0
aI1
aI2
aF0.5
aI2
aI4
aI6
aI1
aI1
aI3
aI2
aI4
aI19
aI-8
aa(lp224
V0021000543
p225
aVJAN 08, 2011
p226
aVUTA @ HOU
p227
aVW
p228
aI42
aI11
aI17
aF0.647
aI0
aI0
aF0.0
aI2
aI2
aF1.0
aI3
aI10
aI13
aI1
aI0
aI3
aI0
aI5
aI24
aI5
aa(lp229
V0021000530
p230
aVJAN 07, 2011
p231
aVUTA @ MEM
p232
aVL
p233
aI37
aI5
aI10
aF0.5
aI0
aI0
aF0.0
aI6
aI9
aF0.667
aI5
aI8
aI13
aI4
aI0
aI5
aI0
aI4
aI16
aI-8
aa(lp234
V0021000520
p235
aVJAN 05, 2011
p236
aVUTA vs. ATL
p237
aVL
p238
aI37
aI6
aI17
aF0.353
aI0
aI0
aF0.0
aI1
aI2
aF0.5
aI4
aI3
aI7
aI1
aI0
aI2
aI2
aI3
aI13
aI-20
aa(lp239
V0021000504
p240
aVJAN 03, 2011
p241
aVUTA vs. DET
p242
aVW
p243
aI34
aI7
aI13
aF0.538
aI0
aI0
aF0.0
aI2
aI2
aF1.0
aI3
aI5
aI8
aI0
aI1
aI3
aI2
aI1
aI16
aI-3
aa(lp244
V0021000491
p245
aVJAN 01, 2011
p246
aVUTA vs. MEM
p247
aVW
p248
aI30
aI3
aI12
aF0.25
aI0
aI0
aF0.0
aI5
aI10
aF0.5
aI1
aI3
aI4
aI2
aI1
aI2
aI0
aI5
aI11
aI-2
aa(lp249
V0021000475
p250
aVDEC 30, 2010
p251
aVUTA @ POR
p252
aVL
p253
aI30
aI5
aI9
aF0.556
aI0
aI0
aF0.0
aI3
aI4
aF0.75
aI4
aI6
aI10
aI1
aI1
aI1
aI1
aI5
aI13
aI-13
aa(lp254
V0021000472
p255
aVDEC 29, 2010
p256
aVUTA @ LAC
p257
aVW
p258
aI39
aI13
aI22
aF0.591
aI0
aI0
aF0.0
aI5
aI5
aF1.0
aI2
aI8
aI10
aI2
aI0
aI3
aI0
aI3
aI31
aI-1
aa(lp259
V0021000452
p260
aVDEC 27, 2010
p261
aVUTA vs. POR
p262
aVL
p263
aI33
aI5
aI12
aF0.417
aI0
aI0
aF0.0
aI1
aI1
aF1.0
aI3
aI6
aI9
aI3
aI0
aI1
aI4
aI2
aI11
aI-7
aa(lp264
V0021000426
p265
aVDEC 22, 2010
p266
aVUTA @ MIN
p267
aVW
p268
aI41
aI10
aI17
aF0.588
aI0
aI0
aF0.0
aI3
aI7
aF0.429
aI0
aI9
aI9
aI1
aI1
aI7
aI3
aI5
aI23
aI15
aa(lp269
V0021000407
p270
aVDEC 20, 2010
p271
aVUTA @ CLE
p272
aVW
p273
aI38
aI7
aI13
aF0.538
aI0
aI0
aF0.0
aI2
aI4
aF0.5
aI4
aI9
aI13
aI2
aI0
aI1
aI1
aI2
aI16
aI-1
aa(lp274
V0021000396
p275
aVDEC 18, 2010
p276
aVUTA @ MIL
p277
aVW
p278
aI34
aI7
aI15
aF0.467
aI0
aI0
aF0.0
aI4
aI5
aF0.8
aI3
aI6
aI9
aI2
aI1
aI2
aI2
aI3
aI18
aI21
aa(lp279
V0021000387
p280
aVDEC 17, 2010
p281
aVUTA @ NOH
p282
aVL
p283
aI29
aI5
aI13
aF0.385
aI0
aI0
aF0.0
aI0
aI0
aF0.0
aI2
aI1
aI3
aI0
aI1
aI1
aI1
aI3
aI10
aI-14
aa(lp284
V0021000359
p285
aVDEC 13, 2010
p286
aVUTA vs. GSW
p287
aVW
p288
aI34
aI4
aI13
aF0.308
aI0
aI0
aF0.0
aI5
aI5
aF1.0
aI1
aI7
aI8
aI2
aI1
aI6
aI1
aI2
aI13
aI-5
aa(lp289
V0021000346
p290
aVDEC 11, 2010
p291
aVUTA @ DAL
p292
aVL
p293
aI31
aI4
aI14
aF0.286
aI0
aI0
aF0.0
aI0
aI0
aF0.0
aI3
aI6
aI9
aI2
aI1
aI0
aI2
aI0
aI8
aI-15
aa(lp294
V0021000339
p295
aVDEC 10, 2010
p296
aVUTA vs. ORL
p297
aVW
p298
aI42
aI7
aI13
aF0.538
aI0
aI0
aF0.0
aI2
aI2
aF1.0
aI1
aI7
aI8
aI3
aI2
aI3
aI0
aI3
aI16
aI10
aa(lp299
V0021000324
p300
aVDEC 08, 2010
p301
aVUTA vs. MIA
p302
aVL
p303
aI41
aI9
aI19
aF0.474
aI0
aI0
aF0.0
aI7
aI7
aF1.0
aI5
aI6
aI11
aI3
aI1
aI1
aI1
aI2
aI25
aI-13
aa(lp304
V0021000307
p305
aVDEC 06, 2010
p306
aVUTA vs. MEM
p307
aVW
p308
aI38
aI5
aI13
aF0.385
aI0
aI0
aF0.0
aI2
aI2
aF1.0
aI1
aI9
aI10
aI1
aI0
aI1
aI2
aI5
aI12
aI3
aa(lp309
V0021000286
p310
aVDEC 03, 2010
p311
aVUTA vs. DAL
p312
aVL
p313
aI37
aI8
aI20
aF0.4
aI0
aI0
aF0.0
aI2
aI3
aF0.667
aI3
aI5
aI8
aI4
aI1
aI2
aI2
aI2
aI18
aI-4
aa(lp314
V0021000271
p315
aVDEC 01, 2010
p316
aVUTA vs. IND
p317
aVW
p318
aI31
aI8
aI17
aF0.471
aI0
aI0
aF0.0
aI1
aI1
aF1.0
aI2
aI8
aI10
aI3
aI0
aI2
aI1
aI2
aI17
aI6
aa(lp319
V0021000253
p320
aVNOV 29, 2010
p321
aVUTA vs. MIL
p322
aVW
p323
aI31
aI11
aI14
aF0.786
aI0
aI0
aF0.0
aI0
aI0
aF0.0
aI3
aI8
aI11
aI0
aI0
aI4
aI2
aI3
aI22
aI22
aa(lp324
V0021000245
p325
aVNOV 28, 2010
p326
aVUTA @ LAC
p327
aVW
p328
aI29
aI4
aI10
aF0.4
aI0
aI0
aF0.0
aI2
aI4
aF0.5
aI1
aI3
aI4
aI3
aI1
aI3
aI1
aI3
aI10
aI1
aa(lp329
V0021000231
p330
aVNOV 26, 2010
p331
aVUTA vs. LAL
p332
aVW
p333
aI41
aI9
aI18
aF0.5
aI0
aI0
aF0.0
aI2
aI2
aF1.0
aI2
aI6
aI8
aI1
aI1
aI0
aI0
aI3
aI20
aI14
aa(lp334
V0021000219
p335
aVNOV 24, 2010
p336
aVUTA vs. NOH
p337
aVW
p338
aI34
aI10
aI16
aF0.625
aI0
aI0
aF0.0
aI3
aI3
aF1.0
aI1
aI9
aI10
aI2
aI0
aI1
aI1
aI1
aI23
aI7
aa(lp339
V0021000200
p340
aVNOV 22, 2010
p341
aVUTA vs. SAC
p342
aVW
p343
aI35
aI7
aI18
aF0.389
aI0
aI0
aF0.0
aI5
aI6
aF0.833
aI3
aI5
aI8
aI3
aI0
aI2
aI0
aI2
aI19
aI5
aa(lp344
V0021000189
p345
aVNOV 20, 2010
p346
aVUTA @ POR
p347
aVW
p348
aI41
aI8
aI13
aF0.615
aI0
aI0
aF0.0
aI4
aI4
aF1.0
aI0
aI14
aI14
aI2
aI1
aI2
aI1
aI1
aI20
aI15
aa(lp349
V0021000178
p350
aVNOV 19, 2010
p351
aVUTA vs. SAS
p352
aVL
p353
aI29
aI4
aI7
aF0.571
aI0
aI0
aF0.0
aI2
aI2
aF1.0
aI1
aI5
aI6
aI1
aI0
aI0
aI2
aI6
aI10
aI-18
aa(lp354
V0021000165
p355
aVNOV 17, 2010
p356
aVUTA vs. NJN
p357
aVW
p358
aI35
aI7
aI15
aF0.467
aI0
aI0
aF0.0
aI2
aI2
aF1.0
aI1
aI8
aI9
aI1
aI0
aI3
aI0
aI3
aI16
aI4
aa(lp359
V0021000148
p360
aVNOV 15, 2010
p361
aVUTA vs. OKC
p362
aVL
p363
aI37
aI5
aI14
aF0.357
aI0
aI0
aF0.0
aI2
aI2
aF1.0
aI1
aI4
aI5
aI1
aI0
aI0
aI3
aI1
aI12
aI-9
aa(lp364
V0021000130
p365
aVNOV 13, 2010
p366
aVUTA @ CHA
p367
aVW
p368
aI31
aI8
aI13
aF0.615
aI0
aI0
aF0.0
aI3
aI3
aF1.0
aI2
aI4
aI6
aI1
aI1
aI3
aI0
aI0
aI19
aI-6
aa(lp369
V0021000121
p370
aVNOV 12, 2010
p371
aVUTA @ ATL
p372
aVW
p373
aI35
aI7
aI15
aF0.467
aI0
aI0
aF0.0
aI1
aI2
aF0.5
aI2
aI8
aI10
aI5
aI0
aI0
aI0
aI2
aI15
aI-9
aa(lp374
V0021000109
p375
aVNOV 10, 2010
p376
aVUTA @ ORL
p377
aVW
p378
aI39
aI10
aI16
aF0.625
aI0
aI0
aF0.0
aI1
aI1
aF1.0
aI3
aI5
aI8
aI0
aI0
aI1
aI5
aI3
aI21
aI-2
aa(lp379
V0021000103
p380
aVNOV 09, 2010
p381
aVUTA @ MIA
p382
aVW
p383
aI28
aI1
aI7
aF0.143
aI0
aI0
aF0.0
aI0
aI0
aF0.0
aI1
aI8
aI9
aI2
aI1
aI1
aI0
aI3
aI2
aI-10
aa(lp384
V0021000086
p385
aVNOV 06, 2010
p386
aVUTA vs. LAC
p387
aVW
p388
aI51
aI7
aI20
aF0.35
aI0
aI0
aF0.0
aI4
aI6
aF0.667
aI4
aI6
aI10
aI3
aI0
aI3
aI3
aI4
aI18
aI3
aa(lp389
V0021000078
p390
aVNOV 05, 2010
p391
aVUTA @ GSW
p392
aVL
p393
aI36
aI6
aI14
aF0.429
aI0
aI0
aF0.0
aI4
aI6
aF0.667
aI3
aI12
aI15
aI0
aI0
aI1
aI2
aI3
aI16
aI-16
aa(lp394
V0021000061
p395
aVNOV 03, 2010
p396
aVUTA vs. TOR
p397
aVW
p398
aI40
aI12
aI20
aF0.6
aI0
aI0
aF0.0
aI3
aI3
aF1.0
aI4
aI2
aI6
aI2
aI0
aI1
aI0
aI4
aI27
aI18
aa(lp399
V0021000042
p400
aVOCT 31, 2010
p401
aVUTA @ OKC
p402
aVW
p403
aI41
aI6
aI14
aF0.429
aI0
aI0
aF0.0
aI11
aI12
aF0.917
aI2
aI8
aI10
aI1
aI1
aI1
aI2
aI4
aI23
aI20
aa(lp404
V0021000018
p405
aVOCT 28, 2010
p406
aVUTA vs. PHX
p407
aVL
p408
aI37
aI8
aI18
aF0.444
aI0
aI0
aF0.0
aI4
aI7
aF0.571
aI2
aI7
aI9
aI0
aI0
aI0
aI0
aI3
aI20
aI-14
aa(lp409
V0021000014
p410
aVOCT 27, 2010
p411
aVUTA @ DEN
p412
aVL
p413
aI31
aI2
aI6
aF0.333
aI0
aI0
aF0.0
aI2
aI2
aF1.0
aI1
aI6
aI7
aI0
aI0
aI3
aI1
aI2
aI6
aI-17
aasS'name'
p414
VAl Jefferson
p415
sS'experience'
p416
I6
s.