(dp0
S'age'
p1
I36
sS'stats'
p2
(lp3
(lp4
V0021000003
p5
aVOCT 26, 2010
p6
aVLAL vs. HOU
p7
aVW
p8
aI23
aI1
aI7
aF0.143
aI0
aI1
aF0.0
aI0
aI0
aF0.0
aI0
aI3
aI3
aI2
aI0
aI0
aI0
aI2
aI2
aI-8
aa(lp9
V0021000030
p10
aVOCT 29, 2010
p11
aVLAL @ PHX
p12
aVW
p13
aI29
aI4
aI9
aF0.444
aI1
aI2
aF0.5
aI2
aI2
aF1.0
aI0
aI3
aI3
aI0
aI1
aI0
aI1
aI2
aI11
aI-2
aa(lp14
V0021000043
p15
aVOCT 31, 2010
p16
aVLAL vs. GSW
p17
aVW
p18
aI25
aI5
aI6
aF0.833
aI1
aI1
aF1.0
aI3
aI3
aF1.0
aI0
aI1
aI1
aI3
aI0
aI0
aI2
aI2
aI14
aI18
aa(lp19
V0021000053
p20
aVNOV 02, 2010
p21
aVLAL vs. MEM
p22
aVW
p23
aI23
aI2
aI6
aF0.333
aI2
aI3
aF0.667
aI2
aI2
aF1.0
aI0
aI1
aI1
aI4
aI2
aI0
aI0
aI3
aI8
aI13
aa(lp24
V0021000065
p25
aVNOV 03, 2010
p26
aVLAL @ SAC
p27
aVW
p28
aI31
aI3
aI5
aF0.6
aI2
aI3
aF0.667
aI3
aI5
aF0.6
aI0
aI4
aI4
aI2
aI1
aI0
aI0
aI3
aI11
aI24
aa(lp29
V0021000079
p30
aVNOV 05, 2010
p31
aVLAL vs. TOR
p32
aVW
p33
aI30
aI4
aI7
aF0.571
aI1
aI1
aF1.0
aI2
aI2
aF1.0
aI0
aI2
aI2
aI2
aI4
aI0
aI2
aI2
aI11
aI-2
aa(lp34
V0021000094
p35
aVNOV 07, 2010
p36
aVLAL vs. POR
p37
aVW
p38
aI26
aI3
aI7
aF0.429
aI1
aI1
aF1.0
aI5
aI6
aF0.833
aI0
aI1
aI1
aI4
aI1
aI1
aI1
aI3
aI12
aI16
aa(lp39
V0021000107
p40
aVNOV 09, 2010
p41
aVLAL vs. MIN
p42
aVW
p43
aI34
aI1
aI6
aF0.167
aI0
aI2
aF0.0
aI0
aI0
aF0.0
aI0
aI4
aI4
aI4
aI2
aI0
aI1
aI1
aI2
aI-1
aa(lp44
V0021000120
p45
aVNOV 11, 2010
p46
aVLAL @ DEN
p47
aVL
p48
aI32
aI3
aI7
aF0.429
aI2
aI4
aF0.5
aI0
aI0
aF0.0
aI0
aI1
aI1
aI4
aI2
aI0
aI0
aI1
aI8
aI5
aa(lp49
V0021000143
p50
aVNOV 14, 2010
p51
aVLAL vs. PHX
p52
aVL
p53
aI28
aI2
aI6
aF0.333
aI2
aI4
aF0.5
aI0
aI0
aF0.0
aI0
aI0
aI0
aI3
aI0
aI0
aI0
aI3
aI6
aI-8
aa(lp54
V0021000155
p55
aVNOV 16, 2010
p56
aVLAL @ MIL
p57
aVW
p58
aI25
aI3
aI7
aF0.429
aI2
aI2
aF1.0
aI2
aI2
aF1.0
aI0
aI1
aI1
aI2
aI1
aI0
aI4
aI0
aI10
aI1
aa(lp59
V0021000161
p60
aVNOV 17, 2010
p61
aVLAL @ DET
p62
aVW
p63
aI27
aI2
aI5
aF0.4
aI1
aI1
aF1.0
aI0
aI0
aF0.0
aI1
aI0
aI1
aI7
aI0
aI0
aI0
aI0
aI5
aI26
aa(lp64
V0021000176
p65
aVNOV 19, 2010
p66
aVLAL @ MIN
p67
aVW
p68
aI27
aI5
aI5
aF1.0
aI2
aI2
aF1.0
aI0
aI0
aF0.0
aI0
aI1
aI1
aI2
aI4
aI0
aI1
aI2
aI12
aI8
aa(lp69
V0021000194
p70
aVNOV 21, 2010
p71
aVLAL vs. GSW
p72
aVW
p73
aI23
aI4
aI6
aF0.667
aI0
aI2
aF0.0
aI0
aI0
aF0.0
aI0
aI2
aI2
aI4
aI3
aI0
aI2
aI1
aI8
aI20
aa(lp74
V0021000208
p75
aVNOV 23, 2010
p76
aVLAL vs. CHI
p77
aVW
p78
aI24
aI0
aI6
aF0.0
aI0
aI2
aF0.0
aI4
aI4
aF1.0
aI1
aI1
aI2
aI0
aI2
aI0
aI1
aI1
aI4
aI-1
aa(lp79
V0021000231
p80
aVNOV 26, 2010
p81
aVLAL @ UTA
p82
aVL
p83
aI29
aI1
aI7
aF0.143
aI0
aI2
aF0.0
aI2
aI2
aF1.0
aI0
aI2
aI2
aI0
aI0
aI0
aI1
aI5
aI4
aI3
aa(lp84
V0021000249
p85
aVNOV 28, 2010
p86
aVLAL vs. IND
p87
aVL
p88
aI21
aI2
aI8
aF0.25
aI0
aI3
aF0.0
aI2
aI2
aF1.0
aI0
aI1
aI1
aI5
aI2
aI0
aI0
aI3
aI6
aI-6
aa(lp89
V0021000258
p90
aVNOV 30, 2010
p91
aVLAL @ MEM
p92
aVL
p93
aI29
aI4
aI6
aF0.667
aI0
aI0
aF0.0
aI0
aI0
aF0.0
aI0
aI1
aI1
aI2
aI1
aI0
aI2
aI4
aI8
aI-8
aa(lp94
V0021000269
p95
aVDEC 01, 2010
p96
aVLAL @ HOU
p97
aVL
p98
aI27
aI2
aI9
aF0.222
aI1
aI2
aF0.5
aI0
aI0
aF0.0
aI0
aI0
aI0
aI1
aI0
aI0
aI2
aI4
aI5
aI-13
aa(lp99
V0021000287
p100
aVDEC 03, 2010
p101
aVLAL vs. SAC
p102
aVW
p103
aI19
aI2
aI4
aF0.5
aI0
aI0
aF0.0
aI1
aI1
aF1.0
aI0
aI4
aI4
aI3
aI1
aI0
aI0
aI4
aI5
aI26
aa(lp104
V0021000315
p105
aVDEC 07, 2010
p106
aVLAL vs. WAS
p107
aVW
p108
aI31
aI3
aI11
aF0.273
aI1
aI4
aF0.25
aI1
aI1
aF1.0
aI2
aI4
aI6
aI7
aI2
aI0
aI0
aI3
aI8
aI18
aa(lp109
V0021000326
p110
aVDEC 08, 2010
p111
aVLAL @ LAC
p112
aVW
p113
aI24
aI3
aI6
aF0.5
aI0
aI1
aF0.0
aI0
aI0
aF0.0
aI0
aI4
aI4
aI2
aI2
aI0
aI1
aI4
aI6
aI8
aa(lp114
V0021000333
p115
aVDEC 10, 2010
p116
aVLAL @ CHI
p117
aVL
p118
aI30
aI2
aI8
aF0.25
aI1
aI3
aF0.333
aI2
aI2
aF1.0
aI0
aI4
aI4
aI1
aI3
aI0
aI3
aI3
aI7
aI5
aa(lp119
V0021000351
p120
aVDEC 12, 2010
p121
aVLAL @ NJN
p122
aVW
p123
aI29
aI3
aI6
aF0.5
aI0
aI0
aF0.0
aI4
aI4
aF1.0
aI0
aI4
aI4
aI1
aI1
aI0
aI2
aI3
aI10
aI10
aa(lp124
V0021000362
p125
aVDEC 14, 2010
p126
aVLAL @ WAS
p127
aVW
p128
aI26
aI3
aI7
aF0.429
aI0
aI2
aF0.0
aI0
aI0
aF0.0
aI0
aI1
aI1
aI3
aI1
aI0
aI0
aI1
aI6
aI8
aa(lp129
V0021000367
p130
aVDEC 15, 2010
p131
aVLAL @ IND
p132
aVW
p133
aI19
aI1
aI5
aF0.2
aI1
aI1
aF1.0
aI0
aI0
aF0.0
aI0
aI0
aI0
aI2
aI0
aI0
aI0
aI1
aI3
aI13
aa(lp134
V0021000383
p135
aVDEC 17, 2010
p136
aVLAL @ PHI
p137
aVW
p138
aI30
aI4
aI10
aF0.4
aI0
aI2
aF0.0
aI0
aI0
aF0.0
aI0
aI3
aI3
aI3
aI1
aI0
aI1
aI4
aI8
aI-2
aa(lp139
V0021000402
p140
aVDEC 19, 2010
p141
aVLAL @ TOR
p142
aVW
p143
aI29
aI2
aI8
aF0.25
aI1
aI4
aF0.25
aI2
aI4
aF0.5
aI1
aI1
aI2
aI2
aI4
aI0
aI1
aI3
aI7
aI5
aa(lp144
V0021000420
p145
aVDEC 21, 2010
p146
aVLAL vs. MIL
p147
aVL
p148
aI28
aI1
aI6
aF0.167
aI0
aI1
aF0.0
aI0
aI0
aF0.0
aI0
aI2
aI2
aI1
aI3
aI0
aI2
aI4
aI2
aI-11
aa(lp149
V0021000435
p150
aVDEC 25, 2010
p151
aVLAL vs. MIA
p152
aVL
p153
aI25
aI2
aI3
aF0.667
aI2
aI3
aF0.667
aI0
aI0
aF0.0
aI0
aI2
aI2
aI3
aI2
aI0
aI1
aI3
aI6
aI-8
aa(lp154
V0021000460
p155
aVDEC 28, 2010
p156
aVLAL @ SAS
p157
aVL
p158
aI25
aI1
aI4
aF0.25
aI0
aI1
aF0.0
aI0
aI0
aF0.0
aI0
aI4
aI4
aI3
aI2
aI0
aI3
aI4
aI2
aI-21
aa(lp159
V0021000467
p160
aVDEC 29, 2010
p161
aVLAL @ NOH
p162
aVW
p163
aI31
aI4
aI6
aF0.667
aI1
aI2
aF0.5
aI0
aI0
aF0.0
aI0
aI2
aI2
aI8
aI3
aI0
aI2
aI2
aI9
aI21
aa(lp164
V0021000483
p165
aVDEC 31, 2010
p166
aVLAL vs. PHI
p167
aVW
p168
aI28
aI0
aI7
aF0.0
aI0
aI1
aF0.0
aI1
aI2
aF0.5
aI0
aI1
aI1
aI4
aI1
aI1
aI1
aI3
aI1
aI11
aa(lp169
V0021000498
p170
aVJAN 02, 2011
p171
aVLAL vs. MEM
p172
aVL
p173
aI23
aI2
aI6
aF0.333
aI1
aI2
aF0.5
aI0
aI0
aF0.0
aI0
aI1
aI1
aI1
aI0
aI1
aI0
aI2
aI5
aI-7
aa(lp174
V0021000511
p175
aVJAN 04, 2011
p176
aVLAL vs. DET
p177
aVW
p178
aI24
aI3
aI6
aF0.5
aI1
aI1
aF1.0
aI0
aI0
aF0.0
aI0
aI1
aI1
aI0
aI1
aI0
aI1
aI2
aI7
aI16
aa(lp179
V0021000521
p180
aVJAN 05, 2011
p181
aVLAL @ PHX
p182
aVW
p183
aI27
aI2
aI7
aF0.286
aI0
aI2
aF0.0
aI0
aI0
aF0.0
aI0
aI0
aI0
aI1
aI2
aI0
aI1
aI2
aI4
aI2
aa(lp184
V0021000535
p185
aVJAN 07, 2011
p186
aVLAL vs. NOH
p187
aVW
p188
aI29
aI1
aI5
aF0.2
aI0
aI0
aF0.0
aI0
aI0
aF0.0
aI0
aI1
aI1
aI6
aI3
aI0
aI2
aI3
aI2
aI1
aa(lp189
V0021000550
p190
aVJAN 09, 2011
p191
aVLAL vs. NYK
p192
aVW
p193
aI29
aI2
aI4
aF0.5
aI1
aI2
aF0.5
aI0
aI0
aF0.0
aI0
aI1
aI1
aI2
aI1
aI0
aI0
aI3
aI5
aI25
aa(lp194
V0021000560
p195
aVJAN 11, 2011
p196
aVLAL vs. CLE
p197
aVW
p198
aI25
aI4
aI6
aF0.667
aI2
aI3
aF0.667
aI0
aI0
aF0.0
aI1
aI3
aI4
aI2
aI3
aI0
aI1
aI1
aI10
aI46
aa(lp199
V0021000571
p200
aVJAN 12, 2011
p201
aVLAL @ GSW
p202
aVW
p203
aI35
aI1
aI6
aF0.167
aI0
aI3
aF0.0
aI0
aI0
aF0.0
aI0
aI2
aI2
aI6
aI2
aI0
aI0
aI2
aI2
aI4
aa(lp204
V0021000586
p205
aVJAN 14, 2011
p206
aVLAL vs. NJN
p207
aVW
p208
aI30
aI1
aI4
aF0.25
aI1
aI3
aF0.333
aI3
aI4
aF0.75
aI0
aI0
aI0
aI2
aI0
aI0
aI0
aI0
aI6
aI6
aa(lp209
V0021000596
p210
aVJAN 16, 2011
p211
aVLAL @ LAC
p212
aVL
p213
aI30
aI1
aI8
aF0.125
aI0
aI4
aF0.0
aI0
aI0
aF0.0
aI0
aI3
aI3
aI2
aI0
aI0
aI0
aI3
aI2
aI-5
aa(lp214
V0021000610
p215
aVJAN 17, 2011
p216
aVLAL vs. OKC
p217
aVW
p218
aI31
aI5
aI10
aF0.5
aI2
aI3
aF0.667
aI3
aI3
aF1.0
aI0
aI2
aI2
aI3
aI2
aI0
aI2
aI1
aI15
aI13
aa(lp219
V0021000621
p220
aVJAN 19, 2011
p221
aVLAL @ DAL
p222
aVL
p223
aI25
aI4
aI6
aF0.667
aI1
aI1
aF1.0
aI0
aI0
aF0.0
aI0
aI3
aI3
aI2
aI0
aI1
aI0
aI0
aI9
aI-5
aa(lp224
V0021000637
p225
aVJAN 21, 2011
p226
aVLAL @ DEN
p227
aVW
p228
aI26
aI1
aI5
aF0.2
aI1
aI4
aF0.25
aI0
aI0
aF0.0
aI0
aI3
aI3
aI6
aI0
aI0
aI0
aI2
aI3
aI4
aa(lp229
V0021000667
p230
aVJAN 25, 2011
p231
aVLAL vs. UTA
p232
aVW
p233
aI23
aI2
aI3
aF0.667
aI2
aI2
aF1.0
aI2
aI2
aF1.0
aI0
aI1
aI1
aI2
aI1
aI0
aI0
aI2
aI8
aI16
aa(lp234
V0021000692
p235
aVJAN 28, 2011
p236
aVLAL vs. SAC
p237
aVL
p238
aI20
aI2
aI5
aF0.4
aI0
aI2
aF0.0
aI0
aI0
aF0.0
aI0
aI2
aI2
aI2
aI0
aI0
aI0
aI4
aI4
aI-16
aa(lp239
V0021000702
p240
aVJAN 30, 2011
p241
aVLAL vs. BOS
p242
aVL
p243
aI29
aI1
aI6
aF0.167
aI0
aI0
aF0.0
aI3
aI3
aF1.0
aI0
aI1
aI1
aI2
aI4
aI0
aI1
aI3
aI5
aI-11
aa(lp244
V0021000718
p245
aVFEB 01, 2011
p246
aVLAL vs. HOU
p247
aVW
p248
aI34
aI3
aI4
aF0.75
aI2
aI2
aF1.0
aI3
aI5
aF0.6
aI0
aI1
aI1
aI2
aI3
aI1
aI3
aI2
aI11
aI7
aa(lp249
V0021000732
p250
aVFEB 03, 2011
p251
aVLAL vs. SAS
p252
aVL
p253
aI24
aI1
aI5
aF0.2
aI0
aI1
aF0.0
aI0
aI0
aF0.0
aI0
aI1
aI1
aI2
aI1
aI1
aI0
aI3
aI2
aI-14
aa(lp254
V0021000748
p255
aVFEB 05, 2011
p256
aVLAL @ NOH
p257
aVW
p258
aI31
aI1
aI5
aF0.2
aI1
aI4
aF0.25
aI0
aI0
aF0.0
aI0
aI1
aI1
aI2
aI2
aI0
aI0
aI2
aI3
aI6
aa(lp259
V0021000759
p260
aVFEB 07, 2011
p261
aVLAL @ MEM
p262
aVW
p263
aI33
aI4
aI7
aF0.571
aI2
aI3
aF0.667
aI0
aI0
aF0.0
aI0
aI2
aI2
aI4
aI2
aI0
aI1
aI2
aI10
aI3
aa(lp264
V0021000783
p265
aVFEB 10, 2011
p266
aVLAL @ BOS
p267
aVW
p268
aI31
aI2
aI6
aF0.333
aI1
aI2
aF0.5
aI2
aI2
aF1.0
aI1
aI0
aI1
aI5
aI0
aI0
aI2
aI3
aI7
aI13
aa(lp269
V0021000793
p270
aVFEB 11, 2011
p271
aVLAL @ NYK
p272
aVW
p273
aI25
aI0
aI1
aF0.0
aI0
aI0
aF0.0
aI0
aI0
aF0.0
aI0
aI3
aI3
aI1
aI0
aI0
aI0
aI3
aI0
aI6
aa(lp274
V0021000805
p275
aVFEB 13, 2011
p276
aVLAL @ ORL
p277
aVL
p278
aI27
aI2
aI7
aF0.286
aI0
aI2
aF0.0
aI0
aI0
aF0.0
aI0
aI1
aI1
aI4
aI0
aI0
aI0
aI0
aI4
aI-11
aa(lp279
V0021000812
p280
aVFEB 14, 2011
p281
aVLAL @ CHA
p282
aVL
p283
aI26
aI3
aI4
aF0.75
aI0
aI1
aF0.0
aI0
aI0
aF0.0
aI0
aI1
aI1
aI2
aI0
aI0
aI0
aI3
aI6
aI-7
aa(lp284
V0021000827
p285
aVFEB 16, 2011
p286
aVLAL @ CLE
p287
aVL
p288
aI33
aI8
aI12
aF0.667
aI3
aI4
aF0.75
aI0
aI0
aF0.0
aI0
aI1
aI1
aI1
aI1
aI0
aI1
aI5
aI19
aI-14
aa(lp289
V0021000846
p290
aVFEB 22, 2011
p291
aVLAL vs. ATL
p292
aVW
p293
aI24
aI3
aI7
aF0.429
aI0
aI0
aF0.0
aI4
aI4
aF1.0
aI0
aI4
aI4
aI2
aI1
aI0
aI0
aI0
aI10
aI23
aa(lp294
V0021000858
p295
aVFEB 23, 2011
p296
aVLAL @ POR
p297
aVW
p298
aI33
aI2
aI4
aF0.5
aI2
aI4
aF0.5
aI0
aI0
aF0.0
aI0
aI0
aI0
aI2
aI0
aI0
aI0
aI2
aI6
aI25
aa(lp299
V0021000871
p300
aVFEB 25, 2011
p301
aVLAL vs. LAC
p302
aVW
p303
aI23
aI4
aI7
aF0.571
aI0
aI0
aF0.0
aI0
aI0
aF0.0
aI0
aI3
aI3
aI4
aI0
aI0
aI0
aI3
aI8
aI12
aa(lp304
V0021000880
p305
aVFEB 27, 2011
p306
aVLAL @ OKC
p307
aVW
p308
aI30
aI3
aI8
aF0.375
aI0
aI3
aF0.0
aI0
aI0
aF0.0
aI0
aI1
aI1
aI3
aI0
aI0
aI2
aI0
aI6
aI0
aa(lp309
V0021000900
p310
aVMAR 01, 2011
p311
aVLAL @ MIN
p312
aVW
p313
aI30
aI2
aI9
aF0.222
aI1
aI2
aF0.5
aI4
aI4
aF1.0
aI0
aI1
aI1
aI0
aI1
aI0
aI0
aI3
aI9
aI2
aa(lp314
V0021000924
p315
aVMAR 04, 2011
p316
aVLAL vs. CHA
p317
aVW
p318
aI18
aI1
aI6
aF0.167
aI0
aI2
aF0.0
aI0
aI0
aF0.0
aI0
aI2
aI2
aI2
aI0
aI0
aI0
aI3
aI2
aI4
aa(lp319
V0021000932
p320
aVMAR 06, 2011
p321
aVLAL @ SAS
p322
aVW
p323
aI27
aI3
aI7
aF0.429
aI2
aI3
aF0.667
aI0
aI0
aF0.0
aI1
aI2
aI3
aI3
aI0
aI0
aI1
aI3
aI8
aI21
aa(lp324
V0021000947
p325
aVMAR 08, 2011
p326
aVLAL @ ATL
p327
aVW
p328
aI32
aI4
aI8
aF0.5
aI1
aI2
aF0.5
aI2
aI2
aF1.0
aI1
aI1
aI2
aI3
aI1
aI0
aI1
aI1
aI11
aI20
aa(lp329
V0021000964
p330
aVMAR 10, 2011
p331
aVLAL @ MIA
p332
aVL
p333
aI33
aI2
aI5
aF0.4
aI1
aI1
aF1.0
aI1
aI2
aF0.5
aI0
aI0
aI0
aI4
aI1
aI0
aI3
aI1
aI6
aI5
aa(lp334
V0021000982
p335
aVMAR 12, 2011
p336
aVLAL @ DAL
p337
aVW
p338
aI21
aI0
aI6
aF0.0
aI0
aI1
aF0.0
aI0
aI0
aF0.0
aI0
aI0
aI0
aI1
aI0
aI0
aI0
aI3
aI0
aI-2
aa(lp339
V0021000999
p340
aVMAR 14, 2011
p341
aVLAL vs. ORL
p342
aVW
p343
aI31
aI6
aI9
aF0.667
aI2
aI2
aF1.0
aI1
aI3
aF0.333
aI0
aI0
aI0
aI2
aI2
aI0
aI0
aI1
aI15
aI5
aa(lp344
V0021001028
p345
aVMAR 18, 2011
p346
aVLAL vs. MIN
p347
aVW
p348
aI30
aI2
aI5
aF0.4
aI0
aI1
aF0.0
aI1
aI2
aF0.5
aI0
aI5
aI5
aI4
aI0
aI0
aI0
aI3
aI5
aI3
aa(lp349
V0021001043
p350
aVMAR 20, 2011
p351
aVLAL vs. POR
p352
aVW
p353
aI24
aI3
aI6
aF0.5
aI0
aI1
aF0.0
aI2
aI2
aF1.0
aI0
aI0
aI0
aI3
aI1
aI1
aI1
aI4
aI8
aI7
aa(lp354
V0021001053
p355
aVMAR 22, 2011
p356
aVLAL vs. PHX
p357
aVW
p358
aI46
aI0
aI7
aF0.0
aI0
aI2
aF0.0
aI2
aI2
aF1.0
aI1
aI2
aI3
aI2
aI4
aI1
aI0
aI2
aI2
aI8
aa(lp359
V0021001080
p360
aVMAR 25, 2011
p361
aVLAL vs. LAC
p362
aVW
p363
aI30
aI3
aI5
aF0.6
aI0
aI0
aF0.0
aI1
aI4
aF0.25
aI0
aI1
aI1
aI3
aI1
aI0
aI1
aI2
aI7
aI16
aa(lp364
V0021001094
p365
aVMAR 27, 2011
p366
aVLAL vs. NOH
p367
aVW
p368
aI27
aI1
aI8
aF0.125
aI0
aI1
aF0.0
aI0
aI0
aF0.0
aI0
aI3
aI3
aI4
aI0
aI0
aI1
aI2
aI2
aI26
aa(lp369
V0021001119
p370
aVMAR 31, 2011
p371
aVLAL vs. DAL
p372
aVW
p373
aI24
aI3
aI5
aF0.6
aI0
aI0
aF0.0
aI0
aI0
aF0.0
aI0
aI1
aI1
aI1
aI1
aI0
aI1
aI5
aI6
aI14
aa(lp374
V0021001132
p375
aVAPR 01, 2011
p376
aVLAL @ UTA
p377
aVW
p378
aI30
aI4
aI6
aF0.667
aI2
aI3
aF0.667
aI5
aI5
aF1.0
aI0
aI3
aI3
aI3
aI0
aI0
aI1
aI2
aI15
aI6
aa(lp379
V0021001139
p380
aVAPR 03, 2011
p381
aVLAL vs. DEN
p382
aVL
p383
aI32
aI2
aI8
aF0.25
aI1
aI4
aF0.25
aI0
aI0
aF0.0
aI0
aI0
aI0
aI3
aI1
aI0
aI2
aI4
aI5
aI1
aa(lp384
V0021001161
p385
aVAPR 05, 2011
p386
aVLAL vs. UTA
p387
aVL
p388
aI31
aI3
aI7
aF0.429
aI0
aI2
aF0.0
aI0
aI3
aF0.0
aI0
aI0
aI0
aI2
aI1
aI0
aI1
aI2
aI6
aI5
aa(lp389
V0021001173
p390
aVAPR 06, 2011
p391
aVLAL @ GSW
p392
aVL
p393
aI31
aI2
aI9
aF0.222
aI0
aI1
aF0.0
aI2
aI3
aF0.667
aI1
aI0
aI1
aI3
aI0
aI0
aI0
aI2
aI6
aI0
aa(lp394
V0021001187
p395
aVAPR 08, 2011
p396
aVLAL @ POR
p397
aVL
p398
aI26
aI3
aI6
aF0.5
aI2
aI4
aF0.5
aI0
aI0
aF0.0
aI2
aI2
aI4
aI3
aI0
aI0
aI1
aI0
aI8
aI-9
aa(lp399
V0021001201
p400
aVAPR 10, 2011
p401
aVLAL vs. OKC
p402
aVL
p403
aI30
aI3
aI8
aF0.375
aI1
aI2
aF0.5
aI0
aI0
aF0.0
aI0
aI1
aI1
aI4
aI3
aI0
aI1
aI3
aI7
aI-10
aa(lp404
V0021001215
p405
aVAPR 12, 2011
p406
aVLAL vs. SAS
p407
aVW
p408
aI36
aI4
aI10
aF0.4
aI1
aI2
aF0.5
aI4
aI4
aF1.0
aI0
aI2
aI2
aI4
aI0
aI0
aI1
aI2
aI13
aI14
aa(lp409
V0021001230
p410
aVAPR 13, 2011
p411
aVLAL @ SAC
p412
aVW
p413
aI39
aI5
aI9
aF0.556
aI1
aI2
aF0.5
aI0
aI0
aF0.0
aI1
aI4
aI5
aI3
aI1
aI0
aI0
aI2
aI11
aI4
aasS'name'
p414
VDerek Fisher
p415
sS'experience'
p416
I14
s.