(dp0
S'stats'
p1
(lp2
(lp3
V0020500012
p4
aVNOV 02, 2005
p5
aVCHA @ CHI
p6
aVL
p7
aI17
aI3
aI10
aF0.3
aI0
aI0
aF0.0
aI0
aI0
aF0.0
aI2
aI1
aI3
aI0
aI0
aI1
aI4
aI4
aI6
aI4
aa(lp8
V0020500021
p9
aVNOV 04, 2005
p10
aVCHA @ PHI
p11
aVW
p12
aI10
aI5
aI9
aF0.556
aI0
aI0
aF0.0
aI1
aI1
aF1.0
aI1
aI1
aI2
aI1
aI0
aI0
aI2
aI4
aI11
aI2
aa(lp13
V0020500033
p14
aVNOV 05, 2005
p15
aVCHA vs. BOS
p16
aVW
p17
aI14
aI3
aI7
aF0.429
aI0
aI0
aF0.0
aI0
aI0
aF0.0
aI2
aI3
aI5
aI1
aI0
aI1
aI3
aI0
aI6
aI-8
aa(lp18
V0020500047
p19
aVNOV 07, 2005
p20
aVCHA vs. UTA
p21
aVL
p22
aI24
aI5
aI14
aF0.357
aI0
aI0
aF0.0
aI3
aI4
aF0.75
aI5
aI3
aI8
aI0
aI2
aI1
aI2
aI4
aI13
aI9
aa(lp23
V0020500061
p24
aVNOV 09, 2005
p25
aVCHA vs. SAS
p26
aVL
p27
aI10
aI0
aI4
aF0.0
aI0
aI0
aF0.0
aI0
aI2
aF0.0
aI1
aI0
aI1
aI0
aI0
aI1
aI0
aI0
aI0
aI-7
aa(lp28
V0020500075
p29
aVNOV 11, 2005
p30
aVCHA vs. DAL
p31
aVL
p32
aI16
aI2
aI4
aF0.5
aI0
aI2
aF0.0
aI6
aI8
aF0.75
aI0
aI5
aI5
aI0
aI0
aI1
aI1
aI3
aI10
aI7
aa(lp33
V0020500083
p34
aVNOV 12, 2005
p35
aVCHA @ MIA
p36
aVL
p37
aI28
aI5
aI9
aF0.556
aI0
aI0
aF0.0
aI8
aI9
aF0.889
aI1
aI4
aI5
aI5
aI5
aI1
aI0
aI1
aI18
aI6
aa(lp38
V0020500099
p39
aVNOV 15, 2005
p40
aVCHA @ ORL
p41
aVL
p42
aI30
aI5
aI11
aF0.455
aI0
aI0
aF0.0
aI5
aI6
aF0.833
aI3
aI7
aI10
aI2
aI1
aI1
aI1
aI3
aI15
aI12
aa(lp43
V0020500111
p44
aVNOV 16, 2005
p45
aVCHA vs. IND
p46
aVW
p47
aI22
aI7
aI11
aF0.636
aI0
aI0
aF0.0
aI1
aI1
aF1.0
aI0
aI8
aI8
aI1
aI2
aI0
aI1
aI3
aI15
aI24
aa(lp48
V0020500121
p49
aVNOV 18, 2005
p50
aVCHA @ IND
p51
aVL
p52
aI23
aI6
aI12
aF0.5
aI0
aI1
aF0.0
aI2
aI3
aF0.667
aI5
aI2
aI7
aI0
aI0
aI0
aI1
aI5
aI14
aI-10
aa(lp53
V0020500135
p54
aVNOV 19, 2005
p55
aVCHA @ MIN
p56
aVL
p57
aI24
aI3
aI8
aF0.375
aI0
aI0
aF0.0
aI0
aI0
aF0.0
aI1
aI6
aI7
aI3
aI0
aI1
aI1
aI2
aI6
aI7
aa(lp58
V0020500158
p59
aVNOV 23, 2005
p60
aVCHA vs. NYK
p61
aVW
p62
aI14
aI1
aI7
aF0.143
aI0
aI1
aF0.0
aI0
aI0
aF0.0
aI5
aI1
aI6
aI1
aI0
aI0
aI2
aI3
aI2
aI-6
aa(lp63
V0020500171
p64
aVNOV 25, 2005
p65
aVCHA @ BOS
p66
aVL
p67
aI15
aI2
aI5
aF0.4
aI0
aI0
aF0.0
aI0
aI0
aF0.0
aI1
aI1
aI2
aI1
aI0
aI0
aI2
aI3
aI4
aI4
aa(lp68
V0020500229
p69
aVDEC 02, 2005
p70
aVCHA @ GSW
p71
aVL
p72
aI9
aI1
aI4
aF0.25
aI0
aI0
aF0.0
aI1
aI2
aF0.5
aI1
aI2
aI3
aI0
aI0
aI1
aI1
aI2
aI3
aI-9
aa(lp73
V0020500244
p74
aVDEC 04, 2005
p75
aVCHA @ LAL
p76
aVL
p77
aI14
aI2
aI3
aF0.667
aI0
aI0
aF0.0
aI3
aI4
aF0.75
aI1
aI4
aI5
aI0
aI0
aI0
aI1
aI0
aI7
aI2
aa(lp78
V0020500261
p79
aVDEC 07, 2005
p80
aVCHA vs. NJN
p81
aVL
p82
aI16
aI1
aI6
aF0.167
aI0
aI0
aF0.0
aI2
aI3
aF0.667
aI2
aI2
aI4
aI0
aI0
aI0
aI0
aI0
aI4
aI-20
aa(lp83
V0020500270
p84
aVDEC 09, 2005
p85
aVCHA @ PHI
p86
aVL
p87
aI20
aI6
aI9
aF0.667
aI0
aI0
aF0.0
aI0
aI0
aF0.0
aI3
aI3
aI6
aI2
aI2
aI2
aI3
aI4
aI12
aI3
aa(lp88
V0020500284
p89
aVDEC 10, 2005
p90
aVCHA vs. TOR
p91
aVL
p92
aI17
aI4
aI8
aF0.5
aI0
aI0
aF0.0
aI4
aI5
aF0.8
aI2
aI2
aI4
aI0
aI1
aI0
aI1
aI5
aI12
aI-16
aa(lp93
V0020500302
p94
aVDEC 13, 2005
p95
aVCHA vs. DEN
p96
aVL
p97
aI23
aI3
aI6
aF0.5
aI0
aI1
aF0.0
aI7
aI8
aF0.875
aI2
aI4
aI6
aI2
aI1
aI0
aI2
aI4
aI13
aI-16
aa(lp98
V0020500310
p99
aVDEC 14, 2005
p100
aVCHA @ NJN
p101
aVW
p102
aI13
aI2
aI6
aF0.333
aI0
aI0
aF0.0
aI0
aI0
aF0.0
aI1
aI2
aI3
aI1
aI0
aI0
aI0
aI0
aI4
aI0
aa(lp103
V0020500335
p104
aVDEC 17, 2005
p105
aVCHA vs. DET
p106
aVL
p107
aI18
aI1
aI7
aF0.143
aI0
aI0
aF0.0
aI5
aI6
aF0.833
aI2
aI3
aI5
aI2
aI0
aI1
aI2
aI1
aI7
aI-6
aa(lp108
V0020500349
p109
aVDEC 19, 2005
p110
aVCHA vs. SAC
p111
aVW
p112
aI10
aI0
aI4
aF0.0
aI0
aI0
aF0.0
aI1
aI2
aF0.5
aI1
aI1
aI2
aI0
aI1
aI0
aI2
aI4
aI1
aI-5
aa(lp113
V0020500357
p114
aVDEC 20, 2005
p115
aVCHA @ CHI
p116
aVW
p117
aI13
aI3
aI7
aF0.429
aI0
aI0
aF0.0
aI0
aI0
aF0.0
aI0
aI2
aI2
aI0
aI2
aI0
aI1
aI3
aI6
aI0
aasS'name'
p118
VSean May
p119
sS'weight'
p120
V266
p121
sS'age'
p122
I21
sS'experience'
p123
I0
sS'height'
p124
V6-9
p125
sS'position'
p126
VCenter-Forward
p127
s.