(dp0
S'age'
p1
I30
sS'stats'
p2
(lp3
(lp4
V0020500004
p5
aVNOV 02, 2005
p6
aVWAS @ TOR
p7
aVW
p8
aI20
aI1
aI4
aF0.25
aI0
aI2
aF0.0
aI0
aI1
aF0.0
aI0
aI1
aI1
aI6
aI0
aI0
aI0
aI1
aI2
aI0
aa(lp9
V0020500024
p10
aVNOV 04, 2005
p11
aVWAS @ NYK
p12
aVW
p13
aI37
aI3
aI7
aF0.429
aI1
aI3
aF0.333
aI1
aI2
aF0.5
aI0
aI2
aI2
aI4
aI1
aI0
aI3
aI2
aI8
aI6
aa(lp14
V0020500031
p15
aVNOV 05, 2005
p16
aVWAS vs. ORL
p17
aVW
p18
aI27
aI2
aI7
aF0.286
aI0
aI1
aF0.0
aI4
aI4
aF1.0
aI0
aI1
aI1
aI4
aI1
aI0
aI1
aI0
aI8
aI-3
aa(lp19
V0020500072
p20
aVNOV 11, 2005
p21
aVWAS vs. SEA
p22
aVW
p23
aI25
aI3
aI5
aF0.6
aI0
aI0
aF0.0
aI4
aI5
aF0.8
aI0
aI0
aI0
aI3
aI2
aI0
aI1
aI1
aI10
aI17
aa(lp24
V0020500081
p25
aVNOV 12, 2005
p26
aVWAS vs. SAS
p27
aVW
p28
aI37
aI3
aI7
aF0.429
aI0
aI1
aF0.0
aI3
aI4
aF0.75
aI0
aI2
aI2
aI3
aI0
aI0
aI1
aI3
aI9
aI7
aa(lp29
V0020500100
p30
aVNOV 15, 2005
p31
aVWAS @ CLE
p32
aVL
p33
aI31
aI3
aI4
aF0.75
aI0
aI0
aF0.0
aI3
aI4
aF0.75
aI0
aI4
aI4
aI4
aI0
aI0
aI0
aI0
aI9
aI-5
aa(lp34
V0020500119
p35
aVNOV 17, 2005
p36
aVWAS @ MIN
p37
aVL
p38
aI34
aI4
aI8
aF0.5
aI0
aI1
aF0.0
aI5
aI5
aF1.0
aI0
aI2
aI2
aI3
aI1
aI0
aI2
aI0
aI13
aI-1
aa(lp39
V0020500134
p40
aVNOV 19, 2005
p41
aVWAS @ NJN
p42
aVL
p43
aI26
aI1
aI4
aF0.25
aI0
aI1
aF0.0
aI0
aI0
aF0.0
aI1
aI0
aI1
aI4
aI1
aI0
aI2
aI0
aI2
aI4
aa(lp44
V0020500150
p45
aVNOV 22, 2005
p46
aVWAS vs. DEN
p47
aVL
p48
aI22
aI0
aI10
aF0.0
aI0
aI2
aF0.0
aI1
aI1
aF1.0
aI0
aI2
aI2
aI3
aI2
aI0
aI2
aI3
aI1
aI0
aa(lp49
V0020500157
p50
aVNOV 23, 2005
p51
aVWAS @ ORL
p52
aVL
p53
aI24
aI3
aI7
aF0.429
aI1
aI3
aF0.333
aI2
aI2
aF1.0
aI0
aI1
aI1
aI2
aI0
aI0
aI0
aI1
aI9
aI-5
aa(lp54
V0020500173
p55
aVNOV 25, 2005
p56
aVWAS @ DET
p57
aVW
p58
aI5
aI0
aI1
aF0.0
aI0
aI1
aF0.0
aI0
aI0
aF0.0
aI0
aI0
aI0
aI0
aI0
aI0
aI0
aI0
aI0
aI-6
aa(lp59
V0020500184
p60
aVNOV 26, 2005
p61
aVWAS @ CHA
p62
aVL
p63
aI16
aI0
aI2
aF0.0
aI0
aI2
aF0.0
aI1
aI2
aF0.5
aI0
aI1
aI1
aI2
aI0
aI0
aI2
aI2
aI1
aI-15
aa(lp64
V0020500207
p65
aVNOV 30, 2005
p66
aVWAS vs. POR
p67
aVW
p68
aI23
aI0
aI5
aF0.0
aI0
aI1
aF0.0
aI2
aI2
aF1.0
aI1
aI1
aI2
aI1
aI1
aI0
aI3
aI0
aI2
aI7
aa(lp69
V0020500219
p70
aVDEC 02, 2005
p71
aVWAS vs. MIL
p72
aVL
p73
aI29
aI0
aI1
aF0.0
aI0
aI1
aF0.0
aI1
aI2
aF0.5
aI0
aI1
aI1
aI7
aI1
aI0
aI1
aI1
aI1
aI-2
aa(lp74
V0020500249
p75
aVDEC 06, 2005
p76
aVWAS vs. TOR
p77
aVW
p78
aI31
aI1
aI4
aF0.25
aI0
aI0
aF0.0
aI3
aI5
aF0.6
aI0
aI2
aI2
aI1
aI1
aI0
aI0
aI1
aI5
aI-3
aa(lp79
V0020500268
p80
aVDEC 08, 2005
p81
aVWAS @ IND
p82
aVL
p83
aI20
aI0
aI4
aF0.0
aI0
aI0
aF0.0
aI0
aI0
aF0.0
aI1
aI1
aI2
aI2
aI0
aI0
aI2
aI1
aI0
aI-19
aa(lp84
V0020500280
p85
aVDEC 10, 2005
p86
aVWAS vs. CHI
p87
aVL
p88
aI4
aI0
aI0
aF0.0
aI0
aI0
aF0.0
aI0
aI0
aF0.0
aI0
aI0
aI0
aI0
aI0
aI0
aI1
aI0
aI0
aI-12
aa(lp89
V0020500291
p90
aVDEC 11, 2005
p91
aVWAS @ MIA
p92
aVL
p93
aI0
aI0
aI0
aF0.0
aI0
aI0
aF0.0
aI0
aI0
aF0.0
aI0
aI0
aI0
aI0
aI0
aI0
aI0
aI0
aI0
aI0
aa(lp94
V0020500300
p95
aVDEC 13, 2005
p96
aVWAS vs. NJN
p97
aVW
p98
aI19
aI2
aI5
aF0.4
aI0
aI1
aF0.0
aI2
aI4
aF0.5
aI0
aI1
aI1
aI0
aI2
aI0
aI0
aI3
aI6
aI-3
aa(lp99
V0020500332
p100
aVDEC 16, 2005
p101
aVWAS @ LAL
p102
aVL
p103
aI15
aI1
aI4
aF0.25
aI0
aI1
aF0.0
aI0
aI0
aF0.0
aI0
aI0
aI0
aI1
aI0
aI0
aI0
aI1
aI2
aI2
aa(lp104
V0020500345
p105
aVDEC 18, 2005
p106
aVWAS @ POR
p107
aVL
p108
aI22
aI3
aI5
aF0.6
aI1
aI2
aF0.5
aI4
aI4
aF1.0
aI0
aI1
aI1
aI1
aI0
aI1
aI1
aI0
aI11
aI7
aa(lp109
V0020500351
p110
aVDEC 19, 2005
p111
aVWAS @ SEA
p112
aVL
p113
aI26
aI3
aI7
aF0.429
aI0
aI1
aF0.0
aI2
aI2
aF1.0
aI0
aI2
aI2
aI5
aI1
aI0
aI1
aI1
aI8
aI-6
aa(lp114
V0020500368
p115
aVDEC 21, 2005
p116
aVWAS @ DEN
p117
aVW
p118
aI27
aI4
aI5
aF0.8
aI0
aI1
aF0.0
aI4
aI4
aF1.0
aI0
aI3
aI3
aI1
aI0
aI0
aI0
aI1
aI12
aI-2
aa(lp119
V0020500383
p120
aVDEC 23, 2005
p121
aVWAS @ PHX
p122
aVW
p123
aI19
aI0
aI2
aF0.0
aI0
aI0
aF0.0
aI2
aI2
aF1.0
aI0
aI4
aI4
aI3
aI0
aI0
aI1
aI0
aI2
aI-13
aa(lp124
V0020500387
p125
aVDEC 26, 2005
p126
aVWAS vs. LAL
p127
aVW
p128
aI12
aI0
aI2
aF0.0
aI0
aI1
aF0.0
aI1
aI2
aF0.5
aI0
aI0
aI0
aI2
aI0
aI0
aI0
aI1
aI1
aI-4
aa(lp129
V0020500406
p130
aVDEC 28, 2005
p131
aVWAS vs. PHX
p132
aVL
p133
aI21
aI3
aI6
aF0.5
aI0
aI0
aF0.0
aI2
aI4
aF0.5
aI0
aI4
aI4
aI0
aI0
aI0
aI1
aI1
aI8
aI3
aa(lp134
V0020500417
p135
aVDEC 30, 2005
p136
aVWAS vs. MIA
p137
aVL
p138
aI13
aI1
aI4
aF0.25
aI0
aI0
aF0.0
aI1
aI1
aF1.0
aI0
aI0
aI0
aI2
aI0
aI0
aI0
aI1
aI3
aI-12
aa(lp139
V0020500441
p140
aVJAN 03, 2006
p141
aVWAS vs. HOU
p142
aVL
p143
aI22
aI2
aI5
aF0.4
aI1
aI3
aF0.333
aI6
aI6
aF1.0
aI0
aI1
aI1
aI4
aI0
aI0
aI0
aI0
aI11
aI6
aa(lp144
V0020500462
p145
aVJAN 06, 2006
p146
aVWAS @ NYK
p147
aVL
p148
aI26
aI0
aI4
aF0.0
aI0
aI2
aF0.0
aI1
aI2
aF0.5
aI0
aI1
aI1
aI3
aI0
aI0
aI3
aI1
aI1
aI-12
aa(lp149
V0020500472
p150
aVJAN 07, 2006
p151
aVWAS vs. BOS
p152
aVW
p153
aI38
aI2
aI9
aF0.222
aI0
aI3
aF0.0
aI1
aI2
aF0.5
aI0
aI5
aI5
aI6
aI1
aI0
aI1
aI3
aI5
aI8
aa(lp154
V0020500487
p155
aVJAN 09, 2006
p156
aVWAS vs. UTA
p157
aVL
p158
aI32
aI5
aI9
aF0.556
aI0
aI0
aF0.0
aI5
aI6
aF0.833
aI0
aI2
aI2
aI3
aI0
aI0
aI2
aI2
aI15
aI4
aa(lp159
V0020500502
p160
aVJAN 11, 2006
p161
aVWAS vs. ATL
p162
aVW
p163
aI27
aI3
aI6
aF0.5
aI0
aI1
aF0.0
aI4
aI7
aF0.571
aI0
aI2
aI2
aI6
aI1
aI0
aI1
aI1
aI10
aI24
aa(lp164
V0020500513
p165
aVJAN 13, 2006
p166
aVWAS @ IND
p167
aVW
p168
aI31
aI3
aI8
aF0.375
aI0
aI1
aF0.0
aI4
aI4
aF1.0
aI0
aI2
aI2
aI1
aI1
aI0
aI0
aI0
aI10
aI7
aa(lp169
V0020500522
p170
aVJAN 14, 2006
p171
aVWAS @ ATL
p172
aVW
p173
aI25
aI4
aI9
aF0.444
aI1
aI1
aF1.0
aI9
aI10
aF0.9
aI0
aI2
aI2
aI4
aI1
aI0
aI0
aI2
aI18
aI14
aa(lp174
V0020500537
p175
aVJAN 16, 2006
p176
aVWAS vs. PHI
p177
aVW
p178
aI26
aI2
aI5
aF0.4
aI2
aI3
aF0.667
aI4
aI4
aF1.0
aI0
aI5
aI5
aI1
aI1
aI0
aI2
aI2
aI10
aI8
aa(lp179
V0020500552
p180
aVJAN 18, 2006
p181
aVWAS @ ORL
p182
aVL
p183
aI29
aI5
aI9
aF0.556
aI0
aI1
aF0.0
aI7
aI9
aF0.778
aI0
aI0
aI0
aI6
aI0
aI0
aI0
aI0
aI17
aI-2
aa(lp184
V0020500565
p185
aVJAN 20, 2006
p186
aVWAS vs. NOK
p187
aVW
p188
aI26
aI4
aI9
aF0.444
aI0
aI3
aF0.0
aI3
aI5
aF0.6
aI0
aI1
aI1
aI4
aI0
aI0
aI0
aI1
aI11
aI-5
aa(lp189
V0020500584
p190
aVJAN 22, 2006
p191
aVWAS vs. MEM
p192
aVL
p193
aI34
aI2
aI8
aF0.25
aI1
aI2
aF0.5
aI3
aI4
aF0.75
aI0
aI1
aI1
aI1
aI0
aI1
aI1
aI0
aI8
aI-9
aa(lp194
V0020500606
p195
aVJAN 25, 2006
p196
aVWAS @ BOS
p197
aVW
p198
aI27
aI3
aI9
aF0.333
aI0
aI1
aF0.0
aI2
aI2
aF1.0
aI1
aI3
aI4
aI5
aI0
aI0
aI1
aI0
aI8
aI6
aa(lp199
V0020500626
p200
aVJAN 27, 2006
p201
aVWAS @ CHI
p202
aVL
p203
aI35
aI4
aI8
aF0.5
aI0
aI2
aF0.0
aI0
aI0
aF0.0
aI0
aI2
aI2
aI4
aI2
aI1
aI1
aI1
aI8
aI5
aa(lp204
V0020500632
p205
aVJAN 28, 2006
p206
aVWAS vs. CHA
p207
aVW
p208
aI28
aI3
aI6
aF0.5
aI0
aI2
aF0.0
aI5
aI5
aF1.0
aI1
aI3
aI4
aI1
aI0
aI0
aI1
aI1
aI11
aI7
aa(lp209
V0020500656
p210
aVJAN 31, 2006
p211
aVWAS vs. IND
p212
aVW
p213
aI33
aI3
aI7
aF0.429
aI1
aI1
aF1.0
aI3
aI5
aF0.6
aI0
aI0
aI0
aI3
aI2
aI0
aI1
aI0
aI10
aI-8
aa(lp214
V0020500661
p215
aVFEB 01, 2006
p216
aVWAS @ TOR
p217
aVL
p218
aI32
aI4
aI9
aF0.444
aI0
aI1
aF0.0
aI3
aI6
aF0.5
aI0
aI4
aI4
aI6
aI2
aI1
aI0
aI1
aI11
aI2
aa(lp219
V0020500685
p220
aVFEB 04, 2006
p221
aVWAS vs. ATL
p222
aVW
p223
aI31
aI1
aI5
aF0.2
aI1
aI1
aF1.0
aI7
aI7
aF1.0
aI1
aI2
aI3
aI5
aI1
aI0
aI2
aI2
aI10
aI-3
aa(lp224
V0020500699
p225
aVFEB 06, 2006
p226
aVWAS vs. ORL
p227
aVW
p228
aI34
aI5
aI8
aF0.625
aI0
aI0
aF0.0
aI6
aI6
aF1.0
aI1
aI5
aI6
aI2
aI0
aI0
aI0
aI1
aI16
aI9
aa(lp229
V0020500712
p230
aVFEB 08, 2006
p231
aVWAS vs. GSW
p232
aVW
p233
aI29
aI2
aI5
aF0.4
aI0
aI2
aF0.0
aI7
aI8
aF0.875
aI0
aI1
aI1
aI3
aI0
aI0
aI1
aI3
aI11
aI14
aa(lp234
V0020500725
p235
aVFEB 10, 2006
p236
aVWAS vs. CLE
p237
aVW
p238
aI26
aI0
aI5
aF0.0
aI0
aI3
aF0.0
aI4
aI4
aF1.0
aI0
aI1
aI1
aI4
aI0
aI0
aI0
aI0
aI4
aI4
aa(lp239
V0020500743
p240
aVFEB 12, 2006
p241
aVWAS vs. PHI
p242
aVW
p243
aI32
aI3
aI9
aF0.333
aI0
aI2
aF0.0
aI11
aI11
aF1.0
aI1
aI3
aI4
aI4
aI1
aI0
aI1
aI5
aI17
aI1
aa(lp244
V0020500753
p245
aVFEB 13, 2006
p246
aVWAS @ NOK
p247
aVL
p248
aI30
aI1
aI10
aF0.1
aI0
aI0
aF0.0
aI3
aI3
aF1.0
aI0
aI5
aI5
aI2
aI1
aI1
aI1
aI0
aI5
aI-2
aa(lp249
V0020500773
p250
aVFEB 15, 2006
p251
aVWAS @ DAL
p252
aVL
p253
aI11
aI0
aI2
aF0.0
aI0
aI2
aF0.0
aI1
aI1
aF1.0
aI0
aI1
aI1
aI1
aI0
aI0
aI1
aI0
aI1
aI-11
aa(lp254
V0020500779
p255
aVFEB 21, 2006
p256
aVWAS vs. MIN
p257
aVW
p258
aI33
aI3
aI7
aF0.429
aI0
aI1
aF0.0
aI3
aI3
aF1.0
aI0
aI3
aI3
aI4
aI0
aI0
aI0
aI0
aI9
aI17
aa(lp259
V0020500805
p260
aVFEB 24, 2006
p261
aVWAS @ CLE
p262
aVW
p263
aI31
aI5
aI7
aF0.714
aI0
aI0
aF0.0
aI0
aI0
aF0.0
aI0
aI1
aI1
aI7
aI2
aI0
aI0
aI2
aI10
aI-8
aa(lp264
V0020500816
p265
aVFEB 25, 2006
p266
aVWAS vs. NYK
p267
aVW
p268
aI25
aI4
aI6
aF0.667
aI1
aI1
aF1.0
aI5
aI5
aF1.0
aI0
aI5
aI5
aI4
aI0
aI0
aI1
aI2
aI14
aI16
aa(lp269
V0020500831
p270
aVFEB 27, 2006
p271
aVWAS @ MEM
p272
aVL
p273
aI32
aI2
aI7
aF0.286
aI0
aI3
aF0.0
aI5
aI6
aF0.833
aI0
aI1
aI1
aI7
aI1
aI0
aI3
aI1
aI9
aI-10
aa(lp274
V0020500843
p275
aVMAR 01, 2006
p276
aVWAS vs. IND
p277
aVL
p278
aI29
aI4
aI9
aF0.444
aI0
aI0
aF0.0
aI3
aI4
aF0.75
aI1
aI3
aI4
aI3
aI1
aI0
aI1
aI0
aI11
aI-3
aa(lp279
V0020500857
p280
aVMAR 03, 2006
p281
aVWAS @ PHI
p282
aVL
p283
aI29
aI5
aI7
aF0.714
aI0
aI0
aF0.0
aI3
aI4
aF0.75
aI1
aI3
aI4
aI0
aI0
aI0
aI1
aI4
aI13
aI5
aa(lp284
V0020500876
p285
aVMAR 05, 2006
p286
aVWAS vs. SAC
p287
aVW
p288
aI29
aI0
aI5
aF0.0
aI0
aI0
aF0.0
aI12
aI12
aF1.0
aI1
aI1
aI2
aI3
aI0
aI0
aI0
aI0
aI12
aI2
aa(lp289
V0020500889
p290
aVMAR 07, 2006
p291
aVWAS vs. BOS
p292
aVL
p293
aI41
aI4
aI8
aF0.5
aI0
aI0
aF0.0
aI6
aI7
aF0.857
aI0
aI3
aI3
aI5
aI1
aI1
aI4
aI1
aI14
aI3
aa(lp294
V0020500900
p295
aVMAR 08, 2006
p296
aVWAS @ MIA
p297
aVL
p298
aI39
aI5
aI6
aF0.833
aI1
aI2
aF0.5
aI8
aI8
aF1.0
aI0
aI5
aI5
aI3
aI0
aI0
aI1
aI2
aI19
aI-8
aa(lp299
V0020500919
p300
aVMAR 11, 2006
p301
aVWAS vs. DET
p302
aVW
p303
aI43
aI5
aI8
aF0.625
aI2
aI2
aF1.0
aI4
aI4
aF1.0
aI0
aI1
aI1
aI7
aI0
aI0
aI1
aI0
aI16
aI26
aa(lp304
V0020500942
p305
aVMAR 14, 2006
p306
aVWAS @ CHA
p307
aVW
p308
aI34
aI1
aI5
aF0.2
aI0
aI1
aF0.0
aI5
aI6
aF0.833
aI0
aI1
aI1
aI6
aI2
aI0
aI1
aI0
aI7
aI11
aa(lp309
V0020500951
p310
aVMAR 15, 2006
p311
aVWAS vs. CHA
p312
aVW
p313
aI31
aI3
aI10
aF0.3
aI1
aI1
aF1.0
aI6
aI7
aF0.857
aI0
aI2
aI2
aI5
aI2
aI0
aI2
aI1
aI13
aI0
aa(lp314
V0020500964
p315
aVMAR 17, 2006
p316
aVWAS vs. DAL
p317
aVL
p318
aI31
aI6
aI11
aF0.545
aI1
aI1
aF1.0
aI4
aI5
aF0.8
aI1
aI1
aI2
aI6
aI1
aI0
aI3
aI1
aI17
aI-2
aa(lp319
V0020500980
p320
aVMAR 19, 2006
p321
aVWAS vs. CHI
p322
aVW
p323
aI33
aI7
aI9
aF0.778
aI1
aI2
aF0.5
aI6
aI7
aF0.857
aI0
aI1
aI1
aI3
aI0
aI1
aI2
aI5
aI21
aI1
aa(lp324
V0020500992
p325
aVMAR 21, 2006
p326
aVWAS vs. NJN
p327
aVL
p328
aI34
aI6
aI11
aF0.545
aI0
aI1
aF0.0
aI6
aI6
aF1.0
aI2
aI2
aI4
aI3
aI0
aI0
aI2
aI2
aI18
aI3
aa(lp329
V0020501015
p330
aVMAR 23, 2006
p331
aVWAS @ UTA
p332
aVW
p333
aI29
aI5
aI8
aF0.625
aI1
aI1
aF1.0
aI1
aI1
aF1.0
aI0
aI3
aI3
aI4
aI0
aI0
aI0
aI3
aI12
aI3
aa(lp334
V0020501027
p335
aVMAR 25, 2006
p336
aVWAS @ LAC
p337
aVL
p338
aI31
aI4
aI8
aF0.5
aI0
aI1
aF0.0
aI5
aI7
aF0.714
aI0
aI2
aI2
aI3
aI0
aI0
aI2
aI0
aI13
aI-4
aa(lp339
V0020501046
p340
aVMAR 27, 2006
p341
aVWAS @ GSW
p342
aVW
p343
aI33
aI5
aI11
aF0.455
aI0
aI2
aF0.0
aI2
aI2
aF1.0
aI1
aI3
aI4
aI5
aI1
aI0
aI0
aI3
aI12
aI18
aa(lp344
V0020501052
p345
aVMAR 28, 2006
p346
aVWAS @ SAC
p347
aVW
p348
aI45
aI7
aI12
aF0.583
aI0
aI1
aF0.0
aI3
aI3
aF1.0
aI0
aI2
aI2
aI7
aI1
aI0
aI4
aI1
aI17
aI13
aa(lp349
V0020501074
p350
aVMAR 31, 2006
p351
aVWAS @ HOU
p352
aVL
p353
aI32
aI4
aI10
aF0.4
aI1
aI4
aF0.25
aI3
aI4
aF0.75
aI1
aI2
aI3
aI7
aI0
aI0
aI0
aI1
aI12
aI0
aa(lp354
V0020501082
p355
aVAPR 01, 2006
p356
aVWAS @ SAS
p357
aVL
p358
aI34
aI5
aI10
aF0.5
aI0
aI0
aF0.0
aI1
aI2
aF0.5
aI0
aI1
aI1
aI4
aI1
aI0
aI1
aI2
aI11
aI-4
aa(lp359
V0020501096
p360
aVAPR 04, 2006
p361
aVWAS vs. NYK
p362
aVW
p363
aI27
aI3
aI6
aF0.5
aI0
aI1
aF0.0
aI6
aI7
aF0.857
aI1
aI1
aI2
aI0
aI2
aI0
aI0
aI1
aI12
aI9
aa(lp364
V0020501108
p365
aVAPR 05, 2006
p366
aVWAS @ BOS
p367
aVW
p368
aI27
aI3
aI7
aF0.429
aI0
aI1
aF0.0
aI2
aI2
aF1.0
aI0
aI3
aI3
aI9
aI0
aI0
aI2
aI1
aI8
aI13
aa(lp369
V0020501134
p370
aVAPR 08, 2006
p371
aVWAS vs. MIA
p372
aVL
p373
aI45
aI6
aI12
aF0.5
aI1
aI1
aF1.0
aI12
aI14
aF0.857
aI0
aI3
aI3
aI3
aI2
aI0
aI3
aI2
aI25
aI-13
aa(lp374
V0020501149
p375
aVAPR 10, 2006
p376
aVWAS @ PHI
p377
aVL
p378
aI44
aI2
aI11
aF0.182
aI0
aI1
aF0.0
aI0
aI0
aF0.0
aI0
aI2
aI2
aI6
aI1
aI0
aI6
aI2
aI4
aI-11
aa(lp379
V0020501168
p380
aVAPR 12, 2006
p381
aVWAS @ MIL
p382
aVL
p383
aI43
aI6
aI13
aF0.462
aI0
aI4
aF0.0
aI9
aI10
aF0.9
aI1
aI0
aI1
aI6
aI2
aI0
aI1
aI2
aI21
aI-11
aa(lp384
V0020501184
p385
aVAPR 14, 2006
p386
aVWAS @ CHI
p387
aVL
p388
aI47
aI6
aI16
aF0.375
aI1
aI3
aF0.333
aI7
aI8
aF0.875
aI0
aI5
aI5
aI8
aI3
aI1
aI1
aI1
aI20
aI0
aa(lp389
V0020501197
p390
aVAPR 16, 2006
p391
aVWAS vs. CLE
p392
aVW
p393
aI33
aI5
aI9
aF0.556
aI2
aI2
aF1.0
aI5
aI6
aF0.833
aI0
aI2
aI2
aI2
aI0
aI0
aI1
aI1
aI17
aI8
aa(lp394
V0020501213
p395
aVAPR 18, 2006
p396
aVWAS vs. MIL
p397
aVW
p398
aI31
aI3
aI7
aF0.429
aI0
aI0
aF0.0
aI4
aI5
aF0.8
aI1
aI1
aI2
aI8
aI1
aI0
aI0
aI4
aI10
aI17
aa(lp399
V0020501222
p400
aVAPR 19, 2006
p401
aVWAS @ DET
p402
aVW
p403
aI33
aI4
aI10
aF0.4
aI0
aI1
aF0.0
aI1
aI2
aF0.5
aI0
aI2
aI2
aI3
aI0
aI0
aI1
aI0
aI9
aI23
aasS'name'
p404
VAntonio Daniels
p405
sS'experience'
p406
I8
s.