(dp0
S'stats'
p1
(lp2
(lp3
V0020500012
p4
aVNOV 02, 2005
p5
aVCHA @ CHI
p6
aVL
p7
aI31
aI2
aI9
aF0.222
aI0
aI1
aF0.0
aI2
aI3
aF0.667
aI1
aI3
aI4
aI7
aI1
aI0
aI0
aI6
aI6
aI18
aa(lp8
V0020500021
p9
aVNOV 04, 2005
p10
aVCHA @ PHI
p11
aVW
p12
aI38
aI6
aI12
aF0.5
aI0
aI0
aF0.0
aI2
aI3
aF0.667
aI0
aI4
aI4
aI15
aI3
aI0
aI2
aI2
aI14
aI15
aa(lp13
V0020500033
p14
aVNOV 05, 2005
p15
aVCHA vs. BOS
p16
aVW
p17
aI41
aI7
aI13
aF0.538
aI0
aI0
aF0.0
aI7
aI9
aF0.778
aI0
aI3
aI3
aI7
aI3
aI0
aI4
aI3
aI21
aI12
aa(lp18
V0020500047
p19
aVNOV 07, 2005
p20
aVCHA vs. UTA
p21
aVL
p22
aI38
aI4
aI14
aF0.286
aI0
aI0
aF0.0
aI3
aI4
aF0.75
aI1
aI4
aI5
aI1
aI3
aI0
aI2
aI3
aI11
aI-11
aa(lp23
V0020500061
p24
aVNOV 09, 2005
p25
aVCHA vs. SAS
p26
aVL
p27
aI27
aI5
aI8
aF0.625
aI0
aI0
aF0.0
aI0
aI0
aF0.0
aI0
aI1
aI1
aI8
aI3
aI0
aI2
aI6
aI10
aI5
aa(lp28
V0020500075
p29
aVNOV 11, 2005
p30
aVCHA vs. DAL
p31
aVL
p32
aI33
aI1
aI7
aF0.143
aI0
aI0
aF0.0
aI5
aI6
aF0.833
aI0
aI0
aI0
aI5
aI5
aI0
aI2
aI5
aI7
aI-7
aa(lp33
V0020500083
p34
aVNOV 12, 2005
p35
aVCHA @ MIA
p36
aVL
p37
aI26
aI3
aI7
aF0.429
aI0
aI0
aF0.0
aI3
aI4
aF0.75
aI0
aI1
aI1
aI4
aI0
aI0
aI0
aI1
aI9
aI-22
aa(lp38
V0020500099
p39
aVNOV 15, 2005
p40
aVCHA @ ORL
p41
aVL
p42
aI34
aI1
aI8
aF0.125
aI0
aI0
aF0.0
aI0
aI0
aF0.0
aI0
aI2
aI2
aI9
aI0
aI0
aI3
aI5
aI2
aI-9
aa(lp43
V0020500121
p44
aVNOV 18, 2005
p45
aVCHA @ IND
p46
aVL
p47
aI33
aI1
aI9
aF0.111
aI0
aI0
aF0.0
aI0
aI0
aF0.0
aI1
aI2
aI3
aI14
aI5
aI0
aI3
aI3
aI2
aI-10
aa(lp48
V0020500135
p49
aVNOV 19, 2005
p50
aVCHA @ MIN
p51
aVL
p52
aI23
aI2
aI6
aF0.333
aI0
aI0
aF0.0
aI6
aI6
aF1.0
aI0
aI2
aI2
aI5
aI1
aI0
aI1
aI2
aI10
aI-10
aa(lp53
V0020500158
p54
aVNOV 23, 2005
p55
aVCHA vs. NYK
p56
aVW
p57
aI36
aI2
aI7
aF0.286
aI0
aI0
aF0.0
aI5
aI6
aF0.833
aI0
aI4
aI4
aI11
aI4
aI0
aI3
aI4
aI9
aI9
aa(lp58
V0020500171
p59
aVNOV 25, 2005
p60
aVCHA @ BOS
p61
aVL
p62
aI35
aI7
aI14
aF0.5
aI0
aI0
aF0.0
aI3
aI4
aF0.75
aI1
aI2
aI3
aI8
aI3
aI0
aI3
aI1
aI17
aI-9
aa(lp63
V0020500184
p64
aVNOV 26, 2005
p65
aVCHA vs. WAS
p66
aVW
p67
aI26
aI2
aI5
aF0.4
aI0
aI0
aF0.0
aI3
aI4
aF0.75
aI1
aI4
aI5
aI9
aI1
aI0
aI1
aI4
aI7
aI-1
aa(lp68
V0020500205
p69
aVNOV 29, 2005
p70
aVCHA @ SAC
p71
aVL
p72
aI26
aI3
aI8
aF0.375
aI1
aI1
aF1.0
aI0
aI0
aF0.0
aI1
aI1
aI2
aI9
aI2
aI0
aI1
aI2
aI7
aI-11
aa(lp73
V0020500215
p74
aVNOV 30, 2005
p75
aVCHA @ SEA
p76
aVL
p77
aI38
aI5
aI12
aF0.417
aI0
aI0
aF0.0
aI8
aI10
aF0.8
aI1
aI5
aI6
aI11
aI2
aI0
aI2
aI4
aI18
aI-3
aa(lp78
V0020500229
p79
aVDEC 02, 2005
p80
aVCHA @ GSW
p81
aVL
p82
aI34
aI6
aI14
aF0.429
aI0
aI1
aF0.0
aI7
aI9
aF0.778
aI0
aI5
aI5
aI9
aI2
aI0
aI0
aI3
aI19
aI-10
aa(lp83
V0020500244
p84
aVDEC 04, 2005
p85
aVCHA @ LAL
p86
aVL
p87
aI35
aI7
aI14
aF0.5
aI0
aI0
aF0.0
aI3
aI6
aF0.5
aI0
aI2
aI2
aI8
aI4
aI0
aI2
aI2
aI17
aI-6
aa(lp88
V0020500261
p89
aVDEC 07, 2005
p90
aVCHA vs. NJN
p91
aVL
p92
aI32
aI10
aI16
aF0.625
aI0
aI0
aF0.0
aI3
aI4
aF0.75
aI1
aI5
aI6
aI5
aI4
aI0
aI2
aI2
aI23
aI0
aa(lp93
V0020500270
p94
aVDEC 09, 2005
p95
aVCHA @ PHI
p96
aVL
p97
aI23
aI4
aI10
aF0.4
aI0
aI0
aF0.0
aI0
aI0
aF0.0
aI1
aI2
aI3
aI9
aI3
aI0
aI3
aI3
aI8
aI-4
aa(lp98
V0020500284
p99
aVDEC 10, 2005
p100
aVCHA vs. TOR
p101
aVL
p102
aI40
aI9
aI16
aF0.563
aI0
aI0
aF0.0
aI2
aI3
aF0.667
aI1
aI2
aI3
aI12
aI1
aI0
aI2
aI3
aI20
aI-11
aa(lp103
V0020500302
p104
aVDEC 13, 2005
p105
aVCHA vs. DEN
p106
aVL
p107
aI34
aI3
aI12
aF0.25
aI0
aI0
aF0.0
aI1
aI2
aF0.5
aI1
aI3
aI4
aI16
aI2
aI0
aI4
aI3
aI7
aI-15
aa(lp108
V0020500310
p109
aVDEC 14, 2005
p110
aVCHA @ NJN
p111
aVW
p112
aI41
aI10
aI16
aF0.625
aI0
aI0
aF0.0
aI5
aI5
aF1.0
aI0
aI5
aI5
aI7
aI5
aI0
aI0
aI2
aI25
aI12
aa(lp113
V0020500335
p114
aVDEC 17, 2005
p115
aVCHA vs. DET
p116
aVL
p117
aI25
aI1
aI7
aF0.143
aI0
aI0
aF0.0
aI3
aI4
aF0.75
aI1
aI2
aI3
aI8
aI0
aI0
aI2
aI4
aI5
aI-16
aa(lp118
V0020500357
p119
aVDEC 20, 2005
p120
aVCHA @ CHI
p121
aVW
p122
aI42
aI8
aI18
aF0.444
aI0
aI0
aF0.0
aI4
aI5
aF0.8
aI0
aI3
aI3
aI10
aI2
aI0
aI2
aI5
aI20
aI12
aa(lp123
V0020500374
p124
aVDEC 23, 2005
p125
aVCHA vs. LAC
p126
aVL
p127
aI35
aI6
aI15
aF0.4
aI0
aI0
aF0.0
aI9
aI9
aF1.0
aI0
aI4
aI4
aI7
aI4
aI0
aI0
aI3
aI21
aI-12
aa(lp128
V0020500397
p129
aVDEC 27, 2005
p130
aVCHA @ ATL
p131
aVW
p132
aI42
aI9
aI23
aF0.391
aI0
aI0
aF0.0
aI4
aI6
aF0.667
aI1
aI6
aI7
aI5
aI3
aI0
aI2
aI1
aI22
aI2
aa(lp133
V0020500408
p134
aVDEC 28, 2005
p135
aVCHA vs. CHI
p136
aVW
p137
aI14
aI2
aI6
aF0.333
aI0
aI0
aF0.0
aI2
aI2
aF1.0
aI1
aI1
aI2
aI1
aI1
aI0
aI0
aI1
aI6
aI-5
aa(lp138
V0020500421
p139
aVDEC 30, 2005
p140
aVCHA vs. PHX
p141
aVL
p142
aI25
aI3
aI7
aF0.429
aI0
aI0
aF0.0
aI4
aI5
aF0.8
aI0
aI1
aI1
aI10
aI1
aI0
aI3
aI6
aI10
aI-2
aa(lp143
V0020500869
p144
aVJAN 02, 2006
p145
aVCHA @ NOK
p146
aVL
p147
aI39
aI8
aI15
aF0.533
aI0
aI1
aF0.0
aI3
aI5
aF0.6
aI1
aI2
aI3
aI4
aI1
aI0
aI4
aI5
aI19
aI-8
aa(lp148
V0020500449
p149
aVJAN 04, 2006
p150
aVCHA @ BOS
p151
aVL
p152
aI40
aI6
aI16
aF0.375
aI0
aI0
aF0.0
aI6
aI6
aF1.0
aI0
aI3
aI3
aI12
aI6
aI0
aI1
aI2
aI18
aI0
aa(lp153
V0020500474
p154
aVJAN 07, 2006
p155
aVCHA @ ORL
p156
aVL
p157
aI28
aI3
aI11
aF0.273
aI0
aI0
aF0.0
aI3
aI3
aF1.0
aI2
aI2
aI4
aI6
aI2
aI0
aI2
aI0
aI9
aI-24
aa(lp158
V0020500493
p159
aVJAN 10, 2006
p160
aVCHA vs. HOU
p161
aVW
p162
aI44
aI5
aI16
aF0.313
aI1
aI2
aF0.5
aI4
aI6
aF0.667
aI2
aI2
aI4
aI18
aI1
aI0
aI1
aI4
aI15
aI9
aa(lp163
V0020500500
p164
aVJAN 11, 2006
p165
aVCHA @ TOR
p166
aVL
p167
aI12
aI0
aI5
aF0.0
aI0
aI0
aF0.0
aI1
aI2
aF0.5
aI0
aI2
aI2
aI3
aI1
aI0
aI1
aI1
aI1
aI-4
aa(lp168
V0020500523
p169
aVJAN 14, 2006
p170
aVCHA @ DET
p171
aVL
p172
aI20
aI4
aI7
aF0.571
aI0
aI0
aF0.0
aI2
aI2
aF1.0
aI0
aI0
aI0
aI5
aI1
aI0
aI0
aI1
aI10
aI-6
aa(lp173
V0020500538
p174
aVJAN 16, 2006
p175
aVCHA vs. NOK
p176
aVL
p177
aI23
aI1
aI5
aF0.2
aI0
aI0
aF0.0
aI3
aI4
aF0.75
aI0
aI4
aI4
aI2
aI1
aI0
aI1
aI5
aI5
aI-12
aa(lp178
V0020500553
p179
aVJAN 18, 2006
p180
aVCHA @ IND
p181
aVL
p182
aI41
aI5
aI15
aF0.333
aI0
aI0
aF0.0
aI5
aI6
aF0.833
aI0
aI4
aI4
aI15
aI5
aI0
aI3
aI3
aI15
aI-8
aa(lp183
V0020500568
p184
aVJAN 20, 2006
p185
aVCHA vs. ORL
p186
aVL
p187
aI28
aI7
aI12
aF0.583
aI0
aI0
aF0.0
aI3
aI4
aF0.75
aI0
aI2
aI2
aI7
aI3
aI0
aI1
aI3
aI17
aI-14
aa(lp188
V0020500581
p189
aVJAN 21, 2006
p190
aVCHA @ MIL
p191
aVL
p192
aI40
aI3
aI11
aF0.273
aI0
aI0
aF0.0
aI6
aI7
aF0.857
aI0
aI4
aI4
aI15
aI3
aI0
aI5
aI4
aI12
aI-20
aa(lp193
V0020500603
p194
aVJAN 24, 2006
p195
aVCHA @ SAS
p196
aVL
p197
aI23
aI2
aI12
aF0.167
aI0
aI0
aF0.0
aI2
aI2
aF1.0
aI2
aI1
aI3
aI5
aI0
aI0
aI2
aI3
aI6
aI-14
aa(lp198
V0020500610
p199
aVJAN 25, 2006
p200
aVCHA @ HOU
p201
aVL
p202
aI31
aI6
aI9
aF0.667
aI0
aI0
aF0.0
aI2
aI2
aF1.0
aI1
aI4
aI5
aI7
aI2
aI0
aI5
aI2
aI14
aI-16
aa(lp203
V0020500623
p204
aVJAN 27, 2006
p205
aVCHA vs. MIA
p206
aVL
p207
aI18
aI0
aI4
aF0.0
aI0
aI1
aF0.0
aI0
aI0
aF0.0
aI0
aI0
aI0
aI3
aI0
aI0
aI2
aI0
aI0
aI-5
aa(lp208
V0020500648
p209
aVJAN 30, 2006
p210
aVCHA vs. CLE
p211
aVL
p212
aI36
aI3
aI10
aF0.3
aI0
aI0
aF0.0
aI1
aI2
aF0.5
aI1
aI2
aI3
aI14
aI2
aI2
aI4
aI3
aI7
aI-11
aa(lp213
V0020500666
p214
aVFEB 01, 2006
p215
aVCHA vs. ATL
p216
aVL
p217
aI40
aI6
aI17
aF0.353
aI0
aI1
aF0.0
aI7
aI8
aF0.875
aI0
aI4
aI4
aI10
aI3
aI0
aI2
aI2
aI19
aI-6
aa(lp218
V0020500679
p219
aVFEB 03, 2006
p220
aVCHA vs. LAL
p221
aVW
p222
aI40
aI4
aI8
aF0.5
aI0
aI0
aF0.0
aI7
aI8
aF0.875
aI0
aI4
aI4
aI10
aI6
aI0
aI8
aI5
aI15
aI9
aa(lp223
V0020500701
p224
aVFEB 06, 2006
p225
aVCHA vs. SEA
p226
aVW
p227
aI39
aI6
aI12
aF0.5
aI0
aI0
aF0.0
aI3
aI4
aF0.75
aI2
aI5
aI7
aI9
aI6
aI0
aI3
aI4
aI15
aI12
aa(lp228
V0020500715
p229
aVFEB 08, 2006
p230
aVCHA vs. PHI
p231
aVW
p232
aI44
aI5
aI12
aF0.417
aI0
aI0
aF0.0
aI3
aI5
aF0.6
aI1
aI5
aI6
aI14
aI2
aI0
aI4
aI3
aI13
aI12
aa(lp233
V0020500752
p234
aVFEB 13, 2006
p235
aVCHA vs. POR
p236
aVL
p237
aI43
aI4
aI11
aF0.364
aI0
aI1
aF0.0
aI6
aI7
aF0.857
aI1
aI5
aI6
aI9
aI2
aI0
aI7
aI2
aI14
aI-6
aa(lp238
V0020500769
p239
aVFEB 15, 2006
p240
aVCHA vs. NJN
p241
aVL
p242
aI40
aI10
aI15
aF0.667
aI1
aI1
aF1.0
aI7
aI10
aF0.7
aI1
aI1
aI2
aI3
aI1
aI0
aI3
aI3
aI28
aI-3
aa(lp243
V0020500787
p244
aVFEB 21, 2006
p245
aVCHA @ DEN
p246
aVL
p247
aI33
aI3
aI12
aF0.25
aI0
aI0
aF0.0
aI1
aI3
aF0.333
aI1
aI3
aI4
aI8
aI4
aI0
aI3
aI3
aI7
aI-18
aa(lp248
V0020500799
p249
aVFEB 22, 2006
p250
aVCHA @ POR
p251
aVW
p252
aI40
aI3
aI10
aF0.3
aI0
aI0
aF0.0
aI2
aI2
aF1.0
aI0
aI3
aI3
aI13
aI2
aI0
aI1
aI2
aI8
aI-5
aa(lp253
V0020500821
p254
aVFEB 25, 2006
p255
aVCHA @ PHX
p256
aVL
p257
aI35
aI4
aI15
aF0.267
aI0
aI0
aF0.0
aI0
aI0
aF0.0
aI0
aI2
aI2
aI14
aI2
aI0
aI0
aI5
aI8
aI-6
aa(lp258
V0020500837
p259
aVFEB 27, 2006
p260
aVCHA @ LAC
p261
aVL
p262
aI39
aI3
aI12
aF0.25
aI0
aI0
aF0.0
aI6
aI6
aF1.0
aI0
aI3
aI3
aI17
aI2
aI0
aI4
aI2
aI12
aI-8
aa(lp263
V0020500850
p264
aVMAR 01, 2006
p265
aVCHA @ UTA
p266
aVW
p267
aI34
aI5
aI8
aF0.625
aI0
aI0
aF0.0
aI9
aI9
aF1.0
aI0
aI2
aI2
aI10
aI3
aI0
aI3
aI5
aI19
aI8
aa(lp268
V0020500862
p269
aVMAR 03, 2006
p270
aVCHA @ DAL
p271
aVL
p272
aI32
aI2
aI8
aF0.25
aI0
aI0
aF0.0
aI3
aI3
aF1.0
aI1
aI3
aI4
aI5
aI2
aI0
aI3
aI1
aI7
aI-12
aa(lp273
V0020500884
p274
aVMAR 06, 2006
p275
aVCHA vs. MIA
p276
aVL
p277
aI48
aI9
aI20
aF0.45
aI0
aI0
aF0.0
aI6
aI6
aF1.0
aI3
aI3
aI6
aI11
aI1
aI0
aI4
aI3
aI24
aI4
aa(lp278
V0020500899
p279
aVMAR 08, 2006
p280
aVCHA vs. GSW
p281
aVW
p282
aI42
aI5
aI11
aF0.455
aI0
aI0
aF0.0
aI4
aI5
aF0.8
aI0
aI2
aI2
aI10
aI1
aI0
aI3
aI2
aI14
aI14
aa(lp283
V0020500922
p284
aVMAR 11, 2006
p285
aVCHA vs. NYK
p286
aVW
p287
aI36
aI2
aI6
aF0.333
aI0
aI0
aF0.0
aI3
aI5
aF0.6
aI0
aI4
aI4
aI15
aI0
aI0
aI3
aI4
aI7
aI2
aa(lp288
V0020500932
p289
aVMAR 12, 2006
p290
aVCHA @ DET
p291
aVL
p292
aI26
aI1
aI7
aF0.143
aI0
aI0
aF0.0
aI1
aI2
aF0.5
aI0
aI0
aI0
aI10
aI1
aI0
aI2
aI2
aI3
aI-4
aa(lp293
V0020500942
p294
aVMAR 14, 2006
p295
aVCHA vs. WAS
p296
aVL
p297
aI37
aI6
aI9
aF0.667
aI0
aI0
aF0.0
aI1
aI4
aF0.25
aI0
aI4
aI4
aI8
aI1
aI1
aI2
aI3
aI13
aI9
aa(lp298
V0020500951
p299
aVMAR 15, 2006
p300
aVCHA @ WAS
p301
aVL
p302
aI37
aI2
aI9
aF0.222
aI0
aI0
aF0.0
aI3
aI4
aF0.75
aI0
aI1
aI1
aI8
aI1
aI0
aI2
aI2
aI7
aI-5
aa(lp303
V0020500975
p304
aVMAR 18, 2006
p305
aVCHA vs. DET
p306
aVL
p307
aI41
aI4
aI15
aF0.267
aI0
aI3
aF0.0
aI1
aI2
aF0.5
aI0
aI3
aI3
aI8
aI2
aI0
aI3
aI4
aI9
aI-7
aa(lp308
V0020501021
p309
aVMAR 24, 2006
p310
aVCHA @ MIA
p311
aVL
p312
aI29
aI7
aI12
aF0.583
aI0
aI0
aF0.0
aI3
aI3
aF1.0
aI1
aI3
aI4
aI6
aI3
aI0
aI1
aI1
aI17
aI-15
aa(lp313
V0020501037
p314
aVMAR 26, 2006
p315
aVCHA @ MEM
p316
aVL
p317
aI43
aI5
aI10
aF0.5
aI0
aI0
aF0.0
aI7
aI9
aF0.778
aI1
aI2
aI3
aI16
aI3
aI0
aI2
aI3
aI17
aI-8
aa(lp318
V0020501047
p319
aVMAR 28, 2006
p320
aVCHA vs. ATL
p321
aVW
p322
aI41
aI5
aI11
aF0.455
aI0
aI0
aF0.0
aI4
aI6
aF0.667
aI0
aI3
aI3
aI12
aI3
aI0
aI2
aI3
aI14
aI14
aa(lp323
V0020501071
p324
aVMAR 31, 2006
p325
aVCHA vs. CHI
p326
aVL
p327
aI40
aI3
aI11
aF0.273
aI0
aI0
aF0.0
aI9
aI10
aF0.9
aI0
aI4
aI4
aI9
aI0
aI0
aI4
aI3
aI15
aI4
aa(lp328
V0020501092
p329
aVAPR 02, 2006
p330
aVCHA vs. CLE
p331
aVL
p332
aI40
aI3
aI9
aF0.333
aI0
aI0
aF0.0
aI3
aI3
aF1.0
aI0
aI1
aI1
aI7
aI4
aI0
aI2
aI3
aI9
aI0
aa(lp333
V0020501099
p334
aVAPR 04, 2006
p335
aVCHA vs. MIN
p336
aVW
p337
aI37
aI9
aI15
aF0.6
aI0
aI0
aF0.0
aI6
aI6
aF1.0
aI0
aI2
aI2
aI8
aI2
aI1
aI2
aI1
aI24
aI9
aa(lp338
V0020501118
p339
aVAPR 06, 2006
p340
aVCHA @ NJN
p341
aVL
p342
aI30
aI4
aI11
aF0.364
aI0
aI0
aF0.0
aI5
aI6
aF0.833
aI0
aI2
aI2
aI4
aI1
aI0
aI3
aI1
aI13
aI-14
aa(lp343
V0020501140
p344
aVAPR 09, 2006
p345
aVCHA @ TOR
p346
aVW
p347
aI40
aI6
aI15
aF0.4
aI0
aI0
aF0.0
aI7
aI8
aF0.875
aI0
aI3
aI3
aI10
aI3
aI0
aI5
aI5
aI19
aI15
aasS'name'
p348
VBrevin Knight
p349
sS'weight'
p350
V166
p351
sS'age'
p352
I30
sS'experience'
p353
I8
sS'height'
p354
V5-10
p355
sS'position'
p356
VGuard
p357
s.