(dp0
S'age'
p1
I30
sS'stats'
p2
(lp3
(lp4
V0020500012
p5
aVNOV 02, 2005
p6
aVCHA @ CHI
p7
aVL
p8
aI31
aI2
aI9
aF0.222
aI0
aI1
aF0.0
aI2
aI3
aF0.667
aI1
aI3
aI4
aI7
aI1
aI0
aI0
aI6
aI6
aI18
aa(lp9
V0020500021
p10
aVNOV 04, 2005
p11
aVCHA @ PHI
p12
aVW
p13
aI38
aI6
aI12
aF0.5
aI0
aI0
aF0.0
aI2
aI3
aF0.667
aI0
aI4
aI4
aI15
aI3
aI0
aI2
aI2
aI14
aI15
aa(lp14
V0020500033
p15
aVNOV 05, 2005
p16
aVCHA vs. BOS
p17
aVW
p18
aI41
aI7
aI13
aF0.538
aI0
aI0
aF0.0
aI7
aI9
aF0.778
aI0
aI3
aI3
aI7
aI3
aI0
aI4
aI3
aI21
aI12
aa(lp19
V0020500047
p20
aVNOV 07, 2005
p21
aVCHA vs. UTA
p22
aVL
p23
aI38
aI4
aI14
aF0.286
aI0
aI0
aF0.0
aI3
aI4
aF0.75
aI1
aI4
aI5
aI1
aI3
aI0
aI2
aI3
aI11
aI-11
aa(lp24
V0020500061
p25
aVNOV 09, 2005
p26
aVCHA vs. SAS
p27
aVL
p28
aI27
aI5
aI8
aF0.625
aI0
aI0
aF0.0
aI0
aI0
aF0.0
aI0
aI1
aI1
aI8
aI3
aI0
aI2
aI6
aI10
aI5
aa(lp29
V0020500075
p30
aVNOV 11, 2005
p31
aVCHA vs. DAL
p32
aVL
p33
aI33
aI1
aI7
aF0.143
aI0
aI0
aF0.0
aI5
aI6
aF0.833
aI0
aI0
aI0
aI5
aI5
aI0
aI2
aI5
aI7
aI-7
aa(lp34
V0020500083
p35
aVNOV 12, 2005
p36
aVCHA @ MIA
p37
aVL
p38
aI26
aI3
aI7
aF0.429
aI0
aI0
aF0.0
aI3
aI4
aF0.75
aI0
aI1
aI1
aI4
aI0
aI0
aI0
aI1
aI9
aI-22
aa(lp39
V0020500099
p40
aVNOV 15, 2005
p41
aVCHA @ ORL
p42
aVL
p43
aI34
aI1
aI8
aF0.125
aI0
aI0
aF0.0
aI0
aI0
aF0.0
aI0
aI2
aI2
aI9
aI0
aI0
aI3
aI5
aI2
aI-9
aa(lp44
V0020500121
p45
aVNOV 18, 2005
p46
aVCHA @ IND
p47
aVL
p48
aI33
aI1
aI9
aF0.111
aI0
aI0
aF0.0
aI0
aI0
aF0.0
aI1
aI2
aI3
aI14
aI5
aI0
aI3
aI3
aI2
aI-10
aa(lp49
V0020500135
p50
aVNOV 19, 2005
p51
aVCHA @ MIN
p52
aVL
p53
aI23
aI2
aI6
aF0.333
aI0
aI0
aF0.0
aI6
aI6
aF1.0
aI0
aI2
aI2
aI5
aI1
aI0
aI1
aI2
aI10
aI-10
aa(lp54
V0020500158
p55
aVNOV 23, 2005
p56
aVCHA vs. NYK
p57
aVW
p58
aI36
aI2
aI7
aF0.286
aI0
aI0
aF0.0
aI5
aI6
aF0.833
aI0
aI4
aI4
aI11
aI4
aI0
aI3
aI4
aI9
aI9
aa(lp59
V0020500171
p60
aVNOV 25, 2005
p61
aVCHA @ BOS
p62
aVL
p63
aI35
aI7
aI14
aF0.5
aI0
aI0
aF0.0
aI3
aI4
aF0.75
aI1
aI2
aI3
aI8
aI3
aI0
aI3
aI1
aI17
aI-9
aa(lp64
V0020500184
p65
aVNOV 26, 2005
p66
aVCHA vs. WAS
p67
aVW
p68
aI26
aI2
aI5
aF0.4
aI0
aI0
aF0.0
aI3
aI4
aF0.75
aI1
aI4
aI5
aI9
aI1
aI0
aI1
aI4
aI7
aI-1
aa(lp69
V0020500205
p70
aVNOV 29, 2005
p71
aVCHA @ SAC
p72
aVL
p73
aI26
aI3
aI8
aF0.375
aI1
aI1
aF1.0
aI0
aI0
aF0.0
aI1
aI1
aI2
aI9
aI2
aI0
aI1
aI2
aI7
aI-11
aa(lp74
V0020500215
p75
aVNOV 30, 2005
p76
aVCHA @ SEA
p77
aVL
p78
aI38
aI5
aI12
aF0.417
aI0
aI0
aF0.0
aI8
aI10
aF0.8
aI1
aI5
aI6
aI11
aI2
aI0
aI2
aI4
aI18
aI-3
aa(lp79
V0020500229
p80
aVDEC 02, 2005
p81
aVCHA @ GSW
p82
aVL
p83
aI34
aI6
aI14
aF0.429
aI0
aI1
aF0.0
aI7
aI9
aF0.778
aI0
aI5
aI5
aI9
aI2
aI0
aI0
aI3
aI19
aI-10
aa(lp84
V0020500244
p85
aVDEC 04, 2005
p86
aVCHA @ LAL
p87
aVL
p88
aI35
aI7
aI14
aF0.5
aI0
aI0
aF0.0
aI3
aI6
aF0.5
aI0
aI2
aI2
aI8
aI4
aI0
aI2
aI2
aI17
aI-6
aa(lp89
V0020500261
p90
aVDEC 07, 2005
p91
aVCHA vs. NJN
p92
aVL
p93
aI32
aI10
aI16
aF0.625
aI0
aI0
aF0.0
aI3
aI4
aF0.75
aI1
aI5
aI6
aI5
aI4
aI0
aI2
aI2
aI23
aI0
aa(lp94
V0020500270
p95
aVDEC 09, 2005
p96
aVCHA @ PHI
p97
aVL
p98
aI23
aI4
aI10
aF0.4
aI0
aI0
aF0.0
aI0
aI0
aF0.0
aI1
aI2
aI3
aI9
aI3
aI0
aI3
aI3
aI8
aI-4
aa(lp99
V0020500284
p100
aVDEC 10, 2005
p101
aVCHA vs. TOR
p102
aVL
p103
aI40
aI9
aI16
aF0.563
aI0
aI0
aF0.0
aI2
aI3
aF0.667
aI1
aI2
aI3
aI12
aI1
aI0
aI2
aI3
aI20
aI-11
aa(lp104
V0020500302
p105
aVDEC 13, 2005
p106
aVCHA vs. DEN
p107
aVL
p108
aI34
aI3
aI12
aF0.25
aI0
aI0
aF0.0
aI1
aI2
aF0.5
aI1
aI3
aI4
aI16
aI2
aI0
aI4
aI3
aI7
aI-15
aa(lp109
V0020500310
p110
aVDEC 14, 2005
p111
aVCHA @ NJN
p112
aVW
p113
aI41
aI10
aI16
aF0.625
aI0
aI0
aF0.0
aI5
aI5
aF1.0
aI0
aI5
aI5
aI7
aI5
aI0
aI0
aI2
aI25
aI12
aa(lp114
V0020500335
p115
aVDEC 17, 2005
p116
aVCHA vs. DET
p117
aVL
p118
aI25
aI1
aI7
aF0.143
aI0
aI0
aF0.0
aI3
aI4
aF0.75
aI1
aI2
aI3
aI8
aI0
aI0
aI2
aI4
aI5
aI-16
aa(lp119
V0020500357
p120
aVDEC 20, 2005
p121
aVCHA @ CHI
p122
aVW
p123
aI42
aI8
aI18
aF0.444
aI0
aI0
aF0.0
aI4
aI5
aF0.8
aI0
aI3
aI3
aI10
aI2
aI0
aI2
aI5
aI20
aI12
aa(lp124
V0020500374
p125
aVDEC 23, 2005
p126
aVCHA vs. LAC
p127
aVL
p128
aI35
aI6
aI15
aF0.4
aI0
aI0
aF0.0
aI9
aI9
aF1.0
aI0
aI4
aI4
aI7
aI4
aI0
aI0
aI3
aI21
aI-12
aa(lp129
V0020500397
p130
aVDEC 27, 2005
p131
aVCHA @ ATL
p132
aVW
p133
aI42
aI9
aI23
aF0.391
aI0
aI0
aF0.0
aI4
aI6
aF0.667
aI1
aI6
aI7
aI5
aI3
aI0
aI2
aI1
aI22
aI2
aa(lp134
V0020500408
p135
aVDEC 28, 2005
p136
aVCHA vs. CHI
p137
aVW
p138
aI14
aI2
aI6
aF0.333
aI0
aI0
aF0.0
aI2
aI2
aF1.0
aI1
aI1
aI2
aI1
aI1
aI0
aI0
aI1
aI6
aI-5
aa(lp139
V0020500421
p140
aVDEC 30, 2005
p141
aVCHA vs. PHX
p142
aVL
p143
aI25
aI3
aI7
aF0.429
aI0
aI0
aF0.0
aI4
aI5
aF0.8
aI0
aI1
aI1
aI10
aI1
aI0
aI3
aI6
aI10
aI-2
aa(lp144
V0020500869
p145
aVJAN 02, 2006
p146
aVCHA @ NOK
p147
aVL
p148
aI39
aI8
aI15
aF0.533
aI0
aI1
aF0.0
aI3
aI5
aF0.6
aI1
aI2
aI3
aI4
aI1
aI0
aI4
aI5
aI19
aI-8
aa(lp149
V0020500449
p150
aVJAN 04, 2006
p151
aVCHA @ BOS
p152
aVL
p153
aI40
aI6
aI16
aF0.375
aI0
aI0
aF0.0
aI6
aI6
aF1.0
aI0
aI3
aI3
aI12
aI6
aI0
aI1
aI2
aI18
aI0
aa(lp154
V0020500474
p155
aVJAN 07, 2006
p156
aVCHA @ ORL
p157
aVL
p158
aI28
aI3
aI11
aF0.273
aI0
aI0
aF0.0
aI3
aI3
aF1.0
aI2
aI2
aI4
aI6
aI2
aI0
aI2
aI0
aI9
aI-24
aa(lp159
V0020500493
p160
aVJAN 10, 2006
p161
aVCHA vs. HOU
p162
aVW
p163
aI44
aI5
aI16
aF0.313
aI1
aI2
aF0.5
aI4
aI6
aF0.667
aI2
aI2
aI4
aI18
aI1
aI0
aI1
aI4
aI15
aI9
aa(lp164
V0020500500
p165
aVJAN 11, 2006
p166
aVCHA @ TOR
p167
aVL
p168
aI12
aI0
aI5
aF0.0
aI0
aI0
aF0.0
aI1
aI2
aF0.5
aI0
aI2
aI2
aI3
aI1
aI0
aI1
aI1
aI1
aI-4
aa(lp169
V0020500523
p170
aVJAN 14, 2006
p171
aVCHA @ DET
p172
aVL
p173
aI20
aI4
aI7
aF0.571
aI0
aI0
aF0.0
aI2
aI2
aF1.0
aI0
aI0
aI0
aI5
aI1
aI0
aI0
aI1
aI10
aI-6
aa(lp174
V0020500538
p175
aVJAN 16, 2006
p176
aVCHA vs. NOK
p177
aVL
p178
aI23
aI1
aI5
aF0.2
aI0
aI0
aF0.0
aI3
aI4
aF0.75
aI0
aI4
aI4
aI2
aI1
aI0
aI1
aI5
aI5
aI-12
aa(lp179
V0020500553
p180
aVJAN 18, 2006
p181
aVCHA @ IND
p182
aVL
p183
aI41
aI5
aI15
aF0.333
aI0
aI0
aF0.0
aI5
aI6
aF0.833
aI0
aI4
aI4
aI15
aI5
aI0
aI3
aI3
aI15
aI-8
aa(lp184
V0020500568
p185
aVJAN 20, 2006
p186
aVCHA vs. ORL
p187
aVL
p188
aI28
aI7
aI12
aF0.583
aI0
aI0
aF0.0
aI3
aI4
aF0.75
aI0
aI2
aI2
aI7
aI3
aI0
aI1
aI3
aI17
aI-14
aa(lp189
V0020500581
p190
aVJAN 21, 2006
p191
aVCHA @ MIL
p192
aVL
p193
aI40
aI3
aI11
aF0.273
aI0
aI0
aF0.0
aI6
aI7
aF0.857
aI0
aI4
aI4
aI15
aI3
aI0
aI5
aI4
aI12
aI-20
aa(lp194
V0020500603
p195
aVJAN 24, 2006
p196
aVCHA @ SAS
p197
aVL
p198
aI23
aI2
aI12
aF0.167
aI0
aI0
aF0.0
aI2
aI2
aF1.0
aI2
aI1
aI3
aI5
aI0
aI0
aI2
aI3
aI6
aI-14
aa(lp199
V0020500610
p200
aVJAN 25, 2006
p201
aVCHA @ HOU
p202
aVL
p203
aI31
aI6
aI9
aF0.667
aI0
aI0
aF0.0
aI2
aI2
aF1.0
aI1
aI4
aI5
aI7
aI2
aI0
aI5
aI2
aI14
aI-16
aa(lp204
V0020500623
p205
aVJAN 27, 2006
p206
aVCHA vs. MIA
p207
aVL
p208
aI18
aI0
aI4
aF0.0
aI0
aI1
aF0.0
aI0
aI0
aF0.0
aI0
aI0
aI0
aI3
aI0
aI0
aI2
aI0
aI0
aI-5
aa(lp209
V0020500648
p210
aVJAN 30, 2006
p211
aVCHA vs. CLE
p212
aVL
p213
aI36
aI3
aI10
aF0.3
aI0
aI0
aF0.0
aI1
aI2
aF0.5
aI1
aI2
aI3
aI14
aI2
aI2
aI4
aI3
aI7
aI-11
aa(lp214
V0020500666
p215
aVFEB 01, 2006
p216
aVCHA vs. ATL
p217
aVL
p218
aI40
aI6
aI17
aF0.353
aI0
aI1
aF0.0
aI7
aI8
aF0.875
aI0
aI4
aI4
aI10
aI3
aI0
aI2
aI2
aI19
aI-6
aa(lp219
V0020500679
p220
aVFEB 03, 2006
p221
aVCHA vs. LAL
p222
aVW
p223
aI40
aI4
aI8
aF0.5
aI0
aI0
aF0.0
aI7
aI8
aF0.875
aI0
aI4
aI4
aI10
aI6
aI0
aI8
aI5
aI15
aI9
aa(lp224
V0020500701
p225
aVFEB 06, 2006
p226
aVCHA vs. SEA
p227
aVW
p228
aI39
aI6
aI12
aF0.5
aI0
aI0
aF0.0
aI3
aI4
aF0.75
aI2
aI5
aI7
aI9
aI6
aI0
aI3
aI4
aI15
aI12
aa(lp229
V0020500715
p230
aVFEB 08, 2006
p231
aVCHA vs. PHI
p232
aVW
p233
aI44
aI5
aI12
aF0.417
aI0
aI0
aF0.0
aI3
aI5
aF0.6
aI1
aI5
aI6
aI14
aI2
aI0
aI4
aI3
aI13
aI12
aa(lp234
V0020500752
p235
aVFEB 13, 2006
p236
aVCHA vs. POR
p237
aVL
p238
aI43
aI4
aI11
aF0.364
aI0
aI1
aF0.0
aI6
aI7
aF0.857
aI1
aI5
aI6
aI9
aI2
aI0
aI7
aI2
aI14
aI-6
aa(lp239
V0020500769
p240
aVFEB 15, 2006
p241
aVCHA vs. NJN
p242
aVL
p243
aI40
aI10
aI15
aF0.667
aI1
aI1
aF1.0
aI7
aI10
aF0.7
aI1
aI1
aI2
aI3
aI1
aI0
aI3
aI3
aI28
aI-3
aa(lp244
V0020500787
p245
aVFEB 21, 2006
p246
aVCHA @ DEN
p247
aVL
p248
aI33
aI3
aI12
aF0.25
aI0
aI0
aF0.0
aI1
aI3
aF0.333
aI1
aI3
aI4
aI8
aI4
aI0
aI3
aI3
aI7
aI-18
aa(lp249
V0020500799
p250
aVFEB 22, 2006
p251
aVCHA @ POR
p252
aVW
p253
aI40
aI3
aI10
aF0.3
aI0
aI0
aF0.0
aI2
aI2
aF1.0
aI0
aI3
aI3
aI13
aI2
aI0
aI1
aI2
aI8
aI-5
aa(lp254
V0020500821
p255
aVFEB 25, 2006
p256
aVCHA @ PHX
p257
aVL
p258
aI35
aI4
aI15
aF0.267
aI0
aI0
aF0.0
aI0
aI0
aF0.0
aI0
aI2
aI2
aI14
aI2
aI0
aI0
aI5
aI8
aI-6
aa(lp259
V0020500837
p260
aVFEB 27, 2006
p261
aVCHA @ LAC
p262
aVL
p263
aI39
aI3
aI12
aF0.25
aI0
aI0
aF0.0
aI6
aI6
aF1.0
aI0
aI3
aI3
aI17
aI2
aI0
aI4
aI2
aI12
aI-8
aa(lp264
V0020500850
p265
aVMAR 01, 2006
p266
aVCHA @ UTA
p267
aVW
p268
aI34
aI5
aI8
aF0.625
aI0
aI0
aF0.0
aI9
aI9
aF1.0
aI0
aI2
aI2
aI10
aI3
aI0
aI3
aI5
aI19
aI8
aa(lp269
V0020500862
p270
aVMAR 03, 2006
p271
aVCHA @ DAL
p272
aVL
p273
aI32
aI2
aI8
aF0.25
aI0
aI0
aF0.0
aI3
aI3
aF1.0
aI1
aI3
aI4
aI5
aI2
aI0
aI3
aI1
aI7
aI-12
aa(lp274
V0020500884
p275
aVMAR 06, 2006
p276
aVCHA vs. MIA
p277
aVL
p278
aI48
aI9
aI20
aF0.45
aI0
aI0
aF0.0
aI6
aI6
aF1.0
aI3
aI3
aI6
aI11
aI1
aI0
aI4
aI3
aI24
aI4
aa(lp279
V0020500899
p280
aVMAR 08, 2006
p281
aVCHA vs. GSW
p282
aVW
p283
aI42
aI5
aI11
aF0.455
aI0
aI0
aF0.0
aI4
aI5
aF0.8
aI0
aI2
aI2
aI10
aI1
aI0
aI3
aI2
aI14
aI14
aa(lp284
V0020500922
p285
aVMAR 11, 2006
p286
aVCHA vs. NYK
p287
aVW
p288
aI36
aI2
aI6
aF0.333
aI0
aI0
aF0.0
aI3
aI5
aF0.6
aI0
aI4
aI4
aI15
aI0
aI0
aI3
aI4
aI7
aI2
aa(lp289
V0020500932
p290
aVMAR 12, 2006
p291
aVCHA @ DET
p292
aVL
p293
aI26
aI1
aI7
aF0.143
aI0
aI0
aF0.0
aI1
aI2
aF0.5
aI0
aI0
aI0
aI10
aI1
aI0
aI2
aI2
aI3
aI-4
aa(lp294
V0020500942
p295
aVMAR 14, 2006
p296
aVCHA vs. WAS
p297
aVL
p298
aI37
aI6
aI9
aF0.667
aI0
aI0
aF0.0
aI1
aI4
aF0.25
aI0
aI4
aI4
aI8
aI1
aI1
aI2
aI3
aI13
aI9
aa(lp299
V0020500951
p300
aVMAR 15, 2006
p301
aVCHA @ WAS
p302
aVL
p303
aI37
aI2
aI9
aF0.222
aI0
aI0
aF0.0
aI3
aI4
aF0.75
aI0
aI1
aI1
aI8
aI1
aI0
aI2
aI2
aI7
aI-5
aa(lp304
V0020500975
p305
aVMAR 18, 2006
p306
aVCHA vs. DET
p307
aVL
p308
aI41
aI4
aI15
aF0.267
aI0
aI3
aF0.0
aI1
aI2
aF0.5
aI0
aI3
aI3
aI8
aI2
aI0
aI3
aI4
aI9
aI-7
aa(lp309
V0020501021
p310
aVMAR 24, 2006
p311
aVCHA @ MIA
p312
aVL
p313
aI29
aI7
aI12
aF0.583
aI0
aI0
aF0.0
aI3
aI3
aF1.0
aI1
aI3
aI4
aI6
aI3
aI0
aI1
aI1
aI17
aI-15
aa(lp314
V0020501037
p315
aVMAR 26, 2006
p316
aVCHA @ MEM
p317
aVL
p318
aI43
aI5
aI10
aF0.5
aI0
aI0
aF0.0
aI7
aI9
aF0.778
aI1
aI2
aI3
aI16
aI3
aI0
aI2
aI3
aI17
aI-8
aa(lp319
V0020501047
p320
aVMAR 28, 2006
p321
aVCHA vs. ATL
p322
aVW
p323
aI41
aI5
aI11
aF0.455
aI0
aI0
aF0.0
aI4
aI6
aF0.667
aI0
aI3
aI3
aI12
aI3
aI0
aI2
aI3
aI14
aI14
aa(lp324
V0020501071
p325
aVMAR 31, 2006
p326
aVCHA vs. CHI
p327
aVL
p328
aI40
aI3
aI11
aF0.273
aI0
aI0
aF0.0
aI9
aI10
aF0.9
aI0
aI4
aI4
aI9
aI0
aI0
aI4
aI3
aI15
aI4
aa(lp329
V0020501092
p330
aVAPR 02, 2006
p331
aVCHA vs. CLE
p332
aVL
p333
aI40
aI3
aI9
aF0.333
aI0
aI0
aF0.0
aI3
aI3
aF1.0
aI0
aI1
aI1
aI7
aI4
aI0
aI2
aI3
aI9
aI0
aa(lp334
V0020501099
p335
aVAPR 04, 2006
p336
aVCHA vs. MIN
p337
aVW
p338
aI37
aI9
aI15
aF0.6
aI0
aI0
aF0.0
aI6
aI6
aF1.0
aI0
aI2
aI2
aI8
aI2
aI1
aI2
aI1
aI24
aI9
aa(lp339
V0020501118
p340
aVAPR 06, 2006
p341
aVCHA @ NJN
p342
aVL
p343
aI30
aI4
aI11
aF0.364
aI0
aI0
aF0.0
aI5
aI6
aF0.833
aI0
aI2
aI2
aI4
aI1
aI0
aI3
aI1
aI13
aI-14
aa(lp344
V0020501140
p345
aVAPR 09, 2006
p346
aVCHA @ TOR
p347
aVW
p348
aI40
aI6
aI15
aF0.4
aI0
aI0
aF0.0
aI7
aI8
aF0.875
aI0
aI3
aI3
aI10
aI3
aI0
aI5
aI5
aI19
aI15
aasS'name'
p349
VBrevin Knight
p350
sS'experience'
p351
I8
s.