(dp0
S'stats'
p1
(lp2
(lp3
V0020500015
p4
aVNOV 02, 2005
p5
aVSEA vs. LAC
p6
aVL
p7
aI4
aI0
aI1
aF0.0
aI0
aI1
aF0.0
aI0
aI0
aF0.0
aI0
aI1
aI1
aI2
aI0
aI0
aI1
aI0
aI0
aI3
aa(lp8
V0020500786
p9
aVFEB 21, 2006
p10
aVSEA @ SAS
p11
aVL
p12
aI8
aI0
aI0
aF0.0
aI0
aI0
aF0.0
aI0
aI0
aF0.0
aI0
aI0
aI0
aI0
aI0
aI0
aI0
aI0
aI0
aI-3
aa(lp13
V0020500792
p14
aVFEB 22, 2006
p15
aVSEA @ ATL
p16
aVW
p17
aI4
aI2
aI2
aF1.0
aI0
aI0
aF0.0
aI0
aI0
aF0.0
aI0
aI0
aI0
aI0
aI0
aI0
aI1
aI0
aI4
aI-6
aa(lp18
V0020500803
p19
aVFEB 24, 2006
p20
aVSEA @ ORL
p21
aVL
p22
aI16
aI3
aI5
aF0.6
aI0
aI0
aF0.0
aI0
aI0
aF0.0
aI0
aI1
aI1
aI0
aI0
aI0
aI1
aI1
aI6
aI-10
aa(lp23
V0020500880
p24
aVMAR 05, 2006
p25
aVHOU vs. POR
p26
aVW
p27
aI1
aI0
aI0
aF0.0
aI0
aI0
aF0.0
aI0
aI0
aF0.0
aI0
aI0
aI0
aI0
aI0
aI0
aI0
aI0
aI0
aI0
aa(lp28
V0020500893
p29
aVMAR 07, 2006
p30
aVHOU @ MIN
p31
aVW
p32
aI11
aI2
aI3
aF0.667
aI0
aI0
aF0.0
aI0
aI3
aF0.0
aI0
aI2
aI2
aI1
aI2
aI0
aI0
aI2
aI4
aI6
aa(lp33
V0020500904
p34
aVMAR 08, 2006
p35
aVHOU vs. IND
p36
aVW
p37
aI6
aI0
aI1
aF0.0
aI0
aI0
aF0.0
aI0
aI0
aF0.0
aI0
aI0
aI0
aI2
aI0
aI0
aI0
aI2
aI0
aI-13
aa(lp38
V0020500928
p39
aVMAR 12, 2006
p40
aVHOU @ SAS
p41
aVL
p42
aI25
aI4
aI7
aF0.571
aI2
aI3
aF0.667
aI0
aI0
aF0.0
aI1
aI0
aI1
aI6
aI1
aI0
aI2
aI3
aI10
aI7
aa(lp43
V0020500939
p44
aVMAR 13, 2006
p45
aVHOU vs. NJN
p46
aVL
p47
aI23
aI2
aI5
aF0.4
aI0
aI2
aF0.0
aI0
aI0
aF0.0
aI0
aI0
aI0
aI1
aI0
aI0
aI0
aI3
aI4
aI-11
aa(lp48
V0020500957
p49
aVMAR 15, 2006
p50
aVHOU vs. DAL
p51
aVL
p52
aI11
aI0
aI2
aF0.0
aI0
aI0
aF0.0
aI0
aI0
aF0.0
aI0
aI0
aI0
aI1
aI0
aI0
aI1
aI0
aI0
aI-7
aa(lp53
V0020500978
p54
aVMAR 18, 2006
p55
aVHOU vs. SAS
p56
aVL
p57
aI7
aI0
aI2
aF0.0
aI0
aI1
aF0.0
aI0
aI0
aF0.0
aI0
aI0
aI0
aI0
aI0
aI0
aI1
aI0
aI0
aI-9
aa(lp58
V0020500990
p59
aVMAR 20, 2006
p60
aVHOU vs. LAC
p61
aVL
p62
aI7
aI0
aI4
aF0.0
aI0
aI1
aF0.0
aI0
aI0
aF0.0
aI0
aI0
aI0
aI0
aI0
aI0
aI0
aI1
aI0
aI-8
aa(lp63
V0020500997
p64
aVMAR 21, 2006
p65
aVHOU @ DAL
p66
aVL
p67
aI7
aI0
aI2
aF0.0
aI0
aI0
aF0.0
aI0
aI0
aF0.0
aI0
aI0
aI0
aI0
aI0
aI0
aI0
aI0
aI0
aI-1
aa(lp68
V0020501013
p69
aVMAR 23, 2006
p70
aVHOU @ NOK
p71
aVW
p72
aI15
aI0
aI0
aF0.0
aI0
aI0
aF0.0
aI0
aI0
aF0.0
aI0
aI2
aI2
aI1
aI0
aI1
aI0
aI0
aI0
aI-2
aa(lp73
V0020501033
p74
aVMAR 26, 2006
p75
aVHOU vs. CLE
p76
aVL
p77
aI9
aI2
aI2
aF1.0
aI2
aI2
aF1.0
aI0
aI0
aF0.0
aI0
aI3
aI3
aI3
aI0
aI0
aI0
aI0
aI6
aI8
aa(lp78
V0020501061
p79
aVMAR 29, 2006
p80
aVHOU vs. SEA
p81
aVW
p82
aI13
aI1
aI1
aF1.0
aI0
aI0
aF0.0
aI4
aI5
aF0.8
aI0
aI1
aI1
aI1
aI2
aI0
aI3
aI3
aI6
aI14
aa(lp83
V0020501074
p84
aVMAR 31, 2006
p85
aVHOU vs. WAS
p86
aVW
p87
aI10
aI1
aI3
aF0.333
aI0
aI1
aF0.0
aI1
aI2
aF0.5
aI0
aI3
aI3
aI1
aI1
aI0
aI1
aI0
aI3
aI5
aa(lp88
V0020501089
p89
aVAPR 02, 2006
p90
aVHOU @ LAL
p91
aVL
p92
aI9
aI0
aI1
aF0.0
aI0
aI0
aF0.0
aI2
aI2
aF1.0
aI0
aI0
aI0
aI0
aI1
aI0
aI1
aI0
aI2
aI1
aa(lp93
V0020501106
p94
aVAPR 04, 2006
p95
aVHOU @ SEA
p96
aVL
p97
aI17
aI2
aI6
aF0.333
aI1
aI1
aF1.0
aI0
aI0
aF0.0
aI0
aI3
aI3
aI5
aI0
aI0
aI2
aI1
aI5
aI1
aa(lp98
V0020501117
p99
aVAPR 05, 2006
p100
aVHOU @ POR
p101
aVL
p102
aI5
aI0
aI0
aF0.0
aI0
aI0
aF0.0
aI0
aI0
aF0.0
aI0
aI1
aI1
aI0
aI0
aI0
aI0
aI1
aI0
aI-7
aa(lp103
V0020501132
p104
aVAPR 07, 2006
p105
aVHOU @ GSW
p106
aVW
p107
aI7
aI0
aI2
aF0.0
aI0
aI0
aF0.0
aI0
aI0
aF0.0
aI0
aI0
aI0
aI2
aI0
aI0
aI0
aI2
aI0
aI-3
aa(lp108
V0020501146
p109
aVAPR 09, 2006
p110
aVHOU @ SAC
p111
aVL
p112
aI6
aI1
aI1
aF1.0
aI0
aI0
aF0.0
aI0
aI0
aF0.0
aI0
aI0
aI0
aI2
aI0
aI0
aI0
aI1
aI2
aI2
aa(lp113
V0020501153
p114
aVAPR 10, 2006
p115
aVHOU @ UTA
p116
aVL
p117
aI3
aI0
aI0
aF0.0
aI0
aI0
aF0.0
aI0
aI0
aF0.0
aI0
aI0
aI0
aI1
aI0
aI0
aI1
aI0
aI0
aI-1
aa(lp118
V0020501170
p119
aVAPR 12, 2006
p120
aVHOU vs. MIN
p121
aVL
p122
aI11
aI1
aI4
aF0.25
aI0
aI1
aF0.0
aI0
aI0
aF0.0
aI0
aI1
aI1
aI3
aI1
aI0
aI2
aI0
aI2
aI2
aa(lp123
V0020501191
p124
aVAPR 15, 2006
p125
aVHOU vs. MEM
p126
aVL
p127
aI4
aI0
aI0
aF0.0
aI0
aI0
aF0.0
aI0
aI0
aF0.0
aI0
aI0
aI0
aI1
aI0
aI0
aI1
aI1
aI0
aI-3
aa(lp128
V0020501209
p129
aVAPR 17, 2006
p130
aVHOU @ DEN
p131
aVW
p132
aI3
aI0
aI0
aF0.0
aI0
aI0
aF0.0
aI0
aI0
aF0.0
aI0
aI1
aI1
aI1
aI0
aI0
aI2
aI0
aI0
aI-3
aa(lp133
V0020501223
p134
aVAPR 19, 2006
p135
aVHOU vs. SAS
p136
aVL
p137
aI7
aI0
aI0
aF0.0
aI0
aI0
aF0.0
aI0
aI0
aF0.0
aI0
aI2
aI2
aI1
aI0
aI0
aI2
aI1
aI0
aI2
aasS'name'
p138
VRick Brunson
p139
sS'weight'
p140
V190
p141
sS'age'
p142
I33
sS'experience'
p143
I8
sS'height'
p144
V6-4
p145
sS'position'
p146
VGuard
p147
s.