(dp0
S'stats'
p1
(lp2
(lp3
V0020500007
p4
aVNOV 02, 2005
p5
aVBOS vs. NYK
p6
aVW
p7
aI44
aI6
aI18
aF0.333
aI0
aI2
aF0.0
aI18
aI24
aF0.75
aI2
aI10
aI12
aI3
aI1
aI2
aI4
aI2
aI30
aI16
aa(lp8
V0020500023
p9
aVNOV 04, 2005
p10
aVBOS vs. DET
p11
aVL
p12
aI39
aI10
aI18
aF0.556
aI0
aI1
aF0.0
aI8
aI12
aF0.667
aI1
aI6
aI7
aI3
aI2
aI0
aI4
aI1
aI28
aI4
aa(lp13
V0020500033
p14
aVNOV 05, 2005
p15
aVBOS @ CHA
p16
aVL
p17
aI45
aI11
aI20
aF0.55
aI1
aI3
aF0.333
aI9
aI10
aF0.9
aI0
aI5
aI5
aI3
aI1
aI0
aI3
aI4
aI32
aI0
aa(lp18
V0020500059
p19
aVNOV 09, 2005
p20
aVBOS vs. MEM
p21
aVW
p22
aI39
aI9
aI13
aF0.692
aI3
aI3
aF1.0
aI8
aI10
aF0.8
aI1
aI6
aI7
aI8
aI3
aI1
aI1
aI3
aI29
aI9
aa(lp23
V0020500074
p24
aVNOV 11, 2005
p25
aVBOS vs. SAS
p26
aVL
p27
aI34
aI8
aI19
aF0.421
aI0
aI1
aF0.0
aI4
aI5
aF0.8
aI4
aI6
aI10
aI3
aI0
aI0
aI4
aI1
aI20
aI-28
aa(lp28
V0020500090
p29
aVNOV 13, 2005
p30
aVBOS vs. HOU
p31
aVW
p32
aI37
aI5
aI13
aF0.385
aI3
aI8
aF0.375
aI6
aI6
aF1.0
aI2
aI5
aI7
aI10
aI1
aI0
aI2
aI2
aI19
aI23
aa(lp33
V0020500103
p34
aVNOV 15, 2005
p35
aVBOS @ DET
p36
aVL
p37
aI39
aI9
aI18
aF0.5
aI3
aI5
aF0.6
aI2
aI2
aF1.0
aI0
aI7
aI7
aI3
aI0
aI0
aI2
aI3
aI23
aI-25
aa(lp38
V0020500110
p39
aVNOV 16, 2005
p40
aVBOS vs. SEA
p41
aVL
p42
aI39
aI9
aI16
aF0.563
aI1
aI2
aF0.5
aI3
aI5
aF0.6
aI1
aI5
aI6
aI3
aI1
aI0
aI3
aI3
aI22
aI-16
aa(lp43
V0020500122
p44
aVNOV 18, 2005
p45
aVBOS vs. TOR
p46
aVW
p47
aI39
aI7
aI16
aF0.438
aI2
aI4
aF0.5
aI10
aI12
aF0.833
aI3
aI8
aI11
aI5
aI2
aI1
aI4
aI1
aI26
aI12
aa(lp48
V0020500151
p49
aVNOV 22, 2005
p50
aVBOS @ CLE
p51
aVL
p52
aI36
aI10
aI24
aF0.417
aI2
aI4
aF0.5
aI2
aI2
aF1.0
aI5
aI10
aI15
aI1
aI2
aI0
aI3
aI2
aI24
aI-10
aa(lp53
V0020500156
p54
aVNOV 23, 2005
p55
aVBOS @ ATL
p56
aVL
p57
aI37
aI11
aI22
aF0.5
aI2
aI5
aF0.4
aI9
aI9
aF1.0
aI1
aI5
aI6
aI6
aI2
aI0
aI3
aI5
aI33
aI2
aa(lp58
V0020500171
p59
aVNOV 25, 2005
p60
aVBOS vs. CHA
p61
aVW
p62
aI35
aI11
aI21
aF0.524
aI0
aI2
aF0.0
aI5
aI6
aF0.833
aI1
aI7
aI8
aI4
aI1
aI0
aI2
aI4
aI27
aI11
aa(lp63
V0020500194
p64
aVNOV 28, 2005
p65
aVBOS vs. ORL
p66
aVL
p67
aI39
aI7
aI16
aF0.438
aI0
aI0
aF0.0
aI2
aI3
aF0.667
aI1
aI12
aI13
aI4
aI0
aI1
aI5
aI2
aI16
aI-10
aa(lp68
V0020500210
p69
aVNOV 30, 2005
p70
aVBOS vs. PHI
p71
aVW
p72
aI41
aI12
aI21
aF0.571
aI0
aI2
aF0.0
aI8
aI12
aF0.667
aI1
aI10
aI11
aI3
aI1
aI0
aI1
aI4
aI32
aI7
aa(lp73
V0020500221
p74
aVDEC 02, 2005
p75
aVBOS vs. CHI
p76
aVL
p77
aI42
aI12
aI21
aF0.571
aI5
aI8
aF0.625
aI14
aI18
aF0.778
aI0
aI11
aI11
aI5
aI4
aI1
aI6
aI2
aI43
aI3
aa(lp78
V0020500239
p79
aVDEC 04, 2005
p80
aVBOS @ NYK
p81
aVW
p82
aI44
aI8
aI15
aF0.533
aI1
aI2
aF0.5
aI11
aI15
aF0.733
aI0
aI9
aI9
aI7
aI5
aI0
aI2
aI1
aI28
aI11
aa(lp83
V0020500253
p84
aVDEC 06, 2005
p85
aVBOS @ HOU
p86
aVL
p87
aI31
aI3
aI10
aF0.3
aI1
aI3
aF0.333
aI13
aI13
aF1.0
aI0
aI3
aI3
aI1
aI2
aI0
aI2
aI4
aI20
aI-8
aa(lp88
V0020500262
p89
aVDEC 07, 2005
p90
aVBOS @ NOK
p91
aVW
p92
aI37
aI7
aI14
aF0.5
aI1
aI2
aF0.5
aI13
aI16
aF0.813
aI1
aI11
aI12
aI1
aI2
aI0
aI3
aI3
aI28
aI13
aa(lp93
V0020500275
p94
aVDEC 09, 2005
p95
aVBOS @ SAS
p96
aVL
p97
aI38
aI7
aI17
aF0.412
aI1
aI2
aF0.5
aI9
aI9
aF1.0
aI1
aI6
aI7
aI2
aI0
aI0
aI3
aI3
aI24
aI-11
aa(lp98
V0020500288
p99
aVDEC 10, 2005
p100
aVBOS @ DAL
p101
aVL
p102
aI44
aI10
aI19
aF0.526
aI1
aI3
aF0.333
aI7
aI10
aF0.7
aI0
aI6
aI6
aI6
aI0
aI0
aI1
aI2
aI28
aI-4
aa(lp103
V0020500309
p104
aVDEC 14, 2005
p105
aVBOS vs. IND
p106
aVW
p107
aI40
aI9
aI21
aF0.429
aI1
aI1
aF1.0
aI6
aI8
aF0.75
aI0
aI7
aI7
aI5
aI0
aI2
aI3
aI2
aI25
aI6
aa(lp108
V0020500326
p109
aVDEC 16, 2005
p110
aVBOS vs. MIL
p111
aVL
p112
aI41
aI8
aI18
aF0.444
aI2
aI5
aF0.4
aI5
aI5
aF1.0
aI0
aI9
aI9
aI10
aI0
aI0
aI2
aI5
aI23
aI-6
aa(lp113
V0020500338
p114
aVDEC 17, 2005
p115
aVBOS @ CHI
p116
aVL
p117
aI28
aI8
aI15
aF0.533
aI0
aI1
aF0.0
aI4
aI5
aF0.8
aI1
aI0
aI1
aI3
aI2
aI1
aI4
aI4
aI20
aI-20
aa(lp118
V0020500348
p119
aVDEC 19, 2005
p120
aVBOS vs. GSW
p121
aVW
p122
aI38
aI6
aI16
aF0.375
aI1
aI4
aF0.25
aI6
aI8
aF0.75
aI1
aI8
aI9
aI5
aI1
aI0
aI5
aI4
aI19
aI-1
aa(lp123
V0020500363
p124
aVDEC 21, 2005
p125
aVBOS vs. UTA
p126
aVW
p127
aI39
aI11
aI21
aF0.524
aI0
aI5
aF0.0
aI8
aI9
aF0.889
aI1
aI2
aI3
aI3
aI2
aI1
aI2
aI2
aI30
aI2
aa(lp128
V0020500395
p129
aVDEC 26, 2005
p130
aVBOS @ SEA
p131
aVL
p132
aI40
aI13
aI25
aF0.52
aI1
aI4
aF0.25
aI16
aI21
aF0.762
aI1
aI4
aI5
aI5
aI1
aI1
aI3
aI5
aI43
aI-3
aa(lp133
V0020500413
p134
aVDEC 28, 2005
p135
aVBOS @ GSW
p136
aVL
p137
aI40
aI12
aI21
aF0.571
aI0
aI2
aF0.0
aI4
aI5
aF0.8
aI2
aI10
aI12
aI3
aI0
aI0
aI4
aI0
aI28
aI0
aa(lp138
V0020500424
p139
aVDEC 30, 2005
p140
aVBOS @ SAC
p141
aVL
p142
aI43
aI7
aI18
aF0.389
aI3
aI9
aF0.333
aI5
aI8
aF0.625
aI0
aI6
aI6
aI9
aI1
aI1
aI4
aI4
aI22
aI1
aa(lp143
V0020500433
p144
aVDEC 31, 2005
p145
aVBOS @ LAC
p146
aVW
p147
aI37
aI8
aI12
aF0.667
aI0
aI0
aF0.0
aI3
aI4
aF0.75
aI1
aI4
aI5
aI5
aI1
aI2
aI6
aI3
aI19
aI13
aa(lp148
V0020500440
p149
aVJAN 02, 2006
p150
aVBOS @ DEN
p151
aVL
p152
aI37
aI9
aI14
aF0.643
aI2
aI4
aF0.5
aI9
aI10
aF0.9
aI0
aI3
aI3
aI4
aI0
aI0
aI3
aI6
aI29
aI-1
aa(lp153
V0020500449
p154
aVJAN 04, 2006
p155
aVBOS vs. CHA
p156
aVW
p157
aI42
aI11
aI17
aF0.647
aI2
aI3
aF0.667
aI7
aI8
aF0.875
aI0
aI8
aI8
aI10
aI1
aI2
aI4
aI3
aI31
aI3
aa(lp158
V0020500460
p159
aVJAN 06, 2006
p160
aVBOS vs. ATL
p161
aVL
p162
aI39
aI9
aI19
aF0.474
aI3
aI7
aF0.429
aI2
aI2
aF1.0
aI2
aI3
aI5
aI3
aI0
aI0
aI1
aI2
aI23
aI-8
aa(lp163
V0020500472
p164
aVJAN 07, 2006
p165
aVBOS @ WAS
p166
aVL
p167
aI37
aI5
aI12
aF0.417
aI2
aI5
aF0.4
aI11
aI14
aF0.786
aI0
aI3
aI3
aI4
aI0
aI0
aI2
aI3
aI23
aI-1
aa(lp168
V0020500488
p169
aVJAN 09, 2006
p170
aVBOS vs. DAL
p171
aVL
p172
aI36
aI9
aI16
aF0.563
aI2
aI5
aF0.4
aI12
aI12
aF1.0
aI1
aI7
aI8
aI4
aI2
aI0
aI2
aI2
aI32
aI-5
aa(lp173
V0020500491
p174
aVJAN 10, 2006
p175
aVBOS @ ATL
p176
aVW
p177
aI40
aI10
aI17
aF0.588
aI3
aI7
aF0.429
aI4
aI7
aF0.571
aI1
aI3
aI4
aI6
aI2
aI0
aI6
aI2
aI27
aI17
aa(lp178
V0020500516
p179
aVJAN 13, 2006
p180
aVBOS @ PHI
p181
aVL
p182
aI52
aI4
aI20
aF0.2
aI2
aI4
aF0.5
aI8
aI13
aF0.615
aI1
aI8
aI9
aI10
aI4
aI0
aI7
aI5
aI18
aI-13
aa(lp183
V0020500542
p184
aVJAN 16, 2006
p185
aVBOS @ DET
p186
aVL
p187
aI37
aI8
aI16
aF0.5
aI0
aI3
aF0.0
aI5
aI7
aF0.714
aI3
aI4
aI7
aI7
aI2
aI1
aI3
aI3
aI21
aI-17
aa(lp188
V0020500554
p189
aVJAN 18, 2006
p190
aVBOS vs. MIN
p191
aVW
p192
aI43
aI8
aI17
aF0.471
aI4
aI6
aF0.667
aI5
aI9
aF0.556
aI3
aI5
aI8
aI3
aI0
aI0
aI3
aI1
aI25
aI6
aa(lp193
V0020500567
p194
aVJAN 20, 2006
p195
aVBOS vs. NJN
p196
aVW
p197
aI41
aI7
aI16
aF0.438
aI3
aI6
aF0.5
aI8
aI14
aF0.571
aI2
aI10
aI12
aI6
aI1
aI1
aI7
aI4
aI25
aI2
aa(lp198
V0020500579
p199
aVJAN 21, 2006
p200
aVBOS @ NJN
p201
aVL
p202
aI30
aI5
aI13
aF0.385
aI1
aI3
aF0.333
aI9
aI10
aF0.9
aI0
aI5
aI5
aI2
aI2
aI0
aI1
aI2
aI20
aI-17
aa(lp203
V0020500593
p204
aVJAN 23, 2006
p205
aVBOS vs. NOK
p206
aVW
p207
aI31
aI4
aI13
aF0.308
aI0
aI4
aF0.0
aI8
aI11
aF0.727
aI1
aI8
aI9
aI2
aI0
aI0
aI3
aI3
aI16
aI14
aa(lp208
V0020500606
p209
aVJAN 25, 2006
p210
aVBOS vs. WAS
p211
aVL
p212
aI42
aI10
aI18
aF0.556
aI0
aI2
aF0.0
aI5
aI13
aF0.385
aI1
aI10
aI11
aI6
aI4
aI1
aI2
aI0
aI25
aI4
aa(lp213
V0020500621
p214
aVJAN 27, 2006
p215
aVBOS vs. SAC
p216
aVW
p217
aI38
aI7
aI16
aF0.438
aI0
aI4
aF0.0
aI4
aI4
aF1.0
aI1
aI6
aI7
aI6
aI1
aI0
aI7
aI5
aI18
aI10
aa(lp218
V0020500643
p219
aVJAN 29, 2006
p220
aVBOS @ MIL
p221
aVL
p222
aI39
aI7
aI18
aF0.389
aI2
aI5
aF0.4
aI2
aI2
aF1.0
aI1
aI5
aI6
aI6
aI1
aI0
aI3
aI3
aI18
aI-6
aa(lp223
V0020500652
p224
aVJAN 30, 2006
p225
aVBOS @ MIN
p226
aVL
p227
aI40
aI7
aI23
aF0.304
aI0
aI4
aF0.0
aI7
aI11
aF0.636
aI1
aI3
aI4
aI1
aI4
aI1
aI1
aI1
aI21
aI-23
aa(lp228
V0020500665
p229
aVFEB 01, 2006
p230
aVBOS vs. PHX
p231
aVL
p232
aI41
aI14
aI27
aF0.519
aI4
aI8
aF0.5
aI8
aI12
aF0.667
aI0
aI3
aI3
aI1
aI3
aI1
aI4
aI3
aI40
aI-6
aa(lp233
V0020500678
p234
aVFEB 03, 2006
p235
aVBOS vs. LAC
p236
aVL
p237
aI35
aI5
aI15
aF0.333
aI1
aI4
aF0.25
aI7
aI9
aF0.778
aI0
aI5
aI5
aI2
aI2
aI0
aI2
aI1
aI18
aI-11
aa(lp238
V0020500686
p239
aVFEB 04, 2006
p240
aVBOS @ ORL
p241
aVL
p242
aI40
aI13
aI30
aF0.433
aI0
aI3
aF0.0
aI11
aI13
aF0.846
aI2
aI3
aI5
aI4
aI1
aI0
aI2
aI5
aI37
aI-6
aa(lp243
V0020500702
p244
aVFEB 06, 2006
p245
aVBOS @ MIA
p246
aVL
p247
aI40
aI8
aI21
aF0.381
aI1
aI4
aF0.25
aI14
aI16
aF0.875
aI1
aI3
aI4
aI4
aI1
aI0
aI2
aI1
aI31
aI-18
aa(lp248
V0020500727
p249
aVFEB 10, 2006
p250
aVBOS vs. POR
p251
aVW
p252
aI33
aI13
aI20
aF0.65
aI3
aI6
aF0.5
aI6
aI8
aF0.75
aI0
aI1
aI1
aI4
aI6
aI0
aI4
aI2
aI35
aI32
aa(lp253
V0020500746
p254
aVFEB 12, 2006
p255
aVBOS vs. ORL
p256
aVW
p257
aI46
aI10
aI21
aF0.476
aI0
aI1
aF0.0
aI11
aI14
aF0.786
aI1
aI3
aI4
aI4
aI1
aI0
aI3
aI4
aI31
aI5
aa(lp258
V0020500767
p259
aVFEB 15, 2006
p260
aVBOS vs. CLE
p261
aVL
p262
aI54
aI17
aI36
aF0.472
aI0
aI4
aF0.0
aI16
aI20
aF0.8
aI0
aI7
aI7
aI8
aI0
aI0
aI4
aI6
aI50
aI-1
aa(lp263
V0020500788
p264
aVFEB 21, 2006
p265
aVBOS @ UTA
p266
aVW
p267
aI31
aI10
aI15
aF0.667
aI1
aI1
aF1.0
aI9
aI11
aF0.818
aI0
aI2
aI2
aI4
aI1
aI0
aI2
aI5
aI30
aI6
aa(lp268
V0020500798
p269
aVFEB 22, 2006
p270
aVBOS @ PHX
p271
aVL
p272
aI38
aI8
aI28
aF0.286
aI0
aI6
aF0.0
aI4
aI8
aF0.5
aI2
aI5
aI7
aI6
aI1
aI1
aI5
aI0
aI20
aI-22
aa(lp273
V0020500812
p274
aVFEB 24, 2006
p275
aVBOS @ POR
p276
aVW
p277
aI40
aI14
aI25
aF0.56
aI2
aI4
aF0.5
aI7
aI8
aF0.875
aI1
aI6
aI7
aI7
aI0
aI1
aI3
aI2
aI37
aI6
aa(lp278
V0020500826
p279
aVFEB 26, 2006
p280
aVBOS @ LAL
p281
aVW
p282
aI41
aI12
aI20
aF0.6
aI1
aI2
aF0.5
aI14
aI21
aF0.667
aI1
aI6
aI7
aI4
aI2
aI0
aI6
aI5
aI39
aI3
aa(lp283
V0020500845
p284
aVMAR 01, 2006
p285
aVBOS vs. MIA
p286
aVL
p287
aI46
aI10
aI22
aF0.455
aI2
aI6
aF0.333
aI16
aI18
aF0.889
aI1
aI5
aI6
aI3
aI2
aI0
aI2
aI3
aI38
aI-3
aa(lp288
V0020500859
p289
aVMAR 03, 2006
p290
aVBOS vs. IND
p291
aVW
p292
aI40
aI13
aI25
aF0.52
aI2
aI3
aF0.667
aI3
aI8
aF0.375
aI0
aI4
aI4
aI8
aI3
aI0
aI2
aI1
aI31
aI0
aa(lp293
V0020500874
p294
aVMAR 05, 2006
p295
aVBOS @ TOR
p296
aVL
p297
aI39
aI12
aI21
aF0.571
aI1
aI3
aF0.333
aI8
aI8
aF1.0
aI2
aI5
aI7
aI5
aI0
aI0
aI6
aI4
aI33
aI-8
aa(lp298
V0020500889
p299
aVMAR 07, 2006
p300
aVBOS @ WAS
p301
aVW
p302
aI42
aI8
aI20
aF0.4
aI3
aI7
aF0.429
aI12
aI14
aF0.857
aI1
aI4
aI5
aI4
aI1
aI0
aI7
aI4
aI31
aI-7
aa(lp303
V0020500898
p304
aVMAR 08, 2006
p305
aVBOS vs. PHI
p306
aVW
p307
aI44
aI9
aI18
aF0.5
aI2
aI4
aF0.5
aI11
aI13
aF0.846
aI1
aI11
aI12
aI10
aI0
aI3
aI4
aI4
aI31
aI9
aa(lp308
V0020500912
p309
aVMAR 10, 2006
p310
aVBOS vs. MIL
p311
aVL
p312
aI43
aI6
aI12
aF0.5
aI0
aI3
aF0.0
aI12
aI17
aF0.706
aI0
aI3
aI3
aI8
aI0
aI1
aI1
aI3
aI24
aI-11
aa(lp313
V0020500926
p314
aVMAR 12, 2006
p315
aVBOS vs. DEN
p316
aVW
p317
aI37
aI15
aI23
aF0.652
aI1
aI4
aF0.25
aI5
aI8
aF0.625
aI0
aI1
aI1
aI4
aI3
aI0
aI3
aI3
aI36
aI9
aa(lp318
V0020500944
p319
aVMAR 14, 2006
p320
aVBOS @ MEM
p321
aVL
p322
aI34
aI6
aI14
aF0.429
aI2
aI3
aF0.667
aI1
aI1
aF1.0
aI0
aI2
aI2
aI3
aI1
aI2
aI5
aI2
aI15
aI-21
aa(lp323
V0020500960
p324
aVMAR 16, 2006
p325
aVBOS @ MIA
p326
aVL
p327
aI42
aI12
aI26
aF0.462
aI4
aI8
aF0.5
aI6
aI9
aF0.667
aI1
aI3
aI4
aI8
aI3
aI0
aI3
aI1
aI34
aI-2
aa(lp328
V0020500966
p329
aVMAR 17, 2006
p330
aVBOS @ ORL
p331
aVL
p332
aI41
aI5
aI18
aF0.278
aI0
aI3
aF0.0
aI9
aI10
aF0.9
aI1
aI6
aI7
aI5
aI1
aI0
aI5
aI2
aI19
aI-5
aa(lp333
V0020500982
p334
aVMAR 19, 2006
p335
aVBOS @ IND
p336
aVW
p337
aI39
aI9
aI20
aF0.45
aI1
aI3
aF0.333
aI3
aI6
aF0.5
aI0
aI6
aI6
aI6
aI0
aI0
aI4
aI3
aI22
aI8
aa(lp338
V0020500988
p339
aVMAR 20, 2006
p340
aVBOS vs. LAL
p341
aVL
p342
aI37
aI8
aI19
aF0.421
aI2
aI8
aF0.25
aI8
aI11
aF0.727
aI2
aI7
aI9
aI2
aI1
aI1
aI5
aI6
aI26
aI1
aa(lp343
V0020501006
p344
aVMAR 22, 2006
p345
aVBOS vs. TOR
p346
aVW
p347
aI36
aI9
aI18
aF0.5
aI2
aI6
aF0.333
aI12
aI17
aF0.706
aI0
aI8
aI8
aI4
aI0
aI0
aI5
aI1
aI32
aI10
aa(lp348
V0020501022
p349
aVMAR 24, 2006
p350
aVBOS @ CLE
p351
aVL
p352
aI38
aI6
aI20
aF0.3
aI4
aI6
aF0.667
aI8
aI9
aF0.889
aI0
aI5
aI5
aI5
aI1
aI2
aI4
aI2
aI24
aI-4
aa(lp353
V0020501031
p354
aVMAR 26, 2006
p355
aVBOS vs. CHI
p356
aVL
p357
aI42
aI8
aI21
aF0.381
aI2
aI6
aF0.333
aI6
aI6
aF1.0
aI1
aI7
aI8
aI8
aI0
aI1
aI4
aI4
aI24
aI6
aa(lp358
V0020501059
p359
aVMAR 29, 2006
p360
aVBOS @ NYK
p361
aVW
p362
aI29
aI7
aI14
aF0.5
aI0
aI2
aF0.0
aI8
aI10
aF0.8
aI1
aI3
aI4
aI4
aI3
aI0
aI3
aI2
aI22
aI27
aa(lp363
V0020501080
p364
aVAPR 01, 2006
p365
aVBOS @ CHI
p366
aVL
p367
aI38
aI4
aI17
aF0.235
aI0
aI4
aF0.0
aI10
aI11
aF0.909
aI1
aI6
aI7
aI9
aI1
aI0
aI2
aI5
aI18
aI-3
aa(lp368
V0020501095
p369
aVAPR 04, 2006
p370
aVBOS @ TOR
p371
aVW
p372
aI31
aI2
aI10
aF0.2
aI0
aI3
aF0.0
aI18
aI24
aF0.75
aI2
aI6
aI8
aI2
aI1
aI0
aI5
aI2
aI22
aI1
aa(lp373
V0020501108
p374
aVAPR 05, 2006
p375
aVBOS vs. WAS
p376
aVL
p377
aI37
aI11
aI17
aF0.647
aI3
aI5
aF0.6
aI4
aI5
aF0.8
aI2
aI5
aI7
aI3
aI2
aI0
aI6
aI3
aI29
aI-15
aa(lp378
V0020501121
p379
aVAPR 07, 2006
p380
aVBOS @ PHI
p381
aVW
p382
aI42
aI9
aI19
aF0.474
aI3
aI7
aF0.429
aI12
aI14
aF0.857
aI1
aI11
aI12
aI6
aI3
aI1
aI4
aI1
aI33
aI7
aa(lp383
V0020501139
p384
aVAPR 09, 2006
p385
aVBOS vs. NYK
p386
aVL
p387
aI33
aI6
aI14
aF0.429
aI1
aI4
aF0.25
aI6
aI8
aF0.75
aI2
aI5
aI7
aI6
aI1
aI0
aI4
aI3
aI19
aI1
aa(lp388
V0020501164
p389
aVAPR 12, 2006
p390
aVBOS @ IND
p391
aVL
p392
aI38
aI11
aI17
aF0.647
aI1
aI3
aF0.333
aI7
aI9
aF0.778
aI0
aI1
aI1
aI3
aI0
aI0
aI2
aI3
aI30
aI2
aa(lp393
V0020501179
p394
aVAPR 14, 2006
p395
aVBOS vs. NJN
p396
aVL
p397
aI36
aI5
aI16
aF0.313
aI1
aI5
aF0.2
aI11
aI17
aF0.647
aI0
aI6
aI6
aI2
aI0
aI0
aI4
aI1
aI22
aI-5
aasS'name'
p398
VPaul Pierce
p399
sS'weight'
p400
V235
p401
sS'age'
p402
I28
sS'experience'
p403
I7
sS'height'
p404
V6-7
p405
sS'position'
p406
VForward
p407
s.