(dp0
S'age'
p1
I25
sS'stats'
p2
(lp3
(lp4
V0020500002
p5
aVNOV 01, 2005
p6
aVDEN @ SAS
p7
aVL
p8
aI7
aI1
aI2
aF0.5
aI0
aI1
aF0.0
aI0
aI0
aF0.0
aI0
aI0
aI0
aI0
aI0
aI1
aI0
aI0
aI2
aI-1
aa(lp9
V0020500016
p10
aVNOV 02, 2005
p11
aVDEN vs. LAL
p12
aVL
p13
aI5
aI1
aI3
aF0.333
aI0
aI1
aF0.0
aI0
aI0
aF0.0
aI0
aI0
aI0
aI1
aI0
aI0
aI0
aI0
aI2
aI0
aa(lp14
V0020500027
p15
aVNOV 04, 2005
p16
aVDEN vs. POR
p17
aVW
p18
aI8
aI0
aI1
aF0.0
aI0
aI0
aF0.0
aI0
aI0
aF0.0
aI1
aI1
aI2
aI0
aI0
aI0
aI1
aI0
aI0
aI14
aa(lp19
V0020500045
p20
aVNOV 06, 2005
p21
aVDEN @ LAL
p22
aVL
p23
aI1
aI0
aI0
aF0.0
aI0
aI0
aF0.0
aI0
aI0
aF0.0
aI0
aI0
aI0
aI0
aI0
aI0
aI0
aI0
aI0
aI0
aa(lp24
V0020500067
p25
aVNOV 09, 2005
p26
aVDEN vs. SAC
p27
aVW
p28
aI22
aI3
aI8
aF0.375
aI0
aI4
aF0.0
aI0
aI0
aF0.0
aI3
aI2
aI5
aI2
aI1
aI0
aI2
aI2
aI6
aI11
aa(lp29
V0020500078
p30
aVNOV 11, 2005
p31
aVDEN @ SAC
p32
aVL
p33
aI16
aI1
aI5
aF0.2
aI0
aI3
aF0.0
aI0
aI0
aF0.0
aI1
aI3
aI4
aI1
aI0
aI0
aI1
aI2
aI2
aI-8
aa(lp34
V0020500093
p35
aVNOV 13, 2005
p36
aVDEN vs. MIN
p37
aVW
p38
aI33
aI7
aI12
aF0.583
aI3
aI5
aF0.6
aI0
aI0
aF0.0
aI0
aI4
aI4
aI5
aI1
aI2
aI1
aI0
aI17
aI20
aa(lp39
V0020500105
p40
aVNOV 15, 2005
p41
aVDEN @ DAL
p42
aVL
p43
aI26
aI2
aI8
aF0.25
aI0
aI4
aF0.0
aI4
aI4
aF1.0
aI2
aI2
aI4
aI0
aI2
aI2
aI1
aI2
aI8
aI18
aa(lp44
V0020500112
p45
aVNOV 16, 2005
p46
aVDEN @ NOK
p47
aVW
p48
aI18
aI1
aI2
aF0.5
aI0
aI0
aF0.0
aI0
aI0
aF0.0
aI0
aI1
aI1
aI2
aI0
aI0
aI2
aI1
aI2
aI-3
aa(lp49
V0020500125
p50
aVNOV 18, 2005
p51
aVDEN vs. NYK
p52
aVW
p53
aI20
aI2
aI7
aF0.286
aI1
aI3
aF0.333
aI0
aI0
aF0.0
aI1
aI4
aI5
aI0
aI0
aI1
aI2
aI1
aI5
aI5
aa(lp54
V0020500143
p55
aVNOV 20, 2005
p56
aVDEN vs. MEM
p57
aVW
p58
aI12
aI2
aI7
aF0.286
aI0
aI3
aF0.0
aI0
aI0
aF0.0
aI1
aI1
aI2
aI1
aI1
aI2
aI1
aI0
aI4
aI-2
aa(lp59
V0020500150
p60
aVNOV 22, 2005
p61
aVDEN @ WAS
p62
aVW
p63
aI9
aI0
aI1
aF0.0
aI0
aI1
aF0.0
aI0
aI0
aF0.0
aI0
aI0
aI0
aI2
aI0
aI0
aI0
aI3
aI0
aI-5
aa(lp64
V0020500160
p65
aVNOV 23, 2005
p66
aVDEN @ DET
p67
aVL
p68
aI23
aI2
aI7
aF0.286
aI1
aI1
aF1.0
aI0
aI0
aF0.0
aI0
aI3
aI3
aI3
aI0
aI1
aI1
aI5
aI5
aI-1
aa(lp69
V0020500177
p70
aVNOV 25, 2005
p71
aVDEN vs. LAC
p72
aVW
p73
aI12
aI2
aI4
aF0.5
aI1
aI3
aF0.333
aI0
aI0
aF0.0
aI0
aI2
aI2
aI2
aI1
aI0
aI1
aI4
aI5
aI2
aa(lp74
V0020500196
p75
aVNOV 28, 2005
p76
aVDEN vs. NJN
p77
aVL
p78
aI13
aI1
aI3
aF0.333
aI0
aI2
aF0.0
aI2
aI2
aF1.0
aI1
aI2
aI3
aI1
aI1
aI1
aI0
aI0
aI4
aI-3
aa(lp79
V0020500213
p80
aVNOV 30, 2005
p81
aVDEN vs. NOK
p82
aVL
p83
aI20
aI4
aI7
aF0.571
aI0
aI1
aF0.0
aI0
aI0
aF0.0
aI1
aI2
aI3
aI1
aI2
aI0
aI1
aI1
aI8
aI-6
aa(lp84
V0020500225
p85
aVDEC 02, 2005
p86
aVDEN @ PHX
p87
aVL
p88
aI13
aI2
aI5
aF0.4
aI0
aI2
aF0.0
aI0
aI0
aF0.0
aI0
aI1
aI1
aI0
aI1
aI0
aI1
aI4
aI4
aI-4
aa(lp89
V0020500237
p90
aVDEC 03, 2005
p91
aVDEN vs. MIA
p92
aVW
p93
aI17
aI3
aI4
aF0.75
aI0
aI1
aF0.0
aI0
aI0
aF0.0
aI0
aI1
aI1
aI1
aI0
aI0
aI0
aI2
aI6
aI-4
aa(lp94
V0020500254
p95
aVDEC 06, 2005
p96
aVDEN vs. ATL
p97
aVW
p98
aI7
aI2
aI3
aF0.667
aI0
aI0
aF0.0
aI1
aI1
aF1.0
aI1
aI0
aI1
aI0
aI1
aI1
aI1
aI0
aI5
aI-4
aa(lp99
V0020500302
p100
aVDEC 13, 2005
p101
aVDEN @ CHA
p102
aVW
p103
aI18
aI1
aI2
aF0.5
aI0
aI1
aF0.0
aI3
aI5
aF0.6
aI0
aI1
aI1
aI1
aI1
aI0
aI0
aI3
aI5
aI-4
aa(lp104
V0020500319
p105
aVDEC 15, 2005
p106
aVDEN @ CLE
p107
aVL
p108
aI6
aI0
aI2
aF0.0
aI0
aI1
aF0.0
aI0
aI0
aF0.0
aI0
aI0
aI0
aI0
aI0
aI0
aI0
aI1
aI0
aI-16
aa(lp109
V0020500327
p110
aVDEC 16, 2005
p111
aVDEN @ NJN
p112
aVL
p113
aI26
aI6
aI10
aF0.6
aI3
aI4
aF0.75
aI1
aI3
aF0.333
aI0
aI3
aI3
aI0
aI1
aI0
aI2
aI1
aI16
aI11
aa(lp114
V0020500342
p115
aVDEC 18, 2005
p116
aVDEN @ ATL
p117
aVL
p118
aI36
aI6
aI12
aF0.5
aI3
aI6
aF0.5
aI0
aI0
aF0.0
aI1
aI4
aI5
aI0
aI0
aI0
aI1
aI2
aI15
aI-2
aa(lp119
V0020500368
p120
aVDEC 21, 2005
p121
aVDEN vs. WAS
p122
aVL
p123
aI35
aI5
aI8
aF0.625
aI1
aI3
aF0.333
aI1
aI2
aF0.5
aI0
aI1
aI1
aI2
aI2
aI0
aI0
aI5
aI12
aI4
aa(lp124
V0020500382
p125
aVDEC 23, 2005
p126
aVDEN vs. HOU
p127
aVW
p128
aI24
aI4
aI10
aF0.4
aI2
aI4
aF0.5
aI0
aI0
aF0.0
aI1
aI5
aI6
aI3
aI0
aI0
aI1
aI2
aI10
aI4
aa(lp129
V0020500396
p130
aVDEC 26, 2005
p131
aVDEN @ GSW
p132
aVW
p133
aI25
aI5
aI8
aF0.625
aI1
aI3
aF0.333
aI1
aI2
aF0.5
aI0
aI2
aI2
aI2
aI1
aI1
aI1
aI1
aI12
aI1
aa(lp134
V0020500403
p135
aVDEC 27, 2005
p136
aVDEN vs. PHI
p137
aVL
p138
aI16
aI1
aI4
aF0.25
aI1
aI3
aF0.333
aI0
aI0
aF0.0
aI0
aI1
aI1
aI0
aI0
aI1
aI0
aI2
aI3
aI-6
aa(lp139
V0020500483
p140
aVJAN 08, 2006
p141
aVDEN @ HOU
p142
aVW
p143
aI6
aI0
aI3
aF0.0
aI0
aI2
aF0.0
aI2
aI2
aF1.0
aI0
aI0
aI0
aI0
aI0
aI0
aI1
aI3
aI2
aI-2
aa(lp144
V0020500498
p145
aVJAN 10, 2006
p146
aVDEN vs. PHX
p147
aVW
p148
aI21
aI2
aI6
aF0.333
aI1
aI4
aF0.25
aI0
aI0
aF0.0
aI0
aI2
aI2
aI2
aI0
aI0
aI1
aI3
aI5
aI-8
aa(lp149
V0020500519
p150
aVJAN 13, 2006
p151
aVDEN @ MIN
p152
aVL
p153
aI26
aI1
aI3
aF0.333
aI1
aI3
aF0.333
aI0
aI0
aF0.0
aI0
aI4
aI4
aI1
aI0
aI1
aI2
aI2
aI3
aI-13
aa(lp154
V0020500525
p155
aVJAN 14, 2006
p156
aVDEN @ MIL
p157
aVW
p158
aI6
aI0
aI0
aF0.0
aI0
aI0
aF0.0
aI0
aI0
aF0.0
aI0
aI0
aI0
aI0
aI0
aI0
aI0
aI1
aI0
aI5
aa(lp159
V0020500572
p160
aVJAN 20, 2006
p161
aVDEN vs. UTA
p162
aVW
p163
aI9
aI1
aI4
aF0.25
aI1
aI1
aF1.0
aI3
aI4
aF0.75
aI0
aI2
aI2
aI0
aI0
aI0
aI0
aI0
aI6
aI3
aa(lp164
V0020500639
p165
aVJAN 28, 2006
p166
aVDEN @ LAC
p167
aVL
p168
aI10
aI2
aI2
aF1.0
aI1
aI1
aF1.0
aI1
aI2
aF0.5
aI0
aI1
aI1
aI1
aI2
aI0
aI4
aI1
aI6
aI-4
aa(lp169
V0020500705
p170
aVFEB 06, 2006
p171
aVDEN @ GSW
p172
aVL
p173
aI5
aI0
aI0
aF0.0
aI0
aI0
aF0.0
aI0
aI0
aF0.0
aI0
aI0
aI0
aI0
aI0
aI0
aI1
aI1
aI0
aI-6
aa(lp174
V0020500774
p175
aVFEB 15, 2006
p176
aVDEN vs. PHX
p177
aVL
p178
aI13
aI3
aI6
aF0.5
aI0
aI3
aF0.0
aI1
aI1
aF1.0
aI0
aI0
aI0
aI1
aI0
aI0
aI1
aI1
aI7
aI10
aa(lp179
V0020500808
p180
aVFEB 24, 2006
p181
aVDEN @ MIN
p182
aVW
p183
aI41
aI7
aI15
aF0.467
aI3
aI8
aF0.375
aI0
aI0
aF0.0
aI1
aI2
aI3
aI2
aI1
aI0
aI0
aI1
aI17
aI4
aa(lp184
V0020500835
p185
aVFEB 27, 2006
p186
aVDEN vs. MIL
p187
aVL
p188
aI27
aI2
aI6
aF0.333
aI1
aI5
aF0.2
aI0
aI0
aF0.0
aI0
aI1
aI1
aI0
aI0
aI2
aI0
aI2
aI5
aI-6
aa(lp189
V0020500849
p190
aVMAR 01, 2006
p191
aVDEN vs. DET
p192
aVW
p193
aI14
aI0
aI3
aF0.0
aI0
aI2
aF0.0
aI0
aI0
aF0.0
aI0
aI1
aI1
aI1
aI0
aI1
aI0
aI1
aI0
aI5
aa(lp194
V0020500861
p195
aVMAR 03, 2006
p196
aVDEN @ HOU
p197
aVL
p198
aI1
aI0
aI0
aF0.0
aI0
aI0
aF0.0
aI0
aI0
aF0.0
aI0
aI0
aI0
aI0
aI0
aI0
aI0
aI0
aI0
aI0
aa(lp199
V0020500872
p200
aVMAR 04, 2006
p201
aVDEN vs. ORL
p202
aVW
p203
aI2
aI2
aI2
aF1.0
aI0
aI0
aF0.0
aI0
aI0
aF0.0
aI0
aI1
aI1
aI0
aI0
aI0
aI0
aI0
aI4
aI1
aa(lp204
V0020500886
p205
aVMAR 06, 2006
p206
aVDEN vs. MEM
p207
aVW
p208
aI2
aI1
aI1
aF1.0
aI1
aI1
aF1.0
aI0
aI0
aF0.0
aI0
aI0
aI0
aI0
aI0
aI1
aI0
aI0
aI3
aI0
aa(lp209
V0020500907
p210
aVMAR 09, 2006
p211
aVDEN @ PHI
p212
aVW
p213
aI20
aI2
aI4
aF0.5
aI2
aI3
aF0.667
aI2
aI2
aF1.0
aI0
aI0
aI0
aI2
aI0
aI3
aI1
aI3
aI8
aI19
aa(lp214
V0020500910
p215
aVMAR 10, 2006
p216
aVDEN @ TOR
p217
aVW
p218
aI20
aI3
aI7
aF0.429
aI1
aI4
aF0.25
aI1
aI1
aF1.0
aI0
aI0
aI0
aI2
aI0
aI1
aI2
aI3
aI8
aI13
aa(lp219
V0020500971
p220
aVMAR 17, 2006
p221
aVDEN @ MEM
p222
aVL
p223
aI15
aI3
aI5
aF0.6
aI3
aI5
aF0.6
aI0
aI0
aF0.0
aI0
aI1
aI1
aI0
aI2
aI0
aI1
aI1
aI9
aI10
aa(lp224
V0020500976
p225
aVMAR 18, 2006
p226
aVDEN @ NOK
p227
aVW
p228
aI2
aI0
aI0
aF0.0
aI0
aI0
aF0.0
aI0
aI0
aF0.0
aI0
aI0
aI0
aI1
aI0
aI0
aI0
aI0
aI0
aI-2
aa(lp229
V0020501024
p230
aVMAR 24, 2006
p231
aVDEN vs. SEA
p232
aVW
p233
aI15
aI6
aI9
aF0.667
aI4
aI7
aF0.571
aI0
aI0
aF0.0
aI0
aI2
aI2
aI1
aI0
aI0
aI2
aI3
aI16
aI2
aa(lp234
V0020501030
p235
aVMAR 25, 2006
p236
aVDEN @ PHX
p237
aVL
p238
aI21
aI2
aI6
aF0.333
aI0
aI2
aF0.0
aI2
aI2
aF1.0
aI0
aI1
aI1
aI0
aI0
aI0
aI2
aI1
aI6
aI-10
aa(lp239
V0020501062
p240
aVMAR 29, 2006
p241
aVDEN vs. UTA
p242
aVL
p243
aI18
aI2
aI8
aF0.25
aI2
aI6
aF0.333
aI0
aI0
aF0.0
aI0
aI0
aI0
aI0
aI0
aI0
aI0
aI0
aI6
aI-4
aa(lp244
V0020501075
p245
aVMAR 31, 2006
p246
aVDEN vs. MIN
p247
aVW
p248
aI1
aI0
aI0
aF0.0
aI0
aI0
aF0.0
aI0
aI0
aF0.0
aI0
aI0
aI0
aI0
aI0
aI0
aI0
aI0
aI0
aI-5
aa(lp249
V0020501087
p250
aVAPR 02, 2006
p251
aVDEN @ DAL
p252
aVL
p253
aI4
aI0
aI0
aF0.0
aI0
aI0
aF0.0
aI2
aI2
aF1.0
aI0
aI0
aI0
aI1
aI0
aI0
aI0
aI1
aI2
aI-6
aa(lp254
V0020501107
p255
aVAPR 04, 2006
p256
aVDEN @ LAC
p257
aVL
p258
aI20
aI8
aI13
aF0.615
aI3
aI5
aF0.6
aI3
aI3
aF1.0
aI1
aI2
aI3
aI0
aI0
aI1
aI0
aI2
aI22
aI-5
aa(lp259
V0020501120
p260
aVAPR 06, 2006
p261
aVDEN vs. LAL
p262
aVW
p263
aI4
aI0
aI1
aF0.0
aI0
aI1
aF0.0
aI0
aI0
aF0.0
aI0
aI0
aI0
aI0
aI0
aI1
aI0
aI2
aI0
aI-10
aa(lp264
V0020501137
p265
aVAPR 08, 2006
p266
aVDEN vs. GSW
p267
aVW
p268
aI10
aI2
aI4
aF0.5
aI1
aI2
aF0.5
aI0
aI0
aF0.0
aI0
aI1
aI1
aI1
aI0
aI1
aI1
aI1
aI5
aI7
aa(lp269
V0020501154
p270
aVAPR 10, 2006
p271
aVDEN @ POR
p272
aVW
p273
aI22
aI4
aI8
aF0.5
aI3
aI6
aF0.5
aI2
aI2
aF1.0
aI0
aI3
aI3
aI3
aI1
aI0
aI0
aI1
aI13
aI-10
aa(lp274
V0020501171
p275
aVAPR 12, 2006
p276
aVDEN @ UTA
p277
aVL
p278
aI19
aI2
aI7
aF0.286
aI2
aI6
aF0.333
aI0
aI0
aF0.0
aI0
aI0
aI0
aI1
aI1
aI0
aI0
aI2
aI6
aI-19
aa(lp279
V0020501192
p280
aVAPR 15, 2006
p281
aVDEN vs. SAC
p282
aVL
p283
aI14
aI1
aI6
aF0.167
aI1
aI4
aF0.25
aI0
aI0
aF0.0
aI0
aI0
aI0
aI1
aI0
aI0
aI0
aI1
aI3
aI6
aa(lp284
V0020501209
p285
aVAPR 17, 2006
p286
aVDEN vs. HOU
p287
aVL
p288
aI30
aI4
aI12
aF0.333
aI2
aI6
aF0.333
aI2
aI2
aF1.0
aI0
aI4
aI4
aI2
aI1
aI0
aI1
aI2
aI12
aI-18
aa(lp289
V0020501230
p290
aVAPR 19, 2006
p291
aVDEN @ SEA
p292
aVL
p293
aI38
aI8
aI20
aF0.4
aI6
aI13
aF0.462
aI0
aI0
aF0.0
aI3
aI3
aI6
aI2
aI1
aI1
aI5
aI3
aI22
aI-7
aasS'name'
p294
VDerMarr Johnson
p295
sS'experience'
p296
I5
s.