(dp0
S'stats'
p1
(lp2
(lp3
V0020500016
p4
aVNOV 02, 2005
p5
aVLAL @ DEN
p6
aVW
p7
aI28
aI1
aI5
aF0.2
aI0
aI0
aF0.0
aI5
aI10
aF0.5
aI0
aI2
aI2
aI0
aI0
aI4
aI4
aI5
aI7
aI12
aa(lp8
V0020500019
p9
aVNOV 03, 2005
p10
aVLAL vs. PHX
p11
aVL
p12
aI14
aI1
aI2
aF0.5
aI0
aI0
aF0.0
aI1
aI2
aF0.5
aI0
aI1
aI1
aI0
aI0
aI0
aI0
aI2
aI3
aI-9
aa(lp13
V0020500045
p14
aVNOV 06, 2005
p15
aVLAL vs. DEN
p16
aVW
p17
aI33
aI6
aI10
aF0.6
aI0
aI0
aF0.0
aI8
aI10
aF0.8
aI6
aI7
aI13
aI2
aI1
aI0
aI2
aI3
aI20
aI21
aa(lp18
V0020500051
p19
aVNOV 08, 2005
p20
aVLAL @ ATL
p21
aVW
p22
aI12
aI1
aI1
aF1.0
aI0
aI0
aF0.0
aI0
aI0
aF0.0
aI0
aI1
aI1
aI3
aI0
aI0
aI1
aI4
aI2
aI-1
aa(lp23
V0020500064
p24
aVNOV 09, 2005
p25
aVLAL @ MIN
p26
aVL
p27
aI22
aI1
aI3
aF0.333
aI0
aI0
aF0.0
aI0
aI0
aF0.0
aI0
aI3
aI3
aI0
aI0
aI0
aI3
aI3
aI2
aI2
aa(lp28
V0020500077
p29
aVNOV 11, 2005
p30
aVLAL @ PHI
p31
aVL
p32
aI37
aI8
aI12
aF0.667
aI0
aI0
aF0.0
aI4
aI4
aF1.0
aI5
aI4
aI9
aI2
aI0
aI0
aI3
aI4
aI20
aI-4
aa(lp33
V0020500095
p34
aVNOV 14, 2005
p35
aVLAL @ MEM
p36
aVL
p37
aI30
aI4
aI10
aF0.4
aI0
aI0
aF0.0
aI3
aI3
aF1.0
aI5
aI5
aI10
aI1
aI0
aI2
aI1
aI3
aI11
aI-15
aa(lp38
V0020500114
p39
aVNOV 16, 2005
p40
aVLAL vs. NYK
p41
aVW
p42
aI38
aI6
aI11
aF0.545
aI0
aI0
aF0.0
aI2
aI3
aF0.667
aI4
aI5
aI9
aI1
aI0
aI1
aI4
aI4
aI14
aI-5
aa(lp43
V0020500130
p44
aVNOV 18, 2005
p45
aVLAL vs. LAC
p46
aVL
p47
aI36
aI4
aI10
aF0.4
aI0
aI0
aF0.0
aI4
aI4
aF1.0
aI3
aI6
aI9
aI1
aI0
aI2
aI3
aI4
aI12
aI-6
aa(lp48
V0020500145
p49
aVNOV 20, 2005
p50
aVLAL vs. CHI
p51
aVL
p52
aI31
aI3
aI7
aF0.429
aI0
aI0
aF0.0
aI7
aI8
aF0.875
aI2
aI3
aI5
aI1
aI0
aI1
aI1
aI4
aI13
aI-5
aa(lp53
V0020500168
p54
aVNOV 24, 2005
p55
aVLAL vs. SEA
p56
aVW
p57
aI31
aI4
aI8
aF0.5
aI0
aI0
aF0.0
aI4
aI8
aF0.5
aI4
aI1
aI5
aI0
aI0
aI1
aI2
aI5
aI12
aI15
aa(lp58
V0020500192
p59
aVNOV 27, 2005
p60
aVLAL vs. NJN
p61
aVL
p62
aI25
aI3
aI8
aF0.375
aI0
aI0
aF0.0
aI0
aI2
aF0.0
aI5
aI5
aI10
aI0
aI0
aI1
aI3
aI6
aI6
aI-4
aa(lp63
V0020500203
p64
aVNOV 29, 2005
p65
aVLAL @ SAS
p66
aVL
p67
aI24
aI2
aI6
aF0.333
aI0
aI0
aF0.0
aI2
aI4
aF0.5
aI2
aI0
aI2
aI1
aI0
aI0
aI0
aI2
aI6
aI-13
aa(lp68
V0020500218
p69
aVDEC 01, 2005
p70
aVLAL @ UTA
p71
aVW
p72
aI36
aI3
aI5
aF0.6
aI0
aI0
aF0.0
aI4
aI4
aF1.0
aI2
aI5
aI7
aI1
aI0
aI2
aI2
aI5
aI10
aI18
aa(lp73
V0020500228
p74
aVDEC 02, 2005
p75
aVLAL vs. MIN
p76
aVL
p77
aI23
aI2
aI4
aF0.5
aI0
aI0
aF0.0
aI0
aI0
aF0.0
aI1
aI3
aI4
aI1
aI0
aI2
aI1
aI6
aI4
aI1
aa(lp78
V0020500244
p79
aVDEC 04, 2005
p80
aVLAL vs. CHA
p81
aVW
p82
aI38
aI9
aI12
aF0.75
aI0
aI0
aF0.0
aI3
aI4
aF0.75
aI4
aI5
aI9
aI1
aI0
aI3
aI3
aI4
aI21
aI4
aa(lp83
V0020500251
p84
aVDEC 06, 2005
p85
aVLAL @ MIL
p86
aVW
p87
aI29
aI5
aI11
aF0.455
aI0
aI0
aF0.0
aI3
aI4
aF0.75
aI4
aI3
aI7
aI0
aI0
aI0
aI2
aI4
aI13
aI6
aa(lp88
V0020500258
p89
aVDEC 07, 2005
p90
aVLAL @ TOR
p91
aVW
p92
aI15
aI2
aI4
aF0.5
aI0
aI0
aF0.0
aI0
aI0
aF0.0
aI1
aI7
aI8
aI0
aI0
aI2
aI0
aI4
aI4
aI2
aa(lp93
V0020500274
p94
aVDEC 09, 2005
p95
aVLAL @ CHI
p96
aVW
p97
aI29
aI4
aI8
aF0.5
aI0
aI0
aF0.0
aI2
aI2
aF1.0
aI2
aI5
aI7
aI1
aI0
aI2
aI1
aI5
aI10
aI10
aa(lp98
V0020500286
p99
aVDEC 10, 2005
p100
aVLAL @ MIN
p101
aVL
p102
aI33
aI6
aI9
aF0.667
aI0
aI0
aF0.0
aI3
aI4
aF0.75
aI5
aI6
aI11
aI1
aI0
aI0
aI1
aI4
aI15
aI-11
aa(lp103
V0020500297
p104
aVDEC 12, 2005
p105
aVLAL @ DAL
p106
aVW
p107
aI18
aI4
aI6
aF0.667
aI0
aI0
aF0.0
aI2
aI2
aF1.0
aI1
aI1
aI2
aI1
aI1
aI0
aI0
aI3
aI10
aI-13
aa(lp108
V0020500314
p109
aVDEC 14, 2005
p110
aVLAL @ MEM
p111
aVW
p112
aI20
aI3
aI8
aF0.375
aI0
aI0
aF0.0
aI1
aI2
aF0.5
aI4
aI4
aI8
aI0
aI0
aI1
aI2
aI3
aI7
aI18
aa(lp113
V0020500332
p114
aVDEC 16, 2005
p115
aVLAL vs. WAS
p116
aVW
p117
aI22
aI0
aI2
aF0.0
aI0
aI0
aF0.0
aI3
aI4
aF0.75
aI3
aI6
aI9
aI0
aI0
aI4
aI2
aI2
aI3
aI9
aa(lp118
V0020500346
p119
aVDEC 18, 2005
p120
aVLAL vs. HOU
p121
aVL
p122
aI20
aI0
aI5
aF0.0
aI0
aI0
aF0.0
aI1
aI2
aF0.5
aI0
aI6
aI6
aI1
aI1
aI2
aI1
aI3
aI1
aI-5
aa(lp123
V0020500359
p124
aVDEC 20, 2005
p125
aVLAL vs. DAL
p126
aVW
p127
aI25
aI3
aI5
aF0.6
aI0
aI0
aF0.0
aI3
aI5
aF0.6
aI0
aI8
aI8
aI2
aI0
aI1
aI2
aI4
aI9
aI28
aa(lp128
V0020500372
p129
aVDEC 23, 2005
p130
aVLAL @ ORL
p131
aVW
p132
aI24
aI8
aI9
aF0.889
aI0
aI0
aF0.0
aI4
aI6
aF0.667
aI0
aI5
aI5
aI0
aI0
aI3
aI1
aI6
aI20
aI18
aa(lp133
V0020500386
p134
aVDEC 25, 2005
p135
aVLAL @ MIA
p136
aVL
p137
aI21
aI4
aI8
aF0.5
aI0
aI0
aF0.0
aI1
aI1
aF1.0
aI3
aI1
aI4
aI0
aI0
aI0
aI4
aI5
aI9
aI6
aa(lp138
V0020500387
p139
aVDEC 26, 2005
p140
aVLAL @ WAS
p141
aVL
p142
aI27
aI3
aI7
aF0.429
aI0
aI0
aF0.0
aI5
aI8
aF0.625
aI3
aI6
aI9
aI1
aI0
aI1
aI2
aI4
aI11
aI-2
aa(lp143
V0020500412
p144
aVDEC 28, 2005
p145
aVLAL vs. MEM
p146
aVL
p147
aI31
aI7
aI12
aF0.583
aI0
aI0
aF0.0
aI1
aI2
aF0.5
aI6
aI5
aI11
aI0
aI1
aI2
aI3
aI4
aI15
aI-7
aa(lp148
V0020500436
p149
aVJAN 01, 2006
p150
aVLAL vs. UTA
p151
aVL
p152
aI31
aI6
aI10
aF0.6
aI0
aI0
aF0.0
aI0
aI0
aF0.0
aI2
aI4
aI6
aI2
aI0
aI1
aI2
aI2
aI12
aI3
aa(lp153
V0020500446
p154
aVJAN 03, 2006
p155
aVLAL @ UTA
p156
aVL
p157
aI15
aI2
aI4
aF0.5
aI0
aI0
aF0.0
aI2
aI2
aF1.0
aI1
aI2
aI3
aI0
aI0
aI0
aI2
aI4
aI6
aI0
aa(lp158
V0020500471
p159
aVJAN 06, 2006
p160
aVLAL vs. PHI
p161
aVW
p162
aI36
aI5
aI11
aF0.455
aI0
aI0
aF0.0
aI3
aI4
aF0.75
aI2
aI5
aI7
aI2
aI0
aI4
aI2
aI4
aI13
aI16
aa(lp163
V0020500480
p164
aVJAN 07, 2006
p165
aVLAL @ LAC
p166
aVW
p167
aI34
aI5
aI12
aF0.417
aI0
aI0
aF0.0
aI4
aI6
aF0.667
aI4
aI6
aI10
aI1
aI0
aI0
aI1
aI3
aI14
aI6
aa(lp168
V0020500490
p169
aVJAN 09, 2006
p170
aVLAL vs. IND
p171
aVW
p172
aI20
aI2
aI5
aF0.4
aI0
aI0
aF0.0
aI0
aI0
aF0.0
aI1
aI3
aI4
aI1
aI2
aI1
aI1
aI5
aI4
aI1
aa(lp173
V0020500507
p174
aVJAN 11, 2006
p175
aVLAL @ POR
p176
aVL
p177
aI28
aI6
aI10
aF0.6
aI0
aI0
aF0.0
aI1
aI1
aF1.0
aI3
aI4
aI7
aI2
aI1
aI1
aI0
aI4
aI13
aI7
aa(lp178
V0020500512
p179
aVJAN 12, 2006
p180
aVLAL vs. CLE
p181
aVW
p182
aI31
aI6
aI11
aF0.545
aI0
aI0
aF0.0
aI3
aI3
aF1.0
aI1
aI5
aI6
aI0
aI0
aI2
aI2
aI3
aI15
aI1
aa(lp183
V0020500532
p184
aVJAN 14, 2006
p185
aVLAL @ GSW
p186
aVW
p187
aI30
aI6
aI9
aF0.667
aI0
aI0
aF0.0
aI0
aI0
aF0.0
aI4
aI2
aI6
aI3
aI0
aI3
aI1
aI3
aI12
aI4
aa(lp188
V0020500547
p189
aVJAN 16, 2006
p190
aVLAL vs. MIA
p191
aVW
p192
aI22
aI5
aI10
aF0.5
aI0
aI0
aF0.0
aI0
aI0
aF0.0
aI1
aI5
aI6
aI0
aI0
aI1
aI1
aI6
aI10
aI5
aa(lp193
V0020500563
p194
aVJAN 19, 2006
p195
aVLAL @ SAC
p196
aVL
p197
aI35
aI5
aI9
aF0.556
aI0
aI0
aF0.0
aI1
aI1
aF1.0
aI3
aI5
aI8
aI2
aI0
aI2
aI2
aI6
aI11
aI-1
aa(lp198
V0020500573
p199
aVJAN 20, 2006
p200
aVLAL @ PHX
p201
aVL
p202
aI22
aI4
aI10
aF0.4
aI0
aI0
aF0.0
aI2
aI2
aF1.0
aI3
aI4
aI7
aI1
aI0
aI0
aI0
aI1
aI10
aI-13
aa(lp203
V0020500591
p204
aVJAN 22, 2006
p205
aVLAL vs. TOR
p206
aVW
p207
aI30
aI5
aI8
aF0.625
aI0
aI0
aF0.0
aI2
aI3
aF0.667
aI5
aI3
aI8
aI2
aI0
aI2
aI1
aI2
aI12
aI11
aa(lp208
V0020500631
p209
aVJAN 27, 2006
p210
aVLAL vs. GSW
p211
aVW
p212
aI28
aI3
aI8
aF0.375
aI0
aI0
aF0.0
aI6
aI12
aF0.5
aI4
aI5
aI9
aI1
aI2
aI0
aI0
aI5
aI12
aI-4
aa(lp213
V0020500646
p214
aVJAN 29, 2006
p215
aVLAL @ DET
p216
aVL
p217
aI33
aI6
aI12
aF0.5
aI0
aI0
aF0.0
aI4
aI6
aF0.667
aI3
aI11
aI14
aI1
aI0
aI2
aI0
aI2
aI16
aI-17
aa(lp218
V0020500658
p219
aVJAN 31, 2006
p220
aVLAL @ NYK
p221
aVW
p222
aI25
aI5
aI7
aF0.714
aI0
aI0
aF0.0
aI4
aI6
aF0.667
aI0
aI2
aI2
aI2
aI0
aI0
aI0
aI3
aI14
aI17
aa(lp223
V0020500664
p224
aVFEB 01, 2006
p225
aVLAL @ IND
p226
aVL
p227
aI25
aI2
aI8
aF0.25
aI0
aI0
aF0.0
aI6
aI6
aF1.0
aI3
aI3
aI6
aI0
aI0
aI0
aI0
aI4
aI10
aI-10
aa(lp228
V0020500679
p229
aVFEB 03, 2006
p230
aVLAL @ CHA
p231
aVL
p232
aI31
aI5
aI8
aF0.625
aI0
aI0
aF0.0
aI5
aI6
aF0.833
aI3
aI6
aI9
aI2
aI1
aI1
aI1
aI4
aI15
aI-17
aa(lp233
V0020500790
p234
aVFEB 21, 2006
p235
aVLAL vs. POR
p236
aVW
p237
aI14
aI1
aI3
aF0.333
aI0
aI0
aF0.0
aI0
aI0
aF0.0
aI0
aI3
aI3
aI0
aI0
aI0
aI2
aI4
aI2
aI3
aa(lp238
V0020500802
p239
aVFEB 23, 2006
p240
aVLAL vs. SAC
p241
aVW
p242
aI26
aI2
aI6
aF0.333
aI0
aI0
aF0.0
aI2
aI4
aF0.5
aI0
aI1
aI1
aI1
aI0
aI3
aI1
aI2
aI6
aI5
aa(lp243
V0020500813
p244
aVFEB 24, 2006
p245
aVLAL @ LAC
p246
aVL
p247
aI26
aI4
aI7
aF0.571
aI0
aI0
aF0.0
aI3
aI3
aF1.0
aI0
aI7
aI7
aI0
aI2
aI2
aI1
aI4
aI11
aI-18
aa(lp248
V0020500826
p249
aVFEB 26, 2006
p250
aVLAL vs. BOS
p251
aVL
p252
aI14
aI2
aI5
aF0.4
aI0
aI0
aF0.0
aI0
aI0
aF0.0
aI0
aI1
aI1
aI1
aI0
aI1
aI0
aI3
aI4
aI-5
aa(lp253
V0020500841
p254
aVFEB 28, 2006
p255
aVLAL vs. ORL
p256
aVW
p257
aI19
aI6
aI12
aF0.5
aI0
aI0
aF0.0
aI0
aI0
aF0.0
aI0
aI1
aI1
aI2
aI0
aI1
aI0
aI4
aI12
aI-2
aa(lp258
V0020500852
p259
aVMAR 01, 2006
p260
aVLAL @ POR
p261
aVL
p262
aI25
aI3
aI6
aF0.5
aI0
aI0
aF0.0
aI0
aI0
aF0.0
aI1
aI2
aI3
aI1
aI1
aI1
aI3
aI3
aI6
aI-14
aa(lp263
V0020500865
p264
aVMAR 03, 2006
p265
aVLAL @ GSW
p266
aVW
p267
aI24
aI4
aI8
aF0.5
aI0
aI0
aF0.0
aI8
aI12
aF0.667
aI2
aI3
aI5
aI0
aI0
aI1
aI0
aI3
aI16
aI5
aa(lp268
V0020500873
p269
aVMAR 04, 2006
p270
aVLAL vs. DET
p271
aVW
p272
aI24
aI5
aI9
aF0.556
aI0
aI0
aF0.0
aI2
aI2
aF1.0
aI3
aI3
aI6
aI2
aI0
aI2
aI2
aI4
aI12
aI-17
aa(lp273
V0020500888
p274
aVMAR 06, 2006
p275
aVLAL vs. SAS
p276
aVL
p277
aI25
aI3
aI8
aF0.375
aI0
aI0
aF0.0
aI3
aI4
aF0.75
aI2
aI4
aI6
aI3
aI1
aI2
aI2
aI2
aI9
aI-12
aa(lp278
V0020500903
p279
aVMAR 08, 2006
p280
aVLAL @ NOK
p281
aVW
p282
aI29
aI4
aI7
aF0.571
aI0
aI0
aF0.0
aI1
aI2
aF0.5
aI3
aI5
aI8
aI3
aI0
aI0
aI1
aI4
aI9
aI5
aa(lp283
V0020500916
p284
aVMAR 10, 2006
p285
aVLAL @ SAS
p286
aVW
p287
aI20
aI3
aI8
aF0.375
aI0
aI0
aF0.0
aI0
aI0
aF0.0
aI1
aI5
aI6
aI2
aI0
aI0
aI0
aI2
aI6
aI8
aa(lp288
V0020500930
p289
aVMAR 12, 2006
p290
aVLAL vs. SEA
p291
aVL
p292
aI33
aI7
aI15
aF0.467
aI0
aI0
aF0.0
aI6
aI8
aF0.75
aI7
aI6
aI13
aI1
aI1
aI3
aI0
aI3
aI20
aI1
aa(lp293
V0020501229
p294
aVAPR 19, 2006
p295
aVLAL vs. NOK
p296
aVW
p297
aI14
aI1
aI5
aF0.2
aI0
aI0
aF0.0
aI0
aI0
aF0.0
aI0
aI1
aI1
aI1
aI1
aI0
aI1
aI0
aI2
aI6
aasS'name'
p298
VChris Mihm
p299
sS'weight'
p300
V265
p301
sS'age'
p302
I26
sS'experience'
p303
I5
sS'height'
p304
V7-0
p305
sS'position'
p306
VCenter
p307
s.