(dp0
S'stats'
p1
(lp2
(lp3
V0020500004
p4
aVNOV 02, 2005
p5
aVWAS @ TOR
p6
aVW
p7
aI11
aI0
aI0
aF0.0
aI0
aI0
aF0.0
aI1
aI2
aF0.5
aI0
aI2
aI2
aI0
aI0
aI0
aI0
aI1
aI1
aI-13
aa(lp8
V0020500024
p9
aVNOV 04, 2005
p10
aVWAS @ NYK
p11
aVW
p12
aI9
aI0
aI0
aF0.0
aI0
aI0
aF0.0
aI0
aI0
aF0.0
aI0
aI1
aI1
aI0
aI0
aI1
aI1
aI1
aI0
aI-3
aa(lp13
V0020500031
p14
aVNOV 05, 2005
p15
aVWAS vs. ORL
p16
aVW
p17
aI8
aI0
aI1
aF0.0
aI0
aI0
aF0.0
aI1
aI2
aF0.5
aI1
aI2
aI3
aI0
aI0
aI2
aI1
aI0
aI1
aI-2
aa(lp18
V0020500057
p19
aVNOV 09, 2005
p20
aVWAS vs. LAC
p21
aVL
p22
aI17
aI6
aI10
aF0.6
aI0
aI0
aF0.0
aI2
aI2
aF1.0
aI2
aI3
aI5
aI0
aI0
aI1
aI0
aI2
aI14
aI4
aa(lp23
V0020500072
p24
aVNOV 11, 2005
p25
aVWAS vs. SEA
p26
aVW
p27
aI16
aI2
aI3
aF0.667
aI0
aI0
aF0.0
aI1
aI2
aF0.5
aI5
aI2
aI7
aI1
aI0
aI0
aI1
aI2
aI5
aI25
aa(lp28
V0020500081
p29
aVNOV 12, 2005
p30
aVWAS vs. SAS
p31
aVW
p32
aI13
aI0
aI0
aF0.0
aI0
aI0
aF0.0
aI0
aI0
aF0.0
aI1
aI4
aI5
aI0
aI1
aI0
aI0
aI1
aI0
aI-3
aa(lp33
V0020500100
p34
aVNOV 15, 2005
p35
aVWAS @ CLE
p36
aVL
p37
aI9
aI1
aI1
aF1.0
aI0
aI0
aF0.0
aI1
aI2
aF0.5
aI0
aI1
aI1
aI0
aI0
aI0
aI0
aI3
aI3
aI-12
aa(lp38
V0020500119
p39
aVNOV 17, 2005
p40
aVWAS @ MIN
p41
aVL
p42
aI18
aI3
aI6
aF0.5
aI0
aI0
aF0.0
aI1
aI2
aF0.5
aI2
aI1
aI3
aI0
aI1
aI1
aI0
aI1
aI7
aI-10
aa(lp43
V0020500134
p44
aVNOV 19, 2005
p45
aVWAS @ NJN
p46
aVL
p47
aI18
aI3
aI5
aF0.6
aI0
aI0
aF0.0
aI0
aI3
aF0.0
aI2
aI4
aI6
aI0
aI2
aI0
aI1
aI3
aI6
aI-3
aa(lp48
V0020500150
p49
aVNOV 22, 2005
p50
aVWAS vs. DEN
p51
aVL
p52
aI20
aI3
aI3
aF1.0
aI0
aI0
aF0.0
aI4
aI6
aF0.667
aI3
aI5
aI8
aI0
aI0
aI2
aI0
aI2
aI10
aI-3
aa(lp53
V0020500157
p54
aVNOV 23, 2005
p55
aVWAS @ ORL
p56
aVL
p57
aI17
aI1
aI3
aF0.333
aI0
aI0
aF0.0
aI2
aI2
aF1.0
aI1
aI3
aI4
aI1
aI0
aI0
aI0
aI2
aI4
aI0
aa(lp58
V0020500173
p59
aVNOV 25, 2005
p60
aVWAS @ DET
p61
aVW
p62
aI8
aI1
aI1
aF1.0
aI0
aI0
aF0.0
aI1
aI2
aF0.5
aI0
aI1
aI1
aI0
aI0
aI0
aI0
aI1
aI3
aI-4
aa(lp63
V0020500184
p64
aVNOV 26, 2005
p65
aVWAS @ CHA
p66
aVL
p67
aI19
aI1
aI4
aF0.25
aI0
aI0
aF0.0
aI0
aI0
aF0.0
aI2
aI3
aI5
aI1
aI0
aI0
aI1
aI0
aI2
aI-12
aa(lp68
V0020500207
p69
aVNOV 30, 2005
p70
aVWAS vs. POR
p71
aVW
p72
aI16
aI0
aI3
aF0.0
aI0
aI0
aF0.0
aI0
aI0
aF0.0
aI1
aI2
aI3
aI1
aI1
aI1
aI0
aI1
aI0
aI3
aa(lp73
V0020500219
p74
aVDEC 02, 2005
p75
aVWAS vs. MIL
p76
aVL
p77
aI19
aI2
aI7
aF0.286
aI0
aI0
aF0.0
aI1
aI2
aF0.5
aI2
aI6
aI8
aI0
aI1
aI0
aI0
aI2
aI5
aI-6
aa(lp78
V0020500249
p79
aVDEC 06, 2005
p80
aVWAS vs. TOR
p81
aVW
p82
aI10
aI1
aI2
aF0.5
aI0
aI0
aF0.0
aI0
aI0
aF0.0
aI0
aI1
aI1
aI0
aI1
aI1
aI0
aI2
aI2
aI-7
aa(lp83
V0020500268
p84
aVDEC 08, 2005
p85
aVWAS @ IND
p86
aVL
p87
aI16
aI2
aI3
aF0.667
aI0
aI0
aF0.0
aI6
aI6
aF1.0
aI2
aI2
aI4
aI0
aI1
aI0
aI0
aI1
aI10
aI-3
aa(lp88
V0020500280
p89
aVDEC 10, 2005
p90
aVWAS vs. CHI
p91
aVL
p92
aI16
aI1
aI2
aF0.5
aI0
aI0
aF0.0
aI0
aI0
aF0.0
aI1
aI1
aI2
aI0
aI1
aI1
aI2
aI2
aI2
aI5
aa(lp93
V0020500291
p94
aVDEC 11, 2005
p95
aVWAS @ MIA
p96
aVL
p97
aI25
aI1
aI3
aF0.333
aI0
aI0
aF0.0
aI3
aI4
aF0.75
aI1
aI5
aI6
aI1
aI0
aI3
aI1
aI5
aI5
aI16
aa(lp98
V0020500300
p99
aVDEC 13, 2005
p100
aVWAS vs. NJN
p101
aVW
p102
aI23
aI4
aI5
aF0.8
aI0
aI0
aF0.0
aI4
aI7
aF0.571
aI1
aI4
aI5
aI0
aI0
aI0
aI3
aI3
aI12
aI15
aa(lp103
V0020500332
p104
aVDEC 16, 2005
p105
aVWAS @ LAL
p106
aVL
p107
aI19
aI3
aI5
aF0.6
aI0
aI0
aF0.0
aI1
aI2
aF0.5
aI0
aI4
aI4
aI0
aI1
aI1
aI0
aI3
aI7
aI4
aa(lp108
V0020500345
p109
aVDEC 18, 2005
p110
aVWAS @ POR
p111
aVL
p112
aI12
aI2
aI4
aF0.5
aI0
aI0
aF0.0
aI0
aI0
aF0.0
aI0
aI2
aI2
aI0
aI0
aI2
aI0
aI2
aI4
aI-9
aa(lp113
V0020500351
p114
aVDEC 19, 2005
p115
aVWAS @ SEA
p116
aVL
p117
aI19
aI2
aI4
aF0.5
aI0
aI0
aF0.0
aI0
aI0
aF0.0
aI1
aI2
aI3
aI0
aI0
aI1
aI1
aI4
aI4
aI0
aa(lp118
V0020500368
p119
aVDEC 21, 2005
p120
aVWAS @ DEN
p121
aVW
p122
aI17
aI3
aI3
aF1.0
aI0
aI0
aF0.0
aI0
aI0
aF0.0
aI0
aI7
aI7
aI1
aI0
aI1
aI2
aI3
aI6
aI-10
aa(lp123
V0020500387
p124
aVDEC 26, 2005
p125
aVWAS vs. LAL
p126
aVW
p127
aI7
aI0
aI3
aF0.0
aI0
aI0
aF0.0
aI1
aI2
aF0.5
aI2
aI1
aI3
aI0
aI0
aI0
aI1
aI1
aI1
aI-2
aa(lp128
V0020500406
p129
aVDEC 28, 2005
p130
aVWAS vs. PHX
p131
aVL
p132
aI25
aI5
aI6
aF0.833
aI0
aI0
aF0.0
aI1
aI1
aF1.0
aI5
aI2
aI7
aI0
aI0
aI2
aI2
aI1
aI11
aI-1
aa(lp133
V0020500417
p134
aVDEC 30, 2005
p135
aVWAS vs. MIA
p136
aVL
p137
aI29
aI4
aI9
aF0.444
aI0
aI0
aF0.0
aI5
aI6
aF0.833
aI4
aI7
aI11
aI0
aI0
aI2
aI1
aI6
aI13
aI-8
aa(lp138
V0020500441
p139
aVJAN 03, 2006
p140
aVWAS vs. HOU
p141
aVL
p142
aI8
aI0
aI1
aF0.0
aI0
aI0
aF0.0
aI0
aI0
aF0.0
aI0
aI1
aI1
aI0
aI0
aI1
aI0
aI2
aI0
aI-5
aa(lp143
V0020500462
p144
aVJAN 06, 2006
p145
aVWAS @ NYK
p146
aVL
p147
aI16
aI3
aI4
aF0.75
aI0
aI0
aF0.0
aI1
aI2
aF0.5
aI1
aI2
aI3
aI0
aI0
aI0
aI0
aI2
aI7
aI-18
aa(lp148
V0020500472
p149
aVJAN 07, 2006
p150
aVWAS vs. BOS
p151
aVW
p152
aI20
aI2
aI4
aF0.5
aI0
aI0
aF0.0
aI1
aI2
aF0.5
aI1
aI2
aI3
aI0
aI0
aI0
aI0
aI1
aI5
aI4
aa(lp153
V0020500487
p154
aVJAN 09, 2006
p155
aVWAS vs. UTA
p156
aVL
p157
aI15
aI3
aI3
aF1.0
aI0
aI0
aF0.0
aI0
aI0
aF0.0
aI1
aI1
aI2
aI0
aI0
aI0
aI1
aI1
aI6
aI9
aa(lp158
V0020500502
p159
aVJAN 11, 2006
p160
aVWAS vs. ATL
p161
aVW
p162
aI9
aI1
aI2
aF0.5
aI0
aI0
aF0.0
aI0
aI2
aF0.0
aI1
aI1
aI2
aI0
aI0
aI0
aI0
aI1
aI2
aI5
aa(lp163
V0020500513
p164
aVJAN 13, 2006
p165
aVWAS @ IND
p166
aVW
p167
aI16
aI1
aI3
aF0.333
aI0
aI0
aF0.0
aI1
aI4
aF0.25
aI0
aI5
aI5
aI0
aI0
aI1
aI2
aI2
aI3
aI-3
aa(lp168
V0020500522
p169
aVJAN 14, 2006
p170
aVWAS @ ATL
p171
aVW
p172
aI7
aI0
aI0
aF0.0
aI0
aI0
aF0.0
aI0
aI0
aF0.0
aI0
aI0
aI0
aI0
aI0
aI0
aI2
aI0
aI0
aI2
aa(lp173
V0020500537
p174
aVJAN 16, 2006
p175
aVWAS vs. PHI
p176
aVW
p177
aI7
aI1
aI2
aF0.5
aI0
aI0
aF0.0
aI0
aI0
aF0.0
aI1
aI1
aI2
aI0
aI1
aI1
aI0
aI0
aI2
aI0
aa(lp178
V0020500626
p179
aVJAN 27, 2006
p180
aVWAS @ CHI
p181
aVL
p182
aI7
aI1
aI2
aF0.5
aI0
aI0
aF0.0
aI1
aI3
aF0.333
aI1
aI0
aI1
aI0
aI0
aI2
aI0
aI0
aI3
aI4
aa(lp183
V0020500632
p184
aVJAN 28, 2006
p185
aVWAS vs. CHA
p186
aVW
p187
aI22
aI3
aI7
aF0.429
aI0
aI0
aF0.0
aI6
aI7
aF0.857
aI1
aI4
aI5
aI2
aI0
aI2
aI0
aI2
aI12
aI2
aa(lp188
V0020500656
p189
aVJAN 31, 2006
p190
aVWAS vs. IND
p191
aVW
p192
aI12
aI2
aI5
aF0.4
aI0
aI0
aF0.0
aI0
aI0
aF0.0
aI0
aI1
aI1
aI0
aI0
aI0
aI1
aI1
aI4
aI7
aa(lp193
V0020500661
p194
aVFEB 01, 2006
p195
aVWAS @ TOR
p196
aVL
p197
aI22
aI3
aI8
aF0.375
aI0
aI0
aF0.0
aI0
aI0
aF0.0
aI4
aI3
aI7
aI1
aI0
aI1
aI2
aI3
aI6
aI-10
aa(lp198
V0020500685
p199
aVFEB 04, 2006
p200
aVWAS vs. ATL
p201
aVW
p202
aI6
aI0
aI1
aF0.0
aI0
aI0
aF0.0
aI4
aI4
aF1.0
aI0
aI1
aI1
aI0
aI0
aI1
aI0
aI2
aI4
aI-15
aa(lp203
V0020500699
p204
aVFEB 06, 2006
p205
aVWAS vs. ORL
p206
aVW
p207
aI10
aI0
aI3
aF0.0
aI0
aI0
aF0.0
aI1
aI2
aF0.5
aI1
aI0
aI1
aI0
aI0
aI1
aI0
aI1
aI1
aI-3
aa(lp208
V0020500712
p209
aVFEB 08, 2006
p210
aVWAS vs. GSW
p211
aVW
p212
aI7
aI0
aI0
aF0.0
aI0
aI0
aF0.0
aI0
aI0
aF0.0
aI1
aI0
aI1
aI1
aI0
aI0
aI1
aI2
aI0
aI5
aa(lp213
V0020500725
p214
aVFEB 10, 2006
p215
aVWAS vs. CLE
p216
aVW
p217
aI5
aI1
aI1
aF1.0
aI0
aI0
aF0.0
aI0
aI0
aF0.0
aI0
aI2
aI2
aI0
aI0
aI0
aI0
aI0
aI2
aI-3
aa(lp218
V0020500743
p219
aVFEB 12, 2006
p220
aVWAS vs. PHI
p221
aVW
p222
aI10
aI0
aI2
aF0.0
aI0
aI0
aF0.0
aI0
aI0
aF0.0
aI1
aI2
aI3
aI0
aI0
aI0
aI0
aI2
aI0
aI-4
aa(lp223
V0020500753
p224
aVFEB 13, 2006
p225
aVWAS @ NOK
p226
aVL
p227
aI18
aI3
aI3
aF1.0
aI0
aI0
aF0.0
aI0
aI0
aF0.0
aI3
aI2
aI5
aI0
aI0
aI0
aI1
aI4
aI6
aI-12
aa(lp228
V0020500773
p229
aVFEB 15, 2006
p230
aVWAS @ DAL
p231
aVL
p232
aI1
aI0
aI0
aF0.0
aI0
aI0
aF0.0
aI0
aI0
aF0.0
aI0
aI0
aI0
aI0
aI0
aI0
aI0
aI0
aI0
aI-6
aa(lp233
V0020500805
p234
aVFEB 24, 2006
p235
aVWAS @ CLE
p236
aVW
p237
aI5
aI1
aI2
aF0.5
aI0
aI0
aF0.0
aI0
aI0
aF0.0
aI1
aI0
aI1
aI0
aI0
aI0
aI0
aI3
aI2
aI-2
aa(lp238
V0020500816
p239
aVFEB 25, 2006
p240
aVWAS vs. NYK
p241
aVW
p242
aI20
aI3
aI3
aF1.0
aI0
aI0
aF0.0
aI2
aI2
aF1.0
aI0
aI1
aI1
aI0
aI0
aI2
aI2
aI3
aI8
aI2
aa(lp243
V0020500831
p244
aVFEB 27, 2006
p245
aVWAS @ MEM
p246
aVL
p247
aI27
aI2
aI5
aF0.4
aI0
aI0
aF0.0
aI3
aI4
aF0.75
aI0
aI3
aI3
aI0
aI0
aI0
aI0
aI3
aI7
aI-2
aa(lp248
V0020500843
p249
aVMAR 01, 2006
p250
aVWAS vs. IND
p251
aVL
p252
aI23
aI3
aI4
aF0.75
aI0
aI0
aF0.0
aI0
aI5
aF0.0
aI4
aI6
aI10
aI0
aI1
aI3
aI2
aI1
aI6
aI3
aa(lp253
V0020500857
p254
aVMAR 03, 2006
p255
aVWAS @ PHI
p256
aVL
p257
aI28
aI2
aI6
aF0.333
aI0
aI0
aF0.0
aI2
aI2
aF1.0
aI2
aI6
aI8
aI0
aI2
aI1
aI1
aI3
aI6
aI7
aa(lp258
V0020500876
p259
aVMAR 05, 2006
p260
aVWAS vs. SAC
p261
aVW
p262
aI11
aI2
aI2
aF1.0
aI0
aI0
aF0.0
aI3
aI4
aF0.75
aI1
aI3
aI4
aI0
aI0
aI0
aI0
aI2
aI7
aI4
aa(lp263
V0020500889
p264
aVMAR 07, 2006
p265
aVWAS vs. BOS
p266
aVL
p267
aI16
aI1
aI6
aF0.167
aI0
aI0
aF0.0
aI0
aI0
aF0.0
aI1
aI2
aI3
aI0
aI1
aI2
aI0
aI2
aI2
aI1
aa(lp268
V0020500900
p269
aVMAR 08, 2006
p270
aVWAS @ MIA
p271
aVL
p272
aI26
aI4
aI6
aF0.667
aI0
aI0
aF0.0
aI2
aI2
aF1.0
aI5
aI2
aI7
aI1
aI1
aI1
aI0
aI5
aI10
aI7
aa(lp273
V0020500919
p274
aVMAR 11, 2006
p275
aVWAS vs. DET
p276
aVW
p277
aI26
aI3
aI4
aF0.75
aI0
aI0
aF0.0
aI1
aI3
aF0.333
aI1
aI5
aI6
aI0
aI0
aI2
aI1
aI3
aI7
aI21
aa(lp278
V0020500942
p279
aVMAR 14, 2006
p280
aVWAS @ CHA
p281
aVW
p282
aI12
aI1
aI1
aF1.0
aI0
aI0
aF0.0
aI1
aI2
aF0.5
aI0
aI3
aI3
aI0
aI0
aI1
aI2
aI4
aI3
aI8
aa(lp283
V0020500951
p284
aVMAR 15, 2006
p285
aVWAS vs. CHA
p286
aVW
p287
aI6
aI0
aI0
aF0.0
aI0
aI0
aF0.0
aI0
aI0
aF0.0
aI1
aI3
aI4
aI0
aI0
aI2
aI1
aI1
aI0
aI5
aa(lp288
V0020500964
p289
aVMAR 17, 2006
p290
aVWAS vs. DAL
p291
aVL
p292
aI15
aI1
aI6
aF0.167
aI0
aI0
aF0.0
aI0
aI0
aF0.0
aI3
aI0
aI3
aI0
aI0
aI2
aI0
aI3
aI2
aI1
aa(lp293
V0020500980
p294
aVMAR 19, 2006
p295
aVWAS vs. CHI
p296
aVW
p297
aI25
aI4
aI5
aF0.8
aI0
aI0
aF0.0
aI2
aI3
aF0.667
aI2
aI4
aI6
aI0
aI0
aI2
aI1
aI2
aI10
aI0
aa(lp298
V0020500992
p299
aVMAR 21, 2006
p300
aVWAS vs. NJN
p301
aVL
p302
aI10
aI1
aI2
aF0.5
aI0
aI0
aF0.0
aI0
aI0
aF0.0
aI0
aI3
aI3
aI0
aI0
aI1
aI1
aI0
aI2
aI3
aa(lp303
V0020501015
p304
aVMAR 23, 2006
p305
aVWAS @ UTA
p306
aVW
p307
aI8
aI0
aI0
aF0.0
aI0
aI0
aF0.0
aI0
aI0
aF0.0
aI0
aI1
aI1
aI0
aI0
aI0
aI1
aI2
aI0
aI7
aa(lp308
V0020501027
p309
aVMAR 25, 2006
p310
aVWAS @ LAC
p311
aVL
p312
aI12
aI0
aI0
aF0.0
aI0
aI0
aF0.0
aI0
aI2
aF0.0
aI0
aI4
aI4
aI1
aI0
aI1
aI1
aI2
aI0
aI-3
aa(lp313
V0020501046
p314
aVMAR 27, 2006
p315
aVWAS @ GSW
p316
aVW
p317
aI17
aI2
aI3
aF0.667
aI0
aI0
aF0.0
aI0
aI2
aF0.0
aI2
aI3
aI5
aI0
aI2
aI3
aI2
aI2
aI4
aI-2
aa(lp318
V0020501052
p319
aVMAR 28, 2006
p320
aVWAS @ SAC
p321
aVW
p322
aI27
aI4
aI8
aF0.5
aI0
aI0
aF0.0
aI4
aI4
aF1.0
aI3
aI5
aI8
aI1
aI0
aI1
aI0
aI6
aI12
aI4
aa(lp323
V0020501074
p324
aVMAR 31, 2006
p325
aVWAS @ HOU
p326
aVL
p327
aI24
aI3
aI5
aF0.6
aI0
aI0
aF0.0
aI0
aI0
aF0.0
aI3
aI4
aI7
aI1
aI0
aI3
aI3
aI3
aI6
aI-8
aa(lp328
V0020501082
p329
aVAPR 01, 2006
p330
aVWAS @ SAS
p331
aVL
p332
aI29
aI4
aI6
aF0.667
aI0
aI0
aF0.0
aI0
aI0
aF0.0
aI2
aI4
aI6
aI0
aI2
aI3
aI0
aI5
aI8
aI14
aa(lp333
V0020501096
p334
aVAPR 04, 2006
p335
aVWAS vs. NYK
p336
aVW
p337
aI14
aI5
aI6
aF0.833
aI0
aI0
aF0.0
aI3
aI5
aF0.6
aI3
aI2
aI5
aI0
aI0
aI1
aI2
aI4
aI13
aI14
aa(lp338
V0020501108
p339
aVAPR 05, 2006
p340
aVWAS @ BOS
p341
aVW
p342
aI17
aI3
aI6
aF0.5
aI0
aI0
aF0.0
aI1
aI2
aF0.5
aI3
aI2
aI5
aI0
aI0
aI1
aI0
aI3
aI7
aI5
aa(lp343
V0020501122
p344
aVAPR 07, 2006
p345
aVWAS @ ATL
p346
aVL
p347
aI20
aI3
aI5
aF0.6
aI0
aI0
aF0.0
aI0
aI0
aF0.0
aI4
aI1
aI5
aI0
aI0
aI0
aI1
aI3
aI6
aI-5
aa(lp348
V0020501168
p349
aVAPR 12, 2006
p350
aVWAS @ MIL
p351
aVL
p352
aI27
aI4
aI7
aF0.571
aI0
aI0
aF0.0
aI0
aI0
aF0.0
aI0
aI7
aI7
aI0
aI0
aI2
aI1
aI1
aI8
aI-1
aa(lp353
V0020501184
p354
aVAPR 14, 2006
p355
aVWAS @ CHI
p356
aVL
p357
aI16
aI0
aI1
aF0.0
aI0
aI0
aF0.0
aI0
aI2
aF0.0
aI2
aI0
aI2
aI0
aI0
aI2
aI1
aI1
aI0
aI-1
aasS'name'
p358
VEtan Thomas
p359
sS'weight'
p360
V260
p361
sS'age'
p362
I27
sS'experience'
p363
I4
sS'height'
p364
V6-10
p365
sS'position'
p366
VCenter
p367
s.