(dp0
S'stats'
p1
(lp2
(lp3
V0020500025
p4
aVNOV 01, 2005
p5
aVNOK vs. SAC
p6
aVW
p7
aI21
aI7
aI10
aF0.7
aI1
aI1
aF1.0
aI2
aI2
aF1.0
aI0
aI1
aI1
aI4
aI1
aI1
aI3
aI2
aI17
aI12
aa(lp8
V0020500006
p9
aVNOV 02, 2005
p10
aVNOK @ CLE
p11
aVL
p12
aI25
aI4
aI8
aF0.5
aI0
aI0
aF0.0
aI8
aI9
aF0.889
aI0
aI0
aI0
aI2
aI1
aI0
aI1
aI1
aI16
aI-11
aa(lp13
V0020500038
p14
aVNOV 05, 2005
p15
aVNOK @ HOU
p16
aVW
p17
aI29
aI3
aI10
aF0.3
aI1
aI4
aF0.25
aI7
aI8
aF0.875
aI1
aI4
aI5
aI8
aI1
aI0
aI1
aI1
aI14
aI16
aa(lp18
V0020500063
p19
aVNOV 09, 2005
p20
aVNOK vs. ORL
p21
aVL
p22
aI29
aI10
aI15
aF0.667
aI0
aI1
aF0.0
aI4
aI7
aF0.571
aI2
aI0
aI2
aI6
aI2
aI0
aI3
aI1
aI24
aI-6
aa(lp23
V0020500085
p24
aVNOV 12, 2005
p25
aVNOK vs. DAL
p26
aVL
p27
aI27
aI5
aI10
aF0.5
aI0
aI1
aF0.0
aI7
aI8
aF0.875
aI0
aI1
aI1
aI7
aI0
aI0
aI1
aI1
aI17
aI1
aa(lp28
V0020500102
p29
aVNOV 15, 2005
p30
aVNOK @ MIA
p31
aVL
p32
aI35
aI5
aI12
aF0.417
aI2
aI3
aF0.667
aI0
aI0
aF0.0
aI1
aI5
aI6
aI5
aI2
aI0
aI3
aI3
aI12
aI-3
aa(lp33
V0020500112
p34
aVNOV 16, 2005
p35
aVNOK vs. DEN
p36
aVL
p37
aI31
aI1
aI8
aF0.125
aI0
aI3
aF0.0
aI2
aI5
aF0.4
aI2
aI3
aI5
aI3
aI3
aI0
aI3
aI3
aI4
aI-16
aa(lp38
V0020500146
p39
aVNOV 21, 2005
p40
aVNOK @ PHI
p41
aVL
p42
aI19
aI3
aI9
aF0.333
aI0
aI0
aF0.0
aI9
aI9
aF1.0
aI1
aI2
aI3
aI2
aI2
aI0
aI4
aI5
aI15
aI-16
aa(lp43
V0020500163
p44
aVNOV 23, 2005
p45
aVNOK vs. MIN
p46
aVW
p47
aI25
aI4
aI11
aF0.364
aI0
aI1
aF0.0
aI1
aI2
aF0.5
aI0
aI2
aI2
aI2
aI0
aI0
aI1
aI2
aI9
aI-12
aa(lp48
V0020500181
p49
aVNOV 26, 2005
p50
aVNOK @ SEA
p51
aVW
p52
aI28
aI4
aI8
aF0.5
aI0
aI1
aF0.0
aI6
aI6
aF1.0
aI1
aI3
aI4
aI2
aI1
aI0
aI3
aI5
aI14
aI7
aa(lp53
V0020500197
p54
aVNOV 28, 2005
p55
aVNOK @ GSW
p56
aVL
p57
aI29
aI1
aI8
aF0.125
aI0
aI1
aF0.0
aI1
aI3
aF0.333
aI1
aI2
aI3
aI9
aI2
aI0
aI1
aI4
aI3
aI-11
aa(lp58
V0020500213
p59
aVNOV 30, 2005
p60
aVNOK @ DEN
p61
aVW
p62
aI24
aI5
aI9
aF0.556
aI0
aI0
aF0.0
aI9
aI10
aF0.9
aI0
aI1
aI1
aI6
aI2
aI1
aI0
aI4
aI19
aI10
aa(lp63
V0020500224
p64
aVDEC 02, 2005
p65
aVNOK vs. PHI
p66
aVW
p67
aI27
aI3
aI9
aF0.333
aI1
aI2
aF0.5
aI1
aI2
aF0.5
aI0
aI2
aI2
aI4
aI0
aI0
aI4
aI4
aI8
aI0
aa(lp68
V0020500235
p69
aVDEC 03, 2005
p70
aVNOK @ DAL
p71
aVL
p72
aI33
aI9
aI18
aF0.5
aI0
aI1
aF0.0
aI3
aI3
aF1.0
aI2
aI3
aI5
aI2
aI2
aI0
aI2
aI3
aI21
aI-3
aa(lp73
V0020500252
p74
aVDEC 06, 2005
p75
aVNOK @ MEM
p76
aVL
p77
aI25
aI2
aI12
aF0.167
aI0
aI1
aF0.0
aI2
aI3
aF0.667
aI0
aI0
aI0
aI4
aI1
aI0
aI2
aI3
aI6
aI-4
aa(lp78
V0020500262
p79
aVDEC 07, 2005
p80
aVNOK vs. BOS
p81
aVL
p82
aI31
aI3
aI10
aF0.3
aI0
aI0
aF0.0
aI1
aI2
aF0.5
aI1
aI0
aI1
aI5
aI0
aI0
aI3
aI3
aI7
aI-12
aa(lp83
V0020500278
p84
aVDEC 09, 2005
p85
aVNOK @ POR
p86
aVL
p87
aI34
aI10
aI16
aF0.625
aI1
aI1
aF1.0
aI6
aI6
aF1.0
aI1
aI4
aI5
aI0
aI4
aI0
aI0
aI1
aI27
aI2
aa(lp88
V0020500293
p89
aVDEC 11, 2005
p90
aVNOK @ SAC
p91
aVL
p92
aI22
aI4
aI6
aF0.667
aI1
aI1
aF1.0
aI4
aI5
aF0.8
aI2
aI2
aI4
aI5
aI2
aI0
aI6
aI1
aI13
aI-1
aa(lp93
V0020500299
p94
aVDEC 12, 2005
p95
aVNOK @ PHX
p96
aVW
p97
aI31
aI2
aI10
aF0.2
aI0
aI0
aF0.0
aI2
aI2
aF1.0
aI1
aI1
aI2
aI3
aI3
aI0
aI2
aI3
aI6
aI-7
aa(lp98
V0020500315
p99
aVDEC 14, 2005
p100
aVNOK vs. LAC
p101
aVW
p102
aI27
aI5
aI8
aF0.625
aI1
aI2
aF0.5
aI3
aI4
aF0.75
aI0
aI3
aI3
aI3
aI0
aI0
aI2
aI2
aI14
aI7
aa(lp103
V0020500329
p104
aVDEC 16, 2005
p105
aVNOK vs. PHX
p106
aVL
p107
aI27
aI4
aI12
aF0.333
aI0
aI2
aF0.0
aI1
aI2
aF0.5
aI0
aI0
aI0
aI4
aI1
aI0
aI2
aI4
aI9
aI-21
aa(lp108
V0020500795
p109
aVDEC 18, 2005
p110
aVNOK vs. SAS
p111
aVW
p112
aI29
aI6
aI12
aF0.5
aI0
aI0
aF0.0
aI2
aI3
aF0.667
aI0
aI2
aI2
aI6
aI4
aI0
aI3
aI2
aI14
aI19
aa(lp113
V0020500366
p114
aVDEC 21, 2005
p115
aVNOK @ MIN
p116
aVL
p117
aI26
aI2
aI10
aF0.2
aI0
aI0
aF0.0
aI1
aI1
aF1.0
aI0
aI2
aI2
aI4
aI3
aI0
aI2
aI1
aI5
aI-16
aa(lp118
V0020500380
p119
aVDEC 23, 2005
p120
aVNOK @ MIL
p121
aVL
p122
aI25
aI2
aI11
aF0.182
aI0
aI2
aF0.0
aI4
aI4
aF1.0
aI1
aI2
aI3
aI4
aI1
aI0
aI1
aI4
aI8
aI-4
aa(lp123
V0020500409
p124
aVDEC 28, 2005
p125
aVNOK vs. HOU
p126
aVW
p127
aI28
aI4
aI11
aF0.364
aI1
aI1
aF1.0
aI5
aI9
aF0.556
aI0
aI5
aI5
aI5
aI1
aI0
aI1
aI0
aI14
aI8
aa(lp128
V0020500415
p129
aVDEC 29, 2005
p130
aVNOK @ SAS
p131
aVL
p132
aI23
aI1
aI5
aF0.2
aI0
aI1
aF0.0
aI2
aI2
aF1.0
aI1
aI3
aI4
aI3
aI1
aI1
aI3
aI3
aI4
aI-20
aa(lp133
V0020500428
p134
aVDEC 31, 2005
p135
aVNOK vs. DAL
p136
aVL
p137
aI30
aI5
aI13
aF0.385
aI0
aI0
aF0.0
aI7
aI10
aF0.7
aI1
aI1
aI2
aI2
aI2
aI0
aI4
aI4
aI17
aI-1
aa(lp138
V0020500869
p139
aVJAN 02, 2006
p140
aVNOK vs. CHA
p141
aVW
p142
aI35
aI6
aI12
aF0.5
aI0
aI2
aF0.0
aI4
aI6
aF0.667
aI0
aI1
aI1
aI7
aI2
aI1
aI2
aI1
aI16
aI21
aa(lp143
V0020500451
p144
aVJAN 04, 2006
p145
aVNOK vs. MIA
p146
aVW
p147
aI32
aI3
aI9
aF0.333
aI0
aI0
aF0.0
aI6
aI7
aF0.857
aI1
aI5
aI6
aI8
aI3
aI0
aI2
aI1
aI12
aI11
aa(lp148
V0020500465
p149
aVJAN 06, 2006
p150
aVNOK vs. POR
p151
aVW
p152
aI36
aI2
aI8
aF0.25
aI1
aI2
aF0.5
aI3
aI4
aF0.75
aI2
aI4
aI6
aI7
aI2
aI0
aI4
aI1
aI8
aI3
aa(lp153
V0020500473
p154
aVJAN 07, 2006
p155
aVNOK @ ATL
p156
aVL
p157
aI31
aI9
aI21
aF0.429
aI0
aI1
aF0.0
aI11
aI13
aF0.846
aI1
aI3
aI4
aI2
aI4
aI0
aI2
aI3
aI29
aI-1
aa(lp158
V0020500496
p159
aVJAN 10, 2006
p160
aVNOK vs. DET
p161
aVL
p162
aI31
aI7
aI11
aF0.636
aI0
aI0
aF0.0
aI4
aI6
aF0.667
aI1
aI2
aI3
aI4
aI2
aI0
aI6
aI1
aI18
aI-6
aa(lp163
V0020500518
p164
aVJAN 13, 2006
p165
aVNOK vs. SAC
p166
aVW
p167
aI26
aI3
aI6
aF0.5
aI0
aI0
aF0.0
aI0
aI2
aF0.0
aI1
aI2
aI3
aI8
aI3
aI0
aI1
aI2
aI6
aI15
aa(lp168
V0020500526
p169
aVJAN 14, 2006
p170
aVNOK @ HOU
p171
aVW
p172
aI34
aI5
aI10
aF0.5
aI0
aI0
aF0.0
aI2
aI2
aF1.0
aI1
aI6
aI7
aI4
aI0
aI0
aI1
aI2
aI12
aI3
aa(lp173
V0020500538
p174
aVJAN 16, 2006
p175
aVNOK @ CHA
p176
aVW
p177
aI32
aI5
aI10
aF0.5
aI0
aI0
aF0.0
aI5
aI7
aF0.714
aI1
aI5
aI6
aI5
aI4
aI0
aI5
aI3
aI15
aI18
aa(lp178
V0020500555
p179
aVJAN 18, 2006
p180
aVNOK vs. MEM
p181
aVW
p182
aI31
aI4
aI9
aF0.444
aI0
aI0
aF0.0
aI6
aI7
aF0.857
aI0
aI5
aI5
aI8
aI1
aI0
aI1
aI2
aI14
aI17
aa(lp183
V0020500565
p184
aVJAN 20, 2006
p185
aVNOK @ WAS
p186
aVL
p187
aI22
aI2
aI10
aF0.2
aI0
aI1
aF0.0
aI0
aI0
aF0.0
aI0
aI2
aI2
aI4
aI2
aI0
aI1
aI1
aI4
aI-12
aa(lp188
V0020500578
p189
aVJAN 21, 2006
p190
aVNOK @ NYK
p191
aVW
p192
aI26
aI3
aI5
aF0.6
aI0
aI0
aF0.0
aI4
aI4
aF1.0
aI0
aI1
aI1
aI5
aI2
aI0
aI1
aI4
aI10
aI7
aa(lp193
V0020500593
p194
aVJAN 23, 2006
p195
aVNOK @ BOS
p196
aVL
p197
aI22
aI2
aI6
aF0.333
aI0
aI1
aF0.0
aI1
aI1
aF1.0
aI0
aI1
aI1
aI3
aI0
aI0
aI2
aI3
aI5
aI-2
aa(lp198
V0020500609
p199
aVJAN 25, 2006
p200
aVNOK vs. SAS
p201
aVL
p202
aI28
aI0
aI7
aF0.0
aI0
aI0
aF0.0
aI0
aI0
aF0.0
aI0
aI3
aI3
aI2
aI0
aI0
aI0
aI2
aI0
aI-2
aa(lp203
V0020500634
p204
aVJAN 28, 2006
p205
aVNOK @ MEM
p206
aVW
p207
aI31
aI9
aI18
aF0.5
aI0
aI0
aF0.0
aI2
aI4
aF0.5
aI0
aI2
aI2
aI5
aI2
aI0
aI2
aI5
aI20
aI12
aa(lp208
V0020500651
p209
aVJAN 30, 2006
p210
aVNOK vs. MIL
p211
aVW
p212
aI32
aI6
aI7
aF0.857
aI0
aI0
aF0.0
aI7
aI9
aF0.778
aI1
aI2
aI3
aI4
aI0
aI0
aI3
aI3
aI19
aI8
aa(lp213
V0020500669
p214
aVFEB 01, 2006
p215
aVNOK vs. CHI
p216
aVW
p217
aI26
aI2
aI10
aF0.2
aI0
aI2
aF0.0
aI3
aI6
aF0.5
aI0
aI4
aI4
aI6
aI1
aI1
aI1
aI2
aI7
aI1
aa(lp218
V0020500689
p219
aVFEB 04, 2006
p220
aVNOK vs. LAL
p221
aVW
p222
aI34
aI3
aI10
aF0.3
aI0
aI0
aF0.0
aI2
aI2
aF1.0
aI0
aI4
aI4
aI5
aI1
aI0
aI4
aI0
aI8
aI18
aa(lp223
V0020500700
p224
aVFEB 06, 2006
p225
aVNOK @ NJN
p226
aVL
p227
aI33
aI8
aI14
aF0.571
aI0
aI0
aF0.0
aI7
aI9
aF0.778
aI0
aI2
aI2
aI6
aI3
aI0
aI3
aI4
aI23
aI11
aa(lp228
V0020500718
p229
aVFEB 08, 2006
p230
aVNOK vs. SEA
p231
aVW
p232
aI1
aI0
aI0
aF0.0
aI0
aI0
aF0.0
aI0
aI0
aF0.0
aI0
aI0
aI0
aI0
aI0
aI0
aI0
aI0
aI0
aI0
aa(lp233
V0020500731
p234
aVFEB 10, 2006
p235
aVNOK vs. NYK
p236
aVW
p237
aI41
aI5
aI12
aF0.417
aI0
aI0
aF0.0
aI8
aI10
aF0.8
aI0
aI3
aI3
aI11
aI0
aI1
aI2
aI5
aI18
aI13
aa(lp238
V0020500738
p239
aVFEB 11, 2006
p240
aVNOK @ MIN
p241
aVW
p242
aI42
aI11
aI22
aF0.5
aI1
aI1
aF1.0
aI5
aI5
aF1.0
aI0
aI3
aI3
aI7
aI2
aI0
aI2
aI1
aI28
aI11
aa(lp243
V0020500753
p244
aVFEB 13, 2006
p245
aVNOK vs. WAS
p246
aVW
p247
aI37
aI8
aI13
aF0.615
aI0
aI0
aF0.0
aI0
aI0
aF0.0
aI1
aI2
aI3
aI10
aI2
aI0
aI4
aI2
aI16
aI8
aa(lp248
V0020500771
p249
aVFEB 15, 2006
p250
aVNOK vs. POR
p251
aVW
p252
aI25
aI5
aI12
aF0.417
aI0
aI2
aF0.0
aI1
aI2
aF0.5
aI3
aI2
aI5
aI2
aI0
aI0
aI2
aI2
aI11
aI16
aa(lp253
V0020500781
p254
aVFEB 21, 2006
p255
aVNOK @ IND
p256
aVL
p257
aI25
aI1
aI8
aF0.125
aI0
aI0
aF0.0
aI4
aI4
aF1.0
aI1
aI2
aI3
aI3
aI3
aI0
aI4
aI2
aI6
aI-7
aa(lp258
V0020500885
p259
aVMAR 06, 2006
p260
aVNOK vs. PHX
p261
aVL
p262
aI29
aI4
aI14
aF0.286
aI0
aI0
aF0.0
aI1
aI3
aF0.333
aI3
aI0
aI3
aI4
aI2
aI0
aI0
aI4
aI9
aI10
aa(lp263
V0020500903
p264
aVMAR 08, 2006
p265
aVNOK vs. LAL
p266
aVL
p267
aI27
aI9
aI16
aF0.563
aI2
aI3
aF0.667
aI2
aI2
aF1.0
aI1
aI1
aI2
aI5
aI2
aI0
aI3
aI3
aI22
aI1
aa(lp268
V0020500914
p269
aVMAR 10, 2006
p270
aVNOK vs. IND
p271
aVL
p272
aI27
aI2
aI11
aF0.182
aI0
aI0
aF0.0
aI7
aI8
aF0.875
aI0
aI5
aI5
aI4
aI2
aI0
aI2
aI1
aI11
aI-7
aa(lp273
V0020500933
p274
aVMAR 12, 2006
p275
aVNOK vs. NJN
p276
aVL
p277
aI29
aI4
aI11
aF0.364
aI0
aI2
aF0.0
aI4
aI6
aF0.667
aI0
aI3
aI3
aI2
aI5
aI0
aI1
aI3
aI12
aI-10
aa(lp278
V0020500947
p279
aVMAR 14, 2006
p280
aVNOK @ SAS
p281
aVL
p282
aI19
aI4
aI9
aF0.444
aI1
aI1
aF1.0
aI5
aI5
aF1.0
aI1
aI2
aI3
aI1
aI0
aI0
aI0
aI4
aI14
aI-5
aa(lp283
V0020500976
p284
aVMAR 18, 2006
p285
aVNOK vs. DEN
p286
aVL
p287
aI25
aI2
aI7
aF0.286
aI0
aI1
aF0.0
aI2
aI3
aF0.667
aI0
aI2
aI2
aI6
aI0
aI0
aI2
aI4
aI6
aI-2
aa(lp288
V0020500996
p289
aVMAR 21, 2006
p290
aVNOK vs. LAC
p291
aVW
p292
aI28
aI2
aI7
aF0.286
aI1
aI2
aF0.5
aI3
aI6
aF0.5
aI0
aI1
aI1
aI5
aI1
aI0
aI2
aI2
aI8
aI10
aa(lp293
V0020501013
p294
aVMAR 23, 2006
p295
aVNOK vs. HOU
p296
aVL
p297
aI22
aI4
aI12
aF0.333
aI0
aI1
aF0.0
aI3
aI3
aF1.0
aI0
aI0
aI0
aI10
aI2
aI0
aI2
aI3
aI11
aI-2
aa(lp298
V0020501023
p299
aVMAR 24, 2006
p300
aVNOK @ CHI
p301
aVL
p302
aI29
aI3
aI9
aF0.333
aI0
aI0
aF0.0
aI4
aI4
aF1.0
aI0
aI1
aI1
aI6
aI5
aI0
aI0
aI2
aI10
aI-6
aa(lp303
V0020501042
p304
aVMAR 26, 2006
p305
aVNOK @ LAL
p306
aVL
p307
aI30
aI4
aI10
aF0.4
aI1
aI3
aF0.333
aI0
aI0
aF0.0
aI0
aI2
aI2
aI6
aI0
aI0
aI2
aI6
aI9
aI-14
aa(lp308
V0020501045
p309
aVMAR 27, 2006
p310
aVNOK @ UTA
p311
aVL
p312
aI25
aI3
aI8
aF0.375
aI1
aI3
aF0.333
aI6
aI9
aF0.667
aI0
aI1
aI1
aI5
aI0
aI0
aI1
aI3
aI13
aI-10
aa(lp313
V0020501073
p314
aVMAR 31, 2006
p315
aVNOK vs. MEM
p316
aVW
p317
aI37
aI3
aI8
aF0.375
aI0
aI0
aF0.0
aI2
aI3
aF0.667
aI0
aI0
aI0
aI8
aI0
aI0
aI2
aI2
aI8
aI-5
aa(lp318
V0020501084
p319
aVAPR 02, 2006
p320
aVNOK @ TOR
p321
aVW
p322
aI41
aI2
aI10
aF0.2
aI0
aI1
aF0.0
aI6
aI6
aF1.0
aI0
aI3
aI3
aI12
aI3
aI0
aI4
aI4
aI10
aI5
aa(lp323
V0020501101
p324
aVAPR 04, 2006
p325
aVNOK @ DET
p326
aVL
p327
aI28
aI4
aI10
aF0.4
aI0
aI0
aF0.0
aI1
aI2
aF0.5
aI0
aI3
aI3
aI6
aI0
aI0
aI2
aI3
aI9
aI-9
aa(lp328
V0020501114
p329
aVAPR 05, 2006
p330
aVNOK vs. GSW
p331
aVW
p332
aI36
aI8
aI16
aF0.5
aI0
aI1
aF0.0
aI5
aI7
aF0.714
aI1
aI0
aI1
aI7
aI0
aI0
aI1
aI1
aI21
aI10
aa(lp333
V0020501126
p334
aVAPR 07, 2006
p335
aVNOK vs. TOR
p336
aVW
p337
aI27
aI5
aI13
aF0.385
aI0
aI0
aF0.0
aI1
aI2
aF0.5
aI0
aI4
aI4
aI4
aI1
aI0
aI1
aI1
aI11
aI-2
aa(lp338
V0020501136
p339
aVAPR 08, 2006
p340
aVNOK @ DAL
p341
aVL
p342
aI19
aI3
aI4
aF0.75
aI0
aI0
aF0.0
aI0
aI0
aF0.0
aI0
aI0
aI0
aI1
aI0
aI0
aI4
aI4
aI6
aI-18
aa(lp343
V0020501152
p344
aVAPR 10, 2006
p345
aVNOK vs. CLE
p346
aVL
p347
aI26
aI5
aI10
aF0.5
aI0
aI2
aF0.0
aI4
aI6
aF0.667
aI0
aI4
aI4
aI4
aI3
aI0
aI2
aI2
aI14
aI1
aa(lp348
V0020501169
p349
aVAPR 12, 2006
p350
aVNOK vs. SEA
p351
aVW
p352
aI26
aI4
aI7
aF0.571
aI0
aI0
aF0.0
aI2
aI4
aF0.5
aI0
aI0
aI0
aI4
aI0
aI0
aI3
aI2
aI10
aI3
aa(lp353
V0020501183
p354
aVAPR 14, 2006
p355
aVNOK vs. UTA
p356
aVL
p357
aI28
aI6
aI13
aF0.462
aI0
aI1
aF0.0
aI3
aI4
aF0.75
aI0
aI2
aI2
aI3
aI1
aI0
aI4
aI1
aI15
aI11
aasS'name'
p358
VSpeedy Claxton
p359
sS'weight'
p360
V170
p361
sS'age'
p362
I27
sS'experience'
p363
I4
sS'height'
p364
V5-11
p365
sS'position'
p366
VGuard
p367
s.