(dp0
S'age'
p1
I27
sS'stats'
p2
(lp3
(lp4
V0020500003
p5
aVNOV 01, 2005
p6
aVPHX vs. DAL
p7
aVL
p8
aI5
aI2
aI2
aF1.0
aI0
aI0
aF0.0
aI0
aI0
aF0.0
aI0
aI1
aI1
aI1
aI2
aI0
aI0
aI0
aI4
aI4
aa(lp9
V0020500019
p10
aVNOV 03, 2005
p11
aVPHX @ LAL
p12
aVW
p13
aI9
aI4
aI7
aF0.571
aI2
aI4
aF0.5
aI0
aI0
aF0.0
aI0
aI0
aI0
aI1
aI0
aI0
aI0
aI0
aI10
aI11
aa(lp14
V0020500040
p15
aVNOV 05, 2005
p16
aVPHX @ UTA
p17
aVW
p18
aI10
aI3
aI8
aF0.375
aI1
aI4
aF0.25
aI0
aI0
aF0.0
aI0
aI0
aI0
aI1
aI0
aI1
aI0
aI3
aI7
aI5
aa(lp19
V0020500044
p20
aVNOV 06, 2005
p21
aVPHX vs. SAC
p22
aVL
p23
aI15
aI5
aI7
aF0.714
aI1
aI3
aF0.333
aI0
aI0
aF0.0
aI0
aI1
aI1
aI2
aI1
aI0
aI0
aI2
aI11
aI2
aa(lp24
V0020500070
p25
aVNOV 10, 2005
p26
aVPHX vs. DET
p27
aVL
p28
aI13
aI1
aI7
aF0.143
aI0
aI2
aF0.0
aI0
aI0
aF0.0
aI1
aI1
aI2
aI0
aI0
aI1
aI1
aI1
aI2
aI-11
aa(lp29
V0020500088
p30
aVNOV 12, 2005
p31
aVPHX vs. GSW
p32
aVW
p33
aI10
aI1
aI5
aF0.2
aI0
aI1
aF0.0
aI0
aI0
aF0.0
aI0
aI0
aI0
aI0
aI0
aI0
aI0
aI0
aI2
aI3
aa(lp34
V0020500113
p35
aVNOV 16, 2005
p36
aVPHX vs. MEM
p37
aVL
p38
aI10
aI1
aI3
aF0.333
aI0
aI2
aF0.0
aI1
aI1
aF1.0
aI0
aI1
aI1
aI2
aI0
aI1
aI1
aI2
aI3
aI-2
aa(lp39
V0020500126
p40
aVNOV 18, 2005
p41
aVPHX vs. UTA
p42
aVW
p43
aI30
aI11
aI16
aF0.688
aI7
aI11
aF0.636
aI2
aI4
aF0.5
aI1
aI3
aI4
aI4
aI2
aI0
aI0
aI2
aI31
aI11
aa(lp44
V0020500137
p45
aVNOV 19, 2005
p46
aVPHX @ SAS
p47
aVL
p48
aI15
aI0
aI4
aF0.0
aI0
aI2
aF0.0
aI0
aI0
aF0.0
aI0
aI0
aI0
aI1
aI0
aI0
aI4
aI2
aI0
aI0
aa(lp49
V0020500154
p50
aVNOV 22, 2005
p51
aVPHX vs. TOR
p52
aVW
p53
aI17
aI6
aI12
aF0.5
aI2
aI6
aF0.333
aI0
aI0
aF0.0
aI0
aI1
aI1
aI0
aI0
aI0
aI0
aI0
aI14
aI10
aa(lp54
V0020500161
p55
aVNOV 23, 2005
p56
aVPHX @ HOU
p57
aVW
p58
aI12
aI1
aI3
aF0.333
aI0
aI0
aF0.0
aI0
aI0
aF0.0
aI0
aI1
aI1
aI5
aI0
aI0
aI2
aI3
aI2
aI-6
aa(lp59
V0020500180
p60
aVNOV 25, 2005
p61
aVPHX vs. NJN
p62
aVW
p63
aI10
aI4
aI6
aF0.667
aI1
aI2
aF0.5
aI0
aI0
aF0.0
aI0
aI0
aI0
aI0
aI0
aI1
aI0
aI1
aI9
aI4
aa(lp64
V0020500214
p65
aVNOV 30, 2005
p66
aVPHX vs. IND
p67
aVW
p68
aI17
aI5
aI11
aF0.455
aI0
aI1
aF0.0
aI0
aI0
aF0.0
aI0
aI1
aI1
aI2
aI2
aI0
aI2
aI1
aI10
aI-8
aa(lp69
V0020500225
p70
aVDEC 02, 2005
p71
aVPHX vs. DEN
p72
aVW
p73
aI17
aI5
aI12
aF0.417
aI2
aI5
aF0.4
aI0
aI0
aF0.0
aI1
aI1
aI2
aI3
aI0
aI0
aI1
aI1
aI12
aI8
aa(lp74
V0020500240
p75
aVDEC 04, 2005
p76
aVPHX vs. ATL
p77
aVW
p78
aI18
aI5
aI9
aF0.556
aI2
aI3
aF0.667
aI2
aI2
aF1.0
aI0
aI2
aI2
aI3
aI0
aI0
aI1
aI2
aI14
aI3
aa(lp79
V0020500267
p80
aVDEC 07, 2005
p81
aVPHX @ GSW
p82
aVW
p83
aI16
aI2
aI7
aF0.286
aI1
aI2
aF0.5
aI0
aI0
aF0.0
aI0
aI2
aI2
aI2
aI1
aI0
aI0
aI0
aI5
aI6
aa(lp84
V0020500277
p85
aVDEC 09, 2005
p86
aVPHX vs. NYK
p87
aVW
p88
aI14
aI7
aI12
aF0.583
aI1
aI4
aF0.25
aI0
aI0
aF0.0
aI0
aI0
aI0
aI1
aI0
aI0
aI1
aI0
aI15
aI7
aa(lp89
V0020500290
p90
aVDEC 10, 2005
p91
aVPHX @ LAC
p92
aVL
p93
aI22
aI2
aI10
aF0.2
aI0
aI3
aF0.0
aI4
aI5
aF0.8
aI0
aI2
aI2
aI4
aI0
aI0
aI0
aI2
aI8
aI8
aa(lp94
V0020500299
p95
aVDEC 12, 2005
p96
aVPHX vs. NOK
p97
aVL
p98
aI26
aI3
aI13
aF0.231
aI2
aI9
aF0.222
aI0
aI0
aF0.0
aI1
aI4
aI5
aI3
aI1
aI2
aI3
aI2
aI8
aI7
aa(lp99
V0020500316
p100
aVDEC 14, 2005
p101
aVPHX @ DAL
p102
aVL
p103
aI19
aI4
aI12
aF0.333
aI1
aI4
aF0.25
aI0
aI0
aF0.0
aI1
aI1
aI2
aI3
aI0
aI0
aI1
aI3
aI9
aI-8
aa(lp104
V0020500329
p105
aVDEC 16, 2005
p106
aVPHX @ NOK
p107
aVW
p108
aI26
aI10
aI17
aF0.588
aI4
aI8
aF0.5
aI2
aI2
aF1.0
aI0
aI0
aI0
aI1
aI0
aI1
aI0
aI1
aI26
aI20
aa(lp109
V0020500337
p110
aVDEC 17, 2005
p111
aVPHX @ MEM
p112
aVL
p113
aI37
aI8
aI20
aF0.4
aI5
aI9
aF0.556
aI0
aI0
aF0.0
aI2
aI5
aI7
aI1
aI0
aI0
aI2
aI3
aI21
aI10
aa(lp114
V0020500358
p115
aVDEC 20, 2005
p116
aVPHX vs. SEA
p117
aVW
p118
aI24
aI9
aI13
aF0.692
aI2
aI6
aF0.333
aI0
aI0
aF0.0
aI0
aI3
aI3
aI3
aI1
aI0
aI3
aI0
aI20
aI33
aa(lp119
V0020500383
p120
aVDEC 23, 2005
p121
aVPHX vs. WAS
p122
aVL
p123
aI19
aI4
aI15
aF0.267
aI1
aI2
aF0.5
aI0
aI0
aF0.0
aI0
aI1
aI1
aI4
aI0
aI0
aI1
aI3
aI9
aI1
aa(lp124
V0020500391
p125
aVDEC 26, 2005
p126
aVPHX @ MIN
p127
aVW
p128
aI15
aI3
aI5
aF0.6
aI1
aI2
aF0.5
aI0
aI0
aF0.0
aI0
aI0
aI0
aI0
aI0
aI0
aI0
aI0
aI7
aI-4
aa(lp129
V0020500406
p130
aVDEC 28, 2005
p131
aVPHX @ WAS
p132
aVW
p133
aI14
aI1
aI7
aF0.143
aI0
aI1
aF0.0
aI2
aI2
aF1.0
aI0
aI1
aI1
aI1
aI0
aI0
aI1
aI0
aI4
aI-10
aa(lp134
V0020500421
p135
aVDEC 30, 2005
p136
aVPHX @ CHA
p137
aVW
p138
aI27
aI10
aI18
aF0.556
aI4
aI7
aF0.571
aI2
aI3
aF0.667
aI0
aI2
aI2
aI0
aI0
aI1
aI2
aI3
aI26
aI9
aa(lp139
V0020500427
p140
aVDEC 31, 2005
p141
aVPHX @ CHI
p142
aVW
p143
aI24
aI4
aI13
aF0.308
aI1
aI6
aF0.167
aI2
aI2
aF1.0
aI0
aI2
aI2
aI4
aI1
aI0
aI0
aI1
aI11
aI6
aa(lp144
V0020500438
p145
aVJAN 02, 2006
p146
aVPHX @ NYK
p147
aVL
p148
aI38
aI6
aI15
aF0.4
aI2
aI7
aF0.286
aI0
aI0
aF0.0
aI0
aI2
aI2
aI5
aI0
aI0
aI3
aI1
aI14
aI-1
aa(lp149
V0020500456
p150
aVJAN 04, 2006
p151
aVPHX vs. PHI
p152
aVW
p153
aI22
aI7
aI15
aF0.467
aI4
aI7
aF0.571
aI0
aI0
aF0.0
aI0
aI2
aI2
aI2
aI1
aI0
aI1
aI0
aI18
aI0
aa(lp154
V0020500470
p155
aVJAN 06, 2006
p156
aVPHX vs. MIA
p157
aVW
p158
aI21
aI4
aI12
aF0.333
aI2
aI5
aF0.4
aI0
aI0
aF0.0
aI0
aI6
aI6
aI1
aI1
aI0
aI2
aI1
aI10
aI-9
aa(lp159
V0020500479
p160
aVJAN 07, 2006
p161
aVPHX vs. SAS
p162
aVW
p163
aI16
aI0
aI4
aF0.0
aI0
aI1
aF0.0
aI2
aI2
aF1.0
aI0
aI1
aI1
aI0
aI0
aI0
aI1
aI2
aI2
aI-4
aa(lp164
V0020500498
p165
aVJAN 10, 2006
p166
aVPHX @ DEN
p167
aVL
p168
aI19
aI2
aI7
aF0.286
aI0
aI2
aF0.0
aI0
aI0
aF0.0
aI0
aI1
aI1
aI4
aI1
aI0
aI0
aI2
aI4
aI4
aa(lp169
V0020500511
p170
aVJAN 12, 2006
p171
aVPHX vs. GSW
p172
aVW
p173
aI23
aI5
aI11
aF0.455
aI3
aI5
aF0.6
aI2
aI2
aF1.0
aI0
aI1
aI1
aI2
aI0
aI1
aI1
aI1
aI15
aI-5
aa(lp174
V0020500530
p175
aVJAN 14, 2006
p176
aVPHX vs. CLE
p177
aVW
p178
aI19
aI7
aI10
aF0.7
aI3
aI4
aF0.75
aI0
aI0
aF0.0
aI1
aI3
aI4
aI0
aI0
aI0
aI2
aI2
aI17
aI3
aa(lp179
V0020500549
p180
aVJAN 17, 2006
p181
aVPHX @ SAC
p182
aVL
p183
aI20
aI3
aI11
aF0.273
aI1
aI4
aF0.25
aI0
aI0
aF0.0
aI0
aI3
aI3
aI4
aI1
aI1
aI2
aI1
aI7
aI-12
aa(lp184
V0020500561
p185
aVJAN 18, 2006
p186
aVPHX @ LAC
p187
aVW
p188
aI10
aI2
aI5
aF0.4
aI1
aI3
aF0.333
aI0
aI0
aF0.0
aI1
aI1
aI2
aI3
aI2
aI0
aI0
aI0
aI5
aI3
aa(lp189
V0020500573
p190
aVJAN 20, 2006
p191
aVPHX vs. LAL
p192
aVW
p193
aI24
aI8
aI14
aF0.571
aI3
aI5
aF0.6
aI0
aI0
aF0.0
aI0
aI2
aI2
aI0
aI1
aI0
aI2
aI1
aI19
aI5
aa(lp194
V0020500589
p195
aVJAN 22, 2006
p196
aVPHX vs. SEA
p197
aVL
p198
aI15
aI2
aI8
aF0.25
aI1
aI2
aF0.5
aI0
aI0
aF0.0
aI0
aI0
aI0
aI3
aI1
aI0
aI0
aI2
aI5
aI-2
aa(lp199
V0020500599
p200
aVJAN 24, 2006
p201
aVPHX @ ORL
p202
aVL
p203
aI17
aI4
aI6
aF0.667
aI0
aI1
aF0.0
aI0
aI0
aF0.0
aI0
aI1
aI1
aI2
aI1
aI0
aI2
aI1
aI8
aI-12
aa(lp204
V0020500617
p205
aVJAN 26, 2006
p206
aVPHX @ MIA
p207
aVW
p208
aI8
aI0
aI3
aF0.0
aI0
aI1
aF0.0
aI0
aI0
aF0.0
aI0
aI1
aI1
aI2
aI0
aI0
aI0
aI1
aI0
aI-7
aa(lp209
V0020500619
p210
aVJAN 27, 2006
p211
aVPHX @ ATL
p212
aVW
p213
aI17
aI5
aI13
aF0.385
aI2
aI5
aF0.4
aI2
aI2
aF1.0
aI1
aI2
aI3
aI3
aI1
aI0
aI0
aI2
aI14
aI19
aa(lp214
V0020500642
p215
aVJAN 29, 2006
p216
aVPHX @ CLE
p217
aVL
p218
aI20
aI7
aI11
aF0.636
aI2
aI5
aF0.4
aI0
aI0
aF0.0
aI0
aI2
aI2
aI0
aI0
aI0
aI1
aI1
aI16
aI-10
aa(lp219
V0020500655
p220
aVJAN 31, 2006
p221
aVPHX @ PHI
p222
aVW
p223
aI17
aI7
aI12
aF0.583
aI1
aI3
aF0.333
aI0
aI0
aF0.0
aI0
aI1
aI1
aI2
aI2
aI0
aI1
aI1
aI15
aI7
aa(lp224
V0020500665
p225
aVFEB 01, 2006
p226
aVPHX @ BOS
p227
aVW
p228
aI11
aI4
aI7
aF0.571
aI2
aI3
aF0.667
aI0
aI0
aF0.0
aI0
aI4
aI4
aI2
aI0
aI0
aI0
aI0
aI10
aI3
aa(lp229
V0020500693
p230
aVFEB 04, 2006
p231
aVPHX vs. CHI
p232
aVW
p233
aI18
aI6
aI12
aF0.5
aI2
aI6
aF0.333
aI0
aI0
aF0.0
aI0
aI2
aI2
aI4
aI1
aI0
aI1
aI2
aI14
aI-5
aa(lp234
V0020500704
p235
aVFEB 06, 2006
p236
aVPHX vs. MIN
p237
aVL
p238
aI10
aI1
aI6
aF0.167
aI1
aI4
aF0.25
aI0
aI0
aF0.0
aI0
aI1
aI1
aI1
aI0
aI0
aI2
aI0
aI3
aI-17
aa(lp239
V0020500721
p240
aVFEB 08, 2006
p241
aVPHX vs. MEM
p242
aVW
p243
aI14
aI3
aI5
aF0.6
aI2
aI2
aF1.0
aI0
aI0
aF0.0
aI0
aI0
aI0
aI2
aI0
aI0
aI0
aI1
aI8
aI4
aa(lp244
V0020500733
p245
aVFEB 10, 2006
p246
aVPHX vs. SAC
p247
aVW
p248
aI14
aI3
aI5
aF0.6
aI2
aI3
aF0.667
aI1
aI2
aF0.5
aI0
aI1
aI1
aI2
aI0
aI0
aI2
aI0
aI9
aI-3
aa(lp249
V0020500774
p250
aVFEB 15, 2006
p251
aVPHX @ DEN
p252
aVW
p253
aI18
aI3
aI9
aF0.333
aI2
aI3
aF0.667
aI0
aI0
aF0.0
aI0
aI2
aI2
aI4
aI0
aI1
aI1
aI1
aI8
aI-5
aa(lp254
V0020500778
p255
aVFEB 16, 2006
p256
aVPHX vs. HOU
p257
aVW
p258
aI24
aI6
aI13
aF0.462
aI3
aI8
aF0.375
aI1
aI2
aF0.5
aI0
aI4
aI4
aI3
aI0
aI0
aI2
aI1
aI16
aI8
aa(lp259
V0020500798
p260
aVFEB 22, 2006
p261
aVPHX vs. BOS
p262
aVW
p263
aI16
aI1
aI9
aF0.111
aI0
aI7
aF0.0
aI0
aI0
aF0.0
aI0
aI0
aI0
aI0
aI0
aI0
aI0
aI1
aI2
aI1
aa(lp264
V0020500821
p265
aVFEB 25, 2006
p266
aVPHX vs. CHA
p267
aVW
p268
aI15
aI4
aI8
aF0.5
aI1
aI3
aF0.333
aI0
aI0
aF0.0
aI0
aI2
aI2
aI0
aI1
aI0
aI2
aI2
aI9
aI0
aa(lp269
V0020500832
p270
aVFEB 27, 2006
p271
aVPHX @ HOU
p272
aVW
p273
aI22
aI4
aI11
aF0.364
aI4
aI7
aF0.571
aI0
aI0
aF0.0
aI0
aI3
aI3
aI2
aI2
aI0
aI1
aI2
aI12
aI17
aa(lp274
V0020500851
p275
aVMAR 01, 2006
p276
aVPHX vs. MIL
p277
aVW
p278
aI20
aI3
aI10
aF0.3
aI1
aI4
aF0.25
aI0
aI0
aF0.0
aI0
aI2
aI2
aI1
aI0
aI0
aI1
aI2
aI7
aI-9
aa(lp279
V0020500864
p280
aVMAR 03, 2006
p281
aVPHX vs. ORL
p282
aVW
p283
aI12
aI2
aI6
aF0.333
aI1
aI1
aF1.0
aI0
aI0
aF0.0
aI1
aI0
aI1
aI2
aI0
aI0
aI0
aI0
aI5
aI-1
aa(lp284
V0020500877
p285
aVMAR 05, 2006
p286
aVPHX @ DAL
p287
aVW
p288
aI12
aI3
aI6
aF0.5
aI1
aI2
aF0.5
aI0
aI0
aF0.0
aI0
aI1
aI1
aI2
aI1
aI0
aI1
aI2
aI7
aI14
aa(lp289
V0020500885
p290
aVMAR 06, 2006
p291
aVPHX @ NOK
p292
aVW
p293
aI22
aI3
aI10
aF0.3
aI1
aI3
aF0.333
aI0
aI0
aF0.0
aI0
aI2
aI2
aI0
aI0
aI0
aI1
aI2
aI7
aI7
aa(lp294
V0020500909
p295
aVMAR 09, 2006
p296
aVPHX vs. SAS
p297
aVL
p298
aI25
aI5
aI12
aF0.417
aI1
aI3
aF0.333
aI0
aI0
aF0.0
aI0
aI1
aI1
aI2
aI2
aI0
aI2
aI3
aI11
aI-7
aa(lp299
V0020500925
p300
aVMAR 11, 2006
p301
aVPHX vs. MIN
p302
aVW
p303
aI10
aI3
aI5
aF0.6
aI1
aI2
aF0.5
aI0
aI0
aF0.0
aI0
aI0
aI0
aI0
aI0
aI0
aI0
aI1
aI7
aI0
aa(lp304
V0020500935
p305
aVMAR 12, 2006
p306
aVPHX @ POR
p307
aVL
p308
aI11
aI1
aI4
aF0.25
aI0
aI1
aF0.0
aI0
aI0
aF0.0
aI0
aI1
aI1
aI0
aI0
aI0
aI2
aI0
aI2
aI-1
aa(lp309
V0020500949
p310
aVMAR 14, 2006
p311
aVPHX @ SEA
p312
aVW
p313
aI16
aI2
aI7
aF0.286
aI0
aI2
aF0.0
aI0
aI0
aF0.0
aI0
aI2
aI2
aI3
aI0
aI0
aI1
aI2
aI4
aI-1
aa(lp314
V0020500958
p315
aVMAR 15, 2006
p316
aVPHX vs. LAC
p317
aVW
p318
aI19
aI3
aI10
aF0.3
aI0
aI3
aF0.0
aI0
aI0
aF0.0
aI0
aI0
aI0
aI2
aI2
aI0
aI1
aI0
aI6
aI-8
aa(lp319
V0020500972
p320
aVMAR 17, 2006
p321
aVPHX @ SAS
p322
aVL
p323
aI13
aI2
aI5
aF0.4
aI1
aI1
aF1.0
aI0
aI0
aF0.0
aI0
aI1
aI1
aI0
aI0
aI0
aI0
aI0
aI5
aI-6
aa(lp324
V0020501000
p325
aVMAR 21, 2006
p326
aVPHX @ UTA
p327
aVL
p328
aI13
aI2
aI5
aF0.4
aI1
aI3
aF0.333
aI0
aI0
aF0.0
aI0
aI2
aI2
aI2
aI0
aI0
aI1
aI1
aI5
aI2
aa(lp329
V0020501016
p330
aVMAR 23, 2006
p331
aVPHX vs. POR
p332
aVW
p333
aI22
aI4
aI11
aF0.364
aI3
aI7
aF0.429
aI2
aI2
aF1.0
aI0
aI1
aI1
aI1
aI1
aI0
aI0
aI2
aI13
aI-6
aa(lp334
V0020501030
p335
aVMAR 25, 2006
p336
aVPHX vs. DEN
p337
aVW
p338
aI18
aI3
aI8
aF0.375
aI2
aI5
aF0.4
aI0
aI0
aF0.0
aI0
aI2
aI2
aI2
aI2
aI1
aI0
aI1
aI8
aI24
aa(lp339
V0020501043
p340
aVMAR 27, 2006
p341
aVPHX @ NJN
p342
aVL
p343
aI22
aI6
aI14
aF0.429
aI3
aI6
aF0.5
aI0
aI0
aF0.0
aI1
aI2
aI3
aI3
aI1
aI0
aI1
aI1
aI15
aI6
aa(lp344
V0020501049
p345
aVMAR 28, 2006
p346
aVPHX @ MIL
p347
aVL
p348
aI16
aI7
aI10
aF0.7
aI3
aI5
aF0.6
aI2
aI2
aF1.0
aI0
aI1
aI1
aI1
aI0
aI0
aI0
aI2
aI19
aI-6
aa(lp349
V0020501065
p350
aVMAR 30, 2006
p351
aVPHX @ IND
p352
aVW
p353
aI16
aI4
aI12
aF0.333
aI1
aI6
aF0.167
aI0
aI0
aF0.0
aI0
aI0
aI0
aI2
aI2
aI0
aI1
aI2
aI9
aI6
aa(lp354
V0020501067
p355
aVMAR 31, 2006
p356
aVPHX @ TOR
p357
aVW
p358
aI14
aI0
aI4
aF0.0
aI0
aI2
aF0.0
aI0
aI0
aF0.0
aI0
aI0
aI0
aI3
aI2
aI0
aI0
aI2
aI0
aI11
aa(lp359
V0020501086
p360
aVAPR 02, 2006
p361
aVPHX @ DET
p362
aVL
p363
aI13
aI3
aI7
aF0.429
aI1
aI3
aF0.333
aI0
aI0
aF0.0
aI0
aI1
aI1
aI1
aI0
aI0
aI0
aI0
aI7
aI-8
aa(lp364
V0020501116
p365
aVAPR 05, 2006
p366
aVPHX vs. LAC
p367
aVL
p368
aI15
aI6
aI13
aF0.462
aI4
aI9
aF0.444
aI0
aI0
aF0.0
aI0
aI2
aI2
aI1
aI0
aI0
aI0
aI0
aI16
aI-3
aa(lp369
V0020501130
p370
aVAPR 07, 2006
p371
aVPHX vs. LAL
p372
aVW
p373
aI14
aI4
aI11
aF0.364
aI2
aI3
aF0.667
aI0
aI0
aF0.0
aI0
aI0
aI0
aI1
aI0
aI0
aI0
aI0
aI10
aI3
aa(lp374
V0020501147
p375
aVAPR 09, 2006
p376
aVPHX @ SEA
p377
aVL
p378
aI14
aI3
aI9
aF0.333
aI1
aI6
aF0.167
aI0
aI0
aF0.0
aI0
aI2
aI2
aI3
aI0
aI0
aI1
aI0
aI7
aI-9
aa(lp379
V0020501160
p380
aVAPR 11, 2006
p381
aVPHX @ SAC
p382
aVW
p383
aI10
aI4
aI5
aF0.8
aI1
aI1
aF1.0
aI0
aI0
aF0.0
aI1
aI0
aI1
aI2
aI0
aI0
aI1
aI0
aI9
aI-12
aa(lp384
V0020501176
p385
aVAPR 13, 2006
p386
aVPHX vs. DAL
p387
aVW
p388
aI17
aI4
aI9
aF0.444
aI2
aI4
aF0.5
aI3
aI4
aF0.75
aI0
aI1
aI1
aI0
aI0
aI0
aI0
aI2
aI13
aI-12
aa(lp389
V0020501186
p390
aVAPR 14, 2006
p391
aVPHX @ GSW
p392
aVL
p393
aI28
aI6
aI16
aF0.375
aI3
aI6
aF0.5
aI0
aI0
aF0.0
aI2
aI3
aI5
aI3
aI0
aI0
aI3
aI1
aI15
aI0
aa(lp394
V0020501196
p395
aVAPR 16, 2006
p396
aVPHX @ LAL
p397
aVL
p398
aI24
aI3
aI10
aF0.3
aI0
aI1
aF0.0
aI0
aI0
aF0.0
aI0
aI2
aI2
aI0
aI0
aI0
aI0
aI2
aI6
aI-15
aa(lp399
V0020501210
p400
aVAPR 17, 2006
p401
aVPHX vs. NOK
p402
aVW
p403
aI23
aI5
aI12
aF0.417
aI4
aI7
aF0.571
aI1
aI2
aF0.5
aI0
aI2
aI2
aI2
aI1
aI0
aI2
aI0
aI15
aI20
aa(lp404
V0020501228
p405
aVAPR 19, 2006
p406
aVPHX @ POR
p407
aVW
p408
aI23
aI4
aI12
aF0.333
aI0
aI5
aF0.0
aI0
aI0
aF0.0
aI0
aI2
aI2
aI4
aI1
aI0
aI2
aI1
aI8
aI-10
aasS'name'
p409
VEddie House
p410
sS'experience'
p411
I5
s.