(dp0
S'stats'
p1
(lp2
(lp3
V0020500012
p4
aVNOV 02, 2005
p5
aVCHI vs. CHA
p6
aVW
p7
aI33
aI5
aI7
aF0.714
aI0
aI0
aF0.0
aI1
aI3
aF0.333
aI4
aI7
aI11
aI1
aI0
aI2
aI2
aI4
aI11
aI17
aa(lp8
V0020500032
p9
aVNOV 05, 2005
p10
aVCHI @ NJN
p11
aVL
p12
aI28
aI0
aI4
aF0.0
aI0
aI0
aF0.0
aI1
aI2
aF0.5
aI3
aI5
aI8
aI0
aI0
aI2
aI1
aI6
aI1
aI3
aa(lp13
V0020500050
p14
aVNOV 07, 2005
p15
aVCHI vs. SAS
p16
aVL
p17
aI33
aI5
aI9
aF0.556
aI0
aI0
aF0.0
aI1
aI1
aF1.0
aI3
aI9
aI12
aI1
aI0
aI0
aI1
aI4
aI11
aI-7
aa(lp18
V0020500065
p19
aVNOV 09, 2005
p20
aVCHI vs. GSW
p21
aVW
p22
aI31
aI3
aI4
aF0.75
aI0
aI0
aF0.0
aI0
aI2
aF0.0
aI2
aI7
aI9
aI2
aI0
aI0
aI3
aI5
aI6
aI-2
aa(lp23
V0020500086
p24
aVNOV 12, 2005
p25
aVCHI vs. UTA
p26
aVW
p27
aI39
aI1
aI3
aF0.333
aI0
aI0
aF0.0
aI3
aI4
aF0.75
aI3
aI8
aI11
aI2
aI0
aI0
aI3
aI3
aI5
aI-1
aa(lp28
V0020500097
p29
aVNOV 14, 2005
p30
aVCHI @ GSW
p31
aVL
p32
aI20
aI2
aI3
aF0.667
aI0
aI0
aF0.0
aI0
aI0
aF0.0
aI3
aI6
aI9
aI1
aI1
aI0
aI3
aI4
aI4
aI-11
aa(lp33
V0020500115
p34
aVNOV 16, 2005
p35
aVCHI @ POR
p36
aVL
p37
aI20
aI2
aI4
aF0.5
aI0
aI0
aF0.0
aI0
aI0
aF0.0
aI4
aI3
aI7
aI1
aI1
aI0
aI1
aI2
aI4
aI2
aa(lp38
V0020500131
p39
aVNOV 18, 2005
p40
aVCHI @ SEA
p41
aVL
p42
aI24
aI1
aI2
aF0.5
aI0
aI0
aF0.0
aI1
aI4
aF0.25
aI3
aI5
aI8
aI1
aI0
aI1
aI2
aI2
aI3
aI-17
aa(lp43
V0020500145
p44
aVNOV 20, 2005
p45
aVCHI @ LAL
p46
aVW
p47
aI35
aI3
aI8
aF0.375
aI0
aI0
aF0.0
aI0
aI0
aF0.0
aI7
aI8
aI15
aI1
aI0
aI2
aI0
aI3
aI6
aI4
aa(lp48
V0020500176
p49
aVNOV 25, 2005
p50
aVCHI @ SAS
p51
aVW
p52
aI28
aI4
aI5
aF0.8
aI0
aI0
aF0.0
aI1
aI2
aF0.5
aI5
aI7
aI12
aI2
aI0
aI2
aI4
aI4
aI9
aI6
aa(lp53
V0020500186
p54
aVNOV 26, 2005
p55
aVCHI @ HOU
p56
aVW
p57
aI24
aI1
aI4
aF0.25
aI0
aI0
aF0.0
aI3
aI5
aF0.6
aI1
aI6
aI7
aI0
aI0
aI0
aI0
aI6
aI5
aI4
aa(lp58
V0020500201
p59
aVNOV 29, 2005
p60
aVCHI vs. ORL
p61
aVW
p62
aI33
aI4
aI4
aF1.0
aI0
aI0
aF0.0
aI1
aI2
aF0.5
aI3
aI4
aI7
aI1
aI2
aI0
aI1
aI6
aI9
aI10
aa(lp63
V0020500212
p64
aVNOV 30, 2005
p65
aVCHI @ NYK
p66
aVL
p67
aI18
aI0
aI0
aF0.0
aI0
aI0
aF0.0
aI0
aI0
aF0.0
aI2
aI3
aI5
aI0
aI2
aI0
aI1
aI6
aI0
aI-3
aa(lp68
V0020500221
p69
aVDEC 02, 2005
p70
aVCHI @ BOS
p71
aVW
p72
aI40
aI3
aI4
aF0.75
aI0
aI0
aF0.0
aI4
aI10
aF0.4
aI7
aI9
aI16
aI2
aI1
aI3
aI2
aI2
aI10
aI1
aa(lp73
V0020500232
p74
aVDEC 03, 2005
p75
aVCHI vs. DET
p76
aVL
p77
aI25
aI1
aI2
aF0.5
aI0
aI0
aF0.0
aI1
aI2
aF0.5
aI1
aI5
aI6
aI0
aI0
aI0
aI2
aI4
aI3
aI-9
aa(lp78
V0020500246
p79
aVDEC 05, 2005
p80
aVCHI vs. DAL
p81
aVL
p82
aI28
aI1
aI4
aF0.25
aI0
aI0
aF0.0
aI0
aI0
aF0.0
aI1
aI6
aI7
aI1
aI2
aI2
aI2
aI3
aI2
aI-7
aa(lp83
V0020500260
p84
aVDEC 07, 2005
p85
aVCHI @ ORL
p86
aVW
p87
aI5
aI1
aI2
aF0.5
aI0
aI0
aF0.0
aI0
aI0
aF0.0
aI0
aI0
aI0
aI0
aI0
aI0
aI0
aI1
aI2
aI0
aa(lp88
V0020500274
p89
aVDEC 09, 2005
p90
aVCHI vs. LAL
p91
aVL
p92
aI28
aI0
aI2
aF0.0
aI0
aI0
aF0.0
aI1
aI2
aF0.5
aI1
aI4
aI5
aI2
aI2
aI1
aI0
aI1
aI1
aI-13
aa(lp93
V0020500280
p94
aVDEC 10, 2005
p95
aVCHI @ WAS
p96
aVW
p97
aI24
aI2
aI2
aF1.0
aI0
aI0
aF0.0
aI0
aI3
aF0.0
aI2
aI3
aI5
aI2
aI1
aI0
aI1
aI5
aI4
aI1
aa(lp98
V0020500304
p99
aVDEC 13, 2005
p100
aVCHI vs. MIA
p101
aVL
p102
aI34
aI2
aI5
aF0.4
aI0
aI0
aF0.0
aI1
aI2
aF0.5
aI2
aI8
aI10
aI0
aI0
aI2
aI2
aI4
aI5
aI-6
aa(lp103
V0020500307
p104
aVDEC 14, 2005
p105
aVCHI @ TOR
p106
aVW
p107
aI19
aI1
aI1
aF1.0
aI0
aI0
aF0.0
aI0
aI1
aF0.0
aI1
aI7
aI8
aI2
aI2
aI4
aI2
aI4
aI2
aI17
aa(lp108
V0020500328
p109
aVDEC 16, 2005
p110
aVCHI @ DET
p111
aVL
p112
aI28
aI2
aI6
aF0.333
aI0
aI0
aF0.0
aI0
aI2
aF0.0
aI4
aI4
aI8
aI3
aI0
aI0
aI1
aI3
aI4
aI-7
aa(lp113
V0020500338
p114
aVDEC 17, 2005
p115
aVCHI vs. BOS
p116
aVW
p117
aI22
aI1
aI2
aF0.5
aI0
aI0
aF0.0
aI0
aI0
aF0.0
aI3
aI3
aI6
aI1
aI1
aI1
aI3
aI3
aI2
aI5
aa(lp118
V0020500357
p119
aVDEC 20, 2005
p120
aVCHI vs. CHA
p121
aVL
p122
aI21
aI2
aI3
aF0.667
aI0
aI0
aF0.0
aI0
aI0
aF0.0
aI4
aI4
aI8
aI2
aI0
aI1
aI3
aI4
aI4
aI4
aa(lp123
V0020500369
p124
aVDEC 22, 2005
p125
aVCHI vs. CLE
p126
aVL
p127
aI23
aI1
aI2
aF0.5
aI0
aI0
aF0.0
aI0
aI0
aF0.0
aI1
aI6
aI7
aI0
aI0
aI0
aI0
aI4
aI2
aI4
aa(lp128
V0020500378
p129
aVDEC 23, 2005
p130
aVCHI @ MEM
p131
aVL
p132
aI29
aI4
aI5
aF0.8
aI0
aI0
aF0.0
aI0
aI2
aF0.0
aI6
aI6
aI12
aI1
aI0
aI1
aI2
aI4
aI8
aI-6
aa(lp133
V0020500389
p134
aVDEC 26, 2005
p135
aVCHI @ CLE
p136
aVL
p137
aI28
aI6
aI7
aF0.857
aI0
aI0
aF0.0
aI3
aI4
aF0.75
aI1
aI6
aI7
aI0
aI1
aI2
aI2
aI4
aI15
aI-6
aa(lp138
V0020500408
p139
aVDEC 28, 2005
p140
aVCHI @ CHA
p141
aVL
p142
aI28
aI3
aI3
aF1.0
aI0
aI0
aF0.0
aI1
aI4
aF0.25
aI3
aI6
aI9
aI2
aI0
aI3
aI4
aI3
aI7
aI-16
aa(lp143
V0020500427
p144
aVDEC 31, 2005
p145
aVCHI vs. PHX
p146
aVL
p147
aI15
aI1
aI2
aF0.5
aI0
aI0
aF0.0
aI0
aI0
aF0.0
aI0
aI0
aI0
aI1
aI0
aI1
aI3
aI3
aI2
aI-7
aa(lp148
V0020500439
p149
aVJAN 02, 2006
p150
aVCHI vs. MIL
p151
aVL
p152
aI11
aI0
aI2
aF0.0
aI0
aI0
aF0.0
aI0
aI0
aF0.0
aI1
aI1
aI2
aI0
aI0
aI2
aI0
aI3
aI0
aI-11
aa(lp153
V0020500489
p154
aVJAN 09, 2006
p155
aVCHI vs. TOR
p156
aVW
p157
aI14
aI0
aI1
aF0.0
aI0
aI0
aF0.0
aI0
aI2
aF0.0
aI1
aI3
aI4
aI0
aI0
aI1
aI0
aI2
aI0
aI2
aa(lp158
V0020500505
p159
aVJAN 11, 2006
p160
aVCHI @ MIN
p161
aVL
p162
aI16
aI3
aI4
aF0.75
aI0
aI0
aF0.0
aI0
aI1
aF0.0
aI1
aI2
aI3
aI0
aI0
aI1
aI2
aI6
aI6
aI-12
aa(lp163
V0020500524
p164
aVJAN 14, 2006
p165
aVCHI vs. IND
p166
aVL
p167
aI4
aI0
aI0
aF0.0
aI0
aI0
aF0.0
aI0
aI0
aF0.0
aI0
aI0
aI0
aI0
aI0
aI0
aI1
aI5
aI0
aI-7
aa(lp168
V0020500540
p169
aVJAN 16, 2006
p170
aVCHI vs. DEN
p171
aVL
p172
aI29
aI1
aI2
aF0.5
aI0
aI0
aF0.0
aI0
aI0
aF0.0
aI2
aI6
aI8
aI1
aI1
aI1
aI3
aI3
aI2
aI3
aa(lp173
V0020500556
p174
aVJAN 18, 2006
p175
aVCHI vs. NYK
p176
aVW
p177
aI30
aI1
aI1
aF1.0
aI0
aI0
aF0.0
aI0
aI4
aF0.0
aI2
aI4
aI6
aI0
aI1
aI3
aI4
aI6
aI2
aI6
aa(lp178
V0020500571
p179
aVJAN 20, 2006
p180
aVCHI vs. HOU
p181
aVL
p182
aI7
aI0
aI0
aF0.0
aI0
aI0
aF0.0
aI0
aI0
aF0.0
aI0
aI2
aI2
aI2
aI1
aI1
aI0
aI1
aI0
aI7
aa(lp183
V0020500580
p184
aVJAN 21, 2006
p185
aVCHI @ IND
p186
aVW
p187
aI35
aI7
aI9
aF0.778
aI0
aI0
aF0.0
aI1
aI1
aF1.0
aI8
aI6
aI14
aI0
aI1
aI2
aI0
aI5
aI15
aI14
aa(lp188
V0020500604
p189
aVJAN 25, 2006
p190
aVCHI @ TOR
p191
aVW
p192
aI26
aI4
aI4
aF1.0
aI0
aI0
aF0.0
aI3
aI4
aF0.75
aI3
aI5
aI8
aI2
aI0
aI1
aI1
aI4
aI11
aI-3
aa(lp193
V0020500626
p194
aVJAN 27, 2006
p195
aVCHI vs. WAS
p196
aVW
p197
aI36
aI2
aI4
aF0.5
aI0
aI0
aF0.0
aI8
aI11
aF0.727
aI11
aI9
aI20
aI2
aI1
aI2
aI1
aI5
aI12
aI15
aa(lp198
V0020500635
p199
aVJAN 28, 2006
p200
aVCHI vs. ATL
p201
aVW
p202
aI34
aI5
aI6
aF0.833
aI0
aI0
aF0.0
aI0
aI0
aF0.0
aI4
aI10
aI14
aI3
aI2
aI2
aI2
aI5
aI10
aI18
aa(lp203
V0020500659
p204
aVJAN 31, 2006
p205
aVCHI @ DAL
p206
aVL
p207
aI43
aI3
aI4
aF0.75
aI0
aI0
aF0.0
aI6
aI10
aF0.6
aI10
aI6
aI16
aI1
aI1
aI1
aI3
aI2
aI12
aI3
aa(lp208
V0020500669
p209
aVFEB 01, 2006
p210
aVCHI @ NOK
p211
aVL
p212
aI40
aI1
aI2
aF0.5
aI0
aI1
aF0.0
aI4
aI8
aF0.5
aI3
aI10
aI13
aI0
aI1
aI1
aI2
aI3
aI6
aI-6
aa(lp213
V0020500693
p214
aVFEB 04, 2006
p215
aVCHI @ PHX
p216
aVL
p217
aI28
aI4
aI4
aF1.0
aI0
aI0
aF0.0
aI1
aI2
aF0.5
aI4
aI8
aI12
aI1
aI0
aI0
aI3
aI2
aI9
aI-17
aa(lp218
V0020500703
p219
aVFEB 06, 2006
p220
aVCHI @ UTA
p221
aVL
p222
aI36
aI2
aI3
aF0.667
aI0
aI0
aF0.0
aI4
aI6
aF0.667
aI4
aI7
aI11
aI3
aI1
aI2
aI3
aI5
aI8
aI7
aa(lp223
V0020500722
p224
aVFEB 08, 2006
p225
aVCHI @ DEN
p226
aVW
p227
aI36
aI3
aI5
aF0.6
aI0
aI0
aF0.0
aI2
aI4
aF0.5
aI5
aI9
aI14
aI3
aI0
aI1
aI4
aI4
aI8
aI11
aa(lp228
V0020500724
p229
aVFEB 09, 2006
p230
aVCHI @ SAC
p231
aVL
p232
aI30
aI1
aI3
aF0.333
aI0
aI0
aF0.0
aI2
aI4
aF0.5
aI5
aI11
aI16
aI0
aI1
aI1
aI0
aI2
aI4
aI-28
aa(lp233
V0020500751
p234
aVFEB 12, 2006
p235
aVCHI @ LAC
p236
aVW
p237
aI36
aI1
aI2
aF0.5
aI0
aI0
aF0.0
aI1
aI2
aF0.5
aI3
aI7
aI10
aI1
aI1
aI2
aI1
aI3
aI3
aI17
aa(lp238
V0020500762
p239
aVFEB 14, 2006
p240
aVCHI vs. SAC
p241
aVL
p242
aI31
aI1
aI3
aF0.333
aI0
aI0
aF0.0
aI0
aI2
aF0.0
aI3
aI12
aI15
aI1
aI1
aI0
aI3
aI6
aI2
aI17
aa(lp243
V0020500777
p244
aVFEB 16, 2006
p245
aVCHI vs. PHI
p246
aVW
p247
aI19
aI2
aI6
aF0.333
aI0
aI0
aF0.0
aI2
aI2
aF1.0
aI6
aI5
aI11
aI2
aI0
aI1
aI0
aI2
aI6
aI22
aa(lp248
V0020500796
p249
aVFEB 22, 2006
p250
aVCHI vs. MIL
p251
aVW
p252
aI24
aI2
aI4
aF0.5
aI0
aI0
aF0.0
aI0
aI0
aF0.0
aI4
aI8
aI12
aI0
aI0
aI4
aI1
aI4
aI4
aI3
aa(lp253
V0020500809
p254
aVFEB 24, 2006
p255
aVCHI vs. DET
p256
aVL
p257
aI30
aI3
aI4
aF0.75
aI0
aI0
aF0.0
aI0
aI0
aF0.0
aI4
aI7
aI11
aI0
aI1
aI1
aI3
aI5
aI6
aI-9
aa(lp258
V0020500815
p259
aVFEB 25, 2006
p260
aVCHI @ PHI
p261
aVL
p262
aI17
aI4
aI5
aF0.8
aI0
aI0
aF0.0
aI1
aI1
aF1.0
aI4
aI4
aI8
aI4
aI0
aI0
aI1
aI3
aI9
aI1
aa(lp263
V0020500839
p264
aVFEB 28, 2006
p265
aVCHI vs. MIN
p266
aVW
p267
aI19
aI1
aI2
aF0.5
aI0
aI0
aF0.0
aI1
aI2
aF0.5
aI4
aI3
aI7
aI2
aI0
aI1
aI2
aI5
aI3
aI10
aa(lp268
V0020500855
p269
aVMAR 02, 2006
p270
aVCHI vs. CLE
p271
aVL
p272
aI32
aI1
aI4
aF0.25
aI0
aI0
aF0.0
aI0
aI0
aF0.0
aI4
aI11
aI15
aI0
aI0
aI2
aI1
aI5
aI2
aI-5
aa(lp273
V0020500860
p274
aVMAR 03, 2006
p275
aVCHI @ NYK
p276
aVW
p277
aI35
aI4
aI9
aF0.444
aI0
aI0
aF0.0
aI0
aI0
aF0.0
aI6
aI1
aI7
aI0
aI0
aI3
aI0
aI4
aI8
aI8
aa(lp278
V0020500879
p279
aVMAR 05, 2006
p280
aVCHI @ CLE
p281
aVL
p282
aI29
aI0
aI3
aF0.0
aI0
aI0
aF0.0
aI3
aI8
aF0.375
aI1
aI4
aI5
aI2
aI0
aI2
aI2
aI3
aI3
aI-8
aa(lp283
V0020500894
p284
aVMAR 07, 2006
p285
aVCHI vs. NJN
p286
aVW
p287
aI28
aI1
aI2
aF0.5
aI0
aI0
aF0.0
aI1
aI4
aF0.25
aI4
aI11
aI15
aI1
aI1
aI3
aI0
aI6
aI3
aI9
aa(lp288
V0020500901
p289
aVMAR 08, 2006
p290
aVCHI @ DET
p291
aVL
p292
aI32
aI2
aI4
aF0.5
aI0
aI0
aF0.0
aI1
aI2
aF0.5
aI2
aI10
aI12
aI2
aI0
aI2
aI1
aI3
aI5
aI-4
aa(lp293
V0020500915
p294
aVMAR 10, 2006
p295
aVCHI vs. LAC
p296
aVL
p297
aI33
aI2
aI6
aF0.333
aI0
aI0
aF0.0
aI0
aI0
aF0.0
aI4
aI9
aI13
aI0
aI1
aI0
aI2
aI2
aI4
aI-17
aa(lp298
V0020500920
p299
aVMAR 11, 2006
p300
aVCHI @ ATL
p301
aVW
p302
aI34
aI4
aI5
aF0.8
aI0
aI0
aF0.0
aI4
aI8
aF0.5
aI4
aI8
aI12
aI1
aI0
aI2
aI2
aI6
aI12
aI7
aa(lp303
V0020500945
p304
aVMAR 14, 2006
p305
aVCHI vs. POR
p306
aVW
p307
aI21
aI2
aI3
aF0.667
aI0
aI0
aF0.0
aI0
aI0
aF0.0
aI3
aI5
aI8
aI0
aI0
aI1
aI1
aI3
aI4
aI28
aa(lp308
V0020500956
p309
aVMAR 15, 2006
p310
aVCHI @ MIL
p311
aVL
p312
aI32
aI1
aI2
aF0.5
aI0
aI0
aF0.0
aI4
aI6
aF0.667
aI2
aI7
aI9
aI1
aI1
aI1
aI2
aI3
aI6
aI-18
aa(lp313
V0020500974
p314
aVMAR 18, 2006
p315
aVCHI vs. MIA
p316
aVL
p317
aI15
aI1
aI1
aF1.0
aI0
aI0
aF0.0
aI0
aI2
aF0.0
aI2
aI5
aI7
aI0
aI1
aI1
aI2
aI5
aI2
aI-5
aa(lp318
V0020500980
p319
aVMAR 19, 2006
p320
aVCHI @ WAS
p321
aVL
p322
aI26
aI0
aI0
aF0.0
aI0
aI0
aF0.0
aI3
aI4
aF0.75
aI3
aI3
aI6
aI2
aI0
aI2
aI3
aI6
aI3
aI-10
aa(lp323
V0020501005
p324
aVMAR 22, 2006
p325
aVCHI @ IND
p326
aVL
p327
aI29
aI1
aI1
aF1.0
aI0
aI0
aF0.0
aI1
aI3
aF0.333
aI1
aI6
aI7
aI2
aI1
aI2
aI2
aI5
aI3
aI-19
aa(lp328
V0020501023
p329
aVMAR 24, 2006
p330
aVCHI vs. NOK
p331
aVW
p332
aI35
aI1
aI6
aF0.167
aI0
aI0
aF0.0
aI3
aI4
aF0.75
aI7
aI14
aI21
aI0
aI1
aI4
aI1
aI3
aI5
aI27
aa(lp333
V0020501031
p334
aVMAR 26, 2006
p335
aVCHI @ BOS
p336
aVW
p337
aI34
aI3
aI6
aF0.5
aI0
aI0
aF0.0
aI4
aI6
aF0.667
aI3
aI8
aI11
aI0
aI0
aI4
aI0
aI1
aI10
aI13
aa(lp338
V0020501051
p339
aVMAR 28, 2006
p340
aVCHI vs. ORL
p341
aVL
p342
aI27
aI0
aI2
aF0.0
aI0
aI0
aF0.0
aI1
aI2
aF0.5
aI3
aI4
aI7
aI0
aI0
aI2
aI1
aI3
aI1
aI-8
aa(lp343
V0020501071
p344
aVMAR 31, 2006
p345
aVCHI @ CHA
p346
aVW
p347
aI19
aI3
aI4
aF0.75
aI0
aI0
aF0.0
aI2
aI4
aF0.5
aI5
aI2
aI7
aI2
aI0
aI0
aI2
aI6
aI8
aI4
aa(lp348
V0020501080
p349
aVAPR 01, 2006
p350
aVCHI vs. BOS
p351
aVW
p352
aI27
aI1
aI5
aF0.2
aI0
aI0
aF0.0
aI1
aI3
aF0.333
aI9
aI2
aI11
aI1
aI0
aI2
aI2
aI3
aI3
aI8
aa(lp353
V0020501103
p354
aVAPR 04, 2006
p355
aVCHI vs. IND
p356
aVW
p357
aI32
aI4
aI5
aF0.8
aI0
aI0
aF0.0
aI3
aI5
aF0.6
aI2
aI4
aI6
aI2
aI3
aI2
aI0
aI3
aI11
aI12
aa(lp358
V0020501109
p359
aVAPR 05, 2006
p360
aVCHI @ PHI
p361
aVW
p362
aI30
aI3
aI4
aF0.75
aI0
aI0
aF0.0
aI3
aI5
aF0.6
aI8
aI7
aI15
aI0
aI0
aI1
aI1
aI2
aI9
aI4
aa(lp363
V0020501135
p364
aVAPR 08, 2006
p365
aVCHI vs. PHI
p366
aVL
p367
aI26
aI2
aI3
aF0.667
aI0
aI0
aF0.0
aI0
aI0
aF0.0
aI2
aI8
aI10
aI1
aI0
aI0
aI0
aI0
aI4
aI-3
aa(lp368
V0020501158
p369
aVAPR 11, 2006
p370
aVCHI vs. NJN
p371
aVW
p372
aI29
aI1
aI4
aF0.25
aI0
aI0
aF0.0
aI0
aI0
aF0.0
aI3
aI6
aI9
aI0
aI0
aI2
aI3
aI6
aI2
aI7
aa(lp373
V0020501162
p374
aVAPR 12, 2006
p375
aVCHI @ ATL
p376
aVW
p377
aI28
aI3
aI3
aF1.0
aI0
aI0
aF0.0
aI0
aI0
aF0.0
aI5
aI2
aI7
aI0
aI0
aI1
aI2
aI3
aI6
aI7
aa(lp378
V0020501184
p379
aVAPR 14, 2006
p380
aVCHI vs. WAS
p381
aVW
p382
aI21
aI2
aI4
aF0.5
aI0
aI0
aF0.0
aI0
aI0
aF0.0
aI2
aI4
aI6
aI0
aI0
aI1
aI0
aI6
aI4
aI14
aa(lp383
V0020501194
p384
aVAPR 16, 2006
p385
aVCHI @ MIA
p386
aVW
p387
aI25
aI2
aI3
aF0.667
aI0
aI0
aF0.0
aI3
aI3
aF1.0
aI3
aI4
aI7
aI3
aI0
aI1
aI1
aI4
aI7
aI16
aa(lp388
V0020501204
p389
aVAPR 17, 2006
p390
aVCHI @ ORL
p391
aVW
p392
aI27
aI2
aI3
aF0.667
aI0
aI0
aF0.0
aI0
aI0
aF0.0
aI3
aI1
aI4
aI1
aI2
aI0
aI0
aI6
aI4
aI-6
aa(lp393
V0020501225
p394
aVAPR 19, 2006
p395
aVCHI vs. TOR
p396
aVW
p397
aI21
aI1
aI2
aF0.5
aI0
aI0
aF0.0
aI1
aI1
aF1.0
aI2
aI3
aI5
aI0
aI0
aI2
aI1
aI3
aI3
aI9
aasS'name'
p398
VTyson Chandler
p399
sS'weight'
p400
V240
p401
sS'age'
p402
I23
sS'experience'
p403
I4
sS'height'
p404
V7-1
p405
sS'position'
p406
VCenter
p407
s.