(dp0
S'age'
p1
I25
sS'stats'
p2
(lp3
(lp4
V0020500013
p5
aVNOV 02, 2005
p6
aVHOU vs. SAC
p7
aVW
p8
aI26
aI10
aI16
aF0.625
aI0
aI0
aF0.0
aI2
aI4
aF0.5
aI4
aI6
aI10
aI4
aI0
aI1
aI2
aI5
aI22
aI15
aa(lp9
V0020500038
p10
aVNOV 05, 2005
p11
aVHOU vs. NOK
p12
aVL
p13
aI37
aI8
aI22
aF0.364
aI0
aI0
aF0.0
aI4
aI5
aF0.8
aI4
aI10
aI14
aI2
aI0
aI7
aI1
aI5
aI20
aI-2
aa(lp14
V0020500054
p15
aVNOV 08, 2005
p16
aVHOU vs. ORL
p17
aVL
p18
aI35
aI6
aI15
aF0.4
aI0
aI0
aF0.0
aI5
aI6
aF0.833
aI2
aI2
aI4
aI0
aI0
aI4
aI1
aI3
aI17
aI0
aa(lp19
V0020500069
p20
aVNOV 10, 2005
p21
aVHOU @ MIA
p22
aVL
p23
aI33
aI10
aI20
aF0.5
aI0
aI0
aF0.0
aI4
aI7
aF0.571
aI5
aI9
aI14
aI3
aI0
aI1
aI1
aI4
aI24
aI0
aa(lp24
V0020500084
p25
aVNOV 12, 2005
p26
aVHOU @ NJN
p27
aVW
p28
aI23
aI5
aI7
aF0.714
aI0
aI0
aF0.0
aI8
aI9
aF0.889
aI1
aI1
aI2
aI0
aI1
aI1
aI2
aI4
aI18
aI9
aa(lp29
V0020500090
p30
aVNOV 13, 2005
p31
aVHOU @ BOS
p32
aVL
p33
aI30
aI6
aI8
aF0.75
aI0
aI0
aF0.0
aI2
aI3
aF0.667
aI2
aI8
aI10
aI2
aI0
aI0
aI4
aI5
aI14
aI-15
aa(lp34
V0020500104
p35
aVNOV 15, 2005
p36
aVHOU @ MIN
p37
aVW
p38
aI27
aI5
aI8
aF0.625
aI0
aI0
aF0.0
aI3
aI3
aF1.0
aI2
aI5
aI7
aI0
aI0
aI0
aI1
aI5
aI13
aI-1
aa(lp39
V0020500117
p40
aVNOV 17, 2005
p41
aVHOU @ SAS
p42
aVL
p43
aI42
aI8
aI17
aF0.471
aI0
aI0
aF0.0
aI3
aI5
aF0.6
aI1
aI6
aI7
aI1
aI1
aI0
aI1
aI3
aI19
aI8
aa(lp44
V0020500127
p45
aVNOV 18, 2005
p46
aVHOU vs. DET
p47
aVL
p48
aI37
aI8
aI14
aF0.571
aI0
aI0
aF0.0
aI4
aI5
aF0.8
aI4
aI7
aI11
aI2
aI2
aI1
aI9
aI6
aI20
aI-5
aa(lp49
V0020500142
p50
aVNOV 20, 2005
p51
aVHOU @ IND
p52
aVL
p53
aI42
aI8
aI21
aF0.381
aI0
aI0
aF0.0
aI8
aI9
aF0.889
aI4
aI9
aI13
aI1
aI1
aI4
aI4
aI4
aI24
aI-2
aa(lp54
V0020500153
p55
aVNOV 22, 2005
p56
aVHOU @ DAL
p57
aVL
p58
aI38
aI6
aI17
aF0.353
aI0
aI0
aF0.0
aI8
aI9
aF0.889
aI4
aI2
aI6
aI0
aI2
aI1
aI3
aI4
aI20
aI2
aa(lp59
V0020500161
p60
aVNOV 23, 2005
p61
aVHOU vs. PHX
p62
aVL
p63
aI26
aI3
aI7
aF0.429
aI0
aI0
aF0.0
aI2
aI2
aF1.0
aI1
aI7
aI8
aI1
aI1
aI0
aI1
aI0
aI8
aI-8
aa(lp64
V0020500174
p65
aVNOV 25, 2005
p66
aVHOU @ MEM
p67
aVL
p68
aI38
aI4
aI13
aF0.308
aI0
aI1
aF0.0
aI7
aI8
aF0.875
aI3
aI9
aI12
aI2
aI2
aI2
aI3
aI3
aI15
aI6
aa(lp69
V0020500186
p70
aVNOV 26, 2005
p71
aVHOU vs. CHI
p72
aVL
p73
aI34
aI9
aI18
aF0.5
aI0
aI0
aF0.0
aI12
aI14
aF0.857
aI0
aI6
aI6
aI1
aI1
aI0
aI4
aI6
aI30
aI6
aa(lp74
V0020500202
p75
aVNOV 29, 2005
p76
aVHOU vs. ATL
p77
aVW
p78
aI34
aI10
aI17
aF0.588
aI0
aI0
aF0.0
aI5
aI6
aF0.833
aI3
aI9
aI12
aI1
aI0
aI2
aI3
aI4
aI25
aI10
aa(lp79
V0020500234
p80
aVDEC 03, 2005
p81
aVHOU vs. MEM
p82
aVL
p83
aI38
aI12
aI19
aF0.632
aI0
aI0
aF0.0
aI5
aI5
aF1.0
aI5
aI2
aI7
aI0
aI2
aI0
aI1
aI4
aI29
aI1
aa(lp84
V0020500253
p85
aVDEC 06, 2005
p86
aVHOU vs. BOS
p87
aVW
p88
aI36
aI4
aI9
aF0.444
aI0
aI0
aF0.0
aI4
aI4
aF1.0
aI2
aI7
aI9
aI3
aI0
aI1
aI1
aI4
aI12
aI22
aa(lp89
V0020500269
p90
aVDEC 08, 2005
p91
aVHOU @ SAC
p92
aVW
p93
aI35
aI6
aI13
aF0.462
aI0
aI0
aF0.0
aI9
aI10
aF0.9
aI1
aI8
aI9
aI1
aI1
aI2
aI6
aI2
aI21
aI3
aa(lp94
V0020500294
p95
aVDEC 11, 2005
p96
aVHOU @ POR
p97
aVW
p98
aI25
aI4
aI10
aF0.4
aI0
aI0
aF0.0
aI1
aI1
aF1.0
aI1
aI4
aI5
aI2
aI0
aI1
aI3
aI6
aI9
aI1
aa(lp99
V0020500318
p100
aVDEC 14, 2005
p101
aVHOU @ GSW
p102
aVW
p103
aI41
aI12
aI18
aF0.667
aI0
aI0
aF0.0
aI6
aI7
aF0.857
aI5
aI11
aI16
aI2
aI0
aI1
aI6
aI5
aI30
aI10
aa(lp104
V0020500321
p105
aVDEC 15, 2005
p106
aVHOU @ SEA
p107
aVW
p108
aI34
aI7
aI10
aF0.7
aI0
aI0
aF0.0
aI12
aI15
aF0.8
aI2
aI8
aI10
aI1
aI0
aI0
aI5
aI5
aI26
aI-1
aa(lp109
V0020500333
p110
aVDEC 17, 2005
p111
aVHOU @ LAC
p112
aVL
p113
aI37
aI9
aI17
aF0.529
aI0
aI0
aF0.0
aI4
aI4
aF1.0
aI2
aI5
aI7
aI0
aI0
aI1
aI2
aI2
aI22
aI-8
aa(lp114
V0020500650
p115
aVJAN 30, 2006
p116
aVHOU @ MEM
p117
aVL
p118
aI32
aI7
aI14
aF0.5
aI0
aI0
aF0.0
aI1
aI4
aF0.25
aI2
aI6
aI8
aI1
aI0
aI1
aI2
aI4
aI15
aI-3
aa(lp119
V0020500670
p120
aVFEB 01, 2006
p121
aVHOU vs. MIL
p122
aVW
p123
aI33
aI8
aI18
aF0.444
aI0
aI0
aF0.0
aI5
aI5
aF1.0
aI0
aI13
aI13
aI3
aI0
aI1
aI0
aI3
aI21
aI7
aa(lp124
V0020500681
p125
aVFEB 03, 2006
p126
aVHOU vs. SEA
p127
aVW
p128
aI28
aI9
aI19
aF0.474
aI0
aI0
aF0.0
aI6
aI6
aF1.0
aI4
aI10
aI14
aI3
aI0
aI2
aI2
aI3
aI24
aI5
aa(lp129
V0020500695
p130
aVFEB 05, 2006
p131
aVHOU @ NYK
p132
aVW
p133
aI27
aI7
aI16
aF0.438
aI0
aI0
aF0.0
aI1
aI1
aF1.0
aI1
aI2
aI3
aI1
aI0
aI4
aI2
aI4
aI15
aI3
aa(lp134
V0020500698
p135
aVFEB 06, 2006
p136
aVHOU @ PHI
p137
aVW
p138
aI42
aI9
aI21
aF0.429
aI0
aI0
aF0.0
aI9
aI9
aF1.0
aI3
aI9
aI12
aI0
aI2
aI1
aI1
aI3
aI27
aI16
aa(lp139
V0020500720
p140
aVFEB 08, 2006
p141
aVHOU vs. LAL
p142
aVL
p143
aI34
aI7
aI17
aF0.412
aI0
aI0
aF0.0
aI0
aI2
aF0.0
aI1
aI12
aI13
aI0
aI0
aI2
aI1
aI1
aI14
aI-12
aa(lp144
V0020500740
p145
aVFEB 11, 2006
p146
aVHOU vs. UTA
p147
aVW
p148
aI31
aI11
aI16
aF0.688
aI0
aI0
aF0.0
aI5
aI6
aF0.833
aI2
aI6
aI8
aI0
aI1
aI2
aI2
aI5
aI27
aI5
aa(lp149
V0020500748
p150
aVFEB 12, 2006
p151
aVHOU vs. NYK
p152
aVW
p153
aI25
aI8
aI13
aF0.615
aI0
aI0
aF0.0
aI8
aI11
aF0.727
aI1
aI7
aI8
aI0
aI0
aI4
aI2
aI4
aI24
aI1
aa(lp154
V0020500763
p155
aVFEB 14, 2006
p156
aVHOU @ LAC
p157
aVW
p158
aI32
aI8
aI13
aF0.615
aI0
aI0
aF0.0
aI1
aI2
aF0.5
aI4
aI8
aI12
aI3
aI0
aI1
aI4
aI3
aI17
aI25
aa(lp159
V0020500778
p160
aVFEB 16, 2006
p161
aVHOU @ PHX
p162
aVL
p163
aI19
aI2
aI7
aF0.286
aI0
aI0
aF0.0
aI2
aI2
aF1.0
aI0
aI0
aI0
aI1
aI0
aI0
aI0
aI1
aI6
aI-26
aa(lp164
V0020500797
p165
aVFEB 22, 2006
p166
aVHOU vs. LAC
p167
aVW
p168
aI36
aI11
aI16
aF0.688
aI0
aI0
aF0.0
aI7
aI8
aF0.875
aI6
aI9
aI15
aI1
aI1
aI2
aI0
aI1
aI29
aI8
aa(lp169
V0020500811
p170
aVFEB 24, 2006
p171
aVHOU vs. GSW
p172
aVW
p173
aI37
aI8
aI19
aF0.421
aI0
aI0
aF0.0
aI6
aI7
aF0.857
aI4
aI17
aI21
aI0
aI0
aI2
aI2
aI2
aI22
aI3
aa(lp174
V0020500823
p175
aVFEB 26, 2006
p176
aVHOU @ ORL
p177
aVW
p178
aI35
aI7
aI12
aF0.583
aI0
aI0
aF0.0
aI15
aI19
aF0.789
aI1
aI10
aI11
aI1
aI0
aI2
aI5
aI4
aI29
aI8
aa(lp179
V0020500832
p180
aVFEB 27, 2006
p181
aVHOU vs. PHX
p182
aVL
p183
aI36
aI10
aI19
aF0.526
aI0
aI0
aF0.0
aI7
aI7
aF1.0
aI8
aI10
aI18
aI5
aI1
aI0
aI0
aI2
aI27
aI-8
aa(lp184
V0020500848
p185
aVMAR 01, 2006
p186
aVHOU vs. PHI
p187
aVL
p188
aI39
aI9
aI17
aF0.529
aI0
aI0
aF0.0
aI4
aI4
aF1.0
aI3
aI10
aI13
aI3
aI0
aI2
aI4
aI0
aI22
aI7
aa(lp189
V0020500861
p190
aVMAR 03, 2006
p191
aVHOU vs. DEN
p192
aVW
p193
aI39
aI9
aI17
aF0.529
aI0
aI0
aF0.0
aI3
aI3
aF1.0
aI2
aI7
aI9
aI1
aI0
aI3
aI1
aI3
aI21
aI13
aa(lp194
V0020500880
p195
aVMAR 05, 2006
p196
aVHOU vs. POR
p197
aVW
p198
aI35
aI10
aI21
aF0.476
aI0
aI0
aF0.0
aI12
aI15
aF0.8
aI6
aI7
aI13
aI2
aI1
aI1
aI1
aI1
aI32
aI22
aa(lp199
V0020500893
p200
aVMAR 07, 2006
p201
aVHOU @ MIN
p202
aVW
p203
aI34
aI11
aI24
aF0.458
aI0
aI0
aF0.0
aI8
aI12
aF0.667
aI3
aI10
aI13
aI1
aI0
aI4
aI0
aI5
aI30
aI-2
aa(lp204
V0020500904
p205
aVMAR 08, 2006
p206
aVHOU vs. IND
p207
aVW
p208
aI38
aI14
aI21
aF0.667
aI0
aI0
aF0.0
aI10
aI10
aF1.0
aI3
aI7
aI10
aI1
aI0
aI5
aI3
aI3
aI38
aI-2
aa(lp209
V0020500928
p210
aVMAR 12, 2006
p211
aVHOU @ SAS
p212
aVL
p213
aI42
aI9
aI19
aF0.474
aI0
aI0
aF0.0
aI7
aI7
aF1.0
aI0
aI10
aI10
aI3
aI0
aI3
aI1
aI4
aI25
aI-1
aa(lp214
V0020500939
p215
aVMAR 13, 2006
p216
aVHOU vs. NJN
p217
aVL
p218
aI38
aI9
aI17
aF0.529
aI0
aI0
aF0.0
aI18
aI20
aF0.9
aI1
aI8
aI9
aI1
aI0
aI1
aI1
aI2
aI36
aI-2
aa(lp219
V0020500957
p220
aVMAR 15, 2006
p221
aVHOU vs. DAL
p222
aVL
p223
aI38
aI12
aI17
aF0.706
aI0
aI0
aF0.0
aI12
aI15
aF0.8
aI3
aI9
aI12
aI2
aI1
aI1
aI2
aI4
aI36
aI-9
aa(lp224
V0020500978
p225
aVMAR 18, 2006
p226
aVHOU vs. SAS
p227
aVL
p228
aI38
aI7
aI14
aF0.5
aI0
aI0
aF0.0
aI6
aI7
aF0.857
aI2
aI8
aI10
aI1
aI0
aI1
aI2
aI5
aI20
aI-16
aa(lp229
V0020500990
p230
aVMAR 20, 2006
p231
aVHOU vs. LAC
p232
aVL
p233
aI38
aI7
aI16
aF0.438
aI0
aI0
aF0.0
aI11
aI11
aF1.0
aI5
aI12
aI17
aI2
aI0
aI1
aI2
aI0
aI25
aI-3
aa(lp234
V0020500997
p235
aVMAR 21, 2006
p236
aVHOU @ DAL
p237
aVL
p238
aI39
aI6
aI15
aF0.4
aI0
aI0
aF0.0
aI1
aI2
aF0.5
aI1
aI12
aI13
aI0
aI1
aI1
aI1
aI3
aI13
aI-8
aa(lp239
V0020501013
p240
aVMAR 23, 2006
p241
aVHOU @ NOK
p242
aVW
p243
aI36
aI9
aI16
aF0.563
aI0
aI0
aF0.0
aI4
aI4
aF1.0
aI1
aI7
aI8
aI1
aI0
aI2
aI5
aI4
aI22
aI-6
aa(lp244
V0020501033
p245
aVMAR 26, 2006
p246
aVHOU vs. CLE
p247
aVL
p248
aI44
aI9
aI21
aF0.429
aI0
aI0
aF0.0
aI9
aI10
aF0.9
aI1
aI6
aI7
aI1
aI0
aI4
aI5
aI5
aI27
aI15
aa(lp249
V0020501061
p250
aVMAR 29, 2006
p251
aVHOU vs. SEA
p252
aVW
p253
aI30
aI9
aI14
aF0.643
aI0
aI0
aF0.0
aI11
aI11
aF1.0
aI4
aI6
aI10
aI5
aI3
aI1
aI2
aI2
aI29
aI29
aa(lp254
V0020501074
p255
aVMAR 31, 2006
p256
aVHOU vs. WAS
p257
aVW
p258
aI40
aI15
aI25
aF0.6
aI0
aI0
aF0.0
aI8
aI8
aF1.0
aI2
aI9
aI11
aI3
aI0
aI2
aI7
aI3
aI38
aI7
aa(lp259
V0020501089
p260
aVAPR 02, 2006
p261
aVHOU @ LAL
p262
aVL
p263
aI27
aI16
aI25
aF0.64
aI0
aI0
aF0.0
aI1
aI3
aF0.333
aI5
aI11
aI16
aI3
aI2
aI0
aI4
aI3
aI33
aI-9
aa(lp264
V0020501106
p265
aVAPR 04, 2006
p266
aVHOU @ SEA
p267
aVL
p268
aI29
aI7
aI15
aF0.467
aI0
aI0
aF0.0
aI8
aI8
aF1.0
aI1
aI9
aI10
aI2
aI1
aI1
aI2
aI6
aI22
aI-6
aa(lp269
V0020501117
p270
aVAPR 05, 2006
p271
aVHOU @ POR
p272
aVL
p273
aI31
aI5
aI11
aF0.455
aI0
aI0
aF0.0
aI3
aI5
aF0.6
aI2
aI5
aI7
aI1
aI1
aI4
aI5
aI4
aI13
aI-11
aa(lp274
V0020501132
p275
aVAPR 07, 2006
p276
aVHOU @ GSW
p277
aVW
p278
aI32
aI12
aI22
aF0.545
aI0
aI0
aF0.0
aI6
aI6
aF1.0
aI2
aI12
aI14
aI2
aI0
aI2
aI6
aI4
aI30
aI8
aa(lp279
V0020501146
p280
aVAPR 09, 2006
p281
aVHOU @ SAC
p282
aVL
p283
aI34
aI8
aI12
aF0.667
aI0
aI0
aF0.0
aI3
aI3
aF1.0
aI5
aI7
aI12
aI2
aI1
aI0
aI6
aI5
aI19
aI-15
aa(lp284
V0020501153
p285
aVAPR 10, 2006
p286
aVHOU @ UTA
p287
aVL
p288
aI8
aI2
aI5
aF0.4
aI0
aI0
aF0.0
aI1
aI1
aF1.0
aI1
aI1
aI2
aI0
aI0
aI1
aI0
aI0
aI5
aI-4
aasS'name'
p289
VYao Ming
p290
sS'experience'
p291
I3
s.