(dp0
S'age'
p1
I24
sS'stats'
p2
(lp3
(lp4
V0020500326
p5
aVDEC 16, 2005
p6
aVBOS vs. MIL
p7
aVL
p8
aI22
aI5
aI8
aF0.625
aI1
aI1
aF1.0
aI1
aI2
aF0.5
aI1
aI0
aI1
aI4
aI2
aI0
aI2
aI1
aI12
aI12
aa(lp9
V0020500338
p10
aVDEC 17, 2005
p11
aVBOS @ CHI
p12
aVL
p13
aI32
aI3
aI9
aF0.333
aI1
aI2
aF0.5
aI1
aI1
aF1.0
aI0
aI4
aI4
aI2
aI1
aI0
aI2
aI5
aI8
aI-23
aa(lp14
V0020500348
p15
aVDEC 19, 2005
p16
aVBOS vs. GSW
p17
aVW
p18
aI28
aI6
aI11
aF0.545
aI2
aI3
aF0.667
aI2
aI3
aF0.667
aI0
aI2
aI2
aI3
aI1
aI0
aI2
aI3
aI16
aI2
aa(lp19
V0020500363
p20
aVDEC 21, 2005
p21
aVBOS vs. UTA
p22
aVW
p23
aI14
aI0
aI1
aF0.0
aI0
aI1
aF0.0
aI4
aI4
aF1.0
aI0
aI0
aI0
aI2
aI0
aI0
aI2
aI4
aI4
aI15
aa(lp24
V0020500395
p25
aVDEC 26, 2005
p26
aVBOS @ SEA
p27
aVL
p28
aI21
aI3
aI10
aF0.3
aI0
aI1
aF0.0
aI6
aI6
aF1.0
aI1
aI2
aI3
aI4
aI2
aI0
aI0
aI3
aI12
aI-3
aa(lp29
V0020500413
p30
aVDEC 28, 2005
p31
aVBOS @ GSW
p32
aVL
p33
aI16
aI0
aI1
aF0.0
aI0
aI0
aF0.0
aI0
aI0
aF0.0
aI0
aI1
aI1
aI2
aI0
aI0
aI2
aI1
aI0
aI-10
aa(lp34
V0020500424
p35
aVDEC 30, 2005
p36
aVBOS @ SAC
p37
aVL
p38
aI19
aI5
aI6
aF0.833
aI1
aI2
aF0.5
aI2
aI2
aF1.0
aI2
aI0
aI2
aI3
aI1
aI0
aI3
aI3
aI13
aI-6
aa(lp39
V0020500433
p40
aVDEC 31, 2005
p41
aVBOS @ LAC
p42
aVW
p43
aI21
aI5
aI9
aF0.556
aI1
aI2
aF0.5
aI3
aI3
aF1.0
aI0
aI0
aI0
aI4
aI0
aI0
aI1
aI4
aI14
aI15
aa(lp44
V0020500440
p45
aVJAN 02, 2006
p46
aVBOS @ DEN
p47
aVL
p48
aI20
aI2
aI4
aF0.5
aI0
aI1
aF0.0
aI2
aI2
aF1.0
aI0
aI2
aI2
aI1
aI0
aI0
aI2
aI3
aI6
aI-7
aa(lp49
V0020500449
p50
aVJAN 04, 2006
p51
aVBOS vs. CHA
p52
aVW
p53
aI11
aI0
aI1
aF0.0
aI0
aI0
aF0.0
aI1
aI2
aF0.5
aI0
aI0
aI0
aI0
aI0
aI0
aI3
aI2
aI1
aI1
aa(lp54
V0020500460
p55
aVJAN 06, 2006
p56
aVBOS vs. ATL
p57
aVL
p58
aI11
aI0
aI2
aF0.0
aI0
aI0
aF0.0
aI0
aI0
aF0.0
aI0
aI2
aI2
aI1
aI0
aI0
aI0
aI1
aI0
aI4
aa(lp59
V0020500472
p60
aVJAN 07, 2006
p61
aVBOS @ WAS
p62
aVL
p63
aI9
aI0
aI1
aF0.0
aI0
aI1
aF0.0
aI0
aI0
aF0.0
aI0
aI0
aI0
aI0
aI0
aI0
aI0
aI2
aI0
aI-7
aa(lp64
V0020500488
p65
aVJAN 09, 2006
p66
aVBOS vs. DAL
p67
aVL
p68
aI15
aI2
aI8
aF0.25
aI0
aI2
aF0.0
aI2
aI2
aF1.0
aI0
aI0
aI0
aI2
aI0
aI0
aI0
aI2
aI6
aI2
aa(lp69
V0020500491
p70
aVJAN 10, 2006
p71
aVBOS @ ATL
p72
aVW
p73
aI7
aI0
aI2
aF0.0
aI0
aI1
aF0.0
aI0
aI0
aF0.0
aI0
aI0
aI0
aI1
aI0
aI0
aI0
aI0
aI0
aI-11
aa(lp74
V0020500516
p75
aVJAN 13, 2006
p76
aVBOS @ PHI
p77
aVL
p78
aI1
aI0
aI1
aF0.0
aI0
aI1
aF0.0
aI0
aI0
aF0.0
aI0
aI1
aI1
aI0
aI0
aI0
aI1
aI1
aI0
aI-2
aa(lp79
V0020500554
p80
aVJAN 18, 2006
p81
aVBOS vs. MIN
p82
aVW
p83
aI8
aI2
aI3
aF0.667
aI0
aI1
aF0.0
aI0
aI0
aF0.0
aI0
aI0
aI0
aI2
aI0
aI0
aI0
aI2
aI4
aI0
aa(lp84
V0020500579
p85
aVJAN 21, 2006
p86
aVBOS @ NJN
p87
aVL
p88
aI8
aI0
aI2
aF0.0
aI0
aI0
aF0.0
aI1
aI1
aF1.0
aI0
aI0
aI0
aI1
aI0
aI0
aI1
aI1
aI1
aI-9
aa(lp89
V0020500593
p90
aVJAN 23, 2006
p91
aVBOS vs. NOK
p92
aVW
p93
aI7
aI0
aI1
aF0.0
aI0
aI0
aF0.0
aI2
aI2
aF1.0
aI0
aI1
aI1
aI0
aI0
aI0
aI2
aI0
aI2
aI-9
aa(lp94
V0020500652
p95
aVJAN 30, 2006
p96
aVMIN vs. BOS
p97
aVW
p98
aI22
aI6
aI8
aF0.75
aI1
aI3
aF0.333
aI7
aI9
aF0.778
aI0
aI1
aI1
aI6
aI1
aI0
aI1
aI1
aI20
aI19
aa(lp99
V0020500667
p100
aVFEB 01, 2006
p101
aVMIN @ DET
p102
aVL
p103
aI31
aI3
aI8
aF0.375
aI0
aI1
aF0.0
aI3
aI4
aF0.75
aI0
aI1
aI1
aI2
aI1
aI0
aI1
aI3
aI9
aI-1
aa(lp104
V0020500683
p105
aVFEB 03, 2006
p106
aVMIN @ POR
p107
aVL
p108
aI31
aI6
aI10
aF0.6
aI0
aI0
aF0.0
aI3
aI4
aF0.75
aI0
aI2
aI2
aI5
aI1
aI1
aI3
aI4
aI15
aI-6
aa(lp109
V0020500694
p110
aVFEB 04, 2006
p111
aVMIN @ GSW
p112
aVL
p113
aI32
aI2
aI10
aF0.2
aI0
aI1
aF0.0
aI1
aI2
aF0.5
aI0
aI3
aI3
aI5
aI1
aI1
aI2
aI2
aI5
aI-23
aa(lp114
V0020500704
p115
aVFEB 06, 2006
p116
aVMIN @ PHX
p117
aVW
p118
aI34
aI9
aI14
aF0.643
aI1
aI1
aF1.0
aI0
aI0
aF0.0
aI1
aI2
aI3
aI2
aI2
aI0
aI2
aI5
aI19
aI14
aa(lp119
V0020500719
p120
aVFEB 08, 2006
p121
aVMIN vs. CLE
p122
aVL
p123
aI28
aI7
aI12
aF0.583
aI1
aI3
aF0.333
aI0
aI0
aF0.0
aI0
aI3
aI3
aI4
aI0
aI0
aI2
aI5
aI15
aI-15
aa(lp124
V0020500732
p125
aVFEB 10, 2006
p126
aVMIN vs. UTA
p127
aVL
p128
aI20
aI2
aI6
aF0.333
aI1
aI2
aF0.5
aI0
aI0
aF0.0
aI0
aI1
aI1
aI1
aI1
aI0
aI2
aI2
aI5
aI-8
aa(lp129
V0020500738
p130
aVFEB 11, 2006
p131
aVMIN vs. NOK
p132
aVL
p133
aI21
aI5
aI9
aF0.556
aI0
aI1
aF0.0
aI2
aI2
aF1.0
aI0
aI3
aI3
aI2
aI0
aI1
aI1
aI4
aI12
aI-2
aa(lp134
V0020500754
p135
aVFEB 13, 2006
p136
aVMIN vs. TOR
p137
aVL
p138
aI22
aI3
aI6
aF0.5
aI0
aI0
aF0.0
aI0
aI0
aF0.0
aI0
aI1
aI1
aI2
aI0
aI1
aI2
aI2
aI6
aI1
aa(lp139
V0020500772
p140
aVFEB 15, 2006
p141
aVMIN vs. SEA
p142
aVW
p143
aI24
aI3
aI7
aF0.429
aI1
aI2
aF0.5
aI1
aI1
aF1.0
aI1
aI2
aI3
aI4
aI2
aI0
aI5
aI5
aI8
aI9
aa(lp144
V0020500779
p145
aVFEB 21, 2006
p146
aVMIN @ WAS
p147
aVL
p148
aI27
aI4
aI8
aF0.5
aI0
aI2
aF0.0
aI0
aI0
aF0.0
aI1
aI2
aI3
aI5
aI1
aI0
aI2
aI4
aI8
aI-10
aa(lp149
V0020500808
p150
aVFEB 24, 2006
p151
aVMIN vs. DEN
p152
aVL
p153
aI40
aI8
aI13
aF0.615
aI0
aI1
aF0.0
aI3
aI3
aF1.0
aI1
aI3
aI4
aI5
aI2
aI0
aI5
aI5
aI19
aI11
aa(lp154
V0020500824
p155
aVFEB 26, 2006
p156
aVMIN vs. MEM
p157
aVW
p158
aI33
aI5
aI9
aF0.556
aI0
aI0
aF0.0
aI3
aI5
aF0.6
aI0
aI5
aI5
aI8
aI3
aI1
aI1
aI5
aI13
aI8
aa(lp159
V0020500839
p160
aVFEB 28, 2006
p161
aVMIN @ CHI
p162
aVL
p163
aI35
aI6
aI10
aF0.6
aI2
aI3
aF0.667
aI4
aI4
aF1.0
aI1
aI1
aI2
aI7
aI0
aI0
aI3
aI5
aI18
aI-7
aa(lp164
V0020500847
p165
aVMAR 01, 2006
p166
aVMIN vs. NJN
p167
aVW
p168
aI23
aI2
aI6
aF0.333
aI0
aI1
aF0.0
aI4
aI8
aF0.5
aI1
aI3
aI4
aI2
aI1
aI1
aI3
aI0
aI8
aI-11
aa(lp169
V0020500878
p170
aVMAR 05, 2006
p171
aVMIN vs. GSW
p172
aVW
p173
aI31
aI6
aI12
aF0.5
aI0
aI0
aF0.0
aI0
aI1
aF0.0
aI0
aI5
aI5
aI6
aI0
aI0
aI4
aI4
aI12
aI10
aa(lp174
V0020500893
p175
aVMAR 07, 2006
p176
aVMIN vs. HOU
p177
aVL
p178
aI37
aI12
aI19
aF0.632
aI2
aI4
aF0.5
aI0
aI1
aF0.0
aI0
aI2
aI2
aI5
aI1
aI1
aI2
aI3
aI26
aI7
aa(lp179
V0020500905
p180
aVMAR 08, 2006
p181
aVMIN @ UTA
p182
aVL
p183
aI17
aI1
aI4
aF0.25
aI0
aI0
aF0.0
aI2
aI2
aF1.0
aI0
aI1
aI1
aI1
aI1
aI1
aI2
aI4
aI4
aI-13
aa(lp184
V0020500918
p185
aVMAR 10, 2006
p186
aVMIN @ SEA
p187
aVL
p188
aI34
aI6
aI14
aF0.429
aI0
aI1
aF0.0
aI3
aI4
aF0.75
aI0
aI5
aI5
aI9
aI4
aI0
aI5
aI1
aI15
aI-5
aa(lp189
V0020500925
p190
aVMAR 11, 2006
p191
aVMIN @ PHX
p192
aVL
p193
aI15
aI0
aI3
aF0.0
aI0
aI1
aF0.0
aI0
aI0
aF0.0
aI0
aI0
aI0
aI0
aI0
aI0
aI2
aI3
aI0
aI-11
aa(lp194
V0020500940
p195
aVMAR 13, 2006
p196
aVMIN @ LAC
p197
aVL
p198
aI21
aI1
aI6
aF0.167
aI0
aI1
aF0.0
aI0
aI0
aF0.0
aI1
aI0
aI1
aI5
aI1
aI0
aI0
aI1
aI2
aI0
aa(lp199
V0020500959
p200
aVMAR 15, 2006
p201
aVMIN @ LAL
p202
aVL
p203
aI33
aI7
aI13
aF0.538
aI0
aI1
aF0.0
aI4
aI4
aF1.0
aI0
aI2
aI2
aI8
aI2
aI0
aI2
aI2
aI18
aI1
aa(lp204
V0020500961
p205
aVMAR 16, 2006
p206
aVMIN @ GSW
p207
aVL
p208
aI38
aI4
aI11
aF0.364
aI0
aI1
aF0.0
aI3
aI6
aF0.5
aI1
aI5
aI6
aI9
aI4
aI0
aI2
aI5
aI11
aI4
aa(lp209
V0020500984
p210
aVMAR 19, 2006
p211
aVMIN vs. SAC
p212
aVW
p213
aI19
aI2
aI4
aF0.5
aI0
aI0
aF0.0
aI0
aI0
aF0.0
aI0
aI2
aI2
aI6
aI0
aI0
aI1
aI4
aI4
aI9
aa(lp214
V0020500998
p215
aVMAR 21, 2006
p216
aVMIN vs. MIA
p217
aVW
p218
aI40
aI4
aI10
aF0.4
aI0
aI0
aF0.0
aI4
aI4
aF1.0
aI2
aI5
aI7
aI6
aI1
aI0
aI2
aI2
aI12
aI9
aa(lp219
V0020501011
p220
aVMAR 23, 2006
p221
aVMIN @ NJN
p222
aVL
p223
aI43
aI6
aI12
aF0.5
aI0
aI1
aF0.0
aI6
aI8
aF0.75
aI2
aI3
aI5
aI5
aI0
aI0
aI1
aI5
aI18
aI-6
aa(lp224
V0020501017
p225
aVMAR 24, 2006
p226
aVMIN @ TOR
p227
aVL
p228
aI33
aI5
aI13
aF0.385
aI0
aI0
aF0.0
aI0
aI0
aF0.0
aI0
aI0
aI0
aI4
aI0
aI0
aI2
aI2
aI10
aI-24
aa(lp229
V0020501034
p230
aVMAR 26, 2006
p231
aVMIN vs. NYK
p232
aVW
p233
aI39
aI3
aI11
aF0.273
aI0
aI1
aF0.0
aI6
aI11
aF0.545
aI0
aI1
aI1
aI6
aI1
aI0
aI1
aI5
aI12
aI-1
aa(lp234
V0020501060
p235
aVMAR 29, 2006
p236
aVMIN vs. ORL
p237
aVW
p238
aI32
aI4
aI5
aF0.8
aI0
aI0
aF0.0
aI0
aI0
aF0.0
aI0
aI1
aI1
aI2
aI1
aI0
aI2
aI2
aI8
aI12
aa(lp239
V0020501075
p240
aVMAR 31, 2006
p241
aVMIN @ DEN
p242
aVL
p243
aI41
aI7
aI12
aF0.583
aI1
aI1
aF1.0
aI2
aI3
aF0.667
aI0
aI3
aI3
aI7
aI1
aI0
aI1
aI2
aI17
aI-7
aa(lp244
V0020501088
p245
aVAPR 02, 2006
p246
aVMIN vs. GSW
p247
aVW
p248
aI42
aI10
aI17
aF0.588
aI0
aI0
aF0.0
aI4
aI4
aF1.0
aI1
aI4
aI5
aI7
aI1
aI1
aI4
aI5
aI24
aI5
aa(lp249
V0020501099
p250
aVAPR 04, 2006
p251
aVMIN @ CHA
p252
aVL
p253
aI31
aI2
aI8
aF0.25
aI0
aI1
aF0.0
aI0
aI0
aF0.0
aI1
aI2
aI3
aI8
aI1
aI0
aI5
aI3
aI4
aI-16
aa(lp254
V0020501110
p255
aVAPR 05, 2006
p256
aVMIN @ ATL
p257
aVL
p258
aI32
aI1
aI6
aF0.167
aI0
aI0
aF0.0
aI0
aI0
aF0.0
aI0
aI2
aI2
aI10
aI2
aI0
aI3
aI0
aI2
aI0
aa(lp259
V0020501127
p260
aVAPR 07, 2006
p261
aVMIN vs. UTA
p262
aVL
p263
aI29
aI6
aI11
aF0.545
aI0
aI0
aF0.0
aI2
aI2
aF1.0
aI1
aI1
aI2
aI6
aI1
aI1
aI3
aI2
aI14
aI3
aa(lp264
V0020501144
p265
aVAPR 09, 2006
p266
aVMIN vs. ATL
p267
aVW
p268
aI34
aI3
aI8
aF0.375
aI0
aI0
aF0.0
aI0
aI0
aF0.0
aI0
aI4
aI4
aI4
aI1
aI1
aI5
aI2
aI6
aI-1
aa(lp269
V0020501157
p270
aVAPR 11, 2006
p271
aVMIN @ MEM
p272
aVL
p273
aI28
aI4
aI8
aF0.5
aI0
aI0
aF0.0
aI2
aI2
aF1.0
aI0
aI2
aI2
aI4
aI1
aI0
aI2
aI3
aI10
aI-18
aa(lp274
V0020501170
p275
aVAPR 12, 2006
p276
aVMIN @ HOU
p277
aVW
p278
aI32
aI5
aI11
aF0.455
aI1
aI2
aF0.5
aI4
aI4
aF1.0
aI0
aI4
aI4
aI2
aI0
aI0
aI4
aI3
aI15
aI-5
aa(lp279
V0020501182
p280
aVAPR 14, 2006
p281
aVMIN @ IND
p282
aVL
p283
aI39
aI6
aI11
aF0.545
aI3
aI5
aF0.6
aI0
aI0
aF0.0
aI0
aI3
aI3
aI2
aI0
aI0
aI5
aI4
aI15
aI-4
aa(lp284
V0020501195
p285
aVAPR 16, 2006
p286
aVMIN vs. SAS
p287
aVL
p288
aI41
aI7
aI15
aF0.467
aI1
aI1
aF1.0
aI10
aI11
aF0.909
aI0
aI5
aI5
aI4
aI4
aI0
aI0
aI3
aI25
aI-20
aa(lp289
V0020501224
p290
aVAPR 19, 2006
p291
aVMIN vs. MEM
p292
aVL
p293
aI24
aI3
aI8
aF0.375
aI1
aI2
aF0.5
aI8
aI8
aF1.0
aI4
aI2
aI6
aI2
aI3
aI0
aI1
aI2
aI15
aI8
aasS'name'
p294
VMarcus Banks
p295
sS'experience'
p296
I2
s.