(dp0
S'age'
p1
I22
sS'stats'
p2
(lp3
(lp4
V0020500006
p5
aVNOV 02, 2005
p6
aVCLE vs. NOK
p7
aVW
p8
aI22
aI2
aI4
aF0.5
aI1
aI2
aF0.5
aI0
aI0
aF0.0
aI0
aI2
aI2
aI1
aI0
aI0
aI0
aI3
aI5
aI4
aa(lp9
V0020500026
p10
aVNOV 04, 2005
p11
aVCLE @ SAS
p12
aVL
p13
aI12
aI0
aI2
aF0.0
aI0
aI0
aF0.0
aI0
aI0
aF0.0
aI0
aI1
aI1
aI0
aI0
aI0
aI1
aI2
aI0
aI-5
aa(lp14
V0020500046
p15
aVNOV 07, 2005
p16
aVCLE @ TOR
p17
aVW
p18
aI1
aI0
aI1
aF0.0
aI0
aI1
aF0.0
aI0
aI0
aF0.0
aI0
aI0
aI0
aI0
aI0
aI0
aI0
aI0
aI0
aI-4
aa(lp19
V0020500058
p20
aVNOV 09, 2005
p21
aVCLE vs. SEA
p22
aVW
p23
aI9
aI2
aI4
aF0.5
aI0
aI0
aF0.0
aI2
aI3
aF0.667
aI1
aI1
aI2
aI0
aI0
aI0
aI0
aI2
aI6
aI-1
aa(lp24
V0020500076
p25
aVNOV 11, 2005
p26
aVCLE vs. MEM
p27
aVW
p28
aI5
aI2
aI3
aF0.667
aI1
aI2
aF0.5
aI0
aI0
aF0.0
aI0
aI1
aI1
aI0
aI1
aI1
aI0
aI0
aI5
aI0
aa(lp29
V0020500100
p30
aVNOV 15, 2005
p31
aVCLE vs. WAS
p32
aVW
p33
aI1
aI0
aI0
aF0.0
aI0
aI0
aF0.0
aI0
aI0
aF0.0
aI0
aI1
aI1
aI0
aI0
aI0
aI0
aI0
aI0
aI1
aa(lp34
V0020500120
p35
aVNOV 18, 2005
p36
aVCLE vs. ORL
p37
aVW
p38
aI5
aI1
aI2
aF0.5
aI0
aI0
aF0.0
aI2
aI2
aF1.0
aI0
aI0
aI0
aI0
aI0
aI0
aI0
aI0
aI4
aI-6
aa(lp39
V0020500151
p40
aVNOV 22, 2005
p41
aVCLE vs. BOS
p42
aVW
p43
aI2
aI0
aI0
aF0.0
aI0
aI0
aF0.0
aI0
aI0
aF0.0
aI0
aI0
aI0
aI0
aI0
aI0
aI1
aI1
aI0
aI6
aa(lp44
V0020500167
p45
aVNOV 24, 2005
p46
aVCLE @ IND
p47
aVL
p48
aI4
aI0
aI2
aF0.0
aI0
aI0
aF0.0
aI0
aI0
aF0.0
aI0
aI0
aI0
aI0
aI0
aI0
aI0
aI0
aI0
aI-3
aa(lp49
V0020500209
p50
aVNOV 30, 2005
p51
aVCLE vs. LAC
p52
aVW
p53
aI5
aI0
aI0
aF0.0
aI0
aI0
aF0.0
aI0
aI0
aF0.0
aI0
aI1
aI1
aI0
aI0
aI0
aI1
aI2
aI0
aI2
aa(lp54
V0020500230
p55
aVDEC 02, 2005
p56
aVCLE @ SEA
p57
aVL
p58
aI1
aI0
aI0
aF0.0
aI0
aI0
aF0.0
aI0
aI0
aF0.0
aI0
aI0
aI0
aI0
aI0
aI0
aI0
aI0
aI0
aI1
aa(lp59
V0020500238
p60
aVDEC 03, 2005
p61
aVCLE @ LAC
p62
aVL
p63
aI7
aI1
aI1
aF1.0
aI1
aI1
aF1.0
aI0
aI0
aF0.0
aI0
aI0
aI0
aI0
aI0
aI0
aI0
aI1
aI3
aI-1
aa(lp64
V0020500457
p65
aVJAN 05, 2006
p66
aVCLE vs. HOU
p67
aVL
p68
aI1
aI0
aI0
aF0.0
aI0
aI0
aF0.0
aI0
aI0
aF0.0
aI0
aI0
aI0
aI0
aI0
aI0
aI0
aI0
aI0
aI0
aa(lp69
V0020500512
p70
aVJAN 12, 2006
p71
aVCLE @ LAL
p72
aVL
p73
aI7
aI0
aI2
aF0.0
aI0
aI1
aF0.0
aI0
aI0
aF0.0
aI0
aI1
aI1
aI1
aI0
aI0
aI1
aI1
aI0
aI-4
aa(lp74
V0020500559
p75
aVJAN 18, 2006
p76
aVCLE @ DEN
p77
aVL
p78
aI19
aI4
aI8
aF0.5
aI1
aI2
aF0.5
aI0
aI2
aF0.0
aI0
aI1
aI1
aI0
aI0
aI0
aI1
aI5
aI9
aI4
aa(lp79
V0020500575
p80
aVJAN 20, 2006
p81
aVCLE @ GSW
p82
aVL
p83
aI24
aI3
aI7
aF0.429
aI0
aI2
aF0.0
aI0
aI0
aF0.0
aI2
aI2
aI4
aI2
aI0
aI0
aI2
aI6
aI6
aI-6
aa(lp84
V0020500582
p85
aVJAN 21, 2006
p86
aVCLE @ UTA
p87
aVW
p88
aI37
aI4
aI9
aF0.444
aI0
aI3
aF0.0
aI1
aI1
aF1.0
aI0
aI3
aI3
aI0
aI1
aI0
aI2
aI4
aI9
aI16
aa(lp89
V0020500600
p90
aVJAN 24, 2006
p91
aVCLE vs. IND
p92
aVW
p93
aI33
aI6
aI9
aF0.667
aI4
aI5
aF0.8
aI0
aI2
aF0.0
aI0
aI3
aI3
aI1
aI1
aI0
aI1
aI4
aI16
aI24
aa(lp94
V0020500605
p95
aVJAN 25, 2006
p96
aVCLE @ ATL
p97
aVW
p98
aI34
aI0
aI3
aF0.0
aI0
aI2
aF0.0
aI3
aI4
aF0.75
aI0
aI2
aI2
aI0
aI1
aI0
aI0
aI3
aI3
aI7
aa(lp99
V0020500620
p100
aVJAN 27, 2006
p101
aVCLE @ IND
p102
aVW
p103
aI23
aI2
aI7
aF0.286
aI1
aI2
aF0.5
aI0
aI0
aF0.0
aI0
aI2
aI2
aI0
aI1
aI0
aI1
aI2
aI5
aI3
aa(lp104
V0020500642
p105
aVJAN 29, 2006
p106
aVCLE vs. PHX
p107
aVW
p108
aI38
aI5
aI8
aF0.625
aI2
aI4
aF0.5
aI3
aI4
aF0.75
aI0
aI3
aI3
aI1
aI1
aI0
aI1
aI6
aI15
aI17
aa(lp109
V0020500648
p110
aVJAN 30, 2006
p111
aVCLE @ CHA
p112
aVW
p113
aI25
aI3
aI4
aF0.75
aI1
aI2
aF0.5
aI0
aI0
aF0.0
aI0
aI1
aI1
aI1
aI1
aI0
aI1
aI2
aI7
aI12
aa(lp114
V0020500663
p115
aVFEB 01, 2006
p116
aVCLE vs. NJN
p117
aVW
p118
aI36
aI4
aI10
aF0.4
aI1
aI4
aF0.25
aI5
aI6
aF0.833
aI2
aI5
aI7
aI1
aI1
aI1
aI2
aI5
aI14
aI1
aa(lp119
V0020500674
p120
aVFEB 02, 2006
p121
aVCLE @ MIA
p122
aVL
p123
aI37
aI3
aI11
aF0.273
aI2
aI5
aF0.4
aI0
aI0
aF0.0
aI0
aI1
aI1
aI1
aI0
aI0
aI4
aI4
aI8
aI-24
aa(lp124
V0020500687
p125
aVFEB 04, 2006
p126
aVCLE vs. PHI
p127
aVL
p128
aI23
aI4
aI8
aF0.5
aI2
aI6
aF0.333
aI2
aI2
aF1.0
aI0
aI2
aI2
aI0
aI0
aI0
aI2
aI5
aI12
aI11
aa(lp129
V0020500707
p130
aVFEB 06, 2006
p131
aVCLE vs. MIL
p132
aVW
p133
aI28
aI6
aI10
aF0.6
aI2
aI3
aF0.667
aI1
aI1
aF1.0
aI2
aI2
aI4
aI4
aI1
aI0
aI0
aI0
aI15
aI3
aa(lp134
V0020500719
p135
aVFEB 08, 2006
p136
aVCLE @ MIN
p137
aVW
p138
aI39
aI3
aI8
aF0.375
aI3
aI5
aF0.6
aI2
aI4
aF0.5
aI1
aI3
aI4
aI2
aI1
aI1
aI2
aI3
aI11
aI-2
aa(lp139
V0020500725
p140
aVFEB 10, 2006
p141
aVCLE @ WAS
p142
aVL
p143
aI26
aI2
aI5
aF0.4
aI1
aI2
aF0.5
aI0
aI0
aF0.0
aI0
aI1
aI1
aI0
aI1
aI0
aI0
aI5
aI5
aI-19
aa(lp144
V0020500737
p145
aVFEB 11, 2006
p146
aVCLE vs. GSW
p147
aVL
p148
aI21
aI1
aI8
aF0.125
aI0
aI3
aF0.0
aI0
aI0
aF0.0
aI0
aI1
aI1
aI1
aI0
aI1
aI1
aI6
aI2
aI-3
aa(lp149
V0020500758
p150
aVFEB 13, 2006
p151
aVCLE vs. SAS
p152
aVW
p153
aI18
aI2
aI5
aF0.4
aI0
aI1
aF0.0
aI0
aI0
aF0.0
aI1
aI1
aI2
aI1
aI0
aI0
aI1
aI4
aI4
aI-9
aa(lp154
V0020500767
p155
aVFEB 15, 2006
p156
aVCLE @ BOS
p157
aVW
p158
aI26
aI3
aI8
aF0.375
aI2
aI6
aF0.333
aI1
aI2
aF0.5
aI0
aI3
aI3
aI0
aI0
aI0
aI0
aI2
aI9
aI-4
aa(lp159
V0020500780
p160
aVFEB 21, 2006
p161
aVCLE vs. ORL
p162
aVW
p163
aI39
aI7
aI13
aF0.538
aI3
aI8
aF0.375
aI4
aI6
aF0.667
aI2
aI3
aI5
aI3
aI1
aI1
aI1
aI3
aI21
aI20
aa(lp164
V0020500791
p165
aVFEB 22, 2006
p166
aVCLE @ PHI
p167
aVL
p168
aI36
aI1
aI7
aF0.143
aI1
aI4
aF0.25
aI1
aI2
aF0.5
aI0
aI3
aI3
aI2
aI0
aI1
aI1
aI3
aI4
aI-6
aa(lp169
V0020500805
p170
aVFEB 24, 2006
p171
aVCLE vs. WAS
p172
aVL
p173
aI4
aI0
aI1
aF0.0
aI0
aI1
aF0.0
aI0
aI0
aF0.0
aI0
aI0
aI0
aI0
aI0
aI0
aI0
aI0
aI0
aI-10
aa(lp174
V0020500822
p175
aVFEB 26, 2006
p176
aVCLE @ DET
p177
aVL
p178
aI17
aI1
aI6
aF0.167
aI0
aI2
aF0.0
aI0
aI0
aF0.0
aI0
aI2
aI2
aI0
aI0
aI0
aI0
aI1
aI2
aI-6
aa(lp179
V0020500829
p180
aVFEB 27, 2006
p181
aVCLE vs. DET
p182
aVL
p183
aI10
aI2
aI2
aF1.0
aI2
aI2
aF1.0
aI0
aI0
aF0.0
aI0
aI2
aI2
aI0
aI0
aI0
aI0
aI1
aI6
aI2
aa(lp184
V0020500844
p185
aVMAR 01, 2006
p186
aVCLE vs. SAC
p187
aVL
p188
aI4
aI0
aI0
aF0.0
aI0
aI0
aF0.0
aI0
aI0
aF0.0
aI0
aI1
aI1
aI0
aI0
aI0
aI0
aI1
aI0
aI3
aa(lp189
V0020500891
p190
aVMAR 07, 2006
p191
aVCLE vs. TOR
p192
aVW
p193
aI4
aI1
aI1
aF1.0
aI1
aI1
aF1.0
aI0
aI0
aF0.0
aI0
aI0
aI0
aI0
aI0
aI0
aI1
aI1
aI3
aI-9
aa(lp194
V0020500911
p195
aVMAR 10, 2006
p196
aVCLE @ ORL
p197
aVL
p198
aI11
aI1
aI3
aF0.333
aI0
aI1
aF0.0
aI0
aI0
aF0.0
aI0
aI2
aI2
aI0
aI1
aI0
aI2
aI2
aI2
aI-17
aa(lp199
V0020500970
p200
aVMAR 17, 2006
p201
aVCLE vs. POR
p202
aVW
p203
aI3
aI0
aI1
aF0.0
aI0
aI0
aF0.0
aI0
aI0
aF0.0
aI0
aI2
aI2
aI0
aI0
aI0
aI0
aI0
aI0
aI1
aa(lp204
V0020500981
p205
aVMAR 19, 2006
p206
aVCLE vs. LAL
p207
aVW
p208
aI10
aI0
aI0
aF0.0
aI0
aI0
aF0.0
aI0
aI0
aF0.0
aI0
aI0
aI0
aI0
aI0
aI0
aI0
aI0
aI0
aI2
aa(lp209
V0020501004
p210
aVMAR 22, 2006
p211
aVCLE vs. CHA
p212
aVW
p213
aI3
aI0
aI1
aF0.0
aI0
aI0
aF0.0
aI0
aI0
aF0.0
aI0
aI1
aI1
aI0
aI0
aI0
aI1
aI0
aI0
aI-3
aa(lp214
V0020501022
p215
aVMAR 24, 2006
p216
aVCLE vs. BOS
p217
aVW
p218
aI8
aI1
aI3
aF0.333
aI0
aI1
aF0.0
aI0
aI0
aF0.0
aI0
aI1
aI1
aI0
aI1
aI0
aI1
aI1
aI2
aI-1
aa(lp219
V0020501033
p220
aVMAR 26, 2006
p221
aVCLE @ HOU
p222
aVW
p223
aI16
aI2
aI3
aF0.667
aI1
aI1
aF1.0
aI0
aI0
aF0.0
aI1
aI0
aI1
aI0
aI3
aI0
aI0
aI1
aI5
aI11
aa(lp224
V0020501057
p225
aVMAR 29, 2006
p226
aVCLE vs. DAL
p227
aVW
p228
aI9
aI1
aI4
aF0.25
aI1
aI3
aF0.333
aI0
aI0
aF0.0
aI1
aI0
aI1
aI0
aI0
aI0
aI0
aI2
aI3
aI11
aa(lp229
V0020501079
p230
aVAPR 01, 2006
p231
aVCLE vs. MIA
p232
aVW
p233
aI12
aI1
aI2
aF0.5
aI0
aI0
aF0.0
aI0
aI0
aF0.0
aI2
aI0
aI2
aI1
aI0
aI0
aI2
aI1
aI2
aI-4
aa(lp234
V0020501092
p235
aVAPR 02, 2006
p236
aVCLE @ CHA
p237
aVW
p238
aI10
aI0
aI0
aF0.0
aI0
aI0
aF0.0
aI0
aI0
aF0.0
aI0
aI0
aI0
aI0
aI1
aI0
aI3
aI2
aI0
aI-6
aa(lp239
V0020501097
p240
aVAPR 04, 2006
p241
aVCLE vs. PHI
p242
aVW
p243
aI7
aI0
aI1
aF0.0
aI0
aI0
aF0.0
aI1
aI2
aF0.5
aI0
aI0
aI0
aI0
aI0
aI0
aI2
aI2
aI1
aI5
aa(lp244
V0020501113
p245
aVAPR 05, 2006
p246
aVCLE @ NYK
p247
aVL
p248
aI1
aI0
aI0
aF0.0
aI0
aI0
aF0.0
aI0
aI0
aF0.0
aI0
aI0
aI0
aI0
aI0
aI0
aI0
aI0
aI0
aI-3
aa(lp249
V0020501167
p250
aVAPR 12, 2006
p251
aVCLE @ DET
p252
aVL
p253
aI14
aI2
aI5
aF0.4
aI1
aI4
aF0.25
aI1
aI2
aF0.5
aI0
aI2
aI2
aI1
aI0
aI0
aI0
aI0
aI6
aI-2
aa(lp254
V0020501174
p255
aVAPR 13, 2006
p256
aVCLE vs. NYK
p257
aVW
p258
aI10
aI1
aI4
aF0.25
aI0
aI2
aF0.0
aI2
aI3
aF0.667
aI1
aI0
aI1
aI0
aI0
aI0
aI1
aI0
aI4
aI1
aa(lp259
V0020501197
p260
aVAPR 16, 2006
p261
aVCLE @ WAS
p262
aVL
p263
aI9
aI3
aI4
aF0.75
aI0
aI1
aF0.0
aI1
aI1
aF1.0
aI0
aI1
aI1
aI0
aI1
aI0
aI0
aI2
aI7
aI6
aa(lp264
V0020501217
p265
aVAPR 19, 2006
p266
aVCLE vs. ATL
p267
aVW
p268
aI6
aI0
aI2
aF0.0
aI0
aI1
aF0.0
aI0
aI0
aF0.0
aI0
aI0
aI0
aI1
aI0
aI0
aI2
aI2
aI0
aI0
aasS'name'
p269
VSasha Pavlovic
p270
sS'experience'
p271
I2
s.