(dp0
S'stats'
p1
(lp2
(lp3
V0020500027
p4
aVNOV 04, 2005
p5
aVPOR @ DEN
p6
aVL
p7
aI9
aI0
aI3
aF0.0
aI0
aI1
aF0.0
aI0
aI2
aF0.0
aI2
aI0
aI2
aI0
aI0
aI1
aI0
aI0
aI0
aI-26
aa(lp8
V0020500129
p9
aVNOV 18, 2005
p10
aVPOR vs. GSW
p11
aVL
p12
aI11
aI2
aI3
aF0.667
aI0
aI1
aF0.0
aI0
aI0
aF0.0
aI0
aI3
aI3
aI1
aI0
aI0
aI0
aI1
aI4
aI-3
aa(lp13
V0020500139
p14
aVNOV 20, 2005
p15
aVPOR @ NYK
p16
aVL
p17
aI11
aI2
aI5
aF0.4
aI0
aI2
aF0.0
aI0
aI0
aF0.0
aI0
aI0
aI0
aI1
aI1
aI0
aI0
aI1
aI4
aI-17
aa(lp18
V0020500152
p19
aVNOV 22, 2005
p20
aVPOR @ MEM
p21
aVW
p22
aI20
aI4
aI6
aF0.667
aI0
aI2
aF0.0
aI2
aI2
aF1.0
aI1
aI3
aI4
aI0
aI2
aI0
aI0
aI0
aI10
aI11
aa(lp23
V0020500159
p24
aVNOV 23, 2005
p25
aVPOR @ MIA
p26
aVL
p27
aI23
aI2
aI7
aF0.286
aI0
aI1
aF0.0
aI0
aI0
aF0.0
aI0
aI2
aI2
aI2
aI2
aI0
aI1
aI1
aI4
aI-5
aa(lp28
V0020500169
p29
aVNOV 25, 2005
p30
aVPOR @ ORL
p31
aVL
p32
aI21
aI2
aI3
aF0.667
aI0
aI0
aF0.0
aI1
aI1
aF1.0
aI1
aI4
aI5
aI0
aI0
aI1
aI0
aI0
aI5
aI4
aa(lp33
V0020500190
p34
aVNOV 27, 2005
p35
aVPOR @ ATL
p36
aVW
p37
aI19
aI2
aI7
aF0.286
aI0
aI2
aF0.0
aI0
aI0
aF0.0
aI2
aI2
aI4
aI2
aI2
aI0
aI0
aI2
aI4
aI7
aa(lp38
V0020500198
p39
aVNOV 29, 2005
p40
aVPOR @ PHI
p41
aVL
p42
aI20
aI3
aI6
aF0.5
aI0
aI1
aF0.0
aI0
aI0
aF0.0
aI0
aI0
aI0
aI0
aI0
aI1
aI0
aI2
aI6
aI-28
aa(lp43
V0020500207
p44
aVNOV 30, 2005
p45
aVPOR @ WAS
p46
aVL
p47
aI18
aI2
aI5
aF0.4
aI0
aI0
aF0.0
aI0
aI0
aF0.0
aI0
aI6
aI6
aI0
aI0
aI3
aI1
aI3
aI4
aI-21
aa(lp48
V0020500227
p49
aVDEC 02, 2005
p50
aVPOR vs. IND
p51
aVL
p52
aI17
aI2
aI9
aF0.222
aI0
aI1
aF0.0
aI1
aI2
aF0.5
aI2
aI2
aI4
aI0
aI0
aI1
aI0
aI2
aI5
aI-6
aa(lp53
V0020500242
p54
aVDEC 04, 2005
p55
aVPOR vs. UTA
p56
aVL
p57
aI5
aI0
aI1
aF0.0
aI0
aI0
aF0.0
aI0
aI0
aF0.0
aI0
aI0
aI0
aI0
aI1
aI1
aI0
aI0
aI0
aI-3
aa(lp58
V0020500255
p59
aVDEC 06, 2005
p60
aVPOR @ PHX
p61
aVL
p62
aI8
aI0
aI2
aF0.0
aI0
aI0
aF0.0
aI0
aI0
aF0.0
aI0
aI0
aI0
aI0
aI0
aI1
aI0
aI0
aI0
aI-8
aa(lp63
V0020500278
p64
aVDEC 09, 2005
p65
aVPOR vs. NOK
p66
aVW
p67
aI3
aI0
aI1
aF0.0
aI0
aI0
aF0.0
aI0
aI2
aF0.0
aI0
aI0
aI0
aI0
aI0
aI0
aI0
aI0
aI0
aI-2
aa(lp68
V0020500317
p69
aVDEC 14, 2005
p70
aVPOR @ UTA
p71
aVL
p72
aI17
aI1
aI5
aF0.2
aI0
aI0
aF0.0
aI6
aI6
aF1.0
aI1
aI0
aI1
aI0
aI0
aI0
aI0
aI3
aI8
aI3
aa(lp73
V0020500365
p74
aVDEC 21, 2005
p75
aVPOR @ MEM
p76
aVL
p77
aI1
aI0
aI0
aF0.0
aI0
aI0
aF0.0
aI0
aI0
aF0.0
aI0
aI0
aI0
aI0
aI0
aI0
aI0
aI0
aI0
aI-2
aa(lp78
V0020500379
p79
aVDEC 23, 2005
p80
aVPOR @ MIN
p81
aVW
p82
aI19
aI3
aI6
aF0.5
aI1
aI2
aF0.5
aI1
aI2
aF0.5
aI0
aI4
aI4
aI1
aI1
aI0
aI0
aI2
aI8
aI16
aa(lp83
V0020500394
p84
aVDEC 26, 2005
p85
aVPOR @ SAC
p86
aVW
p87
aI19
aI3
aI5
aF0.6
aI0
aI1
aF0.0
aI0
aI0
aF0.0
aI1
aI1
aI2
aI0
aI1
aI1
aI0
aI1
aI6
aI17
aa(lp88
V0020500411
p89
aVDEC 28, 2005
p90
aVPOR vs. PHI
p91
aVW
p92
aI16
aI2
aI9
aF0.222
aI0
aI0
aF0.0
aI0
aI0
aF0.0
aI1
aI2
aI3
aI0
aI0
aI1
aI2
aI3
aI4
aI7
aa(lp93
V0020500425
p94
aVDEC 30, 2005
p95
aVPOR vs. MEM
p96
aVL
p97
aI3
aI0
aI1
aF0.0
aI0
aI0
aF0.0
aI0
aI0
aF0.0
aI0
aI0
aI0
aI0
aI0
aI0
aI0
aI0
aI0
aI-8
aa(lp98
V0020500435
p99
aVJAN 01, 2006
p100
aVPOR vs. LAC
p101
aVL
p102
aI4
aI0
aI1
aF0.0
aI0
aI0
aF0.0
aI0
aI0
aF0.0
aI0
aI0
aI0
aI0
aI0
aI0
aI0
aI0
aI0
aI0
aa(lp103
V0020500445
p104
aVJAN 03, 2006
p105
aVPOR @ DAL
p106
aVL
p107
aI2
aI0
aI1
aF0.0
aI0
aI1
aF0.0
aI0
aI0
aF0.0
aI0
aI0
aI0
aI0
aI0
aI0
aI0
aI1
aI0
aI0
aa(lp108
V0020500454
p109
aVJAN 04, 2006
p110
aVPOR @ SAS
p111
aVL
p112
aI39
aI5
aI10
aF0.5
aI0
aI0
aF0.0
aI0
aI0
aF0.0
aI1
aI4
aI5
aI3
aI0
aI1
aI3
aI1
aI10
aI-31
aa(lp113
V0020500465
p114
aVJAN 06, 2006
p115
aVPOR @ NOK
p116
aVL
p117
aI26
aI3
aI8
aF0.375
aI0
aI3
aF0.0
aI1
aI2
aF0.5
aI1
aI4
aI5
aI1
aI3
aI1
aI1
aI1
aI7
aI-5
aa(lp118
V0020500485
p119
aVJAN 08, 2006
p120
aVPOR vs. MIA
p121
aVL
p122
aI30
aI4
aI9
aF0.444
aI0
aI2
aF0.0
aI4
aI4
aF1.0
aI1
aI6
aI7
aI2
aI1
aI0
aI1
aI0
aI12
aI-14
aa(lp123
V0020500507
p124
aVJAN 11, 2006
p125
aVPOR vs. LAL
p126
aVW
p127
aI7
aI0
aI3
aF0.0
aI0
aI1
aF0.0
aI0
aI0
aF0.0
aI1
aI1
aI2
aI0
aI1
aI0
aI0
aI1
aI0
aI7
aa(lp128
V0020500520
p129
aVJAN 13, 2006
p130
aVPOR vs. ORL
p131
aVW
p132
aI12
aI3
aI5
aF0.6
aI0
aI0
aF0.0
aI0
aI0
aF0.0
aI0
aI0
aI0
aI0
aI0
aI0
aI0
aI4
aI6
aI1
aa(lp133
V0020500535
p134
aVJAN 15, 2006
p135
aVPOR vs. CLE
p136
aVW
p137
aI13
aI0
aI2
aF0.0
aI0
aI0
aF0.0
aI0
aI0
aF0.0
aI1
aI2
aI3
aI0
aI0
aI0
aI2
aI3
aI0
aI16
aa(lp138
V0020500560
p139
aVJAN 18, 2006
p140
aVPOR vs. TOR
p141
aVW
p142
aI21
aI6
aI11
aF0.545
aI0
aI1
aF0.0
aI1
aI2
aF0.5
aI1
aI1
aI2
aI1
aI0
aI0
aI0
aI4
aI13
aI-7
aa(lp143
V0020500590
p144
aVJAN 22, 2006
p145
aVPOR vs. DAL
p146
aVL
p147
aI13
aI2
aI6
aF0.333
aI0
aI0
aF0.0
aI0
aI0
aF0.0
aI1
aI2
aI3
aI0
aI0
aI0
aI0
aI3
aI4
aI-5
aa(lp148
V0020500613
p149
aVJAN 25, 2006
p150
aVPOR vs. DEN
p151
aVL
p152
aI14
aI3
aI6
aF0.5
aI0
aI1
aF0.0
aI0
aI0
aF0.0
aI0
aI3
aI3
aI0
aI0
aI0
aI0
aI4
aI6
aI-5
aa(lp153
V0020500630
p154
aVJAN 27, 2006
p155
aVPOR vs. NJN
p156
aVW
p157
aI11
aI2
aI5
aF0.4
aI0
aI0
aF0.0
aI0
aI0
aF0.0
aI0
aI1
aI1
aI0
aI1
aI1
aI0
aI1
aI4
aI1
aa(lp158
V0020500640
p159
aVJAN 28, 2006
p160
aVPOR @ GSW
p161
aVL
p162
aI20
aI4
aI8
aF0.5
aI0
aI1
aF0.0
aI2
aI2
aF1.0
aI1
aI2
aI3
aI0
aI1
aI1
aI0
aI2
aI10
aI-2
aa(lp163
V0020500654
p164
aVJAN 30, 2006
p165
aVPOR @ SEA
p166
aVW
p167
aI9
aI3
aI6
aF0.5
aI1
aI1
aF1.0
aI0
aI0
aF0.0
aI1
aI1
aI2
aI0
aI0
aI0
aI0
aI2
aI7
aI-3
aa(lp168
V0020500672
p169
aVFEB 01, 2006
p170
aVPOR vs. SAS
p171
aVL
p172
aI12
aI1
aI3
aF0.333
aI1
aI1
aF1.0
aI2
aI2
aF1.0
aI0
aI1
aI1
aI1
aI0
aI2
aI0
aI1
aI5
aI0
aa(lp173
V0020500683
p174
aVFEB 03, 2006
p175
aVPOR vs. MIN
p176
aVW
p177
aI19
aI3
aI6
aF0.5
aI0
aI0
aF0.0
aI1
aI2
aF0.5
aI0
aI1
aI1
aI1
aI0
aI1
aI0
aI3
aI7
aI2
aa(lp178
V0020500692
p179
aVFEB 04, 2006
p180
aVPOR @ DEN
p181
aVL
p182
aI16
aI2
aI4
aF0.5
aI0
aI0
aF0.0
aI1
aI3
aF0.333
aI2
aI1
aI3
aI0
aI0
aI0
aI1
aI1
aI5
aI0
aa(lp183
V0020500713
p184
aVFEB 08, 2006
p185
aVPOR @ IND
p186
aVL
p187
aI23
aI4
aI7
aF0.571
aI1
aI1
aF1.0
aI1
aI2
aF0.5
aI0
aI4
aI4
aI0
aI1
aI2
aI0
aI3
aI10
aI-10
aa(lp188
V0020500727
p189
aVFEB 10, 2006
p190
aVPOR @ BOS
p191
aVL
p192
aI20
aI5
aI10
aF0.5
aI0
aI1
aF0.0
aI0
aI0
aF0.0
aI2
aI0
aI2
aI0
aI0
aI1
aI1
aI2
aI10
aI-14
aa(lp193
V0020500742
p194
aVFEB 12, 2006
p195
aVPOR @ TOR
p196
aVL
p197
aI22
aI5
aI12
aF0.417
aI0
aI0
aF0.0
aI0
aI1
aF0.0
aI4
aI4
aI8
aI1
aI0
aI0
aI2
aI2
aI10
aI-15
aa(lp198
V0020500752
p199
aVFEB 13, 2006
p200
aVPOR @ CHA
p201
aVW
p202
aI4
aI0
aI2
aF0.0
aI0
aI0
aF0.0
aI0
aI0
aF0.0
aI1
aI0
aI1
aI1
aI0
aI0
aI0
aI3
aI0
aI-1
aa(lp203
V0020500771
p204
aVFEB 15, 2006
p205
aVPOR @ NOK
p206
aVL
p207
aI14
aI3
aI5
aF0.6
aI1
aI1
aF1.0
aI0
aI0
aF0.0
aI1
aI1
aI2
aI0
aI0
aI2
aI0
aI1
aI7
aI3
aa(lp208
V0020500790
p209
aVFEB 21, 2006
p210
aVPOR @ LAL
p211
aVL
p212
aI12
aI1
aI2
aF0.5
aI0
aI0
aF0.0
aI1
aI2
aF0.5
aI0
aI0
aI0
aI1
aI0
aI0
aI0
aI0
aI3
aI-6
aa(lp213
V0020500799
p214
aVFEB 22, 2006
p215
aVPOR vs. CHA
p216
aVL
p217
aI28
aI5
aI6
aF0.833
aI0
aI1
aF0.0
aI0
aI0
aF0.0
aI0
aI1
aI1
aI0
aI0
aI4
aI0
aI1
aI10
aI-5
aa(lp218
V0020500812
p219
aVFEB 24, 2006
p220
aVPOR vs. BOS
p221
aVL
p222
aI28
aI4
aI9
aF0.444
aI0
aI0
aF0.0
aI3
aI5
aF0.6
aI1
aI4
aI5
aI3
aI1
aI2
aI0
aI5
aI11
aI-2
aa(lp223
V0020500827
p224
aVFEB 26, 2006
p225
aVPOR vs. NOK
p226
aVL
p227
aI24
aI1
aI3
aF0.333
aI0
aI0
aF0.0
aI1
aI2
aF0.5
aI0
aI5
aI5
aI0
aI0
aI1
aI1
aI3
aI3
aI-5
aa(lp228
V0020500836
p229
aVFEB 27, 2006
p230
aVPOR @ SAC
p231
aVL
p232
aI16
aI3
aI6
aF0.5
aI0
aI0
aF0.0
aI2
aI2
aF1.0
aI0
aI4
aI4
aI1
aI0
aI0
aI0
aI2
aI8
aI1
aa(lp233
V0020500852
p234
aVMAR 01, 2006
p235
aVPOR vs. LAL
p236
aVW
p237
aI21
aI4
aI6
aF0.667
aI0
aI0
aF0.0
aI0
aI0
aF0.0
aI0
aI2
aI2
aI1
aI1
aI1
aI2
aI2
aI8
aI-3
aa(lp238
V0020500871
p239
aVMAR 04, 2006
p240
aVPOR @ SAS
p241
aVL
p242
aI21
aI1
aI3
aF0.333
aI0
aI0
aF0.0
aI2
aI2
aF1.0
aI0
aI4
aI4
aI0
aI1
aI0
aI0
aI1
aI4
aI-6
aa(lp243
V0020500880
p244
aVMAR 05, 2006
p245
aVPOR @ HOU
p246
aVL
p247
aI15
aI2
aI5
aF0.4
aI0
aI1
aF0.0
aI0
aI0
aF0.0
aI0
aI1
aI1
aI0
aI0
aI0
aI1
aI1
aI4
aI-15
aa(lp248
V0020500908
p249
aVMAR 09, 2006
p250
aVPOR vs. DAL
p251
aVL
p252
aI19
aI2
aI4
aF0.5
aI0
aI2
aF0.0
aI0
aI0
aF0.0
aI1
aI0
aI1
aI1
aI0
aI1
aI0
aI2
aI4
aI-3
aa(lp253
V0020500935
p254
aVMAR 12, 2006
p255
aVPOR vs. PHX
p256
aVW
p257
aI15
aI2
aI5
aF0.4
aI0
aI0
aF0.0
aI0
aI0
aF0.0
aI0
aI2
aI2
aI0
aI0
aI1
aI0
aI0
aI4
aI3
aa(lp258
V0020500945
p259
aVMAR 14, 2006
p260
aVPOR @ CHI
p261
aVL
p262
aI19
aI2
aI6
aF0.333
aI0
aI1
aF0.0
aI2
aI4
aF0.5
aI0
aI2
aI2
aI1
aI0
aI3
aI1
aI1
aI6
aI-9
aa(lp263
V0020500954
p264
aVMAR 15, 2006
p265
aVPOR @ NJN
p266
aVL
p267
aI13
aI0
aI2
aF0.0
aI0
aI0
aF0.0
aI0
aI0
aF0.0
aI0
aI1
aI1
aI0
aI0
aI0
aI0
aI0
aI0
aI-8
aa(lp268
V0020500970
p269
aVMAR 17, 2006
p270
aVPOR @ CLE
p271
aVL
p272
aI16
aI2
aI4
aF0.5
aI1
aI1
aF1.0
aI1
aI2
aF0.5
aI0
aI3
aI3
aI0
aI0
aI0
aI1
aI3
aI6
aI2
aa(lp273
V0020500991
p274
aVMAR 20, 2006
p275
aVPOR vs. MIL
p276
aVL
p277
aI9
aI3
aI7
aF0.429
aI0
aI1
aF0.0
aI0
aI0
aF0.0
aI0
aI2
aI2
aI0
aI0
aI0
aI0
aI1
aI6
aI-3
aa(lp278
V0020501016
p279
aVMAR 23, 2006
p280
aVPOR @ PHX
p281
aVL
p282
aI29
aI6
aI12
aF0.5
aI2
aI3
aF0.667
aI0
aI0
aF0.0
aI2
aI5
aI7
aI1
aI0
aI2
aI2
aI4
aI14
aI-6
aa(lp283
V0020501025
p284
aVMAR 24, 2006
p285
aVPOR vs. SAS
p286
aVL
p287
aI16
aI1
aI3
aF0.333
aI0
aI0
aF0.0
aI0
aI0
aF0.0
aI0
aI3
aI3
aI0
aI0
aI0
aI0
aI0
aI2
aI-13
aa(lp288
V0020501041
p289
aVMAR 26, 2006
p290
aVPOR vs. LAC
p291
aVL
p292
aI16
aI5
aI8
aF0.625
aI1
aI1
aF1.0
aI8
aI9
aF0.889
aI0
aI1
aI1
aI0
aI2
aI1
aI2
aI4
aI19
aI-1
aa(lp293
V0020501063
p294
aVMAR 29, 2006
p295
aVPOR vs. SAC
p296
aVL
p297
aI12
aI2
aI3
aF0.667
aI0
aI0
aF0.0
aI2
aI2
aF1.0
aI1
aI2
aI3
aI0
aI0
aI1
aI1
aI0
aI6
aI-15
aa(lp298
V0020501083
p299
aVAPR 01, 2006
p300
aVPOR vs. UTA
p301
aVL
p302
aI16
aI1
aI4
aF0.25
aI0
aI2
aF0.0
aI0
aI0
aF0.0
aI0
aI3
aI3
aI2
aI1
aI1
aI1
aI0
aI2
aI-6
aa(lp303
V0020501094
p304
aVAPR 02, 2006
p305
aVPOR @ SEA
p306
aVL
p307
aI14
aI0
aI1
aF0.0
aI0
aI0
aF0.0
aI3
aI4
aF0.75
aI0
aI2
aI2
aI0
aI0
aI1
aI1
aI1
aI3
aI-10
aa(lp308
V0020501117
p309
aVAPR 05, 2006
p310
aVPOR vs. HOU
p311
aVW
p312
aI1
aI0
aI0
aF0.0
aI0
aI0
aF0.0
aI0
aI0
aF0.0
aI0
aI0
aI0
aI0
aI0
aI0
aI0
aI0
aI0
aI0
aa(lp313
V0020501138
p314
aVAPR 08, 2006
p315
aVPOR @ UTA
p316
aVL
p317
aI11
aI0
aI2
aF0.0
aI0
aI1
aF0.0
aI0
aI0
aF0.0
aI0
aI2
aI2
aI0
aI0
aI0
aI0
aI2
aI0
aI3
aa(lp318
V0020501154
p319
aVAPR 10, 2006
p320
aVPOR vs. DEN
p321
aVL
p322
aI27
aI4
aI10
aF0.4
aI1
aI1
aF1.0
aI5
aI6
aF0.833
aI5
aI2
aI7
aI1
aI2
aI1
aI0
aI1
aI14
aI-15
aa(lp323
V0020501172
p324
aVAPR 12, 2006
p325
aVPOR @ LAC
p326
aVL
p327
aI26
aI3
aI8
aF0.375
aI0
aI1
aF0.0
aI2
aI4
aF0.5
aI3
aI6
aI9
aI0
aI1
aI0
aI2
aI3
aI8
aI0
aa(lp328
V0020501185
p329
aVAPR 14, 2006
p330
aVPOR @ LAL
p331
aVL
p332
aI35
aI5
aI9
aF0.556
aI2
aI3
aF0.667
aI3
aI4
aF0.75
aI1
aI4
aI5
aI1
aI2
aI0
aI0
aI2
aI15
aI-3
aa(lp333
V0020501193
p334
aVAPR 15, 2006
p335
aVPOR vs. GSW
p336
aVL
p337
aI14
aI1
aI3
aF0.333
aI0
aI2
aF0.0
aI0
aI0
aF0.0
aI0
aI3
aI3
aI0
aI1
aI0
aI2
aI2
aI2
aI-6
aa(lp338
V0020501211
p339
aVAPR 17, 2006
p340
aVPOR @ GSW
p341
aVL
p342
aI36
aI8
aI12
aF0.667
aI2
aI3
aF0.667
aI1
aI2
aF0.5
aI1
aI2
aI3
aI1
aI1
aI2
aI3
aI3
aI19
aI-5
aa(lp343
V0020501228
p344
aVAPR 19, 2006
p345
aVPOR vs. PHX
p346
aVL
p347
aI31
aI6
aI11
aF0.545
aI0
aI0
aF0.0
aI2
aI2
aF1.0
aI3
aI7
aI10
aI2
aI0
aI1
aI2
aI4
aI14
aI-6
aasS'name'
p348
VTravis Outlaw
p349
sS'weight'
p350
V207
p351
sS'age'
p352
I21
sS'experience'
p353
I2
sS'height'
p354
V6-9
p355
sS'position'
p356
VForward
p357
s.