(dp0
S'age'
p1
I20
sS'stats'
p2
(lp3
(lp4
V0020500012
p5
aVNOV 02, 2005
p6
aVCHI vs. CHA
p7
aVW
p8
aI18
aI3
aI8
aF0.375
aI0
aI1
aF0.0
aI4
aI4
aF1.0
aI3
aI1
aI4
aI1
aI0
aI0
aI1
aI1
aI10
aI-5
aa(lp9
V0020500032
p10
aVNOV 05, 2005
p11
aVCHI @ NJN
p12
aVL
p13
aI33
aI4
aI13
aF0.308
aI0
aI0
aF0.0
aI5
aI5
aF1.0
aI3
aI6
aI9
aI1
aI0
aI0
aI2
aI2
aI13
aI5
aa(lp14
V0020500050
p15
aVNOV 07, 2005
p16
aVCHI vs. SAS
p17
aVL
p18
aI36
aI7
aI14
aF0.5
aI0
aI0
aF0.0
aI5
aI6
aF0.833
aI0
aI6
aI6
aI2
aI0
aI0
aI1
aI2
aI19
aI-9
aa(lp19
V0020500065
p20
aVNOV 09, 2005
p21
aVCHI vs. GSW
p22
aVW
p23
aI35
aI2
aI8
aF0.25
aI1
aI1
aF1.0
aI0
aI0
aF0.0
aI0
aI4
aI4
aI1
aI1
aI0
aI2
aI2
aI5
aI-5
aa(lp24
V0020500086
p25
aVNOV 12, 2005
p26
aVCHI vs. UTA
p27
aVW
p28
aI30
aI7
aI12
aF0.583
aI1
aI2
aF0.5
aI6
aI7
aF0.857
aI1
aI2
aI3
aI1
aI0
aI2
aI0
aI1
aI21
aI11
aa(lp29
V0020500097
p30
aVNOV 14, 2005
p31
aVCHI @ GSW
p32
aVL
p33
aI25
aI5
aI13
aF0.385
aI0
aI0
aF0.0
aI1
aI4
aF0.25
aI2
aI3
aI5
aI0
aI0
aI0
aI0
aI2
aI11
aI-11
aa(lp34
V0020500115
p35
aVNOV 16, 2005
p36
aVCHI @ POR
p37
aVL
p38
aI29
aI3
aI12
aF0.25
aI0
aI1
aF0.0
aI2
aI2
aF1.0
aI2
aI3
aI5
aI4
aI2
aI1
aI0
aI2
aI8
aI-7
aa(lp39
V0020500131
p40
aVNOV 18, 2005
p41
aVCHI @ SEA
p42
aVL
p43
aI20
aI6
aI10
aF0.6
aI2
aI2
aF1.0
aI2
aI2
aF1.0
aI1
aI3
aI4
aI0
aI0
aI0
aI0
aI0
aI16
aI-5
aa(lp44
V0020500145
p45
aVNOV 20, 2005
p46
aVCHI @ LAL
p47
aVW
p48
aI33
aI5
aI10
aF0.5
aI0
aI1
aF0.0
aI4
aI5
aF0.8
aI0
aI6
aI6
aI2
aI1
aI0
aI3
aI1
aI14
aI0
aa(lp49
V0020500176
p50
aVNOV 25, 2005
p51
aVCHI @ SAS
p52
aVW
p53
aI33
aI7
aI15
aF0.467
aI0
aI0
aF0.0
aI3
aI3
aF1.0
aI2
aI5
aI7
aI1
aI0
aI1
aI1
aI2
aI17
aI15
aa(lp54
V0020500186
p55
aVNOV 26, 2005
p56
aVCHI @ HOU
p57
aVW
p58
aI22
aI2
aI5
aF0.4
aI0
aI0
aF0.0
aI2
aI2
aF1.0
aI0
aI4
aI4
aI1
aI1
aI2
aI1
aI2
aI6
aI-4
aa(lp59
V0020500201
p60
aVNOV 29, 2005
p61
aVCHI vs. ORL
p62
aVW
p63
aI33
aI9
aI19
aF0.474
aI1
aI3
aF0.333
aI2
aI2
aF1.0
aI1
aI4
aI5
aI0
aI1
aI0
aI1
aI1
aI21
aI0
aa(lp64
V0020500212
p65
aVNOV 30, 2005
p66
aVCHI @ NYK
p67
aVL
p68
aI17
aI2
aI6
aF0.333
aI0
aI1
aF0.0
aI0
aI0
aF0.0
aI1
aI2
aI3
aI0
aI0
aI2
aI1
aI2
aI4
aI-2
aa(lp69
V0020500221
p70
aVDEC 02, 2005
p71
aVCHI @ BOS
p72
aVW
p73
aI33
aI9
aI16
aF0.563
aI2
aI3
aF0.667
aI8
aI8
aF1.0
aI3
aI6
aI9
aI1
aI0
aI0
aI2
aI1
aI28
aI20
aa(lp74
V0020500232
p75
aVDEC 03, 2005
p76
aVCHI vs. DET
p77
aVL
p78
aI33
aI8
aI15
aF0.533
aI0
aI0
aF0.0
aI2
aI2
aF1.0
aI2
aI7
aI9
aI1
aI2
aI1
aI1
aI1
aI18
aI-2
aa(lp79
V0020500246
p80
aVDEC 05, 2005
p81
aVCHI vs. DAL
p82
aVL
p83
aI38
aI10
aI15
aF0.667
aI1
aI2
aF0.5
aI4
aI6
aF0.667
aI2
aI3
aI5
aI0
aI3
aI0
aI0
aI2
aI25
aI-5
aa(lp84
V0020500260
p85
aVDEC 07, 2005
p86
aVCHI @ ORL
p87
aVW
p88
aI37
aI8
aI16
aF0.5
aI1
aI2
aF0.5
aI5
aI6
aF0.833
aI1
aI9
aI10
aI3
aI2
aI0
aI2
aI0
aI22
aI19
aa(lp89
V0020500274
p90
aVDEC 09, 2005
p91
aVCHI vs. LAL
p92
aVL
p93
aI32
aI5
aI14
aF0.357
aI1
aI4
aF0.25
aI3
aI4
aF0.75
aI2
aI4
aI6
aI1
aI0
aI0
aI0
aI1
aI14
aI-15
aa(lp94
V0020500280
p95
aVDEC 10, 2005
p96
aVCHI @ WAS
p97
aVW
p98
aI41
aI10
aI17
aF0.588
aI0
aI0
aF0.0
aI1
aI2
aF0.5
aI3
aI9
aI12
aI2
aI2
aI1
aI4
aI2
aI21
aI9
aa(lp99
V0020500304
p100
aVDEC 13, 2005
p101
aVCHI vs. MIA
p102
aVL
p103
aI22
aI3
aI10
aF0.3
aI0
aI2
aF0.0
aI2
aI4
aF0.5
aI2
aI3
aI5
aI3
aI0
aI0
aI0
aI1
aI8
aI-8
aa(lp104
V0020500307
p105
aVDEC 14, 2005
p106
aVCHI @ TOR
p107
aVW
p108
aI39
aI6
aI9
aF0.667
aI0
aI0
aF0.0
aI1
aI2
aF0.5
aI1
aI8
aI9
aI1
aI2
aI1
aI1
aI3
aI13
aI16
aa(lp109
V0020500328
p110
aVDEC 16, 2005
p111
aVCHI @ DET
p112
aVL
p113
aI21
aI5
aI9
aF0.556
aI0
aI0
aF0.0
aI1
aI1
aF1.0
aI1
aI3
aI4
aI3
aI2
aI0
aI1
aI0
aI11
aI-12
aa(lp114
V0020500338
p115
aVDEC 17, 2005
p116
aVCHI vs. BOS
p117
aVW
p118
aI19
aI3
aI4
aF0.75
aI0
aI0
aF0.0
aI2
aI2
aF1.0
aI1
aI1
aI2
aI5
aI1
aI0
aI2
aI1
aI8
aI9
aa(lp119
V0020500369
p120
aVDEC 22, 2005
p121
aVCHI vs. CLE
p122
aVL
p123
aI26
aI7
aI13
aF0.538
aI1
aI2
aF0.5
aI1
aI2
aF0.5
aI0
aI5
aI5
aI2
aI0
aI3
aI2
aI3
aI16
aI4
aa(lp124
V0020500378
p125
aVDEC 23, 2005
p126
aVCHI @ MEM
p127
aVL
p128
aI35
aI4
aI15
aF0.267
aI0
aI1
aF0.0
aI2
aI2
aF1.0
aI1
aI2
aI3
aI1
aI2
aI0
aI2
aI0
aI10
aI-6
aa(lp129
V0020500389
p130
aVDEC 26, 2005
p131
aVCHI @ CLE
p132
aVL
p133
aI39
aI2
aI12
aF0.167
aI0
aI3
aF0.0
aI0
aI0
aF0.0
aI2
aI3
aI5
aI4
aI0
aI0
aI0
aI1
aI4
aI-8
aa(lp134
V0020500408
p135
aVDEC 28, 2005
p136
aVCHI @ CHA
p137
aVL
p138
aI41
aI9
aI14
aF0.643
aI0
aI0
aF0.0
aI0
aI3
aF0.0
aI2
aI4
aI6
aI1
aI1
aI0
aI4
aI4
aI18
aI-1
aa(lp139
V0020500427
p140
aVDEC 31, 2005
p141
aVCHI vs. PHX
p142
aVL
p143
aI43
aI7
aI15
aF0.467
aI0
aI1
aF0.0
aI2
aI3
aF0.667
aI4
aI10
aI14
aI2
aI1
aI0
aI1
aI2
aI16
aI-7
aa(lp144
V0020500439
p145
aVJAN 02, 2006
p146
aVCHI vs. MIL
p147
aVL
p148
aI32
aI6
aI8
aF0.75
aI1
aI1
aF1.0
aI3
aI4
aF0.75
aI1
aI9
aI10
aI2
aI0
aI1
aI5
aI2
aI16
aI2
aa(lp149
V0020500453
p150
aVJAN 04, 2006
p151
aVCHI vs. SEA
p152
aVL
p153
aI20
aI3
aI7
aF0.429
aI0
aI1
aF0.0
aI0
aI0
aF0.0
aI1
aI2
aI3
aI2
aI2
aI0
aI0
aI0
aI6
aI0
aa(lp154
V0020500467
p155
aVJAN 06, 2006
p156
aVCHI @ MIL
p157
aVW
p158
aI35
aI3
aI6
aF0.5
aI0
aI0
aF0.0
aI7
aI7
aF1.0
aI0
aI6
aI6
aI1
aI0
aI1
aI0
aI0
aI13
aI8
aa(lp159
V0020500477
p160
aVJAN 07, 2006
p161
aVCHI vs. MEM
p162
aVW
p163
aI34
aI3
aI7
aF0.429
aI0
aI0
aF0.0
aI0
aI0
aF0.0
aI1
aI5
aI6
aI6
aI1
aI2
aI1
aI0
aI6
aI31
aa(lp164
V0020500489
p165
aVJAN 09, 2006
p166
aVCHI vs. TOR
p167
aVW
p168
aI37
aI6
aI9
aF0.667
aI2
aI3
aF0.667
aI7
aI8
aF0.875
aI1
aI4
aI5
aI1
aI0
aI1
aI0
aI1
aI21
aI4
aa(lp169
V0020500505
p170
aVJAN 11, 2006
p171
aVCHI @ MIN
p172
aVL
p173
aI37
aI3
aI7
aF0.429
aI0
aI0
aF0.0
aI1
aI2
aF0.5
aI2
aI5
aI7
aI2
aI0
aI2
aI2
aI2
aI7
aI-6
aa(lp174
V0020500524
p175
aVJAN 14, 2006
p176
aVCHI vs. IND
p177
aVL
p178
aI28
aI6
aI11
aF0.545
aI0
aI0
aF0.0
aI0
aI0
aF0.0
aI2
aI5
aI7
aI1
aI2
aI0
aI3
aI2
aI12
aI4
aa(lp179
V0020500540
p180
aVJAN 16, 2006
p181
aVCHI vs. DEN
p182
aVL
p183
aI35
aI4
aI13
aF0.308
aI0
aI0
aF0.0
aI0
aI0
aF0.0
aI3
aI7
aI10
aI6
aI0
aI1
aI1
aI3
aI8
aI-1
aa(lp184
V0020500556
p185
aVJAN 18, 2006
p186
aVCHI vs. NYK
p187
aVW
p188
aI37
aI4
aI10
aF0.4
aI1
aI3
aF0.333
aI3
aI6
aF0.5
aI3
aI1
aI4
aI3
aI1
aI1
aI2
aI0
aI12
aI1
aa(lp189
V0020500571
p190
aVJAN 20, 2006
p191
aVCHI vs. HOU
p192
aVL
p193
aI46
aI9
aI17
aF0.529
aI1
aI1
aF1.0
aI0
aI0
aF0.0
aI2
aI4
aI6
aI3
aI1
aI0
aI0
aI1
aI19
aI-3
aa(lp194
V0020500580
p195
aVJAN 21, 2006
p196
aVCHI @ IND
p197
aVW
p198
aI11
aI0
aI5
aF0.0
aI0
aI0
aF0.0
aI4
aI4
aF1.0
aI0
aI2
aI2
aI0
aI1
aI0
aI1
aI2
aI4
aI-8
aa(lp199
V0020500604
p200
aVJAN 25, 2006
p201
aVCHI @ TOR
p202
aVW
p203
aI27
aI5
aI10
aF0.5
aI0
aI0
aF0.0
aI1
aI3
aF0.333
aI0
aI7
aI7
aI2
aI0
aI1
aI1
aI2
aI11
aI6
aa(lp204
V0020500626
p205
aVJAN 27, 2006
p206
aVCHI vs. WAS
p207
aVW
p208
aI36
aI6
aI13
aF0.462
aI0
aI1
aF0.0
aI3
aI5
aF0.6
aI1
aI3
aI4
aI0
aI1
aI1
aI0
aI3
aI15
aI8
aa(lp209
V0020500635
p210
aVJAN 28, 2006
p211
aVCHI vs. ATL
p212
aVW
p213
aI40
aI9
aI14
aF0.643
aI0
aI1
aF0.0
aI0
aI0
aF0.0
aI2
aI3
aI5
aI0
aI2
aI2
aI3
aI3
aI18
aI19
aa(lp214
V0020500659
p215
aVJAN 31, 2006
p216
aVCHI @ DAL
p217
aVL
p218
aI27
aI1
aI8
aF0.125
aI0
aI0
aF0.0
aI0
aI0
aF0.0
aI2
aI5
aI7
aI0
aI2
aI0
aI2
aI4
aI2
aI7
aa(lp219
V0020500669
p220
aVFEB 01, 2006
p221
aVCHI @ NOK
p222
aVL
p223
aI35
aI6
aI14
aF0.429
aI0
aI0
aF0.0
aI6
aI6
aF1.0
aI0
aI4
aI4
aI2
aI0
aI2
aI2
aI3
aI18
aI-7
aa(lp224
V0020500693
p225
aVFEB 04, 2006
p226
aVCHI @ PHX
p227
aVL
p228
aI33
aI6
aI14
aF0.429
aI1
aI1
aF1.0
aI4
aI6
aF0.667
aI1
aI2
aI3
aI1
aI1
aI0
aI1
aI0
aI17
aI-11
aa(lp229
V0020500703
p230
aVFEB 06, 2006
p231
aVCHI @ UTA
p232
aVL
p233
aI31
aI3
aI9
aF0.333
aI0
aI2
aF0.0
aI0
aI0
aF0.0
aI0
aI4
aI4
aI6
aI0
aI0
aI1
aI3
aI6
aI2
aa(lp234
V0020500722
p235
aVFEB 08, 2006
p236
aVCHI @ DEN
p237
aVW
p238
aI24
aI7
aI14
aF0.5
aI1
aI1
aF1.0
aI1
aI2
aF0.5
aI4
aI3
aI7
aI2
aI2
aI0
aI1
aI3
aI16
aI2
aa(lp239
V0020500724
p240
aVFEB 09, 2006
p241
aVCHI @ SAC
p242
aVL
p243
aI22
aI2
aI7
aF0.286
aI0
aI2
aF0.0
aI0
aI0
aF0.0
aI1
aI2
aI3
aI1
aI0
aI1
aI0
aI1
aI4
aI-26
aa(lp244
V0020500751
p245
aVFEB 12, 2006
p246
aVCHI @ LAC
p247
aVW
p248
aI36
aI6
aI10
aF0.6
aI0
aI0
aF0.0
aI2
aI2
aF1.0
aI1
aI8
aI9
aI5
aI1
aI0
aI2
aI0
aI14
aI13
aa(lp249
V0020500762
p250
aVFEB 14, 2006
p251
aVCHI vs. SAC
p252
aVL
p253
aI40
aI7
aI15
aF0.467
aI0
aI3
aF0.0
aI3
aI5
aF0.6
aI0
aI8
aI8
aI1
aI1
aI0
aI1
aI4
aI17
aI0
aa(lp254
V0020500777
p255
aVFEB 16, 2006
p256
aVCHI vs. PHI
p257
aVW
p258
aI21
aI6
aI7
aF0.857
aI0
aI0
aF0.0
aI0
aI0
aF0.0
aI1
aI1
aI2
aI0
aI1
aI1
aI1
aI1
aI12
aI22
aa(lp259
V0020500796
p260
aVFEB 22, 2006
p261
aVCHI vs. MIL
p262
aVW
p263
aI36
aI5
aI14
aF0.357
aI0
aI1
aF0.0
aI2
aI4
aF0.5
aI1
aI8
aI9
aI4
aI0
aI0
aI1
aI0
aI12
aI-1
aa(lp264
V0020500809
p265
aVFEB 24, 2006
p266
aVCHI vs. DET
p267
aVL
p268
aI34
aI1
aI9
aF0.111
aI0
aI0
aF0.0
aI4
aI6
aF0.667
aI2
aI3
aI5
aI1
aI0
aI2
aI0
aI1
aI6
aI4
aa(lp269
V0020500815
p270
aVFEB 25, 2006
p271
aVCHI @ PHI
p272
aVL
p273
aI35
aI6
aI14
aF0.429
aI0
aI1
aF0.0
aI3
aI4
aF0.75
aI2
aI4
aI6
aI2
aI1
aI0
aI1
aI6
aI15
aI0
aa(lp274
V0020500839
p275
aVFEB 28, 2006
p276
aVCHI vs. MIN
p277
aVW
p278
aI44
aI8
aI18
aF0.444
aI0
aI1
aF0.0
aI8
aI10
aF0.8
aI3
aI7
aI10
aI1
aI2
aI4
aI0
aI1
aI24
aI9
aa(lp279
V0020500855
p280
aVMAR 02, 2006
p281
aVCHI vs. CLE
p282
aVL
p283
aI41
aI6
aI13
aF0.462
aI1
aI1
aF1.0
aI5
aI5
aF1.0
aI3
aI7
aI10
aI1
aI1
aI0
aI0
aI2
aI18
aI4
aa(lp284
V0020500860
p285
aVMAR 03, 2006
p286
aVCHI @ NYK
p287
aVW
p288
aI40
aI4
aI16
aF0.25
aI1
aI3
aF0.333
aI8
aI8
aF1.0
aI6
aI9
aI15
aI2
aI2
aI1
aI2
aI1
aI17
aI2
aa(lp289
V0020500879
p290
aVMAR 05, 2006
p291
aVCHI @ CLE
p292
aVL
p293
aI42
aI7
aI12
aF0.583
aI0
aI0
aF0.0
aI1
aI4
aF0.25
aI2
aI10
aI12
aI1
aI0
aI1
aI5
aI0
aI15
aI-28
aa(lp294
V0020500894
p295
aVMAR 07, 2006
p296
aVCHI vs. NJN
p297
aVW
p298
aI41
aI9
aI13
aF0.692
aI0
aI0
aF0.0
aI4
aI6
aF0.667
aI1
aI7
aI8
aI3
aI0
aI0
aI0
aI2
aI22
aI18
aa(lp299
V0020500901
p300
aVMAR 08, 2006
p301
aVCHI @ DET
p302
aVL
p303
aI35
aI4
aI9
aF0.444
aI0
aI0
aF0.0
aI1
aI2
aF0.5
aI0
aI6
aI6
aI2
aI1
aI0
aI2
aI2
aI9
aI-4
aa(lp304
V0020500915
p305
aVMAR 10, 2006
p306
aVCHI vs. LAC
p307
aVL
p308
aI39
aI4
aI11
aF0.364
aI0
aI2
aF0.0
aI9
aI10
aF0.9
aI6
aI12
aI18
aI2
aI0
aI2
aI2
aI2
aI17
aI-12
aa(lp309
V0020500920
p310
aVMAR 11, 2006
p311
aVCHI @ ATL
p312
aVW
p313
aI42
aI9
aI16
aF0.563
aI0
aI2
aF0.0
aI3
aI4
aF0.75
aI2
aI5
aI7
aI2
aI2
aI0
aI0
aI2
aI21
aI7
aa(lp314
V0020500945
p315
aVMAR 14, 2006
p316
aVCHI vs. POR
p317
aVW
p318
aI26
aI3
aI8
aF0.375
aI0
aI0
aF0.0
aI3
aI4
aF0.75
aI0
aI7
aI7
aI4
aI1
aI0
aI4
aI2
aI9
aI20
aa(lp319
V0020500956
p320
aVMAR 15, 2006
p321
aVCHI @ MIL
p322
aVL
p323
aI31
aI5
aI13
aF0.385
aI0
aI3
aF0.0
aI5
aI6
aF0.833
aI3
aI3
aI6
aI0
aI1
aI0
aI0
aI1
aI15
aI-13
aa(lp324
V0020500974
p325
aVMAR 18, 2006
p326
aVCHI vs. MIA
p327
aVL
p328
aI42
aI8
aI15
aF0.533
aI0
aI1
aF0.0
aI3
aI5
aF0.6
aI2
aI8
aI10
aI2
aI2
aI2
aI2
aI1
aI19
aI-7
aa(lp329
V0020500980
p330
aVMAR 19, 2006
p331
aVCHI @ WAS
p332
aVL
p333
aI37
aI8
aI19
aF0.421
aI0
aI0
aF0.0
aI2
aI4
aF0.5
aI3
aI5
aI8
aI0
aI1
aI0
aI4
aI2
aI18
aI-9
aa(lp334
V0020501005
p335
aVMAR 22, 2006
p336
aVCHI @ IND
p337
aVL
p338
aI35
aI4
aI14
aF0.286
aI0
aI0
aF0.0
aI1
aI3
aF0.333
aI1
aI4
aI5
aI3
aI0
aI0
aI0
aI2
aI9
aI-11
aa(lp339
V0020501023
p340
aVMAR 24, 2006
p341
aVCHI vs. NOK
p342
aVW
p343
aI42
aI6
aI15
aF0.4
aI1
aI2
aF0.5
aI4
aI6
aF0.667
aI0
aI7
aI7
aI2
aI1
aI1
aI1
aI2
aI17
aI7
aa(lp344
V0020501031
p345
aVMAR 26, 2006
p346
aVCHI @ BOS
p347
aVW
p348
aI44
aI9
aI17
aF0.529
aI0
aI1
aF0.0
aI2
aI2
aF1.0
aI0
aI8
aI8
aI1
aI3
aI0
aI0
aI1
aI20
aI6
aa(lp349
V0020501051
p350
aVMAR 28, 2006
p351
aVCHI vs. ORL
p352
aVL
p353
aI38
aI6
aI17
aF0.353
aI0
aI2
aF0.0
aI2
aI6
aF0.333
aI3
aI3
aI6
aI3
aI1
aI0
aI1
aI3
aI14
aI-8
aa(lp354
V0020501071
p355
aVMAR 31, 2006
p356
aVCHI @ CHA
p357
aVW
p358
aI41
aI8
aI16
aF0.5
aI0
aI0
aF0.0
aI5
aI7
aF0.714
aI3
aI4
aI7
aI5
aI1
aI0
aI2
aI1
aI21
aI2
aa(lp359
V0020501080
p360
aVAPR 01, 2006
p361
aVCHI vs. BOS
p362
aVW
p363
aI38
aI4
aI10
aF0.4
aI0
aI2
aF0.0
aI6
aI6
aF1.0
aI0
aI6
aI6
aI4
aI2
aI1
aI3
aI2
aI14
aI9
aa(lp364
V0020501103
p365
aVAPR 04, 2006
p366
aVCHI vs. IND
p367
aVW
p368
aI30
aI4
aI8
aF0.5
aI0
aI0
aF0.0
aI2
aI2
aF1.0
aI1
aI2
aI3
aI2
aI0
aI2
aI3
aI2
aI10
aI5
aa(lp369
V0020501109
p370
aVAPR 05, 2006
p371
aVCHI @ PHI
p372
aVW
p373
aI40
aI7
aI16
aF0.438
aI0
aI1
aF0.0
aI0
aI0
aF0.0
aI2
aI5
aI7
aI0
aI1
aI0
aI3
aI0
aI14
aI10
aa(lp374
V0020501184
p375
aVAPR 14, 2006
p376
aVCHI vs. WAS
p377
aVW
p378
aI35
aI7
aI16
aF0.438
aI0
aI1
aF0.0
aI2
aI2
aF1.0
aI4
aI4
aI8
aI3
aI1
aI3
aI0
aI3
aI16
aI3
aa(lp379
V0020501194
p380
aVAPR 16, 2006
p381
aVCHI @ MIA
p382
aVW
p383
aI35
aI12
aI17
aF0.706
aI0
aI0
aF0.0
aI2
aI5
aF0.4
aI1
aI5
aI6
aI1
aI1
aI0
aI1
aI0
aI26
aI23
aa(lp384
V0020501204
p385
aVAPR 17, 2006
p386
aVCHI @ ORL
p387
aVW
p388
aI41
aI10
aI17
aF0.588
aI0
aI2
aF0.0
aI2
aI2
aF1.0
aI2
aI9
aI11
aI3
aI3
aI0
aI1
aI4
aI22
aI7
aa(lp389
V0020501225
p390
aVAPR 19, 2006
p391
aVCHI vs. TOR
p392
aVW
p393
aI32
aI9
aI17
aF0.529
aI0
aI0
aF0.0
aI3
aI4
aF0.75
aI2
aI5
aI7
aI2
aI1
aI0
aI2
aI1
aI21
aI0
aasS'name'
p394
VLuol Deng
p395
sS'experience'
p396
I1
s.