(dp0
S'age'
p1
I20
sS'stats'
p2
(lp3
(lp4
V0020500257
p5
aVDEC 06, 2005
p6
aVSEA vs. NYK
p7
aVL
p8
aI10
aI0
aI2
aF0.0
aI0
aI0
aF0.0
aI0
aI0
aF0.0
aI1
aI1
aI2
aI0
aI0
aI0
aI0
aI2
aI0
aI-3
aa(lp9
V0020500331
p10
aVDEC 16, 2005
p11
aVSEA @ POR
p12
aVW
p13
aI4
aI0
aI0
aF0.0
aI0
aI0
aF0.0
aI0
aI0
aF0.0
aI0
aI0
aI0
aI0
aI0
aI0
aI0
aI0
aI0
aI-11
aa(lp14
V0020500410
p15
aVDEC 28, 2005
p16
aVSEA @ MIN
p17
aVL
p18
aI3
aI0
aI2
aF0.0
aI0
aI0
aF0.0
aI1
aI2
aF0.5
aI2
aI0
aI2
aI0
aI0
aI0
aI0
aI1
aI1
aI2
aa(lp19
V0020500453
p20
aVJAN 04, 2006
p21
aVSEA @ CHI
p22
aVW
p23
aI7
aI1
aI2
aF0.5
aI0
aI0
aF0.0
aI0
aI0
aF0.0
aI0
aI0
aI0
aI0
aI0
aI1
aI0
aI5
aI2
aI11
aa(lp24
V0020500482
p25
aVJAN 08, 2006
p26
aVSEA @ NYK
p27
aVL
p28
aI10
aI2
aI2
aF1.0
aI0
aI0
aF0.0
aI0
aI2
aF0.0
aI1
aI1
aI2
aI0
aI1
aI0
aI0
aI3
aI4
aI8
aa(lp29
V0020500486
p30
aVJAN 09, 2006
p31
aVSEA @ PHI
p32
aVL
p33
aI13
aI3
aI6
aF0.5
aI0
aI0
aF0.0
aI0
aI0
aF0.0
aI3
aI1
aI4
aI0
aI0
aI1
aI1
aI2
aI6
aI-13
aa(lp34
V0020500508
p35
aVJAN 11, 2006
p36
aVSEA vs. ORL
p37
aVW
p38
aI18
aI1
aI3
aF0.333
aI0
aI0
aF0.0
aI2
aI4
aF0.5
aI2
aI1
aI3
aI0
aI0
aI1
aI2
aI6
aI4
aI-11
aa(lp39
V0020500521
p40
aVJAN 13, 2006
p41
aVSEA vs. MIA
p42
aVL
p43
aI22
aI4
aI8
aF0.5
aI0
aI0
aF0.0
aI0
aI0
aF0.0
aI5
aI3
aI8
aI0
aI0
aI1
aI0
aI2
aI8
aI0
aa(lp44
V0020500531
p45
aVJAN 14, 2006
p46
aVSEA @ LAC
p47
aVL
p48
aI21
aI3
aI8
aF0.375
aI0
aI0
aF0.0
aI0
aI2
aF0.0
aI0
aI2
aI2
aI0
aI1
aI0
aI2
aI3
aI6
aI-10
aa(lp49
V0020500544
p50
aVJAN 16, 2006
p51
aVSEA @ GSW
p52
aVL
p53
aI22
aI6
aI10
aF0.6
aI0
aI0
aF0.0
aI0
aI1
aF0.0
aI4
aI3
aI7
aI1
aI0
aI2
aI0
aI0
aI12
aI-7
aa(lp54
V0020500576
p55
aVJAN 20, 2006
p56
aVSEA vs. TOR
p57
aVL
p58
aI9
aI2
aI4
aF0.5
aI0
aI0
aF0.0
aI0
aI1
aF0.0
aI1
aI1
aI2
aI0
aI0
aI1
aI0
aI2
aI4
aI-3
aa(lp59
V0020500589
p60
aVJAN 22, 2006
p61
aVSEA @ PHX
p62
aVW
p63
aI38
aI5
aI9
aF0.556
aI0
aI0
aF0.0
aI5
aI8
aF0.625
aI1
aI6
aI7
aI1
aI0
aI1
aI2
aI6
aI15
aI-13
aa(lp64
V0020500612
p65
aVJAN 25, 2006
p66
aVSEA @ UTA
p67
aVW
p68
aI26
aI3
aI7
aF0.429
aI0
aI0
aF0.0
aI0
aI0
aF0.0
aI5
aI7
aI12
aI0
aI0
aI2
aI0
aI4
aI6
aI17
aa(lp69
V0020500618
p70
aVJAN 26, 2006
p71
aVSEA vs. DAL
p72
aVL
p73
aI24
aI3
aI7
aF0.429
aI0
aI0
aF0.0
aI0
aI1
aF0.0
aI3
aI3
aI6
aI1
aI0
aI1
aI1
aI0
aI6
aI-12
aa(lp74
V0020500638
p75
aVJAN 28, 2006
p76
aVSEA vs. NJN
p77
aVW
p78
aI28
aI6
aI8
aF0.75
aI0
aI0
aF0.0
aI2
aI3
aF0.667
aI4
aI8
aI12
aI0
aI2
aI2
aI3
aI5
aI14
aI-7
aa(lp79
V0020500654
p80
aVJAN 30, 2006
p81
aVSEA vs. POR
p82
aVL
p83
aI28
aI4
aI9
aF0.444
aI0
aI0
aF0.0
aI1
aI1
aF1.0
aI3
aI4
aI7
aI0
aI0
aI1
aI0
aI3
aI9
aI-1
aa(lp84
V0020500673
p85
aVFEB 01, 2006
p86
aVSEA vs. GSW
p87
aVW
p88
aI27
aI4
aI7
aF0.571
aI0
aI0
aF0.0
aI2
aI4
aF0.5
aI2
aI7
aI9
aI0
aI0
aI1
aI0
aI5
aI10
aI-2
aa(lp89
V0020500681
p90
aVFEB 03, 2006
p91
aVSEA @ HOU
p92
aVL
p93
aI34
aI3
aI3
aF1.0
aI0
aI0
aF0.0
aI0
aI2
aF0.0
aI1
aI6
aI7
aI1
aI1
aI3
aI4
aI4
aI6
aI-6
aa(lp94
V0020500691
p95
aVFEB 04, 2006
p96
aVSEA @ DAL
p97
aVL
p98
aI38
aI5
aI7
aF0.714
aI0
aI0
aF0.0
aI2
aI2
aF1.0
aI5
aI4
aI9
aI1
aI1
aI3
aI0
aI2
aI12
aI-18
aa(lp99
V0020500701
p100
aVFEB 06, 2006
p101
aVSEA @ CHA
p102
aVL
p103
aI10
aI0
aI2
aF0.0
aI0
aI0
aF0.0
aI0
aI0
aF0.0
aI2
aI2
aI4
aI0
aI0
aI0
aI1
aI3
aI0
aI-15
aa(lp104
V0020500718
p105
aVFEB 08, 2006
p106
aVSEA @ NOK
p107
aVL
p108
aI23
aI4
aI5
aF0.8
aI0
aI0
aF0.0
aI0
aI2
aF0.0
aI2
aI3
aI5
aI1
aI0
aI1
aI0
aI6
aI8
aI1
aa(lp109
V0020500736
p110
aVFEB 10, 2006
p111
aVSEA vs. ATL
p112
aVW
p113
aI31
aI1
aI4
aF0.25
aI0
aI0
aF0.0
aI4
aI4
aF1.0
aI3
aI10
aI13
aI0
aI1
aI3
aI2
aI1
aI6
aI22
aa(lp114
V0020500750
p115
aVFEB 12, 2006
p116
aVSEA vs. DEN
p117
aVL
p118
aI33
aI3
aI5
aF0.6
aI0
aI0
aF0.0
aI2
aI2
aF1.0
aI1
aI5
aI6
aI0
aI0
aI3
aI1
aI2
aI8
aI-12
aa(lp119
V0020500761
p120
aVFEB 14, 2006
p121
aVSEA @ MIL
p122
aVL
p123
aI25
aI3
aI6
aF0.5
aI0
aI0
aF0.0
aI0
aI0
aF0.0
aI2
aI6
aI8
aI0
aI0
aI3
aI1
aI5
aI6
aI4
aa(lp124
V0020500772
p125
aVFEB 15, 2006
p126
aVSEA @ MIN
p127
aVL
p128
aI34
aI5
aI9
aF0.556
aI0
aI0
aF0.0
aI4
aI5
aF0.8
aI1
aI6
aI7
aI0
aI0
aI3
aI4
aI4
aI14
aI1
aa(lp129
V0020500840
p130
aVFEB 28, 2006
p131
aVSEA vs. NOK
p132
aVW
p133
aI16
aI1
aI3
aF0.333
aI0
aI0
aF0.0
aI2
aI3
aF0.667
aI1
aI5
aI6
aI1
aI0
aI3
aI2
aI3
aI4
aI-12
aa(lp134
V0020500866
p135
aVMAR 03, 2006
p136
aVSEA vs. DET
p137
aVL
p138
aI25
aI2
aI8
aF0.25
aI0
aI0
aF0.0
aI0
aI0
aF0.0
aI3
aI6
aI9
aI0
aI0
aI1
aI1
aI3
aI4
aI-7
aa(lp139
V0020500882
p140
aVMAR 05, 2006
p141
aVSEA vs. UTA
p142
aVW
p143
aI22
aI3
aI4
aF0.75
aI0
aI0
aF0.0
aI0
aI0
aF0.0
aI2
aI5
aI7
aI0
aI2
aI2
aI2
aI3
aI6
aI11
aa(lp144
V0020500906
p145
aVMAR 08, 2006
p146
aVSEA vs. MEM
p147
aVL
p148
aI17
aI1
aI3
aF0.333
aI0
aI0
aF0.0
aI0
aI0
aF0.0
aI2
aI2
aI4
aI0
aI0
aI2
aI0
aI1
aI2
aI-11
aa(lp149
V0020500918
p150
aVMAR 10, 2006
p151
aVSEA vs. MIN
p152
aVW
p153
aI14
aI4
aI4
aF1.0
aI0
aI0
aF0.0
aI1
aI2
aF0.5
aI1
aI1
aI2
aI1
aI0
aI0
aI0
aI3
aI9
aI13
aa(lp154
V0020500930
p155
aVMAR 12, 2006
p156
aVSEA @ LAL
p157
aVW
p158
aI17
aI3
aI4
aF0.75
aI0
aI0
aF0.0
aI1
aI2
aF0.5
aI1
aI4
aI5
aI0
aI0
aI0
aI2
aI4
aI7
aI8
aa(lp159
V0020500949
p160
aVMAR 14, 2006
p161
aVSEA vs. PHX
p162
aVL
p163
aI7
aI0
aI4
aF0.0
aI0
aI0
aF0.0
aI0
aI0
aF0.0
aI2
aI1
aI3
aI0
aI0
aI0
aI0
aI0
aI0
aI-5
aa(lp164
V0020500962
p165
aVMAR 16, 2006
p166
aVSEA vs. PHI
p167
aVW
p168
aI25
aI3
aI5
aF0.6
aI0
aI0
aF0.0
aI0
aI0
aF0.0
aI0
aI6
aI6
aI0
aI1
aI1
aI1
aI4
aI6
aI7
aa(lp169
V0020501001
p170
aVMAR 21, 2006
p171
aVSEA @ SAC
p172
aVL
p173
aI24
aI6
aI7
aF0.857
aI0
aI0
aF0.0
aI1
aI2
aF0.5
aI4
aI5
aI9
aI0
aI0
aI0
aI2
aI2
aI13
aI1
aa(lp174
V0020501009
p175
aVMAR 22, 2006
p176
aVSEA vs. MIL
p177
aVW
p178
aI17
aI1
aI3
aF0.333
aI0
aI0
aF0.0
aI1
aI2
aF0.5
aI1
aI3
aI4
aI0
aI1
aI1
aI0
aI2
aI3
aI-5
aa(lp179
V0020501024
p180
aVMAR 24, 2006
p181
aVSEA @ DEN
p182
aVL
p183
aI32
aI7
aI9
aF0.778
aI0
aI0
aF0.0
aI3
aI6
aF0.5
aI5
aI6
aI11
aI0
aI0
aI4
aI3
aI3
aI17
aI-1
aa(lp184
V0020501039
p185
aVMAR 26, 2006
p186
aVSEA vs. SAS
p187
aVW
p188
aI20
aI2
aI4
aF0.5
aI0
aI0
aF0.0
aI2
aI2
aF1.0
aI2
aI3
aI5
aI0
aI0
aI1
aI1
aI5
aI6
aI2
aa(lp189
V0020501050
p190
aVMAR 28, 2006
p191
aVSEA @ MEM
p192
aVW
p193
aI17
aI0
aI5
aF0.0
aI0
aI0
aF0.0
aI0
aI2
aF0.0
aI4
aI3
aI7
aI0
aI0
aI0
aI0
aI2
aI0
aI-3
aa(lp194
V0020501061
p195
aVMAR 29, 2006
p196
aVSEA @ HOU
p197
aVL
p198
aI15
aI2
aI4
aF0.5
aI0
aI0
aF0.0
aI3
aI4
aF0.75
aI1
aI2
aI3
aI0
aI0
aI0
aI4
aI5
aI7
aI-2
aa(lp199
V0020501078
p200
aVMAR 31, 2006
p201
aVSEA vs. LAL
p202
aVL
p203
aI19
aI1
aI3
aF0.333
aI0
aI0
aF0.0
aI2
aI2
aF1.0
aI2
aI5
aI7
aI0
aI0
aI1
aI2
aI3
aI4
aI-8
aa(lp204
V0020501094
p205
aVAPR 02, 2006
p206
aVSEA vs. POR
p207
aVW
p208
aI24
aI3
aI6
aF0.5
aI0
aI0
aF0.0
aI4
aI5
aF0.8
aI0
aI6
aI6
aI0
aI0
aI0
aI2
aI3
aI10
aI7
aa(lp209
V0020501106
p210
aVAPR 04, 2006
p211
aVSEA vs. HOU
p212
aVW
p213
aI28
aI3
aI6
aF0.5
aI0
aI0
aF0.0
aI2
aI2
aF1.0
aI2
aI2
aI4
aI0
aI1
aI1
aI0
aI4
aI8
aI14
aa(lp214
V0020501129
p215
aVAPR 07, 2006
p216
aVSEA @ POR
p217
aVW
p218
aI25
aI4
aI8
aF0.5
aI0
aI0
aF0.0
aI0
aI0
aF0.0
aI1
aI3
aI4
aI0
aI2
aI1
aI0
aI4
aI8
aI-5
aa(lp219
V0020501147
p220
aVAPR 09, 2006
p221
aVSEA vs. PHX
p222
aVW
p223
aI22
aI2
aI3
aF0.667
aI0
aI0
aF0.0
aI1
aI1
aF1.0
aI1
aI5
aI6
aI0
aI0
aI0
aI1
aI3
aI5
aI-4
aa(lp224
V0020501159
p225
aVAPR 11, 2006
p226
aVSEA @ SAS
p227
aVL
p228
aI24
aI2
aI5
aF0.4
aI0
aI0
aF0.0
aI2
aI4
aF0.5
aI3
aI2
aI5
aI0
aI0
aI2
aI1
aI2
aI6
aI-10
aa(lp229
V0020501169
p230
aVAPR 12, 2006
p231
aVSEA @ NOK
p232
aVL
p233
aI20
aI3
aI5
aF0.6
aI0
aI0
aF0.0
aI2
aI4
aF0.5
aI0
aI3
aI3
aI0
aI0
aI2
aI0
aI4
aI8
aI14
aa(lp234
V0020501187
p235
aVAPR 14, 2006
p236
aVSEA vs. LAC
p237
aVL
p238
aI20
aI0
aI3
aF0.0
aI0
aI0
aF0.0
aI1
aI2
aF0.5
aI2
aI2
aI4
aI0
aI1
aI0
aI1
aI3
aI1
aI1
aasS'name'
p239
VRobert Swift
p240
sS'experience'
p241
I1
s.