(dp0
S'age'
p1
I23
sS'stats'
p2
(lp3
(lp4
V0020500159
p5
aVNOV 23, 2005
p6
aVPOR @ MIA
p7
aVL
p8
aI6
aI0
aI1
aF0.0
aI0
aI0
aF0.0
aI0
aI0
aF0.0
aI0
aI0
aI0
aI0
aI0
aI1
aI1
aI1
aI0
aI1
aa(lp9
V0020500198
p10
aVNOV 29, 2005
p11
aVPOR @ PHI
p12
aVL
p13
aI7
aI2
aI3
aF0.667
aI0
aI0
aF0.0
aI0
aI0
aF0.0
aI1
aI1
aI2
aI0
aI0
aI0
aI0
aI1
aI4
aI-2
aa(lp14
V0020500227
p15
aVDEC 02, 2005
p16
aVPOR vs. IND
p17
aVL
p18
aI12
aI1
aI1
aF1.0
aI0
aI0
aF0.0
aI1
aI2
aF0.5
aI0
aI3
aI3
aI0
aI3
aI0
aI1
aI1
aI3
aI5
aa(lp19
V0020500242
p20
aVDEC 04, 2005
p21
aVPOR vs. UTA
p22
aVL
p23
aI17
aI4
aI4
aF1.0
aI1
aI1
aF1.0
aI0
aI0
aF0.0
aI0
aI3
aI3
aI2
aI1
aI0
aI1
aI4
aI9
aI-4
aa(lp24
V0020500255
p25
aVDEC 06, 2005
p26
aVPOR @ PHX
p27
aVL
p28
aI30
aI1
aI7
aF0.143
aI0
aI1
aF0.0
aI0
aI1
aF0.0
aI1
aI3
aI4
aI2
aI3
aI0
aI3
aI3
aI2
aI-25
aa(lp29
V0020500265
p30
aVDEC 07, 2005
p31
aVPOR vs. MIN
p32
aVL
p33
aI17
aI2
aI6
aF0.333
aI0
aI0
aF0.0
aI2
aI2
aF1.0
aI1
aI0
aI1
aI1
aI1
aI0
aI1
aI4
aI6
aI4
aa(lp34
V0020500278
p35
aVDEC 09, 2005
p36
aVPOR vs. NOK
p37
aVW
p38
aI35
aI6
aI10
aF0.6
aI1
aI2
aF0.5
aI3
aI4
aF0.75
aI5
aI1
aI6
aI3
aI1
aI0
aI3
aI6
aI16
aI8
aa(lp39
V0020500294
p40
aVDEC 11, 2005
p41
aVPOR vs. HOU
p42
aVL
p43
aI30
aI2
aI6
aF0.333
aI0
aI0
aF0.0
aI2
aI2
aF1.0
aI4
aI3
aI7
aI2
aI1
aI0
aI1
aI5
aI6
aI-5
aa(lp44
V0020500317
p45
aVDEC 14, 2005
p46
aVPOR @ UTA
p47
aVL
p48
aI17
aI1
aI4
aF0.25
aI0
aI0
aF0.0
aI0
aI0
aF0.0
aI1
aI1
aI2
aI1
aI0
aI3
aI0
aI2
aI2
aI-11
aa(lp49
V0020500331
p50
aVDEC 16, 2005
p51
aVPOR vs. SEA
p52
aVL
p53
aI27
aI8
aI12
aF0.667
aI1
aI3
aF0.333
aI2
aI4
aF0.5
aI2
aI1
aI3
aI1
aI4
aI0
aI1
aI6
aI19
aI22
aa(lp54
V0020500345
p55
aVDEC 18, 2005
p56
aVPOR vs. WAS
p57
aVW
p58
aI35
aI5
aI8
aF0.625
aI1
aI1
aF1.0
aI1
aI1
aF1.0
aI4
aI4
aI8
aI2
aI3
aI0
aI2
aI3
aI12
aI4
aa(lp59
V0020500355
p60
aVDEC 20, 2005
p61
aVPOR @ DET
p62
aVL
p63
aI18
aI0
aI0
aF0.0
aI0
aI0
aF0.0
aI0
aI0
aF0.0
aI0
aI0
aI0
aI2
aI1
aI0
aI3
aI3
aI0
aI-3
aa(lp64
V0020500365
p65
aVDEC 21, 2005
p66
aVPOR @ MEM
p67
aVL
p68
aI24
aI0
aI3
aF0.0
aI0
aI1
aF0.0
aI4
aI6
aF0.667
aI3
aI3
aI6
aI3
aI0
aI1
aI2
aI6
aI4
aI3
aa(lp69
V0020500379
p70
aVDEC 23, 2005
p71
aVPOR @ MIN
p72
aVW
p73
aI29
aI3
aI5
aF0.6
aI0
aI0
aF0.0
aI0
aI0
aF0.0
aI3
aI6
aI9
aI2
aI1
aI0
aI3
aI3
aI6
aI-5
aa(lp74
V0020500394
p75
aVDEC 26, 2005
p76
aVPOR @ SAC
p77
aVW
p78
aI22
aI3
aI4
aF0.75
aI0
aI1
aF0.0
aI0
aI0
aF0.0
aI1
aI5
aI6
aI2
aI1
aI0
aI2
aI2
aI6
aI-4
aa(lp79
V0020500411
p80
aVDEC 28, 2005
p81
aVPOR vs. PHI
p82
aVW
p83
aI21
aI1
aI4
aF0.25
aI0
aI0
aF0.0
aI0
aI0
aF0.0
aI2
aI4
aI6
aI3
aI1
aI0
aI1
aI0
aI2
aI0
aa(lp84
V0020500425
p85
aVDEC 30, 2005
p86
aVPOR vs. MEM
p87
aVL
p88
aI25
aI2
aI7
aF0.286
aI0
aI2
aF0.0
aI0
aI0
aF0.0
aI0
aI7
aI7
aI2
aI1
aI1
aI1
aI4
aI4
aI3
aa(lp89
V0020500435
p90
aVJAN 01, 2006
p91
aVPOR vs. LAC
p92
aVL
p93
aI17
aI2
aI6
aF0.333
aI0
aI1
aF0.0
aI0
aI0
aF0.0
aI0
aI1
aI1
aI2
aI0
aI0
aI0
aI2
aI4
aI-3
aa(lp94
V0020500445
p95
aVJAN 03, 2006
p96
aVPOR @ DAL
p97
aVL
p98
aI18
aI1
aI3
aF0.333
aI0
aI0
aF0.0
aI1
aI2
aF0.5
aI1
aI1
aI2
aI1
aI0
aI1
aI0
aI2
aI3
aI-5
aa(lp99
V0020500465
p100
aVJAN 06, 2006
p101
aVPOR @ NOK
p102
aVL
p103
aI24
aI2
aI3
aF0.667
aI0
aI0
aF0.0
aI3
aI4
aF0.75
aI0
aI3
aI3
aI1
aI1
aI1
aI1
aI3
aI7
aI-13
aa(lp104
V0020500485
p105
aVJAN 08, 2006
p106
aVPOR vs. MIA
p107
aVL
p108
aI13
aI2
aI5
aF0.4
aI1
aI3
aF0.333
aI0
aI0
aF0.0
aI1
aI0
aI1
aI2
aI0
aI0
aI1
aI2
aI5
aI-12
aa(lp109
V0020500507
p110
aVJAN 11, 2006
p111
aVPOR vs. LAL
p112
aVW
p113
aI19
aI2
aI4
aF0.5
aI0
aI0
aF0.0
aI0
aI2
aF0.0
aI2
aI5
aI7
aI0
aI1
aI0
aI2
aI5
aI4
aI-2
aa(lp114
V0020500520
p115
aVJAN 13, 2006
p116
aVPOR vs. ORL
p117
aVW
p118
aI18
aI1
aI4
aF0.25
aI0
aI0
aF0.0
aI2
aI2
aF1.0
aI1
aI3
aI4
aI0
aI0
aI0
aI0
aI2
aI4
aI-1
aa(lp119
V0020500535
p120
aVJAN 15, 2006
p121
aVPOR vs. CLE
p122
aVW
p123
aI17
aI3
aI6
aF0.5
aI0
aI0
aF0.0
aI0
aI0
aF0.0
aI4
aI1
aI5
aI1
aI0
aI0
aI1
aI3
aI6
aI-13
aa(lp124
V0020500560
p125
aVJAN 18, 2006
p126
aVPOR vs. TOR
p127
aVW
p128
aI36
aI6
aI10
aF0.6
aI0
aI1
aF0.0
aI6
aI8
aF0.75
aI5
aI7
aI12
aI3
aI2
aI0
aI2
aI4
aI18
aI6
aa(lp129
V0020500590
p130
aVJAN 22, 2006
p131
aVPOR vs. DAL
p132
aVL
p133
aI29
aI0
aI2
aF0.0
aI0
aI0
aF0.0
aI4
aI4
aF1.0
aI5
aI5
aI10
aI0
aI0
aI2
aI0
aI6
aI4
aI8
aa(lp134
V0020500613
p135
aVJAN 25, 2006
p136
aVPOR vs. DEN
p137
aVL
p138
aI13
aI2
aI3
aF0.667
aI0
aI0
aF0.0
aI0
aI0
aF0.0
aI1
aI0
aI1
aI2
aI0
aI0
aI2
aI4
aI4
aI8
aa(lp139
V0020500630
p140
aVJAN 27, 2006
p141
aVPOR vs. NJN
p142
aVW
p143
aI28
aI2
aI6
aF0.333
aI0
aI0
aF0.0
aI3
aI6
aF0.5
aI1
aI5
aI6
aI4
aI2
aI0
aI1
aI4
aI7
aI5
aa(lp144
V0020500640
p145
aVJAN 28, 2006
p146
aVPOR @ GSW
p147
aVL
p148
aI19
aI1
aI2
aF0.5
aI0
aI0
aF0.0
aI0
aI0
aF0.0
aI3
aI4
aI7
aI1
aI0
aI1
aI1
aI5
aI2
aI-10
aa(lp149
V0020500654
p150
aVJAN 30, 2006
p151
aVPOR @ SEA
p152
aVW
p153
aI26
aI3
aI5
aF0.6
aI0
aI0
aF0.0
aI0
aI0
aF0.0
aI1
aI3
aI4
aI1
aI1
aI0
aI1
aI4
aI6
aI8
aa(lp154
V0020500672
p155
aVFEB 01, 2006
p156
aVPOR vs. SAS
p157
aVL
p158
aI19
aI1
aI3
aF0.333
aI0
aI1
aF0.0
aI0
aI0
aF0.0
aI1
aI1
aI2
aI0
aI1
aI0
aI0
aI4
aI2
aI-10
aa(lp159
V0020500683
p160
aVFEB 03, 2006
p161
aVPOR vs. MIN
p162
aVW
p163
aI19
aI0
aI2
aF0.0
aI0
aI0
aF0.0
aI0
aI0
aF0.0
aI0
aI5
aI5
aI0
aI0
aI0
aI0
aI1
aI0
aI-2
aa(lp164
V0020500692
p165
aVFEB 04, 2006
p166
aVPOR @ DEN
p167
aVL
p168
aI13
aI0
aI1
aF0.0
aI0
aI0
aF0.0
aI2
aI2
aF1.0
aI1
aI1
aI2
aI1
aI0
aI0
aI1
aI4
aI2
aI-8
aa(lp169
V0020500713
p170
aVFEB 08, 2006
p171
aVPOR @ IND
p172
aVL
p173
aI19
aI0
aI4
aF0.0
aI0
aI1
aF0.0
aI0
aI0
aF0.0
aI1
aI2
aI3
aI0
aI2
aI0
aI3
aI4
aI0
aI-28
aa(lp174
V0020500727
p175
aVFEB 10, 2006
p176
aVPOR @ BOS
p177
aVL
p178
aI17
aI2
aI3
aF0.667
aI0
aI0
aF0.0
aI2
aI2
aF1.0
aI0
aI1
aI1
aI2
aI0
aI0
aI1
aI4
aI6
aI-14
aa(lp179
V0020500742
p180
aVFEB 12, 2006
p181
aVPOR @ TOR
p182
aVL
p183
aI23
aI3
aI7
aF0.429
aI0
aI0
aF0.0
aI2
aI2
aF1.0
aI0
aI1
aI1
aI2
aI0
aI0
aI0
aI2
aI8
aI-12
aa(lp184
V0020500752
p185
aVFEB 13, 2006
p186
aVPOR @ CHA
p187
aVW
p188
aI27
aI5
aI7
aF0.714
aI0
aI0
aF0.0
aI1
aI2
aF0.5
aI1
aI0
aI1
aI0
aI0
aI1
aI0
aI3
aI11
aI12
aa(lp189
V0020500771
p190
aVFEB 15, 2006
p191
aVPOR @ NOK
p192
aVL
p193
aI20
aI1
aI3
aF0.333
aI0
aI0
aF0.0
aI4
aI4
aF1.0
aI1
aI4
aI5
aI2
aI1
aI0
aI1
aI6
aI6
aI-5
aa(lp194
V0020500790
p195
aVFEB 21, 2006
p196
aVPOR @ LAL
p197
aVL
p198
aI18
aI2
aI5
aF0.4
aI0
aI0
aF0.0
aI0
aI0
aF0.0
aI2
aI3
aI5
aI0
aI1
aI0
aI2
aI2
aI4
aI-6
aa(lp199
V0020500799
p200
aVFEB 22, 2006
p201
aVPOR vs. CHA
p202
aVL
p203
aI25
aI5
aI7
aF0.714
aI0
aI0
aF0.0
aI3
aI3
aF1.0
aI1
aI4
aI5
aI1
aI0
aI1
aI1
aI1
aI13
aI0
aa(lp204
V0020500812
p205
aVFEB 24, 2006
p206
aVPOR vs. BOS
p207
aVL
p208
aI18
aI1
aI2
aF0.5
aI0
aI0
aF0.0
aI0
aI0
aF0.0
aI3
aI1
aI4
aI1
aI1
aI1
aI0
aI3
aI2
aI-15
aa(lp209
V0020500827
p210
aVFEB 26, 2006
p211
aVPOR vs. NOK
p212
aVL
p213
aI9
aI1
aI4
aF0.25
aI0
aI0
aF0.0
aI0
aI0
aF0.0
aI0
aI2
aI2
aI0
aI0
aI1
aI0
aI4
aI2
aI-1
aa(lp214
V0020500836
p215
aVFEB 27, 2006
p216
aVPOR @ SAC
p217
aVL
p218
aI23
aI3
aI7
aF0.429
aI0
aI0
aF0.0
aI0
aI0
aF0.0
aI2
aI5
aI7
aI1
aI0
aI1
aI2
aI0
aI6
aI-19
aa(lp219
V0020500852
p220
aVMAR 01, 2006
p221
aVPOR vs. LAL
p222
aVW
p223
aI15
aI0
aI0
aF0.0
aI0
aI0
aF0.0
aI2
aI2
aF1.0
aI2
aI2
aI4
aI1
aI2
aI1
aI1
aI1
aI2
aI5
aa(lp224
V0020500871
p225
aVMAR 04, 2006
p226
aVPOR @ SAS
p227
aVL
p228
aI13
aI1
aI5
aF0.2
aI0
aI0
aF0.0
aI1
aI2
aF0.5
aI3
aI3
aI6
aI1
aI1
aI1
aI0
aI1
aI3
aI2
aa(lp229
V0020500880
p230
aVMAR 05, 2006
p231
aVPOR @ HOU
p232
aVL
p233
aI27
aI3
aI5
aF0.6
aI1
aI2
aF0.5
aI1
aI3
aF0.333
aI6
aI4
aI10
aI4
aI1
aI1
aI1
aI6
aI8
aI13
aa(lp234
V0020500895
p235
aVMAR 07, 2006
p236
aVPOR @ DAL
p237
aVL
p238
aI17
aI1
aI2
aF0.5
aI0
aI0
aF0.0
aI0
aI0
aF0.0
aI1
aI3
aI4
aI0
aI1
aI2
aI3
aI1
aI2
aI10
aa(lp239
V0020500908
p240
aVMAR 09, 2006
p241
aVPOR vs. DAL
p242
aVL
p243
aI28
aI4
aI8
aF0.5
aI0
aI0
aF0.0
aI2
aI4
aF0.5
aI3
aI3
aI6
aI2
aI1
aI0
aI1
aI5
aI10
aI-9
aa(lp244
V0020500935
p245
aVMAR 12, 2006
p246
aVPOR vs. PHX
p247
aVW
p248
aI26
aI4
aI7
aF0.571
aI2
aI2
aF1.0
aI1
aI2
aF0.5
aI2
aI4
aI6
aI2
aI0
aI2
aI1
aI2
aI11
aI4
aa(lp249
V0020500945
p250
aVMAR 14, 2006
p251
aVPOR @ CHI
p252
aVL
p253
aI23
aI0
aI4
aF0.0
aI0
aI0
aF0.0
aI0
aI0
aF0.0
aI1
aI4
aI5
aI1
aI0
aI1
aI0
aI3
aI0
aI-20
aa(lp254
V0020500954
p255
aVMAR 15, 2006
p256
aVPOR @ NJN
p257
aVL
p258
aI19
aI0
aI1
aF0.0
aI0
aI0
aF0.0
aI0
aI0
aF0.0
aI0
aI4
aI4
aI2
aI2
aI0
aI3
aI3
aI0
aI-10
aa(lp259
V0020500970
p260
aVMAR 17, 2006
p261
aVPOR @ CLE
p262
aVL
p263
aI15
aI0
aI4
aF0.0
aI0
aI0
aF0.0
aI0
aI0
aF0.0
aI3
aI2
aI5
aI2
aI1
aI0
aI1
aI1
aI0
aI-6
aa(lp264
V0020500977
p265
aVMAR 18, 2006
p266
aVPOR @ MIL
p267
aVL
p268
aI29
aI2
aI5
aF0.4
aI0
aI1
aF0.0
aI2
aI2
aF1.0
aI0
aI4
aI4
aI0
aI0
aI1
aI0
aI6
aI6
aI-9
aa(lp269
V0020500991
p270
aVMAR 20, 2006
p271
aVPOR vs. MIL
p272
aVL
p273
aI17
aI3
aI6
aF0.5
aI0
aI0
aF0.0
aI1
aI2
aF0.5
aI0
aI1
aI1
aI0
aI0
aI0
aI2
aI0
aI7
aI-14
aa(lp274
V0020501016
p275
aVMAR 23, 2006
p276
aVPOR @ PHX
p277
aVL
p278
aI35
aI8
aI10
aF0.8
aI0
aI0
aF0.0
aI6
aI7
aF0.857
aI7
aI5
aI12
aI3
aI0
aI0
aI0
aI4
aI22
aI-18
aa(lp279
V0020501025
p280
aVMAR 24, 2006
p281
aVPOR vs. SAS
p282
aVL
p283
aI22
aI1
aI2
aF0.5
aI0
aI0
aF0.0
aI0
aI0
aF0.0
aI1
aI2
aI3
aI1
aI0
aI0
aI1
aI2
aI2
aI-18
aa(lp284
V0020501041
p285
aVMAR 26, 2006
p286
aVPOR vs. LAC
p287
aVL
p288
aI26
aI1
aI8
aF0.125
aI0
aI0
aF0.0
aI0
aI0
aF0.0
aI3
aI3
aI6
aI0
aI1
aI0
aI6
aI5
aI2
aI-3
aa(lp289
V0020501063
p290
aVMAR 29, 2006
p291
aVPOR vs. SAC
p292
aVL
p293
aI34
aI8
aI16
aF0.5
aI1
aI3
aF0.333
aI1
aI1
aF1.0
aI1
aI4
aI5
aI3
aI0
aI1
aI1
aI5
aI18
aI1
aa(lp294
V0020501083
p295
aVAPR 01, 2006
p296
aVPOR vs. UTA
p297
aVL
p298
aI20
aI3
aI3
aF1.0
aI0
aI0
aF0.0
aI0
aI0
aF0.0
aI0
aI0
aI0
aI1
aI0
aI0
aI1
aI5
aI6
aI-4
aa(lp299
V0020501094
p300
aVAPR 02, 2006
p301
aVPOR @ SEA
p302
aVL
p303
aI17
aI2
aI6
aF0.333
aI0
aI0
aF0.0
aI0
aI0
aF0.0
aI1
aI1
aI2
aI0
aI0
aI0
aI0
aI3
aI4
aI-23
aa(lp304
V0020501117
p305
aVAPR 05, 2006
p306
aVPOR vs. HOU
p307
aVW
p308
aI10
aI1
aI2
aF0.5
aI0
aI0
aF0.0
aI0
aI0
aF0.0
aI1
aI2
aI3
aI0
aI1
aI0
aI1
aI2
aI2
aI1
aa(lp309
V0020501129
p310
aVAPR 07, 2006
p311
aVPOR vs. SEA
p312
aVL
p313
aI13
aI4
aI5
aF0.8
aI0
aI0
aF0.0
aI0
aI0
aF0.0
aI0
aI0
aI0
aI0
aI0
aI0
aI2
aI1
aI8
aI-12
aa(lp314
V0020501138
p315
aVAPR 08, 2006
p316
aVPOR @ UTA
p317
aVL
p318
aI4
aI0
aI1
aF0.0
aI0
aI0
aF0.0
aI3
aI4
aF0.75
aI1
aI0
aI1
aI0
aI0
aI0
aI0
aI0
aI3
aI-2
aa(lp319
V0020501154
p320
aVAPR 10, 2006
p321
aVPOR vs. DEN
p322
aVL
p323
aI26
aI2
aI4
aF0.5
aI0
aI0
aF0.0
aI0
aI0
aF0.0
aI2
aI3
aI5
aI1
aI0
aI1
aI3
aI3
aI4
aI14
aa(lp324
V0020501172
p325
aVAPR 12, 2006
p326
aVPOR @ LAC
p327
aVL
p328
aI36
aI5
aI9
aF0.556
aI0
aI0
aF0.0
aI4
aI7
aF0.571
aI3
aI3
aI6
aI4
aI1
aI0
aI1
aI2
aI14
aI-6
aa(lp329
V0020501185
p330
aVAPR 14, 2006
p331
aVPOR @ LAL
p332
aVL
p333
aI30
aI5
aI9
aF0.556
aI0
aI0
aF0.0
aI0
aI1
aF0.0
aI1
aI7
aI8
aI1
aI0
aI0
aI1
aI3
aI10
aI-15
aa(lp334
V0020501193
p335
aVAPR 15, 2006
p336
aVPOR vs. GSW
p337
aVL
p338
aI26
aI1
aI6
aF0.167
aI0
aI0
aF0.0
aI0
aI0
aF0.0
aI0
aI4
aI4
aI0
aI0
aI1
aI1
aI2
aI2
aI-15
aa(lp339
V0020501211
p340
aVAPR 17, 2006
p341
aVPOR @ GSW
p342
aVL
p343
aI30
aI4
aI8
aF0.5
aI1
aI2
aF0.5
aI0
aI0
aF0.0
aI4
aI2
aI6
aI1
aI0
aI0
aI2
aI3
aI9
aI-8
aa(lp344
V0020501228
p345
aVAPR 19, 2006
p346
aVPOR vs. PHX
p347
aVL
p348
aI33
aI3
aI7
aF0.429
aI0
aI1
aF0.0
aI5
aI9
aF0.556
aI2
aI10
aI12
aI2
aI3
aI1
aI2
aI2
aI11
aI-11
aasS'name'
p349
VViktor Khryapa
p350
sS'experience'
p351
I1
s.