(dp0
S'stats'
p1
(lp2
(lp3
V0020500007
p4
aVNOV 02, 2005
p5
aVBOS vs. NYK
p6
aVW
p7
aI40
aI5
aI9
aF0.556
aI0
aI3
aF0.0
aI4
aI6
aF0.667
aI4
aI5
aI9
aI9
aI3
aI4
aI1
aI5
aI14
aI25
aa(lp8
V0020500023
p9
aVNOV 04, 2005
p10
aVBOS vs. DET
p11
aVL
p12
aI35
aI4
aI9
aF0.444
aI0
aI1
aF0.0
aI2
aI2
aF1.0
aI1
aI5
aI6
aI3
aI2
aI2
aI2
aI4
aI10
aI2
aa(lp13
V0020500033
p14
aVNOV 05, 2005
p15
aVBOS @ CHA
p16
aVL
p17
aI21
aI3
aI6
aF0.5
aI1
aI3
aF0.333
aI2
aI2
aF1.0
aI0
aI1
aI1
aI3
aI0
aI1
aI2
aI4
aI9
aI-9
aa(lp18
V0020500059
p19
aVNOV 09, 2005
p20
aVBOS vs. MEM
p21
aVW
p22
aI36
aI2
aI5
aF0.4
aI1
aI1
aF1.0
aI3
aI4
aF0.75
aI2
aI4
aI6
aI5
aI2
aI1
aI3
aI2
aI8
aI8
aa(lp23
V0020500074
p24
aVNOV 11, 2005
p25
aVBOS vs. SAS
p26
aVL
p27
aI25
aI4
aI12
aF0.333
aI0
aI2
aF0.0
aI0
aI0
aF0.0
aI1
aI2
aI3
aI1
aI2
aI1
aI1
aI2
aI8
aI-27
aa(lp28
V0020500090
p29
aVNOV 13, 2005
p30
aVBOS vs. HOU
p31
aVW
p32
aI34
aI1
aI5
aF0.2
aI0
aI2
aF0.0
aI0
aI0
aF0.0
aI2
aI4
aI6
aI5
aI1
aI0
aI3
aI5
aI2
aI19
aa(lp33
V0020500103
p34
aVNOV 15, 2005
p35
aVBOS @ DET
p36
aVL
p37
aI31
aI2
aI8
aF0.25
aI0
aI1
aF0.0
aI0
aI0
aF0.0
aI1
aI3
aI4
aI5
aI0
aI0
aI0
aI6
aI4
aI-13
aa(lp38
V0020500110
p39
aVNOV 16, 2005
p40
aVBOS vs. SEA
p41
aVL
p42
aI34
aI4
aI10
aF0.4
aI1
aI3
aF0.333
aI0
aI0
aF0.0
aI0
aI2
aI2
aI5
aI0
aI1
aI3
aI4
aI9
aI-14
aa(lp43
V0020500122
p44
aVNOV 18, 2005
p45
aVBOS vs. TOR
p46
aVW
p47
aI36
aI6
aI10
aF0.6
aI1
aI2
aF0.5
aI0
aI0
aF0.0
aI0
aI2
aI2
aI4
aI0
aI1
aI1
aI3
aI13
aI18
aa(lp48
V0020500151
p49
aVNOV 22, 2005
p50
aVBOS @ CLE
p51
aVL
p52
aI23
aI2
aI4
aF0.5
aI1
aI2
aF0.5
aI0
aI0
aF0.0
aI0
aI1
aI1
aI3
aI0
aI1
aI2
aI3
aI5
aI-1
aa(lp53
V0020500194
p54
aVNOV 28, 2005
p55
aVBOS vs. ORL
p56
aVL
p57
aI32
aI3
aI7
aF0.429
aI1
aI4
aF0.25
aI4
aI4
aF1.0
aI1
aI4
aI5
aI5
aI1
aI1
aI3
aI4
aI11
aI-5
aa(lp58
V0020500210
p59
aVNOV 30, 2005
p60
aVBOS vs. PHI
p61
aVW
p62
aI37
aI3
aI10
aF0.3
aI1
aI2
aF0.5
aI2
aI2
aF1.0
aI1
aI5
aI6
aI7
aI0
aI2
aI3
aI5
aI9
aI5
aa(lp63
V0020500221
p64
aVDEC 02, 2005
p65
aVBOS vs. CHI
p66
aVL
p67
aI33
aI5
aI10
aF0.5
aI1
aI3
aF0.333
aI0
aI0
aF0.0
aI0
aI3
aI3
aI2
aI0
aI1
aI2
aI5
aI11
aI-5
aa(lp68
V0020500239
p69
aVDEC 04, 2005
p70
aVBOS @ NYK
p71
aVW
p72
aI34
aI7
aI13
aF0.538
aI1
aI4
aF0.25
aI2
aI2
aF1.0
aI1
aI3
aI4
aI2
aI2
aI1
aI1
aI6
aI17
aI21
aa(lp73
V0020500253
p74
aVDEC 06, 2005
p75
aVBOS @ HOU
p76
aVL
p77
aI39
aI5
aI8
aF0.625
aI2
aI3
aF0.667
aI0
aI0
aF0.0
aI1
aI1
aI2
aI1
aI3
aI1
aI3
aI1
aI12
aI-8
aa(lp78
V0020500262
p79
aVDEC 07, 2005
p80
aVBOS @ NOK
p81
aVW
p82
aI34
aI1
aI6
aF0.167
aI0
aI2
aF0.0
aI0
aI0
aF0.0
aI0
aI1
aI1
aI4
aI2
aI0
aI3
aI4
aI2
aI11
aa(lp83
V0020500275
p84
aVDEC 09, 2005
p85
aVBOS @ SAS
p86
aVL
p87
aI31
aI5
aI9
aF0.556
aI0
aI2
aF0.0
aI0
aI0
aF0.0
aI0
aI3
aI3
aI4
aI1
aI1
aI3
aI1
aI10
aI-9
aa(lp88
V0020500288
p89
aVDEC 10, 2005
p90
aVBOS @ DAL
p91
aVL
p92
aI31
aI3
aI7
aF0.429
aI0
aI2
aF0.0
aI0
aI0
aF0.0
aI0
aI1
aI1
aI5
aI1
aI0
aI1
aI5
aI6
aI-8
aa(lp93
V0020500309
p94
aVDEC 14, 2005
p95
aVBOS vs. IND
p96
aVW
p97
aI34
aI2
aI3
aF0.667
aI2
aI2
aF1.0
aI2
aI2
aF1.0
aI2
aI3
aI5
aI2
aI0
aI0
aI0
aI2
aI8
aI2
aa(lp98
V0020500326
p99
aVDEC 16, 2005
p100
aVBOS vs. MIL
p101
aVL
p102
aI29
aI5
aI8
aF0.625
aI0
aI2
aF0.0
aI2
aI2
aF1.0
aI0
aI2
aI2
aI5
aI1
aI0
aI2
aI2
aI12
aI-5
aa(lp103
V0020500338
p104
aVDEC 17, 2005
p105
aVBOS @ CHI
p106
aVL
p107
aI14
aI2
aI4
aF0.5
aI0
aI2
aF0.0
aI0
aI0
aF0.0
aI1
aI1
aI2
aI1
aI1
aI1
aI0
aI0
aI4
aI-9
aa(lp108
V0020500363
p109
aVDEC 21, 2005
p110
aVBOS vs. UTA
p111
aVW
p112
aI34
aI5
aI8
aF0.625
aI0
aI0
aF0.0
aI5
aI6
aF0.833
aI0
aI7
aI7
aI5
aI3
aI2
aI1
aI2
aI15
aI0
aa(lp113
V0020500395
p114
aVDEC 26, 2005
p115
aVBOS @ SEA
p116
aVL
p117
aI32
aI5
aI7
aF0.714
aI2
aI3
aF0.667
aI0
aI1
aF0.0
aI1
aI4
aI5
aI7
aI0
aI0
aI1
aI3
aI12
aI-8
aa(lp118
V0020500413
p119
aVDEC 28, 2005
p120
aVBOS @ GSW
p121
aVL
p122
aI37
aI8
aI11
aF0.727
aI3
aI3
aF1.0
aI0
aI0
aF0.0
aI1
aI1
aI2
aI7
aI1
aI0
aI1
aI2
aI19
aI6
aa(lp123
V0020500424
p124
aVDEC 30, 2005
p125
aVBOS @ SAC
p126
aVL
p127
aI34
aI6
aI11
aF0.545
aI2
aI4
aF0.5
aI0
aI0
aF0.0
aI0
aI5
aI5
aI2
aI0
aI0
aI2
aI4
aI14
aI1
aa(lp128
V0020500433
p129
aVDEC 31, 2005
p130
aVBOS @ LAC
p131
aVW
p132
aI27
aI5
aI8
aF0.625
aI2
aI2
aF1.0
aI0
aI0
aF0.0
aI2
aI1
aI3
aI5
aI0
aI0
aI0
aI3
aI12
aI4
aa(lp133
V0020500440
p134
aVJAN 02, 2006
p135
aVBOS @ DEN
p136
aVL
p137
aI37
aI9
aI11
aF0.818
aI2
aI4
aF0.5
aI0
aI1
aF0.0
aI0
aI4
aI4
aI6
aI1
aI1
aI1
aI3
aI20
aI8
aa(lp138
V0020500449
p139
aVJAN 04, 2006
p140
aVBOS vs. CHA
p141
aVW
p142
aI40
aI3
aI9
aF0.333
aI2
aI4
aF0.5
aI3
aI4
aF0.75
aI1
aI7
aI8
aI6
aI1
aI1
aI5
aI4
aI11
aI5
aa(lp143
V0020500460
p144
aVJAN 06, 2006
p145
aVBOS vs. ATL
p146
aVL
p147
aI38
aI8
aI12
aF0.667
aI3
aI5
aF0.6
aI4
aI4
aF1.0
aI1
aI3
aI4
aI6
aI3
aI1
aI2
aI3
aI23
aI-9
aa(lp148
V0020500472
p149
aVJAN 07, 2006
p150
aVBOS @ WAS
p151
aVL
p152
aI25
aI7
aI9
aF0.778
aI3
aI3
aF1.0
aI0
aI0
aF0.0
aI3
aI4
aI7
aI2
aI1
aI0
aI1
aI5
aI17
aI4
aa(lp153
V0020500488
p154
aVJAN 09, 2006
p155
aVBOS vs. DAL
p156
aVL
p157
aI22
aI4
aI7
aF0.571
aI0
aI0
aF0.0
aI0
aI0
aF0.0
aI0
aI2
aI2
aI3
aI0
aI0
aI2
aI5
aI8
aI0
aa(lp158
V0020500491
p159
aVJAN 10, 2006
p160
aVBOS @ ATL
p161
aVW
p162
aI38
aI5
aI8
aF0.625
aI0
aI2
aF0.0
aI5
aI7
aF0.714
aI1
aI7
aI8
aI7
aI2
aI0
aI0
aI1
aI15
aI24
aa(lp163
V0020500516
p164
aVJAN 13, 2006
p165
aVBOS @ PHI
p166
aVL
p167
aI46
aI7
aI14
aF0.5
aI3
aI5
aF0.6
aI0
aI0
aF0.0
aI0
aI6
aI6
aI2
aI2
aI1
aI3
aI5
aI17
aI-16
aa(lp168
V0020500542
p169
aVJAN 16, 2006
p170
aVBOS @ DET
p171
aVL
p172
aI37
aI7
aI13
aF0.538
aI1
aI2
aF0.5
aI5
aI5
aF1.0
aI1
aI6
aI7
aI3
aI2
aI0
aI2
aI2
aI20
aI-15
aa(lp173
V0020500554
p174
aVJAN 18, 2006
p175
aVBOS vs. MIN
p176
aVW
p177
aI28
aI5
aI10
aF0.5
aI2
aI5
aF0.4
aI2
aI2
aF1.0
aI1
aI4
aI5
aI3
aI2
aI0
aI0
aI0
aI14
aI13
aa(lp178
V0020500567
p179
aVJAN 20, 2006
p180
aVBOS vs. NJN
p181
aVW
p182
aI35
aI5
aI8
aF0.625
aI2
aI2
aF1.0
aI0
aI0
aF0.0
aI0
aI2
aI2
aI6
aI0
aI0
aI2
aI3
aI12
aI2
aa(lp183
V0020500579
p184
aVJAN 21, 2006
p185
aVBOS @ NJN
p186
aVL
p187
aI23
aI2
aI5
aF0.4
aI2
aI4
aF0.5
aI0
aI0
aF0.0
aI0
aI4
aI4
aI5
aI2
aI2
aI1
aI0
aI6
aI-13
aa(lp188
V0020500593
p189
aVJAN 23, 2006
p190
aVBOS vs. NOK
p191
aVW
p192
aI30
aI3
aI8
aF0.375
aI0
aI1
aF0.0
aI2
aI2
aF1.0
aI1
aI6
aI7
aI5
aI2
aI0
aI0
aI2
aI8
aI20
aa(lp193
V0020500606
p194
aVJAN 25, 2006
p195
aVBOS vs. WAS
p196
aVL
p197
aI37
aI5
aI11
aF0.455
aI0
aI1
aF0.0
aI0
aI0
aF0.0
aI2
aI3
aI5
aI9
aI1
aI1
aI1
aI2
aI10
aI1
aa(lp198
V0020500621
p199
aVJAN 27, 2006
p200
aVBOS vs. SAC
p201
aVW
p202
aI37
aI2
aI11
aF0.182
aI1
aI5
aF0.2
aI2
aI2
aF1.0
aI2
aI4
aI6
aI1
aI2
aI1
aI3
aI2
aI7
aI8
aa(lp203
V0020500643
p204
aVJAN 29, 2006
p205
aVBOS @ MIL
p206
aVL
p207
aI36
aI4
aI10
aF0.4
aI1
aI1
aF1.0
aI0
aI0
aF0.0
aI0
aI5
aI5
aI2
aI0
aI1
aI1
aI1
aI9
aI3
aa(lp208
V0020500652
p209
aVJAN 30, 2006
p210
aVBOS @ MIN
p211
aVL
p212
aI33
aI5
aI10
aF0.5
aI2
aI4
aF0.5
aI0
aI0
aF0.0
aI0
aI1
aI1
aI4
aI1
aI0
aI1
aI1
aI12
aI-12
aa(lp213
V0020500665
p214
aVFEB 01, 2006
p215
aVBOS vs. PHX
p216
aVL
p217
aI37
aI5
aI9
aF0.556
aI1
aI4
aF0.25
aI1
aI1
aF1.0
aI0
aI4
aI4
aI4
aI1
aI1
aI3
aI1
aI12
aI-7
aa(lp218
V0020500678
p219
aVFEB 03, 2006
p220
aVBOS vs. LAC
p221
aVL
p222
aI35
aI5
aI13
aF0.385
aI1
aI5
aF0.2
aI0
aI0
aF0.0
aI0
aI1
aI1
aI2
aI1
aI2
aI1
aI2
aI11
aI-19
aa(lp223
V0020500686
p224
aVFEB 04, 2006
p225
aVBOS @ ORL
p226
aVL
p227
aI38
aI5
aI12
aF0.417
aI1
aI2
aF0.5
aI2
aI2
aF1.0
aI0
aI5
aI5
aI6
aI5
aI1
aI2
aI4
aI13
aI1
aa(lp228
V0020500702
p229
aVFEB 06, 2006
p230
aVBOS @ MIA
p231
aVL
p232
aI35
aI3
aI9
aF0.333
aI1
aI5
aF0.2
aI1
aI2
aF0.5
aI2
aI2
aI4
aI4
aI0
aI0
aI2
aI3
aI8
aI-12
aa(lp233
V0020500727
p234
aVFEB 10, 2006
p235
aVBOS vs. POR
p236
aVW
p237
aI34
aI3
aI7
aF0.429
aI0
aI3
aF0.0
aI3
aI4
aF0.75
aI4
aI4
aI8
aI4
aI2
aI1
aI3
aI3
aI9
aI28
aa(lp238
V0020500746
p239
aVFEB 12, 2006
p240
aVBOS vs. ORL
p241
aVW
p242
aI41
aI4
aI8
aF0.5
aI3
aI3
aF1.0
aI3
aI4
aF0.75
aI0
aI1
aI1
aI9
aI2
aI1
aI3
aI1
aI14
aI12
aa(lp243
V0020500767
p244
aVFEB 15, 2006
p245
aVBOS vs. CLE
p246
aVL
p247
aI50
aI5
aI12
aF0.417
aI0
aI4
aF0.0
aI5
aI5
aF1.0
aI0
aI10
aI10
aI8
aI0
aI3
aI2
aI4
aI15
aI-10
aa(lp248
V0020500788
p249
aVFEB 21, 2006
p250
aVBOS @ UTA
p251
aVW
p252
aI43
aI8
aI13
aF0.615
aI4
aI5
aF0.8
aI2
aI2
aF1.0
aI0
aI7
aI7
aI7
aI0
aI0
aI3
aI3
aI22
aI23
aa(lp253
V0020500798
p254
aVFEB 22, 2006
p255
aVBOS @ PHX
p256
aVL
p257
aI43
aI12
aI22
aF0.545
aI4
aI8
aF0.5
aI2
aI2
aF1.0
aI2
aI1
aI3
aI5
aI2
aI1
aI1
aI4
aI30
aI-1
aa(lp258
V0020500812
p259
aVFEB 24, 2006
p260
aVBOS @ POR
p261
aVW
p262
aI37
aI1
aI6
aF0.167
aI0
aI3
aF0.0
aI0
aI0
aF0.0
aI1
aI3
aI4
aI0
aI0
aI1
aI1
aI1
aI2
aI7
aa(lp263
V0020500826
p264
aVFEB 26, 2006
p265
aVBOS @ LAL
p266
aVW
p267
aI36
aI8
aI16
aF0.5
aI1
aI4
aF0.25
aI2
aI3
aF0.667
aI2
aI2
aI4
aI10
aI2
aI0
aI3
aI6
aI19
aI10
aa(lp268
V0020500845
p269
aVMAR 01, 2006
p270
aVBOS vs. MIA
p271
aVL
p272
aI41
aI8
aI15
aF0.533
aI4
aI9
aF0.444
aI0
aI0
aF0.0
aI1
aI2
aI3
aI3
aI1
aI0
aI1
aI3
aI20
aI-7
aa(lp273
V0020500859
p274
aVMAR 03, 2006
p275
aVBOS vs. IND
p276
aVW
p277
aI45
aI7
aI12
aF0.583
aI2
aI2
aF1.0
aI1
aI1
aF1.0
aI0
aI4
aI4
aI7
aI3
aI0
aI3
aI3
aI17
aI1
aa(lp278
V0020500874
p279
aVMAR 05, 2006
p280
aVBOS @ TOR
p281
aVL
p282
aI10
aI0
aI1
aF0.0
aI0
aI1
aF0.0
aI0
aI0
aF0.0
aI1
aI0
aI1
aI3
aI0
aI0
aI0
aI1
aI0
aI-2
aa(lp283
V0020500926
p284
aVMAR 12, 2006
p285
aVBOS vs. DEN
p286
aVW
p287
aI31
aI6
aI13
aF0.462
aI0
aI4
aF0.0
aI0
aI0
aF0.0
aI0
aI2
aI2
aI5
aI1
aI0
aI2
aI3
aI12
aI3
aa(lp288
V0020500944
p289
aVMAR 14, 2006
p290
aVBOS @ MEM
p291
aVL
p292
aI29
aI2
aI7
aF0.286
aI0
aI1
aF0.0
aI0
aI0
aF0.0
aI1
aI2
aI3
aI1
aI1
aI0
aI2
aI1
aI4
aI-25
aa(lp293
V0020500960
p294
aVMAR 16, 2006
p295
aVBOS @ MIA
p296
aVL
p297
aI42
aI6
aI13
aF0.462
aI1
aI4
aF0.25
aI2
aI3
aF0.667
aI0
aI3
aI3
aI5
aI2
aI0
aI2
aI4
aI15
aI-1
aa(lp298
V0020500966
p299
aVMAR 17, 2006
p300
aVBOS @ ORL
p301
aVL
p302
aI26
aI3
aI12
aF0.25
aI1
aI5
aF0.2
aI0
aI0
aF0.0
aI1
aI2
aI3
aI5
aI1
aI0
aI2
aI3
aI7
aI-5
aa(lp303
V0020500982
p304
aVMAR 19, 2006
p305
aVBOS @ IND
p306
aVW
p307
aI40
aI8
aI13
aF0.615
aI0
aI0
aF0.0
aI0
aI0
aF0.0
aI1
aI1
aI2
aI5
aI3
aI1
aI0
aI2
aI16
aI8
aa(lp308
V0020500988
p309
aVMAR 20, 2006
p310
aVBOS vs. LAL
p311
aVL
p312
aI39
aI5
aI14
aF0.357
aI1
aI3
aF0.333
aI2
aI2
aF1.0
aI0
aI2
aI2
aI7
aI1
aI0
aI3
aI2
aI13
aI-3
aa(lp313
V0020501006
p314
aVMAR 22, 2006
p315
aVBOS vs. TOR
p316
aVW
p317
aI36
aI8
aI12
aF0.667
aI3
aI6
aF0.5
aI2
aI2
aF1.0
aI0
aI6
aI6
aI5
aI1
aI0
aI1
aI2
aI21
aI8
aa(lp318
V0020501022
p319
aVMAR 24, 2006
p320
aVBOS @ CLE
p321
aVL
p322
aI42
aI6
aI13
aF0.462
aI2
aI4
aF0.5
aI0
aI0
aF0.0
aI2
aI5
aI7
aI7
aI0
aI0
aI2
aI2
aI14
aI-3
aa(lp323
V0020501031
p324
aVMAR 26, 2006
p325
aVBOS vs. CHI
p326
aVL
p327
aI39
aI7
aI13
aF0.538
aI3
aI5
aF0.6
aI0
aI0
aF0.0
aI2
aI3
aI5
aI4
aI1
aI1
aI5
aI0
aI17
aI2
aa(lp328
V0020501059
p329
aVMAR 29, 2006
p330
aVBOS @ NYK
p331
aVW
p332
aI39
aI8
aI11
aF0.727
aI1
aI3
aF0.333
aI4
aI4
aF1.0
aI0
aI3
aI3
aI6
aI1
aI0
aI4
aI3
aI21
aI35
aa(lp333
V0020501080
p334
aVAPR 01, 2006
p335
aVBOS @ CHI
p336
aVL
p337
aI33
aI3
aI11
aF0.273
aI1
aI4
aF0.25
aI1
aI2
aF0.5
aI0
aI3
aI3
aI6
aI2
aI0
aI4
aI4
aI8
aI-16
aa(lp338
V0020501095
p339
aVAPR 04, 2006
p340
aVBOS @ TOR
p341
aVW
p342
aI28
aI2
aI8
aF0.25
aI2
aI5
aF0.4
aI0
aI0
aF0.0
aI1
aI2
aI3
aI6
aI0
aI0
aI1
aI0
aI6
aI2
aa(lp343
V0020501108
p344
aVAPR 05, 2006
p345
aVBOS vs. WAS
p346
aVL
p347
aI38
aI7
aI12
aF0.583
aI1
aI4
aF0.25
aI0
aI0
aF0.0
aI0
aI3
aI3
aI5
aI1
aI1
aI5
aI3
aI15
aI-15
aa(lp348
V0020501121
p349
aVAPR 07, 2006
p350
aVBOS @ PHI
p351
aVW
p352
aI42
aI4
aI12
aF0.333
aI0
aI3
aF0.0
aI0
aI0
aF0.0
aI1
aI4
aI5
aI12
aI1
aI1
aI3
aI2
aI8
aI12
aa(lp353
V0020501139
p354
aVAPR 09, 2006
p355
aVBOS vs. NYK
p356
aVL
p357
aI9
aI0
aI1
aF0.0
aI0
aI1
aF0.0
aI2
aI2
aF1.0
aI0
aI3
aI3
aI1
aI1
aI0
aI0
aI1
aI2
aI6
aasS'name'
p358
VDelonte West
p359
sS'weight'
p360
V180
p361
sS'age'
p362
I22
sS'experience'
p363
I1
sS'height'
p364
V6-3
p365
sS'position'
p366
VGuard
p367
s.