(dp0
S'age'
p1
I23
sS'stats'
p2
(lp3
(lp4
V0020500026
p5
aVNOV 04, 2005
p6
aVSAS vs. CLE
p7
aVW
p8
aI6
aI1
aI1
aF1.0
aI0
aI0
aF0.0
aI1
aI2
aF0.5
aI0
aI1
aI1
aI2
aI1
aI0
aI2
aI0
aI3
aI1
aa(lp9
V0020500039
p10
aVNOV 05, 2005
p11
aVSAS @ DAL
p12
aVL
p13
aI4
aI0
aI2
aF0.0
aI0
aI0
aF0.0
aI0
aI0
aF0.0
aI0
aI0
aI0
aI1
aI0
aI0
aI1
aI0
aI0
aI-11
aa(lp14
V0020500061
p15
aVNOV 09, 2005
p16
aVSAS @ CHA
p17
aVW
p18
aI5
aI0
aI2
aF0.0
aI0
aI1
aF0.0
aI0
aI0
aF0.0
aI0
aI0
aI0
aI1
aI0
aI0
aI1
aI0
aI0
aI-5
aa(lp19
V0020500074
p20
aVNOV 11, 2005
p21
aVSAS @ BOS
p22
aVW
p23
aI4
aI1
aI4
aF0.25
aI0
aI1
aF0.0
aI0
aI0
aF0.0
aI0
aI0
aI0
aI0
aI0
aI0
aI0
aI0
aI2
aI-3
aa(lp24
V0020500081
p25
aVNOV 12, 2005
p26
aVSAS @ WAS
p27
aVL
p28
aI4
aI1
aI1
aF1.0
aI0
aI0
aF0.0
aI0
aI0
aF0.0
aI0
aI0
aI0
aI0
aI0
aI0
aI1
aI0
aI2
aI-4
aa(lp29
V0020500106
p30
aVNOV 15, 2005
p31
aVSAS vs. ATL
p32
aVW
p33
aI9
aI2
aI6
aF0.333
aI0
aI1
aF0.0
aI1
aI2
aF0.5
aI2
aI0
aI2
aI4
aI0
aI0
aI0
aI1
aI5
aI2
aa(lp34
V0020500117
p35
aVNOV 17, 2005
p36
aVSAS vs. HOU
p37
aVW
p38
aI7
aI0
aI1
aF0.0
aI0
aI0
aF0.0
aI0
aI0
aF0.0
aI0
aI1
aI1
aI1
aI0
aI0
aI0
aI1
aI0
aI2
aa(lp39
V0020500137
p40
aVNOV 19, 2005
p41
aVSAS vs. PHX
p42
aVW
p43
aI7
aI0
aI2
aF0.0
aI0
aI2
aF0.0
aI2
aI2
aF1.0
aI2
aI1
aI3
aI3
aI1
aI0
aI0
aI2
aI2
aI10
aa(lp44
V0020500166
p45
aVNOV 23, 2005
p46
aVSAS @ GSW
p47
aVW
p48
aI15
aI2
aI4
aF0.5
aI0
aI0
aF0.0
aI5
aI5
aF1.0
aI0
aI1
aI1
aI3
aI0
aI0
aI2
aI1
aI9
aI-7
aa(lp49
V0020500236
p50
aVDEC 03, 2005
p51
aVSAS vs. PHI
p52
aVW
p53
aI3
aI1
aI2
aF0.5
aI0
aI0
aF0.0
aI0
aI0
aF0.0
aI0
aI0
aI0
aI0
aI0
aI0
aI1
aI1
aI2
aI-3
aa(lp54
V0020500245
p55
aVDEC 05, 2005
p56
aVSAS @ ORL
p57
aVW
p58
aI8
aI2
aI3
aF0.667
aI1
aI1
aF1.0
aI2
aI3
aF0.667
aI0
aI1
aI1
aI1
aI0
aI0
aI0
aI1
aI7
aI6
aa(lp59
V0020500263
p60
aVDEC 07, 2005
p61
aVSAS vs. MIA
p62
aVW
p63
aI1
aI0
aI0
aF0.0
aI0
aI0
aF0.0
aI0
aI0
aF0.0
aI0
aI0
aI0
aI0
aI0
aI0
aI0
aI0
aI0
aI2
aa(lp64
V0020500275
p65
aVDEC 09, 2005
p66
aVSAS vs. BOS
p67
aVW
p68
aI2
aI1
aI1
aF1.0
aI0
aI0
aF0.0
aI0
aI0
aF0.0
aI0
aI0
aI0
aI0
aI0
aI0
aI0
aI0
aI2
aI0
aa(lp69
V0020500281
p70
aVDEC 10, 2005
p71
aVSAS @ ATL
p72
aVL
p73
aI10
aI0
aI4
aF0.0
aI0
aI2
aF0.0
aI0
aI0
aF0.0
aI1
aI0
aI1
aI0
aI0
aI0
aI0
aI1
aI0
aI1
aa(lp74
V0020500795
p75
aVDEC 18, 2005
p76
aVSAS @ NOK
p77
aVL
p78
aI5
aI0
aI1
aF0.0
aI0
aI0
aF0.0
aI0
aI0
aF0.0
aI0
aI0
aI0
aI1
aI0
aI0
aI1
aI0
aI0
aI-3
aa(lp79
V0020500356
p80
aVDEC 20, 2005
p81
aVSAS @ MIL
p82
aVL
p83
aI0
aI0
aI0
aF0.0
aI0
aI0
aF0.0
aI0
aI0
aF0.0
aI0
aI0
aI0
aI0
aI0
aI0
aI0
aI0
aI0
aI0
aa(lp84
V0020500364
p85
aVDEC 21, 2005
p86
aVSAS @ NYK
p87
aVW
p88
aI12
aI2
aI5
aF0.4
aI0
aI1
aF0.0
aI3
aI4
aF0.75
aI1
aI0
aI1
aI2
aI0
aI0
aI3
aI1
aI7
aI-18
aa(lp89
V0020500381
p90
aVDEC 23, 2005
p91
aVSAS vs. TOR
p92
aVW
p93
aI1
aI0
aI0
aF0.0
aI0
aI0
aF0.0
aI0
aI0
aF0.0
aI0
aI0
aI0
aI0
aI0
aI0
aI0
aI0
aI0
aI0
aa(lp94
V0020500385
p95
aVDEC 25, 2005
p96
aVSAS @ DET
p97
aVL
p98
aI1
aI0
aI0
aF0.0
aI0
aI0
aF0.0
aI0
aI0
aF0.0
aI0
aI0
aI0
aI2
aI0
aI0
aI0
aI0
aI0
aI2
aa(lp99
V0020500402
p100
aVDEC 27, 2005
p101
aVSAS vs. IND
p102
aVW
p103
aI1
aI0
aI0
aF0.0
aI0
aI0
aF0.0
aI0
aI0
aF0.0
aI0
aI0
aI0
aI0
aI0
aI0
aI0
aI0
aI0
aI1
aa(lp104
V0020500415
p105
aVDEC 29, 2005
p106
aVSAS vs. NOK
p107
aVW
p108
aI15
aI3
aI5
aF0.6
aI2
aI2
aF1.0
aI0
aI0
aF0.0
aI0
aI3
aI3
aI3
aI1
aI0
aI2
aI1
aI8
aI10
aa(lp109
V0020500431
p110
aVDEC 31, 2005
p111
aVSAS @ DEN
p112
aVW
p113
aI13
aI2
aI4
aF0.5
aI0
aI2
aF0.0
aI0
aI0
aF0.0
aI0
aI0
aI0
aI2
aI0
aI0
aI0
aI5
aI4
aI5
aa(lp114
V0020500454
p115
aVJAN 04, 2006
p116
aVSAS vs. POR
p117
aVW
p118
aI6
aI1
aI2
aF0.5
aI0
aI0
aF0.0
aI2
aI2
aF1.0
aI0
aI1
aI1
aI3
aI0
aI0
aI1
aI0
aI4
aI11
aa(lp119
V0020500510
p120
aVJAN 12, 2006
p121
aVSAS vs. DET
p122
aVL
p123
aI2
aI0
aI1
aF0.0
aI0
aI1
aF0.0
aI0
aI0
aF0.0
aI0
aI0
aI0
aI1
aI0
aI0
aI1
aI0
aI0
aI-4
aa(lp124
V0020500545
p125
aVJAN 16, 2006
p126
aVSAS @ MEM
p127
aVW
p128
aI1
aI0
aI0
aF0.0
aI0
aI0
aF0.0
aI0
aI0
aF0.0
aI0
aI0
aI0
aI0
aI0
aI0
aI0
aI0
aI0
aI-2
aa(lp129
V0020500603
p130
aVJAN 24, 2006
p131
aVSAS vs. CHA
p132
aVW
p133
aI24
aI7
aI11
aF0.636
aI1
aI3
aF0.333
aI2
aI2
aF1.0
aI1
aI2
aI3
aI8
aI1
aI0
aI2
aI2
aI17
aI13
aa(lp134
V0020500609
p135
aVJAN 25, 2006
p136
aVSAS @ NOK
p137
aVW
p138
aI8
aI1
aI3
aF0.333
aI0
aI1
aF0.0
aI2
aI2
aF1.0
aI2
aI1
aI3
aI2
aI0
aI0
aI1
aI1
aI4
aI-5
aa(lp139
V0020500636
p140
aVJAN 28, 2006
p141
aVSAS vs. MIN
p142
aVW
p143
aI1
aI0
aI1
aF0.0
aI0
aI0
aF0.0
aI0
aI0
aF0.0
aI0
aI0
aI0
aI1
aI0
aI0
aI0
aI0
aI0
aI-2
aa(lp144
V0020500653
p145
aVJAN 30, 2006
p146
aVSAS @ UTA
p147
aVW
p148
aI15
aI4
aI9
aF0.444
aI2
aI4
aF0.5
aI0
aI0
aF0.0
aI0
aI0
aI0
aI1
aI1
aI0
aI2
aI1
aI10
aI10
aa(lp149
V0020500672
p150
aVFEB 01, 2006
p151
aVSAS @ POR
p152
aVW
p153
aI14
aI2
aI5
aF0.4
aI0
aI1
aF0.0
aI0
aI0
aF0.0
aI0
aI1
aI1
aI1
aI0
aI0
aI0
aI1
aI4
aI-6
aa(lp154
V0020500675
p155
aVFEB 02, 2006
p156
aVSAS @ GSW
p157
aVW
p158
aI16
aI1
aI4
aF0.25
aI0
aI1
aF0.0
aI0
aI0
aF0.0
aI0
aI2
aI2
aI6
aI0
aI0
aI2
aI1
aI2
aI2
aa(lp159
V0020500711
p160
aVFEB 08, 2006
p161
aVSAS @ TOR
p162
aVW
p163
aI10
aI2
aI3
aF0.667
aI0
aI1
aF0.0
aI0
aI0
aF0.0
aI1
aI1
aI2
aI2
aI1
aI0
aI1
aI1
aI4
aI4
aa(lp164
V0020500758
p165
aVFEB 13, 2006
p166
aVSAS @ CLE
p167
aVL
p168
aI9
aI4
aI4
aF1.0
aI3
aI3
aF1.0
aI1
aI3
aF0.333
aI0
aI0
aI0
aI0
aI0
aI0
aI2
aI0
aI12
aI1
aa(lp169
V0020500786
p170
aVFEB 21, 2006
p171
aVSAS vs. SEA
p172
aVW
p173
aI13
aI3
aI4
aF0.75
aI1
aI2
aF0.5
aI0
aI0
aF0.0
aI1
aI1
aI2
aI2
aI1
aI0
aI1
aI1
aI7
aI3
aa(lp174
V0020500807
p175
aVFEB 24, 2006
p176
aVSAS @ MEM
p177
aVW
p178
aI14
aI2
aI8
aF0.25
aI0
aI3
aF0.0
aI1
aI2
aF0.5
aI1
aI0
aI1
aI2
aI0
aI0
aI1
aI1
aI5
aI8
aa(lp179
V0020500819
p180
aVFEB 25, 2006
p181
aVSAS vs. GSW
p182
aVW
p183
aI2
aI0
aI2
aF0.0
aI0
aI0
aF0.0
aI0
aI0
aF0.0
aI0
aI0
aI0
aI0
aI0
aI0
aI0
aI0
aI0
aI1
aa(lp184
V0020500834
p185
aVFEB 27, 2006
p186
aVSAS vs. NYK
p187
aVW
p188
aI15
aI3
aI7
aF0.429
aI2
aI5
aF0.4
aI0
aI0
aF0.0
aI0
aI0
aI0
aI1
aI1
aI0
aI1
aI2
aI8
aI2
aa(lp189
V0020500871
p190
aVMAR 04, 2006
p191
aVSAS vs. POR
p192
aVW
p193
aI17
aI5
aI9
aF0.556
aI1
aI2
aF0.5
aI0
aI0
aF0.0
aI0
aI1
aI1
aI3
aI0
aI0
aI0
aI1
aI11
aI15
aa(lp194
V0020500896
p195
aVMAR 07, 2006
p196
aVSAS @ LAC
p197
aVL
p198
aI25
aI6
aI10
aF0.6
aI0
aI2
aF0.0
aI0
aI0
aF0.0
aI0
aI2
aI2
aI2
aI1
aI0
aI0
aI1
aI12
aI3
aa(lp199
V0020500909
p200
aVMAR 09, 2006
p201
aVSAS @ PHX
p202
aVW
p203
aI23
aI6
aI10
aF0.6
aI1
aI2
aF0.5
aI0
aI0
aF0.0
aI0
aI1
aI1
aI4
aI0
aI0
aI0
aI3
aI13
aI14
aa(lp204
V0020500916
p205
aVMAR 10, 2006
p206
aVSAS vs. LAL
p207
aVL
p208
aI17
aI4
aI7
aF0.571
aI2
aI4
aF0.5
aI0
aI0
aF0.0
aI0
aI2
aI2
aI2
aI1
aI0
aI0
aI1
aI10
aI0
aa(lp209
V0020500928
p210
aVMAR 12, 2006
p211
aVSAS vs. HOU
p212
aVW
p213
aI16
aI4
aI7
aF0.571
aI2
aI2
aF1.0
aI0
aI1
aF0.0
aI0
aI1
aI1
aI0
aI0
aI0
aI0
aI1
aI10
aI-5
aa(lp214
V0020500947
p215
aVMAR 14, 2006
p216
aVSAS vs. NOK
p217
aVW
p218
aI18
aI3
aI6
aF0.5
aI1
aI3
aF0.333
aI3
aI4
aF0.75
aI1
aI1
aI2
aI2
aI1
aI1
aI4
aI1
aI10
aI5
aa(lp219
V0020500972
p220
aVMAR 17, 2006
p221
aVSAS vs. PHX
p222
aVW
p223
aI15
aI3
aI8
aF0.375
aI0
aI2
aF0.0
aI0
aI0
aF0.0
aI1
aI0
aI1
aI1
aI0
aI0
aI2
aI5
aI6
aI0
aa(lp224
V0020500978
p225
aVMAR 18, 2006
p226
aVSAS @ HOU
p227
aVW
p228
aI29
aI3
aI8
aF0.375
aI1
aI2
aF0.5
aI2
aI2
aF1.0
aI0
aI3
aI3
aI3
aI0
aI0
aI2
aI1
aI9
aI-3
aa(lp229
V0020500999
p230
aVMAR 21, 2006
p231
aVSAS vs. GSW
p232
aVW
p233
aI15
aI5
aI8
aF0.625
aI1
aI4
aF0.25
aI2
aI2
aF1.0
aI1
aI1
aI2
aI0
aI1
aI0
aI0
aI2
aI13
aI1
aa(lp234
V0020501008
p235
aVMAR 22, 2006
p236
aVSAS @ DEN
p237
aVL
p238
aI13
aI0
aI4
aF0.0
aI0
aI1
aF0.0
aI0
aI0
aF0.0
aI2
aI0
aI2
aI5
aI0
aI0
aI0
aI2
aI0
aI-10
aa(lp239
V0020501025
p240
aVMAR 24, 2006
p241
aVSAS @ POR
p242
aVW
p243
aI18
aI4
aI6
aF0.667
aI0
aI1
aF0.0
aI0
aI0
aF0.0
aI0
aI2
aI2
aI2
aI0
aI0
aI2
aI1
aI8
aI5
aa(lp244
V0020501039
p245
aVMAR 26, 2006
p246
aVSAS @ SEA
p247
aVL
p248
aI11
aI2
aI7
aF0.286
aI1
aI2
aF0.5
aI0
aI0
aF0.0
aI0
aI0
aI0
aI0
aI0
aI1
aI2
aI2
aI5
aI-7
aa(lp249
V0020501053
p250
aVMAR 28, 2006
p251
aVSAS @ LAC
p252
aVW
p253
aI12
aI2
aI5
aF0.4
aI0
aI2
aF0.0
aI0
aI0
aF0.0
aI0
aI1
aI1
aI3
aI0
aI0
aI2
aI2
aI4
aI-5
aa(lp254
V0020501159
p255
aVAPR 11, 2006
p256
aVSAS vs. SEA
p257
aVW
p258
aI4
aI0
aI1
aF0.0
aI0
aI0
aF0.0
aI0
aI0
aF0.0
aI0
aI0
aI0
aI2
aI0
aI0
aI2
aI1
aI0
aI-7
aa(lp259
V0020501175
p260
aVAPR 13, 2006
p261
aVSAS vs. ORL
p262
aVL
p263
aI6
aI0
aI2
aF0.0
aI0
aI0
aF0.0
aI0
aI0
aF0.0
aI0
aI0
aI0
aI0
aI0
aI0
aI1
aI0
aI0
aI-7
aa(lp264
V0020501195
p265
aVAPR 16, 2006
p266
aVSAS @ MIN
p267
aVW
p268
aI22
aI5
aI9
aF0.556
aI2
aI2
aF1.0
aI3
aI4
aF0.75
aI0
aI1
aI1
aI4
aI1
aI0
aI4
aI4
aI15
aI4
aa(lp269
V0020501208
p270
aVAPR 17, 2006
p271
aVSAS vs. UTA
p272
aVW
p273
aI15
aI4
aI7
aF0.571
aI0
aI0
aF0.0
aI2
aI2
aF1.0
aI1
aI0
aI1
aI1
aI0
aI0
aI1
aI0
aI10
aI16
aa(lp274
V0020501223
p275
aVAPR 19, 2006
p276
aVSAS @ HOU
p277
aVW
p278
aI28
aI2
aI7
aF0.286
aI0
aI1
aF0.0
aI5
aI6
aF0.833
aI0
aI1
aI1
aI2
aI1
aI0
aI2
aI1
aI9
aI-1
aasS'name'
p279
VBeno Udrih
p280
sS'experience'
p281
I1
s.