(dp0
S'age'
p1
I25
sS'stats'
p2
(lp3
(lp4
V0020500015
p5
aVNOV 02, 2005
p6
aVSEA vs. LAC
p7
aVL
p8
aI19
aI2
aI4
aF0.5
aI0
aI2
aF0.0
aI3
aI5
aF0.6
aI0
aI0
aI0
aI1
aI2
aI0
aI2
aI1
aI7
aI-11
aa(lp9
V0020500030
p10
aVNOV 04, 2005
p11
aVSEA vs. MIN
p12
aVW
p13
aI9
aI2
aI7
aF0.286
aI0
aI1
aF0.0
aI0
aI0
aF0.0
aI1
aI2
aI3
aI0
aI0
aI0
aI1
aI1
aI4
aI2
aa(lp14
V0020500053
p15
aVNOV 08, 2005
p16
aVSEA @ MEM
p17
aVL
p18
aI20
aI3
aI9
aF0.333
aI0
aI2
aF0.0
aI3
aI4
aF0.75
aI1
aI1
aI2
aI0
aI3
aI0
aI1
aI2
aI9
aI-20
aa(lp19
V0020500058
p20
aVNOV 09, 2005
p21
aVSEA @ CLE
p22
aVL
p23
aI28
aI1
aI8
aF0.125
aI0
aI1
aF0.0
aI2
aI2
aF1.0
aI0
aI1
aI1
aI0
aI1
aI0
aI2
aI5
aI4
aI-21
aa(lp24
V0020500072
p25
aVNOV 11, 2005
p26
aVSEA @ WAS
p27
aVL
p28
aI11
aI1
aI2
aF0.5
aI1
aI2
aF0.5
aI1
aI2
aF0.5
aI0
aI0
aI0
aI2
aI1
aI0
aI0
aI1
aI4
aI-17
aa(lp29
V0020500089
p30
aVNOV 13, 2005
p31
aVSEA @ TOR
p32
aVW
p33
aI4
aI0
aI0
aF0.0
aI0
aI0
aF0.0
aI0
aI0
aF0.0
aI0
aI0
aI0
aI2
aI1
aI0
aI0
aI0
aI0
aI-1
aa(lp34
V0020500101
p35
aVNOV 15, 2005
p36
aVSEA @ NJN
p37
aVL
p38
aI16
aI1
aI3
aF0.333
aI0
aI1
aF0.0
aI3
aI3
aF1.0
aI0
aI1
aI1
aI4
aI1
aI0
aI0
aI3
aI5
aI3
aa(lp39
V0020500110
p40
aVNOV 16, 2005
p41
aVSEA @ BOS
p42
aVW
p43
aI13
aI1
aI6
aF0.167
aI0
aI1
aF0.0
aI0
aI0
aF0.0
aI2
aI0
aI2
aI2
aI0
aI0
aI1
aI3
aI2
aI-1
aa(lp44
V0020500131
p45
aVNOV 18, 2005
p46
aVSEA vs. CHI
p47
aVW
p48
aI12
aI1
aI1
aF1.0
aI0
aI0
aF0.0
aI0
aI0
aF0.0
aI2
aI3
aI5
aI1
aI1
aI2
aI2
aI0
aI2
aI1
aa(lp49
V0020500144
p50
aVNOV 20, 2005
p51
aVSEA vs. SAC
p52
aVW
p53
aI16
aI4
aI6
aF0.667
aI2
aI2
aF1.0
aI0
aI0
aF0.0
aI2
aI2
aI4
aI0
aI1
aI0
aI2
aI3
aI10
aI-2
aa(lp54
V0020500155
p55
aVNOV 22, 2005
p56
aVSEA vs. UTA
p57
aVL
p58
aI10
aI1
aI5
aF0.2
aI0
aI1
aF0.0
aI2
aI2
aF1.0
aI2
aI2
aI4
aI0
aI0
aI0
aI0
aI0
aI4
aI-8
aa(lp59
V0020500168
p60
aVNOV 24, 2005
p61
aVSEA @ LAL
p62
aVL
p63
aI12
aI0
aI2
aF0.0
aI0
aI0
aF0.0
aI4
aI4
aF1.0
aI0
aI1
aI1
aI0
aI1
aI0
aI0
aI3
aI4
aI-2
aa(lp64
V0020500181
p65
aVNOV 26, 2005
p66
aVSEA vs. NOK
p67
aVL
p68
aI9
aI2
aI5
aF0.4
aI1
aI3
aF0.333
aI0
aI0
aF0.0
aI0
aI1
aI1
aI1
aI1
aI0
aI0
aI1
aI5
aI3
aa(lp69
V0020500215
p70
aVNOV 30, 2005
p71
aVSEA vs. CHA
p72
aVW
p73
aI15
aI1
aI1
aF1.0
aI0
aI0
aF0.0
aI2
aI2
aF1.0
aI1
aI1
aI2
aI0
aI2
aI0
aI0
aI2
aI4
aI-4
aa(lp74
V0020500230
p75
aVDEC 02, 2005
p76
aVSEA vs. CLE
p77
aVW
p78
aI24
aI3
aI3
aF1.0
aI0
aI0
aF0.0
aI2
aI2
aF1.0
aI0
aI0
aI0
aI1
aI2
aI1
aI1
aI2
aI8
aI10
aa(lp79
V0020500243
p80
aVDEC 04, 2005
p81
aVSEA vs. IND
p82
aVW
p83
aI18
aI1
aI2
aF0.5
aI0
aI0
aF0.0
aI0
aI0
aF0.0
aI2
aI0
aI2
aI3
aI1
aI0
aI0
aI0
aI2
aI-1
aa(lp84
V0020500257
p85
aVDEC 06, 2005
p86
aVSEA vs. NYK
p87
aVL
p88
aI7
aI1
aI1
aF1.0
aI0
aI0
aF0.0
aI1
aI2
aF0.5
aI0
aI0
aI0
aI0
aI0
aI0
aI0
aI0
aI3
aI-1
aa(lp89
V0020500276
p90
aVDEC 09, 2005
p91
aVSEA @ UTA
p92
aVW
p93
aI11
aI0
aI0
aF0.0
aI0
aI0
aF0.0
aI0
aI0
aF0.0
aI0
aI1
aI1
aI3
aI0
aI0
aI1
aI0
aI0
aI5
aa(lp94
V0020500289
p95
aVDEC 10, 2005
p96
aVSEA vs. SAC
p97
aVL
p98
aI31
aI3
aI12
aF0.25
aI1
aI4
aF0.25
aI3
aI4
aF0.75
aI3
aI3
aI6
aI1
aI1
aI0
aI1
aI4
aI10
aI-8
aa(lp99
V0020500306
p100
aVDEC 13, 2005
p101
aVSEA vs. GSW
p102
aVL
p103
aI17
aI1
aI2
aF0.5
aI0
aI0
aF0.0
aI0
aI0
aF0.0
aI1
aI2
aI3
aI0
aI2
aI0
aI1
aI0
aI2
aI-5
aa(lp104
V0020500321
p105
aVDEC 15, 2005
p106
aVSEA vs. HOU
p107
aVL
p108
aI9
aI0
aI3
aF0.0
aI0
aI0
aF0.0
aI2
aI2
aF1.0
aI0
aI0
aI0
aI2
aI0
aI0
aI1
aI4
aI2
aI-6
aa(lp109
V0020500331
p110
aVDEC 16, 2005
p111
aVSEA @ POR
p112
aVW
p113
aI13
aI0
aI0
aF0.0
aI0
aI0
aF0.0
aI2
aI2
aF1.0
aI0
aI2
aI2
aI2
aI0
aI0
aI1
aI2
aI2
aI7
aa(lp114
V0020500351
p115
aVDEC 19, 2005
p116
aVSEA vs. WAS
p117
aVW
p118
aI11
aI1
aI3
aF0.333
aI0
aI0
aF0.0
aI0
aI0
aF0.0
aI1
aI0
aI1
aI0
aI0
aI0
aI2
aI0
aI2
aI1
aa(lp119
V0020500358
p120
aVDEC 20, 2005
p121
aVSEA @ PHX
p122
aVL
p123
aI15
aI0
aI4
aF0.0
aI0
aI0
aF0.0
aI0
aI0
aF0.0
aI4
aI2
aI6
aI0
aI1
aI0
aI1
aI2
aI0
aI-9
aa(lp124
V0020500384
p125
aVDEC 23, 2005
p126
aVSEA vs. DAL
p127
aVL
p128
aI2
aI0
aI0
aF0.0
aI0
aI0
aF0.0
aI0
aI0
aF0.0
aI0
aI0
aI0
aI0
aI0
aI0
aI0
aI0
aI0
aI1
aa(lp129
V0020500395
p130
aVDEC 26, 2005
p131
aVSEA vs. BOS
p132
aVW
p133
aI9
aI1
aI2
aF0.5
aI0
aI0
aF0.0
aI2
aI3
aF0.667
aI1
aI1
aI2
aI1
aI1
aI0
aI1
aI3
aI4
aI3
aa(lp134
V0020500410
p135
aVDEC 28, 2005
p136
aVSEA @ MIN
p137
aVL
p138
aI22
aI4
aI8
aF0.5
aI0
aI1
aF0.0
aI7
aI7
aF1.0
aI2
aI3
aI5
aI1
aI2
aI1
aI2
aI3
aI15
aI0
aa(lp139
V0020500416
p140
aVDEC 29, 2005
p141
aVSEA @ DEN
p142
aVW
p143
aI37
aI5
aI10
aF0.5
aI0
aI1
aF0.0
aI2
aI2
aF1.0
aI2
aI5
aI7
aI8
aI3
aI0
aI4
aI3
aI12
aI10
aa(lp144
V0020500432
p145
aVDEC 31, 2005
p146
aVSEA vs. MEM
p147
aVL
p148
aI38
aI5
aI7
aF0.714
aI0
aI1
aF0.0
aI2
aI2
aF1.0
aI2
aI4
aI6
aI3
aI2
aI0
aI4
aI3
aI12
aI-3
aa(lp149
V0020500437
p150
aVJAN 02, 2006
p151
aVSEA @ IND
p152
aVL
p153
aI28
aI3
aI7
aF0.429
aI0
aI0
aF0.0
aI4
aI4
aF1.0
aI1
aI3
aI4
aI3
aI0
aI1
aI1
aI4
aI10
aI-20
aa(lp154
V0020500453
p155
aVJAN 04, 2006
p156
aVSEA @ CHI
p157
aVW
p158
aI10
aI0
aI1
aF0.0
aI0
aI0
aF0.0
aI0
aI0
aF0.0
aI0
aI2
aI2
aI1
aI0
aI0
aI2
aI0
aI0
aI-1
aa(lp159
V0020500463
p160
aVJAN 06, 2006
p161
aVSEA @ DET
p162
aVL
p163
aI6
aI0
aI1
aF0.0
aI0
aI0
aF0.0
aI0
aI0
aF0.0
aI0
aI0
aI0
aI0
aI0
aI0
aI0
aI1
aI0
aI2
aa(lp164
V0020500482
p165
aVJAN 08, 2006
p166
aVSEA @ NYK
p167
aVL
p168
aI8
aI1
aI1
aF1.0
aI0
aI0
aF0.0
aI0
aI0
aF0.0
aI0
aI2
aI2
aI0
aI0
aI0
aI1
aI0
aI2
aI-12
aa(lp169
V0020500486
p170
aVJAN 09, 2006
p171
aVSEA @ PHI
p172
aVL
p173
aI19
aI1
aI2
aF0.5
aI0
aI0
aF0.0
aI1
aI1
aF1.0
aI0
aI0
aI0
aI1
aI0
aI0
aI2
aI2
aI3
aI-1
aa(lp174
V0020500508
p175
aVJAN 11, 2006
p176
aVSEA vs. ORL
p177
aVW
p178
aI15
aI1
aI4
aF0.25
aI0
aI1
aF0.0
aI0
aI0
aF0.0
aI2
aI2
aI4
aI2
aI0
aI0
aI1
aI1
aI2
aI-6
aa(lp179
V0020500521
p180
aVJAN 13, 2006
p181
aVSEA vs. MIA
p182
aVL
p183
aI23
aI5
aI11
aF0.455
aI0
aI2
aF0.0
aI2
aI2
aF1.0
aI1
aI1
aI2
aI0
aI1
aI0
aI1
aI2
aI12
aI-6
aa(lp184
V0020500531
p185
aVJAN 14, 2006
p186
aVSEA @ LAC
p187
aVL
p188
aI42
aI5
aI13
aF0.385
aI1
aI1
aF1.0
aI2
aI5
aF0.4
aI4
aI6
aI10
aI1
aI2
aI1
aI2
aI3
aI13
aI-19
aa(lp189
V0020500544
p190
aVJAN 16, 2006
p191
aVSEA @ GSW
p192
aVL
p193
aI39
aI7
aI12
aF0.583
aI2
aI3
aF0.667
aI2
aI2
aF1.0
aI0
aI2
aI2
aI1
aI1
aI1
aI2
aI4
aI18
aI-17
aa(lp194
V0020500576
p195
aVJAN 20, 2006
p196
aVSEA vs. TOR
p197
aVL
p198
aI13
aI4
aI8
aF0.5
aI0
aI1
aF0.0
aI0
aI0
aF0.0
aI1
aI0
aI1
aI1
aI0
aI0
aI0
aI3
aI8
aI0
aa(lp199
V0020500589
p200
aVJAN 22, 2006
p201
aVSEA @ PHX
p202
aVW
p203
aI15
aI3
aI3
aF1.0
aI1
aI1
aF1.0
aI4
aI4
aF1.0
aI0
aI3
aI3
aI0
aI1
aI0
aI0
aI0
aI11
aI3
aa(lp204
V0020500612
p205
aVJAN 25, 2006
p206
aVSEA @ UTA
p207
aVW
p208
aI26
aI5
aI8
aF0.625
aI0
aI0
aF0.0
aI5
aI6
aF0.833
aI2
aI2
aI4
aI0
aI3
aI1
aI1
aI1
aI15
aI4
aa(lp209
V0020500618
p210
aVJAN 26, 2006
p211
aVSEA vs. DAL
p212
aVL
p213
aI24
aI3
aI9
aF0.333
aI0
aI1
aF0.0
aI5
aI5
aF1.0
aI1
aI1
aI2
aI2
aI0
aI1
aI1
aI2
aI11
aI-14
aa(lp214
V0020500638
p215
aVJAN 28, 2006
p216
aVSEA vs. NJN
p217
aVW
p218
aI22
aI2
aI4
aF0.5
aI0
aI1
aF0.0
aI1
aI2
aF0.5
aI0
aI1
aI1
aI1
aI1
aI0
aI0
aI2
aI5
aI19
aa(lp219
V0020500654
p220
aVJAN 30, 2006
p221
aVSEA vs. POR
p222
aVL
p223
aI12
aI4
aI6
aF0.667
aI0
aI0
aF0.0
aI3
aI4
aF0.75
aI1
aI1
aI2
aI0
aI0
aI0
aI0
aI4
aI11
aI-6
aa(lp224
V0020500673
p225
aVFEB 01, 2006
p226
aVSEA vs. GSW
p227
aVW
p228
aI15
aI0
aI1
aF0.0
aI0
aI0
aF0.0
aI0
aI0
aF0.0
aI0
aI2
aI2
aI1
aI1
aI0
aI1
aI2
aI0
aI-7
aa(lp229
V0020500681
p230
aVFEB 03, 2006
p231
aVSEA @ HOU
p232
aVL
p233
aI18
aI1
aI4
aF0.25
aI0
aI1
aF0.0
aI1
aI2
aF0.5
aI1
aI2
aI3
aI2
aI0
aI0
aI1
aI0
aI3
aI-10
aa(lp234
V0020500691
p235
aVFEB 04, 2006
p236
aVSEA @ DAL
p237
aVL
p238
aI19
aI7
aI9
aF0.778
aI0
aI0
aF0.0
aI0
aI0
aF0.0
aI1
aI1
aI2
aI1
aI0
aI0
aI1
aI5
aI14
aI-7
aa(lp239
V0020500701
p240
aVFEB 06, 2006
p241
aVSEA @ CHA
p242
aVL
p243
aI22
aI3
aI9
aF0.333
aI0
aI1
aF0.0
aI2
aI2
aF1.0
aI1
aI2
aI3
aI4
aI0
aI1
aI1
aI2
aI8
aI-2
aa(lp244
V0020500718
p245
aVFEB 08, 2006
p246
aVSEA @ NOK
p247
aVL
p248
aI20
aI2
aI4
aF0.5
aI0
aI0
aF0.0
aI2
aI3
aF0.667
aI0
aI1
aI1
aI1
aI0
aI0
aI1
aI2
aI6
aI4
aa(lp249
V0020500736
p250
aVFEB 10, 2006
p251
aVSEA vs. ATL
p252
aVW
p253
aI36
aI7
aI12
aF0.583
aI0
aI1
aF0.0
aI12
aI13
aF0.923
aI2
aI2
aI4
aI2
aI3
aI0
aI1
aI2
aI26
aI10
aa(lp254
V0020500750
p255
aVFEB 12, 2006
p256
aVSEA vs. DEN
p257
aVL
p258
aI47
aI9
aI17
aF0.529
aI0
aI1
aF0.0
aI3
aI3
aF1.0
aI5
aI5
aI10
aI4
aI2
aI0
aI4
aI6
aI21
aI-15
aa(lp259
V0020500761
p260
aVFEB 14, 2006
p261
aVSEA @ MIL
p262
aVL
p263
aI25
aI3
aI6
aF0.5
aI0
aI0
aF0.0
aI4
aI4
aF1.0
aI1
aI3
aI4
aI3
aI3
aI0
aI3
aI2
aI10
aI-8
aa(lp264
V0020500772
p265
aVFEB 15, 2006
p266
aVSEA @ MIN
p267
aVL
p268
aI11
aI1
aI3
aF0.333
aI0
aI0
aF0.0
aI0
aI0
aF0.0
aI0
aI1
aI1
aI1
aI0
aI0
aI0
aI2
aI2
aI-1
aa(lp269
V0020500786
p270
aVFEB 21, 2006
p271
aVSEA @ SAS
p272
aVL
p273
aI25
aI1
aI5
aF0.2
aI0
aI0
aF0.0
aI0
aI0
aF0.0
aI1
aI1
aI2
aI1
aI0
aI1
aI0
aI2
aI2
aI-10
aa(lp274
V0020500792
p275
aVFEB 22, 2006
p276
aVSEA @ ATL
p277
aVW
p278
aI16
aI3
aI5
aF0.6
aI0
aI0
aF0.0
aI1
aI1
aF1.0
aI1
aI1
aI2
aI1
aI1
aI0
aI3
aI0
aI7
aI-2
aa(lp279
V0020500803
p280
aVFEB 24, 2006
p281
aVSEA @ ORL
p282
aVL
p283
aI46
aI9
aI15
aF0.6
aI0
aI1
aF0.0
aI3
aI4
aF0.75
aI0
aI2
aI2
aI6
aI1
aI0
aI6
aI2
aI21
aI-10
aa(lp284
V0020500818
p285
aVFEB 25, 2006
p286
aVSEA @ MIA
p287
aVL
p288
aI34
aI3
aI10
aF0.3
aI1
aI2
aF0.5
aI3
aI4
aF0.75
aI1
aI3
aI4
aI2
aI3
aI0
aI0
aI2
aI10
aI8
aa(lp289
V0020500840
p290
aVFEB 28, 2006
p291
aVSEA vs. NOK
p292
aVW
p293
aI14
aI1
aI2
aF0.5
aI0
aI0
aF0.0
aI1
aI2
aF0.5
aI2
aI1
aI3
aI3
aI0
aI0
aI1
aI2
aI3
aI-7
aa(lp294
V0020500866
p295
aVMAR 03, 2006
p296
aVSEA vs. DET
p297
aVL
p298
aI6
aI0
aI1
aF0.0
aI0
aI0
aF0.0
aI0
aI0
aF0.0
aI0
aI2
aI2
aI0
aI0
aI0
aI0
aI0
aI0
aI2
aa(lp299
V0020500882
p300
aVMAR 05, 2006
p301
aVSEA vs. UTA
p302
aVW
p303
aI26
aI7
aI11
aF0.636
aI0
aI0
aF0.0
aI0
aI0
aF0.0
aI1
aI0
aI1
aI0
aI7
aI0
aI2
aI2
aI14
aI17
aa(lp304
V0020500906
p305
aVMAR 08, 2006
p306
aVSEA vs. MEM
p307
aVL
p308
aI23
aI1
aI7
aF0.143
aI0
aI2
aF0.0
aI6
aI7
aF0.857
aI0
aI3
aI3
aI1
aI0
aI0
aI0
aI3
aI8
aI-11
aa(lp309
V0020500918
p310
aVMAR 10, 2006
p311
aVSEA vs. MIN
p312
aVW
p313
aI13
aI1
aI3
aF0.333
aI0
aI0
aF0.0
aI3
aI5
aF0.6
aI3
aI1
aI4
aI1
aI0
aI0
aI1
aI2
aI5
aI0
aa(lp314
V0020500930
p315
aVMAR 12, 2006
p316
aVSEA @ LAL
p317
aVW
p318
aI9
aI2
aI2
aF1.0
aI0
aI0
aF0.0
aI0
aI0
aF0.0
aI0
aI0
aI0
aI1
aI1
aI0
aI0
aI2
aI4
aI2
aa(lp319
V0020500949
p320
aVMAR 14, 2006
p321
aVSEA vs. PHX
p322
aVL
p323
aI27
aI5
aI7
aF0.714
aI1
aI3
aF0.333
aI6
aI6
aF1.0
aI0
aI1
aI1
aI1
aI1
aI0
aI0
aI3
aI17
aI1
aa(lp324
V0020500962
p325
aVMAR 16, 2006
p326
aVSEA vs. PHI
p327
aVW
p328
aI12
aI1
aI2
aF0.5
aI0
aI1
aF0.0
aI0
aI0
aF0.0
aI0
aI0
aI0
aI1
aI0
aI0
aI1
aI1
aI2
aI-7
aa(lp329
V0020501001
p330
aVMAR 21, 2006
p331
aVSEA @ SAC
p332
aVL
p333
aI13
aI2
aI6
aF0.333
aI0
aI1
aF0.0
aI1
aI1
aF1.0
aI1
aI1
aI2
aI0
aI0
aI0
aI0
aI3
aI5
aI4
aa(lp334
V0020501009
p335
aVMAR 22, 2006
p336
aVSEA vs. MIL
p337
aVW
p338
aI16
aI2
aI5
aF0.4
aI0
aI0
aF0.0
aI2
aI2
aF1.0
aI0
aI2
aI2
aI1
aI0
aI0
aI0
aI1
aI6
aI-9
aa(lp339
V0020501024
p340
aVMAR 24, 2006
p341
aVSEA @ DEN
p342
aVL
p343
aI17
aI2
aI6
aF0.333
aI0
aI0
aF0.0
aI1
aI2
aF0.5
aI1
aI0
aI1
aI1
aI0
aI0
aI0
aI1
aI5
aI-1
aa(lp344
V0020501039
p345
aVMAR 26, 2006
p346
aVSEA vs. SAS
p347
aVW
p348
aI10
aI1
aI2
aF0.5
aI0
aI0
aF0.0
aI0
aI0
aF0.0
aI0
aI0
aI0
aI0
aI0
aI0
aI1
aI1
aI2
aI4
aa(lp349
V0020501050
p350
aVMAR 28, 2006
p351
aVSEA @ MEM
p352
aVW
p353
aI15
aI2
aI3
aF0.667
aI0
aI0
aF0.0
aI0
aI0
aF0.0
aI1
aI1
aI2
aI2
aI0
aI0
aI0
aI1
aI4
aI14
aa(lp354
V0020501061
p355
aVMAR 29, 2006
p356
aVSEA @ HOU
p357
aVL
p358
aI28
aI3
aI11
aF0.273
aI0
aI0
aF0.0
aI5
aI6
aF0.833
aI4
aI0
aI4
aI1
aI2
aI0
aI1
aI3
aI11
aI-23
aa(lp359
V0020501078
p360
aVMAR 31, 2006
p361
aVSEA vs. LAL
p362
aVL
p363
aI14
aI1
aI4
aF0.25
aI0
aI0
aF0.0
aI0
aI0
aF0.0
aI1
aI0
aI1
aI0
aI0
aI0
aI3
aI1
aI2
aI-11
aa(lp364
V0020501094
p365
aVAPR 02, 2006
p366
aVSEA vs. POR
p367
aVW
p368
aI29
aI9
aI11
aF0.818
aI2
aI3
aF0.667
aI0
aI0
aF0.0
aI0
aI5
aI5
aI0
aI0
aI0
aI1
aI0
aI20
aI34
aa(lp369
V0020501106
p370
aVAPR 04, 2006
p371
aVSEA vs. HOU
p372
aVW
p373
aI21
aI2
aI7
aF0.286
aI0
aI0
aF0.0
aI0
aI0
aF0.0
aI2
aI3
aI5
aI6
aI3
aI0
aI0
aI1
aI4
aI15
aa(lp374
V0020501129
p375
aVAPR 07, 2006
p376
aVSEA @ POR
p377
aVW
p378
aI37
aI5
aI13
aF0.385
aI0
aI1
aF0.0
aI0
aI0
aF0.0
aI2
aI0
aI2
aI4
aI3
aI0
aI1
aI1
aI10
aI9
aa(lp379
V0020501147
p380
aVAPR 09, 2006
p381
aVSEA vs. PHX
p382
aVW
p383
aI16
aI1
aI4
aF0.25
aI0
aI1
aF0.0
aI0
aI0
aF0.0
aI0
aI0
aI0
aI0
aI1
aI0
aI1
aI1
aI2
aI1
aa(lp384
V0020501159
p385
aVAPR 11, 2006
p386
aVSEA @ SAS
p387
aVL
p388
aI14
aI0
aI3
aF0.0
aI0
aI1
aF0.0
aI0
aI0
aF0.0
aI2
aI0
aI2
aI1
aI0
aI0
aI0
aI1
aI0
aI-1
aa(lp389
V0020501169
p390
aVAPR 12, 2006
p391
aVSEA @ NOK
p392
aVL
p393
aI9
aI1
aI2
aF0.5
aI1
aI1
aF1.0
aI2
aI2
aF1.0
aI0
aI0
aI0
aI0
aI1
aI0
aI1
aI2
aI5
aI-4
aa(lp394
V0020501187
p395
aVAPR 14, 2006
p396
aVSEA vs. LAC
p397
aVL
p398
aI13
aI2
aI5
aF0.4
aI0
aI1
aF0.0
aI0
aI0
aF0.0
aI2
aI1
aI3
aI1
aI0
aI0
aI2
aI1
aI4
aI15
aa(lp399
V0020501201
p400
aVAPR 16, 2006
p401
aVSEA @ LAC
p402
aVW
p403
aI19
aI1
aI3
aF0.333
aI0
aI0
aF0.0
aI4
aI6
aF0.667
aI0
aI2
aI2
aI1
aI0
aI0
aI0
aI1
aI6
aI-2
aa(lp404
V0020501216
p405
aVAPR 18, 2006
p406
aVSEA @ SAC
p407
aVL
p408
aI12
aI1
aI1
aF1.0
aI0
aI0
aF0.0
aI0
aI0
aF0.0
aI0
aI0
aI0
aI0
aI0
aI0
aI1
aI0
aI2
aI-10
aa(lp409
V0020501230
p410
aVAPR 19, 2006
p411
aVSEA vs. DEN
p412
aVW
p413
aI15
aI2
aI8
aF0.25
aI0
aI0
aF0.0
aI2
aI2
aF1.0
aI1
aI0
aI1
aI1
aI0
aI1
aI1
aI1
aI6
aI-6
aasS'name'
p414
VDamien Wilkins
p415
sS'experience'
p416
I1
s.