(dp0
S'age'
p1
I38
sS'stats'
p2
(lp3
(lp4
V0020500108
p5
aVNOV 15, 2005
p6
aVMIL @ LAC
p7
aVL
p8
aI6
aI0
aI0
aF0.0
aI0
aI0
aF0.0
aI0
aI0
aF0.0
aI0
aI1
aI1
aI1
aI0
aI0
aI0
aI2
aI0
aI7
aa(lp9
V0020500147
p10
aVNOV 21, 2005
p11
aVMIL @ UTA
p12
aVL
p13
aI13
aI0
aI0
aF0.0
aI0
aI0
aF0.0
aI0
aI0
aF0.0
aI0
aI2
aI2
aI0
aI1
aI1
aI0
aI3
aI0
aI8
aa(lp14
V0020500233
p15
aVDEC 03, 2005
p16
aVMIL vs. ORL
p17
aVW
p18
aI1
aI0
aI0
aF0.0
aI0
aI0
aF0.0
aI0
aI0
aF0.0
aI0
aI0
aI0
aI0
aI0
aI0
aI0
aI1
aI0
aI-1
aa(lp19
V0020500296
p20
aVDEC 12, 2005
p21
aVMIL @ NYK
p22
aVW
p23
aI3
aI1
aI2
aF0.5
aI0
aI0
aF0.0
aI0
aI0
aF0.0
aI0
aI1
aI1
aI0
aI0
aI0
aI1
aI1
aI2
aI-4
aa(lp24
V0020500313
p25
aVDEC 14, 2005
p26
aVMIL vs. MIA
p27
aVL
p28
aI7
aI0
aI2
aF0.0
aI0
aI0
aF0.0
aI0
aI0
aF0.0
aI1
aI3
aI4
aI0
aI0
aI0
aI1
aI1
aI0
aI-3
aa(lp29
V0020500356
p30
aVDEC 20, 2005
p31
aVMIL vs. SAS
p32
aVW
p33
aI6
aI1
aI2
aF0.5
aI0
aI0
aF0.0
aI0
aI0
aF0.0
aI1
aI0
aI1
aI0
aI0
aI0
aI0
aI2
aI2
aI-7
aa(lp34
V0020500399
p35
aVDEC 27, 2005
p36
aVMIL @ MIA
p37
aVL
p38
aI10
aI1
aI1
aF1.0
aI0
aI0
aF0.0
aI0
aI0
aF0.0
aI2
aI2
aI4
aI0
aI0
aI0
aI0
aI3
aI2
aI-8
aa(lp39
V0020500504
p40
aVJAN 11, 2006
p41
aVMIL @ IND
p42
aVL
p43
aI2
aI0
aI1
aF0.0
aI0
aI0
aF0.0
aI0
aI0
aF0.0
aI0
aI1
aI1
aI0
aI0
aI1
aI0
aI0
aI0
aI-5
aa(lp44
V0020500546
p45
aVJAN 16, 2006
p46
aVMIL @ DAL
p47
aVL
p48
aI4
aI0
aI0
aF0.0
aI0
aI0
aF0.0
aI0
aI0
aF0.0
aI0
aI1
aI1
aI0
aI0
aI0
aI1
aI0
aI0
aI3
aa(lp49
V0020500558
p50
aVJAN 18, 2006
p51
aVMIL @ SAS
p52
aVL
p53
aI1
aI0
aI0
aF0.0
aI0
aI0
aF0.0
aI0
aI0
aF0.0
aI0
aI0
aI0
aI0
aI0
aI0
aI0
aI0
aI0
aI-1
aa(lp54
V0020500627
p55
aVJAN 27, 2006
p56
aVMIL vs. TOR
p57
aVW
p58
aI3
aI0
aI0
aF0.0
aI0
aI0
aF0.0
aI0
aI0
aF0.0
aI0
aI0
aI0
aI0
aI0
aI0
aI0
aI1
aI0
aI-1
aa(lp59
V0020500747
p60
aVFEB 12, 2006
p61
aVMIL @ NJN
p62
aVL
p63
aI3
aI1
aI1
aF1.0
aI0
aI0
aF0.0
aI0
aI0
aF0.0
aI0
aI0
aI0
aI0
aI0
aI0
aI0
aI0
aI2
aI1
aa(lp64
V0020500761
p65
aVFEB 14, 2006
p66
aVMIL vs. SEA
p67
aVW
p68
aI5
aI1
aI4
aF0.25
aI0
aI0
aF0.0
aI0
aI0
aF0.0
aI1
aI2
aI3
aI0
aI0
aI0
aI0
aI1
aI2
aI-6
aa(lp69
V0020500835
p70
aVFEB 27, 2006
p71
aVMIL @ DEN
p72
aVW
p73
aI2
aI1
aI1
aF1.0
aI0
aI0
aF0.0
aI0
aI0
aF0.0
aI0
aI2
aI2
aI0
aI0
aI0
aI0
aI2
aI2
aI3
aa(lp74
V0020501049
p75
aVMAR 28, 2006
p76
aVMIL vs. PHX
p77
aVW
p78
aI2
aI0
aI0
aF0.0
aI0
aI0
aF0.0
aI0
aI0
aF0.0
aI0
aI1
aI1
aI1
aI0
aI0
aI0
aI1
aI0
aI-2
aa(lp79
V0020501100
p80
aVAPR 04, 2006
p81
aVMIL @ MIA
p82
aVL
p83
aI6
aI1
aI1
aF1.0
aI0
aI0
aF0.0
aI0
aI0
aF0.0
aI0
aI2
aI2
aI0
aI0
aI0
aI0
aI3
aI2
aI-8
aa(lp84
V0020501180
p85
aVAPR 14, 2006
p86
aVMIL @ NYK
p87
aVW
p88
aI4
aI0
aI1
aF0.0
aI0
aI0
aF0.0
aI1
aI2
aF0.5
aI0
aI1
aI1
aI0
aI0
aI0
aI1
aI2
aI1
aI-9
aa(lp89
V0020501207
p90
aVAPR 17, 2006
p91
aVMIL vs. DET
p92
aVW
p93
aI4
aI0
aI1
aF0.0
aI0
aI0
aF0.0
aI0
aI0
aF0.0
aI0
aI0
aI0
aI0
aI0
aI0
aI1
aI0
aI0
aI-2
aasS'name'
p94
VErvin Johnson
p95
sS'experience'
p96
I12
s.