(dp0
S'stats'
p1
(lp2
(lp3
V0020500007
p4
aVNOV 02, 2005
p5
aVNYK @ BOS
p6
aVL
p7
aI45
aI8
aI18
aF0.444
aI1
aI2
aF0.5
aI5
aI12
aF0.417
aI0
aI3
aI3
aI7
aI1
aI0
aI5
aI5
aI22
aI-7
aa(lp8
V0020500024
p9
aVNOV 04, 2005
p10
aVNYK vs. WAS
p11
aVL
p12
aI41
aI5
aI12
aF0.417
aI2
aI3
aF0.667
aI7
aI10
aF0.7
aI2
aI3
aI5
aI3
aI1
aI0
aI3
aI1
aI19
aI-12
aa(lp13
V0020500043
p14
aVNOV 06, 2005
p15
aVNYK vs. GSW
p16
aVL
p17
aI41
aI6
aI16
aF0.375
aI0
aI2
aF0.0
aI3
aI6
aF0.5
aI0
aI3
aI3
aI6
aI0
aI0
aI2
aI3
aI15
aI-1
aa(lp18
V0020500066
p19
aVNOV 09, 2005
p20
aVNYK @ POR
p21
aVL
p22
aI37
aI3
aI8
aF0.375
aI1
aI1
aF1.0
aI6
aI8
aF0.75
aI0
aI0
aI0
aI4
aI0
aI0
aI5
aI1
aI13
aI-9
aa(lp23
V0020500079
p24
aVNOV 11, 2005
p25
aVNYK @ GSW
p26
aVL
p27
aI40
aI10
aI17
aF0.588
aI1
aI4
aF0.25
aI1
aI4
aF0.25
aI0
aI7
aI7
aI4
aI0
aI0
aI0
aI1
aI22
aI3
aa(lp28
V0020500094
p29
aVNOV 13, 2005
p30
aVNYK @ SAC
p31
aVW
p32
aI39
aI7
aI11
aF0.636
aI0
aI1
aF0.0
aI3
aI6
aF0.5
aI0
aI2
aI2
aI7
aI2
aI0
aI6
aI4
aI17
aI9
aa(lp33
V0020500096
p34
aVNOV 14, 2005
p35
aVNYK @ UTA
p36
aVW
p37
aI41
aI4
aI10
aF0.4
aI0
aI0
aF0.0
aI2
aI4
aF0.5
aI1
aI4
aI5
aI5
aI2
aI0
aI0
aI2
aI10
aI14
aa(lp38
V0020500114
p39
aVNOV 16, 2005
p40
aVNYK @ LAL
p41
aVL
p42
aI36
aI2
aI9
aF0.222
aI0
aI1
aF0.0
aI0
aI0
aF0.0
aI0
aI2
aI2
aI10
aI2
aI0
aI3
aI2
aI4
aI-10
aa(lp43
V0020500125
p44
aVNOV 18, 2005
p45
aVNYK @ DEN
p46
aVL
p47
aI31
aI4
aI11
aF0.364
aI0
aI1
aF0.0
aI1
aI1
aF1.0
aI1
aI2
aI3
aI9
aI1
aI0
aI0
aI1
aI9
aI-22
aa(lp48
V0020500139
p49
aVNOV 20, 2005
p50
aVNYK vs. POR
p51
aVW
p52
aI41
aI9
aI16
aF0.563
aI0
aI3
aF0.0
aI9
aI11
aF0.818
aI0
aI1
aI1
aI8
aI1
aI0
aI3
aI3
aI27
aI2
aa(lp53
V0020500158
p54
aVNOV 23, 2005
p55
aVNYK @ CHA
p56
aVL
p57
aI36
aI7
aI10
aF0.7
aI0
aI0
aF0.0
aI7
aI9
aF0.778
aI0
aI5
aI5
aI8
aI0
aI0
aI6
aI3
aI21
aI-11
aa(lp58
V0020500182
p59
aVNOV 26, 2005
p60
aVNYK vs. PHI
p61
aVW
p62
aI44
aI14
aI26
aF0.538
aI1
aI1
aF1.0
aI4
aI4
aF1.0
aI2
aI3
aI5
aI6
aI0
aI1
aI3
aI4
aI33
aI5
aa(lp63
V0020500195
p64
aVNOV 28, 2005
p65
aVNYK @ MIA
p66
aVL
p67
aI34
aI6
aI14
aF0.429
aI0
aI1
aF0.0
aI7
aI9
aF0.778
aI1
aI2
aI3
aI6
aI1
aI0
aI2
aI1
aI19
aI-22
aa(lp68
V0020500212
p69
aVNOV 30, 2005
p70
aVNYK vs. CHI
p71
aVW
p72
aI38
aI3
aI9
aF0.333
aI0
aI0
aF0.0
aI12
aI14
aF0.857
aI0
aI5
aI5
aI8
aI3
aI0
aI2
aI4
aI18
aI15
aa(lp73
V0020500222
p74
aVDEC 02, 2005
p75
aVNYK @ DET
p76
aVL
p77
aI41
aI4
aI15
aF0.267
aI0
aI1
aF0.0
aI3
aI4
aF0.75
aI0
aI3
aI3
aI11
aI1
aI0
aI2
aI5
aI11
aI-15
aa(lp78
V0020500239
p79
aVDEC 04, 2005
p80
aVNYK vs. BOS
p81
aVL
p82
aI46
aI9
aI22
aF0.409
aI0
aI0
aF0.0
aI17
aI21
aF0.81
aI1
aI4
aI5
aI9
aI1
aI0
aI5
aI2
aI35
aI-5
aa(lp83
V0020500257
p84
aVDEC 06, 2005
p85
aVNYK @ SEA
p86
aVW
p87
aI36
aI4
aI11
aF0.364
aI0
aI0
aF0.0
aI8
aI10
aF0.8
aI2
aI2
aI4
aI8
aI2
aI1
aI5
aI4
aI16
aI-6
aa(lp88
V0020500266
p89
aVDEC 07, 2005
p90
aVNYK @ LAC
p91
aVL
p92
aI42
aI3
aI16
aF0.188
aI0
aI0
aF0.0
aI6
aI6
aF1.0
aI1
aI5
aI6
aI2
aI2
aI0
aI1
aI4
aI12
aI0
aa(lp93
V0020500277
p94
aVDEC 09, 2005
p95
aVNYK @ PHX
p96
aVL
p97
aI42
aI13
aI24
aF0.542
aI0
aI2
aF0.0
aI2
aI3
aF0.667
aI2
aI4
aI6
aI3
aI3
aI0
aI2
aI3
aI28
aI-3
aa(lp98
V0020500296
p99
aVDEC 12, 2005
p100
aVNYK vs. MIL
p101
aVL
p102
aI36
aI3
aI8
aF0.375
aI0
aI3
aF0.0
aI1
aI1
aF1.0
aI0
aI1
aI1
aI7
aI0
aI0
aI3
aI2
aI7
aI-13
aa(lp103
V0020500311
p104
aVDEC 14, 2005
p105
aVNYK vs. ORL
p106
aVL
p107
aI32
aI5
aI10
aF0.5
aI0
aI1
aF0.0
aI3
aI3
aF1.0
aI1
aI3
aI4
aI3
aI0
aI0
aI4
aI3
aI13
aI5
aa(lp108
V0020500324
p109
aVDEC 16, 2005
p110
aVNYK @ ATL
p111
aVL
p112
aI40
aI9
aI13
aF0.692
aI0
aI1
aF0.0
aI3
aI5
aF0.6
aI0
aI1
aI1
aI4
aI3
aI0
aI4
aI3
aI21
aI-16
aa(lp113
V0020500334
p114
aVDEC 17, 2005
p115
aVNYK vs. IND
p116
aVL
p117
aI42
aI8
aI23
aF0.348
aI1
aI4
aF0.25
aI8
aI9
aF0.889
aI2
aI4
aI6
aI5
aI4
aI0
aI2
aI4
aI25
aI-13
aa(lp118
V0020500364
p119
aVDEC 21, 2005
p120
aVNYK vs. SAS
p121
aVL
p122
aI35
aI3
aI7
aF0.429
aI0
aI1
aF0.0
aI8
aI10
aF0.8
aI0
aI4
aI4
aI7
aI0
aI0
aI3
aI2
aI14
aI-28
aa(lp123
V0020500373
p124
aVDEC 23, 2005
p125
aVNYK vs. UTA
p126
aVW
p127
aI41
aI6
aI12
aF0.5
aI0
aI0
aF0.0
aI10
aI12
aF0.833
aI0
aI0
aI0
aI7
aI2
aI0
aI2
aI2
aI22
aI11
aa(lp128
V0020500390
p129
aVDEC 26, 2005
p130
aVNYK vs. NJN
p131
aVL
p132
aI31
aI8
aI17
aF0.471
aI2
aI5
aF0.4
aI3
aI4
aF0.75
aI1
aI1
aI2
aI5
aI1
aI0
aI5
aI2
aI21
aI-6
aa(lp133
V0020500407
p134
aVDEC 28, 2005
p135
aVNYK @ ORL
p136
aVL
p137
aI40
aI0
aI7
aF0.0
aI0
aI0
aF0.0
aI5
aI6
aF0.833
aI0
aI2
aI2
aI3
aI0
aI0
aI2
aI1
aI5
aI-7
aa(lp138
V0020500422
p139
aVDEC 30, 2005
p140
aVNYK @ MIL
p141
aVL
p142
aI40
aI7
aI15
aF0.467
aI0
aI2
aF0.0
aI9
aI10
aF0.9
aI1
aI1
aI2
aI12
aI3
aI0
aI4
aI3
aI23
aI-9
aa(lp143
V0020500438
p144
aVJAN 02, 2006
p145
aVNYK vs. PHX
p146
aVW
p147
aI55
aI13
aI28
aF0.464
aI1
aI4
aF0.25
aI5
aI7
aF0.714
aI1
aI4
aI5
aI10
aI1
aI0
aI6
aI5
aI32
aI14
aa(lp148
V0020500462
p149
aVJAN 06, 2006
p150
aVNYK vs. WAS
p151
aVW
p152
aI38
aI8
aI16
aF0.5
aI0
aI2
aF0.0
aI0
aI0
aF0.0
aI0
aI2
aI2
aI11
aI1
aI0
aI1
aI1
aI16
aI18
aa(lp153
V0020500482
p154
aVJAN 08, 2006
p155
aVNYK vs. SEA
p156
aVW
p157
aI44
aI8
aI21
aF0.381
aI0
aI4
aF0.0
aI7
aI10
aF0.7
aI0
aI1
aI1
aI15
aI4
aI0
aI1
aI2
aI23
aI5
aa(lp158
V0020500492
p159
aVJAN 10, 2006
p160
aVNYK @ CLE
p161
aVW
p162
aI43
aI8
aI12
aF0.667
aI0
aI1
aF0.0
aI6
aI6
aF1.0
aI0
aI5
aI5
aI5
aI0
aI1
aI1
aI2
aI22
aI9
aa(lp163
V0020500503
p164
aVJAN 11, 2006
p165
aVNYK vs. DAL
p166
aVW
p167
aI43
aI8
aI21
aF0.381
aI2
aI5
aF0.4
aI10
aI10
aF1.0
aI0
aI4
aI4
aI6
aI0
aI0
aI3
aI3
aI28
aI3
aa(lp168
V0020500514
p169
aVJAN 13, 2006
p170
aVNYK vs. ATL
p171
aVW
p172
aI41
aI8
aI16
aF0.5
aI1
aI1
aF1.0
aI2
aI3
aF0.667
aI1
aI4
aI5
aI9
aI4
aI0
aI3
aI2
aI19
aI15
aa(lp173
V0020500533
p174
aVJAN 15, 2006
p175
aVNYK @ TOR
p176
aVL
p177
aI33
aI7
aI12
aF0.583
aI0
aI1
aF0.0
aI4
aI4
aF1.0
aI0
aI3
aI3
aI13
aI0
aI0
aI1
aI1
aI18
aI-9
aa(lp178
V0020500536
p179
aVJAN 16, 2006
p180
aVNYK vs. MIN
p181
aVL
p182
aI33
aI7
aI16
aF0.438
aI2
aI3
aF0.667
aI4
aI4
aF1.0
aI0
aI0
aI0
aI5
aI0
aI0
aI2
aI1
aI20
aI-7
aa(lp183
V0020500607
p184
aVJAN 25, 2006
p185
aVNYK vs. SAC
p186
aVL
p187
aI44
aI10
aI18
aF0.556
aI0
aI3
aF0.0
aI2
aI2
aF1.0
aI0
aI5
aI5
aI6
aI0
aI0
aI4
aI3
aI22
aI-4
aa(lp188
V0020500622
p189
aVJAN 27, 2006
p190
aVNYK vs. ORL
p191
aVW
p192
aI38
aI2
aI6
aF0.333
aI0
aI1
aF0.0
aI4
aI6
aF0.667
aI0
aI2
aI2
aI7
aI2
aI0
aI3
aI3
aI8
aI6
aa(lp193
V0020500633
p194
aVJAN 28, 2006
p195
aVNYK @ PHI
p196
aVL
p197
aI42
aI4
aI10
aF0.4
aI2
aI4
aF0.5
aI4
aI5
aF0.8
aI0
aI6
aI6
aI8
aI0
aI0
aI4
aI1
aI14
aI-8
aa(lp198
V0020500647
p199
aVJAN 30, 2006
p200
aVNYK @ ATL
p201
aVL
p202
aI29
aI4
aI9
aF0.444
aI0
aI0
aF0.0
aI0
aI0
aF0.0
aI0
aI1
aI1
aI4
aI0
aI0
aI2
aI1
aI8
aI-11
aa(lp203
V0020500658
p204
aVJAN 31, 2006
p205
aVNYK vs. LAL
p206
aVL
p207
aI26
aI4
aI11
aF0.364
aI2
aI4
aF0.5
aI2
aI2
aF1.0
aI0
aI1
aI1
aI6
aI1
aI0
aI2
aI1
aI12
aI-22
aa(lp208
V0020500794
p209
aVFEB 22, 2006
p210
aVNYK vs. MIA
p211
aVL
p212
aI30
aI2
aI11
aF0.182
aI0
aI0
aF0.0
aI3
aI4
aF0.75
aI0
aI4
aI4
aI4
aI0
aI0
aI1
aI2
aI7
aI-7
aa(lp213
V0020500806
p214
aVFEB 24, 2006
p215
aVNYK vs. NJN
p216
aVL
p217
aI36
aI2
aI9
aF0.222
aI0
aI1
aF0.0
aI2
aI6
aF0.333
aI0
aI3
aI3
aI3
aI1
aI0
aI1
aI2
aI6
aI3
aa(lp218
V0020500816
p219
aVFEB 25, 2006
p220
aVNYK @ WAS
p221
aVL
p222
aI20
aI6
aI8
aF0.75
aI2
aI2
aF1.0
aI1
aI2
aF0.5
aI0
aI1
aI1
aI2
aI0
aI0
aI0
aI0
aI15
aI-29
aa(lp223
V0020500834
p224
aVFEB 27, 2006
p225
aVNYK @ SAS
p226
aVL
p227
aI25
aI1
aI9
aF0.111
aI0
aI0
aF0.0
aI0
aI0
aF0.0
aI1
aI1
aI2
aI3
aI0
aI0
aI3
aI3
aI2
aI-25
aa(lp228
V0020500846
p229
aVMAR 01, 2006
p230
aVNYK @ MEM
p231
aVL
p232
aI38
aI8
aI11
aF0.727
aI2
aI2
aF1.0
aI7
aI8
aF0.875
aI0
aI1
aI1
aI13
aI1
aI0
aI1
aI1
aI25
aI-5
aa(lp233
V0020500860
p234
aVMAR 03, 2006
p235
aVNYK vs. CHI
p236
aVL
p237
aI41
aI5
aI16
aF0.313
aI2
aI4
aF0.5
aI3
aI3
aF1.0
aI0
aI1
aI1
aI4
aI3
aI0
aI1
aI3
aI15
aI-5
aa(lp238
V0020500870
p239
aVMAR 04, 2006
p240
aVNYK @ MIL
p241
aVW
p242
aI37
aI4
aI9
aF0.444
aI0
aI2
aF0.0
aI0
aI2
aF0.0
aI0
aI3
aI3
aI11
aI1
aI0
aI1
aI1
aI8
aI10
aa(lp243
V0020500892
p244
aVMAR 07, 2006
p245
aVNYK @ IND
p246
aVW
p247
aI32
aI4
aI8
aF0.5
aI2
aI2
aF1.0
aI0
aI0
aF0.0
aI0
aI3
aI3
aI3
aI0
aI0
aI4
aI2
aI10
aI9
aa(lp248
V0020500922
p249
aVMAR 11, 2006
p250
aVNYK @ CHA
p251
aVL
p252
aI30
aI6
aI10
aF0.6
aI0
aI0
aF0.0
aI6
aI7
aF0.857
aI1
aI1
aI2
aI7
aI1
aI0
aI1
aI5
aI18
aI-6
aa(lp253
V0020500937
p254
aVMAR 13, 2006
p255
aVNYK vs. DEN
p256
aVL
p257
aI36
aI11
aI17
aF0.647
aI2
aI5
aF0.4
aI1
aI1
aF1.0
aI2
aI2
aI4
aI7
aI1
aI0
aI1
aI1
aI25
aI-1
aa(lp258
V0020500955
p259
aVMAR 15, 2006
p260
aVNYK vs. ATL
p261
aVW
p262
aI30
aI2
aI7
aF0.286
aI0
aI1
aF0.0
aI4
aI10
aF0.4
aI0
aI2
aI2
aI6
aI1
aI0
aI2
aI1
aI8
aI-7
aa(lp263
V0020500969
p264
aVMAR 17, 2006
p265
aVNYK vs. DET
p266
aVW
p267
aI31
aI5
aI9
aF0.556
aI0
aI0
aF0.0
aI2
aI2
aF1.0
aI0
aI2
aI2
aI3
aI1
aI0
aI7
aI4
aI12
aI8
aa(lp268
V0020500987
p269
aVMAR 19, 2006
p270
aVNYK vs. MIA
p271
aVL
p272
aI38
aI6
aI13
aF0.462
aI0
aI1
aF0.0
aI0
aI1
aF0.0
aI0
aI4
aI4
aI7
aI2
aI0
aI1
aI4
aI12
aI-2
aa(lp273
V0020500993
p274
aVMAR 21, 2006
p275
aVNYK vs. TOR
p276
aVL
p277
aI35
aI5
aI10
aF0.5
aI0
aI1
aF0.0
aI4
aI7
aF0.571
aI1
aI2
aI3
aI6
aI0
aI0
aI2
aI3
aI14
aI-5
aa(lp278
V0020501003
p279
aVMAR 22, 2006
p280
aVNYK @ ORL
p281
aVL
p282
aI34
aI4
aI10
aF0.4
aI1
aI3
aF0.333
aI3
aI3
aF1.0
aI0
aI1
aI1
aI5
aI1
aI0
aI5
aI1
aI12
aI-21
aa(lp283
V0020501020
p284
aVMAR 24, 2006
p285
aVNYK vs. MEM
p286
aVL
p287
aI24
aI3
aI6
aF0.5
aI2
aI3
aF0.667
aI0
aI0
aF0.0
aI0
aI0
aI0
aI2
aI1
aI0
aI3
aI3
aI8
aI-8
aa(lp288
V0020501034
p289
aVMAR 26, 2006
p290
aVNYK @ MIN
p291
aVL
p292
aI36
aI4
aI9
aF0.444
aI1
aI2
aF0.5
aI3
aI4
aF0.75
aI0
aI1
aI1
aI9
aI0
aI1
aI4
aI4
aI12
aI-5
aa(lp293
V0020501059
p294
aVMAR 29, 2006
p295
aVNYK vs. BOS
p296
aVL
p297
aI25
aI8
aI15
aF0.533
aI0
aI2
aF0.0
aI3
aI3
aF1.0
aI0
aI2
aI2
aI3
aI0
aI0
aI1
aI2
aI19
aI-28
aa(lp298
V0020501070
p299
aVMAR 31, 2006
p300
aVNYK vs. PHI
p301
aVL
p302
aI9
aI2
aI4
aF0.5
aI0
aI0
aF0.0
aI1
aI2
aF0.5
aI0
aI1
aI1
aI2
aI0
aI0
aI1
aI0
aI5
aI3
aasS'name'
p303
VStephon Marbury
p304
sS'weight'
p305
V205
p306
sS'age'
p307
I28
sS'experience'
p308
I9
sS'height'
p309
V6-2
p310
sS'position'
p311
VGuard
p312
s.