(dp0
Vresource
p1
Vleaguedashplayerstats
p2
sVresultSets
p3
(lp4
(dp5
Vheaders
p6
(lp7
VPLAYER_ID
p8
aVPLAYER_NAME
p9
aVTEAM_ID
p10
aVTEAM_ABBREVIATION
p11
aVAGE
p12
aVGP
p13
aVW
p14
aVL
p15
aVW_PCT
p16
aVMIN
p17
aVFGM
p18
aVFGA
p19
aVFG_PCT
p20
aVFG3M
p21
aVFG3A
p22
aVFG3_PCT
p23
aVFTM
p24
aVFTA
p25
aVFT_PCT
p26
aVOREB
p27
aVDREB
p28
aVREB
p29
aVAST
p30
aVTOV
p31
aVSTL
p32
aVBLK
p33
aVBLKA
p34
aVPF
p35
aVPFD
p36
aVPTS
p37
aVPLUS_MINUS
p38
aVDD2
p39
aVTD3
p40
aVCFID
p41
aVCFPARAMS
p42
asVrowSet
p43
(lp44
(lp45
I243
aVAaron McKie
p46
aI1610612747
aVLAL
p47
aF34.0
aI10
aI4
aI6
aF0.4
aF13.1
aF1.1
aF1.7
aF0.647
aF0.0
aF0.0
aF0.0
aF0.0
aF0.0
aF0.0
aF0.1
aF1.7
aF1.8
aF1.3
aF0.8
aF0.4
aF0.0
aF0.0
aF1.4
aF0.1
aF2.2
aF-1.2
aI0
aI0
aI5
aV243,1610612747
p48
aa(lp49
I1425
aVAaron Williams
p50
aI1610612746
aVLAC
p51
aF35.0
aI38
aI15
aI23
aF0.395
aF9.8
aF0.8
aF1.4
aF0.547
aF0.0
aF0.0
aF0.0
aF0.5
aF0.6
aF0.818
aF0.7
aF1.5
aF2.2
aF0.2
aF0.5
aF0.2
aF0.4
aF0.1
aF1.5
aF0.7
aF2.0
aF-0.4
aI0
aI0
aI5
aV1425,1610612746
p52
aa(lp53
I200747
aVAdam Morrison
p54
aI1610612766
aVCHA
p55
aF22.0
aI78
aI30
aI48
aF0.385
aF29.8
aF4.6
aF12.1
aF0.376
aF1.1
aF3.3
aF0.337
aF1.5
aF2.2
aF0.71
aF0.7
aF2.3
aF2.9
aF2.1
aF1.7
aF0.4
aF0.1
aF0.5
aF2.3
aF1.9
aF11.8
aF-3.1
aI0
aI0
aI5
aV200747,1610612766
p56
aa(lp57
I1502
aVAdonal Foyle
p58
aI1610612744
aVGSW
p59
aF32.0
aI48
aI19
aI29
aF0.396
aF9.9
aF1.0
aF1.8
aF0.565
aF0.0
aF0.0
aF0.0
aF0.2
aF0.5
aF0.44
aF1.1
aF1.6
aF2.6
aF0.4
aF0.5
aF0.2
aF1.0
aF0.1
aF1.3
aF0.5
aF2.2
aF-1.0
aI0
aI0
aI5
aV1502,1610612744
p60
aa(lp61
I1559
aVAdrian Griffin
p62
aI1610612741
aVCHI
p63
aF32.0
aI54
aI32
aI22
aF0.593
aF10.8
aF1.1
aF2.4
aF0.473
aF0.0
aF0.1
aF0.0
aF0.3
aF0.4
aF0.789
aF0.7
aF1.3
aF2.0
aF1.1
aF0.7
aF0.6
aF0.1
aF0.2
aF1.4
aF0.3
aF2.5
aF1.4
aI0
aI0
aI5
aV1559,1610612741
p64
aa(lp65
I1733
aVAl Harrington
p66
aI1610612744
aVGSW
p67
aF27.0
aI78
aI42
aI36
aF0.538
aF32.9
aF6.3
aF13.9
aF0.457
aF1.6
aF3.8
aF0.433
aF2.2
aF3.1
aF0.694
aF1.9
aF4.4
aF6.4
aF1.9
aF2.2
aF0.8
aF0.3
aF0.8
aF3.4
aF3.0
aF16.5
aF-0.3
aI8
aI0
aI5
aV1733,1610612744
p68
aa(lp69
I2744
aVAl Jefferson
p70
aI1610612738
aVBOS
p71
aF22.0
aI69
aI20
aI49
aF0.29
aF33.6
aF6.6
aF12.8
aF0.514
aF0.0
aF0.0
aF0.0
aF2.9
aF4.3
aF0.681
aF3.4
aF7.5
aF11.0
aF1.3
aF2.0
aF0.7
aF1.5
aF1.3
aF3.4
aF3.4
aF16.0
aF-2.4
aI38
aI0
aI5
aV2744,1610612738
p72
aa(lp73
I101187
aVAlan Anderson
p74
aI1610612766
aVCHA
p75
aF24.0
aI17
aI7
aI10
aF0.412
aF15.0
aF2.2
aF4.8
aF0.457
aF0.3
aF1.2
aF0.25
aF1.1
aF1.4
aF0.826
aF0.6
aF1.2
aF1.9
aF1.2
aF1.3
aF0.4
aF0.0
aF0.3
aF1.9
aF1.4
aF5.8
aF-1.0
aI0
aI0
aI5
aV101187,1610612766
p76
aa(lp77
I673
aVAlan Henderson
p78
aI1610612755
aVPHI
p79
aF34.0
aI38
aI9
aI29
aF0.237
aF11.0
aF1.1
aF1.8
aF0.642
aF0.0
aF0.0
aF0.0
aF0.9
aF1.2
aF0.702
aF1.3
aF1.6
aF2.8
aF0.3
aF0.3
aF0.2
aF0.3
aF0.1
aF1.6
aF1.2
aF3.1
aF0.0
aI0
aI0
aI5
aV673,1610612755
p80
aa(lp81
I200792
aVAlexander Johnson
p82
aI1610612763
aVMEM
p83
aF24.0
aI59
aI15
aI44
aF0.254
aF12.8
aF1.5
aF2.9
aF0.538
aF0.0
aF0.0
aF0.0
aF1.3
aF2.0
aF0.661
aF0.8
aF2.2
aF3.1
aF0.3
aF0.8
aF0.4
aF0.6
aF0.3
aF2.3
aF1.7
aF4.4
aF-0.2
aI3
aI0
aI5
aV200792,1610612763
p84
aa(lp85
I200810
aVAllan Ray
p86
aI1610612738
aVBOS
p87
aF23.0
aI47
aI9
aI38
aF0.191
aF15.1
aF2.1
aF5.5
aF0.386
aF1.0
aF2.5
aF0.414
aF0.9
aF1.2
aF0.764
aF0.4
aF1.1
aF1.5
aF0.9
aF0.9
aF0.4
aF0.1
aF0.3
aF1.8
aF1.0
aF6.2
aF-0.3
aI0
aI0
aI5
aV200810,1610612738
p88
aa(lp89
I947
aVAllen Iverson
p90
aI1610612743
aVDEN
p91
aF32.0
aI65
aI31
aI34
aF0.477
aF42.5
aF8.9
aF20.2
aF0.442
aF1.0
aF3.0
aF0.315
aF7.5
aF9.4
aF0.795
aF0.4
aF2.6
aF3.0
aF7.2
aF4.1
aF1.9
aF0.2
aF1.0
aF1.5
aF7.5
aF26.3
aF-0.1
aI17
aI0
aI5
aV947,1610612743
p92
aa(lp93
I297
aVAlonzo Mourning
p94
aI1610612748
aVMIA
p95
aF37.0
aI77
aI43
aI34
aF0.558
aF20.4
aF3.1
aF5.5
aF0.56
aF0.0
aF0.0
aF0.0
aF2.4
aF4.0
aF0.601
aF1.6
aF2.9
aF4.5
aF0.2
aF1.7
aF0.2
aF2.3
aF0.5
aF2.8
aF3.3
aF8.6
aF-1.0
aI1
aI0
aI5
aV297,1610612748
p96
aa(lp97
I1541
aVAlvin Williams
p98
aI1610612746
aVLAC
p99
aF32.0
aI2
aI2
aI0
aF1.0
aF4.8
aF0.0
aF1.0
aF0.0
aF0.0
aF0.5
aF0.0
aF1.0
aF2.0
aF0.5
aF0.5
aF0.0
aF0.5
aF1.5
aF1.5
aF1.0
aF0.0
aF0.0
aF0.0
aF1.0
aF1.0
aF-4.0
aI0
aI0
aI5
aV1541,1610612746
p100
aa(lp101
I2405
aVAmar'e Stoudemire
p102
aI1610612756
aVPHX
p103
aF24.0
aI82
aI61
aI21
aF0.744
aF32.8
aF7.4
aF12.9
aF0.575
aF0.0
aF0.0
aF0.0
aF5.6
aF7.1
aF0.781
aF2.7
aF6.9
aF9.6
aF1.0
aF2.8
aF1.0
aF1.3
aF1.0
aF3.6
aF5.5
aF20.4
aF5.5
aI46
aI0
aI5
aV2405,1610612756
p104
aa(lp105
I101161
aVAmir Johnson
p106
aI1610612765
aVDET
p107
aF20.0
aI8
aI3
aI5
aF0.375
aF15.5
aF2.3
aF4.1
aF0.545
aF0.0
aF0.4
aF0.0
aF1.4
aF1.8
aF0.786
aF1.9
aF2.8
aF4.6
aF0.4
aF1.1
aF0.6
aF1.6
aF0.4
aF2.4
aF1.1
aF5.9
aF0.0
aI2
aI0
aI5
aV101161,1610612765
p108
aa(lp109
I2760
aVAnderson Varejao
p110
aI1610612739
aVCLE
p111
aF24.0
aI81
aI49
aI32
aF0.605
aF23.9
aF2.4
aF5.0
aF0.476
aF0.0
aF0.1
aF0.0
aF2.0
aF3.3
aF0.616
aF2.4
aF4.4
aF6.7
aF0.9
aF0.8
aF0.9
aF0.6
aF0.5
aF3.3
aF3.7
aF6.8
aF3.1
aI7
aI0
aI5
aV2760,1610612739
p112
aa(lp113
I101154
aVAndray Blatche
p114
aI1610612764
aVWAS
p115
aF20.0
aI56
aI27
aI29
aF0.482
aF12.2
aF1.5
aF3.5
aF0.437
aF0.1
aF0.5
aF0.148
aF0.5
aF0.9
aF0.612
aF1.4
aF2.0
aF3.4
aF0.7
aF0.9
aF0.3
aF0.6
aF0.4
aF1.7
aF0.9
aF3.7
aF-1.5
aI1
aI0
aI5
aV101154,1610612764
p116
aa(lp117
I2857
aVAndre Barrett
p118
aI1610612741
aVCHI
p119
aF25.0
aI6
aI5
aI1
aF0.833
aF4.8
aF0.7
aF1.3
aF0.5
aF0.0
aF0.0
aF0.0
aF0.0
aF0.0
aF0.0
aF0.2
aF0.7
aF0.8
aF1.2
aF0.7
aF0.0
aF0.0
aF0.2
aF0.7
aF0.2
aF1.3
aF-0.2
aI0
aI0
aI5
aV2857,1610612741
p120
aa(lp121
I2810
aVAndre Brown
p122
aI1610612760
aVSEA
p123
aF26.0
aI38
aI16
aI22
aF0.421
aF7.1
aF1.1
aF1.9
aF0.568
aF0.0
aF0.0
aF0.0
aF0.2
aF0.4
aF0.6
aF0.7
aF1.3
aF1.9
aF0.1
aF0.8
aF0.2
aF0.1
aF0.2
aF0.7
aF0.4
aF2.4
aF-0.3
aI0
aI0
aI5
aV2810,1610612760
p124
aa(lp125
I2738
aVAndre Iguodala
p126
aI1610612755
aVPHI
p127
aF23.0
aI76
aI30
aI46
aF0.395
aF40.3
aF5.8
aF13.0
aF0.447
aF0.6
aF2.0
aF0.31
aF5.9
aF7.3
aF0.82
aF1.0
aF4.7
aF5.7
aF5.7
aF3.4
aF2.0
aF0.4
aF0.5
aF2.6
aF5.2
aF18.2
aF-2.8
aI7
aI3
aI5
aV2738,1610612755
p128
aa(lp129
I1889
aVAndre Miller
p130
aI1610612755
aVPHI
p131
aF31.0
aI80
aI43
aI37
aF0.538
aF37.1
aF5.3
aF11.4
aF0.466
aF0.1
aF0.4
aF0.143
aF2.8
aF3.5
aF0.784
aF1.2
aF3.2
aF4.4
aF7.8
aF2.8
aF1.4
aF0.1
aF0.9
aF2.3
aF3.1
aF13.4
aF-0.3
aI19
aI1
aI5
aV1889,1610612755
p132
aa(lp133
I200745
aVAndrea Bargnani
p134
aI1610612761
aVTOR
p135
aF21.0
aI65
aI35
aI30
aF0.538
aF25.1
aF4.1
aF9.6
aF0.427
aF1.5
aF4.1
aF0.373
aF1.8
aF2.2
aF0.824
aF0.8
aF3.1
aF3.9
aF0.8
aF1.6
aF0.5
aF0.8
aF0.4
aF2.8
aF2.4
aF11.6
aF0.7
aI1
aI0
aI5
aV200745,1610612761
p136
aa(lp137
I2601
aVAndreas Glyniadakis
p138
aI1610612760
aVSEA
p139
aF25.0
aI13
aI3
aI10
aF0.231
aF6.2
aF0.6
aF1.3
aF0.471
aF0.0
aF0.0
aF0.0
aF0.1
aF0.2
aF0.5
aF0.2
aF0.5
aF0.6
aF0.1
aF0.7
aF0.0
aF0.0
aF0.1
aF1.5
aF0.2
aF1.3
aF-2.1
aI0
aI0
aI5
aV2601,1610612760
p140
aa(lp141
I1905
aVAndrei Kirilenko
p142
aI1610612762
aVUTA
p143
aF26.0
aI70
aI44
aI26
aF0.629
aF29.3
aF2.8
aF6.0
aF0.471
aF0.2
aF1.1
aF0.213
aF2.5
aF3.4
aF0.728
aF1.3
aF3.4
aF4.7
aF2.9
aF1.9
aF1.1
aF2.1
aF0.3
aF2.5
aF2.9
aF8.3
aF0.5
aI3
aI0
aI5
aV1905,1610612762
p144
aa(lp145
I2804
aVAndres Nocioni
p146
aI1610612741
aVCHI
p147
aF27.0
aI53
aI31
aI22
aF0.585
aF26.5
aF5.2
aF11.0
aF0.467
aF1.5
aF3.9
aF0.383
aF2.3
aF2.7
aF0.848
aF0.8
aF4.9
aF5.7
aF1.1
aF2.0
aF0.5
aF0.5
aF0.5
aF3.1
aF3.1
aF14.1
aF0.8
aI8
aI0
aI5
aV2804,1610612741
p148
aa(lp149
I101106
aVAndrew Bogut
p150
aI1610612749
aVMIL
p151
aF22.0
aI66
aI25
aI41
aF0.379
aF34.2
aF5.3
aF9.5
aF0.553
aF0.0
aF0.1
aF0.2
aF1.7
aF2.9
aF0.577
aF2.5
aF6.3
aF8.8
aF3.0
aF2.3
aF0.7
aF0.5
aF0.7
aF3.3
aF4.1
aF12.3
aF-2.0
aI19
aI0
aI5
aV101106,1610612749
p152
aa(lp153
I101115
aVAndrew Bynum
p154
aI1610612747
aVLAL
p155
aF19.0
aI82
aI42
aI40
aF0.512
aF21.9
aF3.0
aF5.4
aF0.558
aF0.0
aF0.0
aF0.0
aF1.7
aF2.6
aF0.668
aF1.7
aF4.2
aF5.9
aF1.1
aF1.4
aF0.1
aF1.6
aF0.5
aF3.0
aF2.0
aF7.8
aF-1.4
aI10
aI0
aI5
aV101115,1610612747
p156
aa(lp157
I2740
aVAndris Biedrins
p158
aI1610612744
aVGSW
p159
aF21.0
aI82
aI42
aI40
aF0.512
aF29.1
aF4.2
aF7.1
aF0.599
aF0.0
aF0.0
aF0.0
aF1.1
aF2.0
aF0.521
aF3.1
aF6.2
aF9.3
aF1.1
aF1.5
aF0.8
aF1.7
aF0.8
aF3.7
aF2.3
aF9.5
aF1.5
aI24
aI0
aI5
aV2740,1610612744
p160
aa(lp161
I1712
aVAntawn Jamison
p162
aI1610612764
aVWAS
p163
aF31.0
aI70
aI37
aI33
aF0.529
aF38.0
aF7.3
aF16.3
aF0.45
aF2.0
aF5.4
aF0.364
aF3.2
aF4.4
aF0.736
aF1.9
aF6.1
aF8.0
aF1.9
aF1.5
aF1.1
aF0.5
aF0.7
aF2.8
aF3.6
aF19.8
aF1.3
aI22
aI0
aI5
aV1712,1610612764
p164
aa(lp165
I1853
aVAnthony Carter
p166
aI1610612743
aVDEN
p167
aF32.0
aI2
aI2
aI0
aF1.0
aF18.6
aF1.5
aF4.0
aF0.375
aF0.0
aF1.0
aF0.0
aF0.0
aF0.0
aF0.0
aF0.0
aF1.5
aF1.5
aF5.5
aF3.0
aF0.0
aF0.5
aF0.0
aF2.0
aF0.5
aF3.0
aF3.0
aI0
aI0
aI5
aV1853,1610612743
p168
aa(lp169
I1533
aVAnthony Johnson
p170
aI1610612737
aVATL
p171
aF32.0
aI67
aI40
aI27
aF0.597
aF19.4
aF2.1
aF5.1
aF0.414
aF0.4
aF1.1
aF0.342
aF0.7
aF0.9
aF0.754
aF0.3
aF1.2
aF1.5
aF3.0
aF1.1
aF0.5
aF0.0
aF0.1
aF1.8
aF1.1
aF5.3
aF-1.9
aI0
aI0
aI5
aV1533,1610612737
p172
aa(lp173
I1515
aVAnthony Parker
p174
aI1610612761
aVTOR
p175
aF32.0
aI73
aI43
aI30
aF0.589
aF33.4
aF4.5
aF9.4
aF0.477
aF1.6
aF3.6
aF0.441
aF1.8
aF2.2
aF0.83
aF0.8
aF3.1
aF3.9
aF2.1
aF1.0
aF1.0
aF0.2
aF0.3
aF1.8
aF2.0
aF12.4
aF4.3
aI0
aI0
aI5
aV1515,1610612761
p176
aa(lp177
I101194
aVAnthony Roberson
p178
aI1610612744
aVGSW
p179
aF24.0
aI20
aI7
aI13
aF0.35
aF11.3
aF2.2
aF5.2
aF0.423
aF1.1
aF2.8
aF0.382
aF0.1
aF0.2
aF0.667
aF0.1
aF1.0
aF1.1
aF0.5
aF0.7
aF0.6
aF0.0
aF0.2
aF1.4
aF0.1
aF5.6
aF-2.8
aI0
aI0
aI5
aV101194,1610612744
p180
aa(lp181
I952
aVAntoine Walker
p182
aI1610612748
aVMIA
p183
aF30.0
aI78
aI42
aI36
aF0.538
aF23.3
aF3.4
aF8.6
aF0.397
aF1.1
aF3.9
aF0.275
aF0.6
aF1.3
aF0.438
aF1.2
aF3.2
aF4.3
aF1.7
aF1.8
aF0.6
aF0.2
aF0.6
aF2.2
aF1.3
aF8.5
aF-0.4
aI3
aI0
aI5
aV952,1610612748
p184
aa(lp185
I101120
aVAntoine Wright
p186
aI1610612751
aVNJN
p187
aF23.0
aI63
aI33
aI30
aF0.524
aF18.0
aF1.7
aF4.0
aF0.438
aF0.3
aF0.9
aF0.322
aF0.7
aF1.2
aF0.603
aF0.6
aF2.2
aF2.8
aF0.9
aF0.7
aF0.5
aF0.2
aF0.4
aF1.9
aF1.0
aF4.5
aF-2.9
aI1
aI0
aI5
aV101120,1610612751
p188
aa(lp189
I1498
aVAntonio Daniels
p190
aI1610612764
aVWAS
p191
aF32.0
aI80
aI41
aI39
aF0.513
aF22.0
aF2.2
aF4.9
aF0.442
aF0.2
aF0.8
aF0.302
aF2.6
aF3.1
aF0.832
aF0.2
aF1.7
aF1.9
aF3.6
aF0.9
aF0.5
aF0.1
aF0.4
aF1.0
aF2.6
aF7.1
aF-0.3
aI3
aI0
aI5
aV1498,1610612764
p192
aa(lp193
I686
aVAntonio McDyess
p194
aI1610612765
aVDET
p195
aF32.0
aI82
aI53
aI29
aF0.646
aF21.1
aF3.5
aF6.6
aF0.526
aF0.0
aF0.0
aF0.0
aF1.2
aF1.7
aF0.691
aF2.0
aF4.0
aF6.0
aF0.9
aF0.9
aF0.7
aF0.8
aF0.1
aF2.9
aF1.7
aF8.1
aF3.3
aI8
aI0
aI5
aV686,1610612765
p196
aa(lp197
I1506
aVAustin Croshere
p198
aI1610612742
aVDAL
p199
aF32.0
aI61
aI49
aI12
aF0.803
aF11.9
aF1.3
aF3.6
aF0.351
aF0.4
aF1.5
aF0.286
aF0.7
aF0.9
aF0.865
aF0.5
aF2.5
aF3.0
aF0.7
aF0.5
aF0.2
aF0.1
aF0.3
aF1.1
aF0.7
aF3.7
aF0.3
aI0
aI0
aI5
aV1506,1610612742
p200
aa(lp201
I1884
aVBaron Davis
p202
aI1610612744
aVGSW
p203
aF28.0
aI63
aI36
aI27
aF0.571
aF35.3
aF7.2
aF16.3
aF0.439
aF1.3
aF4.4
aF0.304
aF4.4
aF5.9
aF0.745
aF0.8
aF3.6
aF4.4
aF8.1
aF3.1
aF2.1
aF0.5
aF0.9
aF2.9
aF5.1
aF20.1
aF3.8
aI20
aI1
aI5
aV1884,1610612744
p204
aa(lp205
I2732
aVBen Gordon
p206
aI1610612741
aVCHI
p207
aF24.0
aI82
aI49
aI33
aF0.598
aF33.0
aF7.4
aF16.3
aF0.455
aF1.9
aF4.6
aF0.413
aF4.6
aF5.4
aF0.864
aF0.4
aF2.7
aF3.1
aF3.6
aF3.0
aF0.8
aF0.2
aF0.7
aF3.1
aF4.4
aF21.4
aF4.3
aI0
aI0
aI5
aV2732,1610612741
p208
aa(lp209
I1112
aVBen Wallace
p210
aI1610612741
aVCHI
p211
aF32.0
aI77
aI45
aI32
aF0.584
aF35.0
aF2.5
aF5.5
aF0.453
aF0.0
aF0.1
aF0.2
aF1.4
aF3.5
aF0.408
aF3.9
aF6.7
aF10.7
aF2.4
aF1.3
aF1.4
aF2.0
aF0.4
aF2.0
aF3.2
aF6.4
aF2.2
aI12
aI0
aI5
aV1112,1610612741
p212
aa(lp213
I2757
aVBeno Udrih
p214
aI1610612759
aVSAS
p215
aF24.0
aI73
aI53
aI20
aF0.726
aF13.0
aF1.7
aF4.7
aF0.369
aF0.5
aF1.6
aF0.287
aF0.7
aF0.8
aF0.883
aF0.2
aF1.0
aF1.1
aF1.7
aF0.8
aF0.4
aF0.0
aF0.3
aF1.0
aF0.8
aF4.7
aF0.2
aI0
aI0
aI5
aV2757,1610612759
p216
aa(lp217
I2774
aVBernard Robinson
p218
aI1610612751
aVNJN
p219
aF26.0
aI31
aI9
aI22
aF0.29
aF9.0
aF0.6
aF2.0
aF0.306
aF0.0
aF0.1
aF0.0
aF0.7
aF0.9
aF0.852
aF0.3
aF1.2
aF1.5
aF0.6
aF0.5
aF0.5
aF0.1
aF0.3
aF1.0
aF0.7
aF2.0
aF-2.2
aI0
aI0
aI5
aV2774,1610612751
p220
aa(lp221
I448
aVBo Outlaw
p222
aI1610612753
aVORL
p223
aF36.0
aI41
aI21
aI20
aF0.512
aF11.2
aF0.8
aF1.2
aF0.667
aF0.0
aF0.0
aF0.0
aF0.3
aF0.5
aF0.591
aF1.1
aF1.4
aF2.6
aF0.4
aF0.5
aF0.4
aF0.1
aF0.2
aF1.4
aF0.6
aF2.0
aF-0.1
aI0
aI0
aI5
aV448,1610612753
p224
aa(lp225
I1517
aVBobby Jackson
p226
aI1610612740
aVNOK
p227
aF34.0
aI56
aI30
aI26
aF0.536
aF23.7
aF3.6
aF9.3
aF0.394
aF1.0
aF2.9
aF0.327
aF2.3
aF3.0
aF0.774
aF0.8
aF2.4
aF3.2
aF2.5
aF1.4
aF0.9
aF0.1
aF0.6
aF1.8
aF2.3
aF10.6
aF0.6
aI0
aI0
aI5
aV1517,1610612740
p228
aa(lp229
I200784
aVBobby Jones
p230
aI1610612755
aVPHI
p231
aF23.0
aI44
aI15
aI29
aF0.341
aF7.6
aF1.0
aF2.1
aF0.462
aF0.0
aF0.2
aF0.111
aF0.5
aF0.9
aF0.561
aF0.5
aF0.8
aF1.3
aF0.4
aF0.4
aF0.3
aF0.0
aF0.1
aF1.3
aF0.8
aF2.5
aF0.8
aI0
aI0
aI5
aV200784,1610612755
p232
aa(lp233
I1719
aVBonzi Wells
p234
aI1610612745
aVHOU
p235
aF30.0
aI28
aI13
aI15
aF0.464
aF21.1
aF3.0
aF7.4
aF0.411
aF0.0
aF0.3
aF0.143
aF1.6
aF2.9
aF0.561
aF0.9
aF3.4
aF4.3
aF1.1
aF2.0
aF0.9
aF0.5
aF0.8
aF2.2
aF2.4
aF7.8
aF0.3
aI0
aI0
aI5
aV1719,1610612745
p236
aa(lp237
I2564
aVBoris Diaw
p238
aI1610612756
aVPHX
p239
aF25.0
aI73
aI55
aI18
aF0.753
aF31.1
aF4.2
aF7.8
aF0.538
aF0.2
aF0.6
aF0.333
aF1.1
aF1.6
aF0.683
aF1.2
aF3.1
aF4.3
aF4.8
aF2.1
aF0.4
aF0.5
aF0.4
aF2.4
aF2.2
aF9.7
aF2.8
aI6
aI1
aI5
aV2564,1610612756
p240
aa(lp241
I2411
aVBostjan Nachbar
p242
aI1610612751
aVNJN
p243
aF26.0
aI76
aI39
aI37
aF0.513
aF20.1
aF3.0
aF6.5
aF0.457
aF1.5
aF3.5
aF0.423
aF1.7
aF2.2
aF0.805
aF0.4
aF3.0
aF3.3
aF0.8
aF0.9
aF0.4
aF0.3
aF0.3
aF2.4
aF1.9
aF9.2
aF-0.3
aI1
aI0
aI5
aV2411,1610612751
p244
aa(lp245
I101152
aVBracey Wright
p246
aI1610612750
aVMIN
p247
aF22.0
aI19
aI6
aI13
aF0.316
aF10.0
aF1.3
aF3.2
aF0.4
aF0.3
aF1.1
aF0.3
aF0.7
aF0.9
aF0.722
aF0.4
aF0.7
aF1.1
aF0.8
aF0.3
aF0.5
aF0.1
aF0.2
aF0.3
aF0.8
aF3.5
aF2.7
aI0
aI0
aI5
aV101152,1610612750
p248
aa(lp249
I1802
aVBrad Miller
p250
aI1610612758
aVSAC
p251
aF31.0
aI63
aI26
aI37
aF0.413
aF28.3
aF3.6
aF7.8
aF0.453
aF0.1
aF0.5
aF0.152
aF1.8
aF2.4
aF0.772
aF1.3
aF5.1
aF6.4
aF3.6
aF1.7
aF0.6
aF0.6
aF0.4
aF2.5
aF2.1
aF9.0
aF1.4
aI3
aI1
aI5
aV1802,1610612758
p252
aa(lp253
I101138
aVBrandon Bass
p254
aI1610612740
aVNOK
p255
aF22.0
aI21
aI8
aI13
aF0.381
aF7.7
aF0.7
aF2.1
aF0.341
aF0.0
aF0.0
aF0.0
aF0.6
aF0.8
aF0.75
aF0.6
aF1.4
aF2.0
aF0.1
aF0.5
aF0.1
aF0.1
aF0.1
aF0.8
aF0.6
aF2.0
aF-0.9
aI0
aI0
aI5
aV101138,1610612740
p256
aa(lp257
I200750
aVBrandon Roy
p258
aI1610612757
aVPOR
p259
aF22.0
aI57
aI23
aI34
aF0.404
aF35.3
aF6.1
aF13.4
aF0.456
aF1.0
aF2.6
aF0.377
aF3.5
aF4.2
aF0.838
aF1.0
aF3.4
aF4.4
aF4.0
aF2.0
aF1.2
aF0.2
aF0.5
aF2.4
aF4.0
aF16.8
aF-3.4
aI4
aI0
aI5
aV200750,1610612757
p260
aa(lp261
I2217
aVBrendan Haywood
p262
aI1610612764
aVWAS
p263
aF27.0
aI77
aI39
aI38
aF0.506
aF22.6
aF2.6
aF4.6
aF0.558
aF0.0
aF0.0
aF0.0
aF1.5
aF2.7
aF0.548
aF2.5
aF3.7
aF6.2
aF0.6
aF1.2
aF0.4
aF1.1
aF0.4
aF2.7
aF2.4
aF6.6
aF0.8
aI7
aI0
aI5
aV2217,1610612764
p264
aa(lp265
I699
aVBrent Barry
p266
aI1610612759
aVSAS
p267
aF35.0
aI75
aI53
aI22
aF0.707
aF21.7
aF2.7
aF5.7
aF0.475
aF1.7
aF3.8
aF0.446
aF1.4
aF1.6
aF0.88
aF0.2
aF1.9
aF2.1
aF1.8
aF0.8
aF0.7
aF0.2
aF0.2
aF1.2
aF1.0
aF8.5
aF3.0
aI0
aI0
aI5
aV699,1610612759
p268
aa(lp269
I1510
aVBrevin Knight
p270
aI1610612766
aVCHA
p271
aF31.0
aI45
aI17
aI28
aF0.378
aF28.3
aF3.4
aF8.1
aF0.419
aF0.0
aF0.4
aF0.056
aF2.3
aF2.8
aF0.805
aF0.3
aF2.2
aF2.6
aF6.6
aF2.1
aF1.5
aF0.1
aF0.4
aF2.5
aF2.3
aF9.1
aF-2.0
aI2
aI0
aI5
aV1510,1610612766
p272
aa(lp273
I2073
aVBrian Cardinal
p274
aI1610612763
aVMEM
p275
aF30.0
aI28
aI6
aI22
aF0.214
aF11.2
aF1.5
aF3.0
aF0.494
aF0.6
aF1.6
aF0.409
aF0.9
aF1.0
aF0.926
aF0.5
aF1.6
aF2.1
aF1.1
aF0.8
aF0.8
aF0.0
aF0.1
aF1.5
aF1.2
aF4.5
aF-1.2
aI0
aI0
aI5
aV2073,1610612763
p276
aa(lp277
I2567
aVBrian Cook
p278
aI1610612747
aVLAL
p279
aF26.0
aI65
aI31
aI34
aF0.477
aF15.7
aF2.8
aF6.3
aF0.453
aF0.7
aF1.8
aF0.4
aF0.5
aF0.7
aF0.723
aF0.9
aF2.4
aF3.3
aF1.0
aF0.8
aF0.4
aF0.4
aF0.3
aF2.1
aF0.6
aF6.9
aF1.2
aI3
aI0
aI5
aV2567,1610612747
p280
aa(lp281
I2243
aVBrian Scalabrine
p282
aI1610612738
aVBOS
p283
aF29.0
aI54
aI19
aI35
aF0.352
aF19.0
aF1.4
aF3.5
aF0.403
aF0.8
aF2.0
aF0.4
aF0.3
aF0.4
aF0.783
aF0.4
aF1.5
aF1.9
aF1.1
aF0.8
aF0.4
aF0.3
aF0.1
aF2.4
aF0.6
aF4.0
aF-1.4
aI0
aI0
aI5
aV2243,1610612738
p284
aa(lp285
I1730
aVBrian Skinner
p286
aI1610612749
aVMIL
p287
aF31.0
aI67
aI22
aI45
aF0.328
aF22.7
aF1.9
aF3.8
aF0.49
aF0.0
aF0.0
aF0.0
aF0.7
aF1.2
aF0.582
aF1.6
aF4.2
aF5.7
aF0.9
aF1.1
aF0.3
aF1.0
aF0.4
aF2.9
aF1.1
aF4.4
aF-1.8
aI2
aI0
aI5
aV1730,1610612749
p288
aa(lp289
I1477
aVBruce Bowen
p290
aI1610612759
aVSAS
p291
aF36.0
aI82
aI58
aI24
aF0.707
aF30.0
aF2.3
aF5.7
aF0.405
aF1.1
aF2.8
aF0.384
aF0.5
aF0.9
aF0.589
aF0.3
aF2.4
aF2.7
aF1.4
aF0.8
aF0.8
aF0.3
aF0.1
aF2.1
aF1.3
aF6.2
aF7.2
aI0
aI0
aI5
aV1477,1610612759
p292
aa(lp293
I101139
aVCJ Miles
p294
aI1610612762
aVUTA
p295
aF20.0
aI37
aI23
aI14
aF0.622
aF10.1
aF1.1
aF3.1
aF0.345
aF0.2
aF0.9
aF0.219
aF0.4
aF0.6
aF0.609
aF0.3
aF0.6
aF0.9
aF0.7
aF0.8
aF0.3
aF0.1
aF0.2
aF1.6
aF0.5
aF2.7
aF-1.5
aI0
aI0
aI5
aV101139,1610612762
p296
aa(lp297
I1916
aVCalvin Booth
p298
aI1610612764
aVWAS
p299
aF31.0
aI44
aI22
aI22
aF0.5
aF8.6
aF0.7
aF1.5
aF0.47
aF0.0
aF0.0
aF0.5
aF0.1
aF0.2
aF0.6
aF0.6
aF1.2
aF1.8
aF0.4
aF0.2
aF0.1
aF0.7
aF0.0
aF1.6
aF0.5
aF1.6
aF1.0
aI1
aI0
aI5
aV1916,1610612764
p300
aa(lp301
I2306
aVCarlos Arroyo
p302
aI1610612753
aVORL
p303
aF27.0
aI72
aI36
aI36
aF0.5
aF18.1
aF2.8
aF6.6
aF0.425
aF0.2
aF0.7
aF0.275
aF1.8
aF2.3
aF0.795
aF0.4
aF1.4
aF1.9
aF2.8
aF1.3
aF0.5
aF0.0
aF0.4
aF1.8
aF2.0
aF7.7
aF0.6
aI0
aI0
aI5
aV2306,1610612753
p304
aa(lp305
I2430
aVCarlos Boozer
p306
aI1610612762
aVUTA
p307
aF25.0
aI74
aI45
aI29
aF0.608
aF34.6
aF8.7
aF15.6
aF0.561
aF0.0
aF0.0
aF0.0
aF3.4
aF5.0
aF0.685
aF3.2
aF8.5
aF11.7
aF3.0
aF2.6
aF0.9
aF0.3
aF1.2
aF2.9
aF3.7
aF20.9
aF2.2
aI53
aI0
aI5
aV2430,1610612762
p308
aa(lp309
I2568
aVCarlos Delfino
p310
aI1610612765
aVDET
p311
aF24.0
aI82
aI53
aI29
aF0.646
aF16.7
aF1.9
aF4.6
aF0.415
aF0.6
aF1.7
aF0.333
aF0.9
aF1.1
aF0.787
aF0.8
aF2.4
aF3.2
aF1.1
aF0.7
aF0.6
aF0.1
aF0.4
aF1.2
aF1.0
aF5.2
aF0.7
aI0
aI0
aI5
aV2568,1610612765
p312
aa(lp313
I2546
aVCarmelo Anthony
p314
aI1610612743
aVDEN
p315
aF23.0
aI65
aI37
aI28
aF0.569
aF38.2
aF10.6
aF22.4
aF0.476
aF0.6
aF2.3
aF0.268
aF7.1
aF8.7
aF0.808
aF2.2
aF3.8
aF6.0
aF3.8
aF3.6
aF1.2
aF0.4
aF1.6
aF3.1
aF5.9
aF28.9
aF1.4
aI4
aI1
aI5
aV2546,1610612743
p316
aa(lp317
I2406
aVCaron Butler
p318
aI1610612764
aVWAS
p319
aF27.0
aI63
aI37
aI26
aF0.587
aF39.3
aF7.2
aF15.5
aF0.463
aF0.3
aF1.1
aF0.25
aF4.5
aF5.2
aF0.863
aF2.3
aF5.1
aF7.4
aF3.7
aF2.9
aF2.1
aF0.3
aF1.0
aF3.0
aF3.6
aF19.1
aF0.9
aI21
aI0
aI5
aV2406,1610612764
p320
aa(lp321
I200841
aVCedric Bozeman
p322
aI1610612737
aVATL
p323
aF24.0
aI23
aI9
aI14
aF0.391
aF8.7
aF0.5
aF1.7
aF0.282
aF0.1
aF0.6
aF0.154
aF0.1
aF0.3
aF0.333
aF0.1
aF0.9
aF1.0
aF0.4
aF0.4
aF0.2
aF0.1
aF0.3
aF1.4
aF0.4
aF1.1
aF-1.2
aI0
aI0
aI5
aV200841,1610612737
p324
aa(lp325
I200759
aVCedric Simmons
p326
aI1610612740
aVNOK
p327
aF21.0
aI43
aI19
aI24
aF0.442
aF12.4
aF1.3
aF3.1
aF0.417
aF0.0
aF0.0
aF0.0
aF0.4
aF0.8
aF0.485
aF1.0
aF1.5
aF2.5
aF0.3
aF0.5
aF0.2
aF0.5
aF0.2
aF1.7
aF0.8
aF2.9
aF-2.3
aI0
aI0
aI5
aV200759,1610612740
p328
aa(lp329
I101112
aVChanning Frye
p330
aI1610612752
aVNYK
p331
aF24.0
aI72
aI29
aI43
aF0.403
aF26.3
aF4.1
aF9.6
aF0.433
aF0.0
aF0.3
aF0.167
aF1.2
aF1.5
aF0.787
aF1.3
aF4.2
aF5.5
aF0.9
aF1.4
aF0.5
aF0.6
aF0.3
aF3.0
aF1.6
aF9.5
aF-1.9
aI3
aI0
aI5
aV101112,1610612752
p332
aa(lp333
I101236
aVCharles Hayes
p334
aI1610612745
aVHOU
p335
aF24.0
aI78
aI50
aI28
aF0.641
aF22.0
aF2.5
aF4.3
aF0.573
aF0.0
aF0.0
aF0.0
aF0.7
aF1.1
aF0.618
aF2.6
aF4.1
aF6.7
aF0.6
aF0.8
aF0.9
aF0.2
aF0.4
aF3.6
aF1.2
aF5.6
aF4.1
aI4
aI0
aI5
aV101236,1610612745
p336
aa(lp337
I2294
aVCharlie Bell
p338
aI1610612749
aVMIL
p339
aF28.0
aI82
aI28
aI54
aF0.341
aF34.7
aF5.2
aF11.9
aF0.437
aF1.5
aF4.4
aF0.352
aF1.6
aF2.0
aF0.78
aF0.7
aF2.2
aF2.9
aF3.0
aF1.3
aF1.2
aF0.0
aF0.6
aF2.6
aF2.0
aF13.5
aF-3.0
aI0
aI0
aI5
aV2294,1610612749
p340
aa(lp341
I101111
aVCharlie Villanueva
p342
aI1610612749
aVMIL
p343
aF22.0
aI39
aI17
aI22
aF0.436
aF25.2
aF4.6
aF9.8
aF0.47
aF0.7
aF2.2
aF0.337
aF1.9
aF2.3
aF0.82
aF1.6
aF4.3
aF5.8
aF0.9
aF1.4
aF0.6
aF0.3
aF0.4
aF2.8
aF1.9
aF11.8
aF-0.3
aI6
aI0
aI5
aV101111,1610612749
p344
aa(lp345
I1497
aVChauncey Billups
p346
aI1610612765
aVDET
p347
aF30.0
aI70
aI48
aI22
aF0.686
aF36.2
aF5.0
aF11.6
aF0.427
aF1.6
aF4.5
aF0.345
aF5.5
aF6.2
aF0.883
aF0.3
aF3.1
aF3.4
aF7.2
aF2.0
aF1.2
aF0.2
aF0.4
aF2.3
aF4.6
aF17.0
aF5.2
aI16
aI0
aI5
aV1497,1610612765
p348
aa(lp349
I2547
aVChris Bosh
p350
aI1610612761
aVTOR
p351
aF23.0
aI69
aI41
aI28
aF0.594
aF38.5
aF7.9
aF15.9
aF0.496
aF0.2
aF0.5
aF0.343
aF6.7
aF8.6
aF0.785
aF2.7
aF8.0
aF10.7
aF2.5
aF2.6
aF0.6
aF1.3
aF1.0
aF2.4
aF6.5
aF22.6
aF2.7
aI42
aI0
aI5
aV2547,1610612761
p352
aa(lp353
I2768
aVChris Duhon
p354
aI1610612741
aVCHI
p355
aF24.0
aI78
aI46
aI32
aF0.59
aF24.4
aF2.5
aF6.2
aF0.408
aF1.1
aF3.1
aF0.359
aF1.0
aF1.3
aF0.752
aF0.3
aF1.9
aF2.2
aF4.0
aF1.3
aF0.9
aF0.1
aF0.4
aF1.9
aF1.4
aF7.2
aF2.1
aI1
aI0
aI5
aV2768,1610612741
p356
aa(lp357
I2549
aVChris Kaman
p358
aI1610612746
aVLAC
p359
aF25.0
aI75
aI38
aI37
aF0.507
aF29.0
aF3.9
aF8.7
aF0.451
aF0.0
aF0.0
aF0.0
aF2.2
aF3.0
aF0.741
aF2.1
aF5.7
aF7.8
aF1.1
aF2.0
aF0.5
aF1.5
aF0.6
aF3.3
aF2.5
aF10.1
aF-2.4
aI14
aI0
aI5
aV2549,1610612746
p360
aa(lp361
I200840
aVChris McCray
p362
aI1610612749
aVMIL
p363
aF23.0
aI5
aI1
aI4
aF0.2
aF2.4
aF0.0
aF0.6
aF0.0
aF0.0
aF0.0
aF0.0
aF0.0
aF0.0
aF0.0
aF0.0
aF0.0
aF0.0
aF0.0
aF0.4
aF0.0
aF0.0
aF0.0
aF0.2
aF0.0
aF0.0
aF-0.2
aI0
aI0
aI5
aV200840,1610612749
p364
aa(lp365
I101108
aVChris Paul
p366
aI1610612740
aVNOK
p367
aF22.0
aI64
aI31
aI33
aF0.484
aF36.8
aF6.0
aF13.6
aF0.437
aF0.8
aF2.2
aF0.35
aF4.6
aF5.6
aF0.818
aF0.8
aF3.5
aF4.4
aF8.9
aF2.5
aF1.8
aF0.0
aF0.8
aF2.4
aF5.0
aF17.3
aF-0.7
aI27
aI1
aI5
aV101108,1610612740
p368
aa(lp369
I200809
aVChris Quinn
p370
aI1610612748
aVMIA
p371
aF23.0
aI42
aI18
aI24
aF0.429
aF9.7
aF1.1
aF3.1
aF0.366
aF0.5
aF1.4
aF0.351
aF0.6
aF0.9
aF0.676
aF0.1
aF0.6
aF0.7
aF1.5
aF0.5
aF0.4
aF0.0
aF0.2
aF0.8
aF0.9
aF3.4
aF0.2
aI0
aI0
aI5
aV200809,1610612748
p372
aa(lp373
I185
aVChris Webber
p374
aI1610612765
aVDET
p375
aF34.0
aI61
aI35
aI26
aF0.574
aF29.9
aF4.7
aF10.5
aF0.452
aF0.1
aF0.2
aF0.364
aF1.7
aF2.6
aF0.638
aF2.0
aF5.1
aF7.2
aF3.1
aF1.8
aF1.0
aF0.7
aF0.4
aF2.3
aF2.1
aF11.2
aF1.7
aI13
aI0
aI5
aV185,1610612765
p376
aa(lp377
I2404
aVChris Wilcox
p378
aI1610612760
aVSEA
p379
aF24.0
aI82
aI31
aI51
aF0.378
aF31.5
aF5.3
aF10.0
aF0.529
aF0.0
aF0.1
aF0.0
aF2.9
aF4.3
aF0.684
aF2.2
aF5.5
aF7.7
aF1.0
aF1.5
aF0.9
aF0.5
aF0.6
aF3.0
aF3.2
aF13.5
aF-0.8
aI20
aI0
aI5
aV2404,1610612760
p380
aa(lp381
I1088
aVChucky Atkins
p382
aI1610612763
aVMEM
p383
aF32.0
aI75
aI20
aI55
aF0.267
aF27.5
aF4.1
aF9.5
aF0.434
aF1.5
aF4.1
aF0.379
aF3.4
aF4.1
aF0.81
aF0.2
aF1.6
aF1.9
aF4.6
aF1.7
aF0.7
aF0.1
aF0.4
aF1.8
aF3.1
aF13.2
aF-1.5
aI3
aI0
aI5
aV1088,1610612763
p384
aa(lp385
I361
aVClifford Robinson
p386
aI1610612751
aVNJN
p387
aF40.0
aI50
aI27
aI23
aF0.54
aF19.1
aF1.6
aF4.4
aF0.372
aF0.5
aF1.3
aF0.379
aF0.3
aF0.7
aF0.444
aF0.6
aF1.8
aF2.4
aF1.0
aF0.6
aF0.2
aF0.5
aF0.1
aF2.0
aF0.9
aF4.1
aF-4.6
aI0
aI0
aI5
aV361,1610612751
p388
aa(lp389
I1894
aVCorey Maggette
p390
aI1610612746
aVLAC
p391
aF27.0
aI75
aI37
aI38
aF0.493
aF30.5
aF4.9
aF10.8
aF0.454
aF0.2
aF0.9
aF0.2
aF6.9
aF8.4
aF0.82
aF1.2
aF4.7
aF5.9
aF2.8
aF2.7
aF0.9
aF0.2
aF0.9
aF3.3
aF5.7
aF16.9
aF1.2
aI9
aI0
aI5
aV1894,1610612746
p392
aa(lp393
I722
aVCorliss Williamson
p394
aI1610612758
aVSAC
p395
aF33.0
aI68
aI31
aI37
aF0.456
aF19.7
aF3.5
aF6.8
aF0.51
aF0.0
aF0.0
aF0.0
aF2.2
aF3.0
aF0.715
aF0.9
aF2.3
aF3.3
aF0.6
aF1.4
aF0.4
aF0.2
aF0.5
aF2.7
aF2.8
aF9.1
aF0.9
aI3
aI0
aI5
aV722,1610612758
p396
aa(lp397
I200783
aVCraig Smith
p398
aI1610612750
aVMIN
p399
aF23.0
aI82
aI32
aI50
aF0.39
aF18.7
aF3.0
aF5.6
aF0.531
aF0.0
aF0.1
aF0.0
aF1.4
aF2.3
aF0.624
aF1.8
aF3.2
aF5.1
aF0.6
aF0.9
aF0.6
aF0.2
aF0.5
aF2.7
aF2.0
aF7.4
aF-1.6
aI3
aI0
aI5
aV200783,1610612750
p400
aa(lp401
I1749
aVCuttino Mobley
p402
aI1610612746
aVLAC
p403
aF31.0
aI78
aI38
aI40
aF0.487
aF36.4
aF5.0
aF11.3
aF0.44
aF1.3
aF3.2
aF0.411
aF2.6
aF3.1
aF0.837
aF0.7
aF2.8
aF3.4
aF2.5
aF1.9
aF1.2
aF0.3
aF0.4
aF2.4
aF2.3
aF13.8
aF-0.3
aI0
aI0
aI5
aV1749,1610612746
p404
aa(lp405
I2788
aVDJ Mbenga
p406
aI1610612742
aVDAL
p407
aF26.0
aI21
aI18
aI3
aF0.857
aF3.7
aF0.2
aF0.8
aF0.313
aF0.0
aF0.0
aF0.0
aF0.3
aF0.4
aF0.875
aF0.1
aF0.4
aF0.5
aF0.3
aF0.2
aF0.1
aF0.2
aF0.0
aF0.8
aF0.2
aF0.8
aF-0.9
aI0
aI0
aI5
aV2788,1610612742
p408
aa(lp409
I2563
aVDahntay Jones
p410
aI1610612763
aVMEM
p411
aF26.0
aI78
aI21
aI57
aF0.269
aF21.4
aF2.8
aF5.9
aF0.477
aF0.1
aF0.2
aF0.417
aF1.8
aF2.2
aF0.793
aF0.6
aF1.4
aF2.0
aF0.9
aF1.2
aF0.5
aF0.3
aF0.5
aF2.5
aF1.9
aF7.5
aF-1.6
aI0
aI0
aI5
aV2563,1610612763
p412
aa(lp413
I2402
aVDajuan Wagner
p414
aI1610612744
aVGSW
p415
aF24.0
aI1
aI1
aI0
aF1.0
aF6.8
aF1.0
aF1.0
aF1.0
aF1.0
aF1.0
aF1.0
aF1.0
aF2.0
aF0.5
aF0.0
aF0.0
aF0.0
aF1.0
aF1.0
aF0.0
aF0.0
aF0.0
aF1.0
aF1.0
aF4.0
aF2.0
aI0
aI0
aI5
aV2402,1610612744
p416
aa(lp417
I905
aVDale Davis
p418
aI1610612765
aVDET
p419
aF38.0
aI46
aI32
aI14
aF0.696
aF10.1
aF0.7
aF1.6
aF0.446
aF0.0
aF0.0
aF0.0
aF0.4
aF0.6
aF0.654
aF1.3
aF1.7
aF3.0
aF0.3
aF0.3
aF0.2
aF0.7
aF0.1
aF1.3
aF0.5
aF1.8
aF1.1
aI1
aI0
aI5
aV905,1610612765
p420
aa(lp421
I2863
aVDamien Wilkins
p422
aI1610612760
aVSEA
p423
aF27.0
aI82
aI31
aI51
aF0.378
aF24.8
aF3.2
aF7.3
aF0.435
aF0.6
aF1.5
aF0.41
aF1.8
aF2.1
aF0.882
aF1.1
aF1.7
aF2.8
aF1.9
aF1.4
aF1.1
aF0.2
aF0.3
aF1.9
aF1.4
aF8.8
aF-3.0
aI0
aI0
aI5
aV2863,1610612760
p424
aa(lp425
I200806
aVDamir Markota
p426
aI1610612749
aVMIL
p427
aF21.0
aI30
aI7
aI23
aF0.233
aF5.7
aF0.6
aF1.7
aF0.365
aF0.2
aF0.5
aF0.375
aF0.2
aF0.4
aF0.636
aF0.4
aF0.7
aF1.0
aF0.2
aF0.5
aF0.1
aF0.0
aF0.2
aF0.7
aF0.4
aF1.7
aF-1.5
aI0
aI0
aI5
aV200806,1610612749
p428
aa(lp429
I1800
aVDamon Jones
p430
aI1610612739
aVCLE
p431
aF30.0
aI60
aI37
aI23
aF0.617
aF19.5
aF2.3
aF5.9
aF0.386
aF1.5
aF3.9
aF0.385
aF0.5
aF0.7
aF0.682
aF0.2
aF1.0
aF1.1
aF1.6
aF0.6
aF0.3
aF0.0
aF0.2
aF0.9
aF0.4
aF6.6
aF1.6
aI0
aI0
aI5
aV1800,1610612739
p432
aa(lp433
I757
aVDamon Stoudamire
p434
aI1610612763
aVMEM
p435
aF33.0
aI62
aI15
aI47
aF0.242
aF24.2
aF2.8
aF7.0
aF0.391
aF1.0
aF2.8
aF0.337
aF1.1
aF1.3
aF0.795
aF0.5
aF1.7
aF2.2
aF4.8
aF1.6
aF0.8
aF0.0
aF0.4
aF1.5
aF0.9
aF7.5
aF-3.7
aI2
aI0
aI5
aV757,1610612763
p436
aa(lp437
I2424
aVDan Dickau
p438
aI1610612757
aVPOR
p439
aF28.0
aI50
aI21
aI29
aF0.42
aF8.9
aF1.1
aF3.0
aF0.358
aF0.3
aF1.2
aF0.262
aF0.8
aF1.1
aF0.792
aF0.1
aF0.7
aF0.9
aF1.4
aF0.5
aF0.3
aF0.0
aF0.1
aF1.1
aF0.8
aF3.3
aF1.0
aI0
aI0
aI5
aV2424,1610612757
p440
aa(lp441
I2429
aVDan Gadzuric
p442
aI1610612749
aVMIL
p443
aF29.0
aI54
aI19
aI35
aF0.352
aF15.6
aF2.0
aF4.2
aF0.474
aF0.0
aF0.0
aF0.0
aF0.8
aF1.7
aF0.467
aF1.7
aF2.8
aF4.6
aF0.5
aF0.9
aF0.4
aF0.6
aF0.3
aF2.6
aF1.5
aF4.8
aF-1.9
aI4
aI0
aI5
aV2429,1610612749
p444
aa(lp445
I101137
aVDaniel Ewing
p446
aI1610612746
aVLAC
p447
aF24.0
aI61
aI30
aI31
aF0.492
aF11.7
aF1.1
aF2.6
aF0.404
aF0.2
aF0.7
aF0.318
aF0.6
aF0.7
aF0.778
aF0.1
aF1.0
aF1.2
aF1.5
aF0.8
aF0.5
aF0.1
aF0.2
aF1.0
aF0.7
aF2.9
aF0.8
aI0
aI0
aI5
aV101137,1610612746
p448
aa(lp449
I200789
aVDaniel Gibson
p450
aI1610612739
aVCLE
p451
aF21.0
aI60
aI33
aI27
aF0.55
aF16.5
aF1.6
aF3.9
aF0.424
aF0.9
aF2.1
aF0.419
aF0.5
aF0.7
aF0.718
aF0.5
aF1.1
aF1.5
aF1.2
aF0.7
aF0.4
aF0.1
aF0.2
aF1.6
aF0.7
aF4.6
aF1.4
aI0
aI0
aI5
aV200789,1610612739
p452
aa(lp453
I1504
aVDanny Fortson
p454
aI1610612760
aVSEA
p455
aF31.0
aI14
aI6
aI8
aF0.429
aF11.3
aF1.1
aF2.1
aF0.5
aF0.0
aF0.1
aF0.0
aF0.7
aF0.9
aF0.769
aF0.9
aF2.1
aF3.1
aF0.1
aF1.1
aF0.1
aF0.0
aF0.3
aF2.7
aF1.3
aF2.9
aF-0.5
aI0
aI0
aI5
aV1504,1610612760
p456
aa(lp457
I101122
aVDanny Granger
p458
aI1610612754
aVIND
p459
aF24.0
aI82
aI35
aI47
aF0.427
aF34.0
aF4.9
aF10.6
aF0.459
aF1.3
aF3.5
aF0.382
aF2.9
aF3.6
aF0.803
aF1.4
aF3.3
aF4.6
aF1.4
aF1.6
aF0.8
aF0.7
aF0.5
aF3.0
aF2.9
aF13.9
aF-1.7
aI3
aI0
aI5
aV101122,1610612754
p460
aa(lp461
I2443
aVDarius Songaila
p462
aI1610612764
aVWAS
p463
aF29.0
aI37
aI14
aI23
aF0.378
aF18.9
aF3.2
aF6.1
aF0.524
aF0.0
aF0.1
aF0.0
aF1.2
aF1.5
aF0.852
aF1.2
aF2.4
aF3.6
aF1.0
aF1.2
aF0.5
aF0.3
aF0.4
aF2.8
aF1.2
aF7.6
aF0.0
aI0
aI0
aI5
aV2443,1610612764
p464
aa(lp465
I2545
aVDarko Milicic
p466
aI1610612753
aVORL
p467
aF22.0
aI80
aI38
aI42
aF0.475
aF23.9
aF3.1
aF6.9
aF0.454
aF0.0
aF0.0
aF0.0
aF1.8
aF2.9
aF0.613
aF1.8
aF3.7
aF5.5
aF1.1
aF1.6
aF0.6
aF1.8
aF0.5
aF2.7
aF2.3
aF8.0
aF0.0
aI6
aI0
aI5
aV2545,1610612753
p468
aa(lp469
I353
aVDarrell Armstrong
p470
aI1610612754
aVIND
p471
aF39.0
aI81
aI34
aI47
aF0.42
aF15.7
aF1.9
aF4.7
aF0.414
aF0.9
aF2.6
aF0.336
aF0.9
aF1.1
aF0.785
aF0.4
aF1.2
aF1.7
aF2.4
aF0.9
aF0.9
aF0.1
aF0.1
aF1.3
aF1.2
aF5.6
aF-0.6
aI1
aI0
aI5
aV353,1610612754
p472
aa(lp473
I239
aVDarrick Martin
p474
aI1610612761
aVTOR
p475
aF36.0
aI31
aI16
aI15
aF0.516
aF7.1
aF1.1
aF3.0
aF0.351
aF0.4
aF1.2
aF0.351
aF0.5
aF0.7
aF0.714
aF0.1
aF0.3
aF0.4
aF1.4
aF0.4
aF0.1
aF0.0
aF0.2
aF0.7
aF0.6
aF3.0
aF-0.6
aI0
aI0
aI5
aV239,1610612761
p476
aa(lp477
I2758
aVDavid Harrison
p478
aI1610612754
aVIND
p479
aF24.0
aI24
aI8
aI16
aF0.333
aF7.9
aF1.3
aF2.4
aF0.517
aF0.0
aF0.0
aF0.0
aF0.5
aF0.9
aF0.5
aF0.4
aF1.4
aF1.8
aF0.3
aF1.1
aF0.2
aF0.5
aF0.3
aF2.0
aF1.2
aF3.0
aF-1.9
aI0
aI0
aI5
aV2758,1610612754
p480
aa(lp481
I101135
aVDavid Lee
p482
aI1610612752
aVNYK
p483
aF24.0
aI58
aI26
aI32
aF0.448
aF29.8
aF4.1
aF6.9
aF0.6
aF0.0
aF0.0
aF0.0
aF2.4
aF3.0
aF0.815
aF3.4
aF7.0
aF10.4
aF1.8
aF1.6
aF0.8
aF0.4
aF0.7
aF2.7
aF2.5
aF10.7
aF1.4
aI29
aI0
aI5
aV101135,1610612752
p484
aa(lp485
I200786
aVDavid Noel
p486
aI1610612749
aVMIL
p487
aF23.0
aI68
aI22
aI46
aF0.324
aF11.6
aF1.0
aF2.6
aF0.367
aF0.3
aF0.8
aF0.321
aF0.5
aF0.6
aF0.86
aF0.6
aF1.2
aF1.8
aF1.0
aF0.6
aF0.4
aF0.1
aF0.1
aF1.1
aF0.6
aF2.7
aF-2.6
aI0
aI0
aI5
aV200786,1610612749
p488
aa(lp489
I133
aVDavid Wesley
p490
aI1610612739
aVCLE
p491
aF36.0
aI35
aI20
aI15
aF0.571
aF10.1
aF0.6
aF2.1
aF0.293
aF0.3
aF1.1
aF0.237
aF0.6
aF0.8
aF0.714
aF0.1
aF0.9
aF1.0
aF1.1
aF0.5
aF0.3
aF0.1
aF0.1
aF0.9
aF0.7
aF2.1
aF-0.3
aI0
aI0
aI5
aV133,1610612739
p492
aa(lp493
I2561
aVDavid West
p494
aI1610612740
aVNOK
p495
aF26.0
aI52
aI28
aI24
aF0.538
aF36.5
aF7.3
aF15.2
aF0.476
aF0.2
aF0.5
aF0.32
aF3.6
aF4.4
aF0.824
aF2.4
aF5.7
aF8.2
aF2.2
aF1.9
aF0.8
aF0.7
aF1.0
aF2.8
aF3.6
aF18.3
aF0.7
aI15
aI0
aI5
aV2561,1610612740
p496
aa(lp497
I2205
aVDeSagana Diop
p498
aI1610612742
aVDAL
p499
aF25.0
aI81
aI66
aI15
aF0.815
aF18.3
aF0.9
aF1.9
aF0.47
aF0.0
aF0.0
aF0.0
aF0.6
aF1.1
aF0.558
aF2.0
aF3.4
aF5.4
aF0.4
aF0.8
aF0.5
aF1.4
aF0.3
aF3.0
aF0.9
aF2.3
aF1.1
aI1
aI0
aI5
aV2205,1610612742
p500
aa(lp501
I2052
aVDeShawn Stevenson
p502
aI1610612764
aVWAS
p503
aF26.0
aI82
aI41
aI41
aF0.5
aF29.5
aF4.2
aF9.2
aF0.461
aF0.9
aF2.2
aF0.404
aF1.9
aF2.6
aF0.704
aF0.7
aF2.0
aF2.6
aF2.7
aF1.5
aF0.8
aF0.2
aF0.5
aF1.9
aF2.0
aF11.2
aF-0.8
aI1
aI0
aI5
aV2052,1610612764
p504
aa(lp505
I200793
aVDee Brown
p506
aI1610612762
aVUTA
p507
aF22.0
aI49
aI29
aI20
aF0.592
aF9.2
aF0.7
aF2.0
aF0.327
aF0.1
aF0.6
aF0.214
aF0.5
aF0.8
aF0.649
aF0.2
aF0.7
aF0.8
aF1.7
aF0.6
aF0.4
aF0.1
aF0.1
aF1.0
aF0.6
aF1.9
aF0.4
aI0
aI0
aI5
aV200793,1610612762
p508
aa(lp509
I2753
aVDelonte West
p510
aI1610612738
aVBOS
p511
aF23.0
aI69
aI23
aI46
aF0.333
aF32.2
aF4.4
aF10.4
aF0.427
aF0.9
aF2.6
aF0.365
aF2.4
aF2.9
aF0.853
aF0.5
aF2.6
aF3.0
aF4.4
aF2.0
aF1.1
aF0.5
aF0.5
aF2.2
aF2.1
aF12.2
aF-3.7
aI5
aI0
aI5
aV2753,1610612738
p512
aa(lp513
I2035
aVDerMarr Johnson
p514
aI1610612743
aVDEN
p515
aF27.0
aI39
aI22
aI17
aF0.564
aF10.7
aF1.3
aF3.9
aF0.325
aF0.5
aF2.3
aF0.216
aF0.4
aF0.5
aF0.762
aF0.3
aF1.2
aF1.5
aF0.4
aF0.7
aF0.4
aF0.3
aF0.2
aF1.0
aF0.4
aF3.5
aF-1.3
aI0
aI0
aI5
aV2035,1610612743
p516
aa(lp517
I1507
aVDerek Anderson
p518
aI1610612766
aVCHA
p519
aF32.0
aI50
aI20
aI30
aF0.4
aF23.8
aF2.5
aF5.9
aF0.429
aF1.1
aF3.0
aF0.355
aF1.9
aF2.1
aF0.877
aF0.6
aF1.7
aF2.3
aF2.7
aF1.1
aF1.0
aF0.1
aF0.1
aF2.3
aF1.8
aF8.0
aF0.4
aI1
aI0
aI5
aV1507,1610612766
p520
aa(lp521
I965
aVDerek Fisher
p522
aI1610612762
aVUTA
p523
aF32.0
aI82
aI51
aI31
aF0.622
aF27.9
aF3.1
aF8.2
aF0.382
aF0.6
aF1.9
aF0.308
aF3.2
aF3.7
aF0.853
aF0.4
aF1.5
aF1.8
aF3.3
aF1.5
aF1.0
aF0.1
aF0.5
aF2.9
aF3.0
aF10.1
aF1.9
aI1
aI0
aI5
aV965,1610612762
p524
aa(lp525
I101114
aVDeron Williams
p526
aI1610612762
aVUTA
p527
aF23.0
aI80
aI51
aI29
aF0.638
aF36.9
aF6.2
aF13.5
aF0.456
aF1.0
aF3.2
aF0.322
aF2.8
aF3.7
aF0.767
aF0.5
aF2.8
aF3.3
aF9.3
aF3.1
aF1.0
aF0.2
aF1.1
aF3.2
aF3.1
aF16.2
aF1.9
aI30
aI0
aI5
aV101114,1610612762
p528
aa(lp529
I2824
aVDesmon Farmer
p530
aI1610612760
aVSEA
p531
aF25.0
aI8
aI2
aI6
aF0.25
aF4.0
aF0.6
aF1.9
aF0.333
aF0.3
aF1.0
aF0.25
aF0.1
aF0.1
aF1.0
aF0.0
aF0.1
aF0.1
aF1.1
aF0.1
aF0.1
aF0.0
aF0.0
aF0.3
aF0.1
aF1.6
aF2.0
aI0
aI0
aI5
aV2824,1610612760
p532
aa(lp533
I2046
aVDesmond Mason
p534
aI1610612740
aVNOK
p535
aF29.0
aI75
aI35
aI40
aF0.467
aF34.3
aF5.4
aF12.0
aF0.452
aF0.0
aF0.0
aF0.0
aF2.9
aF4.3
aF0.663
aF1.7
aF2.9
aF4.6
aF1.5
aF2.6
aF0.7
aF0.3
aF1.1
aF2.3
aF4.1
aF13.7
aF-2.0
aI2
aI0
aI5
aV2046,1610612740
p536
aa(lp537
I1904
aVDevean George
p538
aI1610612742
aVDAL
p539
aF29.0
aI60
aI49
aI11
aF0.817
aF21.4
aF2.4
aF6.2
aF0.395
aF0.9
aF2.5
aF0.353
aF0.6
aF0.8
aF0.75
aF1.0
aF2.6
aF3.6
aF0.6
aF0.9
aF0.8
aF0.4
aF0.2
aF2.4
aF0.9
aF6.4
aF1.3
aI0
aI0
aI5
aV1904,1610612742
p540
aa(lp541
I2484
aVDevin Brown
p542
aI1610612740
aVNOK
p543
aF28.0
aI58
aI29
aI29
aF0.5
aF28.7
aF4.0
aF9.6
aF0.42
aF1.4
aF3.9
aF0.357
aF2.1
aF2.7
aF0.794
aF0.9
aF3.4
aF4.3
aF2.6
aF1.6
aF0.8
aF0.2
aF0.6
aF2.4
aF2.2
aF11.6
aF-0.2
aI2
aI0
aI5
aV2484,1610612740
p544
aa(lp545
I2734
aVDevin Harris
p546
aI1610612742
aVDAL
p547
aF24.0
aI80
aI65
aI15
aF0.813
aF26.0
aF3.7
aF7.4
aF0.492
aF0.2
aF0.6
aF0.28
aF2.7
aF3.3
aF0.824
aF0.6
aF1.9
aF2.5
aF3.7
aF1.8
aF1.2
aF0.3
aF0.7
aF3.0
aF3.8
aF10.2
aF7.1
aI0
aI0
aI5
aV2734,1610612742
p548
aa(lp549
I101159
aVDijon Thompson
p550
aI1610612737
aVATL
p551
aF24.0
aI6
aI1
aI5
aF0.167
aF8.4
aF1.0
aF2.5
aF0.4
aF0.0
aF0.3
aF0.0
aF0.8
aF1.0
aF0.833
aF0.5
aF0.8
aF1.3
aF0.3
aF0.2
aF0.0
aF0.0
aF0.3
aF0.3
aF0.8
aF2.8
aF-1.5
aI0
aI0
aI5
aV101159,1610612737
p552
aa(lp553
I87
aVDikembe Mutombo
p554
aI1610612745
aVHOU
p555
aF41.0
aI75
aI49
aI26
aF0.653
aF17.2
aF1.1
aF2.0
aF0.556
aF0.0
aF0.0
aF0.0
aF0.8
aF1.2
aF0.69
aF2.2
aF4.3
aF6.5
aF0.2
aF0.5
aF0.3
aF1.0
aF0.1
aF2.1
aF1.1
aF3.1
aF1.3
aI3
aI0
aI5
aV87,1610612745
p556
aa(lp557
I1717
aVDirk Nowitzki
p558
aI1610612742
aVDAL
p559
aF29.0
aI78
aI64
aI14
aF0.821
aF36.2
aF8.6
aF17.2
aF0.502
aF0.9
aF2.2
aF0.416
aF6.4
aF7.1
aF0.904
aF1.6
aF7.3
aF8.9
aF3.4
aF2.1
aF0.7
aF0.8
aF0.6
aF2.2
aF5.4
aF24.6
aF8.0
aI41
aI0
aI5
aV1717,1610612742
p560
aa(lp561
I101182
aVDonell Taylor
p562
aI1610612764
aVWAS
p563
aF24.0
aI47
aI21
aI26
aF0.447
aF7.8
aF1.2
aF3.0
aF0.4
aF0.1
aF0.4
aF0.176
aF0.2
aF0.4
aF0.524
aF0.3
aF0.8
aF1.1
aF1.0
aF0.5
aF0.4
aF0.1
aF0.1
aF0.7
aF0.4
aF2.7
aF-2.0
aI0
aI0
aI5
aV101182,1610612764
p564
aa(lp565
I923
aVDonyell Marshall
p566
aI1610612739
aVCLE
p567
aF34.0
aI81
aI49
aI32
aF0.605
aF16.8
aF2.6
aF6.1
aF0.424
aF1.2
aF3.3
aF0.351
aF0.7
aF1.0
aF0.663
aF1.1
aF2.9
aF4.0
aF0.6
aF0.8
aF0.5
aF0.5
aF0.2
aF1.6
aF0.9
aF7.0
aF1.9
aI2
aI0
aI5
aV923,1610612739
p568
aa(lp569
I2748
aVDorell Wright
p570
aI1610612748
aVMIA
p571
aF21.0
aI66
aI32
aI34
aF0.485
aF19.6
aF2.5
aF5.5
aF0.445
aF0.1
aF0.5
aF0.147
aF1.0
aF1.3
aF0.744
aF0.6
aF3.5
aF4.1
aF1.4
aF1.0
aF0.6
aF0.7
aF0.3
aF1.7
aF1.1
aF6.0
aF-2.4
aI4
aI0
aI5
aV2748,1610612748
p572
aa(lp573
I57
aVDoug Christie
p574
aI1610612746
aVLAC
p575
aF37.0
aI7
aI2
aI5
aF0.286
aF11.7
aF0.7
aF2.4
aF0.294
aF0.1
aF0.9
aF0.167
aF0.3
aF0.4
aF0.667
aF0.4
aF1.1
aF1.6
aF1.1
aF0.7
aF0.4
aF0.1
aF0.1
aF1.6
aF0.4
aF1.9
aF-4.9
aI0
aI0
aI5
aV57,1610612746
p576
aa(lp577
I2400
aVDrew Gooden
p578
aI1610612739
aVCLE
p579
aF25.0
aI80
aI49
aI31
aF0.613
aF28.0
aF4.6
aF9.8
aF0.473
aF0.0
aF0.1
aF0.167
aF1.8
aF2.5
aF0.714
aF3.3
aF5.2
aF8.5
aF1.1
aF1.4
aF0.9
aF0.4
aF0.6
aF2.6
aF2.2
aF11.1
aF0.0
aI25
aI0
aI5
aV2400,1610612739
p580
aa(lp581
I101204
aVDwayne Jones
p582
aI1610612739
aVCLE
p583
aF24.0
aI4
aI3
aI1
aF0.75
aF4.6
aF0.0
aF0.3
aF0.0
aF0.0
aF0.0
aF0.0
aF0.8
aF1.5
aF0.5
aF0.3
aF1.3
aF1.5
aF0.0
aF0.5
aF0.0
aF0.0
aF0.3
aF0.8
aF1.5
aF0.8
aF0.5
aI0
aI0
aI5
aV101204,1610612739
p584
aa(lp585
I2730
aVDwight Howard
p586
aI1610612753
aVORL
p587
aF21.0
aI82
aI40
aI42
aF0.488
aF36.9
aF6.4
aF10.6
aF0.603
aF0.0
aF0.0
aF0.5
aF4.8
aF8.1
aF0.586
aF3.5
aF8.8
aF12.3
aF1.9
aF3.9
aF0.9
aF1.9
aF1.1
aF3.0
aF6.7
aF17.6
aF1.1
aI60
aI0
aI5
aV2730,1610612753
p588
aa(lp589
I2548
aVDwyane Wade
p590
aI1610612748
aVMIA
p591
aF25.0
aI51
aI27
aI24
aF0.529
aF37.9
aF9.3
aF18.9
aF0.491
aF0.4
aF1.5
aF0.266
aF8.5
aF10.5
aF0.807
aF1.0
aF3.7
aF4.7
aF7.5
aF4.2
aF2.1
aF1.2
aF0.7
aF2.3
aF7.5
aF27.4
aF1.9
aI15
aI0
aI5
aV2548,1610612748
p592
aa(lp593
I2853
aVEarl Barron
p594
aI1610612748
aVMIA
p595
aF25.0
aI28
aI11
aI17
aF0.393
aF7.2
aF0.9
aF3.0
aF0.289
aF0.0
aF0.0
aF0.0
aF0.6
aF0.6
aF0.944
aF0.7
aF0.8
aF1.5
aF0.2
aF0.4
aF0.2
aF0.1
aF0.2
aF0.8
aF0.8
aF2.3
aF-0.7
aI0
aI0
aI5
aV2853,1610612748
p596
aa(lp597
I1863
aVEarl Boykins
p598
aI1610612749
aVMIL
p599
aF31.0
aI66
aI21
aI45
aF0.318
aF30.8
aF4.9
aF11.7
aF0.42
aF1.4
aF3.6
aF0.397
aF3.3
aF3.7
aF0.898
aF0.7
aF1.4
aF2.1
aF4.4
aF1.8
aF0.8
aF0.0
aF0.5
aF1.4
aF2.6
aF14.6
aF-3.8
aI3
aI0
aI5
aV1863,1610612749
p600
aa(lp601
I2248
aVEarl Watson
p602
aI1610612760
aVSEA
p603
aF28.0
aI77
aI31
aI46
aF0.403
aF27.9
aF3.4
aF8.9
aF0.383
aF1.2
aF3.6
aF0.329
aF1.4
aF1.9
aF0.735
aF0.4
aF2.0
aF2.4
aF5.7
aF2.2
aF1.3
aF0.3
aF0.5
aF2.0
aF1.9
aF9.4
aF-1.7
aI3
aI0
aI5
aV2248,1610612760
p604
aa(lp605
I2204
aVEddie Griffin
p606
aI1610612750
aVMIN
p607
aF25.0
aI13
aI7
aI6
aF0.538
aF7.0
aF0.5
aF2.1
aF0.259
aF0.0
aF0.1
aF0.0
aF0.3
aF0.4
aF0.8
aF0.5
aF1.4
aF1.9
aF0.3
aF0.5
aF0.0
aF0.5
aF0.4
aF0.6
aF0.7
aF1.4
aF-5.8
aI0
aI0
aI5
aV2204,1610612750
p608
aa(lp609
I2067
aVEddie House
p610
aI1610612751
aVNJN
p611
aF29.0
aI56
aI27
aI29
aF0.482
aF16.9
aF3.2
aF7.5
aF0.428
aF1.3
aF3.1
aF0.429
aF0.6
aF0.6
aF0.917
aF0.3
aF1.4
aF1.6
aF1.2
aF0.5
aF0.5
aF0.1
aF0.2
aF1.2
aF0.5
aF8.4
aF-1.1
aI0
aI0
aI5
aV2067,1610612751
p612
aa(lp613
I224
aVEddie Jones
p614
aI1610612748
aVMIA
p615
aF35.0
aI64
aI30
aI34
aF0.469
aF24.9
aF2.8
aF6.6
aF0.422
aF1.2
aF3.5
aF0.351
aF0.9
aF1.2
aF0.787
aF0.5
aF2.5
aF3.0
aF1.7
aF0.7
aF1.1
aF0.2
aF0.3
aF1.9
aF1.3
aF7.7
aF-0.7
aI1
aI0
aI5
aV224,1610612748
p616
aa(lp617
I2201
aVEddy Curry
p618
aI1610612752
aVNYK
p619
aF24.0
aI81
aI32
aI49
aF0.395
aF35.2
aF7.2
aF12.5
aF0.576
aF0.0
aF0.0
aF1.0
aF5.0
aF8.1
aF0.615
aF2.4
aF4.6
aF7.0
aF0.8
aF3.6
aF0.4
aF0.5
aF1.1
aF3.3
aF6.5
aF19.5
aF-2.4
aI18
aI0
aI5
aV2201,1610612752
p620
aa(lp621
I2059
aVEduardo Najera
p622
aI1610612743
aVDEN
p623
aF30.0
aI75
aI40
aI35
aF0.533
aF22.1
aF2.7
aF4.7
aF0.576
aF0.0
aF0.2
aF0.083
aF1.2
aF1.6
aF0.715
aF1.7
aF2.4
aF4.1
aF0.9
aF0.7
aF1.0
aF0.3
aF0.4
aF2.8
aF1.6
aF6.6
aF0.1
aI2
aI0
aI5
aV2059,1610612743
p624
aa(lp625
I1882
aVElton Brand
p626
aI1610612746
aVLAC
p627
aF28.0
aI80
aI40
aI40
aF0.5
aF38.5
aF8.1
aF15.1
aF0.533
aF0.0
aF0.0
aF1.0
aF4.4
aF5.8
aF0.761
aF3.4
aF6.0
aF9.3
aF2.9
aF2.5
aF1.0
aF2.2
aF0.7
aF3.0
aF5.0
aF20.5
aF0.4
aI38
aI0
aI5
aV1882,1610612746
p628
aa(lp629
I2731
aVEmeka Okafor
p630
aI1610612766
aVCHA
p631
aF24.0
aI67
aI29
aI38
aF0.433
aF34.8
aF5.9
aF11.0
aF0.532
aF0.0
aF0.0
aF0.0
aF2.6
aF4.4
aF0.593
aF3.9
aF7.4
aF11.3
aF1.2
aF1.7
aF0.9
aF2.6
aF1.0
aF3.1
aF3.4
aF14.4
aF-1.7
aI39
aI0
aI5
aV2731,1610612766
p632
aa(lp633
I15
aVEric Piatkowski
p634
aI1610612756
aVPHX
p635
aF36.0
aI11
aI9
aI2
aF0.818
aF6.6
aF0.8
aF2.3
aF0.36
aF0.6
aF1.6
aF0.389
aF0.2
aF0.2
aF1.0
aF0.2
aF0.6
aF0.8
aF0.4
aF0.5
aF0.0
aF0.1
aF0.1
aF0.5
aF0.2
aF2.5
aF-0.3
aI0
aI0
aI5
aV15,1610612756
p636
aa(lp637
I727
aVEric Snow
p638
aI1610612739
aVCLE
p639
aF34.0
aI82
aI50
aI32
aF0.61
aF23.5
aF1.6
aF4.0
aF0.417
aF0.0
aF0.0
aF0.0
aF0.9
aF1.4
aF0.637
aF0.4
aF1.9
aF2.3
aF4.0
aF1.4
aF0.7
aF0.2
aF0.4
aF2.3
aF1.5
aF4.2
aF-0.3
aI1
aI0
aI5
aV727,1610612739
p640
aa(lp641
I677
aVEric Williams
p642
aI1610612766
aVCHA
p643
aF34.0
aI21
aI12
aI9
aF0.571
aF5.8
aF0.9
aF2.2
aF0.404
aF0.4
aF0.9
aF0.421
aF0.4
aF0.7
aF0.571
aF0.1
aF0.7
aF0.8
aF0.3
aF0.3
aF0.1
aF0.0
aF0.1
aF0.6
aF0.4
aF2.6
aF0.2
aI0
aI0
aI5
aV677,1610612766
p644
aa(lp645
I956
aVErick Dampier
p646
aI1610612742
aVDAL
p647
aF31.0
aI76
aI64
aI12
aF0.842
aF25.2
aF2.8
aF4.4
aF0.626
aF0.0
aF0.0
aF0.0
aF1.6
aF2.5
aF0.623
aF2.9
aF4.6
aF7.4
aF0.6
aF1.4
aF0.3
aF1.1
aF0.3
aF3.1
aF2.1
aF7.1
aF5.7
aI8
aI0
aI5
aV956,1610612742
p648
aa(lp649
I101141
aVErsan Ilyasova
p650
aI1610612749
aVMIL
p651
aF20.0
aI66
aI23
aI43
aF0.348
aF14.7
aF2.1
aF5.5
aF0.383
aF0.8
aF2.2
aF0.365
aF1.1
aF1.3
aF0.787
aF0.9
aF2.0
aF2.9
aF0.7
aF0.8
aF0.4
aF0.3
aF0.3
aF2.2
aF1.5
aF6.1
aF-3.0
aI0
aI0
aI5
aV101141,1610612749
p652
aa(lp653
I101212
aVEsteban Batista
p654
aI1610612737
aVATL
p655
aF23.0
aI13
aI4
aI9
aF0.308
aF6.2
aF0.6
aF1.2
aF0.5
aF0.0
aF0.0
aF0.0
aF0.3
aF0.5
aF0.571
aF0.5
aF1.8
aF2.3
aF0.3
aF0.3
aF0.2
aF0.0
aF0.2
aF1.0
aF0.7
aF1.5
aF-1.9
aI0
aI0
aI5
aV101212,1610612737
p656
aa(lp657
I2041
aVEtan Thomas
p658
aI1610612764
aVWAS
p659
aF29.0
aI65
aI29
aI36
aF0.446
aF19.2
aF2.4
aF4.3
aF0.574
aF0.0
aF0.0
aF0.0
aF1.2
aF2.1
aF0.558
aF2.1
aF3.7
aF5.8
aF0.4
aF1.1
aF0.3
aF1.4
aF0.5
aF2.5
aF1.9
aF6.1
aF-0.6
aI7
aI0
aI5
aV2041,1610612764
p660
aa(lp661
I101177
aVFabricio Oberto
p662
aI1610612759
aVSAS
p663
aF32.0
aI79
aI57
aI22
aF0.722
aF17.3
aF2.0
aF3.6
aF0.562
aF0.0
aF0.0
aF0.0
aF0.4
aF0.6
aF0.647
aF1.7
aF3.0
aF4.7
aF0.9
aF0.9
aF0.3
aF0.3
aF0.3
aF2.7
aF1.2
aF4.4
aF2.6
aI3
aI0
aI5
aV101177,1610612759
p664
aa(lp665
I1922
aVFrancisco Elson
p666
aI1610612759
aVSAS
p667
aF31.0
aI70
aI51
aI19
aF0.729
aF19.0
aF2.1
aF4.0
aF0.511
aF0.0
aF0.0
aF0.0
aF0.9
aF1.1
aF0.775
aF1.2
aF3.6
aF4.8
aF0.8
aF1.2
aF0.4
aF0.8
aF0.4
aF2.6
aF1.1
aF5.0
aF2.1
aI1
aI0
aI5
aV1922,1610612759
p668
aa(lp669
I101128
aVFrancisco Garcia
p670
aI1610612758
aVSAC
p671
aF25.0
aI79
aI33
aI46
aF0.418
aF17.8
aF2.1
aF4.8
aF0.429
aF0.7
aF1.9
aF0.356
aF1.2
aF1.4
aF0.833
aF0.7
aF1.9
aF2.6
aF1.1
aF0.9
aF0.6
aF0.5
aF0.2
aF2.4
aF1.3
aF6.0
aF-0.4
aI0
aI0
aI5
aV101128,1610612758
p672
aa(lp673
I2410
aVFred Jones
p674
aI1610612757
aVPOR
p675
aF28.0
aI63
aI25
aI38
aF0.397
aF20.9
aF2.2
aF5.7
aF0.385
aF0.6
aF2.0
aF0.305
aF1.5
aF1.8
aF0.833
aF0.4
aF1.5
aF1.8
aF1.7
aF1.1
aF0.8
aF0.3
aF0.3
aF1.9
aF1.5
aF6.5
aF-3.5
aI0
aI0
aI5
aV2410,1610612757
p676
aa(lp677
I56
aVGary Payton
p678
aI1610612748
aVMIA
p679
aF38.0
aI68
aI35
aI33
aF0.515
aF22.1
aF2.1
aF5.4
aF0.393
aF0.5
aF1.8
aF0.26
aF0.6
aF0.8
aF0.667
aF0.3
aF1.7
aF1.9
aF3.0
aF1.0
aF0.6
aF0.0
aF0.4
aF1.7
aF1.0
aF5.3
aF-3.0
aI1
aI0
aI5
aV56,1610612748
p680
aa(lp681
I101123
aVGerald Green
p682
aI1610612738
aVBOS
p683
aF21.0
aI81
aI24
aI57
aF0.296
aF22.0
aF3.8
aF9.1
aF0.419
aF1.2
aF3.2
aF0.368
aF1.6
aF2.0
aF0.805
aF0.8
aF1.7
aF2.6
aF1.0
aF1.5
aF0.5
aF0.3
aF0.5
aF2.4
aF1.5
aF10.4
aF-2.6
aI0
aI0
aI5
aV101123,1610612738
p684
aa(lp685
I2222
aVGerald Wallace
p686
aI1610612766
aVCHA
p687
aF24.0
aI72
aI29
aI43
aF0.403
aF36.7
aF6.6
aF13.2
aF0.502
aF0.5
aF1.7
aF0.325
aF4.3
aF6.2
aF0.691
aF2.0
aF5.2
aF7.2
aF2.6
aF2.2
aF2.0
aF1.0
aF1.6
aF2.9
aF5.1
aF18.1
aF-3.4
aI16
aI0
aI5
aV2222,1610612766
p688
aa(lp689
I2240
aVGilbert Arenas
p690
aI1610612764
aVWAS
p691
aF25.0
aI74
aI39
aI35
aF0.527
aF39.8
aF8.7
aF20.9
aF0.418
aF2.8
aF7.9
aF0.351
aF8.2
aF9.7
aF0.844
aF0.8
aF3.7
aF4.6
aF6.0
aF3.2
aF1.9
aF0.2
aF0.9
aF3.4
aF7.0
aF28.4
aF2.6
aI10
aI0
aI5
aV2240,1610612764
p692
aa(lp693
I1921
aVGordan Giricek
p694
aI1610612762
aVUTA
p695
aF30.0
aI61
aI36
aI25
aF0.59
aF19.5
aF2.9
aF6.2
aF0.462
aF0.9
aF2.0
aF0.426
aF1.2
aF1.4
aF0.816
aF0.4
aF1.7
aF2.1
aF1.0
aF1.0
aF0.5
aF0.1
aF0.2
aF2.0
aF1.3
aF7.8
aF2.6
aI0
aI0
aI5
aV1921,1610612762
p696
aa(lp697
I255
aVGrant Hill
p698
aI1610612753
aVORL
p699
aF34.0
aI65
aI31
aI34
aF0.477
aF30.9
aF5.3
aF10.2
aF0.518
aF0.0
aF0.2
aF0.167
aF3.8
aF5.0
aF0.765
aF0.8
aF2.8
aF3.6
aF2.1
aF2.2
aF0.9
aF0.4
aF0.6
aF2.2
aF3.6
aF14.4
aF-1.0
aI0
aI0
aI5
aV255,1610612753
p700
aa(lp701
I1761
aVGreg Buckner
p702
aI1610612742
aVDAL
p703
aF30.0
aI76
aI61
aI15
aF0.803
aF18.0
aF1.6
aF3.9
aF0.411
aF0.4
aF1.4
aF0.311
aF0.4
aF0.4
aF0.794
aF0.5
aF1.6
aF2.1
aF0.9
aF0.5
aF0.6
aF0.1
aF0.3
aF2.0
aF0.7
aF4.0
aF0.3
aI0
aI0
aI5
aV1761,1610612742
p704
aa(lp705
I101124
aVHakim Warrick
p706
aI1610612763
aVMEM
p707
aF24.0
aI82
aI22
aI60
aF0.268
aF26.2
aF4.5
aF8.7
aF0.524
aF0.0
aF0.1
aF0.0
aF3.6
aF4.7
aF0.771
aF1.6
aF3.5
aF5.1
aF0.9
aF2.0
aF0.5
aF0.4
aF0.7
aF2.8
aF3.6
aF12.7
aF-4.9
aI9
aI0
aI5
aV101124,1610612763
p708
aa(lp709
I200801
aVHassan Adams
p710
aI1610612751
aVNJN
p711
aF23.0
aI61
aI31
aI30
aF0.508
aF8.1
aF1.2
aF2.2
aF0.556
aF0.0
aF0.0
aF0.0
aF0.4
aF0.6
aF0.667
aF0.6
aF0.7
aF1.3
aF0.2
aF0.4
aF0.3
aF0.1
aF0.2
aF0.8
aF0.4
aF2.9
aF-0.3
aI0
aI0
aI5
aV200801,1610612751
p712
aa(lp713
I2045
aVHedo Turkoglu
p714
aI1610612753
aVORL
p715
aF28.0
aI73
aI36
aI37
aF0.493
aF31.1
aF4.7
aF11.3
aF0.419
aF1.5
aF3.8
aF0.388
aF2.3
aF3.0
aF0.781
aF0.8
aF3.2
aF4.0
aF3.2
aF2.0
aF1.0
aF0.2
aF0.2
aF3.0
aF2.3
aF13.3
aF1.9
aI0
aI0
aI5
aV2045,1610612753
p716
aa(lp717
I200756
aVHilton Armstrong
p718
aI1610612740
aVNOK
p719
aF22.0
aI56
aI28
aI28
aF0.5
aF11.3
aF1.2
aF2.2
aF0.544
aF0.0
aF0.0
aF0.0
aF0.7
aF1.2
aF0.597
aF1.0
aF1.6
aF2.7
aF0.2
aF0.6
aF0.2
aF0.5
aF0.2
aF1.4
aF1.0
aF3.1
aF-0.3
aI0
aI0
aI5
aV200756,1610612740
p720
aa(lp721
I101113
aVIke Diogu
p722
aI1610612754
aVIND
p723
aF23.0
aI59
aI22
aI37
aF0.373
aF12.9
aF2.2
aF4.5
aF0.477
aF0.0
aF0.0
aF0.0
aF1.9
aF2.4
aF0.8
aF1.3
aF2.2
aF3.4
aF0.4
aF1.1
aF0.1
aF0.4
aF0.6
aF2.1
aF1.9
aF6.2
aF-0.6
aI1
aI0
aI5
aV101113,1610612754
p724
aa(lp725
I2137
aVIme Udoka
p726
aI1610612757
aVPOR
p727
aF29.0
aI75
aI31
aI44
aF0.413
aF28.6
aF3.2
aF6.9
aF0.461
aF1.2
aF2.9
aF0.406
aF0.9
aF1.2
aF0.742
aF1.3
aF2.5
aF3.7
aF1.5
aF1.0
aF0.9
aF0.2
aF0.4
aF2.8
aF1.3
aF8.4
aF-2.0
aI2
aI0
aI5
aV2137,1610612757
p728
aa(lp729
I1956
aVIra Newble
p730
aI1610612739
aVCLE
p731
aF32.0
aI15
aI12
aI3
aF0.8
aF8.6
aF1.1
aF2.5
aF0.432
aF0.5
aF1.0
aF0.533
aF0.4
aF0.7
aF0.6
aF0.9
aF1.1
aF2.0
aF0.1
aF0.2
aF0.4
aF0.0
aF0.2
aF1.1
aF0.3
aF3.1
aF-0.2
aI0
aI0
aI5
aV1956,1610612739
p732
aa(lp733
I200829
aVIvan McFarlin
p734
aI1610612755
aVPHI
p735
aF25.0
aI11
aI0
aI11
aF0.0
aF3.8
aF0.5
aF1.2
aF0.385
aF0.0
aF0.1
aF0.0
aF0.5
aF0.6
aF0.714
aF0.6
aF0.4
aF1.0
aF0.1
aF0.1
aF0.0
aF0.0
aF0.1
aF0.7
aF0.5
aF1.4
aF-0.8
aI0
aI0
aI5
aV200829,1610612755
p736
aa(lp737
I2747
aVJ.R. Smith
p738
aI1610612743
aVDEN
p739
aF21.0
aI63
aI38
aI25
aF0.603
aF23.4
aF4.5
aF10.2
aF0.441
aF2.4
aF6.1
aF0.39
aF1.6
aF2.0
aF0.81
aF0.5
aF1.8
aF2.3
aF1.4
aF1.3
aF0.8
aF0.1
aF0.4
aF2.3
aF1.7
aF13.0
aF1.6
aI0
aI0
aI5
aV2747,1610612743
p740
aa(lp741
I200755
aVJJ Redick
p742
aI1610612753
aVORL
p743
aF23.0
aI42
aI19
aI23
aF0.452
aF14.8
aF1.9
aF4.6
aF0.41
aF0.9
aF2.3
aF0.388
aF1.3
aF1.4
aF0.9
aF0.2
aF1.0
aF1.2
aF0.9
aF0.5
aF0.3
aF0.0
aF0.1
aF1.2
aF0.9
aF6.0
aF0.0
aI0
aI0
aI5
aV200755,1610612753
p744
aa(lp745
I2866
aVJackie Butler
p746
aI1610612759
aVSAS
p747
aF22.0
aI11
aI8
aI3
aF0.727
aF9.3
aF1.5
aF3.2
aF0.457
aF0.0
aF0.0
aF0.0
aF0.8
aF0.9
aF0.9
aF0.5
aF1.5
aF2.0
aF0.5
aF0.9
aF0.2
aF0.0
aF0.2
aF1.5
aF0.7
aF3.7
aF-3.5
aI1
aI0
aI5
aV2866,1610612759
p748
aa(lp749
I1521
aVJacque Vaughn
p750
aI1610612759
aVSAS
p751
aF32.0
aI64
aI48
aI16
aF0.75
aF11.9
aF1.1
aF2.6
aF0.425
aF0.0
aF0.0
aF0.5
aF0.8
aF1.0
aF0.754
aF0.1
aF0.9
aF1.1
aF2.0
aF0.6
aF0.4
aF0.0
aF0.2
aF1.2
aF1.1
aF3.0
aF2.5
aI0
aI0
aI5
aV1521,1610612759
p752
aa(lp753
I2054
aVJake Tsakalidis
p754
aI1610612745
aVHOU
p755
aF28.0
aI36
aI12
aI24
aF0.333
aF10.8
aF0.8
aF2.0
aF0.403
aF0.0
aF0.0
aF0.0
aF0.7
aF1.1
aF0.667
aF1.2
aF1.7
aF2.9
aF0.1
aF0.7
aF0.2
aF0.3
aF0.2
aF1.4
aF0.8
aF2.3
aF-0.8
aI0
aI0
aI5
aV2054,1610612745
p756
aa(lp757
I2063
aVJake Voskuhl
p758
aI1610612766
aVCHA
p759
aF29.0
aI73
aI30
aI43
aF0.411
aF14.3
aF1.7
aF3.5
aF0.475
aF0.0
aF0.0
aF0.0
aF1.1
aF1.5
aF0.681
aF1.2
aF2.4
aF3.5
aF0.6
aF0.8
aF0.4
aF0.3
aF0.2
aF2.7
aF1.3
aF4.4
aF-1.5
aI1
aI0
aI5
aV2063,1610612766
p760
aa(lp761
I147
aVJalen Rose
p762
aI1610612756
aVPHX
p763
aF34.0
aI29
aI22
aI7
aF0.759
aF8.5
aF1.3
aF3.0
aF0.442
aF0.7
aF1.6
aF0.447
aF0.4
aF0.4
aF0.917
aF0.1
aF0.7
aF0.8
aF0.6
aF0.3
aF0.2
aF0.1
aF0.1
aF0.8
aF0.5
aF3.7
aF-1.8
aI0
aI0
aI5
aV147,1610612756
p764
aa(lp765
I2048
aVJamaal Magloire
p766
aI1610612757
aVPOR
p767
aF29.0
aI81
aI31
aI50
aF0.383
aF21.0
aF2.5
aF4.9
aF0.504
aF0.0
aF0.0
aF0.0
aF1.6
aF3.0
aF0.541
aF1.9
aF4.2
aF6.1
aF0.4
aF1.6
aF0.3
aF0.8
aF0.5
aF2.8
aF2.9
aF6.5
aF-3.1
aI6
aI0
aI5
aV2048,1610612757
p768
aa(lp769
I2224
aVJamaal Tinsley
p770
aI1610612754
aVIND
p771
aF29.0
aI72
aI31
aI41
aF0.431
aF31.2
aF4.8
aF12.3
aF0.389
aF0.8
aF2.7
aF0.316
aF2.4
aF3.3
aF0.72
aF0.8
aF2.5
aF3.3
aF6.9
aF2.8
aF1.6
aF0.3
aF0.8
aF2.6
aF2.8
aF12.8
aF-1.3
aI7
aI0
aI5
aV2224,1610612754
p772
aa(lp773
I2037
aVJamal Crawford
p774
aI1610612752
aVNYK
p775
aF27.0
aI59
aI26
aI33
aF0.441
aF37.2
aF6.0
aF15.0
aF0.4
aF1.7
aF5.5
aF0.32
aF3.9
aF4.6
aF0.838
aF0.7
aF2.5
aF3.2
aF4.4
aF2.7
aF1.0
aF0.1
aF0.6
aF1.9
aF2.9
aF17.6
aF-1.9
aI4
aI0
aI5
aV2037,1610612752
p776
aa(lp777
I2441
aVJamal Sampson
p778
aI1610612743
aVDEN
p779
aF24.0
aI22
aI15
aI7
aF0.682
aF5.7
aF0.4
aF0.6
aF0.643
aF0.0
aF0.0
aF0.0
aF0.3
aF0.6
aF0.429
aF0.7
aF1.5
aF2.2
aF0.2
aF0.5
aF0.1
aF0.3
aF0.1
aF0.8
aF0.5
aF1.1
aF-0.5
aI0
aI0
aI5
aV2441,1610612743
p780
aa(lp781
I2749
aVJameer Nelson
p782
aI1610612753
aVORL
p783
aF25.0
aI77
aI37
aI40
aF0.481
aF30.3
aF4.9
aF11.4
aF0.43
aF0.8
aF2.5
aF0.335
aF2.4
aF2.9
aF0.828
aF0.6
aF2.4
aF3.1
aF4.3
aF2.4
aF0.9
aF0.1
aF0.8
aF2.9
aF2.6
aF13.0
aF-0.2
aI0
aI0
aI5
aV2749,1610612753
p784
aa(lp785
I200788
aVJames Augustine
p786
aI1610612753
aVORL
p787
aF23.0
aI2
aI2
aI0
aF1.0
aF3.7
aF0.5
aF1.5
aF0.333
aF0.0
aF0.0
aF0.0
aF0.0
aF0.0
aF0.0
aF0.5
aF1.0
aF1.5
aF1.0
aF0.0
aF0.0
aF0.0
aF0.5
aF1.0
aF0.5
aF1.0
aF-0.5
aI0
aI0
aI5
aV200788,1610612753
p788
aa(lp789
I2592
aVJames Jones
p790
aI1610612756
aVPHX
p791
aF26.0
aI76
aI58
aI18
aF0.763
aF18.1
aF2.1
aF5.8
aF0.368
aF1.2
aF3.1
aF0.378
aF0.9
aF1.1
aF0.877
aF0.4
aF1.9
aF2.3
aF0.6
aF0.4
aF0.4
aF0.6
aF0.2
aF1.5
aF1.3
aF6.4
aF2.2
aI0
aI0
aI5
aV2592,1610612756
p792
aa(lp793
I2591
aVJames Lang
p794
aI1610612764
aVWAS
p795
aF23.0
aI11
aI7
aI4
aF0.636
aF5.0
aF0.4
aF0.8
aF0.444
aF0.0
aF0.0
aF0.0
aF0.3
aF0.5
aF0.6
aF0.5
aF0.5
aF1.0
aF0.2
aF0.2
aF0.0
aF0.3
aF0.2
aF1.3
aF0.4
aF1.0
aF0.0
aI0
aI0
aI5
aV2591,1610612764
p796
aa(lp797
I1899
aVJames Posey
p798
aI1610612748
aVMIA
p799
aF30.0
aI71
aI40
aI31
aF0.563
aF27.0
aF2.6
aF6.1
aF0.431
aF1.4
aF3.6
aF0.375
aF1.1
aF1.4
aF0.827
aF0.9
aF4.1
aF5.0
aF1.3
aF0.8
aF1.0
aF0.3
aF0.2
aF2.7
aF2.0
aF7.7
aF-0.4
aI1
aI0
aI5
aV1899,1610612748
p800
aa(lp801
I101189
aVJames Singleton
p802
aI1610612746
aVLAC
p803
aF25.0
aI53
aI27
aI26
aF0.509
aF7.1
aF0.6
aF1.5
aF0.366
aF0.1
aF0.3
aF0.214
aF0.4
aF0.5
aF0.759
aF0.7
aF1.3
aF2.0
aF0.3
aF0.3
aF0.3
aF0.3
aF0.0
aF0.8
aF0.5
aF1.6
aF-0.2
aI0
aI0
aI5
aV101189,1610612746
p804
aa(lp805
I200778
aVJames White
p806
aI1610612759
aVSAS
p807
aF24.0
aI6
aI4
aI2
aF0.667
aF22.8
aF3.0
aF6.8
aF0.439
aF0.3
aF1.2
aF0.286
aF2.0
aF2.5
aF0.8
aF0.5
aF2.8
aF3.3
aF0.8
aF0.8
aF0.5
aF0.2
aF0.5
aF1.2
aF2.0
aF8.3
aF-3.7
aI0
aI0
aI5
aV200778,1610612759
p808
aa(lp809
I2457
aVJannero Pargo
p810
aI1610612740
aVNOK
p811
aF27.0
aI82
aI39
aI43
aF0.476
aF20.9
aF3.5
aF8.4
aF0.409
aF1.0
aF2.5
aF0.388
aF1.3
aF1.5
aF0.852
aF0.2
aF2.0
aF2.2
aF2.5
aF1.5
aF0.6
aF0.0
aF0.4
aF1.5
aF1.4
aF9.2
aF-1.1
aI1
aI0
aI5
aV2457,1610612740
p812
aa(lp813
I2407
aVJared Jeffries
p814
aI1610612752
aVNYK
p815
aF25.0
aI55
aI21
aI34
aF0.382
aF23.8
aF1.7
aF3.7
aF0.461
aF0.0
aF0.4
aF0.1
aF0.6
aF1.2
aF0.456
aF2.0
aF2.3
aF4.3
aF1.2
aF1.1
aF0.8
aF0.5
aF0.3
aF2.7
aF1.3
aF4.1
aF-3.1
aI0
aI0
aI5
aV2407,1610612752
p816
aa(lp817
I2876
aVJared Reiner
p818
aI1610612749
aVMIL
p819
aF25.0
aI27
aI8
aI19
aF0.296
aF9.0
aF0.6
aF1.6
aF0.349
aF0.0
aF0.0
aF0.0
aF0.1
aF0.4
aF0.3
aF0.8
aF1.9
aF2.6
aF0.5
aF0.5
aF0.2
aF0.2
aF0.4
aF1.7
aF0.3
aF1.2
aF-2.7
aI0
aI0
aI5
aV2876,1610612749
p820
aa(lp821
I101127
aVJarrett Jack
p822
aI1610612757
aVPOR
p823
aF23.0
aI79
aI30
aI49
aF0.38
aF33.6
aF4.1
aF8.9
aF0.454
aF0.8
aF2.3
aF0.35
aF3.1
aF3.5
aF0.871
aF0.2
aF2.4
aF2.6
aF5.3
aF2.4
aF1.1
aF0.1
aF0.4
aF2.6
aF2.7
aF12.0
aF-3.9
aI3
aI0
aI5
aV101127,1610612757
p824
aa(lp825
I2260
aVJarron Collins
p826
aI1610612762
aVUTA
p827
aF28.0
aI82
aI51
aI31
aF0.622
aF11.1
aF0.9
aF2.1
aF0.441
aF0.0
aF0.0
aF0.0
aF0.7
aF1.0
aF0.651
aF0.9
aF1.2
aF2.1
aF0.7
aF0.5
aF0.2
aF0.1
aF0.2
aF1.8
aF1.4
aF2.5
aF1.2
aI0
aI0
aI5
aV2260,1610612762
p828
aa(lp829
I2553
aVJarvis Hayes
p830
aI1610612764
aVWAS
p831
aF25.0
aI81
aI40
aI41
aF0.494
aF20.1
aF2.8
aF6.7
aF0.41
aF0.8
aF2.3
aF0.361
aF0.9
aF1.0
aF0.845
aF0.5
aF2.1
aF2.6
aF1.0
aF0.7
aF0.6
aF0.2
aF0.2
aF2.0
aF0.9
aF7.2
aF-2.2
aI0
aI0
aI5
aV2553,1610612764
p832
aa(lp833
I2215
aVJason Collins
p834
aI1610612751
aVNJN
p835
aF28.0
aI80
aI40
aI40
aF0.5
aF23.0
aF0.7
aF1.9
aF0.364
aF0.0
aF0.0
aF0.0
aF0.7
aF1.6
aF0.465
aF1.1
aF2.8
aF4.0
aF0.6
aF0.9
aF0.5
aF0.5
aF0.3
aF3.4
aF1.9
aF2.1
aF0.9
aI0
aI0
aI5
aV2215,1610612751
p836
aa(lp837
I2078
aVJason Hart
p838
aI1610612746
aVLAC
p839
aF29.0
aI36
aI15
aI21
aF0.417
aF23.5
aF2.8
aF6.2
aF0.446
aF0.2
aF0.8
aF0.241
aF1.2
aF1.3
aF0.894
aF0.4
aF2.3
aF2.7
aF2.9
aF1.1
aF1.2
aF0.0
aF0.3
aF2.3
aF1.3
aF6.9
aF-1.1
aI0
aI0
aI5
aV2078,1610612746
p840
aa(lp841
I2574
aVJason Kapono
p842
aI1610612748
aVMIA
p843
aF26.0
aI67
aI34
aI33
aF0.507
aF26.4
aF4.1
aF8.4
aF0.494
aF1.6
aF3.1
aF0.514
aF1.0
aF1.1
aF0.892
aF0.4
aF2.3
aF2.7
aF1.2
aF1.0
aF0.6
aF0.0
aF0.2
aF2.0
aF0.9
aF10.9
aF-0.3
aI2
aI0
aI5
aV2574,1610612748
p844
aa(lp845
I467
aVJason Kidd
p846
aI1610612751
aVNJN
p847
aF34.0
aI80
aI41
aI39
aF0.513
aF36.7
aF4.6
aF11.4
aF0.406
aF1.6
aF4.5
aF0.343
aF2.2
aF2.9
aF0.778
aF1.7
aF6.5
aF8.2
aF9.2
aF2.7
aF1.6
aF0.3
aF0.4
aF1.8
aF2.4
aF13.0
aF1.1
aI32
aI12
aI5
aV467,1610612751
p848
aa(lp849
I101131
aVJason Maxiell
p850
aI1610612765
aVDET
p851
aF24.0
aI67
aI44
aI23
aF0.657
aF14.1
aF2.0
aF3.9
aF0.5
aF0.0
aF0.0
aF0.0
aF1.1
aF2.0
aF0.526
aF1.3
aF1.5
aF2.8
aF0.2
aF0.8
aF0.4
aF0.9
aF0.3
aF1.6
aF1.8
aF5.0
aF0.7
aI2
aI0
aI5
aV101131,1610612765
p852
aa(lp853
I2202
aVJason Richardson
p854
aI1610612744
aVGSW
p855
aF26.0
aI51
aI29
aI22
aF0.569
aF32.8
aF6.0
aF14.4
aF0.417
aF2.2
aF5.9
aF0.367
aF1.8
aF2.7
aF0.657
aF1.4
aF3.7
aF5.1
aF3.4
aF1.6
aF1.1
aF0.6
aF0.6
aF2.5
aF2.2
aF16.0
aF1.9
aI4
aI0
aI5
aV2202,1610612744
p856
aa(lp857
I1891
aVJason Terry
p858
aI1610612742
aVDAL
p859
aF29.0
aI81
aI67
aI14
aF0.827
aF35.1
aF6.3
aF13.1
aF0.484
aF2.0
aF4.6
aF0.438
aF2.0
aF2.5
aF0.804
aF0.5
aF2.3
aF2.9
aF5.2
aF1.9
aF1.0
aF0.2
aF0.3
aF2.1
aF2.3
aF16.7
aF7.0
aI6
aI0
aI5
aV1891,1610612742
p860
aa(lp861
I1715
aVJason Williams
p862
aI1610612748
aVMIA
p863
aF31.0
aI61
aI34
aI27
aF0.557
aF30.6
aF3.9
aF9.3
aF0.413
aF1.6
aF4.8
aF0.339
aF1.5
aF1.7
aF0.913
aF0.3
aF2.0
aF2.3
aF5.3
aF1.6
aF1.0
aF0.0
aF0.2
aF1.1
aF1.2
aF10.9
aF0.6
aI4
aI0
aI5
aV1715,1610612748
p864
aa(lp865
I1902
aVJeff Foster
p866
aI1610612754
aVIND
p867
aF30.0
aI75
aI32
aI43
aF0.427
aF23.2
aF1.6
aF3.5
aF0.469
aF0.0
aF0.0
aF0.0
aF1.0
aF1.6
aF0.639
aF3.4
aF4.7
aF8.1
aF0.8
aF0.9
aF0.8
aF0.5
aF0.3
aF2.7
aF1.8
aF4.3
aF-0.9
aI1
aI0
aI5
aV1902,1610612754
p868
aa(lp869
I976
aVJeff McInnis
p870
aI1610612766
aVCHA
p871
aF32.0
aI38
aI17
aI21
aF0.447
aF18.5
aF1.9
aF4.8
aF0.392
aF0.0
aF0.2
aF0.125
aF0.6
aF0.8
aF0.688
aF0.4
aF1.3
aF1.6
aF3.3
aF1.1
aF0.4
aF0.0
aF0.2
aF1.9
aF0.9
aF4.3
aF-2.6
aI0
aI0
aI5
aV976,1610612766
p872
aa(lp873
I200978
aVJeremy Richardson
p874
aI1610612757
aVPOR
p875
aF23.0
aI6
aI4
aI2
aF0.667
aF3.3
aF0.5
aF1.0
aF0.5
aF0.3
aF0.5
aF0.667
aF0.0
aF0.0
aF0.0
aF0.2
aF0.2
aF0.3
aF0.0
aF0.2
aF0.2
aF0.0
aF0.0
aF0.3
aF0.0
aF1.3
aF0.0
aI0
aI0
aI5
aV200978,1610612757
p876
aa(lp877
I979
aVJermaine O'Neal
p878
aI1610612754
aVIND
p879
aF28.0
aI69
aI32
aI37
aF0.464
aF35.6
aF7.2
aF16.5
aF0.436
aF0.0
aF0.1
aF0.0
aF5.0
aF6.5
aF0.767
aF2.2
aF7.4
aF9.6
aF2.4
aF2.9
aF0.7
aF2.6
aF1.4
aF3.4
aF6.1
aF19.4
aF0.1
aI34
aI0
aI5
aV979,1610612754
p880
aa(lp881
I1744
aVJerome James
p882
aI1610612752
aVNYK
p883
aF31.0
aI41
aI19
aI22
aF0.463
aF6.7
aF0.8
aF1.9
aF0.418
aF0.0
aF0.0
aF0.0
aF0.2
aF0.4
aF0.556
aF0.5
aF1.1
aF1.6
aF0.1
aF0.6
aF0.1
aF0.4
aF0.2
aF1.8
aF0.4
aF1.9
aF-1.7
aI0
aI0
aI5
aV1744,1610612752
p884
aa(lp885
I711
aVJerry Stackhouse
p886
aI1610612742
aVDAL
p887
aF32.0
aI67
aI55
aI12
aF0.821
aF24.1
aF4.2
aF9.8
aF0.428
aF0.9
aF2.4
aF0.383
aF2.7
aF3.2
aF0.847
aF0.6
aF1.6
aF2.2
aF2.8
aF1.7
aF0.8
aF0.1
aF0.6
aF1.2
aF2.5
aF12.0
aF4.0
aI0
aI0
aI5
aV711,1610612742
p888
aa(lp889
I2207
aVJoe Johnson
p890
aI1610612737
aVATL
p891
aF26.0
aI57
aI21
aI36
aF0.368
aF41.4
aF9.4
aF20.0
aF0.471
aF2.1
aF5.5
aF0.381
aF4.1
aF5.5
aF0.748
aF0.9
aF3.3
aF4.2
aF4.4
aF3.1
aF1.1
aF0.2
aF0.8
aF2.0
aF4.8
aF25.0
aF-3.2
aI2
aI0
aI5
aV2207,1610612737
p892
aa(lp893
I693
aVJoe Smith
p894
aI1610612755
aVPHI
p895
aF31.0
aI65
aI36
aI29
aF0.554
aF23.1
aF3.3
aF7.3
aF0.449
aF0.0
aF0.1
aF0.0
aF1.9
aF2.3
aF0.845
aF1.8
aF4.3
aF6.2
aF0.8
aF1.2
aF0.6
aF0.4
aF0.3
aF2.3
aF2.6
aF8.5
aF0.2
aI8
aI0
aI5
aV693,1610612755
p896
aa(lp897
I2038
aVJoel Przybilla
p898
aI1610612757
aVPOR
p899
aF27.0
aI43
aI19
aI24
aF0.442
aF16.3
aF0.9
aF1.8
aF0.474
aF0.0
aF0.0
aF0.0
aF0.2
aF0.6
aF0.37
aF1.4
aF2.5
aF3.9
aF0.3
aF0.9
aF0.2
aF1.6
aF0.4
aF2.9
aF1.0
aF2.0
aF-0.7
aI0
aI0
aI5
aV2038,1610612757
p900
aa(lp901
I101121
aVJoey Graham
p902
aI1610612761
aVTOR
p903
aF25.0
aI79
aI47
aI32
aF0.595
aF16.7
aF2.4
aF4.9
aF0.495
aF0.1
aF0.4
aF0.29
aF1.4
aF1.7
aF0.84
aF0.7
aF2.4
aF3.1
aF0.6
aF0.6
aF0.4
aF0.1
aF0.3
aF2.0
aF1.3
aF6.4
aF0.9
aI1
aI0
aI5
aV101121,1610612761
p904
aa(lp905
I101130
aVJohan Petro
p906
aI1610612760
aVSEA
p907
aF21.0
aI81
aI31
aI50
aF0.383
aF18.6
aF2.8
aF5.4
aF0.516
aF0.0
aF0.0
aF0.0
aF0.6
aF1.0
aF0.649
aF1.1
aF3.0
aF4.1
aF0.6
aF1.0
aF0.5
aF0.6
aF0.2
aF2.9
aF0.9
aF6.2
aF-2.8
aI3
aI0
aI5
aV101130,1610612760
p908
aa(lp909
I101249
aVJohn Lucas III
p910
aI1610612745
aVHOU
p911
aF24.0
aI47
aI28
aI19
aF0.596
aF8.2
aF1.3
aF3.3
aF0.397
aF0.3
aF1.3
aF0.254
aF0.3
aF0.4
aF0.789
aF0.2
aF0.6
aF0.8
aF0.7
aF0.3
aF0.4
aF0.0
aF0.1
aF0.8
aF0.4
aF3.3
aF-0.2
aI0
aI0
aI5
aV101249,1610612745
p912
aa(lp913
I2422
aVJohn Salmons
p914
aI1610612758
aVSAC
p915
aF27.0
aI79
aI32
aI47
aF0.405
aF27.0
aF3.0
aF6.5
aF0.456
aF0.5
aF1.4
aF0.357
aF2.0
aF2.6
aF0.779
aF0.6
aF2.7
aF3.3
aF3.2
aF1.5
aF0.9
aF0.3
aF0.6
aF2.2
aF1.9
aF8.5
aF-2.4
aI2
aI1
aI5
aV2422,1610612758
p916
aa(lp917
I200770
aVJordan Farmar
p918
aI1610612747
aVLAL
p919
aF20.0
aI72
aI37
aI35
aF0.514
aF15.1
aF1.7
aF4.1
aF0.422
aF0.6
aF1.9
aF0.328
aF0.4
aF0.5
aF0.711
aF0.3
aF1.3
aF1.7
aF1.9
aF1.0
aF0.6
aF0.1
aF0.2
aF1.1
aF0.7
aF4.4
aF0.2
aI0
aI0
aI5
aV200770,1610612747
p920
aa(lp921
I200816
aVJorge Garbajosa
p922
aI1610612761
aVTOR
p923
aF29.0
aI67
aI36
aI31
aF0.537
aF28.5
aF3.3
aF7.9
aF0.42
aF1.0
aF2.9
aF0.342
aF0.9
aF1.2
aF0.731
aF0.7
aF4.2
aF4.9
aF1.9
aF1.0
aF1.2
aF0.2
aF0.2
aF1.3
aF1.8
aF8.5
aF1.4
aI3
aI0
aI5
aV200816,1610612761
p924
aa(lp925
I101181
aVJose Calderon
p926
aI1610612761
aVTOR
p927
aF25.0
aI77
aI45
aI32
aF0.584
aF21.0
aF3.4
aF6.6
aF0.521
aF0.3
aF1.0
aF0.333
aF1.5
aF1.9
aF0.818
aF0.3
aF1.5
aF1.7
aF5.0
aF1.4
aF0.8
aF0.1
aF0.2
aF1.8
aF2.0
aF8.7
aF0.5
aI7
aI0
aI5
aV101181,1610612761
p928
aa(lp929
I200826
aVJose Juan Barea
p930
aI1610612742
aVDAL
p931
aF23.0
aI33
aI26
aI7
aF0.788
aF5.8
aF0.8
aF2.4
aF0.359
aF0.2
aF0.6
aF0.286
aF0.5
aF0.7
aF0.667
aF0.2
aF0.5
aF0.8
aF0.7
aF0.4
aF0.0
aF0.0
aF0.2
aF0.6
aF0.8
aF2.4
aF-1.1
aI1
aI0
aI5
aV200826,1610612742
p932
aa(lp933
I200767
aVJosh Boone
p934
aI1610612751
aVNJN
p935
aF22.0
aI61
aI33
aI28
aF0.541
aF11.0
aF1.6
aF2.8
aF0.579
aF0.0
aF0.0
aF0.0
aF0.9
aF1.7
aF0.544
aF1.0
aF1.8
aF2.9
aF0.2
aF0.5
aF0.2
aF0.3
aF0.3
aF1.5
aF1.2
aF4.2
aF0.3
aI1
aI0
aI5
aV200767,1610612751
p936
aa(lp937
I2735
aVJosh Childress
p938
aI1610612737
aVATL
p939
aF24.0
aI55
aI22
aI33
aF0.4
aF36.8
aF4.7
aF9.4
aF0.504
aF0.5
aF1.4
aF0.338
aF3.0
aF3.8
aF0.795
aF2.2
aF3.9
aF6.2
aF2.3
aF1.5
aF1.1
aF0.7
aF1.0
aF2.1
aF3.0
aF13.0
aF-2.0
aI7
aI0
aI5
aV2735,1610612737
p940
aa(lp941
I2572
aVJosh Howard
p942
aI1610612742
aVDAL
p943
aF27.0
aI70
aI57
aI13
aF0.814
aF35.1
aF7.0
aF15.4
aF0.459
aF1.3
aF3.4
aF0.385
aF3.5
aF4.2
aF0.827
aF1.9
aF4.9
aF6.8
aF1.8
aF1.8
aF1.2
aF0.8
aF0.4
aF2.6
aF3.7
aF18.9
aF6.9
aI13
aI0
aI5
aV2572,1610612742
p944
aa(lp945
I2694
aVJosh Powell
p946
aI1610612744
aVGSW
p947
aF24.0
aI37
aI16
aI21
aF0.432
aF9.5
aF1.2
aF2.5
aF0.462
aF0.0
aF0.0
aF0.0
aF0.8
aF1.1
aF0.714
aF0.6
aF1.7
aF2.4
aF0.6
aF0.8
aF0.1
aF0.3
aF0.3
aF1.6
aF0.9
aF3.1
aF-3.6
aI0
aI0
aI5
aV2694,1610612744
p948
aa(lp949
I2746
aVJosh Smith
p950
aI1610612737
aVATL
p951
aF21.0
aI72
aI28
aI44
aF0.389
aF36.8
aF6.1
aF13.8
aF0.439
aF0.5
aF2.1
aF0.25
aF3.7
aF5.4
aF0.693
aF2.3
aF6.3
aF8.6
aF3.3
aF3.2
aF1.4
aF2.9
aF0.7
aF3.3
aF4.3
aF16.4
aF-2.9
aI32
aI0
aI5
aV2746,1610612737
p952
aa(lp953
I2413
aVJuan Dixon
p954
aI1610612761
aVTOR
p955
aF28.0
aI81
aI40
aI41
aF0.494
aF23.8
aF3.7
aF8.7
aF0.425
aF1.0
aF2.8
aF0.35
aF1.2
aF1.4
aF0.871
aF0.3
aF1.6
aF2.0
aF1.5
aF1.2
aF0.9
aF0.1
aF0.4
aF2.2
aF1.2
aF9.6
aF-1.2
aI0
aI0
aI5
aV2413,1610612761
p956
aa(lp957
I101125
aVJulius Hodge
p958
aI1610612749
aVMIL
p959
aF23.0
aI9
aI2
aI7
aF0.222
aF7.1
aF0.7
aF1.3
aF0.5
aF0.0
aF0.0
aF0.0
aF0.3
aF0.4
aF0.75
aF0.2
aF0.7
aF0.9
aF1.3
aF0.3
aF0.4
aF0.0
aF0.2
aF0.7
aF0.2
aF1.7
aF-0.4
aI0
aI0
aI5
aV101125,1610612749
p960
aa(lp961
I1908
aVJumaine Jones
p962
aI1610612756
aVPHX
p963
aF28.0
aI18
aI14
aI4
aF0.778
aF7.7
aF0.8
aF2.8
aF0.275
aF0.6
aF1.8
aF0.313
aF0.1
aF0.1
aF1.0
aF0.3
aF0.9
aF1.3
aF0.1
aF0.4
aF0.3
aF0.1
aF0.2
aF1.1
aF0.3
aF2.2
aF-0.8
aI0
aI0
aI5
aV1908,1610612756
p964
aa(lp965
I2454
aVJunior Harrington
p966
aI1610612763
aVMEM
p967
aF26.0
aI29
aI8
aI21
aF0.276
aF18.7
aF2.0
aF4.7
aF0.416
aF0.2
aF0.9
aF0.269
aF1.1
aF1.6
aF0.674
aF0.4
aF1.9
aF2.3
aF3.1
aF1.8
aF0.7
aF0.2
aF0.3
aF2.7
aF1.3
aF5.2
aF-1.0
aI0
aI0
aI5
aV2454,1610612763
p968
aa(lp969
I2770
aVJustin Reed
p970
aI1610612750
aVMIN
p971
aF25.0
aI41
aI17
aI24
aF0.415
aF7.8
aF1.0
aF2.6
aF0.374
aF0.0
aF0.0
aF0.0
aF0.6
aF0.7
aF0.867
aF0.4
aF0.8
aF1.1
aF0.4
aF0.5
aF0.1
aF0.1
aF0.5
aF1.1
aF0.8
aF2.6
aF-1.5
aI0
aI0
aI5
aV2770,1610612750
p972
aa(lp973
I200818
aVJustin Williams
p974
aI1610612758
aVSAC
p975
aF23.0
aI26
aI7
aI19
aF0.269
aF12.8
aF2.1
aF3.4
aF0.614
aF0.0
aF0.0
aF0.0
aF0.9
aF2.4
aF0.365
aF2.0
aF2.5
aF4.4
aF0.1
aF0.6
aF0.2
aF0.6
aF0.3
aF2.0
aF1.5
aF5.0
aF-2.3
aI2
aI0
aI5
aV200818,1610612758
p976
aa(lp977
I436
aVJuwan Howard
p978
aI1610612745
aVHOU
p979
aF34.0
aI80
aI52
aI28
aF0.65
aF26.5
aF3.9
aF8.3
aF0.465
aF0.0
aF0.0
aF0.0
aF1.9
aF2.4
aF0.824
aF1.7
aF4.2
aF5.9
aF1.6
aF1.4
aF0.4
aF0.1
aF0.5
aF2.6
aF1.7
aF9.7
aF0.9
aI9
aI0
aI5
aV436,1610612745
p980
aa(lp981
I2586
aVKeith Bogans
p982
aI1610612753
aVORL
p983
aF27.0
aI59
aI29
aI30
aF0.492
aF16.8
aF1.7
aF4.2
aF0.404
aF0.9
aF2.3
aF0.387
aF0.8
aF1.1
aF0.746
aF0.3
aF1.3
aF1.6
aF1.0
aF0.8
aF0.5
aF0.0
aF0.2
aF1.7
aF0.7
aF5.1
aF0.8
aI0
aI0
aI5
aV2586,1610612753
p984
aa(lp985
I2693
aVKeith McLeod
p986
aI1610612754
aVIND
p987
aF27.0
aI48
aI17
aI31
aF0.354
aF15.0
aF1.5
aF3.9
aF0.388
aF0.3
aF0.9
aF0.356
aF1.4
aF1.6
aF0.885
aF0.1
aF0.8
aF0.9
aF1.9
aF1.0
aF0.5
aF0.1
aF0.1
aF1.1
aF1.3
aF4.8
aF-0.6
aI0
aI0
aI5
aV2693,1610612754
p988
aa(lp989
I101235
aVKelenna Azubuike
p990
aI1610612744
aVGSW
p991
aF23.0
aI41
aI18
aI23
aF0.439
aF16.3
aF2.4
aF5.4
aF0.445
aF0.8
aF1.9
aF0.43
aF1.5
aF1.9
aF0.782
aF0.6
aF1.7
aF2.3
aF0.7
aF1.0
aF0.5
aF0.2
aF0.4
aF1.2
aF1.4
aF7.1
aF-3.9
aI0
aI0
aI5
aV101235,1610612744
p992
aa(lp993
I1509
aVKelvin Cato
p994
aI1610612752
aVNYK
p995
aF32.0
aI18
aI8
aI10
aF0.444
aF5.3
aF0.4
aF1.2
aF0.318
aF0.0
aF0.0
aF0.0
aF0.4
aF0.7
aF0.667
aF0.7
aF1.1
aF1.7
aF0.0
aF0.3
aF0.2
aF0.6
aF0.1
aF0.6
aF0.4
aF1.2
aF-1.2
aI0
aI0
aI5
aV1509,1610612752
p996
aa(lp997
I2570
aVKendrick Perkins
p998
aI1610612738
aVBOS
p999
aF22.0
aI72
aI19
aI53
aF0.264
aF21.9
aF1.8
aF3.7
aF0.491
aF0.0
aF0.0
aF0.0
aF0.8
aF1.4
aF0.6
aF1.6
aF3.6
aF5.2
aF1.3
aF1.6
aF0.3
aF1.3
aF0.3
aF3.0
aF1.3
aF4.5
aF-1.7
aI5
aI0
aI5
aV2570,1610612738
p1000
aa(lp1001
I1903
aVKenny Thomas
p1002
aI1610612758
aVSAC
p1003
aF29.0
aI62
aI25
aI37
aF0.403
aF22.8
aF2.4
aF4.9
aF0.482
aF0.0
aF0.0
aF0.0
aF0.6
aF1.2
aF0.513
aF2.2
aF3.9
aF6.1
aF1.2
aF1.5
aF0.7
aF0.3
aF0.5
aF2.3
aF1.2
aF5.3
aF-2.8
aI4
aI0
aI5
aV1903,1610612758
p1004
aa(lp1005
I2030
aVKenyon Martin
p1006
aI1610612743
aVDEN
p1007
aF29.0
aI2
aI0
aI2
aF0.0
aF31.3
aF4.0
aF8.0
aF0.5
aF0.0
aF0.5
aF0.0
aF1.5
aF6.0
aF0.25
aF3.0
aF7.0
aF10.0
aF0.5
aF2.5
aF0.0
aF0.0
aF0.0
aF5.0
aF4.5
aF9.5
aF-4.5
aI1
aI0
aI5
aV2030,1610612743
p1008
aa(lp1009
I708
aVKevin Garnett
p1010
aI1610612750
aVMIN
p1011
aF31.0
aI76
aI32
aI44
aF0.421
aF39.4
aF8.4
aF17.6
aF0.476
aF0.2
aF0.7
aF0.214
aF5.5
aF6.6
aF0.835
aF2.4
aF10.4
aF12.8
aF4.1
aF2.7
aF1.2
aF1.7
aF0.7
aF2.4
aF5.4
aF22.4
aF0.1
aI66
aI3
aI5
aV708,1610612750
p1012
aa(lp1013
I2755
aVKevin Martin
p1014
aI1610612758
aVSAC
p1015
aF24.0
aI80
aI32
aI48
aF0.4
aF35.2
aF6.3
aF13.3
aF0.473
aF1.6
aF4.2
aF0.381
aF6.0
aF7.1
aF0.844
aF0.9
aF3.4
aF4.3
aF2.2
aF1.7
aF1.2
aF0.1
aF0.7
aF2.3
aF5.0
aF20.2
aF-2.1
aI2
aI0
aI5
aV2755,1610612758
p1016
aa(lp1017
I1563
aVKevin Ollie
p1018
aI1610612755
aVPHI
p1019
aF34.0
aI53
aI19
aI34
aF0.358
aF17.3
aF1.5
aF3.5
aF0.433
aF0.0
aF0.0
aF0.0
aF0.7
aF0.8
aF0.822
aF0.2
aF1.2
aF1.4
aF2.5
aF0.9
aF0.4
aF0.0
aF0.2
aF1.4
aF1.0
aF3.8
aF-3.2
aI0
aI0
aI5
aV1563,1610612755
p1020
aa(lp1021
I788
aVKevin Willis
p1022
aI1610612742
aVDAL
p1023
aF44.0
aI5
aI3
aI2
aF0.6
aF8.5
aF1.0
aF2.6
aF0.385
aF0.0
aF0.0
aF0.0
aF0.4
aF0.4
aF1.0
aF0.4
aF1.2
aF1.6
aF0.2
aF0.4
aF0.4
aF0.2
aF0.0
aF2.2
aF0.4
aF2.4
aF1.2
aI0
aI0
aI5
aV788,1610612742
p1024
aa(lp1025
I200838
aVKevinn Pinkney
p1026
aI1610612738
aVBOS
p1027
aF23.0
aI6
aI0
aI6
aF0.0
aF16.7
aF2.0
aF4.5
aF0.444
aF0.2
aF0.3
aF0.5
aF1.0
aF1.5
aF0.667
aF1.2
aF1.3
aF2.5
aF0.8
aF0.7
aF0.5
aF0.5
aF0.3
aF2.0
aF1.3
aF5.2
aF0.8
aI0
aI0
aI5
aV200838,1610612738
p1028
aa(lp1029
I2039
aVKeyon Dooling
p1030
aI1610612753
aVORL
p1031
aF27.0
aI66
aI33
aI33
aF0.5
aF21.7
aF2.8
aF6.9
aF0.41
aF0.5
aF1.5
aF0.323
aF1.7
aF2.1
aF0.809
aF0.3
aF1.0
aF1.3
aF1.7
aF1.1
aF0.8
aF0.2
aF0.4
aF1.9
aF1.8
aF7.9
aF0.3
aI0
aI0
aI5
aV2039,1610612753
p1032
aa(lp1033
I2550
aVKirk Hinrich
p1034
aI1610612741
aVCHI
p1035
aF26.0
aI80
aI48
aI32
aF0.6
aF35.5
aF5.9
aF13.3
aF0.448
aF1.8
aF4.2
aF0.415
aF3.0
aF3.6
aF0.835
aF0.4
aF3.0
aF3.4
aF6.3
aF2.4
aF1.3
aF0.3
aF0.7
aF3.4
aF3.5
aF16.6
aF4.0
aI10
aI0
aI5
aV2550,1610612741
p1036
aa(lp1037
I2745
aVKirk Snyder
p1038
aI1610612745
aVHOU
p1039
aF24.0
aI39
aI23
aI16
aF0.59
aF14.4
aF1.7
aF3.7
aF0.452
aF0.3
aF1.1
aF0.25
aF1.3
aF1.9
aF0.653
aF0.4
aF1.7
aF2.1
aF1.0
aF0.7
aF0.3
aF0.3
aF0.3
aF1.3
aF1.3
aF4.9
aF-1.2
aI0
aI0
aI5
aV2745,1610612745
p1040
aa(lp1041
I977
aVKobe Bryant
p1042
aI1610612747
aVLAL
p1043
aF28.0
aI77
aI39
aI38
aF0.506
aF40.8
aF10.6
aF22.8
aF0.463
aF1.8
aF5.2
aF0.344
aF8.7
aF10.0
aF0.868
aF1.0
aF4.7
aF5.7
aF5.4
aF3.3
aF1.4
aF0.5
aF1.0
aF2.7
aF8.0
aF31.6
aF1.3
aI10
aI0
aI5
aV977,1610612747
p1044
aa(lp1045
I2743
aVKris Humphries
p1046
aI1610612761
aVTOR
p1047
aF22.0
aI60
aI35
aI25
aF0.583
aF11.2
aF1.5
aF3.1
aF0.47
aF0.0
aF0.0
aF0.0
aF0.9
aF1.3
aF0.671
aF1.3
aF1.8
aF3.1
aF0.3
aF0.5
aF0.2
aF0.4
aF0.5
aF1.6
aF1.3
aF3.8
aF-0.7
aI0
aI0
aI5
aV2743,1610612761
p1048
aa(lp1049
I703
aVKurt Thomas
p1050
aI1610612756
aVPHX
p1051
aF34.0
aI67
aI51
aI16
aF0.761
aF18.0
aF1.9
aF3.9
aF0.486
aF0.0
aF0.0
aF0.0
aF0.8
aF1.1
aF0.789
aF1.3
aF4.4
aF5.7
aF0.4
aF0.5
aF0.4
aF0.4
aF0.2
aF2.3
aF1.3
aF4.6
aF3.7
aI3
aI0
aI5
aV703,1610612756
p1052
aa(lp1053
I2198
aVKwame Brown
p1054
aI1610612747
aVLAL
p1055
aF25.0
aI41
aI24
aI17
aF0.585
aF27.6
aF3.5
aF5.9
aF0.591
aF0.0
aF0.0
aF0.0
aF1.4
aF3.3
aF0.44
aF2.0
aF4.0
aF6.0
aF1.8
aF1.9
aF1.0
aF1.2
aF0.6
aF3.0
aF3.4
aF8.4
aF1.7
aI4
aI0
aI5
aV2198,1610612747
p1056
aa(lp1057
I2594
aVKyle Korver
p1058
aI1610612755
aVPHI
p1059
aF26.0
aI74
aI30
aI44
aF0.405
aF30.9
aF5.0
aF11.4
aF0.44
aF1.8
aF4.1
aF0.43
aF2.6
aF2.8
aF0.914
aF0.4
aF3.1
aF3.5
aF1.4
aF1.6
aF0.8
aF0.3
aF0.4
aF2.5
aF2.1
aF14.4
aF-2.4
aI0
aI0
aI5
aV2594,1610612755
p1060
aa(lp1061
I200768
aVKyle Lowry
p1062
aI1610612763
aVMEM
p1063
aF21.0
aI10
aI2
aI8
aF0.2
aF17.5
aF1.4
aF3.8
aF0.368
aF0.3
aF0.8
aF0.375
aF2.5
aF2.8
aF0.893
aF1.2
aF1.9
aF3.1
aF3.2
aF1.2
aF1.4
aF0.1
aF0.3
aF2.0
aF2.6
aF5.6
aF6.0
aI0
aI0
aI5
aV200768,1610612763
p1064
aa(lp1065
I200746
aVLaMarcus Aldridge
p1066
aI1610612757
aVPOR
p1067
aF21.0
aI63
aI24
aI39
aF0.381
aF22.1
aF3.8
aF7.6
aF0.503
aF0.0
aF0.0
aF0.0
aF1.3
aF1.8
aF0.722
aF2.3
aF2.7
aF5.0
aF0.4
aF0.7
aF0.3
aF1.2
aF0.3
aF3.0
aF1.6
aF9.0
aF-0.9
aI6
aI0
aI5
aV200746,1610612757
p1068
aa(lp1069
I1885
aVLamar Odom
p1070
aI1610612747
aVLAL
p1071
aF27.0
aI56
aI30
aI26
aF0.536
aF39.3
aF5.7
aF12.2
aF0.468
aF1.0
aF3.3
aF0.297
aF3.5
aF5.1
aF0.7
aF1.8
aF7.9
aF9.8
aF4.8
aF2.9
aF0.9
aF0.6
aF0.6
aF3.3
aF4.1
aF15.9
aF1.4
aI25
aI1
aI5
aV1885,1610612747
p1072
aa(lp1073
I1716
aVLarry Hughes
p1074
aI1610612739
aVCLE
p1075
aF28.0
aI70
aI44
aI26
aF0.629
aF37.1
aF5.4
aF13.6
aF0.4
aF1.1
aF3.2
aF0.333
aF3.0
aF4.4
aF0.676
aF0.6
aF3.2
aF3.8
aF3.7
aF2.2
aF1.3
aF0.4
aF0.8
aF2.3
aF3.3
aF14.9
aF3.1
aI1
aI0
aI5
aV1716,1610612739
p1076
aa(lp1077
I101160
aVLawrence Roberts
p1078
aI1610612763
aVMEM
p1079
aF24.0
aI54
aI14
aI40
aF0.259
aF17.9
aF1.7
aF3.9
aF0.452
aF0.0
aF0.0
aF0.0
aF1.8
aF2.4
aF0.725
aF1.9
aF3.0
aF4.8
aF0.6
aF0.7
aF0.7
aF0.2
aF0.7
aF2.5
aF1.8
aF5.2
aF-0.7
aI0
aI0
aI5
aV101160,1610612763
p1080
aa(lp1081
I2544
aVLeBron James
p1082
aI1610612739
aVCLE
p1083
aF22.0
aI78
aI47
aI31
aF0.603
aF40.9
aF9.9
aF20.8
aF0.476
aF1.3
aF4.0
aF0.319
aF6.3
aF9.0
aF0.698
aF1.1
aF5.7
aF6.7
aF6.0
aF3.2
aF1.6
aF0.7
aF0.6
aF2.2
aF6.6
aF27.3
aF4.8
aI16
aI1
aI5
aV2544,1610612739
p1084
aa(lp1085
I2571
aVLeandro Barbosa
p1086
aI1610612756
aVPHX
p1087
aF24.0
aI80
aI59
aI21
aF0.738
aF32.7
aF6.6
aF13.9
aF0.476
aF2.4
aF5.5
aF0.434
aF2.5
aF2.9
aF0.845
aF0.3
aF2.4
aF2.7
aF4.0
aF1.8
aF1.2
aF0.2
aF0.6
aF2.6
aF2.9
aF18.1
aF5.8
aI5
aI0
aI5
aV2571,1610612756
p1088
aa(lp1089
I200796
aVLeon Powe
p1090
aI1610612738
aVBOS
p1091
aF23.0
aI63
aI19
aI44
aF0.302
aF11.4
aF1.3
aF2.8
aF0.446
aF0.0
aF0.0
aF0.0
aF1.7
aF2.3
aF0.736
aF1.5
aF1.9
aF3.4
aF0.2
aF0.7
aF0.2
aF0.3
aF0.2
aF1.7
aF2.0
aF4.2
aF-0.6
aI1
aI0
aI5
aV200796,1610612738
p1092
aa(lp1093
I101132
aVLinas Kleiza
p1094
aI1610612743
aVDEN
p1095
aF22.0
aI79
aI42
aI37
aF0.532
aF18.8
aF2.5
aF6.0
aF0.422
aF1.1
aF2.8
aF0.376
aF1.5
aF1.7
aF0.852
aF1.0
aF2.4
aF3.4
aF0.6
aF1.0
aF0.4
aF0.2
aF0.4
aF2.5
aF1.1
aF7.6
aF0.8
aI1
aI0
aI5
aV101132,1610612743
p1096
aa(lp1097
I283
aVLindsey Hunter
p1098
aI1610612765
aVDET
p1099
aF36.0
aI52
aI36
aI16
aF0.692
aF14.3
aF1.8
aF4.7
aF0.385
aF0.7
aF2.3
aF0.319
aF0.6
aF0.6
aF0.909
aF0.2
aF0.7
aF0.9
aF1.8
aF0.7
aF0.7
aF0.1
aF0.2
aF1.1
aF0.8
aF4.9
aF-1.3
aI0
aI0
aI5
aV283,1610612765
p1100
aa(lp1101
I2669
aVLinton Johnson
p1102
aI1610612740
aVNOK
p1103
aF27.0
aI54
aI27
aI27
aF0.5
aF13.3
aF1.7
aF3.5
aF0.489
aF0.2
aF0.6
aF0.333
aF0.6
aF0.7
aF0.811
aF1.0
aF2.1
aF3.0
aF0.3
aF0.5
aF0.6
aF0.3
aF0.1
aF1.9
aF0.6
aF4.2
aF0.0
aI0
aI0
aI5
aV2669,1610612740
p1104
aa(lp1105
I953
aVLorenzen Wright
p1106
aI1610612737
aVATL
p1107
aF31.0
aI67
aI23
aI44
aF0.343
aF15.5
aF1.2
aF2.7
aF0.448
aF0.0
aF0.0
aF0.0
aF0.1
aF0.5
aF0.281
aF1.3
aF2.0
aF3.2
aF0.6
aF0.6
aF0.4
aF0.4
aF0.3
aF3.0
aF0.7
aF2.6
aF-2.0
aI0
aI0
aI5
aV953,1610612737
p1108
aa(lp1109
I200811
aVLou Amundson
p1110
aI1610612755
aVPHI
p1111
aF24.0
aI11
aI6
aI5
aF0.545
aF8.1
aF0.5
aF1.4
aF0.4
aF0.0
aF0.0
aF0.0
aF0.4
aF0.9
aF0.4
aF1.2
aF1.4
aF2.5
aF0.1
aF0.5
aF0.1
aF0.7
aF0.4
aF1.4
aF1.1
aF1.5
aF-2.0
aI0
aI0
aI5
aV200811,1610612755
p1112
aa(lp1113
I101150
aVLou Williams
p1114
aI1610612755
aVPHI
p1115
aF20.0
aI61
aI23
aI38
aF0.377
aF11.3
aF1.5
aF3.5
aF0.441
aF0.2
aF0.6
aF0.324
aF1.0
aF1.5
aF0.696
aF0.3
aF0.9
aF1.1
aF1.8
aF0.8
aF0.4
aF0.0
aF0.4
aF0.7
aF1.4
aF4.3
aF0.6
aI0
aI0
aI5
aV101150,1610612755
p1116
aa(lp1117
I2739
aVLuke Jackson
p1118
aI1610612761
aVTOR
p1119
aF25.0
aI13
aI8
aI5
aF0.615
aF10.6
aF1.5
aF3.3
aF0.442
aF0.4
aF1.3
aF0.294
aF0.4
aF0.7
aF0.556
aF0.2
aF0.6
aF0.8
aF1.0
aF0.5
aF0.4
aF0.1
aF0.2
aF1.2
aF0.8
aF3.7
aF-1.8
aI0
aI0
aI5
aV2739,1610612761
p1120
aa(lp1121
I2557
aVLuke Ridnour
p1122
aI1610612760
aVSEA
p1123
aF26.0
aI71
aI29
aI42
aF0.408
aF29.4
aF4.2
aF9.8
aF0.433
aF0.7
aF2.0
aF0.353
aF1.8
aF2.2
aF0.805
aF0.4
aF1.9
aF2.3
aF5.2
aF2.2
aF1.2
aF0.3
aF0.5
aF2.5
aF2.3
aF11.0
aF-2.3
aI6
aI0
aI5
aV2557,1610612760
p1124
aa(lp1125
I101195
aVLuke Schenscher
p1126
aI1610612757
aVPOR
p1127
aF25.0
aI11
aI4
aI7
aF0.364
aF10.7
aF0.6
aF2.1
aF0.304
aF0.0
aF0.0
aF0.0
aF0.5
aF0.6
aF0.714
aF0.9
aF1.4
aF2.3
aF0.1
aF0.4
aF0.2
aF0.4
aF0.4
aF2.3
aF0.6
aF1.7
aF-0.3
aI0
aI0
aI5
aV101195,1610612757
p1128
aa(lp1129
I2575
aVLuke Walton
p1130
aI1610612747
aVLAL
p1131
aF27.0
aI60
aI35
aI25
aF0.583
aF33.0
aF4.4
aF9.3
aF0.474
aF0.8
aF2.1
aF0.387
aF1.8
aF2.4
aF0.745
aF1.5
aF3.6
aF5.0
aF4.3
aF2.0
aF1.0
aF0.4
aF0.6
aF2.0
aF2.3
aF11.4
aF0.2
aI5
aI0
aI5
aV2575,1610612747
p1132
aa(lp1133
I2736
aVLuol Deng
p1134
aI1610612741
aVCHI
p1135
aF22.0
aI82
aI49
aI33
aF0.598
aF37.5
aF7.7
aF14.9
aF0.517
aF0.0
aF0.1
aF0.143
aF3.4
aF4.4
aF0.777
aF1.8
aF5.3
aF7.1
aF2.5
aF1.9
aF1.2
aF0.6
aF1.0
aF2.0
aF3.8
aF18.8
aF5.1
aI17
aI0
aI5
aV2736,1610612741
p1136
aa(lp1137
I101129
aVLuther Head
p1138
aI1610612745
aVHOU
p1139
aF24.0
aI80
aI51
aI29
aF0.638
aF27.6
aF3.8
aF8.8
aF0.437
aF2.2
aF5.0
aF0.441
aF1.0
aF1.3
aF0.79
aF0.4
aF2.8
aF3.2
aF2.4
aF1.7
aF1.0
aF0.1
aF0.5
aF1.7
aF1.1
aF10.9
aF0.7
aI0
aI0
aI5
aV101129,1610612745
p1140
aa(lp1141
I2696
aVLynn Greer
p1142
aI1610612749
aVMIL
p1143
aF27.0
aI41
aI10
aI31
aF0.244
aF10.5
aF1.5
aF3.4
aF0.433
aF0.4
aF1.3
aF0.346
aF0.7
aF0.8
aF0.844
aF0.0
aF0.6
aF0.7
aF1.3
aF0.4
aF0.4
aF0.0
aF0.1
aF0.8
aF0.8
aF4.1
aF-0.6
aI0
aI0
aI5
aV2696,1610612749
p1144
aa(lp1145
I1766
aVMaceo Baston
p1146
aI1610612754
aVIND
p1147
aF31.0
aI47
aI22
aI25
aF0.468
aF8.6
aF1.0
aF1.6
aF0.645
aF0.1
aF0.1
aF0.429
aF0.8
aF1.0
aF0.787
aF0.4
aF1.1
aF1.6
aF0.3
aF0.7
aF0.3
aF0.4
aF0.2
aF1.4
aF1.4
aF2.9
aF-0.9
aI0
aI0
aI5
aV1766,1610612754
p1148
aa(lp1149
I2124
aVMalik Allen
p1150
aI1610612741
aVCHI
p1151
aF29.0
aI60
aI35
aI25
aF0.583
aF10.6
aF1.8
aF4.3
aF0.415
aF0.0
aF0.0
aF0.0
aF0.5
aF0.6
aF0.824
aF0.7
aF1.3
aF2.0
aF0.3
aF0.4
aF0.3
aF0.3
aF0.2
aF1.4
aF0.7
aF4.0
aF1.2
aI0
aI0
aI5
aV2124,1610612741
p1152
aa(lp1153
I990
aVMalik Rose
p1154
aI1610612752
aVNYK
p1155
aF32.0
aI65
aI25
aI40
aF0.385
aF12.5
aF1.1
aF2.9
aF0.398
aF0.0
aF0.1
aF0.25
aF0.6
aF0.8
aF0.808
aF0.7
aF2.0
aF2.7
aF1.0
aF1.0
aF0.4
aF0.1
aF0.2
aF1.8
aF0.8
aF3.0
aF-2.0
aI1
aI0
aI5
aV990,1610612752
p1156
aa(lp1157
I1938
aVManu Ginobili
p1158
aI1610612759
aVSAS
p1159
aF29.0
aI75
aI56
aI19
aF0.747
aF27.5
aF5.3
aF11.4
aF0.464
aF1.7
aF4.3
aF0.396
aF4.3
aF5.0
aF0.86
aF0.8
aF3.6
aF4.4
aF3.5
aF2.1
aF1.5
aF0.4
aF0.5
aF2.1
aF4.1
aF16.5
aF7.2
aI1
aI0
aI5
aV1938,1610612759
p1160
aa(lp1161
I1531
aVMarc Jackson
p1162
aI1610612740
aVNOK
p1163
aF32.0
aI56
aI23
aI33
aF0.411
aF18.3
aF2.8
aF6.9
aF0.41
aF0.0
aF0.0
aF0.0
aF1.6
aF1.8
aF0.874
aF1.1
aF2.3
aF3.4
aF1.0
aF1.2
aF0.4
aF0.1
aF0.4
aF1.6
aF1.7
aF7.3
aF-2.5
aI4
aI0
aI5
aV1531,1610612740
p1164
aa(lp1165
I2556
aVMarcus Banks
p1166
aI1610612756
aVPHX
p1167
aF25.0
aI45
aI32
aI13
aF0.711
aF11.2
aF1.9
aF4.4
aF0.429
aF0.1
aF0.6
aF0.172
aF1.1
aF1.3
aF0.8
aF0.2
aF0.6
aF0.8
aF1.3
aF0.9
aF0.5
aF0.1
aF0.2
aF1.6
aF1.3
aF4.9
aF-3.1
aI0
aI0
aI5
aV2556,1610612756
p1168
aa(lp1169
I948
aVMarcus Camby
p1170
aI1610612743
aVDEN
p1171
aF33.0
aI70
aI39
aI31
aF0.557
aF33.8
aF4.5
aF9.4
aF0.473
aF0.0
aF0.0
aF0.0
aF2.3
aF3.2
aF0.729
aF2.3
aF9.3
aF11.7
aF3.2
aF1.7
aF1.2
aF3.3
aF0.3
aF2.6
aF2.5
aF11.2
aF1.6
aI32
aI0
aI5
aV948,1610612743
p1172
aa(lp1173
I200790
aVMarcus Vinicius
p1174
aI1610612740
aVNOK
p1175
aF23.0
aI13
aI4
aI9
aF0.308
aF7.9
aF0.5
aF1.2
aF0.467
aF0.2
aF0.5
aF0.429
aF0.4
aF0.5
aF0.714
aF0.2
aF0.7
aF0.8
aF0.4
aF0.5
aF0.2
aF0.1
aF0.0
aF0.8
aF0.6
aF1.7
aF-2.5
aI0
aI0
aI5
aV200790,1610612740
p1176
aa(lp1177
I200766
aVMarcus Williams
p1178
aI1610612751
aVNJN
p1179
aF21.0
aI79
aI40
aI39
aF0.506
aF16.6
aF2.6
aF6.7
aF0.395
aF0.6
aF2.1
aF0.282
aF0.9
aF1.1
aF0.847
aF0.4
aF1.7
aF2.1
aF3.3
aF1.8
aF0.4
aF0.0
aF0.5
aF1.2
aF1.1
aF6.8
aF-0.5
aI0
aI0
aI5
aV200766,1610612751
p1180
aa(lp1181
I200776
aVMardy Collins
p1182
aI1610612752
aVNYK
p1183
aF22.0
aI52
aI19
aI33
aF0.365
aF14.9
aF1.7
aF4.4
aF0.382
aF0.3
aF0.9
aF0.277
aF0.9
aF1.6
aF0.585
aF0.5
aF1.5
aF2.0
aF1.6
aF1.1
aF0.6
aF0.1
aF0.3
aF1.4
aF1.0
aF4.5
aF-1.9
aI3
aI0
aI5
aV200776,1610612752
p1184
aa(lp1185
I1548
aVMark Blount
p1186
aI1610612750
aVMIN
p1187
aF31.0
aI82
aI32
aI50
aF0.39
aF31.0
aF5.2
aF10.2
aF0.509
aF0.1
aF0.4
aF0.29
aF1.8
aF2.4
aF0.754
aF1.7
aF4.5
aF6.2
aF0.8
aF1.9
aF0.5
aF0.7
aF0.6
aF2.9
aF2.3
aF12.3
aF-3.6
aI8
aI0
aI5
aV1548,1610612750
p1188
aa(lp1189
I2058
aVMark Madsen
p1190
aI1610612750
aVMIN
p1191
aF31.0
aI56
aI24
aI32
aF0.429
aF8.5
aF0.4
aF0.8
aF0.535
aF0.0
aF0.0
aF0.0
aF0.3
aF0.5
aF0.517
aF0.6
aF0.9
aF1.6
aF0.2
aF0.4
aF0.2
aF0.2
aF0.1
aF1.8
aF0.8
aF1.1
aF-0.3
aI0
aI0
aI5
aV2058,1610612750
p1192
aa(lp1193
I2060
aVMarko Jaric
p1194
aI1610612750
aVMIN
p1195
aF28.0
aI70
aI26
aI44
aF0.371
aF22.2
aF1.9
aF4.6
aF0.418
aF0.5
aF1.2
aF0.376
aF1.0
aF1.3
aF0.761
aF0.8
aF1.9
aF2.6
aF2.1
aF1.3
aF1.1
aF0.2
aF0.3
aF2.5
aF1.1
aF5.3
aF-2.2
aI0
aI0
aI5
aV2060,1610612750
p1196
aa(lp1197
I2605
aVMarquis Daniels
p1198
aI1610612754
aVIND
p1199
aF26.0
aI45
aI23
aI22
aF0.511
aF17.8
aF2.9
aF6.2
aF0.459
aF0.1
aF0.6
aF0.231
aF1.2
aF1.8
aF0.7
aF0.6
aF1.2
aF1.8
aF1.3
aF1.2
aF0.6
aF0.2
aF0.4
aF1.2
aF2.0
aF7.1
aF-1.7
aI0
aI0
aI5
aV2605,1610612754
p1200
aa(lp1201
I101110
aVMartell Webster
p1202
aI1610612757
aVPOR
p1203
aF20.0
aI82
aI32
aI50
aF0.39
aF21.5
aF2.4
aF6.0
aF0.396
aF1.1
aF3.0
aF0.364
aF1.1
aF1.6
aF0.705
aF0.5
aF2.4
aF2.9
aF0.6
aF0.9
aF0.4
aF0.2
aF0.2
aF1.5
aF1.3
aF7.0
aF-1.8
aI0
aI0
aI5
aV101110,1610612757
p1204
aa(lp1205
I101107
aVMarvin Williams
p1206
aI1610612737
aVATL
p1207
aF21.0
aI64
aI21
aI43
aF0.328
aF34.0
aF4.8
aF11.0
aF0.433
aF0.2
aF0.7
aF0.244
aF3.4
aF4.1
aF0.815
aF1.3
aF4.0
aF5.3
aF1.9
aF2.0
aF0.8
aF0.5
aF0.9
aF3.0
aF2.8
aF13.1
aF-3.0
aI4
aI0
aI5
aV101107,1610612737
p1208
aa(lp1209
I2440
aVMatt Barnes
p1210
aI1610612744
aVGSW
p1211
aF27.0
aI76
aI40
aI36
aF0.526
aF23.8
aF3.6
aF8.3
aF0.438
aF1.4
aF3.8
aF0.366
aF1.2
aF1.6
aF0.732
aF1.2
aF3.4
aF4.6
aF2.1
aF1.4
aF1.0
aF0.5
aF0.3
aF2.5
aF1.2
aF9.8
aF-0.3
aI8
aI0
aI5
aV2440,1610612744
p1212
aa(lp1213
I2588
aVMatt Bonner
p1214
aI1610612759
aVSAS
p1215
aF27.0
aI56
aI46
aI10
aF0.821
aF11.7
aF1.9
aF4.2
aF0.447
aF0.6
aF1.7
aF0.383
aF0.5
aF0.7
aF0.711
aF1.1
aF1.6
aF2.8
aF0.4
aF0.4
aF0.3
aF0.2
aF0.1
aF1.2
aF0.6
aF4.9
aF0.5
aI1
aI0
aI5
aV2588,1610612759
p1216
aa(lp1217
I2679
aVMatt Carroll
p1218
aI1610612766
aVCHA
p1219
aF26.0
aI72
aI28
aI44
aF0.389
aF26.1
aF4.0
aF9.1
aF0.433
aF1.5
aF3.7
aF0.416
aF2.6
aF2.9
aF0.904
aF0.5
aF2.4
aF2.9
aF1.3
aF1.0
aF0.7
aF0.1
aF0.5
aF2.4
aF1.9
aF12.1
aF-1.6
aI0
aI0
aI5
aV2679,1610612766
p1220
aa(lp1221
I2782
aVMatt Freije
p1222
aI1610612737
aVATL
p1223
aF25.0
aI19
aI9
aI10
aF0.474
aF7.7
aF0.8
aF2.8
aF0.296
aF0.2
aF1.2
aF0.136
aF0.3
aF0.3
aF0.833
aF0.4
aF0.8
aF1.3
aF0.4
aF0.2
aF0.2
aF0.1
aF0.2
aF0.7
aF0.4
aF2.1
aF0.3
aI0
aI0
aI5
aV2782,1610612737
p1224
aa(lp1225
I1723
aVMatt Harpring
p1226
aI1610612762
aVUTA
p1227
aF31.0
aI77
aI49
aI28
aF0.636
aF25.5
aF4.2
aF8.5
aF0.491
aF0.2
aF0.5
aF0.333
aF3.1
aF4.0
aF0.767
aF1.5
aF3.1
aF4.6
aF1.3
aF1.5
aF0.7
aF0.1
aF0.5
aF3.0
aF3.4
aF11.6
aF2.9
aI2
aI0
aI5
aV1723,1610612762
p1228
aa(lp1229
I200772
aVMaurice Ager
p1230
aI1610612742
aVDAL
p1231
aF23.0
aI32
aI26
aI6
aF0.813
aF6.7
aF0.7
aF2.2
aF0.314
aF0.2
aF0.5
aF0.333
aF0.6
aF1.0
aF0.606
aF0.0
aF0.6
aF0.7
aF0.2
aF0.5
aF0.1
aF0.1
aF0.2
aF0.8
aF0.6
aF2.2
aF-2.2
aI0
aI0
aI5
aV200772,1610612742
p1232
aa(lp1233
I2230
aVMaurice Evans
p1234
aI1610612747
aVLAL
p1235
aF28.0
aI76
aI39
aI37
aF0.513
aF22.8
aF3.1
aF7.1
aF0.432
aF0.6
aF1.8
aF0.361
aF1.6
aF2.0
aF0.787
aF1.2
aF1.7
aF2.9
aF1.0
aF0.8
aF0.5
aF0.2
aF0.6
aF1.7
aF1.5
aF8.4
aF0.0
aI0
aI0
aI5
aV2230,1610612747
p1236
aa(lp1237
I1508
aVMaurice Taylor
p1238
aI1610612758
aVSAC
p1239
aF30.0
aI12
aI3
aI9
aF0.25
aF8.6
aF0.7
aF2.3
aF0.286
aF0.0
aF0.0
aF0.0
aF0.7
aF1.1
aF0.615
aF0.8
aF1.5
aF2.3
aF0.4
aF0.5
aF0.3
aF0.1
aF0.4
aF1.3
aF0.8
aF2.0
aF2.3
aI0
aI0
aI5
aV1508,1610612758
p1240
aa(lp1241
I2246
aVMehmet Okur
p1242
aI1610612762
aVUTA
p1243
aF28.0
aI80
aI49
aI31
aF0.613
aF33.3
aF6.1
aF13.3
aF0.462
aF1.6
aF4.2
aF0.384
aF3.7
aF4.8
aF0.765
aF2.0
aF5.2
aF7.2
aF2.0
aF1.6
aF0.5
aF0.5
aF0.5
aF3.2
aF3.6
aF17.6
aF0.5
aI21
aI0
aI5
aV2246,1610612762
p1244
aa(lp1245
I2408
aVMelvin Ely
p1246
aI1610612759
aVSAS
p1247
aF29.0
aI30
aI7
aI23
aF0.233
aF10.3
aF1.0
aF2.7
aF0.363
aF0.0
aF0.0
aF0.0
aF1.0
aF1.6
aF0.66
aF0.5
aF1.3
aF1.8
aF0.6
aF0.9
aF0.2
aF0.3
aF0.3
aF1.7
aF1.4
aF3.0
aF-3.1
aI0
aI0
aI5
aV2408,1610612759
p1248
aa(lp1249
I1897
aVMetta World Peace
p1250
aI1610612758
aVSAC
p1251
aF27.0
aI70
aI28
aI42
aF0.4
aF37.7
aF6.5
aF14.9
aF0.44
aF1.3
aF3.7
aF0.358
aF4.4
aF5.9
aF0.74
aF1.5
aF5.0
aF6.5
aF3.4
aF2.1
aF2.1
aF0.6
aF1.1
aF2.9
aF4.7
aF18.8
aF0.6
aI11
aI0
aI5
aV1897,1610612758
p1252
aa(lp1253
I1720
aVMichael Doleac
p1254
aI1610612748
aVMIA
p1255
aF30.0
aI56
aI26
aI30
aF0.464
aF12.5
aF1.5
aF3.1
aF0.469
aF0.0
aF0.0
aF0.0
aF0.6
aF0.7
aF0.878
aF0.8
aF2.0
aF2.8
aF0.4
aF0.5
aF0.3
aF0.3
aF0.2
aF1.7
aF0.6
aF3.6
aF-1.4
aI1
aI0
aI5
aV1720,1610612748
p1256
aa(lp1257
I714
aVMichael Finley
p1258
aI1610612759
aVSAS
p1259
aF34.0
aI82
aI58
aI24
aF0.707
aF22.2
aF3.3
aF8.1
aF0.412
aF1.3
aF3.5
aF0.364
aF1.1
aF1.2
aF0.918
aF0.4
aF2.3
aF2.7
aF1.3
aF0.6
aF0.4
aF0.2
aF0.1
aF0.9
aF0.8
aF9.0
aF2.2
aI1
aI0
aI5
aV714,1610612759
p1260
aa(lp1261
I1709
aVMichael Olowokandi
p1262
aI1610612738
aVBOS
p1263
aF32.0
aI24
aI5
aI19
aF0.208
aF9.7
aF0.8
aF1.9
aF0.413
aF0.0
aF0.0
aF0.0
aF0.1
aF0.1
aF0.667
aF0.6
aF1.4
aF2.0
aF0.2
aF0.7
aF0.3
aF0.5
aF0.2
aF2.0
aF0.3
aF1.7
aF-1.3
aI0
aI0
aI5
aV1709,1610612738
p1264
aa(lp1265
I2072
aVMichael Redd
p1266
aI1610612749
aVMIL
p1267
aF27.0
aI53
aI22
aI31
aF0.415
aF38.4
aF9.0
aF19.3
aF0.465
aF2.2
aF5.8
aF0.382
aF6.5
aF7.8
aF0.829
aF0.8
aF2.9
aF3.7
aF2.3
aF2.3
aF1.2
aF0.2
aF1.3
aF1.5
aF5.5
aF26.7
aF0.0
aI0
aI0
aI5
aV2072,1610612749
p1268
aa(lp1269
I1913
aVMichael Ruffin
p1270
aI1610612764
aVWAS
p1271
aF30.0
aI30
aI12
aI18
aF0.4
aF9.0
aF0.2
aF0.6
aF0.278
aF0.0
aF0.0
aF0.0
aF0.2
aF0.6
aF0.368
aF1.2
aF0.9
aF2.1
aF0.2
aF0.4
aF0.2
aF0.3
aF0.0
aF1.4
aF0.6
aF0.6
aF-3.2
aI0
aI0
aI5
aV1913,1610612764
p1272
aa(lp1273
I2552
aVMichael Sweetney
p1274
aI1610612741
aVCHI
p1275
aF24.0
aI48
aI29
aI19
aF0.604
aF8.0
aF1.2
aF2.8
aF0.433
aF0.0
aF0.0
aF0.0
aF0.8
aF1.4
aF0.561
aF0.9
aF1.6
aF2.5
aF0.6
aF0.9
aF0.2
aF0.2
aF0.6
aF1.6
aF1.1
aF3.2
aF0.6
aI1
aI0
aI5
aV2552,1610612741
p1276
aa(lp1277
I101153
aVMickael Gelabale
p1278
aI1610612760
aVSEA
p1279
aF24.0
aI70
aI26
aI44
aF0.371
aF17.7
aF1.7
aF3.8
aF0.462
aF0.2
aF0.7
aF0.234
aF0.9
aF1.2
aF0.805
aF0.8
aF1.6
aF2.5
aF0.8
aF0.7
aF0.3
aF0.3
aF0.2
aF1.5
aF1.0
aF4.6
aF-1.0
aI0
aI0
aI5
aV101153,1610612760
p1280
aa(lp1281
I2554
aVMickael Pietrus
p1282
aI1610612744
aVGSW
p1283
aF25.0
aI72
aI37
aI35
aF0.514
aF26.9
aF4.0
aF8.1
aF0.488
aF1.3
aF3.3
aF0.388
aF1.9
aF2.9
aF0.648
aF1.1
aF3.4
aF4.5
aF0.9
aF1.5
aF0.7
aF0.8
aF0.4
aF3.1
aF2.4
aF11.1
aF-2.4
aI4
aI0
aI5
aV2554,1610612744
p1284
aa(lp1285
I1710
aVMike Bibby
p1286
aI1610612758
aVSAC
p1287
aF29.0
aI82
aI33
aI49
aF0.402
aF34.0
aF5.7
aF14.2
aF0.404
aF2.1
aF5.9
aF0.36
aF3.5
aF4.2
aF0.83
aF0.5
aF2.7
aF3.2
aF4.7
aF2.4
aF1.1
aF0.1
aF0.3
aF1.7
aF3.5
aF17.1
aF-0.3
aI2
aI0
aI5
aV1710,1610612758
p1288
aa(lp1289
I2399
aVMike Dunleavy
p1290
aI1610612754
aVIND
p1291
aF26.0
aI82
aI34
aI48
aF0.415
aF31.5
aF4.7
aF10.4
aF0.452
aF0.9
aF2.7
aF0.313
aF2.6
aF3.3
aF0.784
aF1.0
aF4.2
aF5.3
aF2.8
aF1.8
aF1.0
aF0.3
aF0.4
aF2.5
aF3.0
aF12.8
aF-0.9
aI7
aI0
aI5
aV2399,1610612754
p1292
aa(lp1293
I200837
aVMike Hall
p1294
aI1610612764
aVWAS
p1295
aF23.0
aI2
aI0
aI2
aF0.0
aF6.4
aF0.5
aF2.0
aF0.25
aF0.0
aF0.0
aF0.0
aF0.0
aF0.0
aF0.0
aF0.5
aF0.5
aF1.0
aF0.5
aF0.0
aF0.0
aF0.0
aF0.0
aF0.5
aF0.5
aF1.0
aF-1.5
aI0
aI0
aI5
aV200837,1610612764
p1296
aa(lp1297
I2229
aVMike James
p1298
aI1610612750
aVMIN
p1299
aF32.0
aI82
aI32
aI50
aF0.39
aF25.2
aF3.6
aF8.6
aF0.423
aF1.0
aF2.6
aF0.372
aF1.9
aF2.2
aF0.837
aF0.3
aF1.7
aF2.0
aF3.6
aF1.6
aF0.7
aF0.1
aF0.5
aF2.1
aF1.8
aF10.1
aF-2.4
aI2
aI0
aI5
aV2229,1610612750
p1300
aa(lp1301
I2034
aVMike Miller
p1302
aI1610612763
aVMEM
p1303
aF27.0
aI70
aI17
aI53
aF0.243
aF39.1
aF6.6
aF14.4
aF0.46
aF2.9
aF7.1
aF0.406
aF2.3
aF2.9
aF0.793
aF0.7
aF4.7
aF5.4
aF4.3
aF2.6
aF0.8
aF0.3
aF0.5
aF2.0
aF3.0
aF18.5
aF-4.3
aI6
aI0
aI5
aV2034,1610612763
p1304
aa(lp1305
I2366
aVMike Wilks
p1306
aI1610612760
aVSEA
p1307
aF28.0
aI47
aI14
aI33
aF0.298
aF11.4
aF1.4
aF3.0
aF0.468
aF0.1
aF0.3
aF0.333
aF0.7
aF0.9
aF0.786
aF0.3
aF0.8
aF1.1
aF1.7
aF0.7
aF0.3
aF0.1
aF0.2
aF1.1
aF0.9
aF3.6
aF0.4
aI1
aI0
aI5
aV2366,1610612760
p1308
aa(lp1309
I1630
aVMikki Moore
p1310
aI1610612751
aVNJN
p1311
aF31.0
aI79
aI39
aI40
aF0.494
aF26.3
aF3.9
aF6.4
aF0.609
aF0.0
aF0.0
aF0.0
aF2.0
aF3.0
aF0.681
aF1.8
aF3.3
aF5.1
aF0.9
aF1.4
aF0.6
aF0.8
aF0.6
aF3.3
aF3.0
aF9.8
aF0.1
aI2
aI0
aI5
aV1630,1610612751
p1312
aa(lp1313
I101148
aVMile Ilic
p1314
aI1610612751
aVNJN
p1315
aF23.0
aI5
aI3
aI2
aF0.6
aF1.2
aF0.0
aF0.6
aF0.0
aF0.0
aF0.0
aF0.0
aF0.0
aF0.0
aF0.0
aF0.0
aF0.2
aF0.2
aF0.0
aF0.6
aF0.0
aF0.0
aF0.2
aF0.2
aF0.0
aF0.0
aF-3.4
aI0
aI0
aI5
aV101148,1610612751
p1316
aa(lp1317
I2590
aVMo Williams
p1318
aI1610612749
aVMIL
p1319
aF24.0
aI68
aI24
aI44
aF0.353
aF36.3
aF6.9
aF15.4
aF0.446
aF1.2
aF3.4
aF0.346
aF2.3
aF2.7
aF0.855
aF0.8
aF4.0
aF4.8
aF6.1
aF3.0
aF1.3
aF0.1
aF0.7
aF3.0
aF2.6
aF17.3
aF-1.2
aI11
aI1
aI5
aV2590,1610612749
p1320
aa(lp1321
I101145
aVMonta Ellis
p1322
aI1610612744
aVGSW
p1323
aF21.0
aI77
aI39
aI38
aF0.506
aF34.3
aF6.2
aF13.1
aF0.475
aF0.5
aF1.9
aF0.273
aF3.5
aF4.6
aF0.763
aF0.8
aF2.4
aF3.2
aF4.1
aF2.9
aF1.7
aF0.3
aF0.8
aF2.7
aF4.1
aF16.5
aF0.4
aI2
aI0
aI5
aV101145,1610612744
p1324
aa(lp1325
I2050
aVMorris Peterson
p1326
aI1610612761
aVTOR
p1327
aF29.0
aI71
aI40
aI31
aF0.563
aF21.3
aF3.1
aF7.3
aF0.429
aF1.5
aF4.2
aF0.359
aF1.2
aF1.7
aF0.683
aF0.5
aF2.9
aF3.3
aF0.7
aF0.7
aF0.6
aF0.2
aF0.1
aF1.8
aF1.5
aF8.9
aF-1.8
aI1
aI0
aI5
aV2050,1610612761
p1328
aa(lp1329
I200754
aVMouhamed Sene
p1330
aI1610612760
aVSEA
p1331
aF21.0
aI28
aI5
aI23
aF0.179
aF6.1
aF0.6
aF1.8
aF0.367
aF0.0
aF0.0
aF0.0
aF0.6
aF1.0
aF0.586
aF0.6
aF1.0
aF1.6
aF0.0
aF0.4
aF0.1
aF0.4
aF0.1
aF1.2
aF0.7
aF1.9
aF-1.8
aI0
aI0
aI5
aV200754,1610612760
p1332
aa(lp1333
I101126
aVNate Robinson
p1334
aI1610612752
aVNYK
p1335
aF23.0
aI64
aI23
aI41
aF0.359
aF21.2
aF3.5
aF8.2
aF0.434
aF1.3
aF3.3
aF0.39
aF1.7
aF2.2
aF0.777
aF0.9
aF1.5
aF2.4
aF1.4
aF1.1
aF0.8
aF0.1
aF0.4
aF2.5
aF1.9
aF10.1
aF-0.4
aI0
aI0
aI5
aV101126,1610612752
p1336
aa(lp1337
I1737
aVNazr Mohammed
p1338
aI1610612765
aVDET
p1339
aF29.0
aI51
aI34
aI17
aF0.667
aF15.2
aF2.3
aF4.4
aF0.532
aF0.0
aF0.0
aF0.0
aF1.0
aF1.6
aF0.61
aF1.7
aF2.7
aF4.5
aF0.2
aF0.8
aF0.5
aF0.8
aF0.2
aF2.6
aF1.3
aF5.6
aF-0.6
aI2
aI0
aI5
aV1737,1610612765
p1340
aa(lp1341
I2420
aVNenad Krstic
p1342
aI1610612751
aVNJN
p1343
aF23.0
aI26
aI11
aI15
aF0.423
aF32.6
aF6.5
aF12.4
aF0.526
aF0.0
aF0.0
aF0.0
aF3.3
aF4.7
aF0.711
aF2.0
aF4.8
aF6.8
aF1.8
aF2.0
aF0.4
aF0.9
aF1.2
aF3.4
aF3.9
aF16.4
aF0.1
aI5
aI0
aI5
aV2420,1610612751
p1344
aa(lp1345
I2403
aVNene
p1346
aI1610612743
aVDEN
p1347
aF24.0
aI64
aI33
aI31
aF0.516
aF26.8
aF4.6
aF8.1
aF0.57
aF0.0
aF0.0
aF0.0
aF3.0
aF4.4
aF0.689
aF2.3
aF4.7
aF7.0
aF1.2
aF2.0
aF1.0
aF0.9
aF0.7
aF3.3
aF3.5
aF12.2
aF1.8
aI12
aI0
aI5
aV2403,1610612743
p1348
aa(lp1349
I2555
aVNick Collison
p1350
aI1610612760
aVSEA
p1351
aF26.0
aI82
aI31
aI51
aF0.378
aF29.0
aF3.9
aF7.8
aF0.5
aF0.0
aF0.0
aF0.0
aF1.9
aF2.4
aF0.774
aF2.8
aF5.3
aF8.1
aF1.0
aF1.5
aF0.6
aF0.8
aF0.8
aF3.5
aF2.4
aF9.6
aF-1.3
aI18
aI0
aI5
aV2555,1610612760
p1352
aa(lp1353
I101158
aVOrien Greene
p1354
aI1610612754
aVIND
p1355
aF25.0
aI41
aI14
aI27
aF0.341
aF6.2
aF0.6
aF1.5
aF0.371
aF0.0
aF0.3
aF0.182
aF0.4
aF0.6
aF0.6
aF0.3
aF0.8
aF1.1
aF0.5
aF0.7
aF0.4
aF0.1
aF0.1
aF0.9
aF0.5
aF1.5
aF-1.3
aI0
aI0
aI5
aV101158,1610612754
p1356
aa(lp1357
I970
aVOthella Harrington
p1358
aI1610612766
aVCHA
p1359
aF33.0
aI26
aI8
aI18
aF0.308
aF8.5
aF1.0
aF2.2
aF0.446
aF0.0
aF0.0
aF0.0
aF0.7
aF0.8
aF0.773
aF0.5
aF1.0
aF1.5
aF0.2
aF0.6
aF0.0
aF0.0
aF0.2
aF1.9
aF0.9
aF2.6
aF-1.5
aI0
aI0
aI5
aV970,1610612766
p1360
aa(lp1361
I136
aVP.J. Brown
p1362
aI1610612741
aVCHI
p1363
aF37.0
aI72
aI42
aI30
aF0.583
aF20.2
aF2.4
aF5.8
aF0.407
aF0.0
aF0.0
aF0.0
aF1.3
aF1.7
aF0.787
aF1.8
aF3.0
aF4.8
aF0.7
aF1.2
aF0.3
aF0.7
aF0.7
aF2.6
aF1.6
aF6.1
aF2.7
aI3
aI0
aI5
aV136,1610612741
p1364
aa(lp1365
I200782
aVPJ Tucker
p1366
aI1610612761
aVTOR
p1367
aF22.0
aI17
aI5
aI12
aF0.294
aF4.9
aF0.6
aF1.3
aF0.5
aF0.0
aF0.0
aF0.0
aF0.5
aF0.8
aF0.571
aF0.6
aF0.7
aF1.4
aF0.2
aF0.4
aF0.1
aF0.0
aF0.1
aF0.7
aF0.5
aF1.8
aF-1.8
aI0
aI0
aI5
aV200782,1610612761
p1368
aa(lp1369
I2776
aVPape Sow
p1370
aI1610612761
aVTOR
p1371
aF25.0
aI7
aI4
aI3
aF0.571
aF4.9
aF0.4
aF1.3
aF0.333
aF0.0
aF0.0
aF0.0
aF0.6
aF0.9
aF0.667
aF0.9
aF0.7
aF1.6
aF0.3
aF0.1
aF0.1
aF0.1
aF0.3
aF0.3
aF0.7
aF1.4
aF-4.4
aI0
aI0
aI5
aV2776,1610612761
p1372
aa(lp1373
I2469
aVPat Burke
p1374
aI1610612756
aVPHX
p1375
aF33.0
aI23
aI19
aI4
aF0.826
aF7.1
aF1.0
aF2.8
aF0.354
aF0.3
aF1.0
aF0.273
aF0.3
aF0.6
aF0.615
aF0.5
aF1.5
aF2.0
aF0.2
aF0.3
aF0.1
aF0.1
aF0.2
aF0.8
aF0.6
aF2.6
aF-1.3
aI0
aI0
aI5
aV2469,1610612756
p1376
aa(lp1377
I1727
aVPat Garrity
p1378
aI1610612753
aVORL
p1379
aF30.0
aI33
aI14
aI19
aF0.424
aF8.4
aF0.7
aF2.1
aF0.314
aF0.3
aF1.0
aF0.344
aF0.5
aF0.5
aF0.889
aF0.4
aF0.9
aF1.3
aF0.4
aF0.4
aF0.2
aF0.0
aF0.1
aF1.1
aF0.5
aF2.2
aF0.3
aI0
aI0
aI5
aV1727,1610612753
p1380
aa(lp1381
I200753
aVPatrick O'Bryant
p1382
aI1610612744
aVGSW
p1383
aF21.0
aI16
aI4
aI12
aF0.25
aF7.4
aF0.6
aF2.0
aF0.313
aF0.0
aF0.0
aF0.0
aF0.7
aF1.1
aF0.647
aF0.4
aF0.9
aF1.3
aF0.6
aF0.5
aF0.4
aF0.5
aF0.0
aF1.6
aF0.7
aF1.9
aF1.1
aI0
aI0
aI5
aV200753,1610612744
p1384
aa(lp1385
I2200
aVPau Gasol
p1386
aI1610612763
aVMEM
p1387
aF26.0
aI59
aI17
aI42
aF0.288
aF36.1
aF7.8
aF14.5
aF0.538
aF0.1
aF0.2
aF0.273
aF5.1
aF6.8
aF0.748
aF2.5
aF7.3
aF9.8
aF3.4
aF2.7
aF0.5
aF2.1
aF1.3
aF2.3
aF6.0
aF20.8
aF-4.1
aI33
aI1
aI5
aV2200,1610612763
p1388
aa(lp1389
I200781
aVPaul Davis
p1390
aI1610612746
aVLAC
p1391
aF22.0
aI31
aI14
aI17
aF0.452
aF5.8
aF0.7
aF1.7
aF0.423
aF0.0
aF0.0
aF0.0
aF0.2
aF0.3
aF0.7
aF0.7
aF0.7
aF1.4
aF0.2
aF0.3
aF0.2
aF0.2
aF0.1
aF0.9
aF0.4
aF1.6
aF-0.5
aI0
aI0
aI5
aV200781,1610612746
p1392
aa(lp1393
I200794
aVPaul Millsap
p1394
aI1610612762
aVUTA
p1395
aF22.0
aI82
aI51
aI31
aF0.622
aF17.9
aF2.5
aF4.9
aF0.525
aF0.0
aF0.0
aF0.333
aF1.7
aF2.5
aF0.673
aF2.2
aF2.9
aF5.2
aF0.8
aF1.1
aF0.8
aF0.9
aF0.6
aF2.9
aF2.0
aF6.8
aF1.8
aI7
aI0
aI5
aV200794,1610612762
p1396
aa(lp1397
I1718
aVPaul Pierce
p1398
aI1610612738
aVBOS
p1399
aF29.0
aI47
aI20
aI27
aF0.426
aF37.0
aF7.9
aF18.1
aF0.439
aF2.3
aF5.9
aF0.389
aF6.8
aF8.6
aF0.796
aF0.8
aF5.1
aF5.9
aF4.1
aF3.2
aF1.0
aF0.3
aF1.1
aF2.6
aF6.8
aF25.0
aF0.0
aI5
aI0
aI5
aV1718,1610612738
p1400
aa(lp1401
I978
aVPeja Stojakovic
p1402
aI1610612740
aVNOK
p1403
aF30.0
aI13
aI8
aI5
aF0.615
aF32.7
aF6.4
aF15.1
aF0.423
aF2.6
aF6.5
aF0.405
aF2.4
aF2.9
aF0.816
aF0.8
aF3.3
aF4.2
aF0.8
aF1.5
aF0.6
aF0.3
aF0.7
aF2.2
aF2.1
aF17.8
aF0.8
aI0
aI0
aI5
aV978,1610612740
p1404
aa(lp1405
I200822
aVPops Mensah-Bonsu
p1406
aI1610612742
aVDAL
p1407
aF23.0
aI12
aI9
aI3
aF0.75
aF5.9
aF0.9
aF1.4
aF0.647
aF0.0
aF0.0
aF0.0
aF0.6
aF1.5
aF0.389
aF0.8
aF1.0
aF1.8
aF0.0
aF0.8
aF0.1
aF0.0
aF0.1
aF0.7
aF0.8
aF2.4
aF0.5
aI0
aI0
aI5
aV200822,1610612742
p1408
aa(lp1409
I2056
aVPrimoz Brezec
p1410
aI1610612766
aVCHA
p1411
aF27.0
aI58
aI22
aI36
aF0.379
aF14.5
aF2.1
aF4.7
aF0.445
aF0.0
aF0.1
aF0.333
aF0.7
aF1.2
aF0.632
aF1.4
aF1.8
aF3.2
aF0.4
aF0.7
aF0.2
aF0.4
aF0.4
aF2.8
aF1.1
aF5.0
aF-2.2
aI1
aI0
aI5
aV2056,1610612766
p1412
aa(lp1413
I2047
aVQuentin Richardson
p1414
aI1610612752
aVNYK
p1415
aF27.0
aI49
aI21
aI28
aF0.429
aF33.1
aF4.7
aF11.1
aF0.418
aF2.0
aF5.3
aF0.376
aF1.7
aF2.4
aF0.692
aF1.3
aF5.9
aF7.2
aF2.2
aF1.4
aF0.7
aF0.1
aF0.6
aF2.7
aF2.0
aF13.0
aF-1.3
aI8
aI0
aI5
aV2047,1610612752
p1416
aa(lp1417
I200763
aVQuincy Douby
p1418
aI1610612758
aVSAC
p1419
aF23.0
aI42
aI16
aI26
aF0.381
aF8.5
aF1.1
aF3.0
aF0.381
aF0.3
aF1.2
aF0.24
aF0.3
aF0.4
aF0.733
aF0.3
aF0.6
aF0.9
aF0.4
aF0.4
aF0.4
aF0.1
aF0.1
aF0.5
aF0.4
aF2.8
aF-0.9
aI0
aI0
aI5
aV200763,1610612758
p1420
aa(lp1421
I2624
aVQuinton Ross
p1422
aI1610612746
aVLAC
p1423
aF26.0
aI81
aI40
aI41
aF0.494
aF21.0
aF2.2
aF4.7
aF0.467
aF0.0
aF0.1
aF0.2
aF0.8
aF1.1
aF0.782
aF0.7
aF1.6
aF2.3
aF1.1
aF0.4
aF0.9
aF0.4
aF0.3
aF2.2
aF1.1
aF5.2
aF-1.5
aI0
aI0
aI5
aV2624,1610612746
p1424
aa(lp1425
I1711
aVRaef LaFrentz
p1426
aI1610612757
aVPOR
p1427
aF31.0
aI27
aI9
aI18
aF0.333
aF13.0
aF1.4
aF3.8
aF0.382
aF0.1
aF0.9
aF0.087
aF0.7
aF1.0
aF0.769
aF0.9
aF1.7
aF2.6
aF0.3
aF0.5
aF0.3
aF0.4
aF0.1
aF2.1
aF0.7
aF3.7
aF-4.1
aI0
aI0
aI5
aV1711,1610612757
p1428
aa(lp1429
I2737
aVRafael Araujo
p1430
aI1610612762
aVUTA
p1431
aF26.0
aI28
aI17
aI11
aF0.607
aF8.8
aF1.0
aF2.3
aF0.415
aF0.0
aF0.0
aF0.0
aF0.6
aF1.0
aF0.621
aF0.8
aF1.6
aF2.4
aF0.4
aF0.6
aF0.2
aF0.1
aF0.3
aF1.4
aF0.8
aF2.6
aF2.1
aI0
aI0
aI5
aV2737,1610612762
p1432
aa(lp1433
I1747
aVRafer Alston
p1434
aI1610612745
aVHOU
p1435
aF30.0
aI82
aI52
aI30
aF0.634
aF37.1
aF4.7
aF12.4
aF0.375
aF2.3
aF6.5
aF0.363
aF1.6
aF2.2
aF0.734
aF0.4
aF3.1
aF3.4
aF5.4
aF2.1
aF1.6
aF0.1
aF0.4
aF2.4
aF1.7
aF13.3
aF5.6
aI3
aI0
aI5
aV1747,1610612745
p1436
aa(lp1437
I1952
aVRaja Bell
p1438
aI1610612756
aVPHX
p1439
aF30.0
aI78
aI59
aI19
aF0.756
aF37.4
aF5.3
aF12.2
aF0.432
aF2.6
aF6.4
aF0.413
aF1.5
aF1.9
aF0.776
aF0.6
aF2.6
aF3.2
aF2.5
aF1.1
aF0.6
aF0.3
aF0.3
aF3.0
aF2.5
aF14.7
aF6.5
aI1
aI0
aI5
aV1952,1610612756
p1440
aa(lp1441
I200765
aVRajon Rondo
p1442
aI1610612738
aVBOS
p1443
aF21.0
aI78
aI21
aI57
aF0.269
aF23.5
aF2.4
aF5.8
aF0.418
aF0.1
aF0.4
aF0.207
aF1.5
aF2.4
aF0.647
aF0.9
aF2.8
aF3.7
aF3.8
aF1.8
aF1.6
aF0.1
aF0.6
aF2.3
aF2.1
aF6.4
aF0.5
aI3
aI0
aI5
aV200765,1610612738
p1444
aa(lp1445
I201043
aVRandolph Morris
p1446
aI1610612752
aVNYK
p1447
aF21.0
aI5
aI1
aI4
aF0.2
aF8.7
aF0.2
aF1.2
aF0.167
aF0.0
aF0.0
aF0.0
aF0.4
aF1.2
aF0.333
aF0.2
aF1.6
aF1.8
aF0.2
aF0.4
aF0.4
aF0.2
aF0.0
aF0.8
aF0.8
aF0.8
aF-2.4
aI0
aI0
aI5
aV201043,1610612752
p1448
aa(lp1449
I200751
aVRandy Foye
p1450
aI1610612750
aVMIN
p1451
aF23.0
aI82
aI32
aI50
aF0.39
aF22.9
aF3.7
aF8.4
aF0.434
aF0.8
aF2.3
aF0.368
aF2.0
aF2.3
aF0.854
aF0.6
aF2.1
aF2.7
aF2.8
aF1.9
aF0.6
aF0.3
aF0.7
aF2.2
aF2.0
aF10.1
aF-2.0
aI1
aI0
aI5
aV200751,1610612750
p1452
aa(lp1453
I988
aVRandy Livingston
p1454
aI1610612760
aVSEA
p1455
aF32.0
aI4
aI0
aI4
aF0.0
aF6.5
aF0.0
aF0.8
aF0.0
aF0.0
aF0.0
aF0.0
aF0.0
aF0.0
aF0.0
aF0.3
aF0.0
aF0.3
aF1.0
aF0.3
aF0.0
aF0.0
aF0.0
aF0.5
aF0.0
aF0.0
aF-10.5
aI0
aI0
aI5
aV988,1610612760
p1456
aa(lp1457
I101119
aVRashad McCants
p1458
aI1610612750
aVMIN
p1459
aF22.0
aI37
aI10
aI27
aF0.27
aF15.0
aF1.7
aF4.8
aF0.35
aF0.5
aF2.0
aF0.267
aF1.1
aF1.6
aF0.69
aF0.4
aF0.9
aF1.3
aF1.0
aF1.1
aF0.7
aF0.2
aF0.2
aF1.9
aF1.1
aF5.0
aF-0.2
aI0
aI0
aI5
aV101119,1610612750
p1460
aa(lp1461
I1740
aVRashard Lewis
p1462
aI1610612760
aVSEA
p1463
aF27.0
aI60
aI23
aI37
aF0.383
aF39.1
aF7.7
aF16.8
aF0.461
aF2.5
aF6.5
aF0.39
aF4.4
aF5.3
aF0.841
aF1.5
aF5.1
aF6.6
aF2.4
aF2.0
aF1.1
aF0.7
aF0.7
aF2.4
aF4.3
aF22.4
aF-0.5
aI13
aI0
aI5
aV1740,1610612760
p1464
aa(lp1465
I739
aVRasheed Wallace
p1466
aI1610612765
aVDET
p1467
aF32.0
aI75
aI48
aI27
aF0.64
aF32.3
aF4.8
aF11.2
aF0.423
aF1.4
aF3.9
aF0.351
aF1.4
aF1.8
aF0.788
aF1.2
aF6.0
aF7.2
aF1.7
aF1.3
aF1.0
aF1.6
aF0.3
aF3.0
aF1.7
aF12.3
aF3.0
aI12
aI0
aI5
aV739,1610612765
p1468
aa(lp1469
I1725
aVRasho Nesterovic
p1470
aI1610612761
aVTOR
p1471
aF31.0
aI80
aI46
aI34
aF0.575
aF21.0
aF2.9
aF5.3
aF0.546
aF0.0
aF0.0
aF0.0
aF0.4
aF0.6
aF0.68
aF1.4
aF3.1
aF4.5
aF0.9
aF0.7
aF0.5
aF1.1
aF0.3
aF2.4
aF1.0
aF6.2
aF1.3
aI0
aI0
aI5
aV1725,1610612761
p1472
aa(lp1473
I2446
aVRasual Butler
p1474
aI1610612740
aVNOK
p1475
aF28.0
aI81
aI39
aI42
aF0.481
aF27.4
aF3.9
aF9.7
aF0.398
aF1.7
aF4.5
aF0.369
aF0.7
aF1.1
aF0.644
aF0.5
aF2.6
aF3.2
aF0.8
aF0.8
aF0.5
aF0.7
aF0.3
aF1.8
aF1.0
aF10.1
aF-1.2
aI1
aI0
aI5
aV2446,1610612740
p1476
aa(lp1477
I101185
aVRawle Marshall
p1478
aI1610612754
aVIND
p1479
aF25.0
aI40
aI12
aI28
aF0.3
aF9.0
aF0.8
aF2.2
aF0.36
aF0.1
aF0.5
aF0.222
aF0.8
aF1.1
aF0.689
aF0.2
aF0.5
aF0.7
aF0.3
aF0.5
aF0.3
aF0.1
aF0.2
aF0.6
aF0.9
aF2.5
aF-1.2
aI0
aI0
aI5
aV101185,1610612754
p1480
aa(lp1481
I951
aVRay Allen
p1482
aI1610612760
aVSEA
p1483
aF31.0
aI55
aI22
aI33
aF0.4
aF40.3
aF9.2
aF21.0
aF0.438
aF3.0
aF8.1
aF0.372
aF5.1
aF5.6
aF0.903
aF1.0
aF3.5
aF4.5
aF4.1
aF2.8
aF1.5
aF0.2
aF0.6
aF2.1
aF4.4
aF26.4
aF-0.9
aI4
aI0
aI5
aV951,1610612760
p1484
aa(lp1485
I101109
aVRaymond Felton
p1486
aI1610612766
aVCHA
p1487
aF23.0
aI78
aI31
aI47
aF0.397
aF36.3
aF5.0
aF13.1
aF0.384
aF1.3
aF4.0
aF0.33
aF2.6
aF3.3
aF0.797
aF0.7
aF2.8
aF3.4
aF7.0
aF2.9
aF1.5
aF0.1
aF0.6
aF2.3
aF3.1
aF14.0
aF-1.6
aI11
aI0
aI5
aV101109,1610612766
p1488
aa(lp1489
I2501
aVReggie Evans
p1490
aI1610612743
aVDEN
p1491
aF27.0
aI66
aI37
aI29
aF0.561
aF17.1
aF1.8
aF3.3
aF0.544
aF0.0
aF0.0
aF0.0
aF1.4
aF2.8
aF0.497
aF2.4
aF4.6
aF7.0
aF0.7
aF1.4
aF0.6
aF0.2
aF0.5
aF2.2
aF2.6
aF4.9
aF1.1
aI6
aI0
aI5
aV2501,1610612743
p1492
aa(lp1493
I200764
aVRenaldo Balkman
p1494
aI1610612752
aVNYK
p1495
aF22.0
aI68
aI28
aI40
aF0.412
aF15.6
aF2.0
aF4.0
aF0.505
aF0.1
aF0.4
aF0.185
aF0.8
aF1.3
aF0.567
aF1.4
aF2.9
aF4.3
aF0.6
aF0.7
aF0.8
aF0.6
aF0.3
aF2.1
aF1.0
aF4.9
aF-0.4
aI4
aI0
aI5
aV200764,1610612752
p1496
aa(lp1497
I200970
aVRenaldo Major
p1498
aI1610612744
aVGSW
p1499
aF25.0
aI1
aI0
aI1
aF0.0
aF27.4
aF2.0
aF10.0
aF0.2
aF0.0
aF0.0
aF0.0
aF1.0
aF2.0
aF0.5
aF0.0
aF2.0
aF2.0
aF0.0
aF1.0
aF2.0
aF0.0
aF2.0
aF4.0
aF1.0
aF5.0
aF15.0
aI0
aI0
aI5
aV200970,1610612744
p1500
aa(lp1501
I1888
aVRichard Hamilton
p1502
aI1610612765
aVDET
p1503
aF29.0
aI75
aI48
aI27
aF0.64
aF36.8
aF7.3
aF15.6
aF0.468
aF0.6
aF1.7
aF0.341
aF4.6
aF5.4
aF0.861
aF1.0
aF2.8
aF3.8
aF3.8
aF2.1
aF0.8
aF0.2
aF0.9
aF3.1
aF4.2
aF19.8
aF4.7
aI2
aI0
aI5
aV1888,1610612765
p1504
aa(lp1505
I2210
aVRichard Jefferson
p1506
aI1610612751
aVNJN
p1507
aF27.0
aI55
aI30
aI25
aF0.545
aF35.6
aF5.5
aF12.1
aF0.456
aF0.9
aF2.6
aF0.359
aF4.3
aF5.9
aF0.733
aF0.9
aF3.5
aF4.4
aF2.7
aF2.2
aF0.6
aF0.1
aF0.7
aF2.2
aF4.3
aF16.3
aF0.3
aI1
aI0
aI5
aV2210,1610612751
p1508
aa(lp1509
I1729
aVRicky Davis
p1510
aI1610612750
aVMIN
p1511
aF27.0
aI81
aI32
aI49
aF0.395
aF37.3
aF6.2
aF13.4
aF0.465
aF1.5
aF3.8
aF0.397
aF3.0
aF3.5
aF0.839
aF0.7
aF3.2
aF3.9
aF4.8
aF2.6
aF1.0
aF0.3
aF0.5
aF2.3
aF3.3
aF17.0
aF-2.8
aI2
aI0
aI5
aV1729,1610612750
p1512
aa(lp1513
I200823
aVRobert Hite
p1514
aI1610612748
aVMIA
p1515
aF23.0
aI12
aI1
aI11
aF0.083
aF11.3
aF1.6
aF5.0
aF0.317
aF0.4
aF1.9
aF0.217
aF0.7
aF1.0
aF0.667
aF0.3
aF1.0
aF1.3
aF0.7
aF0.5
aF0.3
aF0.2
aF0.5
aF0.7
aF0.8
aF4.3
aF-1.4
aI0
aI0
aI5
aV200823,1610612748
p1516
aa(lp1517
I109
aVRobert Horry
p1518
aI1610612759
aVSAS
p1519
aF36.0
aI68
aI45
aI23
aF0.662
aF16.5
aF1.3
aF3.7
aF0.359
aF0.7
aF2.2
aF0.336
aF0.6
aF0.9
aF0.594
aF1.1
aF2.3
aF3.4
aF1.1
aF0.6
aF0.7
aF0.6
aF0.1
aF1.5
aF1.0
aF3.9
aF2.7
aI0
aI0
aI5
aV109,1610612759
p1520
aa(lp1521
I200760
aVRodney Carney
p1522
aI1610612755
aVPHI
p1523
aF23.0
aI67
aI24
aI43
aF0.358
aF17.4
aF2.7
aF5.9
aF0.464
aF0.4
aF1.1
aF0.347
aF0.8
aF1.3
aF0.609
aF0.6
aF1.3
aF1.9
aF0.4
aF0.6
aF0.6
aF0.3
aF0.2
aF1.8
aF0.9
aF6.6
aF-1.9
aI0
aI0
aI5
aV200760,1610612755
p1524
aa(lp1525
I2427
aVRoger Mason Jr.
p1526
aI1610612764
aVWAS
p1527
aF26.0
aI62
aI27
aI35
aF0.435
aF7.9
aF1.0
aF2.9
aF0.33
aF0.5
aF1.6
aF0.324
aF0.2
aF0.3
aF0.875
aF0.1
aF0.6
aF0.7
aF0.6
aF0.3
aF0.2
aF0.1
aF0.1
aF1.1
aF0.3
aF2.7
aF-1.1
aI0
aI0
aI5
aV2427,1610612764
p1528
aa(lp1529
I101232
aVRoger Powell
p1530
aI1610612762
aVUTA
p1531
aF24.0
aI3
aI3
aI0
aF1.0
aF4.4
aF0.0
aF1.0
aF0.0
aF0.0
aF0.3
aF0.0
aF0.7
aF0.7
aF1.0
aF1.0
aF0.0
aF1.0
aF0.0
aF1.0
aF0.0
aF0.0
aF0.0
aF0.7
aF0.3
aF0.7
aF-3.3
aI0
aI0
aI5
aV101232,1610612762
p1532
aa(lp1533
I2648
aVRonald Dupree
p1534
aI1610612765
aVDET
p1535
aF26.0
aI19
aI11
aI8
aF0.579
aF5.0
aF0.6
aF1.6
aF0.355
aF0.0
aF0.0
aF0.0
aF0.2
aF0.5
aF0.333
aF0.3
aF0.6
aF0.9
aF0.3
aF0.2
aF0.3
aF0.1
aF0.1
aF0.6
aF0.4
aF1.3
aF-0.5
aI0
aI0
aI5
aV2648,1610612765
p1536
aa(lp1537
I2436
aVRonald Murray
p1538
aI1610612765
aVDET
p1539
aF27.0
aI69
aI43
aI26
aF0.623
aF21.4
aF2.6
aF6.3
aF0.404
aF0.3
aF1.2
aF0.289
aF1.3
aF1.7
aF0.725
aF0.4
aF1.3
aF1.6
aF2.7
aF1.3
aF0.7
aF0.2
aF0.4
aF1.4
aF1.5
aF6.7
aF0.6
aI1
aI0
aI5
aV2436,1610612765
p1540
aa(lp1541
I200758
aVRonnie Brewer
p1542
aI1610612762
aVUTA
p1543
aF22.0
aI56
aI36
aI20
aF0.643
aF12.1
aF1.8
aF3.4
aF0.528
aF0.0
aF0.2
aF0.0
aF1.0
aF1.5
aF0.675
aF0.7
aF0.7
aF1.3
aF0.4
aF0.4
aF0.7
aF0.1
aF0.3
aF0.8
aF1.1
aF4.6
aF-0.2
aI0
aI0
aI5
aV200758,1610612762
p1544
aa(lp1545
I101179
aVRonnie Price
p1546
aI1610612758
aVSAC
p1547
aF24.0
aI58
aI21
aI37
aF0.362
aF9.7
aF1.2
aF3.0
aF0.39
aF0.4
aF1.1
aF0.323
aF0.6
aF0.9
aF0.673
aF0.3
aF1.0
aF1.2
aF0.8
aF0.6
aF0.5
aF0.1
aF0.2
aF1.1
aF1.0
aF3.3
aF-1.0
aI0
aI0
aI5
aV101179,1610612758
p1548
aa(lp1549
I101142
aVRonny Turiaf
p1550
aI1610612747
aVLAL
p1551
aF24.0
aI72
aI35
aI37
aF0.486
aF15.1
aF2.0
aF3.7
aF0.549
aF0.0
aF0.0
aF0.0
aF1.2
aF1.9
aF0.664
aF1.2
aF2.4
aF3.6
aF0.9
aF0.7
aF0.2
aF1.1
aF0.4
aF2.8
aF1.8
aF5.3
aF0.2
aI2
aI0
aI5
aV101142,1610612747
p1552
aa(lp1553
I2767
aVRoyal Ivey
p1554
aI1610612737
aVATL
p1555
aF25.0
aI53
aI19
aI34
aF0.358
aF10.2
aF1.2
aF2.7
aF0.448
aF0.1
aF0.3
aF0.313
aF0.5
aF0.7
aF0.686
aF0.3
aF0.7
aF1.0
aF0.8
aF0.6
aF0.5
aF0.1
aF0.2
aF1.2
aF0.7
aF3.0
aF-1.3
aI0
aI0
aI5
aV2767,1610612737
p1556
aa(lp1557
I1739
aVRuben Patterson
p1558
aI1610612749
aVMIL
p1559
aF31.0
aI81
aI27
aI54
aF0.333
aF30.9
aF5.9
aF10.7
aF0.548
aF0.0
aF0.2
aF0.158
aF3.0
aF4.6
aF0.641
aF2.3
aF3.1
aF5.4
aF2.9
aF2.5
aF1.4
aF0.3
aF1.2
aF2.9
aF3.7
aF14.7
aF-2.1
aI10
aI0
aI5
aV1739,1610612749
p1560
aa(lp1561
I200752
aVRudy Gay
p1562
aI1610612763
aVMEM
p1563
aF20.0
aI78
aI20
aI58
aF0.256
aF27.0
aF4.1
aF9.7
aF0.422
aF0.7
aF1.8
aF0.364
aF1.9
aF2.7
aF0.727
aF1.2
aF3.3
aF4.5
aF1.3
aF1.8
aF0.9
aF0.9
aF0.7
aF2.5
aF2.0
aF10.8
aF-1.6
aI5
aI0
aI5
aV200752,1610612763
p1564
aa(lp1565
I101155
aVRyan Gomes
p1566
aI1610612738
aVBOS
p1567
aF24.0
aI73
aI19
aI54
aF0.26
aF31.2
aF4.6
aF9.9
aF0.467
aF0.2
aF0.6
aF0.381
aF2.6
aF3.2
aF0.811
aF1.7
aF3.9
aF5.6
aF1.6
aF1.4
aF0.7
aF0.2
aF0.6
aF2.3
aF2.2
aF12.1
aF-5.0
aI6
aI1
aI5
aV101155,1610612738
p1568
aa(lp1569
I200797
aVRyan Hollins
p1570
aI1610612766
aVCHA
p1571
aF22.0
aI27
aI8
aI19
aF0.296
aF6.9
aF0.7
aF1.3
aF0.556
aF0.0
aF0.0
aF0.0
aF0.9
aF1.5
aF0.6
aF0.4
aF0.7
aF1.1
aF0.0
aF0.6
aF0.1
aF0.3
aF0.1
aF1.5
aF1.0
aF2.4
aF-3.4
aI0
aI0
aI5
aV200797,1610612766
p1572
aa(lp1573
I101136
aVSalim Stoudamire
p1574
aI1610612737
aVATL
p1575
aF24.0
aI61
aI22
aI39
aF0.361
aF17.0
aF2.9
aF7.0
aF0.416
aF0.9
aF2.5
aF0.361
aF1.0
aF1.1
aF0.897
aF0.1
aF1.1
aF1.2
aF1.0
aF0.9
aF0.3
aF0.0
aF0.1
aF1.4
aF1.1
aF7.7
aF-1.6
aI0
aI0
aI5
aV101136,1610612737
p1576
aa(lp1577
I208
aVSam Cassell
p1578
aI1610612746
aVLAC
p1579
aF37.0
aI58
aI31
aI27
aF0.534
aF24.3
aF4.5
aF10.8
aF0.418
aF0.6
aF1.9
aF0.294
aF2.8
aF3.1
aF0.879
aF0.5
aF2.4
aF2.9
aF4.7
aF1.7
aF0.5
aF0.1
aF0.4
aF2.2
aF2.8
aF12.3
aF1.6
aI3
aI0
aI5
aV208,1610612746
p1580
aa(lp1581
I2223
aVSamuel Dalembert
p1582
aI1610612755
aVPHI
p1583
aF27.0
aI82
aI35
aI47
aF0.427
aF30.9
aF4.3
aF8.0
aF0.541
aF0.0
aF0.0
aF0.0
aF2.0
aF2.7
aF0.746
aF2.9
aF6.0
aF8.9
aF0.8
aF2.0
aF0.6
aF1.9
aF0.4
aF3.5
aF2.3
aF10.7
aF-0.2
aI23
aI0
aI5
aV2223,1610612755
p1584
aa(lp1585
I101180
aVSarunas Jasikevicius
p1586
aI1610612744
aVGSW
p1587
aF31.0
aI63
aI30
aI33
aF0.476
aF15.4
aF2.0
aF5.1
aF0.398
aF0.7
aF2.1
aF0.338
aF1.4
aF1.5
aF0.905
aF0.2
aF0.9
aF1.1
aF2.7
aF1.4
aF0.4
aF0.0
aF0.2
aF1.2
aF1.1
aF6.1
aF-1.7
aI0
aI0
aI5
aV101180,1610612744
p1588
aa(lp1589
I2562
aVSasha Pavlovic
p1590
aI1610612739
aVCLE
p1591
aF23.0
aI67
aI42
aI25
aF0.627
aF22.9
aF3.3
aF7.3
aF0.453
aF0.9
aF2.2
aF0.405
aF1.5
aF1.9
aF0.794
aF0.3
aF2.0
aF2.4
aF1.6
aF1.5
aF0.8
aF0.3
aF0.5
aF2.2
aF1.6
aF9.0
aF3.6
aI0
aI0
aI5
aV2562,1610612739
p1592
aa(lp1593
I2756
aVSasha Vujacic
p1594
aI1610612747
aVLAL
p1595
aF23.0
aI73
aI35
aI38
aF0.479
aF12.8
aF1.4
aF3.7
aF0.392
aF0.8
aF2.2
aF0.373
aF0.6
aF0.7
aF0.878
aF0.4
aF1.1
aF1.5
aF0.9
aF0.4
aF0.6
aF0.0
aF0.2
aF1.4
aF0.6
aF4.3
aF-0.6
aI0
aI0
aI5
aV2756,1610612747
p1596
aa(lp1597
I1513
aVScot Pollard
p1598
aI1610612739
aVCLE
p1599
aF32.0
aI24
aI11
aI13
aF0.458
aF4.5
aF0.5
aF1.1
aF0.423
aF0.0
aF0.0
aF0.0
aF0.1
aF0.2
aF0.5
aF0.6
aF0.7
aF1.3
aF0.1
aF0.2
aF0.2
aF0.0
aF0.1
aF1.1
aF0.4
aF1.0
aF-0.2
aI0
aI0
aI5
aV1513,1610612739
p1600
aa(lp1601
I1909
aVScott Padgett
p1602
aI1610612763
aVMEM
p1603
aF31.0
aI31
aI16
aI15
aF0.516
aF7.4
aF0.5
aF1.8
aF0.286
aF0.3
aF1.1
aF0.242
aF0.2
aF0.4
aF0.462
aF0.5
aF1.2
aF1.7
aF0.3
aF0.3
aF0.2
aF0.1
aF0.1
aF1.1
aF0.3
aF1.5
aF0.3
aI0
aI0
aI5
aV1909,1610612763
p1604
aa(lp1605
I1752
aVSean Marks
p1606
aI1610612756
aVPHX
p1607
aF31.0
aI3
aI2
aI1
aF0.667
aF5.7
aF0.7
aF2.0
aF0.333
aF0.0
aF0.3
aF0.0
aF0.7
aF0.7
aF1.0
aF0.0
aF1.0
aF1.0
aF0.0
aF0.0
aF0.0
aF0.3
aF0.3
aF1.3
aF0.3
aF2.0
aF-4.0
aI0
aI0
aI5
aV1752,1610612756
p1608
aa(lp1609
I101118
aVSean May
p1610
aI1610612766
aVCHA
p1611
aF23.0
aI35
aI13
aI22
aF0.371
aF23.9
aF4.7
aF9.4
aF0.5
aF0.1
aF0.1
aF0.667
aF2.5
aF3.2
aF0.768
aF2.1
aF4.6
aF6.7
aF1.9
aF1.6
aF0.5
aF0.7
aF0.6
aF2.9
aF2.4
aF11.9
aF0.1
aI7
aI0
aI5
aV101118,1610612766
p1612
aa(lp1613
I2742
aVSebastian Telfair
p1614
aI1610612738
aVBOS
p1615
aF22.0
aI78
aI21
aI57
aF0.269
aF20.2
aF2.3
aF6.1
aF0.371
aF0.5
aF1.6
aF0.289
aF1.2
aF1.4
aF0.818
aF0.2
aF1.2
aF1.4
aF2.8
aF1.3
aF0.6
aF0.1
aF0.4
aF2.1
aF1.2
aF6.1
aF-0.6
aI0
aI0
aI5
aV2742,1610612738
p1616
aa(lp1617
I200771
aVSergio Rodriguez
p1618
aI1610612757
aVPOR
p1619
aF21.0
aI67
aI24
aI43
aF0.358
aF12.9
aF1.5
aF3.6
aF0.423
aF0.4
aF1.3
aF0.282
aF0.3
aF0.4
aF0.808
aF0.3
aF1.1
aF1.4
aF3.3
aF1.1
aF0.5
aF0.0
aF0.2
aF1.1
aF0.6
aF3.7
aF-1.5
aI1
aI0
aI5
aV200771,1610612757
p1620
aa(lp1621
I1742
aVShammond Williams
p1622
aI1610612747
aVLAL
p1623
aF32.0
aI30
aI15
aI15
aF0.5
aF11.5
aF1.2
aF2.9
aF0.407
aF0.7
aF1.7
aF0.4
aF0.1
aF0.2
aF0.667
aF0.4
aF1.0
aF1.3
aF1.0
aF0.4
aF0.4
aF0.0
aF0.0
aF0.7
aF0.5
aF3.1
aF-1.0
aI0
aI0
aI5
aV1742,1610612747
p1624
aa(lp1625
I2203
aVShane Battier
p1626
aI1610612745
aVHOU
p1627
aF28.0
aI82
aI52
aI30
aF0.634
aF36.4
aF3.6
aF8.0
aF0.446
aF1.9
aF4.5
aF0.421
aF1.1
aF1.4
aF0.779
aF0.8
aF3.3
aF4.1
aF2.1
aF0.9
aF1.0
aF0.7
aF0.3
aF2.3
aF2.3
aF10.1
aF4.5
aI1
aI0
aI5
aV2203,1610612745
p1628
aa(lp1629
I200769
aVShannon Brown
p1630
aI1610612739
aVCLE
p1631
aF21.0
aI23
aI16
aI7
aF0.696
aF8.8
aF1.2
aF3.2
aF0.378
aF0.3
aF1.1
aF0.28
aF0.4
aF0.6
aF0.714
aF0.3
aF0.7
aF0.9
aF0.4
aF0.6
aF0.3
aF0.1
aF0.2
aF1.0
aF0.4
aF3.2
aF-2.6
aI0
aI0
aI5
aV200769,1610612739
p1632
aa(lp1633
I406
aVShaquille O'Neal
p1634
aI1610612748
aVMIA
p1635
aF35.0
aI40
aI25
aI15
aF0.625
aF28.4
aF7.1
aF12.0
aF0.591
aF0.0
aF0.0
aF0.0
aF3.1
aF7.4
aF0.422
aF2.4
aF5.0
aF7.4
aF2.0
aF2.4
aF0.2
aF1.4
aF0.4
aF3.5
aF6.5
aF17.3
aF1.0
aI8
aI0
aI5
aV406,1610612748
p1636
aa(lp1637
I949
aVShareef Abdur-Rahim
p1638
aI1610612758
aVSAC
p1639
aF30.0
aI80
aI31
aI49
aF0.388
aF25.2
aF3.9
aF8.2
aF0.474
aF0.0
aF0.3
aF0.15
aF2.1
aF2.9
aF0.726
aF1.5
aF3.5
aF5.0
aF1.4
aF1.5
aF0.7
aF0.5
aF0.9
aF3.0
aF2.2
aF9.9
aF-2.4
aI4
aI0
aI5
aV949,1610612758
p1640
aa(lp1641
I2733
aVShaun Livingston
p1642
aI1610612746
aVLAC
p1643
aF21.0
aI54
aI25
aI29
aF0.463
aF29.8
aF3.9
aF8.3
aF0.463
aF0.1
aF0.3
aF0.313
aF1.5
aF2.1
aF0.707
aF1.0
aF2.4
aF3.4
aF5.1
aF2.0
aF1.1
aF0.5
aF0.4
aF2.5
aF2.0
aF9.3
aF-2.9
aI2
aI0
aI5
aV2733,1610612746
p1644
aa(lp1645
I101183
aVShavlik Randolph
p1646
aI1610612755
aVPHI
p1647
aF23.0
aI13
aI4
aI9
aF0.308
aF13.8
aF1.8
aF3.7
aF0.479
aF0.0
aF0.0
aF0.0
aF0.9
aF1.7
aF0.545
aF1.5
aF2.7
aF4.2
aF0.3
aF0.7
aF0.5
aF0.8
aF0.7
aF1.8
aF1.8
aF4.5
aF0.5
aI0
aI0
aI5
aV101183,1610612755
p1648
aa(lp1649
I1890
aVShawn Marion
p1650
aI1610612756
aVPHX
p1651
aF29.0
aI80
aI60
aI20
aF0.75
aF37.6
aF7.0
aF13.4
aF0.524
aF1.0
aF3.2
aF0.317
aF2.5
aF3.1
aF0.81
aF2.2
aF7.7
aF9.8
aF1.7
aF1.4
aF2.0
aF1.5
aF0.6
aF2.7
aF2.3
aF17.5
aF7.5
aI37
aI0
aI5
aV1890,1610612756
p1652
aa(lp1653
I200761
aVShawne Williams
p1654
aI1610612754
aVIND
p1655
aF21.0
aI46
aI19
aI27
aF0.413
aF12.1
aF1.6
aF3.5
aF0.469
aF0.4
aF1.1
aF0.365
aF0.2
aF0.4
aF0.55
aF0.7
aF1.1
aF1.8
aF0.5
aF0.5
aF0.1
aF0.2
aF0.2
aF1.5
aF0.6
aF3.9
aF-2.8
aI0
aI0
aI5
aV200761,1610612754
p1656
aa(lp1657
I200749
aVShelden Williams
p1658
aI1610612737
aVATL
p1659
aF23.0
aI81
aI30
aI51
aF0.37
aF18.7
aF2.0
aF4.5
aF0.455
aF0.0
aF0.0
aF0.5
aF1.4
aF1.8
aF0.764
aF1.6
aF3.8
aF5.4
aF0.5
aF1.2
aF0.6
aF0.5
aF0.3
aF2.5
aF1.8
aF5.5
aF-2.9
aI8
aI0
aI5
aV200749,1610612737
p1660
aa(lp1661
I2098
aVSlava Medvedenko
p1662
aI1610612737
aVATL
p1663
aF28.0
aI14
aI4
aI10
aF0.286
aF5.8
aF0.9
aF2.1
aF0.414
aF0.1
aF0.1
aF0.5
aF1.2
aF1.4
aF0.85
aF0.3
aF0.7
aF1.0
aF0.1
aF0.4
aF0.0
aF0.1
aF0.1
aF1.1
aF1.0
aF3.0
aF-1.0
aI0
aI0
aI5
aV2098,1610612737
p1664
aa(lp1665
I2470
aVSmush Parker
p1666
aI1610612747
aVLAL
p1667
aF26.0
aI82
aI42
aI40
aF0.512
aF30.0
aF4.2
aF9.6
aF0.436
aF1.3
aF3.7
aF0.365
aF1.4
aF2.1
aF0.646
aF0.5
aF2.0
aF2.5
aF2.8
aF1.9
aF1.5
aF0.1
aF0.5
aF2.6
aF2.1
aF11.1
aF-1.0
aI0
aI0
aI5
aV2470,1610612747
p1668
aa(lp1669
I200780
aVSolomon Jones
p1670
aI1610612737
aVATL
p1671
aF22.0
aI58
aI20
aI38
aF0.345
aF11.5
aF1.1
aF2.2
aF0.508
aF0.0
aF0.0
aF0.0
aF1.0
aF1.3
aF0.787
aF0.8
aF1.5
aF2.3
aF0.2
aF0.4
aF0.2
aF0.7
aF0.3
aF2.1
aF1.1
aF3.3
aF-3.0
aI1
aI0
aI5
aV200780,1610612737
p1672
aa(lp1673
I2049
aVSpeedy Claxton
p1674
aI1610612737
aVATL
p1675
aF29.0
aI42
aI13
aI29
aF0.31
aF25.1
aF2.2
aF6.6
aF0.327
aF0.1
aF0.7
aF0.214
aF0.8
aF1.4
aF0.55
aF0.3
aF1.6
aF1.9
aF4.4
aF1.8
aF1.7
aF0.1
aF0.5
aF3.1
aF1.8
aF5.3
aF-2.9
aI3
aI0
aI5
aV2049,1610612737
p1676
aa(lp1677
I101211
aVStephen Graham
p1678
aI1610612757
aVPOR
p1679
aF25.0
aI14
aI5
aI9
aF0.357
aF11.7
aF1.2
aF2.9
aF0.425
aF0.2
aF0.8
aF0.273
aF0.6
aF0.6
aF0.889
aF0.4
aF1.1
aF1.5
aF0.4
aF0.9
aF0.3
aF0.1
aF0.2
aF1.8
aF0.6
aF3.2
aF-4.0
aI0
aI0
aI5
aV101211,1610612757
p1680
aa(lp1681
I1536
aVStephen Jackson
p1682
aI1610612744
aVGSW
p1683
aF29.0
aI75
aI43
aI32
aF0.573
aF33.0
aF5.5
aF12.6
aF0.433
aF1.3
aF4.1
aF0.322
aF3.2
aF4.0
aF0.813
aF0.8
aF2.1
aF3.0
aF3.8
aF2.4
aF1.1
aF0.5
aF0.7
aF2.7
aF3.1
aF15.5
aF2.0
aI1
aI0
aI5
aV1536,1610612744
p1684
aa(lp1685
I950
aVStephon Marbury
p1686
aI1610612752
aVNYK
p1687
aF30.0
aI74
aI31
aI43
aF0.419
aF37.1
aF5.3
aF12.9
aF0.415
aF1.7
aF4.7
aF0.357
aF4.0
aF5.2
aF0.769
aF0.5
aF2.4
aF2.9
aF5.4
aF2.4
aF1.0
aF0.1
aF0.9
aF2.5
aF3.8
aF16.4
aF-2.2
aI0
aI0
aI5
aV950,1610612752
p1688
aa(lp1689
I2581
aVSteve Blake
p1690
aI1610612743
aVDEN
p1691
aF27.0
aI82
aI43
aI39
aF0.524
aF27.1
aF2.5
aF6.2
aF0.411
aF0.8
aF2.5
aF0.322
aF0.5
aF0.8
aF0.672
aF0.3
aF1.8
aF2.1
aF5.0
aF1.6
aF0.7
aF0.1
aF0.2
aF1.5
aF0.9
aF6.4
aF-0.6
aI3
aI0
aI5
aV2581,1610612743
p1692
aa(lp1693
I1883
aVSteve Francis
p1694
aI1610612752
aVNYK
p1695
aF30.0
aI44
aI15
aI29
aF0.341
aF28.1
aF3.2
aF7.8
aF0.408
aF1.0
aF2.5
aF0.378
aF4.0
aF4.8
aF0.829
aF0.8
aF2.8
aF3.6
aF3.9
aF2.3
aF0.9
aF0.3
aF0.5
aF2.9
aF3.5
aF11.3
aF-0.4
aI1
aI0
aI5
aV1883,1610612752
p1696
aa(lp1697
I959
aVSteve Nash
p1698
aI1610612756
aVPHX
p1699
aF33.0
aI76
aI59
aI17
aF0.776
aF35.3
aF6.8
aF12.8
aF0.532
aF2.1
aF4.5
aF0.455
aF2.9
aF3.3
aF0.899
aF0.4
aF3.1
aF3.5
aF11.6
aF3.8
aF0.8
aF0.1
aF0.4
aF1.5
aF3.4
aF18.6
aF8.0
aI53
aI0
aI5
aV959,1610612756
p1700
aa(lp1701
I200779
aVSteve Novak
p1702
aI1610612745
aVHOU
p1703
aF24.0
aI35
aI20
aI15
aF0.571
aF5.4
aF0.5
aF1.4
aF0.36
aF0.4
aF1.1
aF0.333
aF0.1
aF0.1
aF1.0
aF0.1
aF0.6
aF0.7
aF0.2
aF0.1
aF0.1
aF0.0
aF0.0
aF0.6
aF0.2
aF1.5
aF-0.9
aI0
aI0
aI5
aV200779,1610612745
p1704
aa(lp1705
I2212
aVSteven Hunter
p1706
aI1610612755
aVPHI
p1707
aF25.0
aI70
aI32
aI38
aF0.457
aF22.9
aF2.7
aF4.7
aF0.577
aF0.0
aF0.0
aF0.0
aF1.1
aF2.2
aF0.49
aF1.6
aF3.2
aF4.8
aF0.4
aF0.9
aF0.2
aF1.1
aF0.4
aF2.0
aF1.8
aF6.4
aF-4.0
aI2
aI0
aI5
aV2212,1610612755
p1708
aa(lp1709
I200848
aVSteven Smith
p1710
aI1610612755
aVPHI
p1711
aF24.0
aI8
aI0
aI8
aF0.0
aF3.5
aF0.3
aF1.0
aF0.25
aF0.0
aF0.0
aF0.0
aF0.1
aF0.3
aF0.5
aF0.1
aF0.6
aF0.8
aF0.0
aF0.3
aF0.1
aF0.0
aF0.1
aF0.5
aF0.4
aF0.6
aF-1.6
aI0
aI0
aI5
aV200848,1610612755
p1712
aa(lp1713
I2031
aVStromile Swift
p1714
aI1610612763
aVMEM
p1715
aF27.0
aI54
aI15
aI39
aF0.278
aF19.1
aF3.0
aF6.4
aF0.465
aF0.0
aF0.1
aF0.0
aF1.8
aF2.5
aF0.724
aF1.6
aF3.1
aF4.6
aF0.3
aF1.3
aF0.6
aF1.1
aF0.5
aF2.7
aF2.1
aF7.8
aF-3.7
aI4
aI0
aI5
aV2031,1610612763
p1716
aa(lp1717
I2551
aVT.J. Ford
p1718
aI1610612761
aVTOR
p1719
aF24.0
aI75
aI43
aI32
aF0.573
aF29.9
aF5.2
aF12.0
aF0.436
aF0.3
aF0.9
aF0.304
aF3.2
aF3.9
aF0.819
aF0.7
aF2.4
aF3.1
aF7.9
aF3.1
aF1.3
aF0.1
aF0.6
aF2.5
aF3.2
aF14.0
aF0.4
aI20
aI0
aI5
aV2551,1610612761
p1720
aa(lp1721
I200814
aVTarence Kinsey
p1722
aI1610612763
aVMEM
p1723
aF23.0
aI48
aI13
aI35
aF0.271
aF20.1
aF2.9
aF6.3
aF0.457
aF0.3
aF1.0
aF0.283
aF1.6
aF2.0
aF0.796
aF0.6
aF1.4
aF2.0
aF0.9
aF1.0
aF1.1
aF0.0
aF0.5
aF1.2
aF1.7
aF7.7
aF-2.3
aI0
aI0
aI5
aV200814,1610612763
p1724
aa(lp1725
I2419
aVTayshaun Prince
p1726
aI1610612765
aVDET
p1727
aF27.0
aI82
aI53
aI29
aF0.646
aF36.6
aF5.6
aF12.2
aF0.46
aF1.0
aF2.6
aF0.386
aF2.1
aF2.7
aF0.768
aF1.8
aF3.5
aF5.2
aF2.8
aF1.2
aF0.6
aF0.7
aF0.5
aF1.4
aF2.5
aF14.3
aF3.8
aI5
aI0
aI5
aV2419,1610612765
p1728
aa(lp1729
I200757
aVThabo Sefolosha
p1730
aI1610612741
aVCHI
p1731
aF23.0
aI71
aI42
aI29
aF0.592
aF12.2
aF1.5
aF3.6
aF0.426
aF0.2
aF0.6
aF0.357
aF0.3
aF0.6
aF0.511
aF0.5
aF1.7
aF2.2
aF0.8
aF0.8
aF0.5
aF0.2
aF0.2
aF1.4
aF0.5
aF3.6
aF1.2
aI1
aI0
aI5
aV200757,1610612741
p1732
aa(lp1733
I689
aVTheo Ratliff
p1734
aI1610612738
aVBOS
p1735
aF34.0
aI2
aI1
aI1
aF0.5
aF21.8
aF0.5
aF1.5
aF0.333
aF0.0
aF0.0
aF0.0
aF1.5
aF2.0
aF0.75
aF1.0
aF2.5
aF3.5
aF0.0
aF0.5
aF0.5
aF1.5
aF0.0
aF3.0
aF2.0
aF2.5
aF-10.5
aI0
aI0
aI5
aV689,1610612738
p1736
aa(lp1737
I1495
aVTim Duncan
p1738
aI1610612759
aVSAS
p1739
aF31.0
aI80
aI58
aI22
aF0.725
aF34.1
aF7.7
aF14.1
aF0.546
aF0.0
aF0.1
aF0.111
aF4.5
aF7.1
aF0.637
aF2.7
aF7.9
aF10.6
aF3.4
aF2.8
aF0.8
aF2.4
aF1.2
aF2.5
aF5.9
aF20.0
aF9.4
aI45
aI0
aI5
aV1495,1610612759
p1740
aa(lp1741
I1501
aVTim Thomas
p1742
aI1610612746
aVLAC
p1743
aF30.0
aI76
aI37
aI39
aF0.487
aF27.0
aF3.9
aF9.5
aF0.414
aF1.8
aF4.7
aF0.382
aF1.3
aF1.9
aF0.708
aF0.8
aF4.1
aF5.0
aF2.3
aF1.4
aF0.7
aF0.4
aF0.3
aF3.0
aF1.6
aF11.0
aF2.2
aI2
aI0
aI5
aV1501,1610612746
p1744
aa(lp1745
I2754
aVTony Allen
p1746
aI1610612738
aVBOS
p1747
aF25.0
aI33
aI12
aI21
aF0.364
aF24.4
aF4.0
aF7.8
aF0.514
aF0.2
aF1.0
aF0.242
aF3.2
aF4.1
aF0.784
aF1.1
aF2.7
aF3.8
aF1.7
aF2.3
aF1.5
aF0.4
aF0.9
aF2.6
aF3.1
aF11.5
aF-1.5
aI0
aI0
aI5
aV2754,1610612738
p1748
aa(lp1749
I1499
aVTony Battie
p1750
aI1610612753
aVORL
p1751
aF31.0
aI66
aI36
aI30
aF0.545
aF23.9
aF2.7
aF5.5
aF0.489
aF0.0
aF0.0
aF0.0
aF0.8
aF1.2
aF0.675
aF1.4
aF3.8
aF5.2
aF0.5
aF0.9
aF0.4
aF0.5
aF0.3
aF2.8
aF1.2
aF6.1
aF0.0
aI3
aI0
aI5
aV1499,1610612753
p1752
aa(lp1753
I2225
aVTony Parker
p1754
aI1610612759
aVSAS
p1755
aF25.0
aI77
aI55
aI22
aF0.714
aF32.5
aF7.4
aF14.2
aF0.52
aF0.2
aF0.5
aF0.395
aF3.6
aF4.5
aF0.783
aF0.4
aF2.8
aF3.2
aF5.5
aF2.5
aF1.1
aF0.1
aF0.9
aF1.8
aF3.6
aF18.6
aF6.7
aI5
aI0
aI5
aV2225,1610612759
p1756
aa(lp1757
I1503
aVTracy McGrady
p1758
aI1610612745
aVHOU
p1759
aF28.0
aI71
aI50
aI21
aF0.704
aF35.8
aF9.0
aF20.8
aF0.431
aF1.8
aF5.4
aF0.331
aF4.9
aF6.9
aF0.707
aF0.8
aF4.5
aF5.3
aF6.5
aF3.0
aF1.3
aF0.5
aF0.8
aF1.9
aF5.3
aF24.6
aF5.7
aI15
aI0
aI5
aV1503,1610612745
p1760
aa(lp1761
I101143
aVTravis Diener
p1762
aI1610612753
aVORL
p1763
aF25.0
aI26
aI12
aI14
aF0.462
aF11.1
aF1.3
aF3.1
aF0.425
aF0.7
aF1.9
aF0.36
aF0.5
aF0.6
aF0.8
aF0.1
aF0.6
aF0.7
aF1.3
aF0.5
aF0.2
aF0.0
aF0.0
aF1.0
aF0.4
aF3.8
aF0.3
aI0
aI0
aI5
aV101143,1610612753
p1764
aa(lp1765
I2566
aVTravis Outlaw
p1766
aI1610612757
aVPOR
p1767
aF22.0
aI67
aI25
aI42
aF0.373
aF22.9
aF3.7
aF8.5
aF0.434
aF0.1
aF0.6
aF0.27
aF2.1
aF2.7
aF0.79
aF1.0
aF2.3
aF3.2
aF0.8
aF1.0
aF0.9
aF1.1
aF0.4
aF2.2
aF1.9
aF9.6
aF-1.9
aI2
aI0
aI5
aV2566,1610612757
p1768
aa(lp1769
I2239
aVTrenton Hassell
p1770
aI1610612750
aVMIN
p1771
aF28.0
aI76
aI28
aI48
aF0.368
aF29.2
aF2.9
aF5.8
aF0.49
aF0.1
aF0.3
aF0.24
aF0.9
aF1.2
aF0.783
aF1.1
aF2.1
aF3.2
aF2.7
aF1.1
aF0.3
aF0.3
aF0.3
aF1.9
aF1.1
aF6.7
aF-2.4
aI1
aI0
aI5
aV2239,1610612750
p1772
aa(lp1773
I2772
aVTrevor Ariza
p1774
aI1610612753
aVORL
p1775
aF21.0
aI57
aI32
aI25
aF0.561
aF22.4
aF3.5
aF6.5
aF0.539
aF0.0
aF0.1
aF0.0
aF1.9
aF3.0
aF0.62
aF1.7
aF2.6
aF4.4
aF1.1
aF1.5
aF1.0
aF0.3
aF0.5
aF2.4
aF2.2
aF8.9
aF0.7
aI1
aI0
aI5
aV2772,1610612753
p1776
aa(lp1777
I1607
aVTroy Hudson
p1778
aI1610612750
aVMIN
p1779
aF31.0
aI34
aI14
aI20
aF0.412
aF16.3
aF2.2
aF5.7
aF0.379
aF0.8
aF2.4
aF0.35
aF0.8
aF0.9
aF0.813
aF0.2
aF1.2
aF1.4
aF2.1
aF1.2
aF0.4
aF0.1
aF0.2
aF0.7
aF1.0
aF5.9
aF-1.9
aI0
aI0
aI5
aV1607,1610612750
p1780
aa(lp1781
I2211
aVTroy Murphy
p1782
aI1610612754
aVIND
p1783
aF27.0
aI68
aI24
aI44
aF0.353
aF27.2
aF3.9
aF8.5
aF0.458
aF0.9
aF2.2
aF0.395
aF1.6
aF2.1
aF0.745
aF1.5
aF4.6
aF6.1
aF1.9
aF1.1
aF0.7
aF0.6
aF0.4
aF2.9
aF1.9
aF10.3
aF-3.1
aI8
aI0
aI5
aV2211,1610612754
p1784
aa(lp1785
I1731
aVTyronn Lue
p1786
aI1610612737
aVATL
p1787
aF30.0
aI56
aI22
aI34
aF0.393
aF26.6
aF3.9
aF9.4
aF0.416
aF1.0
aF2.9
aF0.348
aF2.6
aF2.9
aF0.883
aF0.3
aF1.5
aF1.9
aF3.6
aF1.5
aF0.4
aF0.0
aF0.5
aF1.8
aF2.3
aF11.4
aF-3.4
aI3
aI0
aI5
aV1731,1610612737
p1788
aa(lp1789
I200748
aVTyrus Thomas
p1790
aI1610612741
aVCHI
p1791
aF20.0
aI72
aI44
aI28
aF0.611
aF13.4
aF1.9
aF3.9
aF0.475
aF0.0
aF0.0
aF0.0
aF1.5
aF2.4
aF0.606
aF1.2
aF2.5
aF3.7
aF0.6
aF1.3
aF0.6
aF1.1
aF0.5
aF2.3
aF2.0
aF5.2
aF2.0
aI2
aI0
aI5
aV200748,1610612741
p1792
aa(lp1793
I2199
aVTyson Chandler
p1794
aI1610612740
aVNOK
p1795
aF24.0
aI73
aI34
aI39
aF0.466
aF34.6
aF4.0
aF6.4
aF0.624
aF0.0
aF0.0
aF0.0
aF1.5
aF2.8
aF0.527
aF4.4
aF8.0
aF12.4
aF0.9
aF1.7
aF0.5
aF1.8
aF0.3
aF3.3
aF2.8
aF9.5
aF-0.3
aI34
aI0
aI5
aV2199,1610612740
p1796
aa(lp1797
I2617
aVUdonis Haslem
p1798
aI1610612748
aVMIA
p1799
aF27.0
aI79
aI43
aI36
aF0.544
aF31.4
aF4.5
aF9.1
aF0.492
aF0.0
aF0.1
aF0.0
aF1.7
aF2.6
aF0.68
aF2.4
aF5.9
aF8.3
aF1.2
aF1.4
aF0.6
aF0.3
aF0.6
aF3.0
aF2.6
aF10.7
aF0.1
aI21
aI0
aI5
aV2617,1610612748
p1800
aa(lp1801
I101166
aVUros Slokar
p1802
aI1610612761
aVTOR
p1803
aF24.0
aI20
aI9
aI11
aF0.45
aF3.6
aF0.7
aF1.3
aF0.538
aF0.1
aF0.1
aF0.5
aF0.5
aF0.7
aF0.692
aF0.4
aF0.4
aF0.7
aF0.1
aF0.5
aF0.1
aF0.1
aF0.2
aF0.6
aF0.5
aF1.9
aF-1.8
aI0
aI0
aI5
aV101166,1610612761
p1804
aa(lp1805
I2779
aVVassilis Spanoulis
p1806
aI1610612745
aVHOU
p1807
aF24.0
aI31
aI21
aI10
aF0.677
aF8.8
aF0.7
aF2.3
aF0.319
aF0.2
aF0.9
aF0.172
aF1.1
aF1.4
aF0.81
aF0.2
aF0.5
aF0.7
aF0.9
aF0.9
aF0.2
aF0.0
aF0.2
aF1.1
aF1.2
aF2.7
aF-1.0
aI0
aI0
aI5
aV2779,1610612745
p1808
aa(lp1809
I2751
aVViktor Khryapa
p1810
aI1610612741
aVCHI
p1811
aF24.0
aI33
aI19
aI14
aF0.576
aF7.0
aF0.8
aF2.1
aF0.386
aF0.0
aF0.2
aF0.0
aF0.6
aF0.8
aF0.731
aF0.6
aF1.1
aF1.7
aF0.6
aF0.5
aF0.3
aF0.0
aF0.2
aF1.6
aF0.7
aF2.2
aF-0.5
aI0
aI0
aI5
aV2751,1610612741
p1812
aa(lp1813
I1713
aVVince Carter
p1814
aI1610612751
aVNJN
p1815
aF30.0
aI82
aI41
aI41
aF0.5
aF38.1
aF8.9
aF19.5
aF0.454
aF1.9
aF5.3
aF0.357
aF5.6
aF7.0
aF0.802
aF1.4
aF4.6
aF6.0
aF4.8
aF2.6
aF1.0
aF0.4
aF0.8
aF3.2
aF6.1
aF25.2
aF0.7
aI13
aI2
aI5
aV1713,1610612751
p1816
aa(lp1817
I958
aVVitaly Potapenko
p1818
aI1610612758
aVSAC
p1819
aF32.0
aI3
aI1
aI2
aF0.333
aF4.3
aF0.0
aF1.3
aF0.0
aF0.0
aF0.0
aF0.0
aF0.0
aF0.0
aF0.0
aF0.0
aF0.7
aF0.7
aF0.0
aF0.7
aF0.0
aF0.0
aF0.3
aF1.0
aF0.0
aF0.0
aF-1.7
aI0
aI0
aI5
aV958,1610612758
p1820
aa(lp1821
I2209
aVVladimir Radmanovic
p1822
aI1610612747
aVLAL
p1823
aF26.0
aI55
aI31
aI24
aF0.564
aF17.9
aF2.4
aF5.7
aF0.424
aF0.7
aF2.1
aF0.339
aF1.0
aF1.3
aF0.726
aF1.0
aF2.3
aF3.3
aF1.2
aF1.3
aF0.5
aF0.3
aF0.5
aF2.3
aF1.1
aF6.6
aF-2.0
aI1
aI0
aI5
aV2209,1610612747
p1824
aa(lp1825
I101144
aVVon Wafer
p1826
aI1610612746
aVLAC
p1827
aF21.0
aI1
aI1
aI0
aF1.0
aF0.9
aF0.0
aF1.0
aF0.0
aF0.0
aF1.0
aF0.0
aF0.0
aF0.0
aF0.0
aF0.0
aF0.0
aF0.0
aF0.0
aF0.0
aF0.0
aF0.0
aF0.0
aF0.0
aF0.0
aF0.0
aF-1.0
aI0
aI0
aI5
aV101144,1610612746
p1828
aa(lp1829
I1887
aVWally Szczerbiak
p1830
aI1610612738
aVBOS
p1831
aF30.0
aI32
aI11
aI21
aF0.344
aF28.1
aF5.0
aF12.1
aF0.415
aF1.4
aF3.3
aF0.415
aF3.5
aF3.9
aF0.897
aF0.5
aF2.6
aF3.1
aF1.7
aF1.7
aF0.6
aF0.1
aF0.6
aF2.0
aF3.0
aF15.0
aF-1.3
aI0
aI0
aI5
aV1887,1610612738
p1832
aa(lp1833
I200835
aVWalter Herrmann
p1834
aI1610612766
aVCHA
p1835
aF28.0
aI48
aI19
aI29
aF0.396
aF19.5
aF3.6
aF6.9
aF0.527
aF1.1
aF2.4
aF0.461
aF0.9
aF1.1
aF0.774
aF0.6
aF2.3
aF2.9
aF0.5
aF0.7
aF0.4
aF0.1
aF0.3
aF1.6
aF1.6
aF9.2
aF-0.3
aI1
aI0
aI5
aV200835,1610612766
p1836
aa(lp1837
I101134
aVWayne Simien
p1838
aI1610612748
aVMIA
p1839
aF24.0
aI8
aI1
aI7
aF0.125
aF11.6
aF1.1
aF2.9
aF0.391
aF0.0
aF0.0
aF0.0
aF0.6
aF0.9
aF0.714
aF0.6
aF0.8
aF1.4
aF0.5
aF0.4
aF0.3
aF0.0
aF0.5
aF1.6
aF0.9
aF2.9
aF-3.1
aI0
aI0
aI5
aV101134,1610612748
p1840
aa(lp1841
I200807
aVWill Blalock
p1842
aI1610612765
aVDET
p1843
aF23.0
aI14
aI8
aI6
aF0.571
aF11.8
aF0.6
aF2.1
aF0.3
aF0.1
aF0.4
aF0.2
aF0.4
aF0.4
aF1.0
aF0.4
aF0.6
aF1.1
aF1.2
aF0.9
aF0.4
aF0.0
aF0.1
aF0.6
aF0.5
aF1.8
aF-1.6
aI0
aI0
aI5
aV200807,1610612765
p1844
aa(lp1845
I101215
aVWill Conroy
p1846
aI1610612746
aVLAC
p1847
aF24.0
aI7
aI1
aI6
aF0.143
aF7.3
aF0.0
aF0.4
aF0.0
aF0.0
aF0.0
aF0.0
aF0.0
aF0.6
aF0.0
aF0.4
aF0.6
aF1.0
aF1.3
aF0.3
aF0.0
aF0.0
aF0.0
aF1.0
aF0.6
aF0.0
aF-1.6
aI0
aI0
aI5
aV101215,1610612746
p1848
aa(lp1849
I2584
aVWillie Green
p1850
aI1610612755
aVPHI
p1851
aF25.0
aI74
aI31
aI43
aF0.419
aF24.9
aF4.8
aF11.7
aF0.411
aF0.7
aF2.1
aF0.325
aF1.0
aF1.5
aF0.667
aF0.6
aF1.6
aF2.1
aF1.5
aF1.4
aF0.8
aF0.1
aF0.4
aF1.9
aF1.5
aF11.3
aF-3.2
aI0
aI0
aI5
aV2584,1610612755
p1852
aa(lp1853
I200821
aVYakhouba Diawara
p1854
aI1610612743
aVDEN
p1855
aF24.0
aI64
aI33
aI31
aF0.516
aF18.4
aF1.6
aF4.6
aF0.342
aF0.8
aF2.7
aF0.288
aF0.5
aF0.8
aF0.66
aF0.4
aF1.3
aF1.7
aF0.9
aF0.6
aF0.5
aF0.1
aF0.3
aF2.1
aF0.8
aF4.4
aF0.4
aI0
aI0
aI5
aV200821,1610612743
p1856
aa(lp1857
I2397
aVYao Ming
p1858
aI1610612745
aVHOU
p1859
aF26.0
aI48
aI32
aI16
aF0.667
aF33.8
aF8.8
aF17.1
aF0.516
aF0.0
aF0.0
aF0.0
aF7.4
aF8.6
aF0.862
aF2.1
aF7.3
aF9.4
aF2.0
aF3.5
aF0.4
aF2.0
aF1.3
aF3.3
aF6.9
aF25.0
aF6.2
aI20
aI0
aI5
aV2397,1610612745
p1860
aa(lp1861
I101117
aVYaroslav Korolev
p1862
aI1610612746
aVLAC
p1863
aF20.0
aI10
aI6
aI4
aF0.6
aF4.1
aF0.4
aF1.6
aF0.25
aF0.1
aF0.5
aF0.2
aF0.3
aF0.6
aF0.5
aF0.1
aF0.2
aF0.3
aF0.4
aF0.1
aF0.3
aF0.0
aF0.1
aF0.0
aF0.3
aF1.2
aF-2.3
aI0
aI0
aI5
aV101117,1610612746
p1864
aa(lp1865
I2216
aVZach Randolph
p1866
aI1610612757
aVPOR
p1867
aF25.0
aI68
aI25
aI43
aF0.368
aF35.7
aF8.8
aF18.9
aF0.467
aF0.2
aF0.7
aF0.292
aF5.8
aF7.1
aF0.819
aF2.9
aF7.2
aF10.1
aF2.2
aF3.2
aF0.8
aF0.2
aF1.6
aF2.7
aF5.8
aF23.6
aF-1.9
aI36
aI0
aI5
aV2216,1610612757
p1868
aa(lp1869
I2585
aVZaza Pachulia
p1870
aI1610612737
aVATL
p1871
aF23.0
aI72
aI26
aI46
aF0.361
aF28.1
aF4.0
aF8.5
aF0.474
aF0.0
aF0.0
aF0.0
aF4.1
aF5.2
aF0.786
aF2.8
aF4.2
aF6.9
aF1.5
aF2.3
aF1.1
aF0.5
aF1.0
aF3.7
aF3.8
aF12.2
aF-1.4
aI13
aI0
aI5
aV2585,1610612737
p1872
aa(lp1873
I980
aVZydrunas Ilgauskas
p1874
aI1610612739
aVCLE
p1875
aF32.0
aI78
aI48
aI30
aF0.615
aF27.3
aF4.9
aF10.2
aF0.485
aF0.0
aF0.0
aF0.0
aF2.0
aF2.5
aF0.807
aF3.1
aF4.6
aF7.7
aF1.6
aF1.8
aF0.6
aF1.3
aF0.4
aF3.3
aF2.1
aF11.9
aF3.3
aI17
aI0
aI5
aV980,1610612739
p1876
aasVname
p1877
VLeagueDashPlayerStats
p1878
sasVparameters
p1879
(dp1880
VConference
p1881
NsVPlusMinus
p1882
VN
p1883
sVGameScope
p1884
NsVTeamID
p1885
I0
sVHeight
p1886
NsVLocation
p1887
NsVStarterBench
p1888
NsVShotClockRange
p1889
NsVSeasonType
p1890
VRegular Season
p1891
sVDivision
p1892
NsVSeason
p1893
V2006-07
p1894
sVPaceAdjust
p1895
VN
p1896
sVDraftYear
p1897
NsVDateFrom
p1898
NsVPlayerPosition
p1899
NsVCountry
p1900
NsVVsConference
p1901
NsVOpponentTeamID
p1902
I0
sVDateTo
p1903
NsVGameSegment
p1904
NsVDraftPick
p1905
NsVLastNGames
p1906
I0
sVPlayerExperience
p1907
NsVVsDivision
p1908
NsVLeagueID
p1909
V00
p1910
sVOutcome
p1911
NsVMeasureType
p1912
VBase
p1913
sVWeight
p1914
NsVPORound
p1915
I0
sVPerMode
p1916
VPerGame
p1917
sVSeasonSegment
p1918
NsVPeriod
p1919
I0
sVRank
p1920
VN
p1921
sVMonth
p1922
I0
sVCollege
p1923
Nss.