(dp0
Vresource
p1
Vleaguedashplayerstats
p2
sVresultSets
p3
(lp4
(dp5
Vheaders
p6
(lp7
VPLAYER_ID
p8
aVPLAYER_NAME
p9
aVTEAM_ID
p10
aVTEAM_ABBREVIATION
p11
aVAGE
p12
aVGP
p13
aVW
p14
aVL
p15
aVW_PCT
p16
aVMIN
p17
aVFGM
p18
aVFGA
p19
aVFG_PCT
p20
aVFG3M
p21
aVFG3A
p22
aVFG3_PCT
p23
aVFTM
p24
aVFTA
p25
aVFT_PCT
p26
aVOREB
p27
aVDREB
p28
aVREB
p29
aVAST
p30
aVTOV
p31
aVSTL
p32
aVBLK
p33
aVBLKA
p34
aVPF
p35
aVPFD
p36
aVPTS
p37
aVPLUS_MINUS
p38
aVDD2
p39
aVTD3
p40
aVCFID
p41
aVCFPARAMS
p42
asVrowSet
p43
(lp44
(lp45
I201985
aVA.J. Price
p46
aI1610612750
aVMIN
p47
aF27.0
aI28
aI15
aI13
aF0.536
aF3.5
aF0.7
aF1.6
aF0.413
aF0.2
aF0.8
aF0.273
aF0.0
aF0.1
aF0.0
aF0.0
aF0.3
aF0.4
aF0.5
aF0.3
aF0.0
aF0.0
aF0.0
aF0.2
aF0.1
aF1.6
aF0.0
aI0
aI0
aI5
aV201985,1610612750
p48
aa(lp49
I201166
aVAaron Brooks
p50
aI1610612743
aVDEN
p51
aF29.0
aI72
aI42
aI30
aF0.583
aF21.6
aF3.2
aF8.1
aF0.401
aF1.3
aF3.4
aF0.387
aF1.2
aF1.3
aF0.874
aF0.6
aF1.3
aF1.9
aF3.2
aF1.6
aF0.7
aF0.2
aF0.5
aF2.0
aF1.5
aF9.0
aF-1.3
aI2
aI0
aI5
aV201166,1610612743
p52
aa(lp53
I201189
aVAaron Gray
p54
aI1610612758
aVSAC
p55
aF29.0
aI37
aI12
aI25
aF0.324
aF9.6
aF0.7
aF1.6
aF0.443
aF0.0
aF0.0
aF0.0
aF0.3
aF0.5
aF0.55
aF1.1
aF1.9
aF3.0
aF0.6
aF0.8
aF0.3
aF0.2
aF0.3
aF1.7
aF0.4
aF1.8
aF-2.3
aI0
aI0
aI5
aV201189,1610612758
p56
aa(lp57
I203519
aVAdonis Thomas
p58
aI1610612755
aVPHI
p59
aF21.0
aI6
aI2
aI4
aF0.333
aF6.3
aF1.0
aF2.3
aF0.429
aF0.2
aF0.8
aF0.2
aF0.2
aF0.2
aF1.0
aF0.0
aF0.5
aF0.5
aF0.5
aF0.2
aF0.0
aF0.0
aF0.2
aF1.0
aF0.3
aF2.3
aF1.3
aI0
aI0
aI5
aV203519,1610612755
p60
aa(lp61
I1733
aVAl Harrington
p62
aI1610612764
aVWAS
p63
aF34.0
aI34
aI20
aI14
aF0.588
aF15.0
aF2.4
aF6.1
aF0.396
aF1.0
aF2.9
aF0.34
aF0.8
aF1.0
aF0.771
aF0.4
aF1.9
aF2.4
aF0.8
aF1.0
aF0.4
aF0.0
aF0.3
aF2.1
aF1.2
aF6.6
aF1.4
aI0
aI0
aI5
aV1733,1610612764
p64
aa(lp65
I201143
aVAl Horford
p66
aI1610612737
aVATL
p67
aF28.0
aI29
aI16
aI13
aF0.552
aF33.0
aF8.2
aF14.5
aF0.567
aF0.1
aF0.4
aF0.364
aF2.0
aF2.9
aF0.682
aF2.3
aF6.1
aF8.4
aF2.6
aF2.2
aF0.9
aF1.5
aF0.5
aF1.9
aF2.3
aF18.6
aF2.5
aI9
aI0
aI5
aV201143,1610612737
p68
aa(lp69
I2744
aVAl Jefferson
p70
aI1610612766
aVCHA
p71
aF29.0
aI73
aI38
aI35
aF0.521
aF35.0
aF9.6
aF18.8
aF0.509
aF0.0
aF0.2
aF0.2
aF2.6
aF3.8
aF0.69
aF2.1
aF8.7
aF10.8
aF2.1
aF1.7
aF0.9
aF1.1
aF1.0
aF2.4
aF2.9
aF21.8
aF0.5
aI42
aI0
aI5
aV2744,1610612766
p72
aa(lp73
I202329
aVAl-Farouq Aminu
p74
aI1610612740
aVNOP
p75
aF23.0
aI80
aI33
aI47
aF0.413
aF25.6
aF2.9
aF6.2
aF0.474
aF0.2
aF0.6
aF0.271
aF1.1
aF1.7
aF0.664
aF1.6
aF4.6
aF6.2
aF1.4
aF1.1
aF1.0
aF0.5
aF0.6
aF1.8
aF1.4
aF7.2
aF-3.2
aI5
aI0
aI5
aV202329,1610612740
p76
aa(lp77
I101187
aVAlan Anderson
p78
aI1610612751
aVBKN
p79
aF31.0
aI78
aI43
aI35
aF0.551
aF22.7
aF2.5
aF6.2
aF0.4
aF1.1
aF3.2
aF0.339
aF1.2
aF1.5
aF0.78
aF0.5
aF1.7
aF2.2
aF1.0
aF0.8
aF0.6
aF0.1
aF0.3
aF1.9
aF1.7
aF7.2
aF-0.7
aI0
aI0
aI5
aV101187,1610612751
p80
aa(lp81
I202692
aVAlec Burks
p82
aI1610612762
aVUTA
p83
aF22.0
aI78
aI24
aI54
aF0.308
aF28.1
aF4.9
aF10.7
aF0.457
aF0.6
aF1.8
aF0.35
aF3.6
aF4.8
aF0.748
aF0.8
aF2.5
aF3.3
aF2.7
aF1.9
aF0.9
aF0.2
aF0.9
aF2.4
aF4.0
aF14.0
aF-3.7
aI0
aI0
aI5
aV202692,1610612762
p84
aa(lp85
I203458
aVAlex Len
p86
aI1610612756
aVPHX
p87
aF21.0
aI42
aI24
aI18
aF0.571
aF8.6
aF0.8
aF1.9
aF0.423
aF0.0
aF0.0
aF0.0
aF0.5
aF0.7
aF0.645
aF0.9
aF1.4
aF2.4
aF0.1
aF0.6
aF0.1
aF0.4
aF0.2
aF1.6
aF0.6
aF2.0
aF-1.3
aI0
aI0
aI5
aV203458,1610612756
p88
aa(lp89
I203144
aVAlexey Shved
p90
aI1610612750
aVMIN
p91
aF25.0
aI63
aI28
aI35
aF0.444
aF10.5
aF1.2
aF3.8
aF0.321
aF0.5
aF1.6
aF0.294
aF1.1
aF1.4
aF0.756
aF0.3
aF1.0
aF1.3
aF1.1
aF0.8
aF0.4
aF0.3
aF0.2
aF0.6
aF1.2
aF4.0
aF-0.6
aI0
aI0
aI5
aV203144,1610612750
p92
aa(lp93
I201582
aVAlexis Ajinca
p94
aI1610612740
aVNOP
p95
aF26.0
aI56
aI22
aI34
aF0.393
aF17.0
aF2.4
aF4.4
aF0.546
aF0.0
aF0.0
aF0.0
aF1.0
aF1.2
aF0.836
aF1.7
aF3.3
aF4.9
aF0.7
aF1.1
aF0.4
aF0.8
aF0.3
aF3.3
aF1.1
aF5.9
aF-1.8
aI3
aI0
aI5
aV201582,1610612740
p96
aa(lp97
I203459
aVAllen Crabbe
p98
aI1610612757
aVPOR
p99
aF22.0
aI15
aI12
aI3
aF0.8
aF6.7
aF0.8
aF2.2
aF0.364
aF0.4
aF0.9
aF0.429
aF0.2
aF0.3
aF0.75
aF0.1
aF0.5
aF0.6
aF0.4
aF0.2
aF0.1
aF0.1
aF0.1
aF0.7
aF0.3
aF2.2
aF0.1
aI0
aI0
aI5
aV203459,1610612757
p100
aa(lp101
I202087
aVAlonzo Gee
p102
aI1610612739
aVCLE
p103
aF27.0
aI65
aI29
aI36
aF0.446
aF15.7
aF1.5
aF3.6
aF0.415
aF0.3
aF0.9
aF0.328
aF0.7
aF0.9
aF0.705
aF0.5
aF1.8
aF2.3
aF0.7
aF0.7
aF0.6
aF0.2
aF0.2
aF1.5
aF0.7
aF4.0
aF-3.5
aI0
aI0
aI5
aV202087,1610612739
p104
aa(lp105
I2405
aVAmar'e Stoudemire
p106
aI1610612752
aVNYK
p107
aF31.0
aI65
aI26
aI39
aF0.4
aF22.6
aF4.8
aF8.6
aF0.557
aF0.0
aF0.0
aF0.0
aF2.3
aF3.1
aF0.739
aF1.7
aF3.2
aF4.9
aF0.5
aF1.4
aF0.4
aF0.6
aF0.5
aF2.4
aF2.8
aF11.9
aF-2.4
aI5
aI0
aI5
aV2405,1610612752
p108
aa(lp109
I101161
aVAmir Johnson
p110
aI1610612761
aVTOR
p111
aF27.0
aI77
aI43
aI34
aF0.558
aF28.8
aF4.5
aF7.9
aF0.562
aF0.3
aF0.9
aF0.303
aF1.2
aF1.9
aF0.636
aF2.2
aF4.3
aF6.6
aF1.5
aF1.6
aF0.7
aF1.1
aF0.5
aF3.5
aF2.0
aF10.4
aF2.4
aI13
aI0
aI5
aV101161,1610612761
p112
aa(lp113
I2760
aVAnderson Varejao
p114
aI1610612739
aVCLE
p115
aF31.0
aI65
aI25
aI40
aF0.385
aF27.7
aF3.5
aF7.1
aF0.495
aF0.0
aF0.1
aF0.0
aF1.4
aF2.1
aF0.681
aF2.9
aF6.8
aF9.7
aF2.2
aF1.1
aF1.1
aF0.6
aF0.4
aF2.5
aF2.3
aF8.4
aF1.0
aI16
aI0
aI5
aV2760,1610612739
p116
aa(lp117
I101154
aVAndray Blatche
p118
aI1610612751
aVBKN
p119
aF27.0
aI73
aI40
aI33
aF0.548
aF22.2
aF4.4
aF9.2
aF0.476
aF0.2
aF0.7
aF0.278
aF2.2
aF3.0
aF0.742
aF1.6
aF3.7
aF5.3
aF1.5
aF1.5
aF1.0
aF0.5
aF0.6
aF2.3
aF2.6
aF11.2
aF0.3
aI6
aI0
aI5
aV101154,1610612751
p120
aa(lp121
I203083
aVAndre Drummond
p122
aI1610612765
aVDET
p123
aF20.0
aI81
aI29
aI52
aF0.358
aF32.3
aF5.9
aF9.5
aF0.623
aF0.0
aF0.0
aF0.0
aF1.7
aF4.0
aF0.418
aF5.4
aF7.8
aF13.2
aF0.4
aF1.4
aF1.2
aF1.6
aF0.5
aF3.4
aF3.2
aF13.5
aF-2.9
aI57
aI0
aI5
aV203083,1610612765
p124
aa(lp125
I2738
aVAndre Iguodala
p126
aI1610612744
aVGSW
p127
aF30.0
aI63
aI41
aI22
aF0.651
aF32.4
aF3.5
aF7.3
aF0.48
aF1.0
aF2.8
aF0.354
aF1.4
aF2.1
aF0.652
aF0.8
aF3.8
aF4.7
aF4.2
aF1.6
aF1.5
aF0.3
aF0.3
aF1.6
aF2.1
aF9.3
aF9.0
aI2
aI0
aI5
aV2738,1610612744
p128
aa(lp129
I1889
aVAndre Miller
p130
aI1610612764
aVWAS
p131
aF38.0
aI58
aI32
aI26
aF0.552
aF16.9
aF1.8
aF4.0
aF0.459
aF0.2
aF0.4
aF0.524
aF1.0
aF1.3
aF0.779
aF0.5
aF1.8
aF2.2
aF3.4
aF1.1
aF0.6
aF0.2
aF0.4
aF1.3
aF1.4
aF4.9
aF0.8
aI0
aI0
aI5
aV1889,1610612764
p132
aa(lp133
I203460
aVAndre Roberson
p134
aI1610612760
aVOKC
p135
aF22.0
aI40
aI30
aI10
aF0.75
aF10.0
aF0.8
aF1.7
aF0.485
aF0.1
aF0.3
aF0.154
aF0.2
aF0.3
aF0.7
aF0.9
aF1.5
aF2.4
aF0.4
aF0.5
aF0.5
aF0.3
aF0.1
aF1.9
aF0.4
aF1.9
aF0.7
aI0
aI0
aI5
aV203460,1610612760
p136
aa(lp137
I200745
aVAndrea Bargnani
p138
aI1610612752
aVNYK
p139
aF28.0
aI42
aI15
aI27
aF0.357
aF29.9
aF5.3
aF12.0
aF0.442
aF0.7
aF2.6
aF0.278
aF2.0
aF2.4
aF0.824
aF1.6
aF3.6
aF5.3
aF1.1
aF1.4
aF0.3
aF1.2
aF0.5
aF2.4
aF2.5
aF13.3
aF-2.9
aI4
aI0
aI5
aV200745,1610612752
p140
aa(lp141
I1905
aVAndrei Kirilenko
p142
aI1610612751
aVBKN
p143
aF33.0
aI45
aI30
aI15
aF0.667
aF19.1
aF1.8
aF3.6
aF0.513
aF0.0
aF0.1
aF0.2
aF1.4
aF2.6
aF0.513
aF1.2
aF2.0
aF3.2
aF1.6
aF1.2
aF0.9
aF0.4
aF0.4
aF1.4
aF2.2
aF5.0
aF-1.1
aI1
aI0
aI5
aV1905,1610612751
p144
aa(lp145
I101106
aVAndrew Bogut
p146
aI1610612744
aVGSW
p147
aF29.0
aI67
aI40
aI27
aF0.597
aF26.4
aF3.5
aF5.6
aF0.627
aF0.0
aF0.0
aF0.0
aF0.3
aF1.0
aF0.344
aF2.7
aF7.3
aF10.0
aF1.7
aF1.4
aF0.7
aF1.8
aF0.2
aF3.1
aF1.4
aF7.3
aF4.6
aI13
aI0
aI5
aV101106,1610612744
p148
aa(lp149
I101115
aVAndrew Bynum
p150
aI1610612754
aVIND
p151
aF26.0
aI26
aI11
aI15
aF0.423
aF19.8
aF3.6
aF8.7
aF0.418
aF0.0
aF0.0
aF0.0
aF1.4
aF1.9
aF0.755
aF2.0
aF3.5
aF5.6
aF1.1
aF1.3
aF0.2
aF1.1
aF0.5
aF1.2
aF1.6
aF8.7
aF-5.2
aI2
aI0
aI5
aV101115,1610612754
p152
aa(lp153
I203094
aVAndrew Nicholson
p154
aI1610612753
aVORL
p155
aF24.0
aI76
aI19
aI57
aF0.25
aF15.4
aF2.4
aF5.5
aF0.429
aF0.4
aF1.2
aF0.315
aF0.6
aF0.8
aF0.825
aF0.7
aF2.7
aF3.4
aF0.3
aF0.7
aF0.2
aF0.3
aF0.2
aF2.0
aF1.0
aF5.7
aF-2.0
aI3
aI0
aI5
aV203094,1610612753
p156
aa(lp157
I2740
aVAndris Biedrins
p158
aI1610612762
aVUTA
p159
aF28.0
aI6
aI0
aI6
aF0.0
aF7.4
aF0.2
aF0.2
aF1.0
aF0.0
aF0.0
aF0.0
aF0.2
aF1.0
aF0.167
aF0.3
aF2.5
aF2.8
aF0.0
aF0.3
aF0.0
aF0.0
aF0.0
aF1.0
aF0.8
aF0.5
aF0.3
aI0
aI0
aI5
aV2740,1610612762
p160
aa(lp161
I1712
aVAntawn Jamison
p162
aI1610612746
aVLAC
p163
aF38.0
aI22
aI15
aI7
aF0.682
aF11.3
aF1.3
aF4.2
aF0.315
aF0.4
aF1.9
aF0.195
aF0.8
aF1.1
aF0.72
aF0.4
aF2.1
aF2.5
aF0.3
aF0.3
aF0.4
aF0.1
aF0.1
aF1.3
aF0.9
aF3.8
aF2.5
aI0
aI0
aI5
aV1712,1610612746
p164
aa(lp165
I203461
aVAnthony Bennett
p166
aI1610612739
aVCLE
p167
aF21.0
aI52
aI20
aI32
aF0.385
aF12.7
aF1.5
aF4.3
aF0.356
aF0.3
aF1.0
aF0.245
aF0.8
aF1.3
aF0.638
aF0.9
aF2.0
aF3.0
aF0.3
aF0.9
aF0.4
aF0.2
aF0.3
aF1.8
aF0.9
aF4.2
aF-1.6
aI2
aI0
aI5
aV203461,1610612739
p168
aa(lp169
I203076
aVAnthony Davis
p170
aI1610612740
aVNOP
p171
aF21.0
aI67
aI29
aI38
aF0.433
aF35.2
aF7.8
aF15.0
aF0.519
aF0.0
aF0.1
aF0.222
aF5.2
aF6.6
aF0.791
aF3.1
aF7.0
aF10.0
aF1.6
aF1.6
aF1.3
aF2.8
aF1.0
aF3.0
aF5.4
aF20.8
aF-1.7
aI36
aI0
aI5
aV203076,1610612740
p172
aa(lp173
I201627
aVAnthony Morrow
p174
aI1610612740
aVNOP
p175
aF28.0
aI76
aI32
aI44
aF0.421
aF18.8
aF3.1
aF6.8
aF0.458
aF1.2
aF2.6
aF0.451
aF0.9
aF1.1
aF0.828
aF0.4
aF1.5
aF1.8
aF0.8
aF0.7
aF0.5
aF0.2
aF0.1
aF1.3
aF1.0
aF8.4
aF0.6
aI0
aI0
aI5
aV201627,1610612740
p176
aa(lp177
I201576
aVAnthony Randolph
p178
aI1610612743
aVDEN
p179
aF24.0
aI43
aI15
aI28
aF0.349
aF12.2
aF1.6
aF4.1
aF0.386
aF0.4
aF1.4
aF0.295
aF1.2
aF1.6
aF0.754
aF0.5
aF2.4
aF2.8
aF0.7
aF0.9
aF0.6
aF0.4
aF0.3
aF1.5
aF1.2
aF4.8
aF-2.7
aI0
aI0
aI5
aV201576,1610612743
p180
aa(lp181
I201229
aVAnthony Tolliver
p182
aI1610612766
aVCHA
p183
aF29.0
aI64
aI33
aI31
aF0.516
aF20.3
aF2.0
aF4.8
aF0.42
aF1.6
aF3.9
aF0.413
aF0.5
aF0.6
aF0.805
aF0.5
aF2.1
aF2.6
aF0.7
aF0.4
aF0.3
aF0.2
aF0.1
aF1.3
aF0.9
aF6.1
aF1.2
aI0
aI0
aI5
aV201229,1610612766
p184
aa(lp185
I203462
aVArchie Goodwin
p186
aI1610612756
aVPHX
p187
aF19.0
aI52
aI32
aI20
aF0.615
aF10.2
aF1.5
aF3.2
aF0.455
aF0.1
aF0.7
aF0.139
aF0.7
aF1.1
aF0.673
aF0.5
aF1.2
aF1.7
aF0.4
aF0.8
aF0.4
aF0.2
aF0.3
aF0.9
aF1.1
aF3.7
aF-1.7
aI0
aI0
aI5
aV203462,1610612756
p188
aa(lp189
I202620
aVArinze Onuaku
p190
aI1610612739
aVCLE
p191
aF26.0
aI5
aI2
aI3
aF0.4
aF6.0
aF0.2
aF1.0
aF0.2
aF0.0
aF0.0
aF0.0
aF0.2
aF0.4
aF0.5
aF0.4
aF1.2
aF1.6
aF0.6
aF0.2
aF0.0
aF0.0
aF0.2
aF0.6
aF0.6
aF0.6
aF-1.2
aI0
aI0
aI5
aV202620,1610612739
p192
aa(lp193
I203102
aVArnett Moultrie
p194
aI1610612755
aVPHI
p195
aF23.0
aI12
aI0
aI12
aF0.0
aF15.6
aF1.3
aF3.2
aF0.421
aF0.0
aF0.0
aF0.0
aF0.3
aF0.4
aF0.8
aF0.9
aF2.0
aF2.9
aF0.2
aF0.6
aF0.7
aF0.3
aF0.3
aF1.8
aF0.4
aF3.0
aF-4.8
aI0
aI0
aI5
aV203102,1610612755
p196
aa(lp197
I203382
aVAron Baynes
p198
aI1610612759
aVSAS
p199
aF27.0
aI53
aI41
aI12
aF0.774
aF9.3
aF1.3
aF3.1
aF0.436
aF0.0
aF0.0
aF0.0
aF0.4
aF0.4
aF0.905
aF1.1
aF1.7
aF2.7
aF0.6
aF0.7
aF0.0
aF0.1
aF0.3
aF1.5
aF0.7
aF3.0
aF0.5
aI0
aI0
aI5
aV203382,1610612759
p200
aa(lp201
I201167
aVArron Afflalo
p202
aI1610612753
aVORL
p203
aF28.0
aI73
aI21
aI52
aF0.288
aF35.0
aF6.4
aF13.8
aF0.459
aF1.8
aF4.1
aF0.427
aF3.8
aF4.6
aF0.815
aF0.4
aF3.2
aF3.6
aF3.4
aF2.0
aF0.5
aF0.0
aF0.8
aF1.9
aF3.3
aF18.2
aF-5.0
aI1
aI0
aI5
aV201167,1610612753
p204
aa(lp205
I201948
aVAustin Daye
p206
aI1610612759
aVSAS
p207
aF26.0
aI22
aI16
aI6
aF0.727
aF6.7
aF1.1
aF3.1
aF0.353
aF0.5
aF1.7
aF0.324
aF0.3
aF0.5
aF0.6
aF0.2
aF1.0
aF1.2
aF0.4
aF0.2
aF0.2
aF0.2
aF0.0
aF0.8
aF0.4
aF3.0
aF0.1
aI0
aI0
aI5
aV201948,1610612759
p208
aa(lp209
I203085
aVAustin Rivers
p210
aI1610612740
aVNOP
p211
aF21.0
aI69
aI27
aI42
aF0.391
aF19.4
aF2.8
aF6.9
aF0.405
aF0.5
aF1.4
aF0.364
aF1.6
aF2.5
aF0.636
aF0.4
aF1.5
aF1.9
aF2.3
aF1.1
aF0.7
aF0.1
aF0.7
aF1.9
aF1.9
aF7.7
aF-0.3
aI1
aI0
aI5
aV203085,1610612740
p212
aa(lp213
I202340
aVAvery Bradley
p214
aI1610612738
aVBOS
p215
aF23.0
aI60
aI19
aI41
aF0.317
aF30.9
aF6.0
aF13.8
aF0.438
aF1.3
aF3.3
aF0.395
aF1.5
aF1.9
aF0.804
aF0.8
aF3.0
aF3.8
aF1.4
aF1.6
aF1.1
aF0.2
aF0.7
aF2.4
aF1.8
aF14.9
aF-2.1
aI1
aI0
aI5
aV202340,1610612738
p216
aa(lp217
I2732
aVBen Gordon
p218
aI1610612766
aVCHA
p219
aF31.0
aI19
aI8
aI11
aF0.421
aF14.7
aF1.9
aF5.7
aF0.343
aF0.4
aF1.5
aF0.276
aF0.9
aF1.1
aF0.81
aF0.2
aF1.3
aF1.4
aF1.1
aF1.1
aF0.5
aF0.1
aF0.5
aF0.9
aF1.1
aF5.2
aF1.0
aI0
aI0
aI5
aV2732,1610612766
p220
aa(lp221
I203463
aVBen McLemore
p222
aI1610612758
aVSAC
p223
aF21.0
aI82
aI28
aI54
aF0.341
aF26.7
aF3.1
aF8.3
aF0.376
aF1.2
aF3.6
aF0.32
aF1.4
aF1.7
aF0.804
aF0.6
aF2.2
aF2.9
aF1.0
aF1.2
aF0.5
aF0.2
aF0.5
aF2.5
aF1.5
aF8.8
aF-2.5
aI0
aI0
aI5
aV203463,1610612758
p224
aa(lp225
I2757
aVBeno Udrih
p226
aI1610612763
aVMEM
p227
aF31.0
aI41
aI18
aI23
aF0.439
aF15.7
aF1.9
aF4.3
aF0.438
aF0.5
aF1.0
aF0.452
aF0.6
aF0.7
aF0.833
aF0.2
aF1.2
aF1.4
aF2.8
aF1.1
aF0.6
aF0.1
aF0.2
aF1.2
aF1.0
aF4.9
aF-2.6
aI1
aI0
aI5
aV2757,1610612763
p228
aa(lp229
I203108
aVBernard James
p230
aI1610612742
aVDAL
p231
aF29.0
aI30
aI17
aI13
aF0.567
aF4.9
aF0.4
aF0.8
aF0.478
aF0.0
aF0.0
aF0.0
aF0.2
aF0.4
aF0.545
aF0.5
aF0.9
aF1.4
aF0.1
aF0.3
aF0.1
aF0.3
aF0.1
aF0.8
aF0.4
aF0.9
aF-0.1
aI0
aI0
aI5
aV203108,1610612742
p232
aa(lp233
I202687
aVBismack Biyombo
p234
aI1610612766
aVCHA
p235
aF21.0
aI77
aI42
aI35
aF0.545
aF13.9
aF1.1
aF1.9
aF0.611
aF0.0
aF0.0
aF0.0
aF0.6
aF1.2
aF0.517
aF1.4
aF3.4
aF4.8
aF0.1
aF0.5
aF0.1
aF1.1
aF0.3
aF1.6
aF1.1
aF2.9
aF-0.5
aI1
aI0
aI5
aV202687,1610612766
p236
aa(lp237
I201933
aVBlake Griffin
p238
aI1610612746
aVLAC
p239
aF25.0
aI80
aI56
aI24
aF0.7
aF35.8
aF9.0
aF17.0
aF0.528
aF0.2
aF0.6
aF0.273
aF6.0
aF8.4
aF0.715
aF2.4
aF7.1
aF9.5
aF3.9
aF2.8
aF1.2
aF0.6
aF0.8
aF3.3
aF7.3
aF24.1
aF7.2
aI43
aI1
aI5
aV201933,1610612746
p240
aa(lp241
I2564
aVBoris Diaw
p242
aI1610612759
aVSAS
p243
aF32.0
aI79
aI60
aI19
aF0.759
aF25.0
aF3.8
aF7.3
aF0.521
aF0.6
aF1.4
aF0.402
aF0.9
aF1.2
aF0.739
aF0.9
aF3.2
aF4.1
aF2.8
aF1.5
aF0.6
aF0.4
aF0.3
aF1.8
aF1.4
aF9.1
aF4.0
aI2
aI0
aI5
aV2564,1610612759
p244
aa(lp245
I203078
aVBradley Beal
p246
aI1610612764
aVWAS
p247
aF21.0
aI73
aI40
aI33
aF0.548
aF34.7
aF6.6
aF15.7
aF0.419
aF1.9
aF4.7
aF0.402
aF2.0
aF2.6
aF0.788
aF0.7
aF3.0
aF3.7
aF3.3
aF1.8
aF1.0
aF0.2
aF0.5
aF2.1
aF2.3
aF17.1
aF1.5
aI1
aI0
aI5
aV203078,1610612764
p248
aa(lp249
I201148
aVBrandan Wright
p250
aI1610612742
aVDAL
p251
aF26.0
aI58
aI36
aI22
aF0.621
aF18.6
aF3.9
aF5.7
aF0.677
aF0.0
aF0.0
aF0.0
aF1.3
aF1.8
aF0.726
aF1.8
aF2.4
aF4.2
aF0.5
aF0.6
aF0.6
aF0.9
aF0.3
aF1.6
aF1.3
aF9.1
aF2.1
aI2
aI0
aI5
aV201148,1610612742
p252
aa(lp253
I101138
aVBrandon Bass
p254
aI1610612738
aVBOS
p255
aF29.0
aI82
aI25
aI57
aF0.305
aF27.6
aF4.3
aF8.8
aF0.486
aF0.0
aF0.1
aF0.333
aF2.5
aF2.9
aF0.858
aF2.0
aF3.8
aF5.7
aF1.1
aF1.2
aF0.4
aF0.9
aF0.6
aF2.3
aF2.3
aF11.1
aF-4.9
aI5
aI0
aI5
aV101138,1610612738
p256
aa(lp257
I203561
aVBrandon Davies
p258
aI1610612755
aVPHI
p259
aF22.0
aI51
aI15
aI36
aF0.294
aF11.3
aF1.1
aF2.5
aF0.422
aF0.0
aF0.2
aF0.2
aF0.7
aF1.0
aF0.642
aF0.7
aF1.4
aF2.1
aF0.5
aF0.7
aF0.5
aF0.2
aF0.2
aF1.8
aF1.2
aF2.8
aF-0.7
aI0
aI0
aI5
aV203561,1610612755
p260
aa(lp261
I201943
aVBrandon Jennings
p262
aI1610612765
aVDET
p263
aF24.0
aI80
aI28
aI52
aF0.35
aF34.1
aF5.3
aF14.2
aF0.373
aF1.9
aF5.7
aF0.337
aF3.0
aF4.0
aF0.751
aF0.7
aF2.3
aF3.1
aF7.6
aF2.7
aF1.3
aF0.1
aF0.6
aF2.0
aF2.9
aF15.5
aF-2.3
aI18
aI0
aI5
aV201943,1610612765
p264
aa(lp265
I202688
aVBrandon Knight
p266
aI1610612749
aVMIL
p267
aF22.0
aI72
aI13
aI59
aF0.181
aF33.3
aF6.4
aF15.2
aF0.422
aF1.5
aF4.7
aF0.325
aF3.6
aF4.5
aF0.802
aF0.6
aF2.9
aF3.5
aF4.9
aF2.6
aF1.0
aF0.2
aF0.8
aF2.0
aF4.5
aF17.9
aF-6.1
aI4
aI0
aI5
aV202688,1610612749
p268
aa(lp269
I201575
aVBrandon Rush
p270
aI1610612762
aVUTA
p271
aF28.0
aI38
aI13
aI25
aF0.342
aF11.0
aF0.8
aF2.4
aF0.333
aF0.4
aF1.2
aF0.34
aF0.1
aF0.1
aF0.6
aF0.1
aF1.0
aF1.2
aF0.6
aF0.5
aF0.1
aF0.2
aF0.1
aF0.8
aF0.2
aF2.1
aF-2.5
aI0
aI0
aI5
aV201575,1610612762
p272
aa(lp273
I203148
aVBrian Roberts
p274
aI1610612740
aVNOP
p275
aF28.0
aI72
aI28
aI44
aF0.389
aF23.2
aF3.4
aF8.1
aF0.42
aF0.9
aF2.5
aF0.36
aF1.7
aF1.8
aF0.94
aF0.2
aF1.7
aF1.9
aF3.3
aF1.3
aF0.6
aF0.1
aF0.4
aF1.8
aF1.8
aF9.4
aF-1.9
aI0
aI0
aI5
aV203148,1610612740
p276
aa(lp277
I201572
aVBrook Lopez
p278
aI1610612751
aVBKN
p279
aF26.0
aI17
aI7
aI10
aF0.412
aF31.4
aF7.6
aF13.5
aF0.563
aF0.0
aF0.1
aF0.0
aF5.5
aF6.8
aF0.817
aF2.3
aF3.7
aF6.0
aF0.9
aF1.6
aF0.5
aF1.8
aF0.8
aF3.1
aF5.1
aF20.7
aF-1.2
aI0
aI0
aI5
aV201572,1610612751
p280
aa(lp281
I201957
aVByron Mullens
p282
aI1610612755
aVPHI
p283
aF25.0
aI45
aI16
aI29
aF0.356
aF9.2
aF1.6
aF3.7
aF0.442
aF0.7
aF2.0
aF0.371
aF0.2
aF0.4
aF0.5
aF0.5
aF1.5
aF2.0
aF0.3
aF0.6
aF0.3
aF0.2
aF0.2
aF1.4
aF0.4
aF4.2
aF-3.1
aI0
aI0
aI5
aV201957,1610612755
p284
aa(lp285
I203468
aVCJ McCollum
p286
aI1610612757
aVPOR
p287
aF22.0
aI38
aI21
aI17
aF0.553
aF12.5
aF1.9
aF4.7
aF0.416
aF0.8
aF2.1
aF0.375
aF0.6
aF0.9
aF0.676
aF0.2
aF1.1
aF1.3
aF0.7
aF0.9
aF0.4
aF0.1
aF0.3
aF1.4
aF0.7
aF5.3
aF-0.6
aI0
aI0
aI5
aV203468,1610612757
p288
aa(lp289
I101139
aVCJ Miles
p290
aI1610612739
aVCLE
p291
aF27.0
aI51
aI21
aI30
aF0.412
aF19.3
aF3.5
aF8.0
aF0.435
aF1.6
aF4.1
aF0.393
aF1.3
aF1.5
aF0.853
aF0.4
aF1.7
aF2.0
aF1.0
aF0.9
aF0.9
aF0.3
aF0.3
aF2.0
aF1.3
aF9.9
aF0.9
aI0
aI0
aI5
aV101139,1610612739
p292
aa(lp293
I201228
aVCJ Watson
p294
aI1610612754
aVIND
p295
aF30.0
aI63
aI48
aI15
aF0.762
aF18.9
aF2.3
aF5.3
aF0.437
aF0.8
aF2.3
aF0.366
aF1.1
aF1.4
aF0.784
aF0.3
aF1.3
aF1.6
aF1.7
aF1.0
aF1.0
aF0.1
aF0.2
aF1.0
aF1.6
aF6.6
aF2.2
aI0
aI0
aI5
aV201228,1610612754
p296
aa(lp297
I201171
aVCarl Landry
p298
aI1610612758
aVSAC
p299
aF30.0
aI18
aI5
aI13
aF0.278
aF12.9
aF1.7
aF3.3
aF0.517
aF0.0
aF0.0
aF0.0
aF0.8
aF0.9
aF0.824
aF0.8
aF2.3
aF3.2
aF0.3
aF0.5
aF0.2
aF0.1
aF0.2
aF1.9
aF1.1
aF4.2
aF-3.7
aI0
aI0
aI5
aV201171,1610612758
p300
aa(lp301
I2430
aVCarlos Boozer
p302
aI1610612741
aVCHI
p303
aF32.0
aI76
aI43
aI33
aF0.566
aF28.2
aF5.9
aF12.9
aF0.456
aF0.0
aF0.0
aF0.0
aF1.9
aF2.5
aF0.767
aF1.8
aF6.5
aF8.3
aF1.6
aF2.0
aF0.7
aF0.3
aF1.2
aF2.8
aF2.0
aF13.7
aF-0.4
aI25
aI0
aI5
aV2430,1610612741
p304
aa(lp305
I2546
aVCarmelo Anthony
p306
aI1610612752
aVNYK
p307
aF30.0
aI77
aI35
aI42
aF0.455
aF38.7
aF9.6
aF21.3
aF0.452
aF2.2
aF5.4
aF0.402
aF6.0
aF7.0
aF0.848
aF1.9
aF6.2
aF8.1
aF3.1
aF2.6
aF1.2
aF0.7
aF0.9
aF2.9
aF5.7
aF27.4
aF1.4
aI22
aI0
aI5
aV2546,1610612752
p308
aa(lp309
I2406
aVCaron Butler
p310
aI1610612760
aVOKC
p311
aF34.0
aI56
aI21
aI35
aF0.375
aF25.3
aF3.8
aF9.6
aF0.394
aF1.8
aF4.4
aF0.394
aF1.1
aF1.3
aF0.84
aF0.4
aF3.7
aF4.1
aF1.5
aF1.1
aF0.8
aF0.3
aF0.2
aF2.1
aF1.1
aF10.5
aF-2.7
aI2
aI0
aI5
aV2406,1610612760
p312
aa(lp313
I203467
aVCarrick Felix
p314
aI1610612739
aVCLE
p315
aF23.0
aI7
aI2
aI5
aF0.286
aF5.4
aF1.0
aF2.0
aF0.5
aF0.3
aF0.7
aF0.4
aF0.4
aF0.6
aF0.75
aF0.1
aF0.7
aF0.9
aF0.6
aF0.6
aF0.0
aF0.0
aF0.1
aF0.6
aF0.7
aF2.7
aF0.6
aI0
aI0
aI5
aV203467,1610612739
p316
aa(lp317
I201858
aVCartier Martin
p318
aI1610612737
aVATL
p319
aF29.0
aI59
aI27
aI32
aF0.458
aF14.7
aF1.9
aF4.5
aF0.42
aF1.0
aF2.6
aF0.391
aF0.8
aF1.1
aF0.738
aF0.2
aF1.6
aF1.9
aF0.6
aF0.6
aF0.5
aF0.1
aF0.2
aF1.2
aF1.0
aF5.6
aF-2.1
aI0
aI0
aI5
aV201858,1610612737
p320
aa(lp321
I203810
aVCasper Ware
p322
aI1610612755
aVPHI
p323
aF24.0
aI9
aI3
aI6
aF0.333
aF12.9
aF2.0
aF4.7
aF0.429
aF0.8
aF2.3
aF0.333
aF0.6
aF0.7
aF0.833
aF0.0
aF1.0
aF1.0
aF1.1
aF0.6
aF0.9
aF0.0
aF0.1
aF1.2
aF1.0
aF5.3
aF-0.6
aI0
aI0
aI5
aV203810,1610612755
p324
aa(lp325
I202718
aVChandler Parsons
p326
aI1610612745
aVHOU
p327
aF25.0
aI74
aI50
aI24
aF0.676
aF37.6
aF6.3
aF13.3
aF0.472
aF1.8
aF4.7
aF0.37
aF2.2
aF3.0
aF0.742
aF0.9
aF4.6
aF5.5
aF4.0
aF1.9
aF1.2
aF0.4
aF0.9
aF2.3
aF2.6
aF16.6
aF4.4
aI7
aI0
aI5
aV202718,1610612745
p328
aa(lp329
I101112
aVChanning Frye
p330
aI1610612756
aVPHX
p331
aF31.0
aI82
aI48
aI34
aF0.585
aF28.2
aF4.1
aF9.5
aF0.432
aF2.0
aF5.3
aF0.37
aF1.0
aF1.2
aF0.821
aF0.9
aF4.2
aF5.1
aF1.2
aF1.1
aF0.7
aF0.8
aF0.2
aF3.0
aF1.5
aF11.1
aF3.6
aI0
aI0
aI5
aV101112,1610612756
p332
aa(lp333
I101236
aVCharles Hayes
p334
aI1610612761
aVTOR
p335
aF31.0
aI61
aI33
aI28
aF0.541
aF12.4
aF0.9
aF2.1
aF0.431
aF0.0
aF0.0
aF0.0
aF0.3
aF0.4
aF0.8
aF1.1
aF2.3
aF3.4
aF0.6
aF0.5
aF0.6
aF0.2
aF0.3
aF1.6
aF0.5
aF2.2
aF1.0
aI1
aI0
aI5
aV101236,1610612761
p336
aa(lp337
I101111
aVCharlie Villanueva
p338
aI1610612765
aVDET
p339
aF29.0
aI20
aI5
aI15
aF0.25
aF9.0
aF1.8
aF4.6
aF0.38
aF0.7
aF2.8
aF0.25
aF0.4
aF0.7
aF0.571
aF0.3
aF1.4
aF1.7
aF0.3
aF0.4
aF0.2
aF0.3
aF0.2
aF0.8
aF0.5
aF4.6
aF-3.6
aI0
aI0
aI5
aV101111,1610612765
p340
aa(lp341
I201978
aVChase Budinger
p342
aI1610612750
aVMIN
p343
aF26.0
aI41
aI21
aI20
aF0.512
aF18.3
aF2.4
aF6.2
aF0.394
aF1.0
aF2.9
aF0.35
aF0.8
aF1.0
aF0.821
aF0.5
aF2.0
aF2.5
aF0.8
aF0.6
aF0.5
aF0.0
aF0.2
aF1.4
aF0.9
aF6.7
aF0.0
aI0
aI0
aI5
aV201978,1610612750
p344
aa(lp345
I1497
aVChauncey Billups
p346
aI1610612765
aVDET
p347
aF37.0
aI19
aI7
aI12
aF0.368
aF16.3
aF1.3
aF4.2
aF0.304
aF0.7
aF2.5
aF0.292
aF0.5
aF0.6
aF0.833
aF0.2
aF1.3
aF1.5
aF2.2
aF1.3
aF0.4
aF0.1
aF0.1
aF1.3
aF0.9
aF3.8
aF-2.2
aI0
aI0
aI5
aV1497,1610612765
p348
aa(lp349
I2365
aVChris Andersen
p350
aI1610612748
aVMIA
p351
aF35.0
aI72
aI49
aI23
aF0.681
aF19.4
aF2.5
aF3.8
aF0.644
aF0.0
aF0.2
aF0.25
aF1.7
aF2.3
aF0.71
aF1.8
aF3.5
aF5.3
aF0.3
aF0.7
aF0.4
aF1.3
aF0.2
aF2.3
aF2.2
aF6.6
aF2.3
aI1
aI0
aI5
aV2365,1610612748
p352
aa(lp353
I203569
aVChris Babb
p354
aI1610612738
aVBOS
p355
aF24.0
aI14
aI3
aI11
aF0.214
aF9.5
aF0.6
aF2.1
aF0.267
aF0.4
aF1.9
aF0.222
aF0.0
aF0.0
aF0.0
aF0.3
aF0.9
aF1.2
aF0.2
aF0.2
aF0.4
aF0.0
aF0.0
aF0.9
aF0.3
aF1.6
aF-1.2
aI0
aI0
aI5
aV203569,1610612738
p356
aa(lp357
I2547
aVChris Bosh
p358
aI1610612748
aVMIA
p359
aF30.0
aI79
aI53
aI26
aF0.671
aF32.0
aF6.2
aF12.1
aF0.516
aF0.9
aF2.8
aF0.339
aF2.8
aF3.4
aF0.82
aF1.2
aF5.4
aF6.6
aF1.1
aF1.6
aF1.0
aF1.0
aF0.4
aF2.4
aF2.6
aF16.2
aF5.6
aI6
aI0
aI5
aV2547,1610612748
p360
aa(lp361
I203142
aVChris Copeland
p362
aI1610612754
aVIND
p363
aF30.0
aI41
aI25
aI16
aF0.61
aF6.5
aF1.3
aF2.9
aF0.47
aF0.8
aF1.9
aF0.418
aF0.2
aF0.3
aF0.714
aF0.2
aF0.6
aF0.8
aF0.4
aF0.3
aF0.1
aF0.2
aF0.1
aF0.9
aF0.3
aF3.7
aF-0.1
aI0
aI0
aI5
aV203142,1610612754
p364
aa(lp365
I201604
aVChris Douglas-Roberts
p366
aI1610612766
aVCHA
p367
aF27.0
aI49
aI27
aI22
aF0.551
aF20.7
aF2.3
aF5.1
aF0.44
aF1.0
aF2.7
aF0.386
aF1.3
aF1.7
aF0.805
aF0.3
aF2.1
aF2.4
aF1.0
aF0.7
aF0.6
aF0.3
aF0.2
aF1.2
aF1.3
aF6.9
aF-0.2
aI0
aI0
aI5
aV201604,1610612766
p368
aa(lp369
I203187
aVChris Johnson
p370
aI1610612738
aVBOS
p371
aF24.0
aI40
aI11
aI29
aF0.275
aF19.7
aF2.1
aF5.4
aF0.397
aF1.1
aF3.2
aF0.339
aF0.9
aF1.1
aF0.86
aF0.8
aF1.7
aF2.4
aF0.8
aF0.6
aF0.7
aF0.1
aF0.4
aF1.6
aF1.0
aF6.3
aF0.3
aI0
aI0
aI5
aV203187,1610612738
p372
aa(lp373
I2549
aVChris Kaman
p374
aI1610612747
aVLAL
p375
aF32.0
aI39
aI13
aI26
aF0.333
aF18.9
aF4.5
aF8.9
aF0.509
aF0.0
aF0.1
aF0.0
aF1.3
aF1.7
aF0.765
aF1.4
aF4.5
aF5.9
aF1.5
aF1.9
aF0.3
aF1.0
aF0.5
aF2.4
aF1.4
aF10.4
aF-1.5
aI6
aI0
aI5
aV2549,1610612747
p376
aa(lp377
I101108
aVChris Paul
p378
aI1610612746
aVLAC
p379
aF29.0
aI62
aI44
aI18
aF0.71
aF35.0
aF6.5
aF14.0
aF0.467
aF1.3
aF3.4
aF0.368
aF4.8
aF5.6
aF0.855
aF0.6
aF3.7
aF4.3
aF10.7
aF2.3
aF2.5
aF0.1
aF0.5
aF2.5
aF4.5
aF19.1
aF8.5
aI39
aI0
aI5
aV101108,1610612746
p380
aa(lp381
I202698
aVChris Singleton
p382
aI1610612764
aVWAS
p383
aF24.0
aI25
aI13
aI12
aF0.52
aF10.0
aF1.0
aF2.7
aF0.373
aF0.3
aF0.8
aF0.368
aF0.7
aF1.0
aF0.72
aF0.7
aF1.5
aF2.2
aF0.2
aF0.7
aF0.4
aF0.1
aF0.2
aF1.0
aF0.9
aF3.0
aF-2.6
aI0
aI0
aI5
aV202698,1610612764
p384
aa(lp385
I203147
aVChris Smith
p386
aI1610612752
aVNYK
p387
aF26.0
aI2
aI0
aI2
aF0.0
aF1.0
aF0.0
aF0.0
aF0.0
aF0.0
aF0.0
aF0.0
aF0.0
aF0.0
aF0.0
aF0.0
aF0.0
aF0.0
aF0.0
aF0.0
aF0.0
aF0.0
aF0.0
aF0.0
aF0.0
aF0.0
aF-1.5
aI0
aI0
aI5
aV203147,1610612752
p388
aa(lp389
I202874
aVChris Wright
p390
aI1610612749
aVMIL
p391
aF25.0
aI8
aI1
aI7
aF0.125
aF15.7
aF2.6
aF4.4
aF0.6
aF0.0
aF0.1
aF0.0
aF0.8
aF1.9
aF0.4
aF1.3
aF1.3
aF2.5
aF0.6
aF0.6
aF0.9
aF0.6
aF0.4
aF2.1
aF1.5
aF6.0
aF-3.1
aI0
aI0
aI5
aV202874,1610612749
p392
aa(lp393
I203469
aVCody Zeller
p394
aI1610612766
aVCHA
p395
aF21.0
aI82
aI43
aI39
aF0.524
aF17.3
aF2.1
aF4.9
aF0.426
aF0.0
aF0.0
aF0.0
aF1.8
aF2.4
aF0.73
aF1.4
aF2.9
aF4.3
aF1.1
aF1.1
aF0.5
aF0.5
aF0.5
aF2.1
aF2.0
aF6.0
aF-1.1
aI1
aI0
aI5
aV203469,1610612766
p396
aa(lp397
I202332
aVCole Aldrich
p398
aI1610612752
aVNYK
p399
aF25.0
aI46
aI26
aI20
aF0.565
aF7.2
aF0.7
aF1.3
aF0.541
aF0.0
aF0.0
aF0.0
aF0.6
aF0.7
aF0.867
aF0.8
aF2.0
aF2.8
aF0.3
aF0.4
aF0.2
aF0.7
aF0.1
aF0.9
aF0.5
aF2.0
aF-0.4
aI3
aI0
aI5
aV202332,1610612752
p400
aa(lp401
I201147
aVCorey Brewer
p402
aI1610612750
aVMIN
p403
aF28.0
aI81
aI40
aI41
aF0.494
aF32.2
aF4.8
aF10.0
aF0.481
aF0.7
aF2.6
aF0.28
aF2.0
aF2.8
aF0.718
aF0.8
aF1.8
aF2.6
aF1.7
aF1.3
aF1.9
aF0.4
aF0.5
aF2.6
aF2.4
aF12.3
aF4.1
aI0
aI0
aI5
aV201147,1610612750
p404
aa(lp405
I202709
aVCory Joseph
p406
aI1610612759
aVSAS
p407
aF22.0
aI68
aI52
aI16
aF0.765
aF13.8
aF1.9
aF3.9
aF0.475
aF0.2
aF0.6
aF0.316
aF1.2
aF1.4
aF0.823
aF0.5
aF1.1
aF1.6
aF1.7
aF0.6
aF0.5
aF0.2
aF0.3
aF1.2
aF1.2
aF5.0
aF0.0
aI0
aI0
aI5
aV202709,1610612759
p408
aa(lp409
I201584
aVCourtney Lee
p410
aI1610612763
aVMEM
p411
aF28.0
aI79
aI47
aI32
aF0.595
aF25.0
aF3.7
aF7.8
aF0.48
aF0.9
aF2.5
aF0.371
aF1.3
aF1.4
aF0.884
aF0.4
aF2.0
aF2.4
aF1.5
aF0.9
aF0.8
aF0.4
aF0.3
aF1.6
aF1.0
aF9.6
aF0.8
aI0
aI0
aI5
aV201584,1610612763
p412
aa(lp413
I201571
aVD.J. Augustin
p414
aI1610612741
aVCHI
p415
aF26.0
aI71
aI44
aI27
aF0.62
aF27.3
aF4.2
aF10.1
aF0.415
aF1.9
aF4.7
aF0.401
aF2.8
aF3.2
aF0.885
aF0.2
aF1.6
aF1.8
aF4.4
aF1.8
aF0.7
aF0.0
aF0.7
aF2.1
aF2.7
aF13.1
aF0.9
aI2
aI0
aI5
aV201571,1610612741
p416
aa(lp417
I203474
aVDJ Stephens
p418
aI1610612749
aVMIL
p419
aF23.0
aI3
aI0
aI3
aF0.0
aF4.9
aF1.0
aF2.3
aF0.429
aF0.0
aF0.0
aF0.0
aF0.3
aF0.3
aF1.0
aF0.3
aF1.3
aF1.7
aF0.0
aF0.0
aF0.0
aF0.0
aF0.3
aF0.0
aF0.3
aF2.3
aF0.3
aI0
aI0
aI5
aV203474,1610612749
p420
aa(lp421
I201591
aVDJ White
p422
aI1610612766
aVCHA
p423
aF27.0
aI2
aI2
aI0
aF1.0
aF5.1
aF0.0
aF0.5
aF0.0
aF0.0
aF0.0
aF0.0
aF0.0
aF0.0
aF0.0
aF0.0
aF1.0
aF1.0
aF0.0
aF0.0
aF0.5
aF0.0
aF0.0
aF0.5
aF0.0
aF0.0
aF-1.0
aI0
aI0
aI5
aV201591,1610612766
p424
aa(lp425
I203081
aVDamian Lillard
p426
aI1610612757
aVPOR
p427
aF23.0
aI82
aI54
aI28
aF0.659
aF35.8
aF6.7
aF15.9
aF0.424
aF2.7
aF6.8
aF0.394
aF4.5
aF5.2
aF0.871
aF0.4
aF3.1
aF3.5
aF5.6
aF2.4
aF0.8
aF0.3
aF1.0
aF2.4
aF4.0
aF20.7
aF4.4
aI6
aI0
aI5
aV203081,1610612757
p428
aa(lp429
I202345
aVDamion James
p430
aI1610612759
aVSAS
p431
aF26.0
aI5
aI1
aI4
aF0.2
aF10.1
aF0.4
aF1.8
aF0.222
aF0.0
aF0.4
aF0.0
aF0.4
aF0.4
aF1.0
aF0.2
aF2.2
aF2.4
aF0.6
aF0.2
aF0.0
aF0.2
aF0.0
aF0.6
aF0.6
aF1.2
aF2.4
aI0
aI0
aI5
aV202345,1610612759
p432
aa(lp433
I202350
aVDaniel Orton
p434
aI1610612755
aVPHI
p435
aF23.0
aI22
aI7
aI15
aF0.318
aF11.4
aF1.0
aF2.1
aF0.447
aF0.0
aF0.0
aF0.0
aF1.0
aF1.4
aF0.767
aF0.7
aF2.0
aF2.8
aF0.7
aF0.8
aF0.3
aF0.7
aF0.3
aF1.7
aF1.4
aF3.0
aF-1.6
aI1
aI0
aI5
aV202350,1610612755
p436
aa(lp437
I101122
aVDanny Granger
p438
aI1610612746
aVLAC
p439
aF31.0
aI41
aI31
aI10
aF0.756
aF20.7
aF2.8
aF7.5
aF0.378
aF1.0
aF3.1
aF0.336
aF1.5
aF1.6
aF0.94
aF0.8
aF2.5
aF3.2
aF1.0
aF1.1
aF0.3
aF0.4
aF0.4
aF1.5
aF1.3
aF8.2
aF2.3
aI0
aI0
aI5
aV101122,1610612746
p440
aa(lp441
I201980
aVDanny Green
p442
aI1610612759
aVSAS
p443
aF27.0
aI68
aI54
aI14
aF0.794
aF24.3
aF3.2
aF7.4
aF0.432
aF1.9
aF4.7
aF0.415
aF0.7
aF0.9
aF0.794
aF0.4
aF3.0
aF3.4
aF1.5
aF1.1
aF1.0
aF0.9
aF0.2
aF1.6
aF0.8
aF9.1
aF4.9
aI1
aI0
aI5
aV201980,1610612759
p444
aa(lp445
I201967
aVDante Cunningham
p446
aI1610612750
aVMIN
p447
aF27.0
aI81
aI39
aI42
aF0.481
aF20.2
aF2.9
aF6.3
aF0.464
aF0.0
aF0.1
aF0.0
aF0.5
aF0.8
aF0.567
aF1.4
aF2.7
aF4.1
aF1.0
aF0.5
aF0.8
aF0.7
aF0.2
aF1.8
aF0.8
aF6.3
aF-0.5
aI2
aI0
aI5
aV201967,1610612750
p448
aa(lp449
I203130
aVDarius Johnson-Odom
p450
aI1610612755
aVPHI
p451
aF24.0
aI3
aI0
aI3
aF0.0
aF5.1
aF0.0
aF2.3
aF0.0
aF0.0
aF1.0
aF0.0
aF0.0
aF0.7
aF0.0
aF0.0
aF0.7
aF0.7
aF0.3
aF0.7
aF0.3
aF0.0
aF0.0
aF1.0
aF1.3
aF0.0
aF-1.0
aI0
aI0
aI5
aV203130,1610612755
p452
aa(lp453
I203121
aVDarius Miller
p454
aI1610612740
aVNOP
p455
aF24.0
aI45
aI14
aI31
aF0.311
aF16.1
aF1.6
aF3.7
aF0.44
aF0.6
aF1.7
aF0.325
aF0.6
aF0.8
aF0.806
aF0.2
aF1.0
aF1.2
aF1.0
aF0.5
aF0.5
aF0.2
aF0.1
aF2.0
aF0.6
aF4.4
aF1.1
aI0
aI0
aI5
aV203121,1610612740
p456
aa(lp457
I202721
aVDarius Morris
p458
aI1610612763
aVMEM
p459
aF23.0
aI27
aI16
aI11
aF0.593
aF11.6
aF1.4
aF3.6
aF0.406
aF0.4
aF1.4
aF0.316
aF0.6
aF1.0
aF0.654
aF0.3
aF0.7
aF1.0
aF1.6
aF1.0
aF0.5
aF0.0
aF0.2
aF1.2
aF1.0
aF4.0
aF-2.4
aI0
aI0
aI5
aV202721,1610612763
p460
aa(lp461
I201589
aVDarrell Arthur
p462
aI1610612743
aVDEN
p463
aF26.0
aI68
aI33
aI35
aF0.485
aF17.1
aF2.4
aF6.0
aF0.395
aF0.4
aF0.9
aF0.375
aF0.8
aF0.9
aF0.855
aF0.8
aF2.3
aF3.1
aF0.9
aF0.9
aF0.6
aF0.7
aF0.2
aF2.7
aF0.8
aF5.9
aF1.0
aI0
aI0
aI5
aV201589,1610612743
p464
aa(lp465
I201954
aVDarren Collison
p466
aI1610612746
aVLAC
p467
aF26.0
aI80
aI56
aI24
aF0.7
aF25.9
aF4.1
aF8.7
aF0.467
aF0.9
aF2.4
aF0.376
aF2.4
aF2.8
aF0.857
aF0.6
aF1.8
aF2.4
aF3.7
aF1.7
aF1.2
aF0.2
aF0.5
aF1.9
aF2.1
aF11.4
aF2.7
aI1
aI0
aI5
aV201954,1610612746
p468
aa(lp469
I101135
aVDavid Lee
p470
aI1610612744
aVGSW
p471
aF31.0
aI69
aI42
aI27
aF0.609
aF33.2
aF7.4
aF14.2
aF0.523
aF0.0
aF0.0
aF0.0
aF3.3
aF4.3
aF0.78
aF2.6
aF6.7
aF9.3
aF2.1
aF2.2
aF0.7
aF0.4
aF1.4
aF3.0
aF3.1
aF18.2
aF6.8
aI34
aI0
aI5
aV101135,1610612744
p472
aa(lp473
I2561
aVDavid West
p474
aI1610612754
aVIND
p475
aF33.0
aI80
aI54
aI26
aF0.675
aF30.9
aF5.7
aF11.7
aF0.488
aF0.1
aF0.2
aF0.267
aF2.5
aF3.1
aF0.789
aF1.5
aF5.3
aF6.8
aF2.8
aF1.7
aF0.8
aF0.9
aF0.6
aF2.3
aF2.9
aF14.0
aF5.1
aI8
aI0
aI5
aV2561,1610612754
p476
aa(lp477
I201599
aVDeAndre Jordan
p478
aI1610612746
aVLAC
p479
aF25.0
aI82
aI57
aI25
aF0.695
aF35.0
aF4.2
aF6.3
aF0.676
aF0.0
aF0.0
aF0.0
aF2.0
aF4.6
aF0.428
aF4.0
aF9.5
aF13.6
aF0.9
aF1.5
aF1.0
aF2.5
aF0.4
aF3.2
aF3.8
aF10.4
aF6.0
aI42
aI0
aI5
aV201599,1610612746
p480
aa(lp481
I202732
aVDeAndre Liggins
p482
aI1610612748
aVMIA
p483
aF26.0
aI1
aI1
aI0
aF1.0
aF1.4
aF1.0
aF1.0
aF1.0
aF0.0
aF0.0
aF0.0
aF0.0
aF0.0
aF0.0
aF1.0
aF0.0
aF1.0
aF0.0
aF0.0
aF0.0
aF0.0
aF0.0
aF0.0
aF0.0
aF2.0
aF1.0
aI0
aI0
aI5
aV202732,1610612748
p484
aa(lp485
I201971
aVDeJuan Blair
p486
aI1610612742
aVDAL
p487
aF25.0
aI78
aI46
aI32
aF0.59
aF15.6
aF2.7
aF5.0
aF0.534
aF0.0
aF0.0
aF0.0
aF1.0
aF1.6
aF0.636
aF1.8
aF2.9
aF4.7
aF0.9
aF1.0
aF0.8
aF0.3
aF0.6
aF2.5
aF1.2
aF6.4
aF0.0
aI2
aI0
aI5
aV201971,1610612742
p488
aa(lp489
I201942
aVDeMar DeRozan
p490
aI1610612761
aVTOR
p491
aF24.0
aI79
aI45
aI34
aF0.57
aF38.2
aF7.6
aF17.8
aF0.429
aF0.8
aF2.7
aF0.305
aF6.6
aF8.0
aF0.824
aF0.6
aF3.7
aF4.3
aF4.0
aF2.2
aF1.1
aF0.4
aF0.7
aF2.5
aF5.7
aF22.7
aF2.3
aI2
aI0
aI5
aV201942,1610612761
p492
aa(lp493
I202326
aVDeMarcus Cousins
p494
aI1610612758
aVSAC
p495
aF23.0
aI71
aI28
aI43
aF0.394
aF32.4
aF8.3
aF16.8
aF0.496
aF0.0
aF0.1
aF0.0
aF6.1
aF8.4
aF0.726
aF3.1
aF8.6
aF11.7
aF2.9
aF3.5
aF1.5
aF1.3
aF1.5
aF3.8
aF7.5
aF22.7
aF-0.3
aI53
aI0
aI5
aV202326,1610612758
p496
aa(lp497
I201960
aVDeMarre Carroll
p498
aI1610612737
aVATL
p499
aF27.0
aI73
aI37
aI36
aF0.507
aF32.1
aF4.1
aF8.8
aF0.47
aF1.3
aF3.7
aF0.362
aF1.5
aF1.9
aF0.773
aF1.5
aF4.1
aF5.5
aF1.8
aF1.1
aF1.5
aF0.3
aF0.5
aF2.6
aF1.8
aF11.1
aF1.4
aI3
aI0
aI5
aV201960,1610612737
p500
aa(lp501
I203471
aVDennis Schroder
p502
aI1610612737
aVATL
p503
aF20.0
aI49
aI21
aI28
aF0.429
aF13.1
aF1.5
aF3.8
aF0.383
aF0.2
aF0.9
aF0.238
aF0.6
aF0.9
aF0.674
aF0.1
aF1.1
aF1.2
aF1.9
aF1.2
aF0.3
aF0.0
aF0.3
aF1.1
aF1.2
aF3.7
aF-4.2
aI0
aI0
aI5
aV203471,1610612737
p504
aa(lp505
I965
aVDerek Fisher
p506
aI1610612760
aVOKC
p507
aF39.0
aI81
aI59
aI22
aF0.728
aF17.6
aF1.7
aF4.5
aF0.391
aF1.1
aF2.8
aF0.384
aF0.7
aF0.9
aF0.775
aF0.1
aF1.4
aF1.5
aF1.4
aF0.6
aF0.9
aF0.0
aF0.1
aF1.9
aF1.5
aF5.2
aF2.9
aI0
aI0
aI5
aV965,1610612760
p508
aa(lp509
I101114
aVDeron Williams
p510
aI1610612751
aVBKN
p511
aF30.0
aI64
aI37
aI27
aF0.578
aF32.2
aF5.0
aF11.2
aF0.45
aF1.5
aF4.2
aF0.366
aF2.7
aF3.4
aF0.801
aF0.2
aF2.4
aF2.6
aF6.1
aF2.2
aF1.5
aF0.2
aF0.5
aF2.3
aF3.0
aF14.3
aF2.9
aI5
aI0
aI5
aV101114,1610612751
p512
aa(lp513
I202324
aVDerrick Favors
p514
aI1610612762
aVUTA
p515
aF22.0
aI73
aI25
aI48
aF0.342
aF30.2
aF5.3
aF10.2
aF0.522
aF0.0
aF0.0
aF0.0
aF2.6
aF3.9
aF0.669
aF2.7
aF6.0
aF8.7
aF1.2
aF1.8
aF1.0
aF1.5
aF0.9
aF3.2
aF3.1
aF13.3
aF-4.6
aI25
aI0
aI5
aV202324,1610612762
p516
aa(lp517
I201565
aVDerrick Rose
p518
aI1610612741
aVCHI
p519
aF25.0
aI10
aI5
aI5
aF0.5
aF31.1
aF5.8
aF16.4
aF0.354
aF1.6
aF4.7
aF0.34
aF2.7
aF3.2
aF0.844
aF0.9
aF2.3
aF3.2
aF4.3
aF3.4
aF0.5
aF0.1
aF1.8
aF1.5
aF2.3
aF15.9
aF-3.3
aI0
aI0
aI5
aV201565,1610612741
p520
aa(lp521
I202682
aVDerrick Williams
p522
aI1610612758
aVSAC
p523
aF23.0
aI78
aI29
aI49
aF0.372
aF23.3
aF2.6
aF6.2
aF0.427
aF0.3
aF1.3
aF0.263
aF2.4
aF3.3
aF0.718
aF0.9
aF3.2
aF4.1
aF0.7
aF1.0
aF0.6
aF0.3
aF0.4
aF1.5
aF2.2
aF8.0
aF-2.3
aI5
aI0
aI5
aV202682,1610612758
p524
aa(lp525
I2734
aVDevin Harris
p526
aI1610612742
aVDAL
p527
aF31.0
aI40
aI24
aI16
aF0.6
aF20.4
aF2.4
aF6.4
aF0.378
aF0.8
aF2.5
aF0.307
aF2.3
aF2.9
aF0.8
aF0.2
aF1.9
aF2.1
aF4.5
aF1.5
aF0.7
aF0.1
aF0.4
aF1.8
aF3.0
aF7.9
aF3.9
aI1
aI0
aI5
aV2734,1610612742
p528
aa(lp529
I203473
aVDewayne Dedmon
p530
aI1610612753
aVORL
p531
aF24.0
aI31
aI7
aI24
aF0.226
aF12.6
aF1.2
aF2.7
aF0.458
aF0.0
aF0.0
aF0.0
aF0.7
aF1.0
aF0.656
aF1.2
aF2.9
aF4.1
aF0.2
aF0.6
aF0.2
aF0.7
aF0.1
aF2.1
aF1.1
aF3.1
aF-2.0
aI0
aI0
aI5
aV203473,1610612753
p532
aa(lp533
I202354
aVDexter Pittman
p534
aI1610612737
aVATL
p535
aF26.0
aI2
aI0
aI2
aF0.0
aF1.5
aF0.0
aF0.5
aF0.0
aF0.0
aF0.0
aF0.0
aF0.0
aF1.0
aF0.0
aF1.5
aF0.0
aF1.5
aF0.0
aF0.0
aF0.0
aF0.0
aF0.0
aF0.0
aF0.5
aF0.0
aF-1.0
aI0
aI0
aI5
aV202354,1610612737
p536
aa(lp537
I203197
aVDiante Garrett
p538
aI1610612762
aVUTA
p539
aF25.0
aI71
aI23
aI48
aF0.324
aF14.8
aF1.4
aF3.7
aF0.381
aF0.5
aF1.4
aF0.375
aF0.1
aF0.2
aF0.833
aF0.2
aF1.2
aF1.4
aF1.7
aF1.1
aF0.6
aF0.1
aF0.2
aF1.1
aF0.3
aF3.5
aF-1.6
aI0
aI0
aI5
aV203197,1610612762
p540
aa(lp541
I203079
aVDion Waiters
p542
aI1610612739
aVCLE
p543
aF22.0
aI70
aI28
aI42
aF0.4
aF29.6
aF6.1
aF14.2
aF0.433
aF1.3
aF3.6
aF0.368
aF2.3
aF3.4
aF0.685
aF0.5
aF2.3
aF2.8
aF3.0
aF2.2
aF0.9
aF0.2
aF0.9
aF2.2
aF2.7
aF15.9
aF-0.8
aI1
aI0
aI5
aV203079,1610612739
p544
aa(lp545
I202091
aVDionte Christmas
p546
aI1610612756
aVPHX
p547
aF27.0
aI31
aI15
aI16
aF0.484
aF6.4
aF0.7
aF2.0
aF0.355
aF0.3
aF1.0
aF0.29
aF0.6
aF0.8
aF0.75
aF0.4
aF0.8
aF1.2
aF0.3
aF0.2
aF0.1
aF0.1
aF0.1
aF0.6
aF0.4
aF2.3
aF-0.7
aI0
aI0
aI5
aV202091,1610612756
p548
aa(lp549
I1717
aVDirk Nowitzki
p550
aI1610612742
aVDAL
p551
aF36.0
aI80
aI48
aI32
aF0.6
aF32.9
aF7.9
aF15.9
aF0.497
aF1.6
aF4.1
aF0.398
aF4.2
aF4.7
aF0.899
aF0.5
aF5.7
aF6.2
aF2.7
aF1.5
aF0.9
aF0.6
aF0.2
aF2.1
aF4.7
aF21.7
aF4.0
aI6
aI0
aI5
aV1717,1610612742
p552
aa(lp553
I202388
aVDonald Sloan
p554
aI1610612754
aVIND
p555
aF26.0
aI48
aI31
aI17
aF0.646
aF8.2
aF0.9
aF2.4
aF0.376
aF0.2
aF0.9
aF0.238
aF0.3
aF0.4
aF0.6
aF0.1
aF0.8
aF0.9
aF1.0
aF0.5
aF0.2
aF0.0
aF0.2
aF0.4
aF0.5
aF2.3
aF-1.6
aI0
aI0
aI5
aV202388,1610612754
p556
aa(lp557
I202700
aVDonatas Motiejunas
p558
aI1610612745
aVHOU
p559
aF23.0
aI62
aI42
aI20
aF0.677
aF15.4
aF2.1
aF4.8
aF0.443
aF0.3
aF1.4
aF0.25
aF0.9
aF1.5
aF0.604
aF1.0
aF2.7
aF3.6
aF0.5
aF0.8
aF0.3
aF0.3
aF0.3
aF2.1
aF1.7
aF5.5
aF0.8
aI3
aI0
aI5
aV202700,1610612745
p560
aa(lp561
I2748
aVDorell Wright
p562
aI1610612757
aVPOR
p563
aF28.0
aI68
aI48
aI20
aF0.706
aF14.5
aF1.6
aF4.4
aF0.374
aF1.0
aF3.0
aF0.342
aF0.8
aF1.0
aF0.754
aF0.4
aF2.4
aF2.8
aF0.9
aF0.6
aF0.3
aF0.2
aF0.1
aF0.9
aF0.6
aF5.0
aF0.8
aI0
aI0
aI5
aV2748,1610612757
p564
aa(lp565
I203117
aVDoron Lamb
p566
aI1610612753
aVORL
p567
aF22.0
aI53
aI13
aI40
aF0.245
aF13.1
aF1.2
aF3.0
aF0.394
aF0.7
aF1.7
aF0.4
aF0.5
aF0.7
aF0.806
aF0.2
aF0.8
aF0.9
aF0.8
aF0.5
aF0.2
aF0.0
aF0.1
aF1.0
aF0.5
aF3.6
aF0.0
aI0
aI0
aI5
aV203117,1610612753
p568
aa(lp569
I203110
aVDraymond Green
p570
aI1610612744
aVGSW
p571
aF24.0
aI82
aI51
aI31
aF0.622
aF21.9
aF2.3
aF5.6
aF0.407
aF0.7
aF2.0
aF0.333
aF1.0
aF1.5
aF0.667
aF1.0
aF3.9
aF5.0
aF1.9
aF1.1
aF1.2
aF0.9
aF0.3
aF2.8
aF1.7
aF6.2
aF1.7
aI4
aI0
aI5
aV203110,1610612744
p572
aa(lp573
I2400
aVDrew Gooden
p574
aI1610612764
aVWAS
p575
aF32.0
aI22
aI12
aI10
aF0.545
aF18.0
aF3.5
aF6.5
aF0.531
aF0.3
aF0.8
aF0.412
aF1.1
aF1.2
aF0.889
aF1.7
aF3.5
aF5.2
aF0.7
aF0.8
aF0.5
aF0.3
aF0.4
aF2.4
aF1.5
aF8.3
aF-1.2
aI1
aI0
aI5
aV2400,1610612764
p576
aa(lp577
I202779
aVDwight Buycks
p578
aI1610612761
aVTOR
p579
aF25.0
aI14
aI5
aI9
aF0.357
aF10.4
aF1.1
aF3.4
aF0.313
aF0.4
aF1.2
aF0.294
aF0.6
aF0.6
aF0.889
aF0.3
aF1.4
aF1.6
aF0.7
aF0.7
aF0.6
aF0.0
aF0.3
aF0.8
aF0.9
aF3.1
aF0.0
aI0
aI0
aI5
aV202779,1610612761
p580
aa(lp581
I2730
aVDwight Howard
p582
aI1610612745
aVHOU
p583
aF28.0
aI71
aI48
aI23
aF0.676
aF33.8
aF6.7
aF11.3
aF0.591
aF0.0
aF0.1
aF0.286
aF4.9
aF9.0
aF0.547
aF3.3
aF8.9
aF12.2
aF1.8
aF3.2
aF0.8
aF1.8
aF1.1
aF3.4
aF6.7
aF18.3
aF4.8
aI47
aI0
aI5
aV2730,1610612745
p584
aa(lp585
I2548
aVDwyane Wade
p586
aI1610612748
aVMIA
p587
aF32.0
aI54
aI36
aI18
aF0.667
aF32.9
aF7.7
aF14.1
aF0.545
aF0.2
aF0.6
aF0.281
aF3.5
aF4.8
aF0.733
aF1.1
aF3.4
aF4.5
aF4.7
aF3.0
aF1.5
aF0.5
aF0.4
aF2.0
aF3.8
aF19.0
aF2.6
aI4
aI0
aI5
aV2548,1610612748
p588
aa(lp589
I202734
aVE'Twaun Moore
p590
aI1610612753
aVORL
p591
aF25.0
aI79
aI22
aI57
aF0.278
aF19.1
aF2.5
aF5.8
aF0.428
aF0.7
aF2.0
aF0.354
aF0.7
aF0.9
aF0.765
aF0.4
aF1.4
aF1.7
aF1.4
aF0.7
aF0.8
aF0.2
aF0.4
aF1.3
aF0.8
aF6.3
aF-1.9
aI0
aI0
aI5
aV202734,1610612753
p592
aa(lp593
I201947
aVEarl Clark
p594
aI1610612752
aVNYK
p595
aF26.0
aI54
aI22
aI32
aF0.407
aF14.2
aF1.8
aF4.8
aF0.372
aF0.8
aF2.3
aF0.336
aF0.4
aF0.6
aF0.647
aF0.4
aF2.2
aF2.6
aF0.3
aF0.6
aF0.3
aF0.5
aF0.3
aF1.2
aF0.5
aF4.8
aF-2.6
aI0
aI0
aI5
aV201947,1610612752
p596
aa(lp597
I2248
aVEarl Watson
p598
aI1610612757
aVPOR
p599
aF35.0
aI24
aI17
aI7
aF0.708
aF6.7
aF0.1
aF0.5
aF0.273
aF0.1
aF0.3
aF0.286
aF0.2
aF0.2
aF1.0
aF0.2
aF0.4
aF0.6
aF1.2
aF0.7
aF0.2
aF0.0
aF0.0
aF1.4
aF0.5
aF0.5
aF-0.4
aI0
aI0
aI5
aV2248,1610612757
p600
aa(lp601
I202334
aVEd Davis
p602
aI1610612763
aVMEM
p603
aF25.0
aI63
aI38
aI25
aF0.603
aF15.2
aF2.5
aF4.6
aF0.534
aF0.0
aF0.0
aF0.0
aF0.7
aF1.4
aF0.528
aF1.5
aF2.7
aF4.1
aF0.4
aF0.6
aF0.3
aF0.7
aF0.4
aF1.8
aF1.1
aF5.7
aF0.9
aI4
aI0
aI5
aV202334,1610612763
p604
aa(lp605
I202327
aVEkpe Udoh
p606
aI1610612749
aVMIL
p607
aF27.0
aI42
aI7
aI35
aF0.167
aF19.1
aF1.4
aF3.4
aF0.399
aF0.0
aF0.0
aF0.0
aF0.7
aF1.1
aF0.638
aF1.5
aF2.1
aF3.5
aF0.7
aF0.9
aF0.4
aF1.0
aF0.4
aF2.3
aF1.1
aF3.4
aF-4.0
aI1
aI0
aI5
aV202327,1610612749
p608
aa(lp609
I203548
aVElias Harris
p610
aI1610612747
aVLAL
p611
aF24.0
aI2
aI1
aI1
aF0.5
aF5.7
aF0.0
aF0.5
aF0.0
aF0.0
aF0.0
aF0.0
aF0.0
aF0.0
aF0.0
aF0.5
aF0.0
aF0.5
aF0.5
aF0.0
aF0.5
aF0.0
aF0.0
aF0.0
aF1.0
aF0.0
aF-3.0
aI0
aI0
aI5
aV203548,1610612747
p612
aa(lp613
I202343
aVElliot Williams
p614
aI1610612755
aVPHI
p615
aF25.0
aI67
aI13
aI54
aF0.194
aF17.3
aF2.1
aF5.0
aF0.415
aF0.6
aF1.9
aF0.296
aF1.3
aF1.8
aF0.731
aF0.4
aF1.5
aF1.9
aF1.1
aF1.0
aF0.5
aF0.0
aF0.5
aF1.9
aF1.3
aF6.0
aF-5.4
aI0
aI0
aI5
aV202343,1610612755
p616
aa(lp617
I1882
aVElton Brand
p618
aI1610612737
aVATL
p619
aF35.0
aI73
aI34
aI39
aF0.466
aF19.4
aF2.5
aF4.5
aF0.539
aF0.0
aF0.0
aF0.0
aF0.8
aF1.3
aF0.649
aF1.3
aF3.6
aF4.9
aF1.0
aF0.8
aF0.5
aF1.2
aF0.2
aF2.6
aF1.2
aF5.7
aF-0.8
aI3
aI0
aI5
aV1882,1610612737
p620
aa(lp621
I202683
aVEnes Kanter
p622
aI1610612762
aVUTA
p623
aF22.0
aI80
aI23
aI57
aF0.288
aF26.7
aF5.2
aF10.7
aF0.491
aF0.0
aF0.0
aF0.0
aF1.9
aF2.6
aF0.73
aF2.8
aF4.7
aF7.5
aF0.9
aF1.8
aF0.4
aF0.5
aF0.9
aF2.9
aF2.5
aF12.3
aF-6.0
aI24
aI0
aI5
aV202683,1610612762
p624
aa(lp625
I202339
aVEric Bledsoe
p626
aI1610612756
aVPHX
p627
aF24.0
aI43
aI28
aI15
aF0.651
aF32.9
aF6.2
aF12.9
aF0.477
aF1.2
aF3.3
aF0.357
aF4.3
aF5.5
aF0.772
aF0.6
aF4.1
aF4.7
aF5.5
aF3.3
aF1.6
aF0.3
aF0.7
aF2.3
aF4.3
aF17.7
aF3.2
aI4
aI0
aI5
aV202339,1610612756
p628
aa(lp629
I201569
aVEric Gordon
p630
aI1610612740
aVNOP
p631
aF25.0
aI64
aI26
aI38
aF0.406
aF32.1
aF5.6
aF12.8
aF0.436
aF1.6
aF4.0
aF0.391
aF2.7
aF3.5
aF0.785
aF0.5
aF2.1
aF2.6
aF3.3
aF2.1
aF1.2
aF0.2
aF1.0
aF1.8
aF2.9
aF15.4
aF-4.2
aI0
aI0
aI5
aV201569,1610612740
p632
aa(lp633
I201953
aVEric Maynor
p634
aI1610612755
aVPHI
p635
aF27.0
aI31
aI11
aI20
aF0.355
aF10.5
aF1.0
aF3.3
aF0.317
aF0.4
aF1.2
aF0.324
aF0.2
aF0.4
aF0.545
aF0.3
aF1.0
aF1.3
aF1.7
aF0.9
aF0.3
aF0.1
aF0.1
aF0.5
aF0.4
aF2.6
aF-5.5
aI0
aI0
aI5
aV201953,1610612755
p636
aa(lp637
I203513
aVErik Murphy
p638
aI1610612741
aVCHI
p639
aF23.0
aI24
aI13
aI11
aF0.542
aF2.6
aF0.1
aF0.5
aF0.231
aF0.0
aF0.1
aF0.0
aF0.0
aF0.0
aF0.0
aF0.1
aF0.3
aF0.3
aF0.1
aF0.1
aF0.0
aF0.2
aF0.0
aF0.3
aF0.0
aF0.3
aF-2.1
aI0
aI0
aI5
aV203513,1610612741
p640
aa(lp641
I101141
aVErsan Ilyasova
p642
aI1610612749
aVMIL
p643
aF27.0
aI55
aI10
aI45
aF0.182
aF26.9
aF4.3
aF10.5
aF0.409
aF0.7
aF2.4
aF0.282
aF1.9
aF2.4
aF0.823
aF1.9
aF4.3
aF6.2
aF1.3
aF1.1
aF0.8
aF0.1
aF0.5
aF2.5
aF2.8
aF11.2
aF-4.9
aI8
aI0
aI5
aV101141,1610612749
p644
aa(lp645
I203095
aVEvan Fournier
p646
aI1610612743
aVDEN
p647
aF21.0
aI76
aI35
aI41
aF0.461
aF19.8
aF3.0
aF7.2
aF0.419
aF1.2
aF3.1
aF0.376
aF1.2
aF1.6
aF0.756
aF0.4
aF2.2
aF2.7
aF1.5
aF1.3
aF0.4
aF0.1
aF0.4
aF2.4
aF1.4
aF8.4
aF0.1
aI0
aI0
aI5
aV203095,1610612743
p648
aa(lp649
I202323
aVEvan Turner
p650
aI1610612754
aVIND
p651
aF25.0
aI81
aI29
aI52
aF0.358
aF30.3
aF5.4
aF12.6
aF0.425
aF0.6
aF1.9
aF0.321
aF2.6
aF3.2
aF0.813
aF0.8
aF4.3
aF5.0
aF3.2
aF2.3
aF0.8
aF0.1
aF1.3
aF2.4
aF2.6
aF14.0
aF-4.7
aI9
aI0
aI5
aV202323,1610612754
p652
aa(lp653
I101128
aVFrancisco Garcia
p654
aI1610612745
aVHOU
p655
aF32.0
aI55
aI33
aI22
aF0.6
aF19.7
aF2.1
aF5.3
aF0.401
aF1.3
aF3.5
aF0.358
aF0.2
aF0.3
aF0.526
aF0.4
aF1.8
aF2.2
aF1.1
aF0.5
aF0.5
aF0.6
aF0.2
aF2.2
aF0.5
aF5.7
aF0.6
aI0
aI0
aI5
aV101128,1610612745
p656
aa(lp657
I203539
aVGal Mekel
p658
aI1610612742
aVDAL
p659
aF26.0
aI31
aI18
aI13
aF0.581
aF9.4
aF1.0
aF2.8
aF0.349
aF0.2
aF0.6
aF0.25
aF0.3
aF0.4
aF0.667
aF0.2
aF0.7
aF0.9
aF2.0
aF1.0
aF0.1
aF0.0
aF0.3
aF1.0
aF0.4
aF2.4
aF0.0
aI0
aI0
aI5
aV203539,1610612742
p660
aa(lp661
I202066
aVGarrett Temple
p662
aI1610612764
aVWAS
p663
aF28.0
aI75
aI40
aI35
aF0.533
aF8.5
aF0.7
aF1.9
aF0.362
aF0.1
aF0.4
aF0.207
aF0.4
aF0.6
aF0.698
aF0.3
aF0.6
aF0.9
aF1.0
aF0.6
aF0.5
aF0.1
aF0.1
aF1.0
aF0.7
aF1.8
aF-1.1
aI0
aI0
aI5
aV202066,1610612764
p664
aa(lp665
I202390
aVGary Neal
p666
aI1610612766
aVCHA
p667
aF29.0
aI52
aI19
aI33
aF0.365
aF21.4
aF3.7
aF9.1
aF0.41
aF1.3
aF3.5
aF0.378
aF1.8
aF2.0
aF0.895
aF0.2
aF1.5
aF1.7
aF1.6
aF1.2
aF0.3
aF0.0
aF0.3
aF1.3
aF1.8
aF10.5
aF-3.3
aI0
aI0
aI5
aV202390,1610612766
p668
aa(lp669
I201588
aVGeorge Hill
p670
aI1610612754
aVIND
p671
aF28.0
aI76
aI50
aI26
aF0.658
aF32.0
aF3.6
aF8.1
aF0.442
aF1.3
aF3.4
aF0.365
aF1.9
aF2.3
aF0.807
aF0.7
aF3.0
aF3.7
aF3.5
aF1.2
aF1.0
aF0.3
aF0.4
aF2.1
aF2.6
aF10.3
aF4.2
aI0
aI0
aI5
aV201588,1610612754
p672
aa(lp673
I101123
aVGerald Green
p674
aI1610612756
aVPHX
p675
aF28.0
aI82
aI48
aI34
aF0.585
aF28.4
aF5.5
aF12.3
aF0.445
aF2.5
aF6.2
aF0.4
aF2.4
aF2.8
aF0.848
aF0.6
aF2.8
aF3.4
aF1.5
aF1.8
aF0.9
aF0.5
aF0.3
aF2.7
aF1.9
aF15.8
aF0.5
aI0
aI0
aI5
aV101123,1610612756
p676
aa(lp677
I201945
aVGerald Henderson
p678
aI1610612766
aVCHA
p679
aF26.0
aI77
aI40
aI37
aF0.519
aF32.0
aF5.2
aF12.1
aF0.433
aF0.5
aF1.5
aF0.348
aF3.1
aF4.0
aF0.761
aF0.4
aF3.6
aF4.0
aF2.6
aF1.5
aF0.7
aF0.4
aF0.5
aF2.1
aF3.5
aF14.0
aF-0.9
aI0
aI0
aI5
aV201945,1610612766
p680
aa(lp681
I2222
aVGerald Wallace
p682
aI1610612738
aVBOS
p683
aF31.0
aI58
aI19
aI39
aF0.328
aF24.4
aF2.0
aF4.0
aF0.504
aF0.3
aF1.1
aF0.297
aF0.8
aF1.7
aF0.465
aF0.6
aF3.0
aF3.7
aF2.5
aF1.7
aF1.3
aF0.2
aF0.3
aF1.4
aF2.2
aF5.1
aF-2.9
aI1
aI0
aI5
aV2222,1610612738
p684
aa(lp685
I203507
aVGiannis Antetokounmpo
p686
aI1610612749
aVMIL
p687
aF19.0
aI77
aI14
aI63
aF0.182
aF24.6
aF2.2
aF5.4
aF0.414
aF0.5
aF1.5
aF0.347
aF1.8
aF2.6
aF0.683
aF1.0
aF3.4
aF4.4
aF1.9
aF1.6
aF0.8
aF0.8
aF0.4
aF2.2
aF2.2
aF6.8
aF-2.3
aI2
aI0
aI5
aV203507,1610612749
p688
aa(lp689
I203540
aVGigi Datome
p690
aI1610612765
aVDET
p691
aF26.0
aI34
aI9
aI25
aF0.265
aF7.0
aF1.0
aF2.9
aF0.351
aF0.2
aF1.1
aF0.179
aF0.2
aF0.3
aF0.8
aF0.4
aF0.9
aF1.4
aF0.3
aF0.3
aF0.2
aF0.0
aF0.0
aF0.6
aF0.3
aF2.4
aF1.1
aI0
aI0
aI5
aV203540,1610612765
p692
aa(lp693
I201175
aVGlen Davis
p694
aI1610612746
aVLAC
p695
aF28.0
aI68
aI30
aI38
aF0.441
aF24.4
aF4.0
aF8.7
aF0.457
aF0.1
aF0.2
aF0.364
aF1.4
aF2.0
aF0.693
aF1.6
aF3.6
aF5.2
aF1.1
aF1.1
aF0.9
aF0.4
aF0.7
aF2.3
aF2.0
aF9.4
aF-2.5
aI5
aI0
aI5
aV201175,1610612746
p696
aa(lp697
I203318
aVGlen Rice Jr.
p698
aI1610612764
aVWAS
p699
aF23.0
aI11
aI2
aI9
aF0.182
aF9.9
aF1.0
aF3.4
aF0.297
aF0.5
aF1.5
aF0.294
aF0.5
aF0.6
aF0.714
aF0.4
aF1.5
aF1.8
aF0.6
aF0.8
aF0.5
aF0.1
aF0.1
aF0.6
aF0.5
aF2.9
aF1.2
aI0
aI0
aI5
aV203318,1610612764
p700
aa(lp701
I201609
aVGoran Dragic
p702
aI1610612756
aVPHX
p703
aF28.0
aI76
aI45
aI31
aF0.592
aF35.1
aF7.3
aF14.4
aF0.505
aF1.6
aF3.9
aF0.408
aF4.2
aF5.5
aF0.76
aF0.9
aF2.3
aF3.2
aF5.9
aF2.8
aF1.4
aF0.3
aF0.8
aF2.7
aF4.8
aF20.3
aF4.0
aI7
aI0
aI5
aV201609,1610612756
p704
aa(lp705
I202330
aVGordon Hayward
p706
aI1610612762
aVUTA
p707
aF24.0
aI77
aI23
aI54
aF0.299
aF36.4
aF5.5
aF13.4
aF0.413
aF1.1
aF3.6
aF0.304
aF4.0
aF4.9
aF0.816
aF0.8
aF4.3
aF5.1
aF5.2
aF2.8
aF1.4
aF0.5
aF0.7
aF2.0
aF5.0
aF16.2
aF-5.1
aI9
aI0
aI5
aV202330,1610612762
p708
aa(lp709
I203476
aVGorgui Dieng
p710
aI1610612750
aVMIN
p711
aF24.0
aI60
aI32
aI28
aF0.533
aF13.6
aF1.9
aF3.8
aF0.498
aF0.0
aF0.0
aF1.0
aF1.0
aF1.6
aF0.634
aF1.7
aF3.3
aF5.0
aF0.7
aF0.9
aF0.5
aF0.8
aF0.4
aF1.8
aF1.2
aF4.8
aF-0.7
aI9
aI0
aI5
aV203476,1610612750
p712
aa(lp713
I202328
aVGreg Monroe
p714
aI1610612765
aVDET
p715
aF24.0
aI82
aI29
aI53
aF0.354
aF32.8
aF6.1
aF12.4
aF0.497
aF0.0
aF0.0
aF0.0
aF2.9
aF4.5
aF0.657
aF3.1
aF6.1
aF9.3
aF2.1
aF2.0
aF1.1
aF0.6
aF1.3
aF2.5
aF3.7
aF15.2
aF-1.9
aI35
aI0
aI5
aV202328,1610612765
p716
aa(lp717
I201141
aVGreg Oden
p718
aI1610612748
aVMIA
p719
aF26.0
aI23
aI16
aI7
aF0.696
aF9.2
aF1.2
aF2.1
aF0.551
aF0.0
aF0.0
aF0.0
aF0.6
aF1.0
aF0.565
aF1.0
aF1.3
aF2.3
aF0.0
aF0.5
aF0.3
aF0.6
aF0.2
aF2.3
aF1.1
aF2.9
aF-1.4
aI0
aI0
aI5
aV201141,1610612748
p720
aa(lp721
I202962
aVGreg Smith
p722
aI1610612745
aVHOU
p723
aF23.0
aI11
aI7
aI4
aF0.636
aF9.1
aF1.6
aF2.5
aF0.643
aF0.0
aF0.0
aF0.0
aF0.2
aF0.5
aF0.4
aF1.0
aF1.5
aF2.5
aF0.0
aF0.5
aF0.1
aF0.2
aF0.5
aF1.5
aF0.4
aF3.5
aF-1.5
aI0
aI0
aI5
aV202962,1610612745
p724
aa(lp725
I201880
aVGreg Stiemsma
p726
aI1610612740
aVNOP
p727
aF28.0
aI55
aI21
aI34
aF0.382
aF18.3
aF1.3
aF2.2
aF0.574
aF0.0
aF0.0
aF0.0
aF0.3
aF0.6
aF0.594
aF1.3
aF2.8
aF4.1
aF0.7
aF0.8
aF0.6
aF1.0
aF0.2
aF3.1
aF1.1
aF2.9
aF-3.1
aI0
aI0
aI5
aV201880,1610612740
p728
aa(lp729
I202349
aVGreivis Vasquez
p730
aI1610612761
aVTOR
p731
aF27.0
aI79
aI46
aI33
aF0.582
aF22.5
aF3.5
aF8.3
aF0.421
aF1.4
aF3.7
aF0.377
aF1.2
aF1.4
aF0.88
aF0.3
aF1.9
aF2.2
aF4.1
aF1.6
aF0.4
aF0.1
aF0.4
aF1.8
aF1.2
aF9.6
aF2.0
aI1
aI0
aI5
aV202349,1610612761
p732
aa(lp733
I202970
aVGustavo Ayon
p734
aI1610612737
aVATL
p735
aF29.0
aI26
aI12
aI14
aF0.462
aF16.5
aF2.0
aF3.9
aF0.51
aF0.0
aF0.0
aF0.0
aF0.3
aF0.8
aF0.4
aF1.6
aF3.2
aF4.8
aF1.1
aF1.1
aF1.0
aF0.4
aF0.5
aF1.8
aF1.1
aF4.3
aF-1.0
aI1
aI0
aI5
aV202970,1610612737
p736
aa(lp737
I202380
aVHamady Ndiaye
p738
aI1610612758
aVSAC
p739
aF27.0
aI14
aI5
aI9
aF0.357
aF5.3
aF0.2
aF0.6
aF0.333
aF0.0
aF0.0
aF0.0
aF0.0
aF0.1
aF0.0
aF0.4
aF0.9
aF1.3
aF0.2
aF0.2
aF0.0
aF0.3
aF0.1
aF1.1
aF0.4
aF0.4
aF-1.9
aI0
aI0
aI5
aV202380,1610612758
p740
aa(lp741
I203084
aVHarrison Barnes
p742
aI1610612744
aVGSW
p743
aF22.0
aI78
aI48
aI30
aF0.615
aF28.3
aF3.5
aF8.7
aF0.399
aF0.8
aF2.4
aF0.347
aF1.7
aF2.3
aF0.718
aF0.8
aF3.1
aF4.0
aF1.5
aF1.1
aF0.8
aF0.3
aF0.5
aF2.0
aF2.0
aF9.5
aF-0.6
aI1
aI0
aI5
aV203084,1610612744
p744
aa(lp745
I201934
aVHasheem Thabeet
p746
aI1610612760
aVOKC
p747
aF27.0
aI23
aI18
aI5
aF0.783
aF8.4
aF0.6
aF1.0
aF0.565
aF0.0
aF0.0
aF0.0
aF0.0
aF0.2
aF0.2
aF0.4
aF1.3
aF1.7
aF0.0
aF0.6
aF0.2
aF0.4
aF0.0
aF2.0
aF0.3
aF1.2
aF-0.1
aI0
aI0
aI5
aV201934,1610612760
p748
aa(lp749
I2045
aVHedo Turkoglu
p750
aI1610612746
aVLAC
p751
aF35.0
aI38
aI27
aI11
aF0.711
aF10.3
aF1.1
aF2.9
aF0.385
aF0.6
aF1.3
aF0.44
aF0.2
aF0.5
aF0.5
aF0.3
aF2.1
aF2.3
aF0.9
aF0.4
aF0.5
aF0.3
aF0.2
aF1.3
aF0.4
aF3.0
aF0.2
aI0
aI0
aI5
aV2045,1610612746
p752
aa(lp753
I203156
aVHenry Sims
p754
aI1610612755
aVPHI
p755
aF24.0
aI46
aI11
aI35
aF0.239
aF19.0
aF2.8
aF6.0
aF0.474
aF0.0
aF0.0
aF0.0
aF2.0
aF2.6
aF0.744
aF2.3
aF2.9
aF5.2
aF1.1
aF0.9
aF0.6
aF0.4
aF0.5
aF2.5
aF2.2
aF7.6
aF-3.0
aI4
aI0
aI5
aV203156,1610612755
p756
aa(lp757
I200756
aVHilton Armstrong
p758
aI1610612744
aVGSW
p759
aF29.0
aI15
aI12
aI3
aF0.8
aF6.4
aF0.6
aF1.3
aF0.474
aF0.0
aF0.0
aF0.0
aF0.5
aF1.1
aF0.438
aF1.3
aF1.9
aF3.1
aF0.3
aF0.4
aF0.3
aF0.3
aF0.1
aF0.7
aF1.0
aF1.7
aF1.1
aI1
aI0
aI5
aV200756,1610612744
p760
aa(lp761
I203138
aVHollis Thompson
p762
aI1610612755
aVPHI
p763
aF23.0
aI77
aI18
aI59
aF0.234
aF22.6
aF2.2
aF4.8
aF0.46
aF0.9
aF2.2
aF0.401
aF0.7
aF0.9
aF0.712
aF0.9
aF2.3
aF3.2
aF0.9
aF0.8
aF0.7
aF0.2
aF0.3
aF1.9
aF0.8
aF6.0
aF-4.7
aI0
aI0
aI5
aV203138,1610612755
p764
aa(lp765
I203546
aVIan Clark
p766
aI1610612762
aVUTA
p767
aF23.0
aI23
aI3
aI20
aF0.13
aF7.5
aF1.1
aF2.9
aF0.388
aF0.5
aF1.3
aF0.355
aF0.2
aF0.3
aF0.714
aF0.1
aF0.7
aF0.8
aF0.7
aF0.6
aF0.3
aF0.1
aF0.2
aF1.0
aF0.1
aF3.0
aF0.7
aI0
aI0
aI5
aV203546,1610612762
p768
aa(lp769
I101133
aVIan Mahinmi
p770
aI1610612754
aVIND
p771
aF27.0
aI77
aI51
aI26
aF0.662
aF16.2
aF1.2
aF2.5
aF0.481
aF0.0
aF0.0
aF0.0
aF1.2
aF1.9
aF0.621
aF1.4
aF1.9
aF3.3
aF0.3
aF0.8
aF0.5
aF0.9
aF0.3
aF2.7
aF1.7
aF3.5
aF0.1
aI0
aI0
aI5
aV101133,1610612754
p772
aa(lp773
I202697
aVIman Shumpert
p774
aI1610612752
aVNYK
p775
aF24.0
aI74
aI36
aI38
aF0.486
aF26.5
aF2.5
aF6.5
aF0.378
aF1.0
aF3.1
aF0.333
aF0.7
aF1.0
aF0.746
aF1.1
aF3.1
aF4.2
aF1.7
aF1.1
aF1.2
aF0.2
aF0.2
aF2.8
aF1.3
aF6.7
aF2.1
aI0
aI0
aI5
aV202697,1610612752
p776
aa(lp777
I203477
aVIsaiah Canaan
p778
aI1610612745
aVHOU
p779
aF23.0
aI22
aI14
aI8
aF0.636
aF11.5
aF1.4
aF4.0
aF0.356
aF0.8
aF2.5
aF0.327
aF1.0
aF1.3
aF0.724
aF0.3
aF0.8
aF1.1
aF1.0
aF1.0
aF0.4
aF0.2
aF0.3
aF1.1
aF0.9
aF4.6
aF-1.8
aI0
aI0
aI5
aV203477,1610612745
p780
aa(lp781
I202738
aVIsaiah Thomas
p782
aI1610612758
aVSAC
p783
aF25.0
aI72
aI26
aI46
aF0.361
aF34.7
aF6.9
aF15.2
aF0.453
aF1.8
aF5.1
aF0.349
aF4.8
aF5.7
aF0.85
aF0.7
aF2.3
aF2.9
aF6.3
aF3.0
aF1.3
aF0.1
aF0.8
aF2.6
aF4.8
aF20.3
aF0.4
aI7
aI1
aI5
aV202738,1610612758
p784
aa(lp785
I202397
aVIsh Smith
p786
aI1610612756
aVPHX
p787
aF25.0
aI70
aI39
aI31
aF0.557
aF14.4
aF1.7
aF4.0
aF0.423
aF0.0
aF0.3
aF0.043
aF0.3
aF0.6
aF0.564
aF0.4
aF1.4
aF1.8
aF2.6
aF0.9
aF0.7
aF0.2
aF0.3
aF0.9
aF0.8
aF3.7
aF-0.2
aI0
aI0
aI5
aV202397,1610612756
p788
aa(lp789
I2747
aVJ.R. Smith
p790
aI1610612752
aVNYK
p791
aF28.0
aI74
aI34
aI40
aF0.459
aF32.7
aF5.4
aF12.9
aF0.415
aF2.6
aF6.5
aF0.394
aF1.2
aF1.9
aF0.652
aF0.5
aF3.5
aF4.0
aF3.0
aF1.5
aF0.9
aF0.3
aF0.2
aF2.6
aF2.1
aF14.5
aF0.0
aI1
aI0
aI5
aV2747,1610612752
p792
aa(lp793
I201581
aVJJ Hickson
p794
aI1610612743
aVDEN
p795
aF25.0
aI69
aI31
aI38
aF0.449
aF26.9
aF4.8
aF9.5
aF0.508
aF0.0
aF0.1
aF0.0
aF2.2
aF4.2
aF0.517
aF3.0
aF6.2
aF9.2
aF1.4
aF1.9
aF0.7
aF0.7
aF0.9
aF2.6
aF3.2
aF11.8
aF-2.7
aI26
aI0
aI5
aV201581,1610612743
p796
aa(lp797
I200755
aVJJ Redick
p798
aI1610612746
aVLAC
p799
aF30.0
aI35
aI24
aI11
aF0.686
aF28.2
aF5.2
aF11.4
aF0.455
aF2.1
aF5.3
aF0.395
aF2.8
aF3.0
aF0.915
aF0.3
aF1.9
aF2.1
aF2.2
aF1.2
aF0.8
aF0.1
aF0.2
aF1.9
aF2.2
aF15.2
aF6.1
aI0
aI0
aI5
aV200755,1610612746
p800
aa(lp801
I201580
aVJaVale McGee
p802
aI1610612743
aVDEN
p803
aF26.0
aI5
aI1
aI4
aF0.2
aF15.9
aF3.4
aF7.6
aF0.447
aF0.0
aF0.0
aF0.0
aF0.2
aF0.2
aF1.0
aF2.0
aF1.4
aF3.4
aF0.4
aF1.6
aF0.2
aF1.4
aF0.6
aF3.2
aF1.0
aF7.0
aF-1.0
aI0
aI0
aI5
aV201580,1610612743
p804
aa(lp805
I203109
aVJae Crowder
p806
aI1610612742
aVDAL
p807
aF23.0
aI78
aI47
aI31
aF0.603
aF16.1
aF1.7
aF3.8
aF0.439
aF0.6
aF1.9
aF0.331
aF0.6
aF0.8
aF0.754
aF0.6
aF1.9
aF2.5
aF0.8
aF0.5
aF0.8
aF0.3
aF0.2
aF1.3
aF0.8
aF4.6
aF3.1
aI0
aI0
aI5
aV203109,1610612742
p808
aa(lp809
I203479
aVJamaal Franklin
p810
aI1610612763
aVMEM
p811
aF22.0
aI21
aI11
aI10
aF0.524
aF7.7
aF0.8
aF1.9
aF0.41
aF0.2
aF0.5
aF0.455
aF0.1
aF0.1
aF1.0
aF0.2
aF0.9
aF1.1
aF0.3
aF0.5
aF0.2
aF0.1
aF0.1
aF1.1
aF0.4
aF1.9
aF0.6
aI0
aI0
aI5
aV203479,1610612763
p812
aa(lp813
I2224
aVJamaal Tinsley
p814
aI1610612762
aVUTA
p815
aF36.0
aI8
aI0
aI8
aF0.0
aF13.8
aF0.5
aF2.5
aF0.2
aF0.1
aF1.9
aF0.067
aF0.0
aF0.0
aF0.0
aF0.3
aF1.1
aF1.4
aF2.9
aF1.1
aF0.3
aF0.0
aF0.3
aF1.3
aF0.3
aF1.1
aF-5.9
aI0
aI0
aI5
aV2224,1610612762
p816
aa(lp817
I2037
aVJamal Crawford
p818
aI1610612746
aVLAC
p819
aF34.0
aI69
aI47
aI22
aF0.681
aF30.4
aF6.1
aF14.7
aF0.416
aF2.3
aF6.5
aF0.361
aF4.0
aF4.7
aF0.866
aF0.5
aF1.8
aF2.3
aF3.2
aF2.0
aF0.9
aF0.2
aF0.2
aF1.7
aF2.9
aF18.6
aF3.9
aI2
aI0
aI5
aV2037,1610612746
p820
aa(lp821
I2749
aVJameer Nelson
p822
aI1610612753
aVORL
p823
aF32.0
aI68
aI21
aI47
aF0.309
aF32.0
aF4.3
aF11.0
aF0.394
aF2.0
aF5.8
aF0.348
aF1.4
aF1.6
aF0.857
aF0.4
aF3.0
aF3.4
aF7.0
aF2.4
aF0.8
aF0.1
aF0.5
aF2.1
aF2.1
aF12.1
aF-4.0
aI6
aI0
aI5
aV2749,1610612753
p824
aa(lp825
I202341
aVJames Anderson
p826
aI1610612755
aVPHI
p827
aF25.0
aI80
aI19
aI61
aF0.238
aF28.9
aF3.9
aF9.0
aF0.431
aF1.4
aF4.4
aF0.328
aF1.0
aF1.3
aF0.726
aF0.7
aF3.0
aF3.8
aF1.9
aF1.3
aF0.9
aF0.4
aF0.5
aF1.9
aF1.1
aF10.1
aF-6.8
aI0
aI0
aI5
aV202341,1610612755
p828
aa(lp829
I201935
aVJames Harden
p830
aI1610612745
aVHOU
p831
aF24.0
aI73
aI48
aI25
aF0.658
aF38.0
aF7.5
aF16.5
aF0.456
aF2.4
aF6.6
aF0.366
aF7.9
aF9.1
aF0.866
aF0.8
aF3.9
aF4.7
aF6.1
aF3.6
aF1.6
aF0.4
aF0.8
aF2.4
aF5.8
aF25.4
aF5.6
aI14
aI1
aI5
aV201935,1610612745
p832
aa(lp833
I201949
aVJames Johnson
p834
aI1610612763
aVMEM
p835
aF27.0
aI52
aI33
aI19
aF0.635
aF18.4
aF2.8
aF5.9
aF0.464
aF0.4
aF1.7
aF0.253
aF1.5
aF1.7
aF0.844
aF1.2
aF2.0
aF3.2
aF2.1
aF1.3
aF0.8
aF1.1
aF0.4
aF2.0
aF1.3
aF7.4
aF1.8
aI1
aI0
aI5
aV201949,1610612763
p836
aa(lp837
I2592
aVJames Jones
p838
aI1610612748
aVMIA
p839
aF33.0
aI20
aI15
aI5
aF0.75
aF11.8
aF1.6
aF3.4
aF0.456
aF1.4
aF2.7
aF0.519
aF0.4
aF0.6
aF0.636
aF0.1
aF1.1
aF1.2
aF0.5
aF0.2
aF0.2
aF0.2
aF0.1
aF0.3
aF0.6
aF4.9
aF3.9
aI0
aI0
aI5
aV2592,1610612748
p840
aa(lp841
I203263
aVJames Nunnally
p842
aI1610612755
aVPHI
p843
aF23.0
aI13
aI3
aI10
aF0.231
aF12.7
aF1.2
aF3.5
aF0.326
aF0.6
aF1.9
aF0.32
aF0.5
aF0.7
aF0.667
aF0.1
aF1.4
aF1.5
aF0.6
aF0.5
aF0.5
aF0.2
aF0.0
aF0.8
aF0.6
aF3.4
aF-2.9
aI0
aI0
aI5
aV203263,1610612755
p844
aa(lp845
I203480
aVJames Southerland
p846
aI1610612740
aVNOP
p847
aF24.0
aI4
aI2
aI2
aF0.5
aF7.5
aF1.3
aF3.8
aF0.333
aF0.8
aF1.5
aF0.5
aF0.3
aF0.5
aF0.5
aF0.0
aF2.0
aF2.0
aF0.0
aF0.3
aF0.3
aF0.5
aF0.0
aF0.8
aF0.3
aF3.5
aF1.8
aI0
aI0
aI5
aV203480,1610612740
p848
aa(lp849
I202686
aVJan Vesely
p850
aI1610612743
aVDEN
p851
aF24.0
aI54
aI22
aI32
aF0.407
aF14.4
aF1.6
aF3.2
aF0.514
aF0.0
aF0.0
aF0.0
aF0.4
aF1.0
aF0.339
aF1.5
aF2.0
aF3.5
aF0.4
aF0.7
aF1.0
aF0.6
aF0.3
aF2.2
aF1.1
aF3.6
aF-2.1
aI0
aI0
aI5
aV202686,1610612743
p852
aa(lp853
I2457
aVJannero Pargo
p854
aI1610612766
aVCHA
p855
aF34.0
aI29
aI15
aI14
aF0.517
aF8.3
aF1.8
aF4.1
aF0.441
aF0.8
aF2.1
aF0.4
aF0.3
aF0.4
aF0.727
aF0.0
aF0.7
aF0.7
aF1.8
aF0.9
aF0.5
aF0.0
aF0.1
aF0.6
aF0.4
aF4.7
aF-1.8
aI0
aI0
aI5
aV2457,1610612766
p856
aa(lp857
I203099
aVJared Cunningham
p858
aI1610612758
aVSAC
p859
aF23.0
aI13
aI5
aI8
aF0.385
aF6.2
aF0.5
aF1.6
aF0.286
aF0.1
aF0.5
aF0.143
aF1.0
aF1.2
aF0.813
aF0.1
aF0.4
aF0.5
aF0.6
aF0.2
aF0.2
aF0.0
aF0.2
aF1.2
aF1.1
aF2.0
aF-0.2
aI0
aI0
aI5
aV203099,1610612758
p860
aa(lp861
I201162
aVJared Dudley
p862
aI1610612746
aVLAC
p863
aF28.0
aI74
aI51
aI23
aF0.689
aF23.4
aF2.6
aF6.0
aF0.438
aF1.1
aF3.0
aF0.36
aF0.5
aF0.8
aF0.655
aF0.5
aF1.7
aF2.2
aF1.4
aF0.8
aF0.6
aF0.1
aF0.2
aF2.0
aF0.8
aF6.9
aF2.9
aI0
aI0
aI5
aV201162,1610612746
p864
aa(lp865
I203096
aVJared Sullinger
p866
aI1610612738
aVBOS
p867
aF22.0
aI74
aI23
aI51
aF0.311
aF27.6
aF5.2
aF12.1
aF0.427
aF0.8
aF2.8
aF0.269
aF2.1
aF2.7
aF0.778
aF3.3
aF4.9
aF8.1
aF1.6
aF1.6
aF0.5
aF0.7
aF0.7
aF3.4
aF2.8
aF13.3
aF-0.2
aI22
aI0
aI5
aV203096,1610612738
p868
aa(lp869
I101127
aVJarrett Jack
p870
aI1610612739
aVCLE
p871
aF30.0
aI80
aI32
aI48
aF0.4
aF28.2
aF3.6
aF8.7
aF0.41
aF0.8
aF2.3
aF0.341
aF1.6
aF1.9
aF0.839
aF0.3
aF2.5
aF2.8
aF4.1
aF1.7
aF0.7
aF0.3
aF0.4
aF1.7
aF2.0
aF9.5
aF-3.0
aI1
aI0
aI5
aV101127,1610612739
p872
aa(lp873
I202363
aVJarvis Varnado
p874
aI1610612755
aVPHI
p875
aF26.0
aI24
aI5
aI19
aF0.208
aF14.1
aF1.5
aF2.5
aF0.6
aF0.0
aF0.0
aF0.0
aF1.1
aF2.2
aF0.519
aF0.8
aF1.8
aF2.6
aF0.5
aF0.4
aF0.4
aF1.2
aF0.1
aF2.6
aF1.6
aF4.1
aF-3.9
aI0
aI0
aI5
aV202363,1610612755
p876
aa(lp877
I2215
aVJason Collins
p878
aI1610612751
aVBKN
p879
aF35.0
aI22
aI16
aI6
aF0.727
aF7.8
aF0.5
aF1.1
aF0.458
aF0.0
aF0.1
aF0.0
aF0.1
aF0.2
aF0.75
aF0.3
aF0.5
aF0.9
aF0.2
aF0.3
aF0.4
aF0.0
aF0.1
aF1.4
aF0.3
aF1.1
aF-1.4
aI0
aI0
aI5
aV2215,1610612751
p880
aa(lp881
I101131
aVJason Maxiell
p882
aI1610612753
aVORL
p883
aF31.0
aI34
aI7
aI27
aF0.206
aF14.4
aF1.4
aF3.1
aF0.448
aF0.0
aF0.0
aF0.0
aF0.4
aF0.9
aF0.484
aF0.8
aF1.7
aF2.5
aF0.3
aF0.4
aF0.2
aF0.6
aF0.2
aF1.4
aF1.1
aF3.2
aF-2.6
aI0
aI0
aI5
aV101131,1610612753
p884
aa(lp885
I201160
aVJason Smith
p886
aI1610612740
aVNOP
p887
aF28.0
aI31
aI11
aI20
aF0.355
aF26.8
aF4.2
aF9.1
aF0.465
aF0.0
aF0.0
aF0.0
aF1.3
aF1.6
aF0.78
aF1.6
aF4.2
aF5.8
aF0.9
aF0.9
aF0.4
aF0.9
aF0.7
aF3.2
aF1.8
aF9.7
aF-2.1
aI2
aI0
aI5
aV201160,1610612740
p888
aa(lp889
I1891
aVJason Terry
p890
aI1610612751
aVBKN
p891
aF36.0
aI35
aI17
aI18
aF0.486
aF16.3
aF1.6
aF4.3
aF0.362
aF1.1
aF2.9
aF0.379
aF0.3
aF0.4
aF0.667
aF0.1
aF0.9
aF1.1
aF1.6
aF0.8
aF0.4
aF0.0
aF0.2
aF1.4
aF0.7
aF4.5
aF-1.9
aI0
aI0
aI5
aV1891,1610612751
p892
aa(lp893
I201574
aVJason Thompson
p894
aI1610612758
aVSAC
p895
aF27.0
aI82
aI28
aI54
aF0.341
aF24.5
aF3.1
aF6.0
aF0.506
aF0.0
aF0.0
aF0.0
aF1.0
aF1.8
aF0.579
aF1.9
aF4.6
aF6.4
aF0.6
aF1.2
aF0.4
aF0.7
aF0.4
aF3.1
aF1.8
aF7.1
aF-0.1
aI8
aI0
aI5
aV201574,1610612758
p896
aa(lp897
I202399
aVJeff Adrien
p898
aI1610612749
aVMIL
p899
aF28.0
aI53
aI17
aI36
aF0.321
aF18.1
aF2.7
aF5.2
aF0.52
aF0.0
aF0.0
aF0.0
aF1.4
aF2.2
aF0.639
aF1.9
aF3.8
aF5.8
aF0.7
aF0.7
aF0.5
aF0.7
aF0.5
aF2.0
aF1.9
aF6.8
aF-1.4
aI4
aI0
aI5
aV202399,1610612749
p900
aa(lp901
I201965
aVJeff Ayres
p902
aI1610612759
aVSAS
p903
aF27.0
aI73
aI55
aI18
aF0.753
aF13.0
aF1.4
aF2.4
aF0.58
aF0.0
aF0.0
aF0.0
aF0.5
aF0.8
aF0.691
aF1.2
aF2.3
aF3.5
aF0.8
aF0.9
aF0.2
aF0.3
aF0.2
aF2.0
aF0.9
aF3.3
aF1.6
aI0
aI0
aI5
aV201965,1610612759
p904
aa(lp905
I201145
aVJeff Green
p906
aI1610612738
aVBOS
p907
aF27.0
aI82
aI25
aI57
aF0.305
aF34.2
aF5.9
aF14.3
aF0.412
aF1.6
aF4.8
aF0.341
aF3.5
aF4.3
aF0.795
aF0.7
aF4.0
aF4.6
aF1.7
aF2.0
aF0.7
aF0.6
aF0.6
aF2.2
aF3.4
aF16.9
aF-4.3
aI2
aI0
aI5
aV201145,1610612738
p908
aa(lp909
I203106
aVJeff Taylor
p910
aI1610612766
aVCHA
p911
aF25.0
aI26
aI12
aI14
aF0.462
aF24.2
aF3.2
aF8.4
aF0.376
aF0.7
aF2.6
aF0.269
aF1.0
aF1.8
aF0.553
aF0.6
aF1.7
aF2.3
aF0.8
aF1.0
aF0.5
aF0.2
aF0.7
aF2.4
aF1.6
aF8.0
aF-2.9
aI0
aI0
aI5
aV203106,1610612766
p912
aa(lp913
I201952
aVJeff Teague
p914
aI1610612737
aVATL
p915
aF26.0
aI79
aI37
aI42
aF0.468
aF32.2
aF5.8
aF13.2
aF0.438
aF0.9
aF2.8
aF0.329
aF4.0
aF4.8
aF0.846
aF0.4
aF2.2
aF2.6
aF6.7
aF2.9
aF1.1
aF0.2
aF0.9
aF2.0
aF4.1
aF16.5
aF1.5
aI13
aI0
aI5
aV201952,1610612737
p916
aa(lp917
I203481
aVJeff Withey
p918
aI1610612740
aVNOP
p919
aF24.0
aI58
aI21
aI37
aF0.362
aF11.8
aF1.2
aF2.2
aF0.535
aF0.0
aF0.0
aF0.0
aF0.9
aF1.3
aF0.712
aF0.8
aF1.7
aF2.6
aF0.4
aF0.3
aF0.3
aF0.9
aF0.3
aF1.3
aF0.9
aF3.3
aF0.5
aI0
aI0
aI5
aV203481,1610612740
p920
aa(lp921
I202379
aVJeremy Evans
p922
aI1610612762
aVUTA
p923
aF26.0
aI66
aI23
aI43
aF0.348
aF18.3
aF2.7
aF5.0
aF0.527
aF0.0
aF0.0
aF0.0
aF0.8
aF1.1
aF0.68
aF1.8
aF2.9
aF4.7
aF0.7
aF0.6
aF0.6
aF0.7
aF0.3
aF2.1
aF1.2
aF6.1
aF-2.7
aI3
aI0
aI5
aV202379,1610612762
p924
aa(lp925
I203087
aVJeremy Lamb
p926
aI1610612760
aVOKC
p927
aF22.0
aI78
aI57
aI21
aF0.731
aF19.7
aF3.4
aF7.8
aF0.432
aF1.1
aF3.2
aF0.356
aF0.7
aF0.8
aF0.797
aF0.3
aF2.1
aF2.4
aF1.5
aF0.8
aF0.7
aF0.3
aF0.2
aF1.8
aF0.9
aF8.5
aF2.8
aI0
aI0
aI5
aV203087,1610612760
p928
aa(lp929
I202391
aVJeremy Lin
p930
aI1610612745
aVHOU
p931
aF25.0
aI71
aI48
aI23
aF0.676
aF28.9
aF4.2
aF9.3
aF0.446
aF1.2
aF3.2
aF0.358
aF3.1
aF3.7
aF0.823
aF0.5
aF2.2
aF2.6
aF4.1
aF2.5
aF1.0
aF0.4
aF0.6
aF2.3
aF3.2
aF12.5
aF2.4
aI3
aI1
aI5
aV202391,1610612745
p932
aa(lp933
I202719
aVJeremy Tyler
p934
aI1610612752
aVNYK
p935
aF23.0
aI41
aI20
aI21
aF0.488
aF9.7
aF1.5
aF2.8
aF0.517
aF0.0
aF0.0
aF0.0
aF0.6
aF1.2
aF0.542
aF0.9
aF1.7
aF2.7
aF0.2
aF0.6
aF0.1
aF0.5
aF0.1
aF1.7
aF1.0
aF3.6
aF-1.3
aI1
aI0
aI5
aV202719,1610612752
p936
aa(lp937
I979
aVJermaine O'Neal
p938
aI1610612744
aVGSW
p939
aF35.0
aI44
aI27
aI17
aF0.614
aF20.1
aF2.8
aF5.6
aF0.504
aF0.0
aF0.0
aF0.0
aF2.3
aF3.0
aF0.75
aF1.9
aF3.6
aF5.5
aF0.6
aF1.2
aF0.3
aF0.9
aF0.5
aF2.3
aF2.8
aF7.9
aF0.5
aI2
aI0
aI5
aV979,1610612744
p940
aa(lp941
I201573
aVJerryd Bayless
p942
aI1610612738
aVBOS
p943
aF25.0
aI72
aI24
aI48
aF0.333
aF23.4
aF3.4
aF8.6
aF0.402
aF1.1
aF2.9
aF0.358
aF1.3
aF1.6
aF0.797
aF0.3
aF1.7
aF2.0
aF2.7
aF1.1
aF0.8
aF0.1
aF0.3
aF2.2
aF1.5
aF9.3
aF-1.6
aI0
aI0
aI5
aV201573,1610612738
p944
aa(lp945
I202690
aVJimmer Fredette
p946
aI1610612741
aVCHI
p947
aF25.0
aI49
aI20
aI29
aF0.408
aF10.6
aF2.2
aF4.6
aF0.471
aF0.8
aF1.7
aF0.476
aF0.4
aF0.4
aF0.905
aF0.2
aF0.9
aF1.1
aF1.3
aF1.0
aF0.3
aF0.1
aF0.2
aF0.7
aF0.5
aF5.6
aF-0.4
aI0
aI0
aI5
aV202690,1610612741
p948
aa(lp949
I202710
aVJimmy Butler
p950
aI1610612741
aVCHI
p951
aF24.0
aI67
aI43
aI24
aF0.642
aF38.7
aF4.1
aF10.3
aF0.397
aF1.0
aF3.6
aF0.283
aF3.9
aF5.0
aF0.769
aF1.3
aF3.6
aF4.9
aF2.6
aF1.5
aF1.9
aF0.5
aF0.7
aF1.6
aF4.1
aF13.1
aF2.8
aI5
aI0
aI5
aV202710,1610612741
p952
aa(lp953
I201149
aVJoakim Noah
p954
aI1610612741
aVCHI
p955
aF29.0
aI80
aI48
aI32
aF0.6
aF35.2
aF4.8
aF10.0
aF0.475
aF0.0
aF0.0
aF0.0
aF3.1
aF4.2
aF0.737
aF3.5
aF7.7
aF11.3
aF5.4
aF2.4
aF1.2
aF1.5
aF0.9
aF3.1
aF3.6
aF12.6
aF2.9
aI47
aI4
aI5
aV201149,1610612741
p956
aa(lp957
I201975
aVJodie Meeks
p958
aI1610612747
aVLAL
p959
aF26.0
aI77
aI25
aI52
aF0.325
aF33.2
aF5.4
aF11.6
aF0.463
aF2.1
aF5.2
aF0.401
aF2.9
aF3.4
aF0.857
aF0.4
aF2.1
aF2.5
aF1.8
aF1.4
aF1.4
aF0.1
aF0.7
aF1.5
aF2.4
aF15.7
aF-6.6
aI0
aI0
aI5
aV201975,1610612747
p960
aa(lp961
I2207
aVJoe Johnson
p962
aI1610612751
aVBKN
p963
aF33.0
aI79
aI43
aI36
aF0.544
aF32.6
aF5.8
aF12.9
aF0.454
aF2.1
aF5.1
aF0.401
aF2.0
aF2.5
aF0.815
aF0.6
aF2.8
aF3.4
aF2.7
aF1.5
aF0.6
aF0.1
aF0.2
aF1.6
aF2.0
aF15.8
aF0.7
aI0
aI0
aI5
aV2207,1610612751
p964
aa(lp965
I201202
aVJoel Anthony
p966
aI1610612738
aVBOS
p967
aF31.0
aI33
aI16
aI17
aF0.485
aF5.6
aF0.4
aF1.0
aF0.375
aF0.0
aF0.0
aF0.0
aF0.1
aF0.2
aF0.5
aF0.5
aF0.7
aF1.2
aF0.1
aF0.1
aF0.1
aF0.4
aF0.1
aF0.5
aF0.2
aF0.8
aF-1.0
aI0
aI0
aI5
aV201202,1610612738
p968
aa(lp969
I200777
aVJoel Freeland
p970
aI1610612757
aVPOR
p971
aF27.0
aI52
aI37
aI15
aF0.712
aF14.0
aF1.5
aF3.1
aF0.475
aF0.0
aF0.0
aF0.0
aF0.4
aF0.6
aF0.69
aF1.7
aF2.3
aF4.0
aF0.7
aF0.6
aF0.2
aF0.4
aF0.2
aF1.8
aF0.8
aF3.3
aF0.5
aI0
aI0
aI5
aV200777,1610612757
p972
aa(lp973
I203089
aVJohn Henson
p974
aI1610612749
aVMIL
p975
aF23.0
aI70
aI12
aI58
aF0.171
aF26.5
aF4.9
aF9.1
aF0.538
aF0.0
aF0.0
aF0.0
aF1.3
aF2.5
aF0.514
aF2.4
aF4.7
aF7.1
aF1.6
aF1.6
aF0.6
aF1.7
aF0.5
aF2.6
aF2.2
aF11.1
aF-6.1
aI11
aI0
aI5
aV203089,1610612749
p976
aa(lp977
I203098
aVJohn Jenkins
p978
aI1610612737
aVATL
p979
aF23.0
aI13
aI6
aI7
aF0.462
aF12.1
aF1.2
aF3.2
aF0.381
aF0.3
aF1.4
aF0.222
aF0.3
aF0.3
aF1.0
aF0.2
aF1.5
aF1.7
aF0.8
aF0.8
aF0.1
aF0.1
aF0.3
aF0.8
aF0.4
aF3.1
aF-2.0
aI0
aI0
aI5
aV203098,1610612737
p980
aa(lp981
I101249
aVJohn Lucas III
p982
aI1610612762
aVUTA
p983
aF31.0
aI42
aI10
aI32
aF0.238
aF14.1
aF1.5
aF4.5
aF0.326
aF0.6
aF2.0
aF0.298
aF0.2
aF0.4
aF0.625
aF0.3
aF0.6
aF0.9
aF1.0
aF0.5
aF0.3
aF0.0
aF0.1
aF1.0
aF0.7
aF3.8
aF-4.0
aI0
aI0
aI5
aV101249,1610612762
p984
aa(lp985
I2422
aVJohn Salmons
p986
aI1610612761
aVTOR
p987
aF34.0
aI78
aI46
aI32
aF0.59
aF22.1
aF1.9
aF5.3
aF0.363
aF0.8
aF2.1
aF0.387
aF0.5
aF0.7
aF0.769
aF0.3
aF1.8
aF2.1
aF1.9
aF0.7
aF0.6
aF0.2
aF0.3
aF1.6
aF0.7
aF5.2
aF-0.1
aI0
aI0
aI5
aV2422,1610612761
p988
aa(lp989
I202322
aVJohn Wall
p990
aI1610612764
aVWAS
p991
aF23.0
aI82
aI44
aI38
aF0.537
aF36.3
aF7.1
aF16.3
aF0.433
aF1.3
aF3.8
aF0.351
aF3.9
aF4.8
aF0.805
aF0.5
aF3.6
aF4.1
aF8.8
aF3.6
aF1.8
aF0.5
aF0.6
aF2.7
aF4.0
aF19.3
aF2.4
aI29
aI2
aI5
aV202322,1610612764
p992
aa(lp993
I202720
aVJon Leuer
p994
aI1610612763
aVMEM
p995
aF25.0
aI49
aI24
aI25
aF0.49
aF13.1
aF2.5
aF5.0
aF0.492
aF0.5
aF1.0
aF0.469
aF0.8
aF1.0
aF0.787
aF0.8
aF2.5
aF3.2
aF0.4
aF0.6
aF0.4
aF0.3
aF0.4
aF1.3
aF0.8
aF6.2
aF-0.3
aI1
aI0
aI5
aV202720,1610612763
p996
aa(lp997
I201973
aVJonas Jerebko
p998
aI1610612765
aVDET
p999
aF27.0
aI64
aI23
aI41
aF0.359
aF11.6
aF1.5
aF3.3
aF0.471
aF0.5
aF1.2
aF0.419
aF0.7
aF0.9
aF0.729
aF0.8
aF1.9
aF2.7
aF0.6
aF0.7
aF0.3
aF0.1
aF0.1
aF1.3
aF0.7
aF4.2
aF-1.4
aI0
aI0
aI5
aV201973,1610612765
p1000
aa(lp1001
I202685
aVJonas Valanciunas
p1002
aI1610612761
aVTOR
p1003
aF22.0
aI81
aI47
aI34
aF0.58
aF28.2
aF4.4
aF8.3
aF0.531
aF0.0
aF0.0
aF0.0
aF2.4
aF3.2
aF0.762
aF2.8
aF6.0
aF8.8
aF0.7
aF1.7
aF0.3
aF0.9
aF0.8
aF3.1
aF3.0
aF11.3
aF1.3
aI25
aI0
aI5
aV202685,1610612761
p1004
aa(lp1005
I202348
aVJordan Crawford
p1006
aI1610612744
aVGSW
p1007
aF25.0
aI81
aI39
aI42
aF0.481
aF23.0
aF4.0
aF9.7
aF0.415
aF1.1
aF3.5
aF0.316
aF1.8
aF2.1
aF0.864
aF0.3
aF1.9
aF2.3
aF3.5
aF1.7
aF0.6
aF0.1
aF0.3
aF1.5
aF1.5
aF11.0
aF-2.3
aI3
aI1
aI5
aV202348,1610612744
p1008
aa(lp1009
I200770
aVJordan Farmar
p1010
aI1610612747
aVLAL
p1011
aF27.0
aI41
aI16
aI25
aF0.39
aF22.3
aF3.7
aF8.9
aF0.415
aF1.7
aF3.9
aF0.438
aF1.1
aF1.4
aF0.746
aF0.5
aF2.0
aF2.5
aF4.9
aF2.3
aF0.9
aF0.2
aF0.4
aF1.6
aF1.5
aF10.1
aF-2.2
aI0
aI0
aI5
aV200770,1610612747
p1012
aa(lp1013
I202706
aVJordan Hamilton
p1014
aI1610612745
aVHOU
p1015
aF23.0
aI60
aI31
aI29
aF0.517
aF17.0
aF2.5
aF6.3
aF0.391
aF1.2
aF3.3
aF0.354
aF0.7
aF0.9
aF0.784
aF0.5
aF2.7
aF3.2
aF0.9
aF0.8
aF0.7
aF0.3
aF0.2
aF1.1
aF0.8
aF6.7
aF-1.7
aI0
aI0
aI5
aV202706,1610612745
p1016
aa(lp1017
I201941
aVJordan Hill
p1018
aI1610612747
aVLAL
p1019
aF26.0
aI72
aI24
aI48
aF0.333
aF20.8
aF4.0
aF7.2
aF0.549
aF0.0
aF0.0
aF0.0
aF1.7
aF2.5
aF0.685
aF2.7
aF4.7
aF7.4
aF0.8
aF1.0
aF0.4
aF0.9
aF0.4
aF2.4
aF2.3
aF9.7
aF-4.2
aI15
aI0
aI5
aV201941,1610612747
p1020
aa(lp1021
I203268
aVJorge Gutierrez
p1022
aI1610612751
aVBKN
p1023
aF25.0
aI15
aI8
aI7
aF0.533
aF16.3
aF1.7
aF3.6
aF0.463
aF0.2
aF0.8
aF0.25
aF0.6
aF0.8
aF0.75
aF0.2
aF1.3
aF1.5
aF2.0
aF0.9
aF0.7
aF0.1
aF0.3
aF2.5
aF1.1
aF4.1
aF-2.5
aI0
aI0
aI5
aV203268,1610612751
p1024
aa(lp1025
I101181
aVJose Calderon
p1026
aI1610612742
aVDAL
p1027
aF32.0
aI81
aI49
aI32
aF0.605
aF30.5
aF4.2
aF9.2
aF0.456
aF2.4
aF5.2
aF0.449
aF0.6
aF0.8
aF0.825
aF0.4
aF2.0
aF2.4
aF4.7
aF1.3
aF0.9
aF0.1
aF0.2
aF1.7
aF1.2
aF11.4
aF0.0
aI1
aI0
aI5
aV101181,1610612742
p1028
aa(lp1029
I200826
aVJose Juan Barea
p1030
aI1610612750
aVMIN
p1031
aF30.0
aI79
aI40
aI39
aF0.506
aF18.6
aF3.2
aF8.3
aF0.387
aF0.9
aF2.9
aF0.316
aF1.0
aF1.3
aF0.79
aF0.2
aF1.7
aF1.9
aF3.8
aF1.6
aF0.3
aF0.0
aF0.5
aF1.6
aF1.6
aF8.4
aF-1.2
aI1
aI0
aI5
aV200826,1610612750
p1032
aa(lp1033
I2735
aVJosh Childress
p1034
aI1610612740
aVNOP
p1035
aF31.0
aI4
aI2
aI2
aF0.5
aF6.0
aF0.0
aF0.0
aF0.0
aF0.0
aF0.0
aF0.0
aF0.0
aF0.0
aF0.0
aF0.0
aF0.8
aF0.8
aF0.5
aF0.3
aF0.3
aF0.0
aF0.0
aF0.3
aF0.0
aF0.0
aF2.8
aI0
aI0
aI5
aV2735,1610612740
p1036
aa(lp1037
I202725
aVJosh Harrellson
p1038
aI1610612765
aVDET
p1039
aF25.0
aI32
aI12
aI20
aF0.375
aF9.9
aF1.2
aF2.6
aF0.463
aF0.4
aF1.0
aF0.387
aF0.2
aF0.2
aF0.714
aF0.9
aF1.4
aF2.4
aF0.5
aF0.3
aF0.2
aF0.5
aF0.1
aF1.4
aF0.3
aF2.9
aF0.2
aI0
aI0
aI5
aV202725,1610612765
p1040
aa(lp1041
I201177
aVJosh McRoberts
p1042
aI1610612766
aVCHA
p1043
aF27.0
aI78
aI39
aI39
aF0.5
aF30.3
aF3.2
aF7.3
aF0.436
aF1.3
aF3.7
aF0.361
aF0.8
aF1.1
aF0.729
aF1.1
aF3.7
aF4.8
aF4.3
aF1.1
aF0.7
aF0.6
aF0.3
aF2.4
aF1.2
aF8.5
aF0.5
aI2
aI0
aI5
aV201177,1610612766
p1044
aa(lp1045
I2694
aVJosh Powell
p1046
aI1610612745
aVHOU
p1047
aF31.0
aI1
aI0
aI1
aF0.0
aF19.4
aF2.0
aF6.0
aF0.333
aF0.0
aF0.0
aF0.0
aF0.0
aF0.0
aF0.0
aF0.0
aF5.0
aF5.0
aF0.0
aF1.0
aF0.0
aF1.0
aF2.0
aF1.0
aF0.0
aF4.0
aF-7.0
aI0
aI0
aI5
aV2694,1610612745
p1048
aa(lp1049
I2746
aVJosh Smith
p1050
aI1610612765
aVDET
p1051
aF28.0
aI77
aI28
aI49
aF0.364
aF35.5
aF6.7
aF16.0
aF0.419
aF0.9
aF3.4
aF0.264
aF2.1
aF3.9
aF0.532
aF1.3
aF5.4
aF6.8
aF3.3
aF2.6
aF1.4
aF1.4
aF0.5
aF2.6
aF3.5
aF16.4
aF-2.5
aI12
aI0
aI5
aV2746,1610612765
p1052
aa(lp1053
I201950
aVJrue Holiday
p1054
aI1610612740
aVNOP
p1055
aF24.0
aI34
aI15
aI19
aF0.441
aF33.6
aF6.0
aF13.4
aF0.447
aF0.9
aF2.3
aF0.39
aF1.5
aF1.9
aF0.81
aF0.8
aF3.4
aF4.2
aF7.9
aF3.1
aF1.6
aF0.4
aF0.9
aF2.7
aF2.1
aF14.3
aF0.7
aI9
aI0
aI5
aV201950,1610612740
p1056
aa(lp1057
I202933
aVJulyan Stone
p1058
aI1610612761
aVTOR
p1059
aF25.0
aI21
aI9
aI12
aF0.429
aF5.7
aF0.3
aF0.8
aF0.412
aF0.1
aF0.4
aF0.25
aF0.1
aF0.1
aF0.667
aF0.1
aF0.9
aF1.0
aF0.6
aF0.2
aF0.1
aF0.0
aF0.0
aF0.6
aF0.2
aF0.9
aF-2.4
aI0
aI0
aI5
aV202933,1610612761
p1060
aa(lp1061
I203120
aVJustin Hamilton
p1062
aI1610612748
aVMIA
p1063
aF24.0
aI8
aI4
aI4
aF0.5
aF9.0
aF1.1
aF2.5
aF0.45
aF0.4
aF1.1
aF0.333
aF0.6
aF0.6
aF1.0
aF0.5
aF0.4
aF0.9
aF0.0
aF0.5
aF0.6
aF0.0
aF0.1
aF1.0
aF1.1
aF3.3
aF-2.9
aI0
aI0
aI5
aV203120,1610612748
p1064
aa(lp1065
I202695
aVKawhi Leonard
p1066
aI1610612759
aVSAS
p1067
aF23.0
aI66
aI54
aI12
aF0.818
aF29.1
aF5.1
aF9.8
aF0.522
aF1.0
aF2.8
aF0.379
aF1.5
aF1.9
aF0.802
aF1.2
aF5.1
aF6.2
aF2.0
aF1.2
aF1.7
aF0.8
aF0.5
aF1.9
aF1.8
aF12.8
aF5.7
aI7
aI0
aI5
aV202695,1610612759
p1068
aa(lp1069
I2586
aVKeith Bogans
p1070
aI1610612738
aVBOS
p1071
aF34.0
aI6
aI1
aI5
aF0.167
aF9.2
aF0.5
aF1.0
aF0.5
aF0.5
aF1.0
aF0.5
aF0.5
aF0.5
aF1.0
aF0.0
aF0.5
aF0.5
aF0.5
aF0.2
aF0.2
aF0.0
aF0.2
aF0.3
aF0.3
aF2.0
aF-0.8
aI0
aI0
aI5
aV2586,1610612738
p1072
aa(lp1073
I203482
aVKelly Olynyk
p1074
aI1610612738
aVBOS
p1075
aF23.0
aI70
aI18
aI52
aF0.257
aF20.0
aF3.3
aF7.2
aF0.466
aF0.6
aF1.6
aF0.351
aF1.4
aF1.7
aF0.811
aF2.0
aF3.2
aF5.2
aF1.6
aF1.5
aF0.5
aF0.4
aF0.5
aF3.2
aF1.8
aF8.7
aF-0.1
aI3
aI0
aI5
aV203482,1610612738
p1076
aa(lp1077
I202689
aVKemba Walker
p1078
aI1610612766
aVCHA
p1079
aF24.0
aI73
aI38
aI35
aF0.521
aF35.8
aF6.2
aF15.7
aF0.393
aF1.5
aF4.5
aF0.333
aF3.9
aF4.6
aF0.837
aF0.5
aF3.7
aF4.2
aF6.1
aF2.3
aF1.2
aF0.4
aF1.0
aF1.8
aF4.0
aF17.7
aF1.8
aI9
aI1
aI5
aV202689,1610612766
p1080
aa(lp1081
I203088
aVKendall Marshall
p1082
aI1610612747
aVLAL
p1083
aF22.0
aI54
aI14
aI40
aF0.259
aF29.0
aF3.1
aF7.8
aF0.406
aF1.3
aF3.3
aF0.399
aF0.4
aF0.7
aF0.528
aF0.3
aF2.6
aF2.9
aF8.8
aF2.8
aF0.9
aF0.1
aF0.5
aF1.4
aF0.9
aF8.0
aF-3.2
aI15
aI0
aI5
aV203088,1610612747
p1084
aa(lp1085
I2570
aVKendrick Perkins
p1086
aI1610612760
aVOKC
p1087
aF29.0
aI62
aI48
aI14
aF0.774
aF19.5
aF1.4
aF3.1
aF0.451
aF0.0
aF0.0
aF0.0
aF0.6
aF1.1
aF0.552
aF1.3
aF3.6
aF4.9
aF1.1
aF1.5
aF0.4
aF0.5
aF0.4
aF2.9
aF1.0
aF3.4
aF0.7
aI0
aI0
aI5
aV2570,1610612760
p1088
aa(lp1089
I202702
aVKenneth Faried
p1090
aI1610612743
aVDEN
p1091
aF24.0
aI80
aI36
aI44
aF0.45
aF27.2
aF5.6
aF10.3
aF0.545
aF0.0
aF0.0
aF0.0
aF2.5
aF3.9
aF0.65
aF3.0
aF5.6
aF8.6
aF1.2
aF1.7
aF0.9
aF0.9
aF0.8
aF2.4
aF3.5
aF13.7
aF-2.0
aI27
aI0
aI5
aV202702,1610612743
p1092
aa(lp1093
I203145
aVKent Bazemore
p1094
aI1610612747
aVLAL
p1095
aF24.0
aI67
aI35
aI32
aF0.522
aF13.6
aF2.2
aF5.1
aF0.429
aF0.6
aF1.9
aF0.336
aF1.0
aF1.6
aF0.606
aF0.1
aF1.6
aF1.7
aF1.4
aF1.2
aF0.6
aF0.2
aF0.2
aF1.5
aF1.4
aF6.0
aF-3.7
aI0
aI0
aI5
aV203145,1610612747
p1096
aa(lp1097
I203484
aVKentavious Caldwell-Pope
p1098
aI1610612765
aVDET
p1099
aF21.0
aI80
aI28
aI52
aF0.35
aF19.8
aF2.3
aF5.8
aF0.396
aF0.7
aF2.3
aF0.319
aF0.6
aF0.8
aF0.77
aF0.5
aF1.5
aF2.0
aF0.7
aF0.4
aF0.9
aF0.2
aF0.2
aF1.8
aF0.7
aF5.9
aF-0.8
aI0
aI0
aI5
aV203484,1610612765
p1100
aa(lp1101
I2030
aVKenyon Martin
p1102
aI1610612752
aVNYK
p1103
aF36.0
aI32
aI13
aI19
aF0.406
aF19.8
aF2.0
aF3.8
aF0.512
aF0.0
aF0.0
aF0.0
aF0.3
aF0.6
aF0.579
aF1.1
aF3.1
aF4.2
aF1.6
aF0.8
aF0.8
aF0.8
aF0.2
aF2.7
aF0.7
aF4.3
aF1.0
aI0
aI0
aI5
aV2030,1610612752
p1104
aa(lp1105
I201142
aVKevin Durant
p1106
aI1610612760
aVOKC
p1107
aF25.0
aI81
aI58
aI23
aF0.716
aF38.5
aF10.5
aF20.8
aF0.503
aF2.4
aF6.1
aF0.391
aF8.7
aF9.9
aF0.873
aF0.7
aF6.7
aF7.4
aF5.5
aF3.5
aF1.3
aF0.7
aF0.5
aF2.1
aF6.4
aF32.0
aF6.3
aI27
aI3
aI5
aV201142,1610612760
p1108
aa(lp1109
I708
aVKevin Garnett
p1110
aI1610612751
aVBKN
p1111
aF38.0
aI54
aI27
aI27
aF0.5
aF20.5
aF2.9
aF6.6
aF0.441
aF0.0
aF0.1
aF0.0
aF0.7
aF0.9
aF0.809
aF1.1
aF5.5
aF6.6
aF1.5
aF1.3
aF0.8
aF0.7
aF0.2
aF2.3
aF1.2
aF6.5
aF-0.6
aI3
aI0
aI5
aV708,1610612751
p1112
aa(lp1113
I201567
aVKevin Love
p1114
aI1610612750
aVMIN
p1115
aF25.0
aI77
aI39
aI38
aF0.506
aF36.3
aF8.4
aF18.5
aF0.457
aF2.5
aF6.6
aF0.376
aF6.8
aF8.2
aF0.821
aF2.9
aF9.6
aF12.5
aF4.4
aF2.5
aF0.8
aF0.5
aF0.8
aF1.8
aF6.4
aF26.1
aF4.6
aI65
aI3
aI5
aV201567,1610612750
p1116
aa(lp1117
I2755
aVKevin Martin
p1118
aI1610612750
aVMIN
p1119
aF31.0
aI68
aI32
aI36
aF0.471
aF32.0
aF6.5
aF15.0
aF0.43
aF1.7
aF4.4
aF0.387
aF4.5
aF5.0
aF0.891
aF0.5
aF2.5
aF3.0
aF1.8
aF1.6
aF1.0
aF0.1
aF0.8
aF1.8
aF3.3
aF19.1
aF2.6
aI1
aI0
aI5
aV2755,1610612750
p1120
aa(lp1121
I202338
aVKevin Seraphin
p1122
aI1610612764
aVWAS
p1123
aF24.0
aI53
aI25
aI28
aF0.472
aF10.9
aF2.1
aF4.2
aF0.505
aF0.0
aF0.0
aF0.0
aF0.5
aF0.6
aF0.871
aF1.0
aF1.4
aF2.4
aF0.3
aF0.8
aF0.1
aF0.5
aF0.3
aF1.9
aF0.7
aF4.7
aF-0.6
aI0
aI0
aI5
aV202338,1610612764
p1124
aa(lp1125
I203114
aVKhris Middleton
p1126
aI1610612749
aVMIL
p1127
aF22.0
aI82
aI15
aI67
aF0.183
aF30.0
aF4.6
aF10.4
aF0.44
aF1.5
aF3.5
aF0.414
aF1.4
aF1.7
aF0.861
aF0.7
aF3.0
aF3.8
aF2.1
aF1.5
aF1.0
aF0.2
aF0.4
aF3.0
aF1.5
aF12.1
aF-4.7
aI0
aI0
aI5
aV203114,1610612749
p1128
aa(lp1129
I2550
aVKirk Hinrich
p1130
aI1610612741
aVCHI
p1131
aF33.0
aI73
aI45
aI28
aF0.616
aF29.0
aF3.3
aF8.5
aF0.393
aF1.2
aF3.3
aF0.351
aF1.3
aF1.7
aF0.76
aF0.4
aF2.2
aF2.6
aF3.9
aF1.6
aF1.1
aF0.4
aF0.4
aF2.8
aF2.1
aF9.1
aF2.0
aI1
aI0
aI5
aV2550,1610612741
p1132
aa(lp1133
I202691
aVKlay Thompson
p1134
aI1610612744
aVGSW
p1135
aF24.0
aI81
aI51
aI30
aF0.63
aF35.4
aF6.9
aF15.5
aF0.444
aF2.8
aF6.6
aF0.417
aF1.8
aF2.3
aF0.795
aF0.5
aF2.6
aF3.1
aF2.2
aF1.7
aF0.9
aF0.5
aF0.6
aF2.9
aF2.1
aF18.4
aF6.6
aI1
aI0
aI5
aV202691,1610612744
p1136
aa(lp1137
I977
aVKobe Bryant
p1138
aI1610612747
aVLAL
p1139
aF35.0
aI6
aI2
aI4
aF0.333
aF29.5
aF5.2
aF12.2
aF0.425
aF0.5
aF2.7
aF0.188
aF3.0
aF3.5
aF0.857
aF0.3
aF4.0
aF4.3
aF6.3
aF5.7
aF1.2
aF0.2
aF0.8
aF1.5
aF2.7
aF13.8
aF-5.3
aI0
aI0
aI5
aV977,1610612747
p1140
aa(lp1141
I201585
aVKosta Koufos
p1142
aI1610612763
aVMEM
p1143
aF25.0
aI80
aI48
aI32
aF0.6
aF16.9
aF2.8
aF5.7
aF0.495
aF0.0
aF0.0
aF0.0
aF0.8
aF1.2
aF0.645
aF2.0
aF3.2
aF5.2
aF0.5
aF0.8
aF0.4
aF0.9
aF0.4
aF2.3
aF1.1
aF6.4
aF0.5
aI4
aI0
aI5
aV201585,1610612763
p1144
aa(lp1145
I2743
aVKris Humphries
p1146
aI1610612738
aVBOS
p1147
aF29.0
aI69
aI22
aI47
aF0.319
aF19.9
aF3.3
aF6.7
aF0.501
aF0.0
aF0.0
aF0.0
aF1.7
aF2.1
aF0.813
aF1.8
aF4.1
aF5.9
aF1.0
aF0.9
aF0.4
aF0.9
aF0.3
aF2.0
aF2.0
aF8.4
aF-2.5
aI8
aI0
aI5
aV2743,1610612738
p1148
aa(lp1149
I2594
aVKyle Korver
p1150
aI1610612737
aVATL
p1151
aF33.0
aI71
aI37
aI34
aF0.521
aF33.9
aF4.1
aF8.6
aF0.475
aF2.6
aF5.5
aF0.472
aF1.2
aF1.3
aF0.926
aF0.3
aF3.7
aF4.0
aF2.9
aF1.4
aF1.0
aF0.3
aF0.2
aF2.1
aF1.2
aF12.0
aF3.0
aI0
aI0
aI5
aV2594,1610612737
p1152
aa(lp1153
I200768
aVKyle Lowry
p1154
aI1610612761
aVTOR
p1155
aF28.0
aI79
aI45
aI34
aF0.57
aF36.2
aF5.8
aF13.7
aF0.423
aF2.4
aF6.3
aF0.38
aF4.0
aF4.9
aF0.813
aF1.1
aF3.6
aF4.7
aF7.4
aF2.5
aF1.5
aF0.2
aF0.6
aF3.4
aF4.9
aF17.9
aF3.4
aI18
aI2
aI5
aV200768,1610612761
p1156
aa(lp1157
I203124
aVKyle O'Quinn
p1158
aI1610612753
aVORL
p1159
aF24.0
aI69
aI20
aI49
aF0.29
aF17.2
aF2.7
aF5.4
aF0.501
aF0.0
aF0.0
aF0.0
aF0.8
aF1.2
aF0.687
aF1.4
aF3.8
aF5.3
aF1.1
aF1.1
aF0.6
aF1.3
aF0.3
aF2.4
aF1.0
aF6.2
aF-0.4
aI2
aI0
aI5
aV203124,1610612753
p1160
aa(lp1161
I202713
aVKyle Singler
p1162
aI1610612765
aVDET
p1163
aF26.0
aI82
aI29
aI53
aF0.354
aF28.5
aF3.3
aF7.3
aF0.447
aF1.1
aF3.0
aF0.382
aF1.9
aF2.2
aF0.826
aF1.4
aF2.3
aF3.7
aF0.9
aF1.0
aF0.7
aF0.5
aF0.5
aF2.6
aF1.9
aF9.6
aF-2.7
aI1
aI0
aI5
aV202713,1610612765
p1164
aa(lp1165
I202681
aVKyrie Irving
p1166
aI1610612739
aVCLE
p1167
aF22.0
aI71
aI28
aI43
aF0.394
aF35.2
aF7.5
aF17.4
aF0.43
aF1.7
aF4.8
aF0.358
aF4.1
aF4.8
aF0.861
aF0.7
aF2.9
aF3.6
aF6.1
aF2.7
aF1.5
aF0.3
aF0.8
aF2.3
aF3.7
aF20.8
aF-3.1
aI7
aI1
aI5
aV202681,1610612739
p1168
aa(lp1169
I200746
aVLaMarcus Aldridge
p1170
aI1610612757
aVPOR
p1171
aF28.0
aI69
aI46
aI23
aF0.667
aF36.2
aF9.4
aF20.6
aF0.458
aF0.0
aF0.2
aF0.2
aF4.3
aF5.2
aF0.822
aF2.4
aF8.7
aF11.1
aF2.6
aF1.8
aF0.9
aF1.0
aF0.6
aF2.1
aF4.3
aF23.2
aF5.3
aI40
aI0
aI5
aV200746,1610612757
p1172
aa(lp1173
I202362
aVLance Stephenson
p1174
aI1610612754
aVIND
p1175
aF23.0
aI78
aI53
aI25
aF0.679
aF35.3
aF5.5
aF11.2
aF0.491
aF1.1
aF3.1
aF0.352
aF1.8
aF2.5
aF0.711
aF1.2
aF5.9
aF7.2
aF4.6
aF2.7
aF0.7
aF0.1
aF0.6
aF2.5
aF2.6
aF13.8
aF3.7
aI20
aI5
aI5
aV202362,1610612754
p1176
aa(lp1177
I202498
aVLance Thomas
p1178
aI1610612740
aVNOP
p1179
aF26.0
aI5
aI3
aI2
aF0.6
aF8.4
aF0.4
aF1.8
aF0.222
aF0.0
aF0.0
aF0.0
aF0.4
aF0.8
aF0.5
aF0.4
aF1.0
aF1.4
aF0.6
aF0.4
aF0.0
aF0.0
aF0.8
aF0.8
aF0.4
aF1.2
aF-0.6
aI0
aI0
aI5
aV202498,1610612740
p1180
aa(lp1181
I202361
aVLandry Fields
p1182
aI1610612761
aVTOR
p1183
aF26.0
aI30
aI14
aI16
aF0.467
aF10.7
aF0.9
aF2.2
aF0.403
aF0.0
aF0.2
aF0.0
aF0.5
aF0.7
aF0.636
aF0.5
aF1.5
aF2.0
aF0.7
aF0.4
aF0.3
aF0.1
aF0.2
aF0.8
aF0.7
aF2.3
aF-1.2
aI0
aI0
aI5
aV202361,1610612761
p1184
aa(lp1185
I202336
aVLarry Sanders
p1186
aI1610612749
aVMIL
p1187
aF25.0
aI23
aI3
aI20
aF0.13
aF25.4
aF3.3
aF7.0
aF0.469
aF0.0
aF0.0
aF0.0
aF1.1
aF2.4
aF0.473
aF2.6
aF4.6
aF7.2
aF0.8
aF1.1
aF0.8
aF1.7
aF1.0
aF3.2
aF1.8
aF7.7
aF-4.8
aI2
aI0
aI5
aV202336,1610612749
p1188
aa(lp1189
I202730
aVLavoy Allen
p1190
aI1610612754
aVIND
p1191
aF25.0
aI65
aI18
aI47
aF0.277
aF16.5
aF2.1
aF4.6
aF0.447
aF0.0
aF0.2
aF0.154
aF0.5
aF0.8
aF0.66
aF1.8
aF3.0
aF4.8
aF1.1
aF0.7
aF0.4
aF0.5
aF0.2
aF1.9
aF0.8
aF4.7
aF-3.3
aI3
aI0
aI5
aV202730,1610612754
p1192
aa(lp1193
I2544
aVLeBron James
p1194
aI1610612748
aVMIA
p1195
aF29.0
aI77
aI52
aI25
aF0.675
aF37.7
aF10.0
aF17.6
aF0.567
aF1.5
aF4.0
aF0.379
aF5.7
aF7.6
aF0.75
aF1.1
aF5.9
aF6.9
aF6.3
aF3.5
aF1.6
aF0.3
aF0.5
aF1.6
aF6.0
aF27.1
aF5.3
aI12
aI1
aI5
aV2544,1610612748
p1196
aa(lp1197
I2571
aVLeandro Barbosa
p1198
aI1610612756
aVPHX
p1199
aF31.0
aI20
aI12
aI8
aF0.6
aF18.4
aF2.8
aF6.6
aF0.427
aF0.4
aF1.3
aF0.28
aF1.6
aF2.0
aF0.795
aF0.3
aF1.6
aF1.9
aF1.6
aF1.0
aF0.4
aF0.2
aF0.5
aF1.5
aF1.5
aF7.5
aF2.6
aI0
aI0
aI5
aV2571,1610612756
p1200
aa(lp1201
I203485
aVLorenzo Brown
p1202
aI1610612755
aVPHI
p1203
aF23.0
aI26
aI2
aI24
aF0.077
aF8.6
aF1.0
aF3.3
aF0.302
aF0.1
aF1.2
aF0.1
aF0.3
aF0.5
aF0.692
aF0.3
aF0.8
aF1.1
aF1.6
aF0.6
aF0.5
aF0.1
aF0.4
aF0.7
aF0.5
aF2.5
aF0.0
aI0
aI0
aI5
aV203485,1610612755
p1204
aa(lp1205
I200811
aVLou Amundson
p1206
aI1610612741
aVCHI
p1207
aF31.0
aI19
aI11
aI8
aF0.579
aF9.7
aF0.8
aF1.7
aF0.5
aF0.0
aF0.0
aF0.0
aF0.3
aF1.3
aF0.25
aF1.5
aF1.4
aF2.9
aF0.3
aF0.7
aF0.5
aF0.6
aF0.3
aF2.6
aF1.1
aF2.0
aF-1.6
aI0
aI0
aI5
aV200811,1610612741
p1208
aa(lp1209
I101150
aVLou Williams
p1210
aI1610612737
aVATL
p1211
aF27.0
aI60
aI26
aI34
aF0.433
aF24.1
aF3.3
aF8.2
aF0.4
aF1.3
aF3.9
aF0.342
aF2.5
aF3.0
aF0.849
aF0.2
aF1.9
aF2.1
aF3.5
aF1.5
aF0.8
aF0.1
aF0.3
aF1.1
aF2.4
aF10.4
aF-2.8
aI0
aI0
aI5
aV101150,1610612737
p1212
aa(lp1213
I201601
aVLuc Mbah a Moute
p1214
aI1610612750
aVMIN
p1215
aF27.0
aI64
aI31
aI33
aF0.484
aF15.7
aF1.4
aF3.0
aF0.451
aF0.1
aF0.3
aF0.235
aF0.7
aF1.0
aF0.687
aF0.9
aF1.4
aF2.3
aF0.6
aF0.6
aF0.5
aF0.2
aF0.4
aF1.1
aF0.9
aF3.5
aF-2.4
aI0
aI0
aI5
aV201601,1610612750
p1216
aa(lp1217
I2449
aVLuis Scola
p1218
aI1610612754
aVIND
p1219
aF34.0
aI82
aI56
aI26
aF0.683
aF17.1
aF3.2
aF6.8
aF0.47
aF0.0
aF0.1
aF0.143
aF1.2
aF1.7
aF0.728
aF1.0
aF3.7
aF4.8
aF1.0
aF1.3
aF0.3
aF0.2
aF0.4
aF2.0
aF1.5
aF7.6
aF0.0
aI1
aI0
aI5
aV2449,1610612754
p1220
aa(lp1221
I202337
aVLuke Babbitt
p1222
aI1610612740
aVNOP
p1223
aF25.0
aI27
aI9
aI18
aF0.333
aF17.5
aF2.2
aF5.7
aF0.39
aF1.3
aF3.5
aF0.379
aF0.5
aF0.7
aF0.778
aF0.7
aF2.6
aF3.3
aF1.1
aF0.6
aF0.3
aF0.4
aF0.3
aF1.9
aF0.6
aF6.3
aF2.6
aI0
aI0
aI5
aV202337,1610612740
p1224
aa(lp1225
I2557
aVLuke Ridnour
p1226
aI1610612766
aVCHA
p1227
aF33.0
aI61
aI22
aI39
aF0.361
aF18.7
aF2.1
aF5.4
aF0.385
aF0.6
aF1.8
aF0.343
aF0.3
aF0.4
aF0.654
aF0.4
aF1.2
aF1.6
aF2.9
aF1.1
aF0.5
aF0.1
aF0.1
aF1.5
aF0.9
aF5.0
aF-3.2
aI0
aI0
aI5
aV2557,1610612766
p1228
aa(lp1229
I2736
aVLuol Deng
p1230
aI1610612739
aVCLE
p1231
aF29.0
aI63
aI29
aI34
aF0.46
aF35.1
aF5.9
aF13.7
aF0.431
aF0.9
aF3.0
aF0.302
aF3.4
aF4.3
aF0.791
aF1.6
aF4.2
aF5.7
aF2.9
aF1.8
aF1.0
aF0.1
aF1.0
aF1.8
aF3.8
aF16.0
aF0.1
aI8
aI0
aI5
aV2736,1610612739
p1232
aa(lp1233
I203146
aVMaalik Wayns
p1234
aI1610612746
aVLAC
p1235
aF23.0
aI2
aI2
aI0
aF1.0
aF4.7
aF0.5
aF1.0
aF0.5
aF0.0
aF0.0
aF0.0
aF0.0
aF0.0
aF0.0
aF0.0
aF1.0
aF1.0
aF1.0
aF0.0
aF1.0
aF0.0
aF0.0
aF2.0
aF0.0
aF1.0
aF-5.0
aI0
aI0
aI5
aV203146,1610612746
p1236
aa(lp1237
I202952
aVMalcolm Thomas
p1238
aI1610612762
aVUTA
p1239
aF25.0
aI8
aI2
aI6
aF0.25
aF7.9
aF0.9
aF2.0
aF0.438
aF0.1
aF0.5
aF0.25
aF0.0
aF0.3
aF0.0
aF0.6
aF2.0
aF2.6
aF0.3
aF1.1
aF0.0
aF0.4
aF0.0
aF0.6
aF0.4
aF1.9
aF0.6
aI0
aI0
aI5
aV202952,1610612762
p1240
aa(lp1241
I202412
aVManny Harris
p1242
aI1610612747
aVLAL
p1243
aF24.0
aI9
aI2
aI7
aF0.222
aF20.0
aF3.1
aF7.8
aF0.4
aF0.8
aF2.2
aF0.35
aF1.1
aF1.3
aF0.833
aF0.8
aF3.0
aF3.8
aF1.2
aF1.0
aF0.4
aF0.1
aF0.7
aF1.1
aF1.6
aF8.1
aF-5.7
aI0
aI0
aI5
aV202412,1610612747
p1244
aa(lp1245
I1938
aVManu Ginobili
p1246
aI1610612759
aVSAS
p1247
aF36.0
aI68
aI52
aI16
aF0.765
aF22.8
aF4.3
aF9.2
aF0.469
aF1.3
aF3.8
aF0.349
aF2.4
aF2.8
aF0.851
aF0.4
aF2.5
aF3.0
aF4.3
aF2.0
aF1.0
aF0.3
aF0.5
aF1.9
aF2.9
aF12.3
aF6.2
aI1
aI0
aI5
aV1938,1610612759
p1248
aa(lp1249
I202705
aVMarShon Brooks
p1250
aI1610612747
aVLAL
p1251
aF25.0
aI35
aI13
aI22
aF0.371
aF9.0
aF1.6
aF3.6
aF0.456
aF0.4
aF0.7
aF0.52
aF0.9
aF1.3
aF0.727
aF0.3
aF1.3
aF1.5
aF0.7
aF0.7
aF0.4
aF0.1
aF0.2
aF0.6
aF1.2
aF4.5
aF0.7
aI0
aI0
aI5
aV202705,1610612747
p1252
aa(lp1253
I201188
aVMarc Gasol
p1254
aI1610612763
aVMEM
p1255
aF29.0
aI59
aI40
aI19
aF0.678
aF33.4
aF5.7
aF12.1
aF0.473
aF0.0
aF0.2
aF0.182
aF3.1
aF4.1
aF0.768
aF1.4
aF5.8
aF7.2
aF3.6
aF1.9
aF1.0
aF1.3
aF0.5
aF2.5
aF4.7
aF14.6
aF0.2
aI10
aI0
aI5
aV201188,1610612763
p1256
aa(lp1257
I101162
aVMarcin Gortat
p1258
aI1610612764
aVWAS
p1259
aF30.0
aI81
aI44
aI37
aF0.543
aF32.8
aF5.6
aF10.4
aF0.542
aF0.0
aF0.0
aF1.0
aF1.9
aF2.8
aF0.686
aF2.5
aF7.0
aF9.5
aF1.7
aF1.6
aF0.5
aF1.5
aF0.6
aF2.5
aF2.6
aF13.2
aF3.6
aI37
aI0
aI5
aV101162,1610612764
p1260
aa(lp1261
I201158
aVMarco Belinelli
p1262
aI1610612759
aVSAS
p1263
aF28.0
aI80
aI61
aI19
aF0.763
aF25.2
aF4.2
aF8.7
aF0.485
aF1.6
aF3.7
aF0.43
aF1.4
aF1.6
aF0.847
aF0.2
aF2.6
aF2.8
aF2.2
aF1.2
aF0.6
aF0.1
aF0.4
aF1.6
aF1.9
aF11.4
aF3.3
aI1
aI0
aI5
aV201158,1610612759
p1264
aa(lp1265
I202694
aVMarcus Morris
p1266
aI1610612756
aVPHX
p1267
aF24.0
aI82
aI48
aI34
aF0.585
aF21.9
aF3.5
aF7.9
aF0.442
aF1.2
aF3.2
aF0.381
aF1.5
aF1.9
aF0.761
aF1.0
aF2.9
aF3.9
aF1.1
aF1.2
aF0.9
aF0.2
aF0.3
aF1.9
aF1.7
aF9.7
aF1.5
aI0
aI0
aI5
aV202694,1610612756
p1268
aa(lp1269
I201977
aVMarcus Thornton
p1270
aI1610612751
aVBKN
p1271
aF27.0
aI72
aI33
aI39
aF0.458
aF24.2
aF3.5
aF8.9
aF0.394
aF1.5
aF4.4
aF0.345
aF1.3
aF1.6
aF0.804
aF0.8
aF2.0
aF2.8
aF1.1
aF0.9
aF0.8
aF0.2
aF0.3
aF1.5
aF1.2
aF9.8
aF-0.4
aI0
aI0
aI5
aV201977,1610612751
p1272
aa(lp1273
I201596
aVMario Chalmers
p1274
aI1610612748
aVMIA
p1275
aF28.0
aI73
aI49
aI24
aF0.671
aF29.8
aF3.5
aF7.7
aF0.454
aF1.2
aF3.1
aF0.385
aF1.7
aF2.2
aF0.742
aF0.6
aF2.4
aF2.9
aF4.9
aF2.2
aF1.6
aF0.2
aF0.5
aF2.9
aF2.4
aF9.8
aF4.2
aI1
aI0
aI5
aV201596,1610612748
p1276
aa(lp1277
I202693
aVMarkieff Morris
p1278
aI1610612756
aVPHX
p1279
aF24.0
aI81
aI47
aI34
aF0.58
aF26.6
aF5.1
aF10.4
aF0.486
aF0.4
aF1.3
aF0.315
aF3.2
aF4.0
aF0.792
aF1.7
aF4.3
aF6.0
aF1.8
aF1.8
aF0.8
aF0.6
aF0.4
aF2.9
aF3.2
aF13.8
aF1.7
aI11
aI0
aI5
aV202693,1610612756
p1280
aa(lp1281
I203104
aVMarquis Teague
p1282
aI1610612751
aVBKN
p1283
aF21.0
aI40
aI20
aI20
aF0.5
aF11.1
aF1.0
aF3.0
aF0.319
aF0.1
aF0.5
aF0.278
aF0.7
aF0.9
aF0.743
aF0.0
aF1.0
aF1.0
aF1.5
aF1.0
aF0.3
aF0.1
aF0.5
aF1.2
aF0.7
aF2.7
aF-1.7
aI0
aI0
aI5
aV203104,1610612751
p1284
aa(lp1285
I201578
aVMarreese Speights
p1286
aI1610612744
aVGSW
p1287
aF26.0
aI79
aI48
aI31
aF0.608
aF12.4
aF2.5
aF5.6
aF0.441
aF0.1
aF0.4
aF0.258
aF1.4
aF1.7
aF0.821
aF1.3
aF2.4
aF3.7
aF0.4
aF0.8
aF0.1
aF0.4
aF0.3
aF1.9
aF1.5
aF6.4
aF-1.5
aI1
aI0
aI5
aV201578,1610612744
p1288
aa(lp1289
I101110
aVMartell Webster
p1290
aI1610612764
aVWAS
p1291
aF27.0
aI78
aI42
aI36
aF0.538
aF27.7
aF3.3
aF7.5
aF0.433
aF1.9
aF4.8
aF0.392
aF1.3
aF1.6
aF0.84
aF0.5
aF2.4
aF2.8
aF1.2
aF0.7
aF0.5
aF0.2
aF0.1
aF1.9
aF1.6
aF9.7
aF-0.2
aI1
aI0
aI5
aV101110,1610612764
p1292
aa(lp1293
I101107
aVMarvin Williams
p1294
aI1610612762
aVUTA
p1295
aF28.0
aI66
aI24
aI42
aF0.364
aF25.4
aF3.5
aF8.0
aF0.439
aF1.3
aF3.5
aF0.359
aF0.9
aF1.1
aF0.781
aF1.2
aF3.8
aF5.1
aF1.2
aF0.8
aF0.8
aF0.5
aF0.3
aF2.3
aF1.1
aF9.1
aF-2.6
aI3
aI0
aI5
aV101107,1610612762
p1296
aa(lp1297
I203486
aVMason Plumlee
p1298
aI1610612751
aVBKN
p1299
aF24.0
aI70
aI37
aI33
aF0.529
aF18.2
aF2.8
aF4.3
aF0.659
aF0.0
aF0.0
aF0.0
aF1.7
aF2.8
aF0.626
aF1.4
aF3.0
aF4.4
aF0.9
aF1.1
aF0.7
aF0.8
aF0.5
aF2.4
aF2.0
aF7.4
aF-1.3
aI4
aI0
aI5
aV203486,1610612751
p1300
aa(lp1301
I2440
aVMatt Barnes
p1302
aI1610612746
aVLAC
p1303
aF34.0
aI63
aI45
aI18
aF0.714
aF27.5
aF3.7
aF8.4
aF0.438
aF1.5
aF4.5
aF0.343
aF1.0
aF1.4
aF0.733
aF1.0
aF3.7
aF4.6
aF2.0
aF1.3
aF0.9
aF0.4
aF0.4
aF2.9
aF1.0
aF9.9
aF5.6
aI2
aI0
aI5
aV2440,1610612746
p1304
aa(lp1305
I2588
aVMatt Bonner
p1306
aI1610612759
aVSAS
p1307
aF34.0
aI61
aI43
aI18
aF0.705
aF11.3
aF1.2
aF2.7
aF0.445
aF0.7
aF1.6
aF0.429
aF0.1
aF0.2
aF0.75
aF0.3
aF1.9
aF2.1
aF0.5
aF0.3
aF0.2
aF0.2
aF0.0
aF0.8
aF0.2
aF3.2
aF1.8
aI1
aI0
aI5
aV2588,1610612759
p1308
aa(lp1309
I203521
aVMatthew Dellavedova
p1310
aI1610612739
aVCLE
p1311
aF23.0
aI72
aI29
aI43
aF0.403
aF17.7
aF1.7
aF4.1
aF0.412
aF0.8
aF2.2
aF0.368
aF0.5
aF0.7
aF0.792
aF0.4
aF1.3
aF1.7
aF2.6
aF0.8
aF0.5
aF0.1
aF0.1
aF1.7
aF0.9
aF4.7
aF1.0
aI3
aI0
aI5
aV203521,1610612739
p1312
aa(lp1313
I203090
aVMaurice Harkless
p1314
aI1610612753
aVORL
p1315
aF21.0
aI80
aI22
aI58
aF0.275
aF24.4
aF2.8
aF6.0
aF0.464
aF0.7
aF1.9
aF0.383
aF1.1
aF1.8
aF0.594
aF0.9
aF2.4
aF3.3
aF1.0
aF1.1
aF1.2
aF0.6
aF0.6
aF1.8
aF1.4
aF7.4
aF-3.8
aI1
aI0
aI5
aV203090,1610612753
p1316
aa(lp1317
I2408
aVMelvin Ely
p1318
aI1610612740
aVNOP
p1319
aF36.0
aI2
aI2
aI0
aF1.0
aF13.6
aF1.5
aF3.0
aF0.5
aF0.0
aF0.0
aF0.0
aF0.0
aF0.0
aF0.0
aF0.0
aF0.5
aF0.5
aF0.0
aF0.0
aF0.0
aF0.5
aF0.0
aF2.5
aF0.0
aF3.0
aF-7.5
aI0
aI0
aI5
aV2408,1610612740
p1320
aa(lp1321
I1897
aVMetta World Peace
p1322
aI1610612752
aVNYK
p1323
aF34.0
aI29
aI10
aI19
aF0.345
aF13.4
aF1.9
aF4.9
aF0.397
aF0.6
aF1.9
aF0.315
aF0.3
aF0.6
aF0.625
aF0.6
aF1.4
aF2.0
aF0.6
aF0.7
aF0.8
aF0.3
aF0.2
aF1.5
aF0.8
aF4.8
aF-0.2
aI0
aI0
aI5
aV1897,1610612752
p1324
aa(lp1325
I203086
aVMeyers Leonard
p1326
aI1610612757
aVPOR
p1327
aF22.0
aI40
aI20
aI20
aF0.5
aF8.9
aF1.0
aF2.3
aF0.451
aF0.0
aF0.2
aF0.0
aF0.4
aF0.5
aF0.762
aF0.7
aF2.1
aF2.8
aF0.5
aF0.4
aF0.2
aF0.1
aF0.1
aF1.9
aF0.7
aF2.5
aF-2.1
aI0
aI0
aI5
aV203086,1610612757
p1328
aa(lp1329
I201563
aVMichael Beasley
p1330
aI1610612748
aVMIA
p1331
aF25.0
aI55
aI36
aI19
aF0.655
aF15.1
aF3.2
aF6.5
aF0.499
aF0.4
aF1.0
aF0.389
aF1.1
aF1.4
aF0.772
aF0.6
aF2.6
aF3.1
aF0.8
aF1.0
aF0.4
aF0.4
aF0.3
aF1.7
aF1.0
aF7.9
aF-0.8
aI0
aI0
aI5
aV201563,1610612748
p1332
aa(lp1333
I203487
aVMichael Carter-Williams
p1334
aI1610612755
aVPHI
p1335
aF22.0
aI70
aI18
aI52
aF0.257
aF34.5
aF6.1
aF15.1
aF0.405
aF0.8
aF3.0
aF0.264
aF3.7
aF5.2
aF0.703
aF1.4
aF4.8
aF6.2
aF6.3
aF3.5
aF1.9
aF0.6
aF1.6
aF3.0
aF5.1
aF16.7
aF-6.4
aI16
aI2
aI5
aV203487,1610612755
p1336
aa(lp1337
I200839
aVMichael Harris
p1338
aI1610612762
aVUTA
p1339
aF31.0
aI20
aI1
aI19
aF0.05
aF11.2
aF1.5
aF3.1
aF0.475
aF0.0
aF0.1
aF0.0
aF1.3
aF1.4
aF0.963
aF0.8
aF0.9
aF1.7
aF0.3
aF0.6
aF0.8
aF0.4
aF0.2
aF1.8
aF1.0
aF4.2
aF0.7
aI0
aI0
aI5
aV200839,1610612762
p1340
aa(lp1341
I203077
aVMichael Kidd-Gilchrist
p1342
aI1610612766
aVCHA
p1343
aF20.0
aI62
aI35
aI27
aF0.565
aF24.2
aF2.7
aF5.7
aF0.473
aF0.0
aF0.1
aF0.111
aF1.8
aF3.0
aF0.614
aF1.8
aF3.5
aF5.2
aF0.8
aF1.0
aF0.7
aF0.6
aF0.6
aF2.3
aF2.3
aF7.2
aF0.1
aI1
aI0
aI5
aV203077,1610612766
p1344
aa(lp1345
I201144
aVMike Conley
p1346
aI1610612763
aVMEM
p1347
aF26.0
aI73
aI46
aI27
aF0.63
aF33.5
aF6.3
aF14.1
aF0.45
aF1.4
aF4.0
aF0.361
aF3.1
aF3.8
aF0.815
aF0.6
aF2.4
aF2.9
aF6.0
aF2.1
aF1.5
aF0.2
aF0.7
aF1.9
aF3.4
aF17.2
aF2.1
aI5
aI0
aI5
aV201144,1610612763
p1348
aa(lp1349
I2399
aVMike Dunleavy
p1350
aI1610612741
aVCHI
p1351
aF33.0
aI82
aI48
aI34
aF0.585
aF31.5
aF4.1
aF9.4
aF0.43
aF1.5
aF4.0
aF0.38
aF1.7
aF2.0
aF0.854
aF0.6
aF3.6
aF4.2
aF2.3
aF1.3
aF0.8
aF0.6
aF0.3
aF2.0
aF2.0
aF11.3
aF2.1
aI0
aI0
aI5
aV2399,1610612741
p1352
aa(lp1353
I2229
aVMike James
p1354
aI1610612741
aVCHI
p1355
aF39.0
aI11
aI3
aI8
aF0.273
aF7.0
aF0.5
aF1.9
aF0.238
aF0.1
aF0.5
aF0.2
aF0.0
aF0.2
aF0.0
aF0.0
aF0.6
aF0.6
aF1.5
aF0.5
aF0.2
aF0.0
aF0.2
aF1.0
aF0.5
aF1.0
aF-0.7
aI0
aI0
aI5
aV2229,1610612741
p1356
aa(lp1357
I2034
aVMike Miller
p1358
aI1610612763
aVMEM
p1359
aF34.0
aI82
aI50
aI32
aF0.61
aF20.8
aF2.6
aF5.4
aF0.481
aF1.3
aF2.8
aF0.459
aF0.6
aF0.7
aF0.821
aF0.4
aF2.2
aF2.5
aF1.6
aF0.9
aF0.3
aF0.1
aF0.1
aF1.2
aF0.6
aF7.1
aF-0.6
aI0
aI0
aI5
aV2034,1610612763
p1360
aa(lp1361
I203488
aVMike Muscala
p1362
aI1610612737
aVATL
p1363
aF22.0
aI20
aI10
aI10
aF0.5
aF10.7
aF1.6
aF3.7
aF0.425
aF0.0
aF0.2
aF0.0
aF0.7
aF0.7
aF1.0
aF0.9
aF1.8
aF2.6
aF0.4
aF0.6
aF0.2
aF0.5
aF0.3
aF1.5
aF0.8
aF3.8
aF-4.6
aI0
aI0
aI5
aV203488,1610612737
p1364
aa(lp1365
I203118
aVMike Scott
p1366
aI1610612737
aVATL
p1367
aF25.0
aI80
aI36
aI44
aF0.45
aF18.5
aF3.8
aF7.9
aF0.479
aF0.8
aF2.5
aF0.31
aF1.3
aF1.7
aF0.78
aF0.8
aF2.8
aF3.6
aF0.9
aF1.0
aF0.4
aF0.1
aF0.3
aF1.5
aF1.4
aF9.6
aF-2.4
aI1
aI0
aI5
aV203118,1610612737
p1368
aa(lp1369
I203101
aVMiles Plumlee
p1370
aI1610612756
aVPHX
p1371
aF25.0
aI80
aI47
aI33
aF0.588
aF24.5
aF3.6
aF6.9
aF0.517
aF0.0
aF0.0
aF0.0
aF0.9
aF1.7
aF0.561
aF2.5
aF5.4
aF7.8
aF0.5
aF1.4
aF0.6
aF1.1
aF0.4
aF2.3
aF1.5
aF8.1
aF0.6
aI11
aI0
aI5
aV203101,1610612756
p1372
aa(lp1373
I203545
aVMiroslav Raduljica
p1374
aI1610612749
aVMIL
p1375
aF26.0
aI48
aI7
aI41
aF0.146
aF9.7
aF1.4
aF2.6
aF0.54
aF0.0
aF0.0
aF0.0
aF0.9
aF1.1
aF0.818
aF1.1
aF1.1
aF2.3
aF0.5
aF0.6
aF0.1
aF0.3
aF0.4
aF1.8
aF1.0
aF3.8
aF-1.1
aI0
aI0
aI5
aV203545,1610612749
p1376
aa(lp1377
I203141
aVMirza Teletovic
p1378
aI1610612751
aVBKN
p1379
aF28.0
aI72
aI41
aI31
aF0.569
aF19.4
aF3.1
aF7.3
aF0.418
aF1.9
aF4.8
aF0.39
aF0.6
aF0.9
aF0.71
aF0.8
aF2.9
aF3.7
aF0.8
aF0.8
aF0.4
aF0.3
aF0.3
aF2.0
aF0.8
aF8.6
aF-1.3
aI2
aI0
aI5
aV203141,1610612751
p1380
aa(lp1381
I2590
aVMo Williams
p1382
aI1610612757
aVPOR
p1383
aF31.0
aI74
aI49
aI25
aF0.662
aF24.8
aF3.8
aF9.1
aF0.417
aF1.1
aF3.0
aF0.369
aF1.1
aF1.2
aF0.876
aF0.6
aF1.5
aF2.1
aF4.3
aF2.0
aF0.7
aF0.1
aF0.3
aF2.7
aF1.5
aF9.7
aF1.0
aI2
aI0
aI5
aV2590,1610612757
p1384
aa(lp1385
I101145
aVMonta Ellis
p1386
aI1610612742
aVDAL
p1387
aF28.0
aI82
aI49
aI33
aF0.598
aF36.9
aF7.0
aF15.6
aF0.451
aF0.8
aF2.5
aF0.33
aF4.1
aF5.2
aF0.788
aF0.5
aF3.1
aF3.6
aF5.7
aF3.2
aF1.7
aF0.3
aF0.5
aF2.4
aF4.6
aF19.0
aF0.6
aI6
aI0
aI5
aV101145,1610612742
p1388
aa(lp1389
I201203
aVMustafa Shakur
p1390
aI1610612760
aVOKC
p1391
aF29.0
aI3
aI2
aI1
aF0.667
aF3.8
aF0.0
aF1.0
aF0.0
aF0.0
aF0.3
aF0.0
aF0.3
aF0.7
aF0.5
aF0.0
aF0.0
aF0.0
aF1.3
aF0.7
aF0.0
aF0.0
aF0.0
aF0.7
aF0.3
aF0.3
aF-2.7
aI0
aI0
aI5
aV201203,1610612760
p1392
aa(lp1393
I201986
aVNando De Colo
p1394
aI1610612761
aVTOR
p1395
aF27.0
aI47
aI36
aI11
aF0.766
aF10.5
aF1.4
aF3.3
aF0.418
aF0.4
aF1.1
aF0.34
aF0.7
aF0.7
aF0.886
aF0.3
aF1.3
aF1.6
aF1.4
aF0.7
aF0.5
aF0.1
aF0.1
aF1.0
aF0.8
aF3.8
aF0.0
aI0
aI0
aI5
aV201986,1610612761
p1396
aa(lp1397
I101126
aVNate Robinson
p1398
aI1610612743
aVDEN
p1399
aF30.0
aI44
aI22
aI22
aF0.5
aF19.7
aF3.7
aF8.7
aF0.428
aF1.3
aF3.5
aF0.377
aF1.6
aF1.9
aF0.835
aF0.5
aF1.4
aF1.8
aF2.5
aF1.3
aF0.8
aF0.1
aF0.4
aF2.1
aF1.9
aF10.4
aF2.0
aI0
aI0
aI5
aV101126,1610612743
p1400
aa(lp1401
I203489
aVNate Wolters
p1402
aI1610612749
aVMIL
p1403
aF23.0
aI58
aI10
aI48
aF0.172
aF22.6
aF2.9
aF6.7
aF0.437
aF0.3
aF1.1
aF0.29
aF1.0
aF1.6
aF0.656
aF0.6
aF2.0
aF2.6
aF3.2
aF1.0
aF0.6
aF0.3
aF0.5
aF1.2
aF1.5
aF7.2
aF-0.5
aI0
aI0
aI5
aV203489,1610612749
p1404
aa(lp1405
I1737
aVNazr Mohammed
p1406
aI1610612741
aVCHI
p1407
aF36.0
aI80
aI47
aI33
aF0.588
aF7.0
aF0.7
aF1.6
aF0.429
aF0.0
aF0.0
aF0.0
aF0.2
aF0.4
aF0.533
aF0.8
aF1.4
aF2.2
aF0.3
aF0.5
aF0.2
aF0.4
aF0.1
aF1.0
aF0.4
aF1.6
aF-0.2
aI0
aI0
aI5
aV1737,1610612741
p1408
aa(lp1409
I203517
aVNemanja Nedovic
p1410
aI1610612744
aVGSW
p1411
aF23.0
aI24
aI17
aI7
aF0.708
aF5.9
aF0.3
aF1.6
aF0.205
aF0.1
aF0.8
aF0.167
aF0.3
aF0.3
aF0.875
aF0.1
aF0.5
aF0.6
aF0.5
aF0.5
aF0.0
aF0.0
aF0.1
aF0.5
aF0.4
aF1.1
aF-2.9
aI0
aI0
aI5
aV203517,1610612744
p1412
aa(lp1413
I2403
aVNene
p1414
aI1610612764
aVWAS
p1415
aF31.0
aI53
aI30
aI23
aF0.566
aF29.4
aF5.6
aF11.2
aF0.503
aF0.0
aF0.1
aF0.2
aF2.9
aF5.0
aF0.583
aF1.2
aF4.3
aF5.5
aF2.9
aF2.2
aF1.2
aF0.9
aF0.6
aF3.1
aF4.8
aF14.2
aF2.3
aI2
aI0
aI5
aV2403,1610612764
p1416
aa(lp1417
I201979
aVNick Calathes
p1418
aI1610612763
aVMEM
p1419
aF25.0
aI71
aI42
aI29
aF0.592
aF16.5
aF2.0
aF4.4
aF0.457
aF0.3
aF0.9
aF0.311
aF0.6
aF1.0
aF0.611
aF0.3
aF1.6
aF1.9
aF2.9
aF1.4
aF0.9
aF0.1
aF0.4
aF1.6
aF1.2
aF4.9
aF0.3
aI0
aI0
aI5
aV201979,1610612763
p1420
aa(lp1421
I2555
aVNick Collison
p1422
aI1610612760
aVOKC
p1423
aF33.0
aI81
aI58
aI23
aF0.716
aF16.7
aF1.7
aF3.0
aF0.556
aF0.0
aF0.2
aF0.235
aF0.8
aF1.1
aF0.71
aF1.4
aF2.2
aF3.6
aF1.3
aF0.9
aF0.4
aF0.3
aF0.3
aF2.3
aF1.4
aF4.2
aF4.1
aI0
aI0
aI5
aV2555,1610612760
p1424
aa(lp1425
I201156
aVNick Young
p1426
aI1610612747
aVLAL
p1427
aF29.0
aI64
aI21
aI43
aF0.328
aF28.3
aF6.0
aF13.9
aF0.435
aF2.1
aF5.5
aF0.386
aF3.7
aF4.5
aF0.825
aF0.5
aF2.1
aF2.6
aF1.5
aF1.5
aF0.7
aF0.2
aF0.5
aF2.4
aF3.3
aF17.9
aF-1.3
aI0
aI0
aI5
aV201156,1610612747
p1428
aa(lp1429
I201587
aVNicolas Batum
p1430
aI1610612757
aVPOR
p1431
aF25.0
aI82
aI54
aI28
aF0.659
aF36.0
aF4.6
aF10.0
aF0.465
aF1.8
aF4.9
aF0.361
aF2.0
aF2.5
aF0.803
aF1.4
aF6.0
aF7.5
aF5.1
aF2.5
aF0.9
aF0.7
aF0.2
aF1.9
aF2.5
aF13.0
aF4.0
aI16
aI2
aI5
aV201587,1610612757
p1432
aa(lp1433
I201593
aVNikola Pekovic
p1434
aI1610612750
aVMIN
p1435
aF28.0
aI54
aI27
aI27
aF0.5
aF30.8
aF7.0
aF13.0
aF0.541
aF0.0
aF0.0
aF0.0
aF3.4
aF4.6
aF0.747
aF3.8
aF4.9
aF8.7
aF0.9
aF1.6
aF0.6
aF0.4
aF1.3
aF2.4
aF3.9
aF17.5
aF5.1
aI23
aI0
aI5
aV201593,1610612750
p1436
aa(lp1437
I202696
aVNikola Vucevic
p1438
aI1610612753
aVORL
p1439
aF23.0
aI57
aI19
aI38
aF0.333
aF31.8
aF6.2
aF12.2
aF0.507
aF0.0
aF0.0
aF0.0
aF1.8
aF2.4
aF0.766
aF3.2
aF7.7
aF11.0
aF1.8
aF2.0
aF1.1
aF0.8
aF0.6
aF3.0
aF2.4
aF14.2
aF-3.1
aI36
aI0
aI5
aV202696,1610612753
p1440
aa(lp1441
I202708
aVNorris Cole
p1442
aI1610612748
aVMIA
p1443
aF25.0
aI82
aI54
aI28
aF0.659
aF24.6
aF2.5
aF6.1
aF0.414
aF0.7
aF2.1
aF0.345
aF0.6
aF0.8
aF0.779
aF0.2
aF1.7
aF2.0
aF3.0
aF1.5
aF0.9
aF0.1
aF0.4
aF1.9
aF1.0
aF6.4
aF1.2
aI0
aI0
aI5
aV202708,1610612748
p1444
aa(lp1445
I201564
aVO.J. Mayo
p1446
aI1610612749
aVMIL
p1447
aF26.0
aI52
aI10
aI42
aF0.192
aF25.9
aF4.3
aF10.6
aF0.407
aF1.6
aF4.4
aF0.37
aF1.5
aF1.7
aF0.864
aF0.5
aF1.9
aF2.4
aF2.2
aF1.8
aF0.5
aF0.3
aF0.7
aF2.1
aF1.5
aF11.7
aF-6.9
aI0
aI0
aI5
aV201564,1610612749
p1448
aa(lp1449
I203136
aVOgnjen Kuzmic
p1450
aI1610612744
aVGSW
p1451
aF24.0
aI21
aI16
aI5
aF0.762
aF4.4
aF0.2
aF0.6
aF0.385
aF0.0
aF0.0
aF0.0
aF0.2
aF0.5
aF0.455
aF0.5
aF0.5
aF1.0
aF0.1
aF0.5
aF0.1
aF0.2
aF0.0
aF0.8
aF0.3
aF0.7
aF-2.9
aI0
aI0
aI5
aV203136,1610612744
p1452
aa(lp1453
I201600
aVOmer Asik
p1454
aI1610612745
aVHOU
p1455
aF27.0
aI48
aI32
aI16
aF0.667
aF20.2
aF2.1
aF4.0
aF0.532
aF0.0
aF0.0
aF0.0
aF1.6
aF2.6
aF0.619
aF2.1
aF5.8
aF7.9
aF0.5
aF1.2
aF0.3
aF0.8
aF0.6
aF1.9
aF2.0
aF5.8
aF1.2
aI6
aI0
aI5
aV201600,1610612745
p1456
aa(lp1457
I201956
aVOmri Casspi
p1458
aI1610612745
aVHOU
p1459
aF26.0
aI71
aI46
aI25
aF0.648
aF18.1
aF2.4
aF5.8
aF0.422
aF0.9
aF2.5
aF0.347
aF1.2
aF1.7
aF0.68
aF0.8
aF2.9
aF3.7
aF1.2
aF1.0
aF0.6
aF0.2
aF0.3
aF1.4
aF1.4
aF6.9
aF2.1
aI1
aI0
aI5
aV201956,1610612745
p1460
aa(lp1461
I203111
aVOrlando Johnson
p1462
aI1610612758
aVSAC
p1463
aF25.0
aI45
aI34
aI11
aF0.756
aF8.7
aF0.8
aF2.5
aF0.319
aF0.2
aF1.0
aF0.191
aF0.4
aF0.6
aF0.731
aF0.2
aF1.0
aF1.2
aF0.4
aF0.3
aF0.1
aF0.0
aF0.3
aF0.6
aF0.4
aF2.2
aF-0.5
aI0
aI0
aI5
aV203111,1610612758
p1464
aa(lp1465
I201785
aVOthyus Jeffers
p1466
aI1610612750
aVMIN
p1467
aF28.0
aI6
aI2
aI4
aF0.333
aF7.8
aF0.5
aF1.0
aF0.5
aF0.0
aF0.3
aF0.0
aF0.5
aF0.7
aF0.75
aF0.2
aF1.3
aF1.5
aF0.2
aF0.2
aF0.0
aF0.0
aF0.0
aF0.5
aF0.3
aF1.5
aF4.8
aI0
aI0
aI5
aV201785,1610612750
p1468
aa(lp1469
I203490
aVOtto Porter
p1470
aI1610612764
aVWAS
p1471
aF21.0
aI37
aI20
aI17
aF0.541
aF8.6
aF0.9
aF2.5
aF0.363
aF0.1
aF0.6
aF0.19
aF0.2
aF0.3
aF0.667
aF0.6
aF1.0
aF1.5
aF0.3
aF0.4
aF0.2
aF0.0
aF0.1
aF0.7
aF0.4
aF2.1
aF-0.2
aI0
aI0
aI5
aV203490,1610612764
p1472
aa(lp1473
I200782
aVPJ Tucker
p1474
aI1610612756
aVPHX
p1475
aF29.0
aI81
aI48
aI33
aF0.593
aF30.7
aF3.3
aF7.6
aF0.431
aF0.9
aF2.4
aF0.387
aF1.9
aF2.5
aF0.776
aF2.0
aF4.5
aF6.5
aF1.7
aF1.3
aF1.4
aF0.3
aF0.6
aF2.5
aF2.5
aF9.4
aF1.6
aI11
aI0
aI5
aV200782,1610612756
p1476
aa(lp1477
I203143
aVPablo Prigioni
p1478
aI1610612752
aVNYK
p1479
aF37.0
aI66
aI29
aI37
aF0.439
aF19.4
aF1.3
aF2.9
aF0.461
aF1.0
aF2.1
aF0.464
aF0.2
aF0.2
aF0.917
aF0.5
aF1.4
aF2.0
aF3.5
aF0.9
aF1.0
aF0.0
aF0.1
aF2.0
aF0.9
aF3.8
aF0.5
aI0
aI0
aI5
aV203143,1610612752
p1480
aa(lp1481
I201976
aVPatrick Beverley
p1482
aI1610612745
aVHOU
p1483
aF25.0
aI56
aI39
aI17
aF0.696
aF31.3
aF3.6
aF8.6
aF0.414
aF1.6
aF4.6
aF0.361
aF1.5
aF1.8
aF0.814
aF1.3
aF2.2
aF3.5
aF2.7
aF1.2
aF1.4
aF0.4
aF0.6
aF3.1
aF1.9
aF10.2
aF5.3
aI0
aI0
aI5
aV201976,1610612745
p1484
aa(lp1485
I202335
aVPatrick Patterson
p1486
aI1610612761
aVTOR
p1487
aF25.0
aI65
aI37
aI28
aF0.569
aF23.6
aF3.5
aF7.5
aF0.46
aF0.8
aF2.3
aF0.364
aF0.8
aF1.1
aF0.704
aF1.8
aF3.5
aF5.3
aF1.2
aF1.0
aF0.8
aF0.6
aF0.2
aF2.4
aF1.0
aF8.5
aF2.6
aI1
aI0
aI5
aV202335,1610612761
p1488
aa(lp1489
I201988
aVPatty Mills
p1490
aI1610612759
aVSAS
p1491
aF25.0
aI81
aI62
aI19
aF0.765
aF18.9
aF3.8
aF8.2
aF0.464
aF1.7
aF3.9
aF0.425
aF0.9
aF1.0
aF0.89
aF0.4
aF1.7
aF2.1
aF1.8
aF0.8
aF0.8
aF0.1
aF0.3
aF1.4
aF1.3
aF10.2
aF4.2
aI0
aI0
aI5
aV201988,1610612759
p1492
aa(lp1493
I2200
aVPau Gasol
p1494
aI1610612747
aVLAL
p1495
aF33.0
aI60
aI21
aI39
aF0.35
aF31.4
aF7.1
aF14.8
aF0.48
aF0.1
aF0.2
aF0.286
aF3.1
aF4.2
aF0.736
aF2.1
aF7.6
aF9.7
aF3.4
aF2.4
aF0.5
aF1.5
aF1.0
aF2.1
aF3.9
aF17.4
aF-5.9
aI30
aI0
aI5
aV2200,1610612747
p1496
aa(lp1497
I202331
aVPaul George
p1498
aI1610612754
aVIND
p1499
aF24.0
aI80
aI54
aI26
aF0.675
aF36.2
aF7.2
aF17.0
aF0.424
aF2.3
aF6.3
aF0.364
aF5.0
aF5.8
aF0.864
aF0.8
aF6.0
aF6.8
aF3.5
aF2.8
aF1.9
aF0.3
aF0.8
aF2.5
aF4.8
aF21.7
aF4.6
aI12
aI1
aI5
aV202331,1610612754
p1500
aa(lp1501
I200794
aVPaul Millsap
p1502
aI1610612737
aVATL
p1503
aF29.0
aI74
aI36
aI38
aF0.486
aF33.5
aF6.5
aF14.1
aF0.461
aF1.0
aF2.9
aF0.358
aF3.9
aF5.3
aF0.731
aF2.1
aF6.4
aF8.5
aF3.1
aF2.5
aF1.7
aF1.1
aF0.9
aF2.8
aF4.8
aF17.9
aF1.7
aI30
aI1
aI5
aV200794,1610612737
p1504
aa(lp1505
I1718
aVPaul Pierce
p1506
aI1610612751
aVBKN
p1507
aF36.0
aI75
aI42
aI33
aF0.56
aF28.0
aF4.3
aF9.5
aF0.451
aF1.5
aF4.0
aF0.373
aF3.4
aF4.1
aF0.826
aF0.3
aF4.3
aF4.6
aF2.4
aF2.0
aF1.1
aF0.4
aF0.5
aF2.5
aF3.2
aF13.5
aF1.0
aI1
aI0
aI5
aV1718,1610612751
p1508
aa(lp1509
I203544
aVPero Antic
p1510
aI1610612737
aVATL
p1511
aF31.0
aI50
aI23
aI27
aF0.46
aF18.5
aF2.5
aF5.9
aF0.418
aF1.1
aF3.4
aF0.327
aF1.0
aF1.3
aF0.758
aF1.1
aF3.0
aF4.2
aF1.2
aF1.1
aF0.4
aF0.2
aF0.2
aF2.5
aF1.8
aF7.0
aF2.6
aI3
aI0
aI5
aV203544,1610612737
p1512
aa(lp1513
I203103
aVPerry Jones
p1514
aI1610612760
aVOKC
p1515
aF22.0
aI62
aI45
aI17
aF0.726
aF12.3
aF1.3
aF2.9
aF0.459
aF0.4
aF1.0
aF0.361
aF0.5
aF0.7
aF0.667
aF0.5
aF1.4
aF1.8
aF0.4
aF0.3
aF0.2
aF0.3
aF0.1
aF1.0
aF0.5
aF3.5
aF0.9
aI0
aI0
aI5
aV203103,1610612760
p1516
aa(lp1517
I203491
aVPeyton Siva
p1518
aI1610612765
aVDET
p1519
aF23.0
aI24
aI9
aI15
aF0.375
aF9.3
aF0.8
aF2.4
aF0.316
aF0.3
aF1.0
aF0.28
aF0.5
aF0.6
aF0.733
aF0.1
aF0.5
aF0.6
aF1.4
aF0.8
aF0.4
aF0.0
aF0.3
aF1.1
aF0.7
aF2.3
aF-1.3
aI0
aI0
aI5
aV203491,1610612765
p1520
aa(lp1521
I203515
aVPhil Pressey
p1522
aI1610612738
aVBOS
p1523
aF23.0
aI75
aI23
aI52
aF0.307
aF15.1
aF1.0
aF3.4
aF0.308
aF0.4
aF1.4
aF0.264
aF0.4
aF0.6
aF0.644
aF0.3
aF1.1
aF1.4
aF3.2
aF1.2
aF0.9
aF0.1
aF0.1
aF1.3
aF0.7
aF2.8
aF-0.3
aI2
aI0
aI5
aV203515,1610612738
p1524
aa(lp1525
I203112
aVQuincy Acy
p1526
aI1610612758
aVSAC
p1527
aF23.0
aI63
aI22
aI41
aF0.349
aF13.5
aF1.0
aF2.2
aF0.468
aF0.1
aF0.2
aF0.267
aF0.6
aF0.8
aF0.66
aF1.1
aF2.3
aF3.4
aF0.4
aF0.5
aF0.4
aF0.4
aF0.2
aF1.9
aF0.8
aF2.7
aF-2.2
aI0
aI0
aI5
aV203112,1610612758
p1528
aa(lp1529
I203113
aVQuincy Miller
p1530
aI1610612743
aVDEN
p1531
aF21.0
aI52
aI21
aI31
aF0.404
aF15.2
aF1.8
aF4.9
aF0.367
aF0.6
aF1.8
aF0.319
aF0.8
aF1.1
aF0.709
aF0.7
aF2.1
aF2.8
aF0.5
aF0.9
aF0.4
aF0.6
aF0.3
aF1.3
aF0.8
aF4.9
aF-1.2
aI1
aI0
aI5
aV203113,1610612743
p1532
aa(lp1533
I202347
aVQuincy Pondexter
p1534
aI1610612763
aVMEM
p1535
aF26.0
aI15
aI7
aI8
aF0.467
aF18.0
aF2.1
aF5.3
aF0.392
aF0.7
aF2.3
aF0.324
aF1.4
aF1.7
aF0.808
aF0.7
aF1.1
aF1.7
aF1.3
aF1.0
aF0.3
aF0.1
aF0.5
aF1.2
aF1.3
aF6.3
aF-7.2
aI0
aI0
aI5
aV202347,1610612763
p1536
aa(lp1537
I200765
aVRajon Rondo
p1538
aI1610612738
aVBOS
p1539
aF28.0
aI30
aI6
aI24
aF0.2
aF33.3
aF4.7
aF11.7
aF0.403
aF0.9
aF3.0
aF0.289
aF1.4
aF2.2
aF0.627
aF0.7
aF4.7
aF5.5
aF9.8
aF3.3
aF1.3
aF0.1
aF0.9
aF2.2
aF2.7
aF11.7
aF-5.7
aI13
aI1
aI5
aV200765,1610612738
p1540
aa(lp1541
I201196
aVRamon Sessions
p1542
aI1610612749
aVMIL
p1543
aF28.0
aI83
aI30
aI53
aF0.361
aF26.7
aF4.0
aF9.3
aF0.429
aF0.4
aF1.5
aF0.282
aF3.9
aF4.9
aF0.807
aF0.5
aF2.0
aF2.4
aF4.1
aF1.8
aF0.6
aF0.1
aF0.7
aF1.1
aF3.5
aF12.3
aF-2.0
aI3
aI0
aI5
aV201196,1610612749
p1544
aa(lp1545
I200751
aVRandy Foye
p1546
aI1610612743
aVDEN
p1547
aF30.0
aI81
aI36
aI45
aF0.444
aF30.7
aF4.5
aF10.8
aF0.413
aF2.3
aF6.1
aF0.38
aF1.9
aF2.3
aF0.849
aF0.4
aF2.4
aF2.9
aF3.5
aF1.8
aF0.8
aF0.5
aF0.5
aF2.5
aF1.6
aF13.2
aF-1.6
aI4
aI0
aI5
aV200751,1610612743
p1548
aa(lp1549
I1740
aVRashard Lewis
p1550
aI1610612748
aVMIA
p1551
aF34.0
aI60
aI41
aI19
aF0.683
aF16.2
aF1.6
aF3.9
aF0.415
aF0.8
aF2.2
aF0.343
aF0.4
aF0.6
aF0.788
aF0.4
aF1.4
aF1.8
aF1.0
aF0.6
aF0.9
aF0.1
aF0.1
aF1.5
aF0.6
aF4.5
aF0.9
aI0
aI0
aI5
aV1740,1610612748
p1552
aa(lp1553
I2446
aVRasual Butler
p1554
aI1610612754
aVIND
p1555
aF35.0
aI50
aI30
aI20
aF0.6
aF7.6
aF1.0
aF2.2
aF0.464
aF0.5
aF1.2
aF0.419
aF0.2
aF0.3
aF0.571
aF0.1
aF0.7
aF0.8
aF0.3
aF0.2
aF0.1
aF0.2
aF0.0
aF0.6
aF0.2
aF2.7
aF-0.9
aI0
aI0
aI5
aV2446,1610612754
p1556
aa(lp1557
I951
aVRay Allen
p1558
aI1610612748
aVMIA
p1559
aF38.0
aI73
aI47
aI26
aF0.644
aF26.5
aF3.3
aF7.4
aF0.442
aF1.6
aF4.2
aF0.375
aF1.4
aF1.6
aF0.905
aF0.3
aF2.5
aF2.8
aF2.0
aF1.2
aF0.7
aF0.1
aF0.1
aF1.6
aF1.3
aF9.6
aF2.2
aI0
aI0
aI5
aV951,1610612748
p1560
aa(lp1561
I203492
aVRay McCallum
p1562
aI1610612758
aVSAC
p1563
aF23.0
aI45
aI16
aI29
aF0.356
aF19.9
aF2.5
aF6.7
aF0.377
aF0.5
aF1.3
aF0.373
aF0.7
aF1.0
aF0.744
aF0.4
aF1.4
aF1.8
aF2.7
aF0.9
aF0.5
aF0.2
aF0.5
aF1.5
aF0.9
aF6.2
aF-2.2
aI1
aI0
aI5
aV203492,1610612758
p1564
aa(lp1565
I101109
aVRaymond Felton
p1566
aI1610612752
aVNYK
p1567
aF30.0
aI65
aI31
aI34
aF0.477
aF31.0
aF3.7
aF9.4
aF0.395
aF1.0
aF3.0
aF0.318
aF1.4
aF1.9
aF0.721
aF0.8
aF2.2
aF3.0
aF5.6
aF2.0
aF1.2
aF0.4
aF0.5
aF2.4
aF2.0
aF9.7
aF0.4
aI2
aI0
aI5
aV101109,1610612752
p1568
aa(lp1569
I203493
aVReggie Bullock
p1570
aI1610612746
aVLAC
p1571
aF23.0
aI43
aI30
aI13
aF0.698
aF9.2
aF1.0
aF2.8
aF0.355
aF0.5
aF1.7
aF0.301
aF0.2
aF0.2
aF0.778
aF0.3
aF1.0
aF1.3
aF0.3
aF0.3
aF0.2
aF0.0
aF0.0
aF0.6
aF0.3
aF2.7
aF-0.3
aI0
aI0
aI5
aV203493,1610612746
p1572
aa(lp1573
I2501
aVReggie Evans
p1574
aI1610612758
aVSAC
p1575
aF34.0
aI54
aI18
aI36
aF0.333
aF16.6
aF1.3
aF2.8
aF0.473
aF0.0
aF0.0
aF0.0
aF1.3
aF2.4
aF0.554
aF2.1
aF4.1
aF6.2
aF0.4
aF1.1
aF0.7
aF0.1
aF0.5
aF2.2
aF1.8
aF4.0
aF-1.8
aI2
aI0
aI5
aV2501,1610612758
p1576
aa(lp1577
I202704
aVReggie Jackson
p1578
aI1610612760
aVOKC
p1579
aF24.0
aI80
aI57
aI23
aF0.713
aF28.5
aF5.0
aF11.5
aF0.44
aF1.0
aF3.1
aF0.339
aF2.0
aF2.2
aF0.893
aF0.5
aF3.4
aF3.9
aF4.1
aF2.1
aF1.1
aF0.1
aF0.7
aF1.8
aF2.0
aF13.1
aF4.4
aI2
aI0
aI5
aV202704,1610612760
p1580
aa(lp1581
I202130
aVReggie Williams
p1582
aI1610612760
aVOKC
p1583
aF27.0
aI3
aI3
aI0
aF1.0
aF5.6
aF1.7
aF3.0
aF0.556
aF0.3
aF1.0
aF0.333
aF0.0
aF0.0
aF0.0
aF0.0
aF0.0
aF0.0
aF0.3
aF0.7
aF0.3
aF0.0
aF0.0
aF0.3
aF0.0
aF3.7
aF-1.7
aI0
aI0
aI5
aV202130,1610612760
p1584
aa(lp1585
I2210
aVRichard Jefferson
p1586
aI1610612762
aVUTA
p1587
aF34.0
aI82
aI25
aI57
aF0.305
aF27.0
aF3.6
aF8.0
aF0.45
aF1.5
aF3.7
aF0.409
aF1.5
aF2.0
aF0.741
aF0.2
aF2.5
aF2.7
aF1.6
aF1.1
aF0.7
aF0.2
aF0.4
aF2.0
aF1.8
aF10.1
aF-5.0
aI0
aI0
aI5
aV2210,1610612762
p1588
aa(lp1589
I203495
aVRicky Ledo
p1590
aI1610612742
aVDAL
p1591
aF21.0
aI11
aI5
aI6
aF0.455
aF3.0
aF0.5
aF1.5
aF0.353
aF0.3
aF0.7
aF0.375
aF0.4
aF0.4
aF1.0
aF0.0
aF0.2
aF0.2
aF0.2
aF0.2
aF0.1
aF0.0
aF0.0
aF0.2
aF0.2
aF1.7
aF0.8
aI0
aI0
aI5
aV203495,1610612742
p1592
aa(lp1593
I201937
aVRicky Rubio
p1594
aI1610612750
aVMIN
p1595
aF23.0
aI82
aI40
aI42
aF0.488
aF32.2
aF3.1
aF8.2
aF0.381
aF0.5
aF1.6
aF0.331
aF2.8
aF3.5
aF0.802
aF0.7
aF3.4
aF4.2
aF8.6
aF2.7
aF2.3
aF0.1
aF0.8
aF2.7
aF3.4
aF9.5
aF4.7
aI15
aI2
aI5
aV201937,1610612750
p1596
aa(lp1597
I203133
aVRobbie Hummel
p1598
aI1610612750
aVMIN
p1599
aF25.0
aI53
aI26
aI27
aF0.491
aF12.4
aF1.3
aF3.3
aF0.379
aF0.6
aF1.7
aF0.36
aF0.3
aF0.3
aF0.938
aF0.7
aF1.8
aF2.5
aF0.4
aF0.2
aF0.3
aF0.0
aF0.1
aF1.1
aF0.4
aF3.4
aF0.7
aI0
aI0
aI5
aV203133,1610612750
p1600
aa(lp1601
I203496
aVRobert Covington
p1602
aI1610612745
aVHOU
p1603
aF23.0
aI7
aI4
aI3
aF0.571
aF4.8
aF0.9
aF2.0
aF0.429
aF0.6
aF1.6
aF0.364
aF0.0
aF0.0
aF0.0
aF0.3
aF0.4
aF0.7
aF0.0
aF0.1
aF0.3
aF0.0
aF0.0
aF0.4
aF0.1
aF2.3
aF2.4
aI0
aI0
aI5
aV203496,1610612745
p1604
aa(lp1605
I203135
aVRobert Sacre
p1606
aI1610612747
aVLAL
p1607
aF25.0
aI65
aI20
aI45
aF0.308
aF16.8
aF2.2
aF4.6
aF0.477
aF0.0
aF0.0
aF0.0
aF1.0
aF1.4
aF0.681
aF1.3
aF2.6
aF3.9
aF0.8
aF0.7
aF0.4
aF0.7
aF0.4
aF2.1
aF1.4
aF5.4
aF-2.3
aI0
aI0
aI5
aV203135,1610612747
p1608
aa(lp1609
I201577
aVRobin Lopez
p1610
aI1610612757
aVPOR
p1611
aF26.0
aI82
aI54
aI28
aF0.659
aF31.8
aF4.3
aF7.9
aF0.551
aF0.0
aF0.0
aF0.0
aF2.4
aF3.0
aF0.818
aF4.0
aF4.6
aF8.5
aF0.9
aF1.0
aF0.3
aF1.7
aF0.4
aF2.4
aF2.5
aF11.1
aF3.9
aI29
aI0
aI5
aV201577,1610612757
p1612
aa(lp1613
I201155
aVRodney Stuckey
p1614
aI1610612765
aVDET
p1615
aF28.0
aI73
aI27
aI46
aF0.37
aF26.7
aF5.1
aF11.7
aF0.436
aF0.3
aF1.2
aF0.273
aF3.3
aF4.0
aF0.836
aF0.5
aF1.8
aF2.3
aF2.1
aF1.7
aF0.7
aF0.1
aF0.7
aF1.8
aF2.9
aF13.9
aF-2.2
aI0
aI0
aI5
aV201155,1610612765
p1616
aa(lp1617
I2427
aVRoger Mason Jr.
p1618
aI1610612748
aVMIA
p1619
aF33.0
aI25
aI18
aI7
aF0.72
aF10.4
aF1.0
aF2.7
aF0.373
aF0.7
aF1.9
aF0.354
aF0.3
aF0.3
aF1.0
aF0.0
aF0.8
aF0.9
aF0.8
aF0.4
aF0.2
aF0.0
aF0.0
aF1.0
aF0.1
aF3.0
aF-0.2
aI0
aI0
aI5
aV2427,1610612748
p1620
aa(lp1621
I200758
aVRonnie Brewer
p1622
aI1610612741
aVCHI
p1623
aF29.0
aI24
aI17
aI7
aF0.708
aF6.7
aF0.1
aF0.6
aF0.2
aF0.0
aF0.3
aF0.125
aF0.0
aF0.1
aF0.0
aF0.1
aF0.5
aF0.6
aF0.4
aF0.1
aF0.3
aF0.0
aF0.0
aF0.2
aF0.1
aF0.3
aF-2.1
aI0
aI0
aI5
aV200758,1610612741
p1624
aa(lp1625
I101179
aVRonnie Price
p1626
aI1610612753
aVORL
p1627
aF31.0
aI31
aI9
aI22
aF0.29
aF12.2
aF0.9
aF3.0
aF0.304
aF0.3
aF1.4
aF0.209
aF0.3
aF0.4
aF0.692
aF0.3
aF1.1
aF1.4
aF2.1
aF0.8
aF0.8
aF0.1
aF0.1
aF1.6
aF0.8
aF2.4
aF-0.7
aI0
aI0
aI5
aV101179,1610612753
p1628
aa(lp1629
I101142
aVRonny Turiaf
p1630
aI1610612750
aVMIN
p1631
aF31.0
aI31
aI16
aI15
aF0.516
aF19.5
aF2.1
aF3.5
aF0.598
aF0.0
aF0.0
aF0.0
aF0.7
aF1.6
aF0.42
aF1.8
aF3.8
aF5.6
aF0.8
aF0.8
aF0.3
aF1.6
aF0.4
aF2.1
aF1.7
aF4.8
aF-0.7
aI0
aI0
aI5
aV101142,1610612750
p1632
aa(lp1633
I201579
aVRoy Hibbert
p1634
aI1610612754
aVIND
p1635
aF27.0
aI81
aI55
aI26
aF0.679
aF29.7
aF4.1
aF9.3
aF0.439
aF0.0
aF0.1
aF0.4
aF2.6
aF3.3
aF0.77
aF2.5
aF4.1
aF6.6
aF1.1
aF1.8
aF0.4
aF2.2
aF0.6
aF3.3
aF3.3
aF10.8
aF4.4
aI15
aI0
aI5
aV201579,1610612754
p1636
aa(lp1637
I2767
aVRoyal Ivey
p1638
aI1610612760
aVOKC
p1639
aF32.0
aI2
aI2
aI0
aF1.0
aF2.4
aF0.0
aF1.0
aF0.0
aF0.0
aF0.5
aF0.0
aF0.0
aF0.0
aF0.0
aF0.0
aF0.5
aF0.5
aF0.0
aF0.0
aF0.0
aF0.0
aF0.0
aF0.5
aF0.0
aF0.0
aF-2.0
aI0
aI0
aI5
aV2767,1610612760
p1640
aa(lp1641
I203091
aVRoyce White
p1642
aI1610612758
aVSAC
p1643
aF23.0
aI3
aI1
aI2
aF0.333
aF3.0
aF0.0
aF0.3
aF0.0
aF0.0
aF0.0
aF0.0
aF0.0
aF0.0
aF0.0
aF0.0
aF0.0
aF0.0
aF0.0
aF0.0
aF0.0
aF0.0
aF0.0
aF0.7
aF0.0
aF0.0
aF-2.0
aI0
aI0
aI5
aV203091,1610612758
p1644
aa(lp1645
I200752
aVRudy Gay
p1646
aI1610612758
aVSAC
p1647
aF27.0
aI73
aI27
aI46
aF0.37
aF34.7
aF7.4
aF16.2
aF0.455
aF0.9
aF2.7
aF0.33
aF4.4
aF5.3
aF0.822
aF1.5
aF4.4
aF6.0
aF2.9
aF3.1
aF1.3
aF0.8
aF1.1
aF2.3
aF3.7
aF20.0
aF-0.9
aI11
aI0
aI5
aV200752,1610612758
p1648
aa(lp1649
I203497
aVRudy Gobert
p1650
aI1610612762
aVUTA
p1651
aF22.0
aI45
aI7
aI38
aF0.156
aF9.6
aF0.8
aF1.6
aF0.486
aF0.0
aF0.0
aF0.0
aF0.7
aF1.4
aF0.492
aF1.1
aF2.3
aF3.4
aF0.2
aF0.7
aF0.2
aF0.9
aF0.2
aF1.3
aF1.3
aF2.3
aF-0.5
aI0
aI0
aI5
aV203497,1610612762
p1652
aa(lp1653
I201566
aVRussell Westbrook
p1654
aI1610612760
aVOKC
p1655
aF25.0
aI46
aI34
aI12
aF0.739
aF30.7
aF7.5
aF17.2
aF0.437
aF1.5
aF4.7
aF0.318
aF5.3
aF6.4
aF0.826
aF1.2
aF4.5
aF5.7
aF6.9
aF3.8
aF1.9
aF0.2
aF0.8
aF2.3
aF4.5
aF21.8
aF4.8
aI11
aI2
aI5
aV201566,1610612760
p1656
aa(lp1657
I201583
aVRyan Anderson
p1658
aI1610612740
aVNOP
p1659
aF26.0
aI22
aI12
aI10
aF0.545
aF36.1
aF7.0
aF16.1
aF0.438
aF3.0
aF7.5
aF0.409
aF2.7
aF2.8
aF0.952
aF3.0
aF3.5
aF6.5
aF0.8
aF0.9
aF0.5
aF0.3
aF0.6
aF2.1
aF2.3
aF19.8
aF1.4
aI4
aI0
aI5
aV201583,1610612740
p1660
aa(lp1661
I101155
aVRyan Gomes
p1662
aI1610612760
aVOKC
p1663
aF31.0
aI5
aI3
aI2
aF0.6
aF6.9
aF0.6
aF1.6
aF0.375
aF0.0
aF0.4
aF0.0
aF0.0
aF0.0
aF0.0
aF0.0
aF0.8
aF0.8
aF0.2
aF0.2
aF0.0
aF0.0
aF0.2
aF1.0
aF0.0
aF1.2
aF1.4
aI0
aI0
aI5
aV101155,1610612760
p1664
aa(lp1665
I200797
aVRyan Hollins
p1666
aI1610612746
aVLAC
p1667
aF29.0
aI61
aI43
aI18
aF0.705
aF7.9
aF0.9
aF1.2
aF0.736
aF0.0
aF0.0
aF0.0
aF0.6
aF0.9
aF0.625
aF0.5
aF1.0
aF1.5
aF0.1
aF0.5
aF0.1
aF0.5
aF0.1
aF1.4
aF0.9
aF2.3
aF0.1
aI0
aI0
aI5
aV200797,1610612746
p1668
aa(lp1669
I203527
aVRyan Kelly
p1670
aI1610612747
aVLAL
p1671
aF23.0
aI59
aI15
aI44
aF0.254
aF22.2
aF2.7
aF6.3
aF0.423
aF0.8
aF2.4
aF0.338
aF1.9
aF2.3
aF0.815
aF0.7
aF3.0
aF3.7
aF1.6
aF0.8
aF0.5
aF0.8
aF0.4
aF2.5
aF2.1
aF8.0
aF-1.4
aI2
aI0
aI5
aV203527,1610612747
p1672
aa(lp1673
I2223
aVSamuel Dalembert
p1674
aI1610612742
aVDAL
p1675
aF34.0
aI80
aI48
aI32
aF0.6
aF20.2
aF2.7
aF4.7
aF0.568
aF0.0
aF0.0
aF0.0
aF1.3
aF1.7
aF0.737
aF2.5
aF4.3
aF6.8
aF0.5
aF1.1
aF0.5
aF1.2
aF0.5
aF2.6
aF1.3
aF6.6
aF0.2
aI5
aI0
aI5
aV2223,1610612742
p1676
aa(lp1677
I2756
aVSasha Vujacic
p1678
aI1610612746
aVLAC
p1679
aF30.0
aI2
aI1
aI1
aF0.5
aF5.2
aF1.0
aF2.5
aF0.4
aF0.5
aF1.0
aF0.5
aF0.0
aF0.0
aF0.0
aF0.0
aF1.5
aF1.5
aF0.0
aF1.5
aF0.5
aF0.0
aF0.5
aF0.5
aF0.5
aF2.5
aF-6.0
aI0
aI0
aI5
aV2756,1610612746
p1680
aa(lp1681
I203816
aVScotty Hopson
p1682
aI1610612739
aVCLE
p1683
aF24.0
aI2
aI2
aI0
aF1.0
aF3.4
aF0.0
aF2.0
aF0.0
aF0.0
aF1.0
aF0.0
aF0.5
aF1.0
aF0.5
aF0.0
aF0.0
aF0.0
aF0.5
aF0.0
aF0.5
aF0.0
aF0.5
aF0.0
aF0.5
aF0.5
aF-3.0
aI0
aI0
aI5
aV203816,1610612739
p1684
aa(lp1685
I201586
aVSerge Ibaka
p1686
aI1610612760
aVOKC
p1687
aF24.0
aI81
aI59
aI22
aF0.728
aF32.9
aF6.5
aF12.1
aF0.536
aF0.3
aF0.7
aF0.383
aF1.9
aF2.5
aF0.784
aF2.8
aF6.0
aF8.8
aF1.0
aF1.5
aF0.5
aF2.7
aF0.4
aF2.9
aF2.0
aF15.1
aF5.0
aI29
aI0
aI5
aV201586,1610612760
p1688
aa(lp1689
I203508
aVSergey Karasev
p1690
aI1610612739
aVCLE
p1691
aF20.0
aI22
aI7
aI15
aF0.318
aF7.1
aF0.5
aF1.6
aF0.343
aF0.2
aF0.9
aF0.211
aF0.4
aF0.5
aF0.9
aF0.0
aF0.7
aF0.7
aF0.3
aF0.5
aF0.1
aF0.0
aF0.0
aF1.0
aF0.5
aF1.7
aF-2.2
aI0
aI0
aI5
aV203508,1610612739
p1692
aa(lp1693
I203552
aVSeth Curry
p1694
aI1610612739
aVCLE
p1695
aF23.0
aI2
aI1
aI1
aF0.5
aF6.5
aF0.5
aF1.5
aF0.333
aF0.5
aF0.5
aF1.0
aF0.0
aF0.0
aF0.0
aF0.0
aF0.5
aF0.5
aF0.0
aF0.0
aF1.0
aF0.0
aF0.0
aF0.0
aF1.0
aF1.5
aF0.5
aI0
aI0
aI5
aV203552,1610612739
p1696
aa(lp1697
I203498
aVShabazz Muhammad
p1698
aI1610612750
aVMIN
p1699
aF21.0
aI37
aI21
aI16
aF0.568
aF7.8
aF1.5
aF3.4
aF0.46
aF0.1
aF0.3
aF0.273
aF0.7
aF1.1
aF0.65
aF0.6
aF0.8
aF1.4
aF0.2
aF0.4
aF0.2
aF0.0
aF0.4
aF0.6
aF0.8
aF3.9
aF-2.1
aI0
aI0
aI5
aV203498,1610612750
p1700
aa(lp1701
I2203
aVShane Battier
p1702
aI1610612748
aVMIA
p1703
aF35.0
aI73
aI49
aI24
aF0.671
aF20.1
aF1.4
aF3.8
aF0.382
aF1.0
aF2.9
aF0.348
aF0.2
aF0.3
aF0.652
aF0.5
aF1.4
aF1.9
aF0.9
aF0.3
aF0.7
aF0.5
aF0.1
aF1.7
aF0.9
aF4.1
aF2.7
aI0
aI0
aI5
aV2203,1610612748
p1704
aa(lp1705
I202197
aVShane Edwards
p1706
aI1610612739
aVCLE
p1707
aF27.0
aI2
aI0
aI2
aF0.0
aF5.9
aF0.5
aF1.5
aF0.333
aF0.0
aF0.0
aF0.0
aF0.0
aF0.0
aF0.0
aF0.5
aF0.5
aF1.0
aF0.0
aF0.5
aF0.0
aF0.0
aF0.5
aF0.5
aF0.5
aF1.0
aF-4.0
aI0
aI0
aI5
aV202197,1610612739
p1708
aa(lp1709
I203499
aVShane Larkin
p1710
aI1610612742
aVDAL
p1711
aF21.0
aI48
aI26
aI22
aF0.542
aF10.2
aF1.1
aF2.9
aF0.38
aF0.3
aF0.8
aF0.316
aF0.3
aF0.5
aF0.64
aF0.2
aF0.6
aF0.9
aF1.5
aF0.8
aF0.5
aF0.0
aF0.3
aF1.0
aF0.7
aF2.8
aF1.3
aI0
aI0
aI5
aV203499,1610612742
p1712
aa(lp1713
I200769
aVShannon Brown
p1714
aI1610612752
aVNYK
p1715
aF28.0
aI29
aI19
aI10
aF0.655
aF8.7
aF0.8
aF2.3
aF0.364
aF0.0
aF0.1
aF0.0
aF0.5
aF0.7
aF0.714
aF0.2
aF0.7
aF1.0
aF0.3
aF0.6
aF0.4
aF0.0
aF0.1
aF0.8
aF0.5
aF2.2
aF-2.4
aI0
aI0
aI5
aV200769,1610612752
p1716
aa(lp1717
I2733
aVShaun Livingston
p1718
aI1610612751
aVBKN
p1719
aF28.0
aI76
aI42
aI34
aF0.553
aF26.0
aF3.1
aF6.4
aF0.483
aF0.0
aF0.1
aF0.167
aF2.1
aF2.5
aF0.827
aF0.9
aF2.4
aF3.2
aF3.2
aF1.4
aF1.2
aF0.4
aF0.4
aF2.3
aF2.1
aF8.3
aF0.8
aI1
aI0
aI5
aV2733,1610612751
p1720
aa(lp1721
I101183
aVShavlik Randolph
p1722
aI1610612756
aVPHX
p1723
aF30.0
aI14
aI8
aI6
aF0.571
aF6.8
aF0.5
aF1.0
aF0.5
aF0.0
aF0.0
aF0.0
aF0.4
aF0.8
aF0.545
aF0.5
aF1.3
aF1.8
aF0.1
aF0.4
aF0.2
aF0.1
aF0.2
aF1.1
aF0.9
aF1.4
aF3.0
aI0
aI0
aI5
aV101183,1610612756
p1724
aa(lp1725
I1890
aVShawn Marion
p1726
aI1610612742
aVDAL
p1727
aF36.0
aI76
aI44
aI32
aF0.579
aF31.7
aF4.5
aF9.3
aF0.482
aF0.8
aF2.1
aF0.358
aF0.7
aF0.9
aF0.785
aF1.7
aF4.8
aF6.5
aF1.6
aF1.3
aF1.2
aF0.5
aF0.4
aF1.6
aF0.7
aF10.4
aF-1.8
aI9
aI0
aI5
aV1890,1610612742
p1728
aa(lp1729
I200761
aVShawne Williams
p1730
aI1610612747
aVLAL
p1731
aF28.0
aI36
aI14
aI22
aF0.389
aF20.9
aF2.0
aF5.3
aF0.38
aF1.2
aF3.6
aF0.326
aF0.4
aF0.6
aF0.7
aF0.7
aF3.9
aF4.6
aF0.8
aF0.6
aF0.5
aF0.8
aF0.2
aF2.6
aF0.6
aF5.6
aF0.7
aI1
aI0
aI5
aV200761,1610612747
p1732
aa(lp1733
I202714
aVShelvin Mack
p1734
aI1610612737
aVATL
p1735
aF24.0
aI73
aI33
aI40
aF0.452
aF20.4
aF2.9
aF6.9
aF0.417
aF0.8
aF2.5
aF0.337
aF0.9
aF1.0
aF0.865
aF0.3
aF1.9
aF2.2
aF3.7
aF1.2
aF0.7
aF0.0
aF0.4
aF1.4
aF0.9
aF7.5
aF-0.7
aI1
aI0
aI5
aV202714,1610612737
p1736
aa(lp1737
I203524
aVSolomon Hill
p1738
aI1610612754
aVIND
p1739
aF23.0
aI28
aI17
aI11
aF0.607
aF8.1
aF0.6
aF1.4
aF0.425
aF0.3
aF0.8
aF0.304
aF0.2
aF0.3
aF0.857
aF0.3
aF1.1
aF1.5
aF0.4
aF0.5
aF0.2
aF0.1
aF0.1
aF0.7
aF0.3
aF1.7
aF0.4
aI0
aI0
aI5
aV203524,1610612754
p1740
aa(lp1741
I200780
aVSolomon Jones
p1742
aI1610612753
aVORL
p1743
aF29.0
aI11
aI2
aI9
aF0.182
aF7.7
aF0.5
aF1.5
aF0.353
aF0.0
aF0.0
aF0.0
aF0.2
aF0.4
aF0.5
aF0.7
aF0.7
aF1.5
aF0.2
aF0.2
aF0.2
aF0.2
aF0.1
aF1.1
aF0.5
aF1.3
aF-2.3
aI0
aI0
aI5
aV200780,1610612753
p1744
aa(lp1745
I201150
aVSpencer Hawes
p1746
aI1610612739
aVCLE
p1747
aF26.0
aI80
aI26
aI54
aF0.325
aF30.9
aF5.0
aF11.0
aF0.456
aF1.6
aF3.9
aF0.416
aF1.5
aF1.9
aF0.783
aF1.6
aF6.6
aF8.3
aF3.0
aF2.2
aF0.6
aF1.2
aF0.7
aF3.0
aF2.1
aF13.2
aF-6.0
aI25
aI0
aI5
aV201150,1610612739
p1748
aa(lp1749
I201939
aVStephen Curry
p1750
aI1610612744
aVGSW
p1751
aF26.0
aI78
aI50
aI28
aF0.641
aF36.5
aF8.4
aF17.7
aF0.471
aF3.3
aF7.9
aF0.424
aF3.9
aF4.5
aF0.885
aF0.6
aF3.7
aF4.3
aF8.5
aF3.8
aF1.6
aF0.2
aF0.4
aF2.5
aF4.0
aF24.0
aF7.3
aI28
aI4
aI5
aV201939,1610612744
p1752
aa(lp1753
I1536
aVStephen Jackson
p1754
aI1610612746
aVLAC
p1755
aF36.0
aI9
aI6
aI3
aF0.667
aF11.9
aF0.7
aF2.9
aF0.231
aF0.1
aF1.6
aF0.071
aF0.2
aF0.4
aF0.5
aF0.2
aF0.9
aF1.1
aF0.6
aF0.7
aF0.7
aF0.1
aF0.0
aF1.2
aF0.8
aF1.7
aF2.8
aI0
aI0
aI5
aV1536,1610612746
p1756
aa(lp1757
I2581
aVSteve Blake
p1758
aI1610612744
aVGSW
p1759
aF34.0
aI55
aI31
aI24
aF0.564
aF27.2
aF2.4
aF6.4
aF0.377
aF1.4
aF3.8
aF0.376
aF0.6
aF0.8
aF0.767
aF0.2
aF2.7
aF2.9
aF5.6
aF1.9
aF1.0
aF0.1
aF0.1
aF1.5
aF1.4
aF6.9
aF-3.2
aI3
aI1
aI5
aV2581,1610612744
p1760
aa(lp1761
I959
aVSteve Nash
p1762
aI1610612747
aVLAL
p1763
aF40.0
aI15
aI4
aI11
aF0.267
aF20.8
aF2.4
aF6.3
aF0.383
aF0.5
aF1.6
aF0.333
aF1.5
aF1.6
aF0.917
aF0.3
aF1.7
aF1.9
aF5.7
aF2.1
aF0.5
aF0.1
aF0.3
aF1.2
aF1.4
aF6.8
aF-4.3
aI1
aI0
aI5
aV959,1610612747
p1764
aa(lp1765
I200779
aVSteve Novak
p1766
aI1610612761
aVTOR
p1767
aF31.0
aI54
aI28
aI26
aF0.519
aF10.0
aF1.1
aF2.7
aF0.411
aF1.0
aF2.3
aF0.426
aF0.1
aF0.1
aF1.0
aF0.1
aF0.9
aF1.1
aF0.2
aF0.1
aF0.2
aF0.1
aF0.0
aF0.8
aF0.2
aF3.3
aF1.4
aI0
aI0
aI5
aV200779,1610612761
p1768
aa(lp1769
I203500
aVSteven Adams
p1770
aI1610612760
aVOKC
p1771
aF20.0
aI81
aI59
aI22
aF0.728
aF14.8
aF1.1
aF2.3
aF0.503
aF0.0
aF0.0
aF0.0
aF1.0
aF1.7
aF0.581
aF1.8
aF2.3
aF4.1
aF0.5
aF0.9
aF0.5
aF0.7
aF0.2
aF2.5
aF1.5
aF3.3
aF0.7
aI1
aI0
aI5
aV203500,1610612760
p1772
aa(lp1773
I201959
aVTaj Gibson
p1774
aI1610612741
aVCHI
p1775
aF29.0
aI82
aI48
aI34
aF0.585
aF28.7
aF5.2
aF10.9
aF0.479
aF0.0
aF0.1
aF0.0
aF2.6
aF3.4
aF0.751
aF2.4
aF4.4
aF6.8
aF1.1
aF1.8
aF0.5
aF1.4
aF1.1
aF2.5
aF3.3
aF13.0
aF1.7
aI15
aI0
aI5
aV201959,1610612741
p1776
aa(lp1777
I2419
aVTayshaun Prince
p1778
aI1610612763
aVMEM
p1779
aF34.0
aI76
aI46
aI30
aF0.605
aF25.6
aF2.6
aF6.5
aF0.407
aF0.3
aF0.9
aF0.29
aF0.4
aF0.8
aF0.567
aF0.4
aF2.7
aF3.1
aF1.6
aF0.5
aF0.5
aF0.3
aF0.2
aF0.8
aF0.9
aF6.0
aF0.6
aI0
aI0
aI5
aV2419,1610612763
p1780
aa(lp1781
I203093
aVTerrence Jones
p1782
aI1610612745
aVHOU
p1783
aF22.0
aI76
aI51
aI25
aF0.671
aF27.3
aF5.1
aF9.4
aF0.542
aF0.4
aF1.3
aF0.307
aF1.6
aF2.6
aF0.605
aF2.1
aF4.8
aF6.9
aF1.1
aF0.9
aF0.7
aF1.3
aF0.8
aF1.8
aF2.0
aF12.1
aF1.6
aI18
aI0
aI5
aV203093,1610612745
p1784
aa(lp1785
I203082
aVTerrence Ross
p1786
aI1610612761
aVTOR
p1787
aF23.0
aI81
aI47
aI34
aF0.58
aF26.7
aF3.9
aF9.3
aF0.423
aF2.0
aF5.0
aF0.395
aF1.0
aF1.2
aF0.837
aF0.5
aF2.6
aF3.1
aF1.0
aF1.1
aF0.8
aF0.3
aF0.4
aF2.3
aF1.1
aF10.9
aF1.6
aI0
aI0
aI5
aV203082,1610612761
p1788
aa(lp1789
I200757
aVThabo Sefolosha
p1790
aI1610612760
aVOKC
p1791
aF30.0
aI61
aI44
aI17
aF0.721
aF26.0
aF2.3
aF5.6
aF0.415
aF0.8
aF2.5
aF0.316
aF0.9
aF1.1
aF0.768
aF0.8
aF2.8
aF3.6
aF1.5
aF0.9
aF1.3
aF0.3
aF0.3
aF1.5
aF0.9
aF6.3
aF2.0
aI0
aI0
aI5
aV200757,1610612760
p1792
aa(lp1793
I201152
aVThaddeus Young
p1794
aI1610612755
aVPHI
p1795
aF26.0
aI79
aI18
aI61
aF0.228
aF34.4
aF7.4
aF16.2
aF0.454
aF1.1
aF3.7
aF0.308
aF2.1
aF2.9
aF0.712
aF2.1
aF3.9
aF6.0
aF2.3
aF2.1
aF2.1
aF0.5
aF1.1
aF2.7
aF2.8
aF17.9
aF-8.2
aI11
aI0
aI5
aV201152,1610612755
p1796
aa(lp1797
I203080
aVThomas Robinson
p1798
aI1610612757
aVPOR
p1799
aF23.0
aI70
aI47
aI23
aF0.671
aF12.5
aF2.0
aF4.2
aF0.481
aF0.0
aF0.0
aF0.0
aF0.8
aF1.4
aF0.564
aF1.5
aF2.9
aF4.4
aF0.5
aF0.8
aF0.3
aF0.3
aF0.4
aF1.9
aF1.4
aF4.8
aF-1.2
aI1
aI0
aI5
aV203080,1610612757
p1800
aa(lp1801
I201168
aVTiago Splitter
p1802
aI1610612759
aVSAS
p1803
aF29.0
aI59
aI46
aI13
aF0.78
aF21.5
aF3.1
aF5.9
aF0.523
aF0.0
aF0.1
aF0.0
aF2.1
aF2.9
aF0.699
aF2.1
aF4.1
aF6.2
aF1.5
aF1.3
aF0.5
aF0.5
aF0.7
aF2.0
aF2.5
aF8.2
aF4.5
aI5
aI0
aI5
aV201168,1610612759
p1804
aa(lp1805
I1495
aVTim Duncan
p1806
aI1610612759
aVSAS
p1807
aF38.0
aI74
aI56
aI18
aF0.757
aF29.2
aF6.0
aF12.2
aF0.49
aF0.0
aF0.1
aF0.0
aF3.1
aF4.3
aF0.731
aF2.1
aF7.6
aF9.7
aF3.0
aF2.1
aF0.6
aF1.9
aF0.9
aF1.8
aF3.6
aF15.1
aF4.0
aI30
aI0
aI5
aV1495,1610612759
p1808
aa(lp1809
I203501
aVTim Hardaway Jr.
p1810
aI1610612752
aVNYK
p1811
aF22.0
aI81
aI37
aI44
aF0.457
aF23.2
aF3.6
aF8.5
aF0.428
aF1.6
aF4.4
aF0.363
aF1.3
aF1.6
aF0.828
aF0.2
aF1.3
aF1.5
aF0.8
aF0.6
aF0.5
aF0.1
aF0.3
aF1.8
aF1.2
aF10.2
aF-2.1
aI0
aI0
aI5
aV203501,1610612752
p1812
aa(lp1813
I202389
aVTimofey Mozgov
p1814
aI1610612743
aVDEN
p1815
aF27.0
aI82
aI36
aI46
aF0.439
aF21.6
aF3.5
aF6.6
aF0.523
aF0.0
aF0.3
aF0.167
aF2.4
aF3.2
aF0.754
aF2.1
aF4.4
aF6.4
aF0.8
aF1.5
aF0.3
aF1.2
aF0.6
aF2.6
aF2.8
aF9.4
aF0.3
aI10
aI0
aI5
aV202389,1610612743
p1816
aa(lp1817
I202699
aVTobias Harris
p1818
aI1610612753
aVORL
p1819
aF21.0
aI61
aI16
aI45
aF0.262
aF30.3
aF5.4
aF11.7
aF0.464
aF0.5
aF2.1
aF0.254
aF3.2
aF4.0
aF0.807
aF1.4
aF5.5
aF7.0
aF1.3
aF1.3
aF0.7
aF0.4
aF0.9
aF2.3
aF2.6
aF14.6
aF-3.8
aI7
aI0
aI5
aV202699,1610612753
p1820
aa(lp1821
I201962
aVToney Douglas
p1822
aI1610612748
aVMIA
p1823
aF28.0
aI51
aI33
aI18
aF0.647
aF13.2
aF1.4
aF3.7
aF0.384
aF0.6
aF2.0
aF0.304
aF0.5
aF0.7
aF0.735
aF0.4
aF1.4
aF1.7
aF1.3
aF0.7
aF0.4
aF0.1
aF0.3
aF1.6
aF0.8
aF4.0
aF-0.3
aI0
aI0
aI5
aV201962,1610612748
p1824
aa(lp1825
I2754
aVTony Allen
p1826
aI1610612763
aVMEM
p1827
aF32.0
aI55
aI31
aI24
aF0.564
aF23.2
aF3.7
aF7.5
aF0.494
aF0.2
aF0.9
aF0.234
aF1.4
aF2.2
aF0.628
aF1.4
aF2.3
aF3.8
aF1.7
aF1.6
aF1.6
aF0.3
aF0.6
aF2.2
aF1.6
aF9.0
aF1.7
aI1
aI0
aI5
aV2754,1610612763
p1828
aa(lp1829
I203502
aVTony Mitchell
p1830
aI1610612765
aVDET
p1831
aF22.0
aI21
aI6
aI15
aF0.286
aF3.8
aF0.2
aF0.6
aF0.417
aF0.0
aF0.0
aF1.0
aF0.5
aF0.9
aF0.579
aF0.7
aF0.5
aF1.2
aF0.1
aF0.2
aF0.3
aF0.1
aF0.2
aF0.4
aF0.5
aF1.0
aF0.3
aI0
aI0
aI5
aV203502,1610612765
p1832
aa(lp1833
I203183
aVTony Mitchell
p1834
aI1610612749
aVMIL
p1835
aF24.0
aI3
aI0
aI3
aF0.0
aF3.3
aF1.0
aF1.7
aF0.6
aF0.0
aF0.3
aF0.0
aF0.0
aF0.0
aF0.0
aF0.3
aF0.0
aF0.3
aF0.3
aF0.0
aF0.3
aF0.0
aF0.0
aF0.0
aF0.0
aF2.0
aF0.7
aI0
aI0
aI5
aV203183,1610612749
p1836
aa(lp1837
I2225
aVTony Parker
p1838
aI1610612759
aVSAS
p1839
aF32.0
aI68
aI51
aI17
aF0.75
aF29.4
aF6.7
aF13.4
aF0.499
aF0.4
aF1.0
aF0.373
aF2.9
aF3.6
aF0.811
aF0.3
aF2.0
aF2.3
aF5.7
aF2.2
aF0.5
aF0.1
aF0.8
aF1.3
aF2.9
aF16.7
aF4.0
aI2
aI0
aI5
aV2225,1610612759
p1840
aa(lp1841
I203503
aVTony Snell
p1842
aI1610612741
aVCHI
p1843
aF22.0
aI77
aI46
aI31
aF0.597
aF16.0
aF1.7
aF4.4
aF0.384
aF0.7
aF2.3
aF0.32
aF0.4
aF0.5
aF0.756
aF0.2
aF1.4
aF1.6
aF0.9
aF0.6
aF0.4
aF0.2
aF0.3
aF1.1
aF0.5
aF4.5
aF-1.5
aI0
aI0
aI5
aV203503,1610612741
p1844
aa(lp1845
I203100
aVTony Wroten
p1846
aI1610612755
aVPHI
p1847
aF21.0
aI72
aI18
aI54
aF0.25
aF24.5
aF4.8
aF11.2
aF0.427
aF0.6
aF2.6
aF0.213
aF2.9
aF4.5
aF0.641
aF1.0
aF2.2
aF3.2
aF3.0
aF2.8
aF1.1
aF0.2
aF1.1
aF2.1
aF3.3
aF13.0
aF-6.1
aI1
aI1
aI5
aV203100,1610612755
p1848
aa(lp1849
I203129
aVTornike Shengelia
p1850
aI1610612741
aVCHI
p1851
aF22.0
aI26
aI14
aI12
aF0.538
aF6.0
aF0.5
aF1.1
aF0.464
aF0.0
aF0.2
aF0.0
aF0.1
aF0.3
aF0.375
aF0.2
aF0.5
aF0.6
aF0.5
aF0.5
aF0.1
aF0.0
aF0.2
aF0.7
aF0.3
aF1.1
aF-1.3
aI0
aI0
aI5
aV203129,1610612741
p1852
aa(lp1853
I203315
aVToure Murry
p1854
aI1610612752
aVNYK
p1855
aF24.0
aI51
aI26
aI25
aF0.51
aF7.3
aF1.1
aF2.5
aF0.434
aF0.1
aF0.2
aF0.417
aF0.5
aF0.8
aF0.59
aF0.3
aF0.6
aF0.9
aF1.0
aF0.7
aF0.4
aF0.0
aF0.2
aF0.9
aF0.6
aF2.7
aF-0.6
aI0
aI0
aI5
aV203315,1610612752
p1856
aa(lp1857
I2566
aVTravis Outlaw
p1858
aI1610612758
aVSAC
p1859
aF29.0
aI63
aI22
aI41
aF0.349
aF16.9
aF2.1
aF5.2
aF0.399
aF0.7
aF1.9
aF0.35
aF0.7
aF0.8
aF0.808
aF0.6
aF2.1
aF2.7
aF0.8
aF0.4
aF0.3
aF0.3
aF0.2
aF1.5
aF0.7
aF5.4
aF-1.7
aI1
aI0
aI5
aV2566,1610612758
p1860
aa(lp1861
I2772
aVTrevor Ariza
p1862
aI1610612764
aVWAS
p1863
aF28.0
aI77
aI41
aI36
aF0.532
aF35.4
aF5.1
aF11.1
aF0.456
aF2.3
aF5.7
aF0.407
aF1.9
aF2.5
aF0.772
aF1.3
aF4.9
aF6.2
aF2.5
aF1.7
aF1.6
aF0.3
aF0.6
aF2.3
aF2.1
aF14.4
aF2.5
aI11
aI0
aI5
aV2772,1610612764
p1864
aa(lp1865
I202344
aVTrevor Booker
p1866
aI1610612764
aVWAS
p1867
aF26.0
aI72
aI36
aI36
aF0.5
aF21.6
aF3.1
aF5.6
aF0.551
aF0.0
aF0.0
aF0.0
aF0.7
aF1.1
aF0.618
aF2.1
aF3.2
aF5.3
aF0.9
aF0.8
aF0.6
aF0.6
aF0.3
aF1.8
aF0.9
aF6.8
aF-0.8
aI5
aI0
aI5
aV202344,1610612764
p1868
aa(lp1869
I203504
aVTrey Burke
p1870
aI1610612762
aVUTA
p1871
aF21.0
aI70
aI24
aI46
aF0.343
aF32.3
aF4.9
aF12.8
aF0.38
aF1.6
aF4.8
aF0.33
aF1.5
aF1.6
aF0.903
aF0.5
aF2.4
aF3.0
aF5.7
aF1.9
aF0.6
aF0.1
aF0.4
aF2.1
aF1.4
aF12.8
aF-3.7
aI8
aI0
aI5
aV203504,1610612762
p1872
aa(lp1873
I202684
aVTristan Thompson
p1874
aI1610612739
aVCLE
p1875
aF23.0
aI82
aI33
aI49
aF0.402
aF31.6
aF4.4
aF9.3
aF0.477
aF0.0
aF0.0
aF0.0
aF2.9
aF4.1
aF0.693
aF3.3
aF5.9
aF9.2
aF0.9
aF1.3
aF0.5
aF0.4
aF1.2
aF2.3
aF3.1
aF11.7
aF-2.8
aI36
aI0
aI5
aV202684,1610612739
p1876
aa(lp1877
I203584
aVTroy Daniels
p1878
aI1610612745
aVHOU
p1879
aF22.0
aI5
aI3
aI2
aF0.6
aF15.0
aF3.0
aF6.2
aF0.484
aF2.4
aF5.0
aF0.48
aF0.0
aF0.0
aF0.0
aF0.0
aF0.8
aF0.8
aF1.0
aF0.6
aF0.0
aF0.0
aF0.2
aF1.2
aF0.4
aF8.4
aF5.6
aI0
aI0
aI5
aV203584,1610612745
p1880
aa(lp1881
I201951
aVTy Lawson
p1882
aI1610612743
aVDEN
p1883
aF26.0
aI62
aI29
aI33
aF0.468
aF35.8
aF5.6
aF13.0
aF0.431
aF1.2
aF3.3
aF0.356
aF5.2
aF6.5
aF0.798
aF0.6
aF2.8
aF3.5
aF8.8
aF3.2
aF1.6
aF0.2
aF0.9
aF1.8
aF5.0
aF17.6
aF-0.8
aI23
aI0
aI5
aV201951,1610612743
p1884
aa(lp1885
I201946
aVTyler Hansbrough
p1886
aI1610612761
aVTOR
p1887
aF28.0
aI64
aI38
aI26
aF0.594
aF15.3
aF1.5
aF3.1
aF0.474
aF0.0
aF0.0
aF0.0
aF2.0
aF2.9
aF0.681
aF1.9
aF2.6
aF4.5
aF0.3
aF0.7
aF0.4
aF0.3
aF0.3
aF2.1
aF2.4
aF4.9
aF-0.1
aI1
aI0
aI5
aV201946,1610612761
p1888
aa(lp1889
I203092
aVTyler Zeller
p1890
aI1610612739
aVCLE
p1891
aF24.0
aI70
aI27
aI43
aF0.386
aF15.0
aF2.2
aF4.1
aF0.538
aF0.0
aF0.0
aF0.0
aF1.2
aF1.7
aF0.719
aF1.5
aF2.6
aF4.0
aF0.5
aF0.9
aF0.3
aF0.5
aF0.4
aF2.0
aF1.5
aF5.7
aF-0.1
aI3
aI0
aI5
aV203092,1610612739
p1892
aa(lp1893
I201936
aVTyreke Evans
p1894
aI1610612740
aVNOP
p1895
aF24.0
aI72
aI32
aI40
aF0.444
aF28.2
aF5.4
aF12.5
aF0.436
aF0.3
aF1.3
aF0.221
aF3.3
aF4.3
aF0.771
aF1.1
aF3.7
aF4.7
aF5.0
aF2.4
aF1.2
aF0.3
aF1.4
aF2.2
aF3.3
aF14.5
aF-2.8
aI10
aI1
aI5
aV201936,1610612740
p1896
aa(lp1897
I203116
aVTyshawn Taylor
p1898
aI1610612751
aVBKN
p1899
aF24.0
aI23
aI11
aI12
aF0.478
aF11.7
aF1.3
aF4.0
aF0.341
aF0.1
aF0.5
aF0.25
aF1.0
aF1.3
aF0.8
aF0.1
aF0.5
aF0.7
aF1.6
aF1.3
aF0.5
aF0.0
aF0.3
aF1.3
aF0.8
aF3.9
aF-5.8
aI1
aI0
aI5
aV203116,1610612751
p1900
aa(lp1901
I2199
aVTyson Chandler
p1902
aI1610612752
aVNYK
p1903
aF31.0
aI55
aI24
aI31
aF0.436
aF30.2
aF3.5
aF5.9
aF0.593
aF0.0
aF0.0
aF0.0
aF1.8
aF2.8
aF0.632
aF2.9
aF6.7
aF9.6
aF1.1
aF1.3
aF0.7
aF1.1
aF0.3
aF2.6
aF2.8
aF8.7
aF0.3
aI16
aI0
aI5
aV2199,1610612752
p1904
aa(lp1905
I2617
aVUdonis Haslem
p1906
aI1610612748
aVMIA
p1907
aF34.0
aI46
aI30
aI16
aF0.652
aF14.2
aF1.6
aF3.2
aF0.507
aF0.0
aF0.0
aF0.0
aF0.5
aF1.0
aF0.568
aF0.9
aF2.9
aF3.8
aF0.3
aF0.5
aF0.2
aF0.3
aF0.2
aF1.7
aF1.3
aF3.8
aF-1.5
aI0
aI0
aI5
aV2617,1610612748
p1908
aa(lp1909
I203505
aVVander Blue
p1910
aI1610612738
aVBOS
p1911
aF21.0
aI3
aI1
aI2
aF0.333
aF4.9
aF0.7
aF1.3
aF0.5
aF0.0
aF0.3
aF0.0
aF0.3
aF1.7
aF0.2
aF0.0
aF1.0
aF1.0
aF0.3
aF0.7
aF0.0
aF0.0
aF0.0
aF0.3
aF0.7
aF1.7
aF2.0
aI0
aI0
aI5
aV203505,1610612738
p1912
aa(lp1913
I203139
aVViacheslav Kravtsov
p1914
aI1610612756
aVPHX
p1915
aF26.0
aI20
aI13
aI7
aF0.65
aF3.0
aF0.4
aF0.8
aF0.533
aF0.0
aF0.0
aF0.0
aF0.2
aF0.4
aF0.5
aF0.5
aF0.4
aF0.9
aF0.1
aF0.3
aF0.0
aF0.1
aF0.2
aF0.4
aF0.2
aF1.0
aF-2.2
aI0
aI0
aI5
aV203139,1610612756
p1916
aa(lp1917
I201964
aVVictor Claver
p1918
aI1610612757
aVPOR
p1919
aF25.0
aI21
aI13
aI8
aF0.619
aF8.7
aF0.8
aF2.0
aF0.405
aF0.1
aF0.9
aF0.167
aF0.5
aF0.5
aF0.909
aF0.4
aF1.4
aF1.9
aF0.6
aF0.5
aF0.1
aF0.1
aF0.1
aF0.8
aF0.4
aF2.2
aF1.0
aI0
aI0
aI5
aV201964,1610612757
p1920
aa(lp1921
I203506
aVVictor Oladipo
p1922
aI1610612753
aVORL
p1923
aF22.0
aI80
aI23
aI57
aF0.288
aF31.1
aF4.9
aF11.7
aF0.419
aF0.9
aF2.8
aF0.327
aF3.1
aF4.0
aF0.78
aF0.5
aF3.6
aF4.1
aF4.1
aF3.2
aF1.6
aF0.5
aF1.1
aF2.6
aF3.4
aF13.8
aF-3.4
aI7
aI1
aI5
aV203506,1610612753
p1924
aa(lp1925
I1713
aVVince Carter
p1926
aI1610612742
aVDAL
p1927
aF37.0
aI81
aI49
aI32
aF0.605
aF24.4
aF4.1
aF10.0
aF0.407
aF1.8
aF4.6
aF0.394
aF2.0
aF2.4
aF0.821
aF0.8
aF2.7
aF3.5
aF2.6
aF1.3
aF0.8
aF0.4
aF0.3
aF2.6
aF2.5
aF11.9
aF2.1
aI1
aI0
aI5
aV1713,1610612742
p1928
aa(lp1929
I203543
aVVitor Faverani
p1930
aI1610612738
aVBOS
p1931
aF26.0
aI37
aI13
aI24
aF0.351
aF13.2
aF1.7
aF4.0
aF0.435
aF0.3
aF1.1
aF0.3
aF0.6
aF1.0
aF0.649
aF1.1
aF2.3
aF3.5
aF0.4
aF1.1
aF0.4
aF0.7
aF0.4
aF2.0
aF0.9
aF4.4
aF-2.7
aI1
aI0
aI5
aV203543,1610612738
p1932
aa(lp1933
I201961
aVWayne Ellington
p1934
aI1610612742
aVDAL
p1935
aF26.0
aI45
aI23
aI22
aF0.511
aF8.7
aF1.2
aF2.8
aF0.437
aF0.6
aF1.3
aF0.424
aF0.2
aF0.2
aF0.909
aF0.2
aF0.8
aF1.0
aF0.4
aF0.2
aF0.4
aF0.0
aF0.1
aF0.7
aF0.3
aF3.2
aF-0.6
aI0
aI0
aI5
aV201961,1610612742
p1936
aa(lp1937
I202325
aVWesley Johnson
p1938
aI1610612747
aVLAL
p1939
aF26.0
aI79
aI27
aI52
aF0.342
aF28.4
aF3.5
aF8.2
aF0.425
aF1.3
aF3.4
aF0.369
aF0.8
aF1.0
aF0.792
aF0.9
aF3.5
aF4.4
aF1.6
aF1.1
aF1.1
aF1.0
aF0.3
aF2.6
aF0.8
aF9.1
aF-4.7
aI4
aI0
aI5
aV202325,1610612747
p1940
aa(lp1941
I202083
aVWesley Matthews
p1942
aI1610612757
aVPOR
p1943
aF27.0
aI82
aI54
aI28
aF0.659
aF33.9
aF5.4
aF12.3
aF0.441
aF2.5
aF6.2
aF0.393
aF3.1
aF3.7
aF0.837
aF0.6
aF2.9
aF3.5
aF2.4
aF1.3
aF0.9
aF0.2
aF0.5
aF2.1
aF3.5
aF16.4
aF3.8
aI1
aI0
aI5
aV202083,1610612757
p1944
aa(lp1945
I203115
aVWill Barton
p1946
aI1610612757
aVPOR
p1947
aF23.0
aI41
aI27
aI14
aF0.659
aF9.4
aF1.6
aF3.8
aF0.417
aF0.2
aF0.8
aF0.303
aF0.6
aF0.8
aF0.813
aF0.4
aF1.4
aF1.8
aF0.8
aF0.4
aF0.2
aF0.2
aF0.2
aF0.8
aF0.6
aF4.0
aF-0.4
aI2
aI0
aI5
aV203115,1610612757
p1948
aa(lp1949
I101198
aVWill Bynum
p1950
aI1610612765
aVDET
p1951
aF31.0
aI56
aI17
aI39
aF0.304
aF18.8
aF3.3
aF7.7
aF0.428
aF0.4
aF1.1
aF0.323
aF1.7
aF2.2
aF0.802
aF0.4
aF1.3
aF1.8
aF3.9
aF1.8
aF0.7
aF0.1
aF0.6
aF2.2
aF1.7
aF8.7
aF-1.9
aI1
aI0
aI5
aV101198,1610612765
p1952
aa(lp1953
I2584
aVWillie Green
p1954
aI1610612746
aVLAC
p1955
aF32.0
aI55
aI38
aI17
aF0.691
aF15.8
aF1.9
aF4.9
aF0.376
aF0.7
aF2.2
aF0.339
aF0.5
aF0.6
aF0.824
aF0.2
aF1.2
aF1.4
aF0.9
aF0.6
aF0.4
aF0.2
aF0.1
aF1.7
aF0.6
aF5.0
aF1.5
aI0
aI0
aI5
aV2584,1610612746
p1956
aa(lp1957
I201163
aVWilson Chandler
p1958
aI1610612743
aVDEN
p1959
aF27.0
aI62
aI27
aI35
aF0.435
aF31.1
aF5.0
aF11.9
aF0.416
aF2.0
aF5.7
aF0.348
aF1.8
aF2.5
aF0.724
aF0.9
aF3.8
aF4.7
aF1.8
aF1.3
aF0.7
aF0.5
aF0.5
aF3.1
aF1.7
aF13.6
aF-2.8
aI2
aI0
aI5
aV201163,1610612743
p1960
aa(lp1961
I202333
aVXavier Henry
p1962
aI1610612747
aVLAL
p1963
aF23.0
aI43
aI16
aI27
aF0.372
aF21.1
aF3.3
aF8.0
aF0.417
aF0.7
aF1.9
aF0.346
aF2.7
aF4.1
aF0.655
aF0.6
aF2.1
aF2.7
aF1.2
aF1.3
aF1.0
aF0.2
aF0.7
aF1.8
aF3.1
aF10.0
aF-0.9
aI0
aI0
aI5
aV202333,1610612747
p1964
aa(lp1965
I2216
aVZach Randolph
p1966
aI1610612763
aVMEM
p1967
aF32.0
aI79
aI49
aI30
aF0.62
aF34.2
aF7.1
aF15.2
aF0.467
aF0.0
aF0.3
aF0.1
aF3.2
aF4.3
aF0.742
aF3.4
aF6.7
aF10.1
aF2.5
aF2.3
aF0.7
aF0.3
aF1.5
aF2.7
aF4.2
aF17.4
aF2.2
aI47
aI0
aI5
aV2216,1610612763
p1968
aa(lp1969
I2585
aVZaza Pachulia
p1970
aI1610612749
aVMIL
p1971
aF30.0
aI53
aI10
aI43
aF0.189
aF25.0
aF2.8
aF6.6
aF0.427
aF0.0
aF0.0
aF0.0
aF2.1
aF2.5
aF0.846
aF2.7
aF3.6
aF6.3
aF2.6
aF1.7
aF0.8
aF0.3
aF0.7
aF2.3
aF2.5
aF7.7
aF-3.4
aI4
aI0
aI5
aV2585,1610612749
p1972
aasVname
p1973
VLeagueDashPlayerStats
p1974
sasVparameters
p1975
(dp1976
VConference
p1977
NsVPlusMinus
p1978
VN
p1979
sVGameScope
p1980
NsVTeamID
p1981
I0
sVHeight
p1982
NsVLocation
p1983
NsVStarterBench
p1984
NsVShotClockRange
p1985
NsVSeasonType
p1986
VRegular Season
p1987
sVDivision
p1988
NsVSeason
p1989
V2013-14
p1990
sVPaceAdjust
p1991
VN
p1992
sVDraftYear
p1993
NsVDateFrom
p1994
NsVPlayerPosition
p1995
NsVCountry
p1996
NsVVsConference
p1997
NsVOpponentTeamID
p1998
I0
sVDateTo
p1999
NsVGameSegment
p2000
NsVDraftPick
p2001
NsVLastNGames
p2002
I0
sVPlayerExperience
p2003
NsVVsDivision
p2004
NsVLeagueID
p2005
V00
p2006
sVOutcome
p2007
NsVMeasureType
p2008
VBase
p2009
sVWeight
p2010
NsVPORound
p2011
I0
sVPerMode
p2012
VPerGame
p2013
sVSeasonSegment
p2014
NsVPeriod
p2015
I0
sVRank
p2016
VN
p2017
sVMonth
p2018
I0
sVCollege
p2019
Nss.