(dp0
Vresource
p1
Vleaguedashplayerstats
p2
sVresultSets
p3
(lp4
(dp5
Vheaders
p6
(lp7
VPLAYER_ID
p8
aVPLAYER_NAME
p9
aVTEAM_ID
p10
aVTEAM_ABBREVIATION
p11
aVAGE
p12
aVGP
p13
aVW
p14
aVL
p15
aVW_PCT
p16
aVMIN
p17
aVFGM
p18
aVFGA
p19
aVFG_PCT
p20
aVFG3M
p21
aVFG3A
p22
aVFG3_PCT
p23
aVFTM
p24
aVFTA
p25
aVFT_PCT
p26
aVOREB
p27
aVDREB
p28
aVREB
p29
aVAST
p30
aVTOV
p31
aVSTL
p32
aVBLK
p33
aVBLKA
p34
aVPF
p35
aVPFD
p36
aVPTS
p37
aVPLUS_MINUS
p38
aVDD2
p39
aVTD3
p40
aVCFID
p41
aVCFPARAMS
p42
asVrowSet
p43
(lp44
(lp45
I201166
aVAaron Brooks
p46
aI1610612741
aVCHI
p47
aF31.0
aI69
aI36
aI33
aF0.522
aF16.1
aF2.7
aF6.8
aF0.401
aF1.0
aF2.7
aF0.357
aF0.7
aF0.9
aF0.766
aF0.3
aF1.2
aF1.5
aF2.6
aF1.2
aF0.4
aF0.1
aF0.5
aF1.9
aF1.1
aF7.1
aF-0.1
aI0
aI0
aI5
aV201166,1610612741
p48
aa(lp49
I203932
aVAaron Gordon
p50
aI1610612753
aVORL
p51
aF20.0
aI78
aI32
aI46
aF0.41
aF23.9
aF3.5
aF7.4
aF0.473
aF0.5
aF1.8
aF0.296
aF1.7
aF2.5
aF0.668
aF2.0
aF4.5
aF6.5
aF1.6
aF0.8
aF0.8
aF0.7
aF0.4
aF2.0
aF1.9
aF9.2
aF-1.0
aI12
aI0
aI5
aV203932,1610612753
p52
aa(lp53
I1626151
aVAaron Harrison
p54
aI1610612766
aVCHA
p55
aF21.0
aI21
aI15
aI6
aF0.714
aF4.4
aF0.2
aF0.9
aF0.263
aF0.1
aF0.5
aF0.3
aF0.2
aF0.6
aF0.417
aF0.2
aF0.5
aF0.7
aF0.1
aF0.2
aF0.3
aF0.0
aF0.0
aF0.5
aF0.4
aF0.9
aF-0.3
aI0
aI0
aI5
aV1626151,1610612766
p56
aa(lp57
I203940
aVAdreian Payne
p58
aI1610612750
aVMIN
p59
aF25.0
aI52
aI18
aI34
aF0.346
aF9.3
aF1.0
aF2.8
aF0.366
aF0.2
aF0.6
aF0.281
aF0.3
aF0.5
aF0.654
aF0.4
aF1.8
aF2.1
aF0.6
aF0.7
aF0.3
aF0.2
aF0.2
aF1.5
aF0.6
aF2.5
aF-2.3
aI0
aI0
aI5
aV203940,1610612750
p60
aa(lp61
I201143
aVAl Horford
p62
aI1610612737
aVATL
p63
aF30.0
aI82
aI48
aI34
aF0.585
aF32.1
aF6.5
aF12.8
aF0.505
aF1.1
aF3.1
aF0.344
aF1.3
aF1.6
aF0.798
aF1.8
aF5.5
aF7.3
aF3.2
aF1.3
aF0.8
aF1.5
aF0.4
aF2.0
aF1.4
aF15.2
aF2.8
aI17
aI0
aI5
aV201143,1610612737
p64
aa(lp65
I2744
aVAl Jefferson
p66
aI1610612766
aVCHA
p67
aF31.0
aI47
aI33
aI14
aF0.702
aF23.3
aF5.2
aF10.7
aF0.485
aF0.0
aF0.0
aF0.0
aF1.5
aF2.4
aF0.649
aF1.2
aF5.2
aF6.4
aF1.5
aF0.7
aF0.6
aF0.9
aF0.8
aF2.5
aF1.7
aF12.0
aF1.0
aI7
aI0
aI5
aV2744,1610612766
p68
aa(lp69
I202329
aVAl-Farouq Aminu
p70
aI1610612757
aVPOR
p71
aF25.0
aI82
aI44
aI38
aF0.537
aF28.5
aF3.6
aF8.8
aF0.416
aF1.5
aF4.3
aF0.361
aF1.4
aF1.9
aF0.737
aF1.2
aF4.9
aF6.1
aF1.7
aF1.5
aF0.9
aF0.6
aF0.4
aF2.1
aF1.7
aF10.2
aF0.7
aI8
aI0
aI5
aV202329,1610612757
p72
aa(lp73
I101187
aVAlan Anderson
p74
aI1610612764
aVWAS
p75
aF33.0
aI13
aI8
aI5
aF0.615
aF14.8
aF1.6
aF4.5
aF0.356
aF0.9
aF2.8
aF0.324
aF0.8
aF1.2
aF0.733
aF0.1
aF2.0
aF2.1
aF1.1
aF0.2
aF0.3
aF0.1
aF0.2
aF1.9
aF0.8
aF5.0
aF2.3
aI0
aI0
aI5
aV101187,1610612764
p76
aa(lp77
I1626210
aVAlan Williams
p78
aI1610612756
aVPHX
p79
aF23.0
aI10
aI3
aI7
aF0.3
aF6.8
aF1.0
aF2.4
aF0.417
aF0.0
aF0.0
aF0.0
aF0.9
aF1.4
aF0.643
aF1.4
aF2.4
aF3.8
aF0.5
aF0.6
aF0.4
aF0.5
aF0.3
aF1.5
aF1.2
aF2.9
aF0.1
aI1
aI0
aI5
aV1626210,1610612756
p80
aa(lp81
I202692
aVAlec Burks
p82
aI1610612762
aVUTA
p83
aF24.0
aI31
aI13
aI18
aF0.419
aF25.7
aF4.4
aF10.8
aF0.41
aF1.0
aF2.5
aF0.405
aF3.4
aF4.5
aF0.752
aF0.5
aF3.0
aF3.5
aF2.0
aF1.6
aF0.6
aF0.1
aF0.9
aF2.3
aF3.5
aF13.3
aF-0.4
aI0
aI0
aI5
aV202692,1610612762
p84
aa(lp85
I203458
aVAlex Len
p86
aI1610612756
aVPHX
p87
aF23.0
aI78
aI23
aI55
aF0.295
aF23.3
aF3.4
aF8.0
aF0.423
aF0.0
aF0.1
aF0.143
aF2.2
aF3.1
aF0.728
aF2.3
aF5.3
aF7.6
aF1.2
aF1.9
aF0.5
aF0.8
aF0.8
aF2.9
aF2.3
aF9.0
aF-3.7
aI19
aI0
aI5
aV203458,1610612756
p88
aa(lp89
I1627293
aVAlex Stepheson
p90
aI1610612763
aVMEM
p91
aF28.0
aI8
aI2
aI6
aF0.25
aF9.0
aF1.1
aF3.4
aF0.333
aF0.0
aF0.0
aF0.0
aF0.5
aF1.5
aF0.333
aF2.4
aF1.1
aF3.5
aF0.3
aF0.0
aF0.1
aF0.6
aF0.8
aF1.5
aF1.0
aF2.8
aF-0.3
aI1
aI0
aI5
aV1627293,1610612763
p92
aa(lp93
I201582
aVAlexis Ajinca
p94
aI1610612740
aVNOP
p95
aF28.0
aI59
aI20
aI39
aF0.339
aF14.6
aF2.5
aF5.3
aF0.476
aF0.0
aF0.0
aF0.0
aF0.9
aF1.1
aF0.839
aF1.3
aF3.3
aF4.6
aF0.5
aF0.9
aF0.3
aF0.6
aF0.2
aF2.3
aF1.2
aF6.0
aF-1.1
aI4
aI0
aI5
aV201582,1610612740
p96
aa(lp97
I203459
aVAllen Crabbe
p98
aI1610612757
aVPOR
p99
aF24.0
aI81
aI43
aI38
aF0.531
aF26.0
aF3.8
aF8.4
aF0.459
aF1.4
aF3.5
aF0.393
aF1.2
aF1.4
aF0.867
aF0.3
aF2.3
aF2.7
aF1.2
aF0.8
aF0.8
aF0.2
aF0.2
aF2.4
aF1.0
aF10.3
aF0.5
aI0
aI0
aI5
aV203459,1610612757
p100
aa(lp101
I202087
aVAlonzo Gee
p102
aI1610612740
aVNOP
p103
aF29.0
aI73
aI27
aI46
aF0.37
aF22.4
aF1.8
aF3.5
aF0.518
aF0.2
aF0.8
aF0.283
aF0.6
aF0.9
aF0.667
aF0.8
aF2.5
aF3.4
aF1.0
aF0.8
aF0.9
aF0.2
aF0.3
aF2.3
aF0.7
aF4.5
aF-2.7
aI0
aI0
aI5
aV202087,1610612740
p104
aa(lp105
I2405
aVAmar'e Stoudemire
p106
aI1610612748
aVMIA
p107
aF33.0
aI52
aI30
aI22
aF0.577
aF14.7
aF2.4
aF4.3
aF0.566
aF0.0
aF0.0
aF0.0
aF1.0
aF1.3
aF0.746
aF1.3
aF3.0
aF4.3
aF0.5
aF0.9
aF0.3
aF0.8
aF0.6
aF1.8
aF1.4
aF5.8
aF0.2
aI2
aI0
aI5
aV2405,1610612748
p108
aa(lp109
I101161
aVAmir Johnson
p110
aI1610612738
aVBOS
p111
aF29.0
aI79
aI45
aI34
aF0.57
aF22.8
aF3.2
aF5.4
aF0.585
aF0.1
aF0.5
aF0.233
aF0.9
aF1.5
aF0.57
aF2.3
aF4.1
aF6.4
aF1.7
aF1.2
aF0.7
aF1.1
aF0.3
aF2.7
aF1.5
aF7.3
aF1.7
aI8
aI0
aI5
aV101161,1610612738
p112
aa(lp113
I2760
aVAnderson Varejao
p114
aI1610612744
aVGSW
p115
aF33.0
aI53
aI41
aI12
aF0.774
aF9.4
aF1.0
aF2.3
aF0.427
aF0.0
aF0.0
aF0.0
aF0.6
aF0.9
aF0.64
aF0.7
aF2.0
aF2.7
aF0.7
aF0.4
aF0.3
aF0.2
aF0.1
aF1.3
aF1.2
aF2.6
aF0.4
aI0
aI0
aI5
aV2760,1610612744
p116
aa(lp117
I203083
aVAndre Drummond
p118
aI1610612765
aVDET
p119
aF22.0
aI81
aI43
aI38
aF0.531
aF32.9
aF6.8
aF13.1
aF0.521
aF0.0
aF0.1
aF0.333
aF2.6
aF7.2
aF0.355
aF4.9
aF9.9
aF14.8
aF0.8
aF1.9
aF1.5
aF1.4
aF0.9
aF3.0
aF5.0
aF16.2
aF1.6
aI66
aI0
aI5
aV203083,1610612765
p120
aa(lp121
I2738
aVAndre Iguodala
p122
aI1610612744
aVGSW
p123
aF32.0
aI65
aI59
aI6
aF0.908
aF26.6
aF2.7
aF5.7
aF0.478
aF0.8
aF2.4
aF0.351
aF0.8
aF1.3
aF0.614
aF0.8
aF3.2
aF4.0
aF3.4
aF1.2
aF1.1
aF0.3
aF0.2
aF1.6
aF1.4
aF7.0
aF7.0
aI1
aI0
aI5
aV2738,1610612744
p124
aa(lp125
I1889
aVAndre Miller
p126
aI1610612759
aVSAS
p127
aF40.0
aI39
aI20
aI19
aF0.513
aF11.8
aF1.5
aF2.7
aF0.557
aF0.1
aF0.2
aF0.25
aF0.6
aF0.8
aF0.75
aF0.3
aF1.0
aF1.3
aF2.2
aF0.9
aF0.4
aF0.0
aF0.3
aF1.2
aF0.7
aF3.7
aF0.8
aI0
aI0
aI5
aV1889,1610612759
p128
aa(lp129
I203460
aVAndre Roberson
p130
aI1610612760
aVOKC
p131
aF24.0
aI70
aI48
aI22
aF0.686
aF22.2
aF1.9
aF3.9
aF0.496
aF0.5
aF1.5
aF0.311
aF0.5
aF0.8
aF0.611
aF1.1
aF2.5
aF3.6
aF0.7
aF0.5
aF0.8
aF0.6
aF0.3
aF1.9
aF0.6
aF4.8
aF3.7
aI0
aI0
aI5
aV203460,1610612760
p132
aa(lp133
I200745
aVAndrea Bargnani
p134
aI1610612751
aVBKN
p135
aF30.0
aI46
aI11
aI35
aF0.239
aF13.8
aF2.8
aF6.1
aF0.455
aF0.1
aF0.3
aF0.188
aF1.0
aF1.2
aF0.825
aF0.6
aF1.5
aF2.1
aF0.4
aF0.6
aF0.1
aF0.2
aF0.3
aF1.3
aF1.1
aF6.6
aF-4.2
aI0
aI0
aI5
aV200745,1610612751
p136
aa(lp137
I101106
aVAndrew Bogut
p138
aI1610612744
aVGSW
p139
aF31.0
aI70
aI62
aI8
aF0.886
aF20.7
aF2.5
aF4.0
aF0.627
aF0.0
aF0.0
aF1.0
aF0.3
aF0.7
aF0.48
aF1.7
aF5.3
aF7.0
aF2.3
aF1.2
aF0.5
aF1.6
aF0.1
aF3.2
aF1.1
aF5.4
aF5.7
aI5
aI0
aI5
aV101106,1610612744
p140
aa(lp141
I202726
aVAndrew Goudelock
p142
aI1610612745
aVHOU
p143
aF27.0
aI8
aI5
aI3
aF0.625
aF6.2
aF1.1
aF2.5
aF0.45
aF0.1
aF1.1
aF0.111
aF0.4
aF0.5
aF0.75
aF0.1
aF0.1
aF0.3
aF0.5
aF0.9
aF0.8
aF0.3
aF0.0
aF0.5
aF0.4
aF2.8
aF1.3
aI0
aI0
aI5
aV202726,1610612745
p144
aa(lp145
I203094
aVAndrew Nicholson
p146
aI1610612753
aVORL
p147
aF26.0
aI56
aI22
aI34
aF0.393
aF14.7
aF2.6
aF5.5
aF0.471
aF0.7
aF2.0
aF0.36
aF0.9
aF1.2
aF0.785
aF0.6
aF3.0
aF3.6
aF0.4
aF0.7
aF0.2
aF0.4
aF0.1
aF1.2
aF1.1
aF6.9
aF0.6
aI0
aI0
aI5
aV203094,1610612753
p148
aa(lp149
I203952
aVAndrew Wiggins
p150
aI1610612750
aVMIN
p151
aF21.0
aI81
aI29
aI52
aF0.358
aF35.1
aF7.3
aF16.0
aF0.459
aF0.7
aF2.3
aF0.3
aF5.3
aF7.0
aF0.761
aF1.3
aF2.3
aF3.6
aF2.0
aF2.2
aF1.0
aF0.6
aF1.1
aF2.0
aF4.9
aF20.7
aF-0.8
aI1
aI0
aI5
aV203952,1610612750
p152
aa(lp153
I203461
aVAnthony Bennett
p154
aI1610612761
aVTOR
p155
aF23.0
aI19
aI12
aI7
aF0.632
aF4.4
aF0.4
aF1.4
aF0.296
aF0.2
aF0.7
aF0.214
aF0.5
aF0.5
aF0.9
aF0.3
aF0.9
aF1.2
aF0.0
aF0.2
aF0.3
aF0.0
aF0.1
aF0.4
aF0.3
aF1.5
aF-1.6
aI0
aI0
aI5
aV203461,1610612761
p156
aa(lp157
I1626148
aVAnthony Brown
p158
aI1610612747
aVLAL
p159
aF23.0
aI29
aI4
aI25
aF0.138
aF20.6
aF1.3
aF4.3
aF0.31
aF0.7
aF2.4
aF0.286
aF0.6
aF0.7
aF0.85
aF0.3
aF2.1
aF2.4
aF0.7
aF0.5
aF0.5
aF0.2
aF0.3
aF1.2
aF0.6
aF4.0
aF-1.2
aI0
aI0
aI5
aV1626148,1610612747
p160
aa(lp161
I203076
aVAnthony Davis
p162
aI1610612740
aVNOP
p163
aF23.0
aI61
aI24
aI37
aF0.393
aF35.5
aF9.2
aF18.6
aF0.493
aF0.6
aF1.8
aF0.324
aF5.3
aF7.0
aF0.758
aF2.1
aF8.1
aF10.3
aF1.9
aF2.0
aF1.3
aF2.0
aF0.9
aF2.4
aF5.9
aF24.3
aF-3.3
aI36
aI0
aI5
aV203076,1610612740
p164
aa(lp165
I201627
aVAnthony Morrow
p166
aI1610612760
aVOKC
p167
aF30.0
aI68
aI46
aI22
aF0.676
aF13.6
aF2.0
aF4.9
aF0.408
aF1.2
aF3.0
aF0.387
aF0.4
aF0.6
aF0.744
aF0.1
aF0.8
aF0.9
aF0.4
aF0.3
aF0.3
aF0.1
aF0.1
aF0.9
aF0.4
aF5.6
aF1.6
aI0
aI0
aI5
aV201627,1610612760
p168
aa(lp169
I201229
aVAnthony Tolliver
p170
aI1610612765
aVDET
p171
aF31.0
aI72
aI36
aI36
aF0.5
aF18.6
aF1.8
aF4.6
aF0.386
aF1.4
aF3.8
aF0.36
aF0.4
aF0.7
aF0.617
aF0.5
aF2.6
aF3.2
aF0.7
aF0.4
aF0.4
aF0.2
aF0.2
aF1.2
aF0.8
aF5.3
aF0.1
aI0
aI0
aI5
aV201229,1610612765
p172
aa(lp173
I203462
aVArchie Goodwin
p174
aI1610612756
aVPHX
p175
aF21.0
aI57
aI14
aI43
aF0.246
aF19.5
aF3.1
aF7.4
aF0.417
aF0.4
aF1.7
aF0.232
aF2.3
aF3.4
aF0.674
aF0.5
aF2.0
aF2.5
aF2.1
aF1.8
aF0.5
aF0.2
aF0.8
aF1.5
aF2.8
aF8.9
aF-3.7
aI1
aI0
aI5
aV203462,1610612756
p176
aa(lp177
I203382
aVAron Baynes
p178
aI1610612765
aVDET
p179
aF29.0
aI81
aI43
aI38
aF0.531
aF15.2
aF2.4
aF4.7
aF0.505
aF0.0
aF0.0
aF0.0
aF1.6
aF2.0
aF0.764
aF1.7
aF3.0
aF4.7
aF0.6
aF0.8
aF0.3
aF0.6
aF0.3
aF1.9
aF1.9
aF6.3
aF-0.7
aI1
aI0
aI5
aV203382,1610612765
p180
aa(lp181
I201167
aVArron Afflalo
p182
aI1610612752
aVNYK
p183
aF30.0
aI71
aI27
aI44
aF0.38
aF33.4
aF5.0
aF11.3
aF0.443
aF1.3
aF3.4
aF0.382
aF1.5
aF1.8
aF0.84
aF0.3
aF3.4
aF3.7
aF2.0
aF1.2
aF0.4
aF0.1
aF0.7
aF2.0
aF1.7
aF12.8
aF-2.1
aI1
aI0
aI5
aV201167,1610612752
p184
aa(lp185
I203085
aVAustin Rivers
p186
aI1610612746
aVLAC
p187
aF23.0
aI67
aI42
aI25
aF0.627
aF21.8
aF3.4
aF7.7
aF0.438
aF0.9
aF2.8
aF0.335
aF1.2
aF1.7
aF0.681
aF0.3
aF1.6
aF1.9
aF1.5
aF0.9
aF0.7
aF0.1
aF0.5
aF2.0
aF1.4
aF8.9
aF-2.4
aI0
aI0
aI5
aV203085,1610612746
p188
aa(lp189
I202340
aVAvery Bradley
p190
aI1610612738
aVBOS
p191
aF25.0
aI76
aI45
aI31
aF0.592
aF33.4
aF6.0
aF13.4
aF0.447
aF1.9
aF5.4
aF0.361
aF1.3
aF1.6
aF0.78
aF0.6
aF2.3
aF2.9
aF2.1
aF1.4
aF1.5
aF0.3
aF0.6
aF2.2
aF1.3
aF15.2
aF2.8
aI0
aI0
aI5
aV202340,1610612738
p192
aa(lp193
I1626253
aVAxel Toupane
p194
aI1610612743
aVDEN
p195
aF23.0
aI21
aI9
aI12
aF0.429
aF14.5
aF1.2
aF3.3
aF0.357
aF0.6
aF1.9
aF0.325
aF0.6
aF0.8
aF0.765
aF0.4
aF1.1
aF1.5
aF0.7
aF0.3
aF0.3
aF0.3
aF0.0
aF1.9
aF0.6
aF3.6
aF-0.8
aI0
aI0
aI5
aV1626253,1610612743
p196
aa(lp197
I203463
aVBen McLemore
p198
aI1610612758
aVSAC
p199
aF23.0
aI68
aI28
aI40
aF0.412
aF21.2
aF2.9
aF6.7
aF0.429
aF1.0
aF2.7
aF0.362
aF1.1
aF1.5
aF0.718
aF0.5
aF1.7
aF2.2
aF1.2
aF1.5
aF0.8
aF0.1
aF0.4
aF2.1
aF1.3
aF7.8
aF0.3
aI0
aI0
aI5
aV203463,1610612758
p200
aa(lp201
I2757
aVBeno Udrih
p202
aI1610612763
aVMEM
p203
aF33.0
aI44
aI26
aI18
aF0.591
aF16.1
aF2.0
aF4.5
aF0.434
aF0.3
aF1.0
aF0.341
aF0.4
aF0.5
aF0.9
aF0.2
aF1.5
aF1.6
aF2.6
aF1.2
aF0.3
aF0.0
aF0.2
aF1.2
aF0.9
aF4.7
aF-0.5
aI1
aI0
aI5
aV2757,1610612763
p204
aa(lp205
I202687
aVBismack Biyombo
p206
aI1610612761
aVTOR
p207
aF23.0
aI82
aI56
aI26
aF0.683
aF22.0
aF1.9
aF3.5
aF0.542
aF0.0
aF0.0
aF0.0
aF1.7
aF2.8
aF0.628
aF2.2
aF5.8
aF8.0
aF0.4
aF0.9
aF0.2
aF1.6
aF0.5
aF2.7
aF2.2
aF5.5
aF1.0
aI9
aI0
aI5
aV202687,1610612761
p208
aa(lp209
I201933
aVBlake Griffin
p210
aI1610612746
aVLAC
p211
aF27.0
aI35
aI22
aI13
aF0.629
aF33.4
aF8.6
aF17.2
aF0.499
aF0.2
aF0.5
aF0.333
aF4.0
aF5.5
aF0.727
aF1.5
aF6.9
aF8.4
aF4.9
aF2.4
aF0.8
aF0.5
aF0.3
aF2.7
aF5.3
aF21.4
aF5.2
aI13
aI0
aI5
aV201933,1610612746
p212
aa(lp213
I1626246
aVBoban Marjanovic
p214
aI1610612759
aVSAS
p215
aF27.0
aI54
aI47
aI7
aF0.87
aF9.4
aF1.9
aF3.2
aF0.603
aF0.0
aF0.0
aF0.0
aF1.6
aF2.1
aF0.763
aF1.4
aF2.2
aF3.6
aF0.4
aF0.5
aF0.2
aF0.4
aF0.2
aF1.0
aF1.5
aF5.5
aF1.0
aI3
aI0
aI5
aV1626246,1610612759
p216
aa(lp217
I1626171
aVBobby Portis
p218
aI1610612741
aVCHI
p219
aF21.0
aI62
aI29
aI33
aF0.468
aF17.8
aF3.0
aF7.0
aF0.427
aF0.3
aF0.8
aF0.308
aF0.8
aF1.1
aF0.727
aF2.0
aF3.5
aF5.4
aF0.8
aF0.9
aF0.4
aF0.4
aF0.4
aF1.6
aF1.1
aF7.0
aF-2.9
aI6
aI0
aI5
aV1626171,1610612741
p220
aa(lp221
I202711
aVBojan Bogdanovic
p222
aI1610612751
aVBKN
p223
aF27.0
aI79
aI21
aI58
aF0.266
aF26.8
aF4.1
aF9.5
aF0.433
aF1.6
aF4.3
aF0.382
aF1.4
aF1.7
aF0.833
aF0.5
aF2.8
aF3.2
aF1.3
aF1.5
aF0.4
aF0.1
aF0.9
aF1.5
aF1.4
aF11.2
aF-4.9
aI1
aI0
aI5
aV202711,1610612751
p224
aa(lp225
I2564
aVBoris Diaw
p226
aI1610612759
aVSAS
p227
aF34.0
aI76
aI64
aI12
aF0.842
aF18.2
aF2.7
aF5.0
aF0.527
aF0.3
aF0.9
aF0.362
aF0.7
aF1.0
aF0.737
aF0.8
aF2.3
aF3.1
aF2.3
aF1.3
aF0.3
aF0.3
aF0.2
aF1.3
aF1.2
aF6.4
aF3.8
aI0
aI0
aI5
aV2564,1610612759
p228
aa(lp229
I203078
aVBradley Beal
p230
aI1610612764
aVWAS
p231
aF23.0
aI55
aI28
aI27
aF0.509
aF31.1
aF6.5
aF14.5
aF0.449
aF1.9
aF4.9
aF0.387
aF2.5
aF3.2
aF0.767
aF0.7
aF2.7
aF3.4
aF2.9
aF2.0
aF1.0
aF0.2
aF0.5
aF2.1
aF2.5
aF17.4
aF-0.4
aI0
aI0
aI5
aV203078,1610612764
p232
aa(lp233
I201148
aVBrandan Wright
p234
aI1610612763
aVMEM
p235
aF28.0
aI12
aI6
aI6
aF0.5
aF17.7
aF2.9
aF4.3
aF0.673
aF0.0
aF0.0
aF0.0
aF1.1
aF2.0
aF0.542
aF1.2
aF2.4
aF3.6
aF0.5
aF0.8
aF0.4
aF1.3
aF0.1
aF1.8
aF2.1
aF6.9
aF-4.8
aI0
aI0
aI5
aV201148,1610612763
p236
aa(lp237
I1626183
aVBranden Dawson
p238
aI1610612746
aVLAC
p239
aF23.0
aI6
aI5
aI1
aF0.833
aF4.8
aF0.3
aF0.8
aF0.4
aF0.0
aF0.0
aF0.0
aF0.2
aF0.2
aF1.0
aF0.3
aF0.3
aF0.7
aF0.0
aF0.0
aF0.0
aF0.2
aF0.3
aF0.3
aF0.2
aF0.8
aF-2.5
aI0
aI0
aI5
aV1626183,1610612746
p240
aa(lp241
I101138
aVBrandon Bass
p242
aI1610612747
aVLAL
p243
aF31.0
aI66
aI16
aI50
aF0.242
aF20.3
aF2.6
aF4.8
aF0.549
aF0.0
aF0.0
aF0.0
aF1.9
aF2.2
aF0.845
aF1.6
aF2.7
aF4.3
aF1.1
aF0.6
aF0.5
aF0.8
aF0.5
aF1.9
aF1.7
aF7.2
aF-0.3
aI0
aI0
aI5
aV101138,1610612747
p244
aa(lp245
I201943
aVBrandon Jennings
p246
aI1610612753
aVORL
p247
aF26.0
aI48
aI20
aI28
aF0.417
aF18.1
aF2.3
aF6.3
aF0.368
aF1.1
aF3.2
aF0.329
aF1.2
aF1.6
aF0.731
aF0.3
aF1.7
aF2.0
aF3.5
aF1.2
aF0.6
aF0.1
aF0.2
aF1.2
aF1.4
aF6.9
aF0.3
aI1
aI0
aI5
aV201943,1610612753
p248
aa(lp249
I202688
aVBrandon Knight
p250
aI1610612756
aVPHX
p251
aF24.0
aI52
aI16
aI36
aF0.308
aF36.0
aF7.1
aF17.2
aF0.415
aF2.3
aF6.8
aF0.342
aF3.0
aF3.5
aF0.852
aF0.7
aF3.2
aF3.9
aF5.1
aF3.4
aF1.2
aF0.4
aF0.7
aF2.4
aF3.9
aF19.6
aF-4.0
aI4
aI1
aI5
aV202688,1610612756
p252
aa(lp253
I201575
aVBrandon Rush
p254
aI1610612744
aVGSW
p255
aF30.0
aI72
aI63
aI9
aF0.875
aF14.6
aF1.5
aF3.6
aF0.427
aF0.9
aF2.2
aF0.414
aF0.3
aF0.4
aF0.643
aF0.3
aF2.2
aF2.5
aF0.8
aF0.5
aF0.3
aF0.3
aF0.1
aF0.8
aF0.3
aF4.2
aF-0.5
aI0
aI0
aI5
aV201575,1610612744
p256
aa(lp257
I203148
aVBrian Roberts
p258
aI1610612757
aVPOR
p259
aF30.0
aI51
aI26
aI25
aF0.51
aF9.2
aF1.5
aF3.2
aF0.448
aF0.3
aF0.8
aF0.357
aF0.8
aF0.9
aF0.894
aF0.1
aF0.7
aF0.8
aF1.1
aF0.5
aF0.2
aF0.0
aF0.1
aF0.7
aF1.0
aF4.0
aF-1.2
aI0
aI0
aI5
aV203148,1610612757
p260
aa(lp261
I1627362
aVBriante Weber
p262
aI1610612748
aVMIA
p263
aF23.0
aI7
aI3
aI4
aF0.429
aF24.1
aF2.0
aF5.6
aF0.359
aF0.0
aF0.7
aF0.0
aF0.4
aF0.6
aF0.75
aF1.1
aF2.4
aF3.6
aF3.0
aF1.3
aF1.3
aF0.4
aF0.3
aF1.7
aF1.1
aF4.4
aF-9.6
aI0
aI0
aI5
aV1627362,1610612748
p264
aa(lp265
I201572
aVBrook Lopez
p266
aI1610612751
aVBKN
p267
aF28.0
aI73
aI21
aI52
aF0.288
aF33.7
aF8.1
aF15.8
aF0.511
aF0.0
aF0.2
aF0.143
aF4.3
aF5.5
aF0.787
aF2.8
aF5.1
aF7.8
aF2.0
aF2.4
aF0.8
aF1.7
aF0.8
aF2.9
aF4.6
aF20.6
aF-1.7
aI26
aI0
aI5
aV201572,1610612751
p268
aa(lp269
I203998
aVBruno Caboclo
p270
aI1610612761
aVTOR
p271
aF20.0
aI6
aI6
aI0
aF1.0
aF7.1
aF0.2
aF2.0
aF0.083
aF0.2
aF1.2
aF0.143
aF0.0
aF0.0
aF0.0
aF0.2
aF0.2
aF0.3
aF0.2
aF0.7
aF0.3
aF0.2
aF0.3
aF0.3
aF0.0
aF0.5
aF-1.3
aI0
aI0
aI5
aV203998,1610612761
p272
aa(lp273
I203955
aVBryce Cotton
p274
aI1610612763
aVMEM
p275
aF23.0
aI8
aI1
aI7
aF0.125
aF4.8
aF0.5
aF1.3
aF0.4
aF0.0
aF0.4
aF0.0
aF0.0
aF0.0
aF0.0
aF0.0
aF0.0
aF0.0
aF0.4
aF0.6
aF0.4
aF0.0
aF0.0
aF0.3
aF0.0
aF1.0
aF-3.0
aI0
aI0
aI5
aV203955,1610612763
p276
aa(lp277
I1626214
aVBryce Dejean-Jones
p278
aI1610612740
aVNOP
p279
aF23.0
aI14
aI8
aI6
aF0.571
aF19.9
aF2.0
aF4.9
aF0.406
aF0.9
aF2.3
aF0.375
aF0.8
aF1.5
aF0.524
aF0.6
aF2.9
aF3.4
aF1.1
aF0.8
aF0.7
aF0.1
aF0.4
aF1.2
aF1.3
aF5.6
aF-2.8
aI0
aI0
aI5
aV1626214,1610612740
p280
aa(lp281
I203468
aVCJ McCollum
p282
aI1610612757
aVPOR
p283
aF24.0
aI80
aI44
aI36
aF0.55
aF34.7
aF8.0
aF17.9
aF0.448
aF2.5
aF5.9
aF0.417
aF2.3
aF2.8
aF0.827
aF0.6
aF2.7
aF3.2
aF4.3
aF2.5
aF1.2
aF0.3
aF1.1
aF2.3
aF2.6
aF20.8
aF1.9
aI2
aI0
aI5
aV203468,1610612757
p284
aa(lp285
I101139
aVCJ Miles
p286
aI1610612754
aVIND
p287
aF29.0
aI64
aI34
aI30
aF0.531
aF22.9
aF4.0
aF9.9
aF0.409
aF2.2
aF6.0
aF0.367
aF1.5
aF1.9
aF0.75
aF0.4
aF2.3
aF2.7
aF1.0
aF1.1
aF0.8
aF0.5
aF0.4
aF2.2
aF1.7
aF11.8
aF0.0
aI0
aI0
aI5
aV101139,1610612754
p288
aa(lp289
I201228
aVCJ Watson
p290
aI1610612753
aVORL
p291
aF32.0
aI33
aI14
aI19
aF0.424
aF19.9
aF1.4
aF4.2
aF0.343
aF0.4
aF1.5
aF0.292
aF1.0
aF1.2
aF0.872
aF0.3
aF1.7
aF2.0
aF2.7
aF0.8
aF0.6
aF0.2
aF0.1
aF1.5
aF1.2
aF4.3
aF-1.5
aI0
aI0
aI5
aV201228,1610612753
p292
aa(lp293
I203912
aVCJ Wilcox
p294
aI1610612746
aVLAC
p295
aF25.0
aI23
aI15
aI8
aF0.652
aF7.3
aF1.1
aF2.9
aF0.394
aF0.4
aF1.0
aF0.391
aF0.4
aF0.5
aF0.75
aF0.0
aF0.5
aF0.5
aF0.4
aF0.1
aF0.4
aF0.1
aF0.1
aF0.7
aF0.6
aF3.0
aF1.0
aI0
aI0
aI5
aV203912,1610612746
p296
aa(lp297
I203946
aVCameron Bairstow
p298
aI1610612765
aVDET
p299
aF25.0
aI18
aI4
aI14
aF0.222
aF5.7
aF0.7
aF2.2
aF0.325
aF0.1
aF0.3
aF0.2
aF0.4
aF0.4
aF0.875
aF0.2
aF1.3
aF1.6
aF0.3
aF0.2
aF0.1
aF0.2
aF0.3
aF1.1
aF0.3
aF1.9
aF-0.4
aI0
aI0
aI5
aV203946,1610612765
p300
aa(lp301
I1626166
aVCameron Payne
p302
aI1610612760
aVOKC
p303
aF21.0
aI57
aI44
aI13
aF0.772
aF12.2
aF2.0
aF4.9
aF0.41
aF0.6
aF1.9
aF0.324
aF0.3
aF0.4
aF0.792
aF0.2
aF1.3
aF1.5
aF1.9
aF0.8
aF0.6
aF0.1
aF0.2
aF1.4
aF0.5
aF5.0
aF-0.5
aI0
aI0
aI5
aV1626166,1610612760
p304
aa(lp305
I201171
aVCarl Landry
p306
aI1610612755
aVPHI
p307
aF32.0
aI36
aI5
aI31
aF0.139
aF15.8
aF3.9
aF6.9
aF0.556
aF0.2
aF0.4
aF0.462
aF1.9
aF2.5
aF0.736
aF1.4
aF2.7
aF4.1
aF0.9
aF0.6
aF0.3
aF0.3
aF0.4
aF1.9
aF1.7
aF9.8
aF-3.1
aI0
aI0
aI5
aV201171,1610612755
p308
aa(lp309
I2546
aVCarmelo Anthony
p310
aI1610612752
aVNYK
p311
aF32.0
aI72
aI32
aI40
aF0.444
aF35.1
aF7.9
aF18.2
aF0.434
aF1.5
aF4.3
aF0.339
aF4.6
aF5.6
aF0.829
aF1.4
aF6.4
aF7.7
aF4.2
aF2.4
aF0.9
aF0.5
aF1.1
aF2.5
aF4.4
aF21.8
aF-0.6
aI22
aI0
aI5
aV2546,1610612752
p312
aa(lp313
I2406
aVCaron Butler
p314
aI1610612758
aVSAC
p315
aF36.0
aI17
aI2
aI15
aF0.118
aF10.3
aF1.5
aF3.5
aF0.424
aF0.2
aF1.1
aF0.167
aF0.6
aF0.7
aF0.833
aF0.3
aF1.0
aF1.3
aF0.6
aF0.2
aF0.5
aF0.1
aF0.0
aF1.1
aF0.5
aF3.7
aF-2.4
aI0
aI0
aI5
aV2406,1610612758
p316
aa(lp317
I202718
aVChandler Parsons
p318
aI1610612742
aVDAL
p319
aF27.0
aI61
aI29
aI32
aF0.475
aF29.5
aF5.2
aF10.7
aF0.492
aF1.7
aF4.1
aF0.414
aF1.5
aF2.2
aF0.684
aF0.5
aF4.2
aF4.7
aF2.8
aF1.6
aF0.8
aF0.3
aF0.7
aF1.9
aF2.1
aF13.7
aF-0.1
aI3
aI0
aI5
aV202718,1610612742
p320
aa(lp321
I101112
aVChanning Frye
p322
aI1610612739
aVCLE
p323
aF33.0
aI70
aI35
aI35
aF0.5
aF17.1
aF2.2
aF5.0
aF0.438
aF1.3
aF3.4
aF0.387
aF0.4
aF0.5
aF0.857
aF0.5
aF2.8
aF3.3
aF1.0
aF0.6
aF0.4
aF0.4
aF0.1
aF1.8
aF0.9
aF6.1
aF1.5
aI0
aI0
aI5
aV101112,1610612739
p324
aa(lp325
I101236
aVCharles Hayes
p326
aI1610612746
aVLAC
p327
aF33.0
aI2
aI1
aI1
aF0.5
aF11.9
aF0.5
aF1.0
aF0.5
aF0.0
aF0.0
aF0.0
aF1.0
aF1.0
aF1.0
aF0.0
aF4.0
aF4.0
aF1.0
aF1.5
aF0.0
aF0.0
aF0.0
aF3.0
aF0.5
aF2.0
aF-1.5
aI0
aI0
aI5
aV101236,1610612746
p328
aa(lp329
I101111
aVCharlie Villanueva
p330
aI1610612742
aVDAL
p331
aF31.0
aI62
aI29
aI33
aF0.468
aF10.7
aF2.0
aF5.3
aF0.382
aF0.8
aF2.8
aF0.273
aF0.4
aF0.4
aF0.917
aF0.4
aF2.1
aF2.5
aF0.4
aF0.5
aF0.3
aF0.2
aF0.2
aF1.1
aF0.3
aF5.1
aF-1.4
aI0
aI0
aI5
aV101111,1610612742
p332
aa(lp333
I201978
aVChase Budinger
p334
aI1610612756
aVPHX
p335
aF28.0
aI66
aI29
aI37
aF0.439
aF14.1
aF1.6
aF3.6
aF0.435
aF0.4
aF1.3
aF0.279
aF0.6
aF0.8
aF0.696
aF0.7
aF1.6
aF2.3
aF1.0
aF0.7
aF0.5
aF0.2
aF0.2
aF0.9
aF0.7
aF4.1
aF0.0
aI0
aI0
aI5
aV201978,1610612756
p336
aa(lp337
I2365
aVChris Andersen
p338
aI1610612763
aVMEM
p339
aF37.0
aI27
aI11
aI16
aF0.407
aF14.9
aF1.4
aF2.7
aF0.528
aF0.1
aF0.5
aF0.286
aF0.9
aF1.3
aF0.694
aF1.3
aF2.3
aF3.6
aF0.4
aF0.3
aF0.6
aF0.5
aF0.2
aF1.1
aF1.3
aF3.9
aF-2.6
aI0
aI0
aI5
aV2365,1610612763
p340
aa(lp341
I2547
aVChris Bosh
p342
aI1610612748
aVMIA
p343
aF32.0
aI53
aI29
aI24
aF0.547
aF33.5
aF6.8
aF14.5
aF0.467
aF1.5
aF4.2
aF0.365
aF4.0
aF5.1
aF0.795
aF0.9
aF6.5
aF7.4
aF2.4
aF1.5
aF0.7
aF0.6
aF0.6
aF1.9
aF3.9
aF19.1
aF0.6
aI15
aI0
aI5
aV2547,1610612748
p344
aa(lp345
I203142
aVChris Copeland
p346
aI1610612749
aVMIL
p347
aF32.0
aI24
aI10
aI14
aF0.417
aF6.5
aF0.7
aF2.1
aF0.333
aF0.4
aF1.5
aF0.278
aF0.3
aF0.3
aF0.857
aF0.0
aF0.4
aF0.4
aF0.5
aF0.3
aF0.1
aF0.0
aF0.1
aF0.7
aF0.3
aF2.1
aF-3.3
aI0
aI0
aI5
aV203142,1610612749
p348
aa(lp349
I203187
aVChris Johnson
p350
aI1610612762
aVUTA
p351
aF26.0
aI70
aI38
aI32
aF0.543
aF12.2
aF1.0
aF2.8
aF0.371
aF0.4
aF1.4
aF0.273
aF0.5
aF0.6
aF0.81
aF0.4
aF1.5
aF1.9
aF0.6
aF0.6
aF0.5
aF0.3
aF0.2
aF1.4
aF0.4
aF2.9
aF0.0
aI0
aI0
aI5
aV203187,1610612762
p352
aa(lp353
I2549
aVChris Kaman
p354
aI1610612757
aVPOR
p355
aF34.0
aI16
aI11
aI5
aF0.688
aF7.0
aF1.3
aF2.7
aF0.465
aF0.1
aF0.3
aF0.25
aF0.2
aF0.2
aF1.0
aF0.4
aF1.1
aF1.5
aF0.7
aF0.5
aF0.1
aF0.1
aF0.1
aF0.9
aF0.2
aF2.8
aF-1.9
aI0
aI0
aI5
aV2549,1610612757
p356
aa(lp357
I1626191
aVChris McCullough
p358
aI1610612751
aVBKN
p359
aF21.0
aI24
aI7
aI17
aF0.292
aF15.1
aF1.8
aF4.5
aF0.404
aF0.5
aF1.4
aF0.382
aF0.5
aF1.0
aF0.478
aF1.0
aF1.8
aF2.8
aF0.4
aF0.6
aF1.2
aF0.5
aF0.4
aF1.6
aF0.7
aF4.7
aF-5.0
aI0
aI0
aI5
aV1626191,1610612751
p360
aa(lp361
I101108
aVChris Paul
p362
aI1610612746
aVLAC
p363
aF31.0
aI74
aI50
aI24
aF0.676
aF32.7
aF7.0
aF15.1
aF0.462
aF1.6
aF4.4
aF0.371
aF4.0
aF4.4
aF0.896
aF0.5
aF3.7
aF4.2
aF10.0
aF2.6
aF2.1
aF0.2
aF0.4
aF2.5
aF4.0
aF19.5
aF7.5
aI38
aI0
aI5
aV101108,1610612746
p364
aa(lp365
I1626174
aVChristian Wood
p366
aI1610612755
aVPHI
p367
aF20.0
aI17
aI0
aI17
aF0.0
aF8.5
aF1.3
aF3.1
aF0.415
aF0.2
aF0.6
aF0.364
aF0.8
aF1.2
aF0.619
aF0.8
aF1.5
aF2.2
aF0.2
aF0.1
aF0.3
aF0.4
aF0.6
aF0.6
aF1.2
aF3.6
aF-2.9
aI0
aI0
aI5
aV1626174,1610612755
p368
aa(lp369
I203921
aVCleanthony Early
p370
aI1610612752
aVNYK
p371
aF25.0
aI17
aI6
aI11
aF0.353
aF9.0
aF0.7
aF2.4
aF0.3
aF0.2
aF0.9
aF0.267
aF0.2
aF0.2
aF0.75
aF0.2
aF1.3
aF1.5
aF0.4
aF0.5
aF0.1
aF0.2
aF0.2
aF0.9
aF0.2
aF1.8
aF0.0
aI0
aI0
aI5
aV203921,1610612752
p372
aa(lp373
I1626146
aVCliff Alexander
p374
aI1610612757
aVPOR
p375
aF20.0
aI8
aI3
aI5
aF0.375
aF4.5
aF0.6
aF1.3
aF0.5
aF0.0
aF0.0
aF0.0
aF0.0
aF0.0
aF0.0
aF0.3
aF0.5
aF0.8
aF0.0
aF0.1
aF0.1
aF0.3
aF0.1
aF0.1
aF0.0
aF1.3
aF-1.6
aI0
aI0
aI5
aV1626146,1610612757
p376
aa(lp377
I203991
aVClint Capela
p378
aI1610612745
aVHOU
p379
aF22.0
aI77
aI39
aI38
aF0.506
aF19.1
aF3.0
aF5.2
aF0.582
aF0.0
aF0.0
aF0.0
aF1.0
aF2.7
aF0.379
aF2.5
aF3.9
aF6.4
aF0.6
aF0.8
aF0.8
aF1.2
aF0.6
aF2.5
aF1.9
aF7.0
aF1.3
aI10
aI0
aI5
aV203991,1610612745
p380
aa(lp381
I203469
aVCody Zeller
p382
aI1610612766
aVCHA
p383
aF23.0
aI73
aI42
aI31
aF0.575
aF24.3
aF3.2
aF6.0
aF0.529
aF0.0
aF0.1
aF0.1
aF2.4
aF3.2
aF0.754
aF1.9
aF4.3
aF6.2
aF1.0
aF0.9
aF0.8
aF0.9
aF0.8
aF2.8
aF2.5
aF8.7
aF2.2
aI5
aI0
aI5
aV203469,1610612766
p384
aa(lp385
I202332
aVCole Aldrich
p386
aI1610612746
aVLAC
p387
aF27.0
aI60
aI41
aI19
aF0.683
aF13.3
aF2.2
aF3.8
aF0.596
aF0.0
aF0.0
aF0.0
aF1.0
aF1.4
aF0.714
aF1.4
aF3.4
aF4.8
aF0.8
aF1.1
aF0.8
aF1.1
aF0.3
aF2.3
aF1.2
aF5.5
aF-0.4
aI3
aI0
aI5
aV202332,1610612746
p388
aa(lp389
I201147
aVCorey Brewer
p390
aI1610612745
aVHOU
p391
aF30.0
aI82
aI41
aI41
aF0.5
aF20.4
aF2.6
aF6.7
aF0.384
aF0.7
aF2.7
aF0.272
aF1.3
aF1.7
aF0.75
aF0.5
aF1.9
aF2.4
aF1.3
aF1.0
aF1.0
aF0.2
aF0.3
aF2.0
aF1.7
aF7.2
aF-1.1
aI0
aI0
aI5
aV201147,1610612745
p392
aa(lp393
I203928
aVCory Jefferson
p394
aI1610612756
aVPHX
p395
aF25.0
aI8
aI2
aI6
aF0.25
aF6.3
aF1.1
aF2.8
aF0.409
aF0.0
aF0.1
aF0.0
aF0.5
aF0.8
aF0.667
aF0.8
aF1.3
aF2.0
aF0.0
aF0.0
aF0.0
aF0.1
aF0.4
aF1.0
aF0.5
aF2.8
aF-0.6
aI0
aI0
aI5
aV203928,1610612756
p396
aa(lp397
I202709
aVCory Joseph
p398
aI1610612761
aVTOR
p399
aF24.0
aI80
aI54
aI26
aF0.675
aF25.6
aF3.2
aF7.3
aF0.439
aF0.4
aF1.4
aF0.273
aF1.7
aF2.2
aF0.764
aF0.5
aF2.1
aF2.6
aF3.1
aF1.3
aF0.8
aF0.3
aF0.6
aF1.6
aF2.0
aF8.5
aF3.4
aI0
aI0
aI5
aV202709,1610612761
p400
aa(lp401
I1626262
aVCoty Clarke
p402
aI1610612738
aVBOS
p403
aF23.0
aI3
aI0
aI3
aF0.0
aF1.9
aF0.7
aF1.3
aF0.5
aF0.7
aF0.7
aF1.0
aF0.0
aF0.0
aF0.0
aF0.0
aF0.3
aF0.3
aF0.0
aF0.3
aF0.0
aF0.0
aF0.0
aF0.0
aF0.0
aF2.0
aF1.3
aI0
aI0
aI5
aV1626262,1610612738
p404
aa(lp405
I201584
aVCourtney Lee
p406
aI1610612766
aVCHA
p407
aF30.0
aI79
aI49
aI30
aF0.62
aF29.6
aF3.7
aF8.1
aF0.454
aF1.0
aF2.7
aF0.378
aF1.3
aF1.5
aF0.839
aF0.4
aF2.2
aF2.6
aF1.7
aF0.9
aF1.1
aF0.4
aF0.3
aF1.7
aF0.9
aF9.6
aF1.9
aI0
aI0
aI5
aV201584,1610612766
p408
aa(lp409
I1626245
aVCristiano Felicio
p410
aI1610612741
aVCHI
p411
aF23.0
aI31
aI14
aI17
aF0.452
aF10.3
aF1.3
aF2.3
aF0.556
aF0.0
aF0.1
aF0.0
aF0.8
aF1.1
aF0.714
aF1.0
aF2.3
aF3.3
aF0.8
aF0.4
aF0.2
aF0.4
aF0.2
aF1.0
aF0.7
aF3.4
aF1.7
aI0
aI0
aI5
aV1626245,1610612741
p412
aa(lp413
I1626156
aVD'Angelo Russell
p414
aI1610612747
aVLAL
p415
aF20.0
aI80
aI17
aI63
aF0.213
aF28.2
aF4.9
aF12.0
aF0.41
aF1.6
aF4.6
aF0.351
aF1.8
aF2.4
aF0.737
aF0.6
aF2.8
aF3.4
aF3.3
aF2.5
aF1.2
aF0.2
aF0.6
aF1.8
aF2.2
aF13.2
aF-6.8
aI1
aI0
aI5
aV1626156,1610612747
p416
aa(lp417
I201571
aVD.J. Augustin
p418
aI1610612743
aVDEN
p419
aF28.0
aI62
aI35
aI27
aF0.565
aF19.0
aF2.4
aF5.6
aF0.423
aF1.1
aF2.7
aF0.405
aF1.7
aF2.1
aF0.805
aF0.1
aF1.4
aF1.5
aF3.2
aF1.4
aF0.6
aF0.1
aF0.5
aF1.4
aF2.2
aF7.5
aF-0.5
aI2
aI0
aI5
aV201571,1610612743
p420
aa(lp421
I2563
aVDahntay Jones
p422
aI1610612739
aVCLE
p423
aF35.0
aI1
aI0
aI1
aF0.0
aF42.4
aF6.0
aF14.0
aF0.429
aF1.0
aF2.0
aF0.5
aF0.0
aF0.0
aF0.0
aF1.0
aF4.0
aF5.0
aF2.0
aF0.0
aF1.0
aF2.0
aF2.0
aF6.0
aF1.0
aF13.0
aF-1.0
aI0
aI0
aI5
aV2563,1610612739
p424
aa(lp425
I203081
aVDamian Lillard
p426
aI1610612757
aVPOR
p427
aF25.0
aI75
aI40
aI35
aF0.533
aF35.7
aF8.2
aF19.7
aF0.419
aF3.1
aF8.1
aF0.375
aF5.5
aF6.2
aF0.892
aF0.6
aF3.4
aF4.0
aF6.8
aF3.2
aF0.9
aF0.4
aF1.2
aF2.2
aF5.1
aF25.1
aF1.3
aI15
aI0
aI5
aV203081,1610612757
p428
aa(lp429
I203996
aVDamien Inglis
p430
aI1610612749
aVMIL
p431
aF21.0
aI20
aI5
aI15
aF0.25
aF7.8
aF0.7
aF1.9
aF0.351
aF0.2
aF0.7
aF0.231
aF0.4
aF0.4
aF0.875
aF0.1
aF1.5
aF1.6
aF0.5
aF0.6
aF0.3
aF0.2
aF0.2
aF0.6
aF0.4
aF1.8
aF-2.2
aI0
aI0
aI5
aV203996,1610612749
p432
aa(lp433
I204014
aVDamjan Rudez
p434
aI1610612750
aVMIN
p435
aF30.0
aI33
aI9
aI24
aF0.273
aF8.4
aF0.8
aF1.9
aF0.403
aF0.5
aF1.5
aF0.34
aF0.2
aF0.2
aF1.0
aF0.2
aF0.5
aF0.6
aF0.3
aF0.4
aF0.1
aF0.0
aF0.1
aF1.0
aF0.2
aF2.3
aF-0.4
aI0
aI0
aI5
aV204014,1610612750
p436
aa(lp437
I201568
aVDanilo Gallinari
p438
aI1610612743
aVDEN
p439
aF27.0
aI53
aI22
aI31
aF0.415
aF34.7
aF5.4
aF13.2
aF0.41
aF1.6
aF4.5
aF0.364
aF7.1
aF8.2
aF0.868
aF1.0
aF4.3
aF5.3
aF2.5
aF1.5
aF0.8
aF0.4
aF0.9
aF1.6
aF6.3
aF19.5
aF-1.9
aI3
aI0
aI5
aV201568,1610612743
p440
aa(lp441
I201980
aVDanny Green
p442
aI1610612759
aVSAS
p443
aF29.0
aI79
aI65
aI14
aF0.823
aF26.1
aF2.7
aF7.1
aF0.376
aF1.5
aF4.4
aF0.332
aF0.4
aF0.6
aF0.739
aF0.6
aF3.2
aF3.8
aF1.8
aF0.9
aF1.0
aF0.8
aF0.3
aF1.8
aF0.8
aF7.2
aF6.4
aI0
aI0
aI5
aV201980,1610612759
p444
aa(lp445
I201967
aVDante Cunningham
p446
aI1610612740
aVNOP
p447
aF29.0
aI80
aI28
aI52
aF0.35
aF24.6
aF2.3
aF5.2
aF0.451
aF0.7
aF2.2
aF0.316
aF0.7
aF1.0
aF0.695
aF0.7
aF2.2
aF3.0
aF1.0
aF0.5
aF0.5
aF0.4
aF0.3
aF2.2
aF0.8
aF6.1
aF-3.5
aI0
aI0
aI5
aV201967,1610612740
p448
aa(lp449
I201589
aVDarrell Arthur
p450
aI1610612743
aVDEN
p451
aF28.0
aI70
aI26
aI44
aF0.371
aF21.7
aF3.2
aF7.0
aF0.452
aF0.6
aF1.7
aF0.385
aF0.6
aF0.8
aF0.755
aF1.2
aF3.0
aF4.2
aF1.4
aF0.9
aF0.8
aF0.7
aF0.3
aF2.6
aF0.7
aF7.5
aF-0.7
aI2
aI0
aI5
aV201589,1610612743
p452
aa(lp453
I201954
aVDarren Collison
p454
aI1610612758
aVSAC
p455
aF28.0
aI74
aI29
aI45
aF0.392
aF30.0
aF5.1
aF10.5
aF0.486
aF1.2
aF2.9
aF0.401
aF2.6
aF3.1
aF0.858
aF0.4
aF1.9
aF2.3
aF4.3
aF1.8
aF1.0
aF0.1
aF0.8
aF1.9
aF2.3
aF14.0
aF-0.9
aI4
aI0
aI5
aV201954,1610612758
p456
aa(lp457
I1626199
aVDarrun Hilliard
p458
aI1610612765
aVDET
p459
aF23.0
aI38
aI17
aI21
aF0.447
aF10.1
aF1.4
aF3.4
aF0.397
aF0.5
aF1.3
aF0.38
aF0.8
aF1.1
aF0.725
aF0.1
aF1.1
aF1.2
aF0.7
aF0.5
aF0.2
aF0.0
aF0.1
aF0.7
aF0.8
aF4.0
aF-0.1
aI0
aI0
aI5
aV1626199,1610612765
p460
aa(lp461
I101135
aVDavid Lee
p462
aI1610612742
aVDAL
p463
aF33.0
aI55
aI27
aI28
aF0.491
aF16.4
aF3.2
aF6.1
aF0.531
aF0.0
aF0.0
aF0.0
aF1.3
aF1.7
aF0.763
aF1.8
aF3.7
aF5.5
aF1.5
aF1.2
aF0.4
aF0.5
aF0.8
aF2.1
aF1.3
aF7.8
aF-1.5
aI4
aI0
aI5
aV101135,1610612742
p464
aa(lp465
I2561
aVDavid West
p466
aI1610612759
aVSAS
p467
aF35.0
aI78
aI63
aI15
aF0.808
aF18.0
aF3.1
aF5.7
aF0.545
aF0.0
aF0.1
aF0.429
aF0.8
aF1.0
aF0.788
aF0.9
aF3.0
aF4.0
aF1.8
aF0.9
aF0.6
aF0.7
aF0.3
aF1.8
aF1.2
aF7.1
aF4.2
aI1
aI0
aI5
aV2561,1610612759
p468
aa(lp469
I201599
aVDeAndre Jordan
p470
aI1610612746
aVLAC
p471
aF27.0
aI77
aI51
aI26
aF0.662
aF33.7
aF4.6
aF6.6
aF0.703
aF0.0
aF0.0
aF0.0
aF3.5
aF8.0
aF0.43
aF3.5
aF10.3
aF13.8
aF1.2
aF1.4
aF0.7
aF2.3
aF0.3
aF2.7
aF6.0
aF12.7
aF5.7
aI49
aI0
aI5
aV201599,1610612746
p472
aa(lp473
I201971
aVDeJuan Blair
p474
aI1610612764
aVWAS
p475
aF27.0
aI29
aI12
aI17
aF0.414
aF7.5
aF1.0
aF2.3
aF0.412
aF0.0
aF0.0
aF0.0
aF0.2
aF0.4
aF0.385
aF0.7
aF1.3
aF2.0
aF0.4
aF0.5
aF0.3
aF0.1
aF0.1
aF1.8
aF0.7
aF2.1
aF-1.4
aI0
aI0
aI5
aV201971,1610612764
p476
aa(lp477
I201942
aVDeMar DeRozan
p478
aI1610612761
aVTOR
p479
aF26.0
aI78
aI53
aI25
aF0.679
aF35.9
aF7.9
aF17.7
aF0.446
aF0.6
aF1.8
aF0.338
aF7.1
aF8.4
aF0.85
aF0.8
aF3.7
aF4.5
aF4.0
aF2.2
aF1.0
aF0.3
aF1.2
aF2.1
aF5.5
aF23.5
aF2.2
aI3
aI0
aI5
aV201942,1610612761
p480
aa(lp481
I202326
aVDeMarcus Cousins
p482
aI1610612758
aVSAC
p483
aF25.0
aI65
aI29
aI36
aF0.446
aF34.6
aF9.2
aF20.5
aF0.451
aF1.1
aF3.2
aF0.333
aF7.3
aF10.2
aF0.718
aF2.4
aF9.1
aF11.5
aF3.3
aF3.8
aF1.6
aF1.4
aF1.8
aF3.6
aF8.9
aF26.9
aF0.6
aI47
aI1
aI5
aV202326,1610612758
p484
aa(lp485
I201960
aVDeMarre Carroll
p486
aI1610612761
aVTOR
p487
aF29.0
aI26
aI16
aI10
aF0.615
aF30.2
aF4.0
aF10.4
aF0.389
aF1.8
aF4.5
aF0.39
aF1.2
aF1.9
aF0.6
aF1.2
aF3.5
aF4.7
aF1.0
aF1.1
aF1.7
aF0.2
aF0.7
aF2.4
aF1.7
aF11.0
aF1.7
aI0
aI0
aI5
aV201960,1610612761
p488
aa(lp489
I1626153
aVDelon Wright
p490
aI1610612761
aVTOR
p491
aF24.0
aI27
aI19
aI8
aF0.704
aF8.5
aF1.3
aF3.0
aF0.45
aF0.2
aF0.5
aF0.385
aF1.0
aF1.3
aF0.743
aF0.3
aF1.1
aF1.4
aF1.1
aF0.6
aF0.3
aF0.1
aF0.3
aF0.3
aF0.8
aF3.8
aF0.5
aI0
aI0
aI5
aV1626153,1610612761
p492
aa(lp493
I203471
aVDennis Schroder
p494
aI1610612737
aVATL
p495
aF22.0
aI80
aI47
aI33
aF0.588
aF20.3
aF4.1
aF9.8
aF0.421
aF1.0
aF3.0
aF0.322
aF1.8
aF2.3
aF0.791
aF0.3
aF2.2
aF2.6
aF4.4
aF2.3
aF0.9
aF0.1
aF0.9
aF1.7
aF2.2
aF11.0
aF2.8
aI2
aI0
aI5
aV203471,1610612737
p496
aa(lp497
I101114
aVDeron Williams
p498
aI1610612742
aVDAL
p499
aF32.0
aI65
aI31
aI34
aF0.477
aF32.4
aF4.9
aF11.9
aF0.414
aF1.5
aF4.3
aF0.344
aF2.8
aF3.2
aF0.869
aF0.3
aF2.6
aF2.9
aF5.8
aF2.3
aF0.9
aF0.2
aF0.6
aF2.4
aF2.7
aF14.1
aF0.0
aI4
aI0
aI5
aV101114,1610612742
p500
aa(lp501
I202324
aVDerrick Favors
p502
aI1610612762
aVUTA
p503
aF24.0
aI62
aI30
aI32
aF0.484
aF32.0
aF6.7
aF13.1
aF0.515
aF0.0
aF0.1
aF0.0
aF2.9
aF4.1
aF0.709
aF2.7
aF5.4
aF8.1
aF1.5
aF1.7
aF1.2
aF1.5
aF1.0
aF2.4
aF3.2
aF16.4
aF1.6
aI19
aI0
aI5
aV202324,1610612762
p504
aa(lp505
I201565
aVDerrick Rose
p506
aI1610612741
aVCHI
p507
aF27.0
aI66
aI32
aI34
aF0.485
aF31.8
aF6.8
aF15.9
aF0.427
aF0.7
aF2.3
aF0.293
aF2.2
aF2.7
aF0.793
aF0.7
aF2.7
aF3.4
aF4.7
aF2.7
aF0.7
aF0.2
aF1.2
aF1.3
aF2.3
aF16.4
aF-2.5
aI1
aI0
aI5
aV201565,1610612741
p508
aa(lp509
I202682
aVDerrick Williams
p510
aI1610612752
aVNYK
p511
aF25.0
aI80
aI32
aI48
aF0.4
aF17.9
aF3.2
aF7.1
aF0.45
aF0.6
aF1.9
aF0.293
aF2.4
aF3.2
aF0.758
aF0.6
aF3.1
aF3.7
aF0.9
aF0.8
aF0.4
aF0.1
aF0.5
aF0.9
aF2.2
aF9.3
aF-2.6
aI4
aI0
aI5
aV202682,1610612752
p512
aa(lp513
I1626164
aVDevin Booker
p514
aI1610612756
aVPHX
p515
aF19.0
aI76
aI20
aI56
aF0.263
aF27.7
aF4.8
aF11.4
aF0.423
aF1.3
aF3.8
aF0.343
aF2.8
aF3.4
aF0.84
aF0.4
aF2.1
aF2.5
aF2.6
aF2.1
aF0.6
aF0.3
aF0.8
aF3.0
aF3.2
aF13.8
aF-4.9
aI3
aI0
aI5
aV1626164,1610612756
p516
aa(lp517
I2734
aVDevin Harris
p518
aI1610612742
aVDAL
p519
aF33.0
aI64
aI35
aI29
aF0.547
aF20.0
aF2.6
aF5.8
aF0.447
aF0.8
aF2.5
aF0.329
aF1.6
aF2.2
aF0.721
aF0.3
aF1.9
aF2.2
aF1.8
aF1.0
aF0.9
aF0.2
aF0.3
aF1.9
aF2.2
aF7.6
aF-1.4
aI0
aI0
aI5
aV2734,1610612742
p520
aa(lp521
I203906
aVDevyn Marble
p522
aI1610612753
aVORL
p523
aF23.0
aI28
aI12
aI16
aF0.429
aF8.9
aF0.8
aF2.5
aF0.296
aF0.3
aF1.1
aF0.25
aF0.4
aF0.9
aF0.417
aF0.2
aF1.1
aF1.4
aF0.4
aF0.3
aF0.5
aF0.0
aF0.1
aF0.9
aF0.6
aF2.1
aF-0.5
aI0
aI0
aI5
aV203906,1610612753
p524
aa(lp525
I203473
aVDewayne Dedmon
p526
aI1610612753
aVORL
p527
aF26.0
aI58
aI21
aI37
aF0.362
aF12.2
aF1.7
aF3.1
aF0.559
aF0.0
aF0.0
aF0.0
aF1.0
aF1.3
aF0.75
aF1.2
aF2.8
aF3.9
aF0.2
aF0.6
aF0.4
aF0.8
aF0.3
aF1.9
aF1.1
aF4.4
aF-0.6
aI1
aI0
aI5
aV203473,1610612753
p528
aa(lp529
I203079
aVDion Waiters
p530
aI1610612760
aVOKC
p531
aF24.0
aI78
aI53
aI25
aF0.679
aF27.6
aF3.6
aF9.1
aF0.399
aF1.1
aF3.1
aF0.358
aF1.4
aF2.0
aF0.713
aF0.5
aF2.1
aF2.6
aF2.0
aF1.5
aF1.0
aF0.2
aF0.4
aF1.8
aF1.6
aF9.8
aF2.7
aI0
aI0
aI5
aV203079,1610612760
p532
aa(lp533
I1717
aVDirk Nowitzki
p534
aI1610612742
aVDAL
p535
aF38.0
aI75
aI38
aI37
aF0.507
aF31.5
aF6.6
aF14.8
aF0.448
aF1.7
aF4.6
aF0.368
aF3.3
aF3.7
aF0.893
aF0.7
aF5.8
aF6.5
aF1.8
aF1.1
aF0.7
aF0.7
aF0.2
aF2.1
aF4.0
aF18.3
aF3.4
aI10
aI0
aI5
aV1717,1610612742
p536
aa(lp537
I202388
aVDonald Sloan
p538
aI1610612751
aVBKN
p539
aF28.0
aI61
aI13
aI48
aF0.213
aF21.6
aF2.5
aF5.7
aF0.44
aF0.6
aF1.6
aF0.384
aF1.3
aF1.7
aF0.75
aF0.3
aF2.6
aF2.8
aF4.4
aF1.3
aF0.5
aF0.1
aF0.4
aF1.2
aF1.6
aF7.0
aF-2.0
aI3
aI0
aI5
aV202388,1610612751
p540
aa(lp541
I202700
aVDonatas Motiejunas
p542
aI1610612745
aVHOU
p543
aF25.0
aI37
aI19
aI18
aF0.514
aF14.8
aF2.4
aF5.5
aF0.439
aF0.4
aF1.5
aF0.281
aF0.9
aF1.4
aF0.642
aF1.0
aF1.9
aF2.9
aF1.1
aF1.2
aF0.5
aF0.1
aF0.2
aF1.9
aF1.8
aF6.2
aF1.2
aI0
aI0
aI5
aV202700,1610612745
p544
aa(lp545
I203926
aVDoug McDermott
p546
aI1610612741
aVCHI
p547
aF24.0
aI81
aI41
aI40
aF0.506
aF23.0
aF3.6
aF8.0
aF0.452
aF1.4
aF3.2
aF0.425
aF0.9
aF1.0
aF0.857
aF0.5
aF2.0
aF2.4
aF0.7
aF0.7
aF0.2
aF0.1
aF0.4
aF1.6
aF0.8
aF9.4
aF-0.8
aI0
aI0
aI5
aV203926,1610612741
p548
aa(lp549
I203110
aVDraymond Green
p550
aI1610612744
aVGSW
p551
aF26.0
aI81
aI73
aI8
aF0.901
aF34.7
aF5.0
aF10.1
aF0.49
aF1.2
aF3.2
aF0.388
aF2.8
aF4.1
aF0.696
aF1.7
aF7.8
aF9.5
aF7.4
aF3.2
aF1.5
aF1.4
aF0.7
aF3.0
aF3.8
aF14.0
aF13.2
aI33
aI13
aI5
aV203110,1610612744
p552
aa(lp553
I2400
aVDrew Gooden
p554
aI1610612764
aVWAS
p555
aF34.0
aI30
aI18
aI12
aF0.6
aF10.2
aF1.1
aF3.4
aF0.32
aF0.2
aF1.4
aF0.171
aF0.3
aF0.5
aF0.643
aF0.9
aF1.9
aF2.8
aF0.4
aF0.4
aF0.3
aF0.4
aF0.2
aF1.3
aF0.6
aF2.7
aF-2.8
aI2
aI0
aI5
aV2400,1610612764
p556
aa(lp557
I1626251
aVDuje Dukan
p558
aI1610612758
aVSAC
p559
aF24.0
aI1
aI0
aI1
aF0.0
aF24.2
aF2.0
aF10.0
aF0.2
aF2.0
aF5.0
aF0.4
aF0.0
aF0.0
aF0.0
aF2.0
aF2.0
aF4.0
aF1.0
aF0.0
aF1.0
aF0.0
aF0.0
aF2.0
aF0.0
aF6.0
aF-8.0
aI0
aI0
aI5
aV1626251,1610612758
p560
aa(lp561
I2730
aVDwight Howard
p562
aI1610612745
aVHOU
p563
aF30.0
aI71
aI34
aI37
aF0.479
aF32.1
aF5.2
aF8.5
aF0.62
aF0.0
aF0.1
aF0.0
aF3.3
aF6.7
aF0.489
aF3.4
aF8.4
aF11.8
aF1.4
aF2.3
aF1.0
aF1.6
aF0.7
aF3.1
aF5.4
aF13.7
aF0.2
aI38
aI0
aI5
aV2730,1610612745
p564
aa(lp565
I203939
aVDwight Powell
p566
aI1610612742
aVDAL
p567
aF24.0
aI69
aI35
aI34
aF0.507
aF14.4
aF2.1
aF4.3
aF0.493
aF0.0
aF0.2
aF0.125
aF1.5
aF2.1
aF0.739
aF1.2
aF2.7
aF4.0
aF0.6
aF0.6
aF0.5
aF0.3
aF0.3
aF1.7
aF1.7
aF5.8
aF-1.2
aI3
aI0
aI5
aV203939,1610612742
p568
aa(lp569
I2548
aVDwyane Wade
p570
aI1610612748
aVMIA
p571
aF34.0
aI74
aI43
aI31
aF0.581
aF30.5
aF7.3
aF16.0
aF0.456
aF0.1
aF0.6
aF0.159
aF4.4
aF5.5
aF0.793
aF1.1
aF3.0
aF4.1
aF4.6
aF2.7
aF1.1
aF0.6
aF0.6
aF1.6
aF3.7
aF19.0
aF-0.1
aI2
aI0
aI5
aV2548,1610612748
p572
aa(lp573
I202734
aVE'Twaun Moore
p574
aI1610612741
aVCHI
p575
aF27.0
aI59
aI29
aI30
aF0.492
aF21.4
aF3.2
aF6.6
aF0.481
aF0.8
aF1.8
aF0.452
aF0.4
aF0.6
aF0.629
aF0.3
aF1.9
aF2.3
aF1.7
aF0.9
aF0.6
aF0.3
aF0.4
aF1.7
aF0.7
aF7.5
aF-0.6
aI0
aI0
aI5
aV202734,1610612741
p576
aa(lp577
I202334
aVEd Davis
p578
aI1610612757
aVPOR
p579
aF27.0
aI81
aI43
aI38
aF0.531
aF20.8
aF2.5
aF4.2
aF0.611
aF0.0
aF0.0
aF0.0
aF1.4
aF2.5
aF0.559
aF2.8
aF4.6
aF7.4
aF1.1
aF0.8
aF0.7
aF0.9
aF0.3
aF2.5
aF1.9
aF6.5
aF0.3
aI9
aI0
aI5
aV202334,1610612757
p580
aa(lp581
I203901
aVElfrid Payton
p582
aI1610612753
aVORL
p583
aF22.0
aI73
aI32
aI41
aF0.438
aF29.4
aF4.4
aF10.0
aF0.436
aF0.4
aF1.3
aF0.326
aF1.5
aF2.6
aF0.589
aF1.1
aF2.5
aF3.6
aF6.4
aF2.4
aF1.2
aF0.3
aF1.2
aF2.2
aF2.3
aF10.7
aF-0.9
aI14
aI1
aI5
aV203901,1610612753
p584
aa(lp585
I202407
aVElijah Millsap
p586
aI1610612762
aVUTA
p587
aF28.0
aI20
aI9
aI11
aF0.45
aF8.6
aF0.6
aF2.0
aF0.282
aF0.1
aF0.6
aF0.083
aF0.7
aF0.9
aF0.722
aF0.3
aF1.5
aF1.8
aF1.0
aF0.5
aF0.4
aF0.2
aF0.2
aF1.7
aF0.8
aF1.8
aF1.1
aI0
aI0
aI5
aV202407,1610612762
p588
aa(lp589
I202343
aVElliot Williams
p590
aI1610612766
aVCHA
p591
aF27.0
aI5
aI4
aI1
aF0.8
aF9.0
aF0.4
aF2.0
aF0.2
aF0.2
aF0.8
aF0.25
aF0.6
aF0.8
aF0.75
aF0.2
aF0.6
aF0.8
aF0.8
aF0.2
aF0.0
aF0.0
aF0.0
aF0.4
aF1.0
aF1.6
aF-0.6
aI0
aI0
aI5
aV202343,1610612766
p592
aa(lp593
I1882
aVElton Brand
p594
aI1610612755
aVPHI
p595
aF37.0
aI17
aI2
aI15
aF0.118
aF13.2
aF1.8
aF4.2
aF0.431
aF0.0
aF0.1
aF0.0
aF0.5
aF0.5
aF0.889
aF0.5
aF3.2
aF3.7
aF1.1
aF0.6
aF0.5
aF0.5
aF0.1
aF1.9
aF1.0
aF4.1
aF-2.2
aI1
aI0
aI5
aV1882,1610612755
p596
aa(lp597
I1626144
aVEmmanuel Mudiay
p598
aI1610612743
aVDEN
p599
aF20.0
aI68
aI29
aI39
aF0.426
aF30.4
aF4.8
aF13.3
aF0.364
aF1.1
aF3.4
aF0.319
aF2.1
aF3.1
aF0.67
aF0.5
aF2.9
aF3.4
aF5.5
aF3.2
aF1.0
aF0.5
aF1.2
aF2.1
aF2.3
aF12.8
aF-1.7
aI4
aI0
aI5
aV1626144,1610612743
p600
aa(lp601
I202683
aVEnes Kanter
p602
aI1610612760
aVOKC
p603
aF24.0
aI82
aI55
aI27
aF0.671
aF21.0
aF5.0
aF8.8
aF0.576
aF0.1
aF0.3
aF0.476
aF2.4
aF3.1
aF0.797
aF3.0
aF5.1
aF8.1
aF0.4
aF1.4
aF0.3
aF0.4
aF1.0
aF2.0
aF2.5
aF12.7
aF1.5
aI25
aI0
aI5
aV202683,1610612760
p604
aa(lp605
I202339
aVEric Bledsoe
p606
aI1610612756
aVPHX
p607
aF26.0
aI31
aI12
aI19
aF0.387
aF34.2
aF7.2
aF15.9
aF0.453
aF1.5
aF4.2
aF0.372
aF4.5
aF5.5
aF0.802
aF0.6
aF3.5
aF4.0
aF6.1
aF3.5
aF2.0
aF0.6
aF0.8
aF2.4
aF4.8
aF20.4
aF-1.6
aI3
aI0
aI5
aV202339,1610612756
p608
aa(lp609
I201569
aVEric Gordon
p610
aI1610612740
aVNOP
p611
aF27.0
aI45
aI14
aI31
aF0.311
aF32.9
aF5.1
aF12.3
aF0.418
aF2.5
aF6.5
aF0.384
aF2.5
aF2.8
aF0.888
aF0.2
aF2.0
aF2.2
aF2.7
aF1.6
aF1.0
aF0.3
aF0.7
aF2.2
aF2.5
aF15.2
aF-1.6
aI0
aI0
aI5
aV201569,1610612740
p612
aa(lp613
I203961
aVEric Moreland
p614
aI1610612758
aVSAC
p615
aF24.0
aI8
aI1
aI7
aF0.125
aF5.9
aF0.4
aF0.8
aF0.5
aF0.0
aF0.0
aF0.0
aF0.3
aF0.5
aF0.5
aF0.4
aF1.0
aF1.4
aF0.1
aF0.4
aF0.0
aF0.5
aF0.3
aF0.5
aF0.4
aF1.0
aF0.8
aI0
aI0
aI5
aV203961,1610612758
p616
aa(lp617
I203475
aVErick Green
p618
aI1610612743
aVDEN
p619
aF25.0
aI9
aI6
aI3
aF0.667
aF4.7
aF0.6
aF1.4
aF0.385
aF0.1
aF0.6
aF0.2
aF0.2
aF0.2
aF1.0
aF0.3
aF0.3
aF0.7
aF0.3
aF0.0
aF0.1
aF0.0
aF0.0
aF0.4
aF0.2
aF1.4
aF-0.1
aI0
aI0
aI5
aV203475,1610612743
p620
aa(lp621
I101141
aVErsan Ilyasova
p622
aI1610612753
aVORL
p623
aF29.0
aI74
aI35
aI39
aF0.473
aF25.4
aF3.8
aF8.9
aF0.424
aF1.3
aF3.5
aF0.371
aF1.5
aF2.1
aF0.721
aF1.9
aF3.5
aF5.4
aF0.9
aF1.0
aF0.7
aF0.4
aF0.6
aF2.3
aF2.4
aF10.4
aF-1.8
aI4
aI0
aI5
aV101141,1610612753
p624
aa(lp625
I203095
aVEvan Fournier
p626
aI1610612753
aVORL
p627
aF23.0
aI79
aI33
aI46
aF0.418
aF32.5
aF5.4
aF11.8
aF0.462
aF2.0
aF4.9
aF0.4
aF2.5
aF3.0
aF0.836
aF0.4
aF2.4
aF2.8
aF2.7
aF1.7
aF1.2
aF0.0
aF0.9
aF2.7
aF2.7
aF15.4
aF-2.4
aI0
aI0
aI5
aV203095,1610612753
p628
aa(lp629
I202323
aVEvan Turner
p630
aI1610612738
aVBOS
p631
aF27.0
aI81
aI47
aI34
aF0.58
aF28.0
aF4.2
aF9.3
aF0.456
aF0.2
aF1.0
aF0.241
aF1.8
aF2.2
aF0.827
aF0.6
aF4.3
aF4.9
aF4.4
aF2.1
aF1.0
aF0.3
aF0.5
aF1.7
aF2.0
aF10.5
aF1.2
aI4
aI0
aI5
aV202323,1610612738
p632
aa(lp633
I203105
aVFestus Ezeli
p634
aI1610612744
aVGSW
p635
aF26.0
aI46
aI42
aI4
aF0.913
aF16.7
aF2.7
aF5.0
aF0.548
aF0.0
aF0.0
aF0.0
aF1.5
aF2.9
aF0.53
aF2.0
aF3.6
aF5.6
aF0.7
aF0.8
aF0.4
aF1.1
aF0.4
aF2.0
aF2.4
aF7.0
aF4.8
aI6
aI0
aI5
aV203105,1610612744
p636
aa(lp637
I1626163
aVFrank Kaminsky
p638
aI1610612766
aVCHA
p639
aF23.0
aI81
aI47
aI34
aF0.58
aF21.1
aF2.7
aF6.5
aF0.41
aF0.8
aF2.5
aF0.337
aF1.3
aF1.8
aF0.73
aF0.9
aF3.3
aF4.1
aF1.2
aF0.7
aF0.5
aF0.5
aF0.6
aF1.6
aF1.3
aF7.5
aF-0.2
aI1
aI0
aI5
aV1626163,1610612766
p640
aa(lp641
I202066
aVGarrett Temple
p642
aI1610612764
aVWAS
p643
aF30.0
aI80
aI40
aI40
aF0.5
aF24.4
aF2.5
aF6.3
aF0.398
aF1.1
aF3.2
aF0.345
aF1.1
aF1.6
aF0.728
aF0.5
aF2.2
aF2.7
aF1.8
aF0.8
aF0.9
aF0.2
aF0.4
aF2.4
aF1.7
aF7.3
aF-0.5
aI0
aI0
aI5
aV202066,1610612764
p644
aa(lp645
I203914
aVGary Harris
p646
aI1610612743
aVDEN
p647
aF21.0
aI76
aI31
aI45
aF0.408
aF32.1
aF4.7
aF10.1
aF0.469
aF1.4
aF3.9
aF0.354
aF1.4
aF1.8
aF0.82
aF0.7
aF2.2
aF2.9
aF1.9
aF1.3
aF1.3
aF0.2
aF0.6
aF1.9
aF1.3
aF12.3
aF-2.8
aI0
aI0
aI5
aV203914,1610612743
p648
aa(lp649
I202390
aVGary Neal
p650
aI1610612764
aVWAS
p651
aF31.0
aI40
aI18
aI22
aF0.45
aF20.2
aF3.8
aF8.1
aF0.465
aF1.0
aF2.5
aF0.41
aF1.2
aF1.4
aF0.855
aF0.3
aF1.8
aF2.1
aF1.2
aF0.7
aF0.5
aF0.0
aF0.3
aF1.4
aF1.1
aF9.8
aF-4.1
aI0
aI0
aI5
aV202390,1610612764
p652
aa(lp653
I201588
aVGeorge Hill
p654
aI1610612754
aVIND
p655
aF30.0
aI74
aI41
aI33
aF0.554
aF34.1
aF4.4
aF10.0
aF0.441
aF1.7
aF4.2
aF0.408
aF1.5
aF2.0
aF0.76
aF0.8
aF3.2
aF4.0
aF3.5
aF1.4
aF1.1
aF0.2
aF0.4
aF2.0
aF2.6
aF12.1
aF1.3
aI0
aI0
aI5
aV201588,1610612754
p656
aa(lp657
I101123
aVGerald Green
p658
aI1610612748
aVMIA
p659
aF30.0
aI69
aI40
aI29
aF0.58
aF22.6
aF3.3
aF8.5
aF0.392
aF1.2
aF3.8
aF0.323
aF1.0
aF1.3
aF0.783
aF0.4
aF2.0
aF2.4
aF0.8
aF0.7
aF0.6
aF0.3
aF0.3
aF1.8
aF1.1
aF8.9
aF0.7
aI0
aI0
aI5
aV101123,1610612748
p660
aa(lp661
I201945
aVGerald Henderson
p662
aI1610612757
aVPOR
p663
aF28.0
aI72
aI39
aI33
aF0.542
aF19.9
aF3.2
aF7.3
aF0.439
aF0.7
aF1.9
aF0.353
aF1.6
aF2.0
aF0.767
aF0.4
aF2.5
aF2.9
aF1.0
aF0.9
aF0.5
aF0.3
aF0.3
aF1.2
aF1.8
aF8.7
aF0.3
aI0
aI0
aI5
aV201945,1610612757
p664
aa(lp665
I203507
aVGiannis Antetokounmpo
p666
aI1610612749
aVMIL
p667
aF21.0
aI80
aI32
aI48
aF0.4
aF35.3
aF6.4
aF12.7
aF0.506
aF0.4
aF1.4
aF0.257
aF3.7
aF5.1
aF0.724
aF1.4
aF6.2
aF7.7
aF4.3
aF2.6
aF1.2
aF1.4
aF0.8
aF3.2
aF4.1
aF16.9
aF-2.1
aI21
aI5
aI5
aV203507,1610612749
p668
aa(lp669
I203922
aVGlenn Robinson
p670
aI1610612754
aVIND
p671
aF22.0
aI45
aI24
aI21
aF0.533
aF11.3
aF1.4
aF3.4
aF0.43
aF0.3
aF0.8
aF0.378
aF0.6
aF0.9
aF0.692
aF0.3
aF1.2
aF1.5
aF0.6
aF0.4
aF0.4
aF0.2
aF0.3
aF0.5
aF0.8
aF3.8
aF-0.8
aI0
aI0
aI5
aV203922,1610612754
p672
aa(lp673
I201609
aVGoran Dragic
p674
aI1610612748
aVMIA
p675
aF30.0
aI72
aI44
aI28
aF0.611
aF32.8
aF5.8
aF12.2
aF0.477
aF0.9
aF2.8
aF0.312
aF1.7
aF2.3
aF0.727
aF0.8
aF3.1
aF3.8
aF5.8
aF2.6
aF1.0
aF0.2
aF0.6
aF2.6
aF2.6
aF14.1
aF2.8
aI5
aI0
aI5
aV201609,1610612748
p676
aa(lp677
I202330
aVGordon Hayward
p678
aI1610612762
aVUTA
p679
aF26.0
aI80
aI38
aI42
aF0.475
aF36.2
aF6.5
aF15.0
aF0.433
aF1.8
aF5.1
aF0.349
aF4.9
aF6.0
aF0.824
aF0.8
aF4.2
aF5.0
aF3.7
aF2.5
aF1.2
aF0.3
aF0.7
aF2.3
aF4.7
aF19.7
aF1.2
aI4
aI0
aI5
aV202330,1610612762
p680
aa(lp681
I203476
aVGorgui Dieng
p682
aI1610612750
aVMIN
p683
aF26.0
aI82
aI29
aI53
aF0.354
aF27.1
aF3.8
aF7.1
aF0.532
aF0.1
aF0.2
aF0.3
aF2.5
aF3.0
aF0.827
aF1.9
aF5.2
aF7.1
aF1.7
aF1.7
aF1.1
aF1.2
aF0.6
aF2.7
aF2.5
aF10.1
aF-0.1
aI15
aI0
aI5
aV203476,1610612750
p684
aa(lp685
I202328
aVGreg Monroe
p686
aI1610612749
aVMIL
p687
aF26.0
aI79
aI32
aI47
aF0.405
aF29.3
aF6.2
aF11.9
aF0.522
aF0.0
aF0.0
aF0.0
aF2.9
aF3.9
aF0.74
aF2.8
aF6.1
aF8.8
aF2.3
aF1.6
aF0.9
aF0.8
aF1.2
aF2.1
aF3.2
aF15.3
aF-1.4
aI32
aI0
aI5
aV202328,1610612749
p688
aa(lp689
I202962
aVGreg Smith
p690
aI1610612750
aVMIN
p691
aF25.0
aI18
aI8
aI10
aF0.444
aF10.7
aF1.0
aF1.8
aF0.563
aF0.0
aF0.0
aF0.0
aF0.4
aF0.9
aF0.412
aF0.7
aF1.7
aF2.3
aF0.3
aF0.4
aF0.2
aF0.1
aF0.4
aF1.6
aF0.8
aF2.4
aF-4.3
aI0
aI0
aI5
aV202962,1610612750
p692
aa(lp693
I202349
aVGreivis Vasquez
p694
aI1610612749
aVMIL
p695
aF29.0
aI23
aI9
aI14
aF0.391
aF20.0
aF2.0
aF6.0
aF0.326
aF0.8
aF3.2
aF0.247
aF1.0
aF1.1
aF0.846
aF0.2
aF1.8
aF2.0
aF4.0
aF1.7
aF0.4
aF0.0
aF0.3
aF1.8
aF1.2
aF5.7
aF-4.1
aI0
aI0
aI5
aV202349,1610612749
p696
aa(lp697
I203084
aVHarrison Barnes
p698
aI1610612744
aVGSW
p699
aF24.0
aI66
aI59
aI7
aF0.894
aF30.9
aF4.5
aF9.6
aF0.466
aF1.2
aF3.2
aF0.383
aF1.5
aF2.0
aF0.761
aF1.2
aF3.8
aF4.9
aF1.8
aF0.9
aF0.6
aF0.2
aF0.5
aF2.1
aF2.0
aF11.7
aF6.9
aI1
aI0
aI5
aV203084,1610612744
p700
aa(lp701
I202355
aVHassan Whiteside
p702
aI1610612748
aVMIA
p703
aF27.0
aI73
aI42
aI31
aF0.575
aF29.1
aF5.7
aF9.3
aF0.606
aF0.0
aF0.0
aF0.0
aF2.9
aF4.5
aF0.65
aF3.3
aF8.6
aF11.8
aF0.4
aF1.9
aF0.6
aF3.7
aF0.6
aF2.8
aF3.8
aF14.2
aF1.2
aI41
aI3
aI5
aV202355,1610612748
p704
aa(lp705
I203156
aVHenry Sims
p706
aI1610612751
aVBKN
p707
aF26.0
aI14
aI2
aI12
aF0.143
aF18.8
aF2.4
aF5.5
aF0.429
aF0.0
aF0.0
aF0.0
aF1.8
aF2.1
aF0.833
aF1.5
aF3.6
aF5.1
aF0.6
aF0.9
aF0.6
aF1.0
aF0.1
aF2.6
aF1.5
aF6.5
aF-6.7
aI0
aI0
aI5
aV203156,1610612751
p708
aa(lp709
I203138
aVHollis Thompson
p710
aI1610612755
aVPHI
p711
aF25.0
aI77
aI10
aI67
aF0.13
aF28.0
aF3.5
aF8.8
aF0.397
aF1.9
aF5.1
aF0.38
aF0.9
aF1.2
aF0.719
aF0.7
aF2.8
aF3.5
aF1.3
aF1.0
aF0.5
aF0.3
aF0.2
aF2.4
aF1.1
aF9.8
aF-4.8
aI0
aI0
aI5
aV203138,1610612755
p712
aa(lp713
I203546
aVIan Clark
p714
aI1610612744
aVGSW
p715
aF25.0
aI66
aI59
aI7
aF0.894
aF8.8
aF1.3
aF3.1
aF0.441
aF0.5
aF1.3
aF0.357
aF0.4
aF0.5
aF0.824
aF0.2
aF0.8
aF1.0
aF1.0
aF0.7
aF0.3
aF0.2
aF0.2
aF0.9
aF0.3
aF3.6
aF-1.2
aI0
aI0
aI5
aV203546,1610612744
p716
aa(lp717
I101133
aVIan Mahinmi
p718
aI1610612754
aVIND
p719
aF29.0
aI71
aI41
aI30
aF0.577
aF25.6
aF3.7
aF6.3
aF0.589
aF0.0
aF0.0
aF0.0
aF1.9
aF3.2
aF0.587
aF1.9
aF5.2
aF7.1
aF1.5
aF1.4
aF0.9
aF1.1
aF0.6
aF3.1
aF2.4
aF9.3
aF1.6
aI9
aI0
aI5
aV101133,1610612754
p720
aa(lp721
I202697
aVIman Shumpert
p722
aI1610612739
aVCLE
p723
aF26.0
aI54
aI39
aI15
aF0.722
aF24.4
aF2.1
aF5.6
aF0.374
aF0.8
aF2.7
aF0.295
aF0.7
aF0.9
aF0.784
aF0.6
aF3.2
aF3.8
aF1.7
aF1.1
aF1.0
aF0.4
aF0.3
aF2.2
aF1.1
aF5.8
aF3.4
aI1
aI0
aI5
aV202697,1610612739
p724
aa(lp725
I203477
aVIsaiah Canaan
p726
aI1610612755
aVPHI
p727
aF25.0
aI77
aI10
aI67
aF0.13
aF25.5
aF3.4
aF9.4
aF0.36
aF2.3
aF6.3
aF0.363
aF1.9
aF2.3
aF0.833
aF0.3
aF2.0
aF2.3
aF1.8
aF1.2
aF0.7
aF0.2
aF0.5
aF1.7
aF1.7
aF11.0
aF-6.3
aI0
aI0
aI5
aV203477,1610612755
p728
aa(lp729
I202738
aVIsaiah Thomas
p730
aI1610612738
aVBOS
p731
aF27.0
aI82
aI48
aI34
aF0.585
aF32.2
aF7.2
aF16.9
aF0.428
aF2.0
aF5.7
aF0.359
aF5.8
aF6.6
aF0.871
aF0.6
aF2.4
aF3.0
aF6.2
aF2.7
aF1.1
aF0.1
aF1.3
aF2.0
aF5.5
aF22.2
aF3.6
aI7
aI0
aI5
aV202738,1610612738
p732
aa(lp733
I202397
aVIsh Smith
p734
aI1610612755
aVPHI
p735
aF27.0
aI77
aI16
aI61
aF0.208
aF29.1
aF5.2
aF12.6
aF0.411
aF0.7
aF2.2
aF0.329
aF1.6
aF2.3
aF0.693
aF0.6
aF3.4
aF4.0
aF6.5
aF2.3
aF1.1
aF0.3
aF0.7
aF1.7
aF2.2
aF12.6
aF-4.5
aI12
aI0
aI5
aV202397,1610612755
p736
aa(lp737
I1626266
aVJ.J. O'Brien
p738
aI1610612762
aVUTA
p739
aF24.0
aI2
aI2
aI0
aF1.0
aF3.1
aF0.0
aF0.5
aF0.0
aF0.0
aF0.0
aF0.0
aF0.0
aF0.0
aF0.0
aF0.0
aF0.5
aF0.5
aF0.0
aF0.0
aF0.5
aF0.0
aF0.0
aF0.5
aF0.0
aF0.0
aF-4.0
aI0
aI0
aI5
aV1626266,1610612762
p740
aa(lp741
I2747
aVJ.R. Smith
p742
aI1610612739
aVCLE
p743
aF30.0
aI77
aI53
aI24
aF0.688
aF30.7
aF4.6
aF11.0
aF0.415
aF2.6
aF6.6
aF0.4
aF0.6
aF0.9
aF0.634
aF0.6
aF2.3
aF2.8
aF1.7
aF0.8
aF1.1
aF0.3
aF0.3
aF2.6
aF1.3
aF12.4
aF4.0
aI1
aI0
aI5
aV2747,1610612739
p744
aa(lp745
I201581
aVJJ Hickson
p746
aI1610612764
aVWAS
p747
aF27.0
aI35
aI17
aI18
aF0.486
aF12.5
aF2.3
aF4.4
aF0.516
aF0.0
aF0.0
aF0.0
aF1.3
aF2.9
aF0.447
aF1.1
aF2.7
aF3.8
aF0.7
aF0.7
aF0.4
aF0.4
aF0.4
aF1.3
aF1.8
aF5.9
aF-1.7
aI2
aI0
aI5
aV201581,1610612764
p748
aa(lp749
I200755
aVJJ Redick
p750
aI1610612746
aVLAC
p751
aF32.0
aI75
aI50
aI25
aF0.667
aF28.0
aF5.6
aF11.7
aF0.48
aF2.7
aF5.6
aF0.475
aF2.4
aF2.7
aF0.888
aF0.1
aF1.7
aF1.9
aF1.4
aF1.0
aF0.6
aF0.1
aF0.3
aF1.8
aF2.6
aF16.3
aF6.8
aI0
aI0
aI5
aV200755,1610612746
p752
aa(lp753
I203960
aVJaKarr Sampson
p754
aI1610612743
aVDEN
p755
aF23.0
aI73
aI18
aI55
aF0.247
aF15.9
aF1.9
aF4.3
aF0.442
aF0.2
aF0.9
aF0.222
aF1.1
aF1.7
aF0.656
aF0.6
aF2.0
aF2.6
aF0.6
aF1.0
aF0.3
aF0.5
aF0.4
aF1.9
aF1.2
aF5.1
aF-3.2
aI0
aI0
aI5
aV203960,1610612743
p756
aa(lp757
I203210
aVJaMychal Green
p758
aI1610612763
aVMEM
p759
aF26.0
aI78
aI39
aI39
aF0.5
aF18.5
aF2.9
aF6.3
aF0.465
aF0.2
aF0.6
aF0.333
aF1.3
aF1.8
aF0.752
aF1.8
aF3.0
aF4.8
aF0.9
aF1.1
aF0.6
aF0.4
aF0.6
aF2.4
aF1.4
aF7.4
aF-0.6
aI7
aI0
aI5
aV203210,1610612763
p760
aa(lp761
I201580
aVJaVale McGee
p762
aI1610612742
aVDAL
p763
aF28.0
aI34
aI15
aI19
aF0.441
aF10.9
aF2.3
aF3.9
aF0.575
aF0.0
aF0.0
aF0.0
aF0.5
aF1.1
aF0.5
aF1.6
aF2.4
aF3.9
aF0.1
aF0.6
aF0.1
aF0.8
aF0.3
aF1.4
aF1.1
aF5.1
aF-1.6
aI1
aI0
aI5
aV201580,1610612742
p764
aa(lp765
I203953
aVJabari Parker
p766
aI1610612749
aVMIL
p767
aF21.0
aI76
aI32
aI44
aF0.421
aF31.7
aF5.8
aF11.8
aF0.493
aF0.1
aF0.5
aF0.257
aF2.3
aF3.0
aF0.768
aF1.6
aF3.6
aF5.2
aF1.7
aF1.5
aF0.9
aF0.4
aF1.0
aF2.0
aF2.3
aF14.1
aF-2.5
aI6
aI0
aI5
aV203953,1610612749
p768
aa(lp769
I203109
aVJae Crowder
p770
aI1610612738
aVBOS
p771
aF25.0
aI73
aI43
aI30
aF0.589
aF31.6
aF4.9
aF11.1
aF0.443
aF1.7
aF5.0
aF0.336
aF2.7
aF3.3
aF0.82
aF1.0
aF4.2
aF5.1
aF1.8
aF1.1
aF1.7
aF0.5
aF0.3
aF2.7
aF2.5
aF14.2
aF2.9
aI5
aI0
aI5
aV203109,1610612738
p772
aa(lp773
I1626143
aVJahlil Okafor
p774
aI1610612755
aVPHI
p775
aF20.0
aI53
aI6
aI47
aF0.113
aF30.0
aF7.5
aF14.7
aF0.508
aF0.0
aF0.1
aF0.167
aF2.5
aF3.7
aF0.686
aF2.3
aF4.7
aF7.0
aF1.2
aF2.3
aF0.4
aF1.2
aF1.3
aF2.6
aF3.1
aF17.5
aF-9.4
aI11
aI0
aI5
aV1626143,1610612755
p776
aa(lp777
I2037
aVJamal Crawford
p778
aI1610612746
aVLAC
p779
aF36.0
aI79
aI51
aI28
aF0.646
aF26.9
aF4.8
aF11.9
aF0.404
aF1.5
aF4.4
aF0.34
aF3.1
aF3.4
aF0.904
aF0.3
aF1.6
aF1.8
aF2.3
aF1.4
aF0.7
aF0.2
aF0.3
aF1.5
aF2.8
aF14.2
aF2.1
aI0
aI0
aI5
aV2037,1610612746
p780
aa(lp781
I2749
aVJameer Nelson
p782
aI1610612743
aVDEN
p783
aF34.0
aI39
aI12
aI27
aF0.308
aF26.6
aF2.9
aF7.9
aF0.368
aF1.1
aF3.7
aF0.299
aF0.8
aF0.9
aF0.857
aF0.5
aF2.5
aF2.9
aF4.9
aF1.7
aF0.6
aF0.1
aF0.3
aF2.6
aF1.4
aF7.7
aF-3.4
aI0
aI0
aI5
aV2749,1610612743
p784
aa(lp785
I202341
aVJames Anderson
p786
aI1610612758
aVSAC
p787
aF27.0
aI51
aI19
aI32
aF0.373
aF14.1
aF1.3
aF3.5
aF0.376
aF0.5
aF1.7
aF0.267
aF0.4
aF0.6
aF0.759
aF0.3
aF1.4
aF1.7
aF0.8
aF0.8
aF0.4
aF0.3
aF0.2
aF1.1
aF0.6
aF3.5
aF-1.6
aI0
aI0
aI5
aV202341,1610612758
p788
aa(lp789
I203516
aVJames Ennis
p790
aI1610612740
aVNOP
p791
aF25.0
aI22
aI11
aI11
aF0.5
aF14.9
aF2.5
aF5.1
aF0.478
aF1.2
aF2.6
aF0.448
aF1.1
aF1.5
aF0.735
aF1.0
aF1.0
aF1.9
aF1.0
aF0.9
aF0.7
aF0.2
aF0.2
aF1.3
aF1.5
aF7.2
aF-2.0
aI0
aI0
aI5
aV203516,1610612740
p792
aa(lp793
I201935
aVJames Harden
p794
aI1610612745
aVHOU
p795
aF26.0
aI82
aI41
aI41
aF0.5
aF38.1
aF8.7
aF19.7
aF0.439
aF2.9
aF8.0
aF0.359
aF8.8
aF10.2
aF0.86
aF0.8
aF5.3
aF6.1
aF7.5
aF4.6
aF1.7
aF0.6
aF1.2
aF2.8
aF6.8
aF29.0
aF1.5
aI23
aI3
aI5
aV201935,1610612745
p796
aa(lp797
I201949
aVJames Johnson
p798
aI1610612761
aVTOR
p799
aF29.0
aI57
aI35
aI22
aF0.614
aF16.2
aF2.0
aF4.2
aF0.475
aF0.4
aF1.2
aF0.303
aF0.7
aF1.2
aF0.574
aF0.5
aF1.7
aF2.2
aF1.2
aF0.9
aF0.5
aF0.6
aF0.2
aF1.5
aF0.9
aF5.0
aF0.1
aI0
aI0
aI5
aV201949,1610612761
p800
aa(lp801
I2592
aVJames Jones
p802
aI1610612739
aVCLE
p803
aF35.0
aI48
aI33
aI15
aF0.688
aF9.7
aF1.2
aF3.0
aF0.408
aF0.9
aF2.2
aF0.394
aF0.4
aF0.5
aF0.808
aF0.2
aF0.9
aF1.0
aF0.3
aF0.3
aF0.2
aF0.2
aF0.1
aF1.0
aF0.5
aF3.7
aF-0.5
aI0
aI0
aI5
aV2592,1610612739
p804
aa(lp805
I203949
aVJames Michael McAdoo
p806
aI1610612744
aVGSW
p807
aF23.0
aI41
aI37
aI4
aF0.902
aF6.4
aF1.1
aF2.0
aF0.536
aF0.0
aF0.0
aF0.5
aF0.6
aF1.2
aF0.531
aF0.7
aF0.7
aF1.4
aF0.4
aF0.4
aF0.2
aF0.2
aF0.4
aF1.0
aF0.8
aF2.9
aF-2.1
aI0
aI0
aI5
aV203949,1610612744
p808
aa(lp809
I203923
aVJames Young
p810
aI1610612738
aVBOS
p811
aF20.0
aI29
aI12
aI17
aF0.414
aF6.9
aF0.4
aF1.2
aF0.306
aF0.2
aF0.9
aF0.231
aF0.0
aF0.1
aF0.25
aF0.1
aF0.8
aF0.9
aF0.3
aF0.2
aF0.2
aF0.0
aF0.1
aF0.6
aF0.1
aF1.0
aF-0.9
aI0
aI0
aI5
aV203923,1610612738
p812
aa(lp813
I203099
aVJared Cunningham
p814
aI1610612739
aVCLE
p815
aF25.0
aI44
aI31
aI13
aF0.705
aF9.3
aF0.8
aF2.4
aF0.343
aF0.3
aF0.9
aF0.308
aF0.8
aF1.3
aF0.655
aF0.1
aF0.8
aF0.9
aF0.5
aF0.5
aF0.3
aF0.0
aF0.4
aF0.9
aF1.0
aF2.7
aF-1.0
aI0
aI0
aI5
aV203099,1610612739
p816
aa(lp817
I201162
aVJared Dudley
p818
aI1610612764
aVWAS
p819
aF30.0
aI81
aI40
aI41
aF0.494
aF25.9
aF2.9
aF6.0
aF0.478
aF1.2
aF2.9
aF0.42
aF0.9
aF1.2
aF0.735
aF0.7
aF2.9
aF3.5
aF2.1
aF1.0
aF0.9
aF0.2
aF0.1
aF2.3
aF1.3
aF7.9
aF0.8
aI0
aI0
aI5
aV201162,1610612764
p820
aa(lp821
I203096
aVJared Sullinger
p822
aI1610612738
aVBOS
p823
aF24.0
aI81
aI47
aI34
aF0.58
aF23.6
aF4.3
aF10.0
aF0.435
aF0.4
aF1.3
aF0.282
aF1.3
aF2.0
aF0.64
aF2.4
aF5.9
aF8.3
aF2.3
aF1.3
aF0.9
aF0.6
aF0.6
aF2.6
aF2.0
aF10.3
aF2.6
aI25
aI0
aI5
aV203096,1610612738
p824
aa(lp825
I204067
aVJarell Eddie
p826
aI1610612764
aVWAS
p827
aF24.0
aI26
aI13
aI13
aF0.5
aF5.6
aF0.8
aF2.5
aF0.308
aF0.6
aF1.8
aF0.319
aF0.3
aF0.3
aF1.0
aF0.1
aF0.8
aF0.9
aF0.2
aF0.0
aF0.2
aF0.0
aF0.1
aF0.2
aF0.2
aF2.4
aF-1.3
aI0
aI0
aI5
aV204067,1610612764
p828
aa(lp829
I1626185
aVJarell Martin
p830
aI1610612763
aVMEM
p831
aF22.0
aI27
aI10
aI17
aF0.37
aF14.1
aF2.0
aF4.3
aF0.466
aF0.0
aF0.1
aF0.0
aF1.7
aF2.3
aF0.726
aF1.4
aF1.7
aF3.2
aF0.6
aF0.7
aF0.3
aF0.3
aF0.6
aF2.1
aF1.6
aF5.7
aF-1.4
aI0
aI0
aI5
aV1626185,1610612763
p832
aa(lp833
I203950
aVJarnell Stokes
p834
aI1610612763
aVMEM
p835
aF22.0
aI7
aI1
aI6
aF0.143
aF2.7
aF0.4
aF0.7
aF0.6
aF0.0
aF0.0
aF0.0
aF0.1
aF0.3
aF0.5
aF0.1
aF0.4
aF0.6
aF0.1
aF0.0
aF0.1
aF0.0
aF0.0
aF0.1
aF0.1
aF1.0
aF1.3
aI0
aI0
aI5
aV203950,1610612763
p836
aa(lp837
I101127
aVJarrett Jack
p838
aI1610612751
aVBKN
p839
aF32.0
aI32
aI10
aI22
aF0.313
aF32.1
aF4.4
aF11.2
aF0.391
aF1.0
aF3.2
aF0.304
aF3.1
aF3.5
aF0.893
aF0.3
aF4.0
aF4.3
aF7.4
aF2.9
aF1.1
aF0.2
aF0.7
aF2.4
aF2.6
aF12.8
aF-4.1
aI6
aI0
aI5
aV101127,1610612751
p840
aa(lp841
I201160
aVJason Smith
p842
aI1610612753
aVORL
p843
aF30.0
aI76
aI33
aI43
aF0.434
aF15.5
aF3.2
aF6.6
aF0.485
aF0.1
aF0.2
aF0.25
aF0.7
aF0.9
aF0.806
aF0.7
aF2.2
aF2.9
aF0.8
aF0.8
aF0.4
aF0.9
aF0.3
aF2.1
aF1.0
aF7.2
aF-0.5
aI1
aI0
aI5
aV201160,1610612753
p844
aa(lp845
I1891
aVJason Terry
p846
aI1610612745
aVHOU
p847
aF38.0
aI72
aI37
aI35
aF0.514
aF17.5
aF2.1
aF5.2
aF0.402
aF1.3
aF3.6
aF0.356
aF0.4
aF0.5
aF0.818
aF0.2
aF0.9
aF1.1
aF1.4
aF0.7
aF0.7
aF0.1
aF0.1
aF1.3
aF0.4
aF5.9
aF0.5
aI0
aI0
aI5
aV1891,1610612745
p848
aa(lp849
I201574
aVJason Thompson
p850
aI1610612761
aVTOR
p851
aF29.0
aI47
aI38
aI9
aF0.809
aF10.0
aF1.1
aF2.3
aF0.481
aF0.1
aF0.3
aF0.333
aF0.8
aF1.1
aF0.704
aF0.7
aF2.2
aF2.9
aF0.6
aF0.3
aF0.3
aF0.4
aF0.2
aF1.7
aF0.8
aF3.1
aF-0.1
aI0
aI0
aI5
aV201574,1610612761
p852
aa(lp853
I201965
aVJeff Ayres
p854
aI1610612746
aVLAC
p855
aF29.0
aI17
aI11
aI6
aF0.647
aF6.3
aF0.7
aF1.4
aF0.522
aF0.0
aF0.1
aF0.0
aF0.4
aF0.4
aF1.0
aF0.2
aF1.1
aF1.3
aF0.3
aF0.4
aF0.0
aF0.2
aF0.2
aF1.1
aF0.4
aF1.8
aF-2.7
aI0
aI0
aI5
aV201965,1610612746
p856
aa(lp857
I201145
aVJeff Green
p858
aI1610612746
aVLAC
p859
aF29.0
aI80
aI48
aI32
aF0.6
aF28.2
aF4.4
aF10.3
aF0.43
aF0.8
aF2.7
aF0.315
aF2.1
aF2.8
aF0.745
aF0.9
aF3.2
aF4.2
aF1.7
aF1.2
aF0.7
aF0.5
aF0.7
aF2.1
aF2.3
aF11.7
aF-0.5
aI1
aI0
aI5
aV201145,1610612746
p860
aa(lp861
I201952
aVJeff Teague
p862
aI1610612737
aVATL
p863
aF28.0
aI79
aI47
aI32
aF0.595
aF28.5
aF5.5
aF12.5
aF0.439
aF1.4
aF3.5
aF0.401
aF3.3
aF3.9
aF0.837
aF0.4
aF2.3
aF2.7
aF5.9
aF2.8
aF1.2
aF0.3
aF1.1
aF2.1
aF3.2
aF15.7
aF0.8
aI4
aI0
aI5
aV201952,1610612737
p864
aa(lp865
I203481
aVJeff Withey
p866
aI1610612762
aVUTA
p867
aF26.0
aI51
aI25
aI26
aF0.49
aF12.9
aF1.7
aF3.2
aF0.537
aF0.0
aF0.0
aF0.0
aF0.8
aF1.2
aF0.729
aF1.1
aF2.3
aF3.4
aF0.4
aF0.5
aF0.4
aF1.0
aF0.3
aF1.5
aF1.0
aF4.3
aF1.1
aI2
aI0
aI5
aV203481,1610612762
p868
aa(lp869
I203924
aVJerami Grant
p870
aI1610612755
aVPHI
p871
aF22.0
aI77
aI9
aI68
aF0.117
aF26.8
aF3.3
aF7.8
aF0.419
aF0.5
aF1.9
aF0.24
aF2.8
aF4.2
aF0.658
aF1.3
aF3.4
aF4.7
aF1.8
aF1.4
aF0.7
aF1.6
aF1.0
aF2.8
aF3.7
aF9.7
aF-6.4
aI3
aI0
aI5
aV203924,1610612755
p872
aa(lp873
I202379
aVJeremy Evans
p874
aI1610612742
aVDAL
p875
aF28.0
aI30
aI16
aI14
aF0.533
aF8.4
aF0.9
aF1.6
aF0.542
aF0.1
aF0.5
aF0.25
aF0.5
aF0.7
aF0.714
aF0.4
aF1.4
aF1.8
aF0.1
aF0.2
aF0.2
aF0.3
aF0.1
aF0.6
aF0.7
aF2.4
aF-1.4
aI0
aI0
aI5
aV202379,1610612742
p876
aa(lp877
I203087
aVJeremy Lamb
p878
aI1610612766
aVCHA
p879
aF24.0
aI66
aI40
aI26
aF0.606
aF18.6
aF3.5
aF7.7
aF0.451
aF0.8
aF2.7
aF0.309
aF1.0
aF1.3
aF0.727
aF0.7
aF3.2
aF3.8
aF1.2
aF0.8
aF0.6
aF0.5
aF0.3
aF1.6
aF1.3
aF8.8
aF2.3
aI1
aI0
aI5
aV203087,1610612766
p880
aa(lp881
I202391
aVJeremy Lin
p882
aI1610612766
aVCHA
p883
aF27.0
aI78
aI47
aI31
aF0.603
aF26.3
aF3.8
aF9.3
aF0.412
aF1.0
aF2.9
aF0.336
aF3.1
aF3.7
aF0.815
aF0.5
aF2.7
aF3.2
aF3.0
aF1.9
aF0.7
aF0.5
aF0.8
aF2.1
aF4.0
aF11.7
aF1.1
aI1
aI0
aI5
aV202391,1610612766
p884
aa(lp885
I1626170
aVJerian Grant
p886
aI1610612752
aVNYK
p887
aF23.0
aI76
aI29
aI47
aF0.382
aF16.6
aF2.0
aF5.1
aF0.394
aF0.3
aF1.3
aF0.22
aF1.3
aF1.6
aF0.78
aF0.3
aF1.6
aF1.9
aF2.3
aF1.1
aF0.7
aF0.1
aF0.4
aF1.3
aF1.5
aF5.6
aF-2.2
aI0
aI0
aI5
aV1626170,1610612752
p888
aa(lp889
I201573
aVJerryd Bayless
p890
aI1610612749
aVMIL
p891
aF27.0
aI52
aI21
aI31
aF0.404
aF28.9
aF3.6
aF8.4
aF0.423
aF1.9
aF4.4
aF0.437
aF1.3
aF1.7
aF0.778
aF0.4
aF2.3
aF2.7
aF3.1
aF1.4
aF0.9
aF0.2
aF0.4
aF2.1
aF1.7
aF10.4
aF-3.6
aI1
aI0
aI5
aV201573,1610612749
p892
aa(lp893
I202690
aVJimmer Fredette
p894
aI1610612759
aVSAS
p895
aF27.0
aI6
aI1
aI5
aF0.167
aF2.9
aF0.3
aF0.8
aF0.4
aF0.2
aF0.3
aF0.5
aF0.7
aF0.8
aF0.8
aF0.0
aF0.0
aF0.0
aF0.2
aF0.3
aF0.2
aF0.0
aF0.0
aF0.3
aF0.3
aF1.5
aF-4.2
aI0
aI0
aI5
aV202690,1610612759
p896
aa(lp897
I202710
aVJimmy Butler
p898
aI1610612741
aVCHI
p899
aF26.0
aI67
aI37
aI30
aF0.552
aF36.9
aF7.0
aF15.4
aF0.454
aF1.0
aF3.1
aF0.312
aF5.9
aF7.1
aF0.832
aF1.2
aF4.2
aF5.3
aF4.8
aF2.0
aF1.6
aF0.6
aF0.8
aF1.9
aF5.5
aF20.9
aF-0.2
aI10
aI2
aI5
aV202710,1610612741
p900
aa(lp901
I201149
aVJoakim Noah
p902
aI1610612741
aVCHI
p903
aF31.0
aI29
aI15
aI14
aF0.517
aF21.9
aF1.8
aF4.6
aF0.383
aF0.0
aF0.0
aF0.0
aF0.8
aF1.6
aF0.489
aF3.0
aF5.8
aF8.8
aF3.8
aF1.8
aF0.6
aF1.0
aF0.6
aF2.7
aF1.5
aF4.3
aF-1.2
aI1
aI0
aI5
aV201149,1610612741
p904
aa(lp905
I201975
aVJodie Meeks
p906
aI1610612765
aVDET
p907
aF28.0
aI3
aI3
aI0
aF1.0
aF14.5
aF2.3
aF6.7
aF0.35
aF1.3
aF3.0
aF0.444
aF1.3
aF1.3
aF1.0
aF0.3
aF1.3
aF1.7
aF1.0
aF0.3
aF0.0
aF0.0
aF0.7
aF0.7
aF0.7
aF7.3
aF3.0
aI0
aI0
aI5
aV201975,1610612765
p908
aa(lp909
I203925
aVJoe Harris
p910
aI1610612739
aVCLE
p911
aF24.0
aI5
aI5
aI0
aF1.0
aF3.0
aF0.2
aF0.8
aF0.25
aF0.2
aF0.8
aF0.25
aF0.0
aF0.0
aF0.0
aF0.0
aF0.6
aF0.6
aF0.4
aF0.2
aF0.0
aF0.0
aF0.0
aF0.2
aF0.0
aF0.6
aF-4.2
aI0
aI0
aI5
aV203925,1610612739
p912
aa(lp913
I204060
aVJoe Ingles
p914
aI1610612762
aVUTA
p915
aF28.0
aI81
aI40
aI41
aF0.494
aF15.3
aF1.5
aF3.6
aF0.426
aF1.0
aF2.6
aF0.386
aF0.2
aF0.2
aF0.722
aF0.2
aF1.6
aF1.9
aF1.2
aF0.8
aF0.7
aF0.0
aF0.1
aF1.2
aF0.5
aF4.2
aF0.0
aI0
aI0
aI5
aV204060,1610612762
p916
aa(lp917
I2207
aVJoe Johnson
p918
aI1610612748
aVMIA
p919
aF35.0
aI81
aI31
aI50
aF0.383
aF33.4
aF4.7
aF10.6
aF0.439
aF1.5
aF3.9
aF0.383
aF1.5
aF1.8
aF0.831
aF0.6
aF3.0
aF3.6
aF3.9
aF2.0
aF0.8
aF0.0
aF0.3
aF1.8
aF1.7
aF12.2
aF-0.7
aI3
aI0
aI5
aV2207,1610612748
p920
aa(lp921
I1626202
aVJoe Young
p922
aI1610612754
aVIND
p923
aF24.0
aI41
aI19
aI22
aF0.463
aF9.4
aF1.5
aF4.1
aF0.367
aF0.2
aF1.1
aF0.217
aF0.5
aF0.6
aF0.8
aF0.1
aF1.1
aF1.2
aF1.6
aF0.8
aF0.4
aF0.0
aF0.1
aF0.7
aF0.6
aF3.8
aF-0.8
aI0
aI0
aI5
aV1626202,1610612754
p924
aa(lp925
I201202
aVJoel Anthony
p926
aI1610612765
aVDET
p927
aF33.0
aI19
aI12
aI7
aF0.632
aF5.0
aF0.3
aF0.5
aF0.6
aF0.0
aF0.0
aF0.0
aF0.3
aF0.4
aF0.75
aF0.4
aF0.7
aF1.1
aF0.1
aF0.1
aF0.1
aF0.6
aF0.1
aF0.8
aF0.3
aF0.9
aF-0.9
aI0
aI0
aI5
aV201202,1610612765
p928
aa(lp929
I203530
aVJoffrey Lauvergne
p930
aI1610612743
aVDEN
p931
aF24.0
aI59
aI24
aI35
aF0.407
aF17.6
aF3.3
aF6.4
aF0.513
aF0.2
aF0.9
aF0.245
aF1.1
aF1.2
aF0.899
aF1.3
aF3.6
aF4.9
aF0.9
aF0.9
aF0.2
aF0.3
aF0.5
aF1.9
aF1.1
aF7.9
aF-3.7
aI5
aI0
aI5
aV203530,1610612743
p932
aa(lp933
I203089
aVJohn Henson
p934
aI1610612749
aVMIL
p935
aF25.0
aI57
aI22
aI35
aF0.386
aF16.8
aF2.9
aF5.1
aF0.564
aF0.0
aF0.0
aF0.0
aF1.2
aF2.1
aF0.59
aF1.5
aF2.4
aF3.9
aF0.9
aF1.1
aF0.3
aF1.9
aF0.2
aF2.3
aF1.5
aF7.0
aF-2.6
aI3
aI0
aI5
aV203089,1610612749
p936
aa(lp937
I203098
aVJohn Jenkins
p938
aI1610612756
aVPHX
p939
aF25.0
aI43
aI18
aI25
aF0.419
aF11.2
aF1.7
aF3.7
aF0.444
aF0.4
aF1.2
aF0.314
aF0.5
aF0.6
aF0.833
aF0.2
aF1.1
aF1.3
aF0.8
aF0.6
aF0.2
aF0.0
aF0.1
aF0.5
aF0.5
aF4.1
aF-1.5
aI0
aI0
aI5
aV203098,1610612756
p940
aa(lp941
I202322
aVJohn Wall
p942
aI1610612764
aVWAS
p943
aF25.0
aI77
aI37
aI40
aF0.481
aF36.2
aF7.4
aF17.5
aF0.424
aF1.5
aF4.3
aF0.351
aF3.5
aF4.5
aF0.791
aF0.5
aF4.4
aF4.9
aF10.2
aF4.1
aF1.9
aF0.8
aF0.9
aF2.1
aF3.8
aF19.9
aF1.3
aI49
aI4
aI5
aV202322,1610612764
p944
aa(lp945
I203948
aVJohnny O'Bryant
p946
aI1610612749
aVMIL
p947
aF23.0
aI66
aI27
aI39
aF0.409
aF13.0
aF1.3
aF3.2
aF0.411
aF0.0
aF0.0
aF1.0
aF0.4
aF0.6
aF0.684
aF1.0
aF1.7
aF2.7
aF0.5
aF0.5
aF0.3
aF0.1
aF0.3
aF1.5
aF0.6
aF3.0
aF-2.0
aI0
aI0
aI5
aV203948,1610612749
p948
aa(lp949
I202720
aVJon Leuer
p950
aI1610612756
aVPHX
p951
aF27.0
aI67
aI22
aI45
aF0.328
aF18.7
aF3.3
aF7.0
aF0.481
aF0.6
aF1.6
aF0.382
aF1.1
aF1.5
aF0.762
aF1.1
aF4.4
aF5.6
aF1.1
aF1.1
aF0.6
aF0.4
aF0.4
aF1.9
aF1.4
aF8.5
aF-1.0
aI10
aI0
aI5
aV202720,1610612756
p952
aa(lp953
I201973
aVJonas Jerebko
p954
aI1610612738
aVBOS
p955
aF29.0
aI78
aI47
aI31
aF0.603
aF15.1
aF1.5
aF3.7
aF0.413
aF0.6
aF1.4
aF0.398
aF0.8
aF1.0
aF0.782
aF1.0
aF2.7
aF3.7
aF0.8
aF0.7
aF0.3
aF0.3
aF0.3
aF1.8
aF0.9
aF4.4
aF0.4
aI1
aI0
aI5
aV201973,1610612738
p956
aa(lp957
I202685
aVJonas Valanciunas
p958
aI1610612761
aVTOR
p959
aF24.0
aI60
aI40
aI20
aF0.667
aF25.9
aF5.1
aF8.9
aF0.565
aF0.0
aF0.0
aF0.0
aF2.7
aF3.6
aF0.761
aF3.1
aF6.1
aF9.1
aF0.7
aF1.4
aF0.4
aF1.3
aF0.8
aF2.6
aF3.1
aF12.8
aF2.4
aI22
aI0
aI5
aV202685,1610612761
p960
aa(lp961
I203613
aVJonathon Simmons
p962
aI1610612759
aVSAS
p963
aF26.0
aI55
aI47
aI8
aF0.855
aF14.8
aF2.2
aF4.4
aF0.504
aF0.3
aF0.9
aF0.383
aF1.3
aF1.7
aF0.75
aF0.3
aF1.5
aF1.7
aF1.1
aF1.0
aF0.4
aF0.1
aF0.4
aF1.9
aF1.6
aF6.0
aF1.7
aI0
aI0
aI5
aV203613,1610612759
p964
aa(lp965
I203919
aVJordan Adams
p966
aI1610612763
aVMEM
p967
aF21.0
aI2
aI0
aI2
aF0.0
aF7.3
aF1.0
aF3.0
aF0.333
aF0.0
aF0.5
aF0.0
aF1.5
aF2.5
aF0.6
aF0.0
aF1.0
aF1.0
aF1.5
aF1.0
aF1.5
aF0.0
aF0.0
aF1.0
aF1.0
aF3.5
aF2.0
aI0
aI0
aI5
aV203919,1610612763
p968
aa(lp969
I203903
aVJordan Clarkson
p970
aI1610612747
aVLAL
p971
aF24.0
aI79
aI17
aI62
aF0.215
aF32.3
aF6.0
aF13.9
aF0.433
aF1.4
aF4.1
aF0.347
aF2.1
aF2.6
aF0.804
aF1.2
aF2.8
aF4.0
aF2.4
aF1.7
aF1.1
aF0.1
aF1.1
aF2.1
aF2.3
aF15.5
aF-7.9
aI1
aI0
aI5
aV203903,1610612747
p972
aa(lp973
I200770
aVJordan Farmar
p974
aI1610612763
aVMEM
p975
aF29.0
aI12
aI2
aI10
aF0.167
aF24.3
aF3.5
aF8.3
aF0.42
aF1.3
aF3.8
aF0.356
aF0.8
aF0.8
aF1.0
aF0.3
aF1.8
aF2.1
aF3.1
aF1.5
aF1.3
aF0.2
aF0.6
aF1.8
aF1.4
aF9.2
aF-5.3
aI0
aI0
aI5
aV200770,1610612763
p976
aa(lp977
I202706
aVJordan Hamilton
p978
aI1610612740
aVNOP
p979
aF25.0
aI11
aI4
aI7
aF0.364
aF27.6
aF4.5
aF10.5
aF0.422
aF1.2
aF4.1
aF0.289
aF1.3
aF1.9
aF0.667
aF1.1
aF4.5
aF5.6
aF2.3
aF1.5
aF0.7
aF0.3
aF0.5
aF2.2
aF1.6
aF11.4
aF-5.8
aI1
aI0
aI5
aV202706,1610612740
p980
aa(lp981
I201941
aVJordan Hill
p982
aI1610612754
aVIND
p983
aF28.0
aI73
aI40
aI33
aF0.548
aF20.7
aF3.8
aF7.5
aF0.506
aF0.0
aF0.0
aF0.0
aF1.2
aF1.7
aF0.712
aF2.1
aF4.0
aF6.2
aF1.2
aF1.3
aF0.5
aF0.5
aF0.4
aF2.1
aF1.2
aF8.8
aF0.7
aI9
aI0
aI5
aV201941,1610612754
p984
aa(lp985
I203895
aVJordan McRae
p986
aI1610612739
aVCLE
p987
aF25.0
aI22
aI10
aI12
aF0.455
aF8.9
aF1.5
aF3.5
aF0.436
aF0.5
aF1.0
aF0.455
aF1.0
aF1.3
aF0.75
aF0.2
aF0.7
aF0.9
aF1.1
aF0.7
aF0.1
aF0.0
aF0.4
aF0.8
aF1.0
aF4.5
aF2.0
aI0
aI0
aI5
aV203895,1610612739
p988
aa(lp989
I1626175
aVJordan Mickey
p990
aI1610612738
aVBOS
p991
aF21.0
aI16
aI9
aI7
aF0.563
aF3.6
aF0.5
aF1.4
aF0.364
aF0.0
aF0.0
aF0.0
aF0.3
aF0.6
aF0.5
aF0.4
aF0.4
aF0.8
aF0.1
aF0.1
aF0.0
aF0.7
aF0.3
aF0.3
aF0.4
aF1.3
aF0.4
aI0
aI0
aI5
aV1626175,1610612738
p992
aa(lp993
I203268
aVJorge Gutierrez
p994
aI1610612766
aVCHA
p995
aF27.0
aI12
aI9
aI3
aF0.75
aF5.3
aF0.5
aF0.9
aF0.545
aF0.0
aF0.2
aF0.0
aF0.8
aF0.9
aF0.909
aF0.0
aF0.6
aF0.6
aF1.4
aF0.5
aF0.3
aF0.0
aF0.0
aF0.3
aF0.8
aF1.8
aF0.7
aI0
aI0
aI5
aV203268,1610612766
p996
aa(lp997
I101181
aVJose Calderon
p998
aI1610612752
aVNYK
p999
aF34.0
aI72
aI29
aI43
aF0.403
aF28.1
aF2.9
aF6.3
aF0.459
aF1.2
aF2.8
aF0.414
aF0.6
aF0.7
aF0.875
aF0.3
aF2.9
aF3.2
aF4.1
aF1.2
aF0.9
aF0.1
aF0.1
aF1.9
aF1.1
aF7.6
aF-1.0
aI1
aI0
aI5
aV101181,1610612752
p1000
aa(lp1001
I200826
aVJose Juan Barea
p1002
aI1610612742
aVDAL
p1003
aF32.0
aI74
aI38
aI36
aF0.514
aF22.5
aF4.3
aF9.6
aF0.446
aF1.4
aF3.5
aF0.385
aF1.0
aF1.3
aF0.771
aF0.4
aF1.7
aF2.1
aF4.1
aF1.5
aF0.4
aF0.0
aF0.6
aF1.5
aF1.7
aF10.9
aF-1.0
aI2
aI0
aI5
aV200826,1610612742
p1004
aa(lp1005
I203962
aVJosh Huestis
p1006
aI1610612760
aVOKC
p1007
aF24.0
aI5
aI2
aI3
aF0.4
aF11.0
aF1.0
aF2.4
aF0.417
aF0.8
aF1.2
aF0.667
aF0.0
aF0.8
aF0.0
aF0.4
aF1.6
aF2.0
aF0.0
aF0.6
aF0.2
aF0.4
aF0.0
aF0.6
aF0.4
aF2.8
aF0.4
aI0
aI0
aI5
aV203962,1610612760
p1008
aa(lp1009
I201177
aVJosh McRoberts
p1010
aI1610612748
aVMIA
p1011
aF29.0
aI42
aI27
aI15
aF0.643
aF14.2
aF1.3
aF3.5
aF0.372
aF0.3
aF1.2
aF0.245
aF0.7
aF1.0
aF0.7
aF0.5
aF2.0
aF2.5
aF1.9
aF0.7
aF0.4
aF0.2
aF0.2
aF1.6
aF0.8
aF3.6
aF0.1
aI1
aI0
aI5
aV201177,1610612748
p1012
aa(lp1013
I1626196
aVJosh Richardson
p1014
aI1610612748
aVMIA
p1015
aF22.0
aI52
aI29
aI23
aF0.558
aF21.3
aF2.4
aF5.2
aF0.452
aF1.0
aF2.2
aF0.461
aF0.8
aF1.2
aF0.667
aF0.4
aF1.7
aF2.1
aF1.4
aF0.7
aF0.7
aF0.5
aF0.4
aF2.1
aF1.2
aF6.6
aF0.8
aI0
aI0
aI5
aV1626196,1610612748
p1016
aa(lp1017
I2746
aVJosh Smith
p1018
aI1610612745
aVHOU
p1019
aF30.0
aI55
aI31
aI24
aF0.564
aF16.0
aF2.3
aF6.3
aF0.364
aF0.7
aF2.6
aF0.287
aF0.7
aF1.2
aF0.552
aF0.9
aF2.6
aF3.5
aF1.6
aF1.4
aF0.6
aF0.9
aF0.3
aF2.1
aF1.2
aF6.0
aF-1.5
aI0
aI0
aI5
aV2746,1610612745
p1020
aa(lp1021
I201950
aVJrue Holiday
p1022
aI1610612740
aVNOP
p1023
aF26.0
aI65
aI27
aI38
aF0.415
aF28.2
aF6.3
aF14.4
aF0.439
aF1.3
aF4.0
aF0.336
aF2.8
aF3.3
aF0.843
aF0.4
aF2.6
aF3.0
aF6.0
aF2.6
aF1.4
aF0.3
aF0.8
aF2.3
aF2.8
aF16.8
aF0.4
aI5
aI0
aI5
aV201950,1610612740
p1024
aa(lp1025
I203944
aVJulius Randle
p1026
aI1610612747
aVLAL
p1027
aF21.0
aI81
aI17
aI64
aF0.21
aF28.2
aF4.4
aF10.3
aF0.429
aF0.1
aF0.4
aF0.278
aF2.4
aF3.3
aF0.715
aF2.1
aF8.1
aF10.2
aF1.8
aF1.8
aF0.7
aF0.4
aF1.0
aF3.0
aF2.6
aF11.3
aF-8.4
aI34
aI1
aI5
aV203944,1610612747
p1028
aa(lp1029
I1626147
aVJustin Anderson
p1030
aI1610612742
aVDAL
p1031
aF22.0
aI55
aI28
aI27
aF0.509
aF11.8
aF1.3
aF3.2
aF0.406
aF0.4
aF1.5
aF0.265
aF0.8
aF1.0
aF0.8
aF0.3
aF2.1
aF2.4
aF0.5
aF0.4
aF0.3
aF0.5
aF0.2
aF0.8
aF0.6
aF3.8
aF0.1
aI1
aI0
aI5
aV1626147,1610612742
p1032
aa(lp1033
I202712
aVJustin Harper
p1034
aI1610612751
aVBKN
p1035
aF26.0
aI5
aI4
aI1
aF0.8
aF7.0
aF0.8
aF2.0
aF0.4
aF0.8
aF1.8
aF0.444
aF0.2
aF0.4
aF0.5
aF0.0
aF0.2
aF0.2
aF0.0
aF0.4
aF0.2
aF0.0
aF0.0
aF0.6
aF0.2
aF2.6
aF-6.4
aI0
aI0
aI5
aV202712,1610612751
p1036
aa(lp1037
I203200
aVJustin Holiday
p1038
aI1610612741
aVCHI
p1039
aF27.0
aI53
aI28
aI25
aF0.528
aF14.6
aF1.7
aF4.3
aF0.386
aF0.7
aF2.0
aF0.343
aF0.5
aF0.7
aF0.73
aF0.2
aF1.5
aF1.7
aF1.1
aF0.7
aF0.6
aF0.4
aF0.4
aF1.2
aF0.9
aF4.5
aF-1.7
aI0
aI0
aI5
aV203200,1610612741
p1040
aa(lp1041
I1626159
aVJustise Winslow
p1042
aI1610612748
aVMIA
p1043
aF20.0
aI78
aI46
aI32
aF0.59
aF28.6
aF2.5
aF5.9
aF0.422
aF0.4
aF1.5
aF0.276
aF1.0
aF1.5
aF0.684
aF1.0
aF4.1
aF5.2
aF1.5
aF1.2
aF0.9
aF0.3
aF0.6
aF2.4
aF1.2
aF6.4
aF1.3
aI0
aI0
aI5
aV1626159,1610612748
p1044
aa(lp1045
I203994
aVJusuf Nurkic
p1046
aI1610612743
aVDEN
p1047
aF21.0
aI32
aI14
aI18
aF0.438
aF17.1
aF3.2
aF7.6
aF0.417
aF0.0
aF0.1
aF0.0
aF1.9
aF3.1
aF0.616
aF2.0
aF3.4
aF5.5
aF1.3
aF1.7
aF0.8
aF1.4
aF0.8
aF2.8
aF2.9
aF8.2
aF-0.2
aI4
aI0
aI5
aV203994,1610612743
p1048
aa(lp1049
I203909
aVKJ McDaniels
p1050
aI1610612745
aVHOU
p1051
aF23.0
aI37
aI17
aI20
aF0.459
aF6.4
aF0.8
aF1.9
aF0.403
aF0.2
aF0.7
aF0.28
aF0.6
aF0.8
aF0.8
aF0.4
aF0.7
aF1.1
aF0.3
aF0.5
aF0.2
aF0.2
aF0.1
aF0.8
aF0.6
aF2.4
aF2.0
aI0
aI0
aI5
aV203909,1610612745
p1052
aa(lp1053
I1626157
aVKarl-Anthony Towns
p1054
aI1610612750
aVMIN
p1055
aF20.0
aI82
aI29
aI53
aF0.354
aF32.0
aF7.6
aF14.1
aF0.542
aF0.4
aF1.1
aF0.341
aF2.7
aF3.4
aF0.811
aF2.8
aF7.7
aF10.5
aF2.0
aF2.2
aF0.7
aF1.7
aF0.8
aF3.0
aF3.0
aF18.3
aF-1.6
aI52
aI0
aI5
aV1626157,1610612750
p1056
aa(lp1057
I202695
aVKawhi Leonard
p1058
aI1610612759
aVSAS
p1059
aF25.0
aI72
aI60
aI12
aF0.833
aF33.1
aF7.7
aF15.1
aF0.506
aF1.8
aF4.0
aF0.443
aF4.1
aF4.6
aF0.874
aF1.3
aF5.5
aF6.8
aF2.6
aF1.5
aF1.8
aF1.0
aF0.4
aF1.8
aF3.9
aF21.2
aF9.1
aI12
aI0
aI5
aV202695,1610612759
p1060
aa(lp1061
I203951
aVKeith Appling
p1062
aI1610612753
aVORL
p1063
aF24.0
aI5
aI0
aI5
aF0.0
aF5.4
aF0.4
aF1.6
aF0.25
aF0.0
aF0.6
aF0.0
aF0.4
aF0.4
aF1.0
aF0.0
aF0.2
aF0.2
aF0.2
aF0.6
aF0.2
aF0.0
aF0.0
aF1.0
aF0.4
aF1.2
aF2.8
aI0
aI0
aI5
aV203951,1610612753
p1064
aa(lp1065
I203482
aVKelly Olynyk
p1066
aI1610612738
aVBOS
p1067
aF25.0
aI69
aI40
aI29
aF0.58
aF20.2
aF3.7
aF8.1
aF0.455
aF1.2
aF3.0
aF0.405
aF1.4
aF1.9
aF0.75
aF1.0
aF3.0
aF4.1
aF1.5
aF1.1
aF0.8
aF0.5
aF0.5
aF2.4
aF1.7
aF10.0
aF3.2
aI1
aI0
aI5
aV203482,1610612738
p1068
aa(lp1069
I1626162
aVKelly Oubre
p1070
aI1610612764
aVWAS
p1071
aF20.0
aI63
aI31
aI32
aF0.492
aF10.7
aF1.4
aF3.3
aF0.427
aF0.4
aF1.3
aF0.316
aF0.5
aF0.8
aF0.633
aF0.4
aF1.7
aF2.1
aF0.2
aF0.5
aF0.3
aF0.1
aF0.3
aF1.6
aF0.8
aF3.7
aF-0.7
aI0
aI0
aI5
aV1626162,1610612764
p1072
aa(lp1073
I202689
aVKemba Walker
p1074
aI1610612766
aVCHA
p1075
aF26.0
aI81
aI47
aI34
aF0.58
aF35.6
aF7.0
aF16.4
aF0.427
aF2.2
aF6.0
aF0.371
aF4.6
aF5.4
aF0.847
aF0.7
aF3.7
aF4.4
aF5.2
aF2.1
aF1.6
aF0.5
aF1.3
aF1.4
aF4.3
aF20.9
aF3.0
aI3
aI0
aI5
aV202689,1610612766
p1076
aa(lp1077
I203088
aVKendall Marshall
p1078
aI1610612755
aVPHI
p1079
aF24.0
aI30
aI3
aI27
aF0.1
aF13.3
aF1.4
aF3.9
aF0.364
aF0.5
aF1.6
aF0.327
aF0.3
aF0.4
aF0.692
aF0.1
aF0.9
aF0.9
aF2.4
aF1.4
aF0.5
aF0.1
aF0.2
aF1.0
aF0.7
aF3.7
aF-3.8
aI0
aI0
aI5
aV203088,1610612755
p1080
aa(lp1081
I2570
aVKendrick Perkins
p1082
aI1610612740
aVNOP
p1083
aF31.0
aI37
aI13
aI24
aF0.351
aF14.6
aF1.1
aF2.0
aF0.533
aF0.0
aF0.0
aF0.0
aF0.3
aF0.7
aF0.44
aF0.7
aF2.8
aF3.5
aF0.8
aF1.1
aF0.3
aF0.3
aF0.2
aF1.7
aF0.7
aF2.5
aF-2.1
aI0
aI0
aI5
aV2570,1610612740
p1084
aa(lp1085
I202702
aVKenneth Faried
p1086
aI1610612743
aVDEN
p1087
aF26.0
aI67
aI26
aI41
aF0.388
aF25.3
aF5.2
aF9.3
aF0.558
aF0.0
aF0.0
aF0.5
aF2.0
aF3.3
aF0.613
aF3.5
aF5.2
aF8.7
aF1.2
aF1.4
aF0.5
aF0.9
aF0.9
aF2.5
aF3.1
aF12.5
aF-1.6
aI21
aI0
aI5
aV202702,1610612743
p1088
aa(lp1089
I203145
aVKent Bazemore
p1090
aI1610612737
aVATL
p1091
aF26.0
aI75
aI44
aI31
aF0.587
aF27.8
aF4.3
aF9.7
aF0.441
aF1.5
aF4.1
aF0.357
aF1.6
aF2.0
aF0.815
aF0.4
aF4.7
aF5.1
aF2.3
aF1.8
aF1.3
aF0.5
aF0.5
aF2.3
aF2.3
aF11.6
aF1.0
aI1
aI0
aI5
aV203145,1610612737
p1092
aa(lp1093
I203484
aVKentavious Caldwell-Pope
p1094
aI1610612765
aVDET
p1095
aF23.0
aI76
aI41
aI35
aF0.539
aF36.7
aF5.3
aF12.6
aF0.42
aF1.5
aF4.9
aF0.309
aF2.4
aF3.0
aF0.811
aF0.9
aF2.8
aF3.7
aF1.8
aF1.4
aF1.4
aF0.2
aF0.5
aF2.2
aF2.5
aF14.5
aF2.3
aI1
aI0
aI5
aV203484,1610612765
p1096
aa(lp1097
I201142
aVKevin Durant
p1098
aI1610612760
aVOKC
p1099
aF27.0
aI72
aI52
aI20
aF0.722
aF35.8
aF9.7
aF19.2
aF0.505
aF2.6
aF6.7
aF0.387
aF6.2
aF6.9
aF0.898
aF0.6
aF7.6
aF8.2
aF5.0
aF3.5
aF1.0
aF1.2
aF0.5
aF1.9
aF4.5
aF28.2
aF9.0
aI27
aI1
aI5
aV201142,1610612760
p1100
aa(lp1101
I708
aVKevin Garnett
p1102
aI1610612750
aVMIN
p1103
aF40.0
aI38
aI14
aI24
aF0.368
aF14.6
aF1.4
aF3.0
aF0.47
aF0.0
aF0.0
aF0.0
aF0.4
aF0.6
aF0.667
aF0.4
aF3.6
aF3.9
aF1.6
aF0.4
aF0.7
aF0.3
aF0.1
aF1.8
aF0.7
aF3.2
aF1.5
aI0
aI0
aI5
aV708,1610612750
p1104
aa(lp1105
I201567
aVKevin Love
p1106
aI1610612739
aVCLE
p1107
aF27.0
aI77
aI53
aI24
aF0.688
aF31.5
aF5.3
aF12.7
aF0.419
aF2.1
aF5.7
aF0.36
aF3.4
aF4.1
aF0.822
aF1.9
aF8.0
aF9.9
aF2.4
aF1.8
aF0.8
aF0.5
aF0.7
aF2.1
aF3.6
aF16.0
aF5.6
aI35
aI0
aI5
aV201567,1610612739
p1108
aa(lp1109
I2755
aVKevin Martin
p1110
aI1610612759
aVSAS
p1111
aF33.0
aI55
aI24
aI31
aF0.436
aF19.9
aF2.8
aF7.6
aF0.372
aF0.9
aF2.5
aF0.36
aF2.8
aF3.1
aF0.89
aF0.3
aF1.7
aF2.0
aF1.1
aF1.0
aF0.5
aF0.1
aF0.4
aF1.5
aF1.9
aF9.3
aF-2.2
aI0
aI0
aI5
aV2755,1610612759
p1112
aa(lp1113
I202338
aVKevin Seraphin
p1114
aI1610612752
aVNYK
p1115
aF26.0
aI48
aI15
aI33
aF0.313
aF11.0
aF1.8
aF4.3
aF0.41
aF0.0
aF0.0
aF0.0
aF0.4
aF0.5
aF0.826
aF0.6
aF2.0
aF2.6
aF1.0
aF0.9
aF0.2
aF0.8
aF0.3
aF1.4
aF0.4
aF3.9
aF-1.8
aI0
aI0
aI5
aV202338,1610612752
p1116
aa(lp1117
I1626172
aVKevon Looney
p1118
aI1610612744
aVGSW
p1119
aF20.0
aI5
aI4
aI1
aF0.8
aF4.1
aF0.8
aF1.4
aF0.571
aF0.2
aF0.4
aF0.5
aF0.0
aF0.0
aF0.0
aF0.8
aF1.2
aF2.0
aF0.0
aF0.2
aF0.0
aF0.0
aF0.2
aF0.4
aF0.0
aF1.8
aF-4.4
aI0
aI0
aI5
aV1626172,1610612744
p1120
aa(lp1121
I203114
aVKhris Middleton
p1122
aI1610612749
aVMIL
p1123
aF24.0
aI79
aI33
aI46
aF0.418
aF36.1
aF6.4
aF14.5
aF0.444
aF1.8
aF4.6
aF0.396
aF3.5
aF3.9
aF0.888
aF0.6
aF3.3
aF3.8
aF4.2
aF2.3
aF1.7
aF0.2
aF0.5
aF2.6
aF3.2
aF18.2
aF-0.4
aI1
aI0
aI5
aV203114,1610612749
p1124
aa(lp1125
I2550
aVKirk Hinrich
p1126
aI1610612737
aVATL
p1127
aF35.0
aI46
aI26
aI20
aF0.565
aF13.7
aF1.1
aF2.8
aF0.38
aF0.5
aF1.3
aF0.387
aF0.3
aF0.3
aF0.938
aF0.2
aF1.3
aF1.5
aF1.6
aF0.7
aF0.3
aF0.0
aF0.1
aF1.4
aF0.7
aF3.0
aF0.3
aI0
aI0
aI5
aV2550,1610612737
p1128
aa(lp1129
I202691
aVKlay Thompson
p1130
aI1610612744
aVGSW
p1131
aF26.0
aI80
aI71
aI9
aF0.888
aF33.3
aF8.1
aF17.3
aF0.47
aF3.5
aF8.1
aF0.425
aF2.4
aF2.8
aF0.873
aF0.4
aF3.4
aF3.8
aF2.1
aF1.7
aF0.8
aF0.6
aF0.5
aF1.9
aF2.1
aF22.1
aF10.5
aI0
aI0
aI5
aV202691,1610612744
p1132
aa(lp1133
I977
aVKobe Bryant
p1134
aI1610612747
aVLAL
p1135
aF37.0
aI66
aI13
aI53
aF0.197
aF28.2
aF6.0
aF16.9
aF0.358
aF2.0
aF7.1
aF0.285
aF3.5
aF4.3
aF0.826
aF0.6
aF3.1
aF3.7
aF2.8
aF2.0
aF0.9
aF0.2
aF0.5
aF1.7
aF2.6
aF17.6
aF-8.7
aI2
aI0
aI5
aV977,1610612747
p1136
aa(lp1137
I201585
aVKosta Koufos
p1138
aI1610612758
aVSAC
p1139
aF27.0
aI78
aI32
aI46
aF0.41
aF19.0
aF3.0
aF5.7
aF0.532
aF0.0
aF0.0
aF0.0
aF0.7
aF1.3
aF0.548
aF2.2
aF3.3
aF5.4
aF0.4
aF0.6
aF0.5
aF0.9
aF0.4
aF2.4
aF1.2
aF6.8
aF-2.9
aI5
aI0
aI5
aV201585,1610612758
p1140
aa(lp1141
I203123
aVKostas Papanikolaou
p1142
aI1610612743
aVDEN
p1143
aF25.0
aI26
aI8
aI18
aF0.308
aF11.3
aF0.9
aF2.5
aF0.364
aF0.4
aF1.2
aF0.313
aF0.3
aF0.5
aF0.643
aF0.3
aF1.2
aF1.5
aF0.6
aF0.8
aF0.5
aF0.2
aF0.3
aF0.9
aF0.7
aF2.6
aF-0.3
aI0
aI0
aI5
aV203123,1610612743
p1144
aa(lp1145
I2743
aVKris Humphries
p1146
aI1610612737
aVATL
p1147
aF31.0
aI53
aI29
aI24
aF0.547
aF15.7
aF2.3
aF5.6
aF0.41
aF0.6
aF2.0
aF0.315
aF1.3
aF1.6
aF0.798
aF1.1
aF3.0
aF4.1
aF0.7
aF0.7
aF0.3
aF0.4
aF0.3
aF1.8
aF1.4
aF6.5
aF-1.9
aI1
aI0
aI5
aV2743,1610612737
p1148
aa(lp1149
I204001
aVKristaps Porzingis
p1150
aI1610612752
aVNYK
p1151
aF20.0
aI72
aI28
aI44
aF0.389
aF28.4
aF5.2
aF12.3
aF0.421
aF1.1
aF3.4
aF0.333
aF2.8
aF3.3
aF0.838
aF1.8
aF5.5
aF7.3
aF1.3
aF1.7
aF0.7
aF1.9
aF0.4
aF2.8
aF3.1
aF14.3
aF0.2
aI21
aI0
aI5
aV204001,1610612752
p1152
aa(lp1153
I203937
aVKyle Anderson
p1154
aI1610612759
aVSAS
p1155
aF22.0
aI78
aI64
aI14
aF0.821
aF16.0
aF1.8
aF3.8
aF0.468
aF0.2
aF0.5
aF0.324
aF0.8
aF1.1
aF0.747
aF0.3
aF2.8
aF3.1
aF1.6
aF0.8
aF0.8
aF0.4
aF0.2
aF1.2
aF1.0
aF4.5
aF2.6
aI1
aI0
aI5
aV203937,1610612759
p1156
aa(lp1157
I2594
aVKyle Korver
p1158
aI1610612737
aVATL
p1159
aF35.0
aI80
aI46
aI34
aF0.575
aF30.0
aF3.4
aF7.7
aF0.434
aF2.0
aF5.0
aF0.398
aF0.6
aF0.7
aF0.833
aF0.2
aF3.1
aF3.3
aF2.1
aF1.2
aF0.8
aF0.4
aF0.2
aF2.0
aF0.8
aF9.2
aF5.3
aI0
aI0
aI5
aV2594,1610612737
p1160
aa(lp1161
I200768
aVKyle Lowry
p1162
aI1610612761
aVTOR
p1163
aF30.0
aI77
aI54
aI23
aF0.701
aF37.0
aF6.6
aF15.6
aF0.427
aF2.8
aF7.1
aF0.388
aF5.2
aF6.4
aF0.811
aF0.7
aF4.0
aF4.7
aF6.4
aF2.9
aF2.1
aF0.4
aF1.0
aF2.7
aF5.6
aF21.2
aF4.9
aI12
aI1
aI5
aV200768,1610612761
p1164
aa(lp1165
I203124
aVKyle O'Quinn
p1166
aI1610612752
aVNYK
p1167
aF26.0
aI65
aI26
aI39
aF0.4
aF11.8
aF2.0
aF4.2
aF0.476
aF0.1
aF0.3
aF0.227
aF0.7
aF0.9
aF0.767
aF1.2
aF2.7
aF3.8
aF1.1
aF0.9
aF0.3
aF0.8
aF0.3
aF1.6
aF0.9
aF4.8
aF-1.0
aI1
aI0
aI5
aV203124,1610612752
p1168
aa(lp1169
I202713
aVKyle Singler
p1170
aI1610612760
aVOKC
p1171
aF28.0
aI68
aI43
aI25
aF0.632
aF14.4
aF1.3
aF3.3
aF0.389
aF0.4
aF1.4
aF0.309
aF0.4
aF0.6
aF0.659
aF0.7
aF1.3
aF2.1
aF0.4
aF0.5
aF0.4
aF0.1
aF0.2
aF1.8
aF0.6
aF3.4
aF-0.3
aI0
aI0
aI5
aV202713,1610612760
p1172
aa(lp1173
I202681
aVKyrie Irving
p1174
aI1610612739
aVCLE
p1175
aF24.0
aI53
aI37
aI16
aF0.698
aF31.5
aF7.4
aF16.6
aF0.448
aF1.6
aF4.9
aF0.321
aF3.2
aF3.6
aF0.885
aF0.8
aF2.1
aF3.0
aF4.7
aF2.3
aF1.1
aF0.3
aF1.0
aF2.0
aF2.9
aF19.6
aF3.9
aI1
aI0
aI5
aV202681,1610612739
p1176
aa(lp1177
I200746
aVLaMarcus Aldridge
p1178
aI1610612759
aVSAS
p1179
aF30.0
aI74
aI61
aI13
aF0.824
aF30.6
aF7.2
aF14.1
aF0.513
aF0.0
aF0.2
aF0.0
aF3.5
aF4.1
aF0.858
aF2.4
aF6.2
aF8.5
aF1.5
aF1.3
aF0.5
aF1.1
aF0.5
aF2.0
aF3.2
aF18.0
aF6.9
aI26
aI0
aI5
aV200746,1610612759
p1180
aa(lp1181
I203934
aVLamar Patterson
p1182
aI1610612737
aVATL
p1183
aF24.0
aI35
aI23
aI12
aF0.657
aF11.3
aF0.8
aF2.3
aF0.35
aF0.3
aF1.4
aF0.245
aF0.5
aF0.6
aF0.727
aF0.1
aF1.3
aF1.4
aF1.1
aF0.7
aF0.3
aF0.1
aF0.1
aF1.3
aF0.7
aF2.4
aF0.9
aI0
aI0
aI5
aV203934,1610612737
p1184
aa(lp1185
I202362
aVLance Stephenson
p1186
aI1610612763
aVMEM
p1187
aF25.0
aI69
aI36
aI33
aF0.522
aF19.9
aF3.3
aF6.9
aF0.481
aF0.4
aF1.1
aF0.385
aF1.3
aF1.6
aF0.784
aF0.6
aF2.7
aF3.2
aF1.9
aF1.4
aF0.6
aF0.1
aF0.4
aF2.0
aF1.4
aF8.3
aF-0.9
aI1
aI0
aI5
aV202362,1610612763
p1188
aa(lp1189
I202498
aVLance Thomas
p1190
aI1610612752
aVNYK
p1191
aF28.0
aI59
aI25
aI34
aF0.424
aF22.3
aF2.9
aF6.5
aF0.442
aF0.7
aF1.8
aF0.404
aF1.7
aF2.0
aF0.857
aF0.6
aF1.6
aF2.2
aF0.9
aF1.0
aF0.4
aF0.1
aF0.4
aF1.8
aF1.8
aF8.2
aF-0.7
aI0
aI0
aI5
aV202498,1610612752
p1192
aa(lp1193
I204038
aVLangston Galloway
p1194
aI1610612752
aVNYK
p1195
aF24.0
aI82
aI32
aI50
aF0.39
aF24.8
aF2.8
aF7.2
aF0.393
aF0.9
aF2.7
aF0.344
aF1.0
aF1.4
aF0.754
aF0.5
aF3.0
aF3.5
aF2.5
aF0.7
aF0.9
aF0.3
aF0.3
aF2.2
aF1.0
aF7.6
aF-1.3
aI1
aI0
aI5
aV204038,1610612752
p1196
aa(lp1197
I1626204
aVLarry Nance Jr.
p1198
aI1610612747
aVLAL
p1199
aF23.0
aI63
aI14
aI49
aF0.222
aF20.1
aF2.5
aF4.8
aF0.527
aF0.0
aF0.2
aF0.1
aF0.5
aF0.7
aF0.681
aF1.6
aF3.3
aF5.0
aF0.7
aF0.7
aF0.9
aF0.4
aF0.3
aF2.0
aF0.9
aF5.5
aF-1.5
aI3
aI0
aI5
aV1626204,1610612747
p1200
aa(lp1201
I202730
aVLavoy Allen
p1202
aI1610612754
aVIND
p1203
aF27.0
aI79
aI43
aI36
aF0.544
aF20.2
aF2.4
aF4.7
aF0.516
aF0.0
aF0.0
aF0.0
aF0.6
aF0.9
aF0.63
aF2.1
aF3.3
aF5.4
aF1.0
aF0.9
aF0.3
aF0.5
aF0.3
aF1.9
aF0.9
aF5.4
aF2.4
aI4
aI0
aI5
aV202730,1610612754
p1204
aa(lp1205
I2544
aVLeBron James
p1206
aI1610612739
aVCLE
p1207
aF31.0
aI76
aI56
aI20
aF0.737
aF35.6
aF9.7
aF18.6
aF0.52
aF1.1
aF3.7
aF0.309
aF4.7
aF6.5
aF0.731
aF1.5
aF6.0
aF7.4
aF6.8
aF3.3
aF1.4
aF0.6
aF0.9
aF1.9
aF5.4
aF25.3
aF8.1
aI28
aI3
aI5
aV2544,1610612739
p1208
aa(lp1209
I2571
aVLeandro Barbosa
p1210
aI1610612744
aVGSW
p1211
aF33.0
aI68
aI60
aI8
aF0.882
aF15.9
aF2.5
aF5.4
aF0.462
aF0.6
aF1.6
aF0.355
aF0.8
aF0.9
aF0.839
aF0.4
aF1.3
aF1.7
aF1.2
aF0.8
aF0.6
aF0.1
aF0.3
aF1.6
aF1.0
aF6.4
aF0.6
aI0
aI0
aI5
aV2571,1610612744
p1212
aa(lp1213
I203485
aVLorenzo Brown
p1214
aI1610612765
aVDET
p1215
aF25.0
aI8
aI1
aI7
aF0.125
aF7.6
aF1.0
aF3.1
aF0.32
aF0.1
aF1.0
aF0.125
aF0.4
aF0.5
aF0.75
aF0.0
aF0.9
aF0.9
aF1.4
aF1.1
aF0.4
aF0.1
aF0.0
aF0.5
aF0.4
aF2.5
aF-3.8
aI0
aI0
aI5
aV203485,1610612765
p1216
aa(lp1217
I200811
aVLou Amundson
p1218
aI1610612752
aVNYK
p1219
aF33.0
aI29
aI11
aI18
aF0.379
aF7.0
aF0.7
aF1.8
aF0.358
aF0.0
aF0.0
aF0.0
aF0.5
aF0.9
aF0.519
aF0.8
aF0.9
aF1.7
aF0.4
aF0.5
aF0.2
aF0.2
aF0.1
aF1.5
aF0.8
aF1.8
aF-1.7
aI0
aI0
aI5
aV200811,1610612752
p1220
aa(lp1221
I101150
aVLou Williams
p1222
aI1610612747
aVLAL
p1223
aF29.0
aI67
aI14
aI53
aF0.209
aF28.5
aF4.2
aF10.3
aF0.408
aF1.6
aF4.8
aF0.344
aF5.3
aF6.3
aF0.83
aF0.5
aF2.1
aF2.5
aF2.5
aF1.6
aF0.9
aF0.3
aF0.6
aF1.6
aF3.9
aF15.3
aF-6.0
aI0
aI0
aI5
aV101150,1610612747
p1224
aa(lp1225
I201601
aVLuc Mbah a Moute
p1226
aI1610612746
aVLAC
p1227
aF29.0
aI75
aI49
aI26
aF0.653
aF17.0
aF1.3
aF2.8
aF0.454
aF0.2
aF0.5
aF0.325
aF0.4
aF0.8
aF0.526
aF0.8
aF1.5
aF2.3
aF0.4
aF0.5
aF0.6
aF0.3
aF0.4
aF1.3
aF0.6
aF3.1
aF2.1
aI0
aI0
aI5
aV201601,1610612746
p1228
aa(lp1229
I203512
aVLucas Nogueira
p1230
aI1610612761
aVTOR
p1231
aF23.0
aI29
aI17
aI12
aF0.586
aF7.7
aF1.0
aF1.5
aF0.636
aF0.0
aF0.1
aF0.333
aF0.3
aF0.5
aF0.533
aF0.6
aF1.0
aF1.6
aF0.2
aF0.4
aF0.4
aF0.4
aF0.1
aF1.0
aF0.4
aF2.2
aF0.8
aI0
aI0
aI5
aV203512,1610612761
p1232
aa(lp1233
I1626242
aVLuis Montero
p1234
aI1610612757
aVPOR
p1235
aF23.0
aI12
aI6
aI6
aF0.5
aF3.5
aF0.4
aF1.6
aF0.263
aF0.1
aF0.8
aF0.111
aF0.3
aF0.3
aF0.75
aF0.0
aF0.3
aF0.3
aF0.1
aF0.3
aF0.0
aF0.0
aF0.2
aF0.1
aF0.3
aF1.2
aF-3.3
aI0
aI0
aI5
aV1626242,1610612757
p1236
aa(lp1237
I2449
aVLuis Scola
p1238
aI1610612761
aVTOR
p1239
aF36.0
aI76
aI50
aI26
aF0.658
aF21.5
aF3.5
aF7.9
aF0.45
aF0.9
aF2.1
aF0.404
aF0.8
aF1.1
aF0.726
aF1.1
aF3.6
aF4.8
aF0.9
aF0.9
aF0.6
aF0.4
aF0.5
aF2.3
aF1.4
aF8.7
aF-0.3
aI3
aI0
aI5
aV2449,1610612761
p1240
aa(lp1241
I202337
aVLuke Babbitt
p1242
aI1610612740
aVNOP
p1243
aF27.0
aI47
aI16
aI31
aF0.34
aF18.0
aF2.6
aF6.1
aF0.422
aF0.9
aF2.3
aF0.404
aF0.8
aF1.1
aF0.78
aF0.5
aF2.6
aF3.1
aF1.1
aF0.5
aF0.2
aF0.1
aF0.5
aF1.9
aF1.0
aF7.0
aF-0.6
aI1
aI0
aI5
aV202337,1610612740
p1244
aa(lp1245
I2736
aVLuol Deng
p1246
aI1610612748
aVMIA
p1247
aF31.0
aI74
aI45
aI29
aF0.608
aF32.4
aF4.6
aF10.1
aF0.455
aF1.2
aF3.5
aF0.344
aF2.0
aF2.6
aF0.755
aF1.5
aF4.5
aF6.0
aF1.9
aF1.1
aF1.0
aF0.4
aF0.4
aF1.6
aF2.2
aF12.3
aF0.4
aI13
aI0
aI5
aV2736,1610612748
p1248
aa(lp1249
I1938
aVManu Ginobili
p1250
aI1610612759
aVSAS
p1251
aF38.0
aI58
aI47
aI11
aF0.81
aF19.6
aF3.4
aF7.5
aF0.453
aF1.2
aF3.1
aF0.391
aF1.6
aF1.9
aF0.813
aF0.4
aF2.1
aF2.5
aF3.1
aF1.7
aF1.1
aF0.2
aF0.4
aF1.7
aF2.4
aF9.6
aF5.7
aI0
aI0
aI5
aV1938,1610612759
p1252
aa(lp1253
I201188
aVMarc Gasol
p1254
aI1610612763
aVMEM
p1255
aF31.0
aI52
aI30
aI22
aF0.577
aF34.4
aF6.3
aF13.6
aF0.464
aF0.0
aF0.1
aF0.667
aF3.9
aF4.7
aF0.829
aF1.1
aF5.8
aF7.0
aF3.8
aF2.3
aF1.0
aF1.3
aF0.5
aF2.7
aF4.4
aF16.6
aF0.2
aI9
aI1
aI5
aV201188,1610612763
p1256
aa(lp1257
I1626273
aVMarcelo Huertas
p1258
aI1610612747
aVLAL
p1259
aF33.0
aI53
aI8
aI45
aF0.151
aF16.4
aF1.8
aF4.3
aF0.422
aF0.3
aF1.2
aF0.262
aF0.5
aF0.5
aF0.931
aF0.3
aF1.4
aF1.7
aF3.4
aF1.5
aF0.5
aF0.1
aF0.3
aF1.4
aF0.6
aF4.5
aF0.4
aI0
aI0
aI5
aV1626273,1610612747
p1260
aa(lp1261
I101162
aVMarcin Gortat
p1262
aI1610612764
aVWAS
p1263
aF32.0
aI75
aI35
aI40
aF0.467
aF30.1
aF5.8
aF10.2
aF0.567
aF0.0
aF0.0
aF0.0
aF1.9
aF2.8
aF0.705
aF3.0
aF6.9
aF9.9
aF1.4
aF1.6
aF0.6
aF1.3
aF0.7
aF2.6
aF2.8
aF13.5
aF0.8
aI41
aI0
aI5
aV101162,1610612764
p1264
aa(lp1265
I201158
aVMarco Belinelli
p1266
aI1610612758
aVSAC
p1267
aF30.0
aI68
aI27
aI41
aF0.397
aF24.6
aF3.6
aF9.3
aF0.386
aF1.3
aF4.4
aF0.306
aF1.7
aF2.0
aF0.833
aF0.1
aF1.6
aF1.7
aF1.9
aF1.2
aF0.5
aF0.0
aF0.1
aF1.3
aF1.9
aF10.2
aF-2.8
aI0
aI0
aI5
aV201158,1610612758
p1268
aa(lp1269
I202694
aVMarcus Morris
p1270
aI1610612765
aVDET
p1271
aF26.0
aI80
aI42
aI38
aF0.525
aF35.7
aF5.1
aF11.8
aF0.434
aF1.4
aF3.7
aF0.362
aF2.5
aF3.4
aF0.749
aF1.1
aF3.9
aF5.1
aF2.5
aF1.8
aF0.8
aF0.3
aF0.4
aF2.1
aF3.3
aF14.1
aF2.0
aI4
aI0
aI5
aV202694,1610612765
p1272
aa(lp1273
I203935
aVMarcus Smart
p1274
aI1610612738
aVBOS
p1275
aF22.0
aI61
aI36
aI25
aF0.59
aF27.3
aF3.0
aF8.7
aF0.348
aF1.0
aF4.0
aF0.253
aF2.1
aF2.7
aF0.777
aF1.2
aF2.9
aF4.2
aF3.0
aF1.3
aF1.5
aF0.3
aF0.7
aF3.0
aF3.1
aF9.1
aF1.4
aI2
aI1
aI5
aV203935,1610612738
p1276
aa(lp1277
I201977
aVMarcus Thornton
p1278
aI1610612764
aVWAS
p1279
aF29.0
aI61
aI32
aI29
aF0.525
aF18.2
aF3.5
aF8.9
aF0.399
aF1.5
aF4.4
aF0.337
aF1.1
aF1.3
aF0.848
aF0.6
aF1.8
aF2.5
aF1.4
aF0.8
aF0.8
aF0.1
aF0.3
aF1.5
aF0.9
aF9.7
aF0.7
aI0
aI0
aI5
aV201977,1610612764
p1280
aa(lp1281
I201596
aVMario Chalmers
p1282
aI1610612748
aVMIA
p1283
aF30.0
aI61
aI38
aI23
aF0.623
aF22.5
aF3.0
aF7.3
aF0.41
aF0.8
aF2.4
aF0.309
aF3.6
aF4.3
aF0.832
aF0.4
aF2.2
aF2.6
aF3.8
aF1.8
aF1.4
aF0.2
aF0.4
aF3.0
aF3.9
aF10.3
aF1.3
aI0
aI0
aI5
aV201596,1610612748
p1284
aa(lp1285
I1626209
aVMario Hezonja
p1286
aI1610612753
aVORL
p1287
aF21.0
aI79
aI33
aI46
aF0.418
aF17.9
aF2.3
aF5.3
aF0.433
aF0.8
aF2.4
aF0.349
aF0.6
aF0.7
aF0.907
aF0.4
aF1.9
aF2.2
aF1.4
aF1.2
aF0.5
aF0.2
aF0.2
aF1.6
aF0.7
aF6.1
aF-0.1
aI0
aI0
aI5
aV1626209,1610612753
p1288
aa(lp1289
I203900
aVMarkel Brown
p1290
aI1610612751
aVBKN
p1291
aF24.0
aI62
aI12
aI50
aF0.194
aF15.8
aF2.0
aF5.2
aF0.394
aF0.6
aF2.0
aF0.314
aF1.1
aF1.5
aF0.755
aF0.4
aF1.6
aF2.0
aF1.5
aF0.9
aF0.6
aF0.2
aF0.2
aF1.5
aF1.4
aF5.9
aF-3.8
aI1
aI0
aI5
aV203900,1610612751
p1292
aa(lp1293
I202693
aVMarkieff Morris
p1294
aI1610612764
aVWAS
p1295
aF26.0
aI64
aI22
aI42
aF0.344
aF25.5
aF4.8
aF11.2
aF0.425
aF0.7
aF2.4
aF0.303
aF1.7
aF2.3
aF0.735
aF1.1
aF4.4
aF5.5
aF1.9
aF2.1
aF0.9
aF0.5
aF0.6
aF2.9
aF2.1
aF12.0
aF-1.4
aI2
aI0
aI5
aV202693,1610612764
p1296
aa(lp1297
I201578
aVMarreese Speights
p1298
aI1610612744
aVGSW
p1299
aF28.0
aI72
aI64
aI8
aF0.889
aF11.6
aF2.7
aF6.3
aF0.432
aF0.3
aF0.9
aF0.387
aF1.3
aF1.6
aF0.825
aF1.1
aF2.3
aF3.3
aF0.8
aF0.9
aF0.3
aF0.5
aF0.4
aF1.6
aF1.6
aF7.1
aF0.1
aI1
aI0
aI5
aV201578,1610612744
p1300
aa(lp1301
I101107
aVMarvin Williams
p1302
aI1610612766
aVCHA
p1303
aF30.0
aI81
aI47
aI34
aF0.58
aF28.9
aF4.2
aF9.2
aF0.452
aF1.9
aF4.7
aF0.402
aF1.5
aF1.8
aF0.833
aF1.6
aF4.9
aF6.4
aF1.4
aF0.8
aF0.7
aF1.0
aF0.3
aF1.6
aF1.6
aF11.7
aF3.1
aI10
aI0
aI5
aV101107,1610612766
p1304
aa(lp1305
I203486
aVMason Plumlee
p1306
aI1610612757
aVPOR
p1307
aF26.0
aI82
aI44
aI38
aF0.537
aF25.4
aF3.3
aF6.3
aF0.516
aF0.0
aF0.0
aF0.0
aF2.6
aF4.1
aF0.642
aF2.5
aF5.2
aF7.7
aF2.8
aF1.9
aF0.8
aF1.0
aF0.8
aF3.1
aF3.3
aF9.1
aF0.4
aI15
aI0
aI5
aV203486,1610612757
p1308
aa(lp1309
I2440
aVMatt Barnes
p1310
aI1610612763
aVMEM
p1311
aF36.0
aI76
aI38
aI38
aF0.5
aF28.8
aF3.5
aF9.1
aF0.381
aF1.6
aF4.9
aF0.322
aF1.5
aF1.8
aF0.804
aF1.1
aF4.4
aF5.5
aF2.1
aF1.6
aF1.0
aF0.8
aF0.5
aF3.1
aF1.4
aF10.0
aF-2.8
aI7
aI1
aI5
aV2440,1610612763
p1312
aa(lp1313
I2588
aVMatt Bonner
p1314
aI1610612759
aVSAS
p1315
aF36.0
aI30
aI25
aI5
aF0.833
aF6.9
aF1.0
aF1.9
aF0.509
aF0.5
aF1.1
aF0.441
aF0.1
aF0.1
aF0.75
aF0.1
aF0.8
aF0.9
aF0.3
aF0.1
aF0.2
aF0.0
aF0.1
aF0.5
aF0.2
aF2.5
aF2.1
aI0
aI0
aI5
aV2588,1610612759
p1316
aa(lp1317
I203521
aVMatthew Dellavedova
p1318
aI1610612739
aVCLE
p1319
aF25.0
aI76
aI54
aI22
aF0.711
aF24.6
aF2.7
aF6.7
aF0.405
aF1.3
aF3.1
aF0.41
aF0.8
aF0.9
aF0.864
aF0.4
aF1.7
aF2.1
aF4.4
aF1.5
aF0.6
aF0.1
aF0.3
aF2.3
aF1.2
aF7.5
aF5.0
aI1
aI0
aI5
aV203521,1610612739
p1320
aa(lp1321
I203090
aVMaurice Harkless
p1322
aI1610612757
aVPOR
p1323
aF23.0
aI78
aI40
aI38
aF0.513
aF18.7
aF2.5
aF5.3
aF0.474
aF0.5
aF1.8
aF0.279
aF0.9
aF1.4
aF0.622
aF1.3
aF2.3
aF3.6
aF0.9
aF0.8
aF0.6
aF0.4
aF0.4
aF1.6
aF0.9
aF6.4
aF0.4
aI4
aI0
aI5
aV203090,1610612757
p1324
aa(lp1325
I1897
aVMetta World Peace
p1326
aI1610612747
aVLAL
p1327
aF36.0
aI35
aI6
aI29
aF0.171
aF16.9
aF1.6
aF5.1
aF0.311
aF0.7
aF2.4
aF0.31
aF1.1
aF1.6
aF0.702
aF0.5
aF2.0
aF2.5
aF0.8
aF0.4
aF0.6
aF0.3
aF0.4
aF1.9
aF1.2
aF5.0
aF-1.8
aI0
aI0
aI5
aV1897,1610612747
p1328
aa(lp1329
I203086
aVMeyers Leonard
p1330
aI1610612757
aVPOR
p1331
aF24.0
aI61
aI33
aI28
aF0.541
aF21.8
aF3.2
aF7.1
aF0.448
aF1.4
aF3.7
aF0.377
aF0.6
aF0.8
aF0.761
aF0.8
aF4.3
aF5.1
aF1.5
aF1.3
aF0.1
aF0.3
aF0.1
aF3.0
aF1.0
aF8.4
aF1.6
aI4
aI0
aI5
aV203086,1610612757
p1332
aa(lp1333
I201563
aVMichael Beasley
p1334
aI1610612745
aVHOU
p1335
aF27.0
aI20
aI10
aI10
aF0.5
aF18.1
aF5.4
aF10.3
aF0.522
aF0.2
aF0.5
aF0.333
aF1.9
aF2.5
aF0.776
aF1.5
aF3.5
aF4.9
aF0.8
aF1.2
aF0.6
aF0.5
aF0.7
aF2.0
aF1.6
aF12.8
aF-3.4
aI1
aI0
aI5
aV201563,1610612745
p1336
aa(lp1337
I203487
aVMichael Carter-Williams
p1338
aI1610612749
aVMIL
p1339
aF24.0
aI54
aI21
aI33
aF0.389
aF30.5
aF4.6
aF10.3
aF0.452
aF0.3
aF1.0
aF0.273
aF2.0
aF3.0
aF0.663
aF0.9
aF4.2
aF5.1
aF5.2
aF2.8
aF1.5
aF0.8
aF0.8
aF3.0
aF3.2
aF11.5
aF-2.4
aI6
aI0
aI5
aV203487,1610612749
p1340
aa(lp1341
I203077
aVMichael Kidd-Gilchrist
p1342
aI1610612766
aVCHA
p1343
aF22.0
aI7
aI5
aI2
aF0.714
aF29.2
aF4.7
aF8.7
aF0.541
aF0.4
aF1.0
aF0.429
aF2.9
aF4.1
aF0.69
aF1.7
aF4.7
aF6.4
aF1.3
aF1.1
aF0.4
aF0.4
aF1.1
aF1.3
aF3.1
aF12.7
aF8.3
aI2
aI0
aI5
aV203077,1610612766
p1344
aa(lp1345
I201144
aVMike Conley
p1346
aI1610612763
aVMEM
p1347
aF28.0
aI56
aI33
aI23
aF0.589
aF31.4
aF5.3
aF12.4
aF0.422
aF1.4
aF3.8
aF0.363
aF3.4
aF4.1
aF0.834
aF0.5
aF2.5
aF2.9
aF6.1
aF1.5
aF1.2
aF0.3
aF0.6
aF1.8
aF3.3
aF15.3
aF1.1
aI4
aI0
aI5
aV201144,1610612763
p1348
aa(lp1349
I2399
aVMike Dunleavy
p1350
aI1610612741
aVCHI
p1351
aF35.0
aI31
aI13
aI18
aF0.419
aF22.7
aF2.5
aF6.1
aF0.41
aF1.3
aF3.2
aF0.394
aF0.9
aF1.2
aF0.784
aF0.3
aF2.4
aF2.7
aF1.3
aF0.8
aF0.5
aF0.3
aF0.4
aF2.1
aF1.1
aF7.2
aF-2.1
aI0
aI0
aI5
aV2399,1610612741
p1352
aa(lp1353
I2034
aVMike Miller
p1354
aI1610612743
aVDEN
p1355
aF36.0
aI47
aI21
aI26
aF0.447
aF7.9
aF0.5
aF1.3
aF0.355
aF0.4
aF1.1
aF0.365
aF0.0
aF0.0
aF0.0
aF0.1
aF1.0
aF1.1
aF0.9
aF0.4
aF0.3
aF0.1
aF0.1
aF1.1
aF0.1
aF1.3
aF-1.9
aI0
aI0
aI5
aV2034,1610612743
p1356
aa(lp1357
I203488
aVMike Muscala
p1358
aI1610612737
aVATL
p1359
aF24.0
aI60
aI34
aI26
aF0.567
aF9.4
aF1.3
aF2.5
aF0.5
aF0.2
aF0.7
aF0.308
aF0.5
aF0.7
aF0.795
aF0.6
aF1.3
aF2.0
aF0.6
aF0.5
aF0.2
aF0.5
aF0.0
aF1.2
aF0.6
aF3.3
aF-0.6
aI0
aI0
aI5
aV203488,1610612737
p1360
aa(lp1361
I203118
aVMike Scott
p1362
aI1610612737
aVATL
p1363
aF27.0
aI75
aI46
aI29
aF0.613
aF15.3
aF2.3
aF5.0
aF0.468
aF0.8
aF2.1
aF0.392
aF0.7
aF0.8
aF0.794
aF0.7
aF2.0
aF2.7
aF1.0
aF0.6
aF0.3
aF0.2
aF0.2
aF1.4
aF0.8
aF6.2
aF1.5
aI0
aI0
aI5
aV203118,1610612737
p1364
aa(lp1365
I203101
aVMiles Plumlee
p1366
aI1610612749
aVMIL
p1367
aF27.0
aI61
aI23
aI38
aF0.377
aF14.3
aF2.3
aF3.8
aF0.601
aF0.0
aF0.0
aF0.0
aF0.6
aF1.0
aF0.576
aF1.5
aF2.3
aF3.8
aF0.3
aF0.7
aF0.3
aF0.8
aF0.2
aF1.2
aF0.9
aF5.1
aF-1.6
aI0
aI0
aI5
aV203101,1610612749
p1368
aa(lp1369
I203141
aVMirza Teletovic
p1370
aI1610612756
aVPHX
p1371
aF30.0
aI79
aI23
aI56
aF0.291
aF21.3
aF4.2
aF9.8
aF0.427
aF2.3
aF5.8
aF0.393
aF1.5
aF2.0
aF0.774
aF0.7
aF3.1
aF3.8
aF1.1
aF1.1
aF0.4
aF0.3
aF0.5
aF2.0
aF1.7
aF12.2
aF-2.1
aI2
aI0
aI5
aV203141,1610612756
p1372
aa(lp1373
I203956
aVMitch McGary
p1374
aI1610612760
aVOKC
p1375
aF24.0
aI20
aI17
aI3
aF0.85
aF3.6
aF0.6
aF1.2
aF0.478
aF0.0
aF0.2
aF0.0
aF0.2
aF0.5
aF0.4
aF0.2
aF0.7
aF0.9
aF0.2
aF0.4
aF0.1
aF0.1
aF0.2
aF0.5
aF0.3
aF1.3
aF-2.5
aI0
aI0
aI5
aV203956,1610612760
p1376
aa(lp1377
I2590
aVMo Williams
p1378
aI1610612739
aVCLE
p1379
aF33.0
aI41
aI27
aI14
aF0.659
aF18.2
aF3.2
aF7.4
aF0.437
aF0.9
aF2.5
aF0.353
aF0.9
aF1.0
aF0.905
aF0.1
aF1.6
aF1.8
aF2.4
aF1.4
aF0.3
aF0.1
aF0.3
aF1.5
aF1.0
aF8.2
aF-1.2
aI0
aI0
aI5
aV2590,1610612739
p1380
aa(lp1381
I101145
aVMonta Ellis
p1382
aI1610612754
aVIND
p1383
aF30.0
aI81
aI44
aI37
aF0.543
aF33.8
aF5.4
aF12.6
aF0.427
aF1.1
aF3.5
aF0.309
aF2.0
aF2.5
aF0.786
aF0.5
aF2.8
aF3.3
aF4.7
aF2.5
aF1.9
aF0.5
aF0.4
aF2.1
aF2.4
aF13.8
aF1.3
aI1
aI0
aI5
aV101145,1610612754
p1384
aa(lp1385
I1626149
aVMontrezl Harrell
p1386
aI1610612745
aVHOU
p1387
aF22.0
aI39
aI17
aI22
aF0.436
aF9.7
aF1.5
aF2.3
aF0.644
aF0.0
aF0.0
aF0.0
aF0.6
aF1.2
aF0.522
aF0.6
aF1.0
aF1.7
aF0.4
aF0.4
aF0.3
aF0.3
aF0.2
aF1.2
aF0.8
aF3.6
aF1.0
aI0
aI0
aI5
aV1626149,1610612745
p1388
aa(lp1389
I1626167
aVMyles Turner
p1390
aI1610612754
aVIND
p1391
aF20.0
aI60
aI32
aI28
aF0.533
aF22.8
aF4.4
aF8.8
aF0.498
aF0.1
aF0.2
aF0.214
aF1.5
aF2.0
aF0.727
aF1.1
aF4.4
aF5.5
aF0.7
aF1.1
aF0.4
aF1.4
aF0.4
aF2.6
aF2.0
aF10.3
aF-1.2
aI4
aI0
aI5
aV1626167,1610612754
p1392
aa(lp1393
I101126
aVNate Robinson
p1394
aI1610612740
aVNOP
p1395
aF32.0
aI2
aI0
aI2
aF0.0
aF11.6
aF0.0
aF0.5
aF0.0
aF0.0
aF0.5
aF0.0
aF0.0
aF0.0
aF0.0
aF0.0
aF0.0
aF0.0
aF2.0
aF0.0
aF0.5
aF0.0
aF0.0
aF2.5
aF0.0
aF0.0
aF-10.0
aI0
aI0
aI5
aV101126,1610612740
p1396
aa(lp1397
I1737
aVNazr Mohammed
p1398
aI1610612760
aVOKC
p1399
aF38.0
aI5
aI5
aI0
aF1.0
aF3.9
aF0.6
aF1.0
aF0.6
aF0.0
aF0.0
aF0.0
aF0.4
aF0.4
aF1.0
aF0.2
aF0.6
aF0.8
aF0.0
aF0.6
aF0.0
aF0.0
aF0.0
aF0.8
aF0.2
aF1.6
aF-0.6
aI0
aI0
aI5
aV1737,1610612760
p1400
aa(lp1401
I202357
aVNemanja Bjelica
p1402
aI1610612750
aVMIN
p1403
aF28.0
aI60
aI20
aI40
aF0.333
aF17.9
aF1.8
aF3.9
aF0.468
aF0.8
aF2.1
aF0.384
aF0.7
aF0.9
aF0.727
aF0.8
aF2.7
aF3.5
aF1.4
aF0.8
aF0.4
aF0.4
aF0.2
aF2.6
aF1.0
aF5.1
aF-2.1
aI3
aI0
aI5
aV202357,1610612750
p1404
aa(lp1405
I2403
aVNene
p1406
aI1610612764
aVWAS
p1407
aF33.0
aI57
aI28
aI29
aF0.491
aF19.2
aF3.7
aF6.7
aF0.544
aF0.0
aF0.1
aF0.0
aF1.9
aF3.2
aF0.578
aF0.9
aF3.6
aF4.5
aF1.7
aF1.3
aF0.9
aF0.5
aF0.4
aF2.7
aF2.9
aF9.2
aF0.6
aI1
aI0
aI5
aV2403,1610612764
p1408
aa(lp1409
I203457
aVNerlens Noel
p1410
aI1610612755
aVPHI
p1411
aF22.0
aI67
aI10
aI57
aF0.149
aF29.3
aF4.6
aF8.8
aF0.521
aF0.0
aF0.0
aF0.5
aF2.0
aF3.4
aF0.59
aF2.3
aF5.8
aF8.1
aF1.8
aF2.4
aF1.8
aF1.5
aF0.6
aF2.9
aF2.9
aF11.1
aF-6.9
aI16
aI0
aI5
aV203457,1610612755
p1412
aa(lp1413
I2555
aVNick Collison
p1414
aI1610612760
aVOKC
p1415
aF35.0
aI59
aI39
aI20
aF0.661
aF11.9
aF0.8
aF1.8
aF0.459
aF0.0
aF0.0
aF0.0
aF0.4
aF0.6
aF0.697
aF1.2
aF1.7
aF2.9
aF0.9
aF0.8
aF0.3
aF0.3
aF0.2
aF1.8
aF0.7
aF2.1
aF0.4
aI0
aI0
aI5
aV2555,1610612760
p1416
aa(lp1417
I201156
aVNick Young
p1418
aI1610612747
aVLAL
p1419
aF31.0
aI54
aI13
aI41
aF0.241
aF19.1
aF2.3
aF6.9
aF0.339
aF1.4
aF4.4
aF0.325
aF1.2
aF1.4
aF0.829
aF0.3
aF1.5
aF1.8
aF0.6
aF0.6
aF0.4
aF0.1
aF0.2
aF0.9
aF0.8
aF7.3
aF-3.7
aI0
aI0
aI5
aV201156,1610612747
p1420
aa(lp1421
I201587
aVNicolas Batum
p1422
aI1610612766
aVCHA
p1423
aF27.0
aI70
aI41
aI29
aF0.586
aF35.0
aF5.3
aF12.5
aF0.426
aF2.0
aF5.7
aF0.348
aF2.3
aF2.7
aF0.849
aF0.8
aF5.3
aF6.1
aF5.8
aF2.9
aF0.9
aF0.6
aF0.4
aF1.6
aF2.2
aF14.9
aF3.0
aI11
aI2
aI5
aV201587,1610612766
p1424
aa(lp1425
I203917
aVNik Stauskas
p1426
aI1610612755
aVPHI
p1427
aF22.0
aI73
aI8
aI65
aF0.11
aF24.8
aF2.9
aF7.5
aF0.385
aF1.5
aF4.5
aF0.326
aF1.2
aF1.6
aF0.771
aF0.3
aF2.2
aF2.5
aF1.9
aF1.3
aF0.6
aF0.3
aF0.5
aF1.6
aF1.3
aF8.5
aF-5.5
aI0
aI0
aI5
aV203917,1610612755
p1428
aa(lp1429
I203999
aVNikola Jokic
p1430
aI1610612743
aVDEN
p1431
aF21.0
aI80
aI31
aI49
aF0.388
aF21.7
aF3.8
aF7.5
aF0.512
aF0.4
aF1.1
aF0.333
aF1.9
aF2.4
aF0.811
aF2.3
aF4.7
aF7.0
aF2.4
aF1.3
aF1.0
aF0.6
aF0.7
aF2.6
aF2.5
aF10.0
aF1.2
aI16
aI0
aI5
aV203999,1610612743
p1432
aa(lp1433
I202703
aVNikola Mirotic
p1434
aI1610612741
aVCHI
p1435
aF25.0
aI66
aI37
aI29
aF0.561
aF24.9
aF3.8
aF9.2
aF0.407
aF2.0
aF5.2
aF0.39
aF2.2
aF2.7
aF0.807
aF0.9
aF4.6
aF5.5
aF1.5
aF1.5
aF0.9
aF0.7
aF0.4
aF2.3
aF2.1
aF11.8
aF0.6
aI5
aI0
aI5
aV202703,1610612741
p1436
aa(lp1437
I201593
aVNikola Pekovic
p1438
aI1610612750
aVMIN
p1439
aF30.0
aI12
aI2
aI10
aF0.167
aF13.0
aF1.6
aF4.2
aF0.38
aF0.0
aF0.0
aF0.0
aF1.3
aF1.7
aF0.8
aF0.6
aF1.2
aF1.8
aF0.9
aF0.8
aF0.1
aF0.0
aF0.2
aF1.8
aF1.5
aF4.5
aF-5.3
aI0
aI0
aI5
aV201593,1610612750
p1440
aa(lp1441
I202696
aVNikola Vucevic
p1442
aI1610612753
aVORL
p1443
aF25.0
aI65
aI28
aI37
aF0.431
aF31.3
aF8.2
aF16.1
aF0.51
aF0.0
aF0.1
aF0.222
aF1.7
aF2.3
aF0.753
aF2.7
aF6.2
aF8.9
aF2.8
aF1.9
aF0.8
aF1.1
aF0.9
aF2.7
aF2.4
aF18.2
aF-0.7
aI29
aI0
aI5
aV202696,1610612753
p1444
aa(lp1445
I203943
aVNoah Vonleh
p1446
aI1610612757
aVPOR
p1447
aF20.0
aI78
aI41
aI37
aF0.526
aF15.0
aF1.5
aF3.6
aF0.421
aF0.1
aF0.6
aF0.239
aF0.5
aF0.7
aF0.745
aF1.2
aF2.7
aF3.9
aF0.4
aF0.6
aF0.3
aF0.3
aF0.3
aF1.9
aF0.6
aF3.6
aF-0.8
aI0
aI0
aI5
aV203943,1610612757
p1448
aa(lp1449
I1626181
aVNorman Powell
p1450
aI1610612761
aVTOR
p1451
aF23.0
aI49
aI32
aI17
aF0.653
aF14.8
aF2.0
aF4.7
aF0.424
aF0.7
aF1.8
aF0.404
aF0.9
aF1.1
aF0.811
aF0.3
aF1.9
aF2.3
aF1.0
aF0.7
aF0.6
aF0.2
aF0.5
aF1.2
aF0.9
aF5.6
aF1.3
aI0
aI0
aI5
aV1626181,1610612761
p1452
aa(lp1453
I202708
aVNorris Cole
p1454
aI1610612740
aVNOP
p1455
aF27.0
aI45
aI20
aI25
aF0.444
aF26.6
aF4.4
aF10.8
aF0.405
aF0.7
aF2.3
aF0.324
aF1.2
aF1.4
aF0.8
aF0.2
aF3.1
aF3.4
aF3.7
aF1.7
aF0.8
aF0.1
aF0.4
aF2.3
aF1.6
aF10.6
aF-2.3
aI2
aI0
aI5
aV202708,1610612740
p1456
aa(lp1457
I201564
aVO.J. Mayo
p1458
aI1610612749
aVMIL
p1459
aF28.0
aI41
aI17
aI24
aF0.415
aF26.6
aF2.9
aF7.8
aF0.371
aF1.3
aF4.0
aF0.321
aF0.8
aF1.0
aF0.775
aF0.3
aF2.2
aF2.6
aF2.9
aF1.8
aF1.2
aF0.2
aF0.4
aF3.1
aF1.1
aF7.8
aF-1.4
aI0
aI0
aI5
aV201564,1610612749
p1460
aa(lp1461
I201600
aVOmer Asik
p1462
aI1610612740
aVNOP
p1463
aF29.0
aI68
aI29
aI39
aF0.426
aF17.3
aF1.5
aF2.9
aF0.533
aF0.0
aF0.0
aF0.0
aF0.9
aF1.6
aF0.545
aF1.8
aF4.3
aF6.1
aF0.4
aF0.9
aF0.3
aF0.3
aF0.6
aF1.8
aF1.5
aF4.0
aF-3.0
aI2
aI0
aI5
aV201600,1610612740
p1464
aa(lp1465
I201956
aVOmri Casspi
p1466
aI1610612758
aVSAC
p1467
aF28.0
aI69
aI27
aI42
aF0.391
aF27.3
aF4.3
aF9.0
aF0.481
aF1.6
aF4.0
aF0.409
aF1.5
aF2.3
aF0.648
aF0.8
aF5.1
aF5.9
aF1.4
aF1.4
aF0.8
aF0.2
aF0.4
aF2.2
aF2.0
aF11.8
aF0.1
aI6
aI0
aI5
aV201956,1610612758
p1468
aa(lp1469
I203111
aVOrlando Johnson
p1470
aI1610612740
aVNOP
p1471
aF27.0
aI7
aI1
aI6
aF0.143
aF14.5
aF1.3
aF4.9
aF0.265
aF0.3
aF1.4
aF0.2
aF0.9
aF1.1
aF0.75
aF0.6
aF1.6
aF2.1
aF0.3
aF0.6
aF0.4
aF0.4
aF0.4
aF1.3
aF0.9
aF3.7
aF-5.3
aI0
aI0
aI5
aV203111,1610612740
p1472
aa(lp1473
I203490
aVOtto Porter
p1474
aI1610612764
aVWAS
p1475
aF23.0
aI75
aI36
aI39
aF0.48
aF30.3
aF4.5
aF9.6
aF0.473
aF1.3
aF3.6
aF0.367
aF1.3
aF1.7
aF0.754
aF1.3
aF3.9
aF5.2
aF1.6
aF0.9
aF1.4
aF0.4
aF0.4
aF2.2
aF1.5
aF11.6
aF0.6
aI5
aI0
aI5
aV203490,1610612764
p1476
aa(lp1477
I203798
aVPJ Hairston
p1478
aI1610612763
aVMEM
p1479
aF23.0
aI66
aI31
aI35
aF0.47
aF19.9
aF2.2
aF6.2
aF0.355
aF1.1
aF3.7
aF0.29
aF0.8
aF1.0
aF0.781
aF0.4
aF2.3
aF2.6
aF0.6
aF0.6
aF0.5
aF0.2
aF0.2
aF2.1
aF1.0
aF6.2
aF-2.9
aI1
aI0
aI5
aV203798,1610612763
p1480
aa(lp1481
I200782
aVPJ Tucker
p1482
aI1610612756
aVPHX
p1483
aF31.0
aI82
aI23
aI59
aF0.28
aF31.0
aF2.9
aF7.1
aF0.411
aF0.8
aF2.5
aF0.33
aF1.3
aF1.7
aF0.746
aF2.0
aF4.2
aF6.2
aF2.2
aF1.4
aF1.3
aF0.2
aF0.5
aF2.5
aF1.9
aF8.0
aF-4.3
aI7
aI0
aI5
aV200782,1610612756
p1484
aa(lp1485
I203143
aVPablo Prigioni
p1486
aI1610612746
aVLAC
p1487
aF39.0
aI59
aI37
aI22
aF0.627
aF13.9
aF0.9
aF2.5
aF0.374
aF0.5
aF1.6
aF0.295
aF0.1
aF0.1
aF0.875
aF0.6
aF1.3
aF1.9
aF2.2
aF0.8
aF0.9
aF0.0
aF0.1
aF1.4
aF0.5
aF2.5
aF-1.1
aI0
aI0
aI5
aV203143,1610612746
p1488
aa(lp1489
I1626192
aVPat Connaughton
p1490
aI1610612757
aVPOR
p1491
aF23.0
aI34
aI17
aI17
aF0.5
aF4.2
aF0.4
aF1.4
aF0.265
aF0.1
aF0.6
aF0.238
aF0.1
aF0.1
aF1.0
aF0.3
aF0.6
aF0.9
aF0.3
aF0.3
aF0.1
aF0.0
aF0.1
aF0.2
aF0.1
aF1.1
aF-0.4
aI0
aI0
aI5
aV1626192,1610612757
p1492
aa(lp1493
I201976
aVPatrick Beverley
p1494
aI1610612745
aVHOU
p1495
aF27.0
aI71
aI35
aI36
aF0.493
aF28.7
aF3.6
aF8.4
aF0.434
aF1.7
aF4.4
aF0.4
aF0.8
aF1.2
aF0.682
aF1.0
aF2.5
aF3.5
aF3.4
aF1.3
aF1.3
aF0.4
aF0.5
aF3.3
aF1.4
aF9.9
aF1.9
aI1
aI0
aI5
aV201976,1610612745
p1496
aa(lp1497
I202335
aVPatrick Patterson
p1498
aI1610612761
aVTOR
p1499
aF27.0
aI79
aI54
aI25
aF0.684
aF25.6
aF2.6
aF6.2
aF0.414
aF1.3
aF3.7
aF0.362
aF0.4
aF0.4
aF0.853
aF1.0
aF3.4
aF4.3
aF1.2
aF0.8
aF0.7
aF0.4
aF0.1
aF1.6
aF0.7
aF6.9
aF5.1
aI0
aI0
aI5
aV202335,1610612761
p1500
aa(lp1501
I201988
aVPatty Mills
p1502
aI1610612759
aVSAS
p1503
aF27.0
aI81
aI66
aI15
aF0.815
aF20.5
aF3.2
aF7.6
aF0.425
aF1.5
aF4.0
aF0.384
aF0.6
aF0.7
aF0.81
aF0.3
aF1.6
aF2.0
aF2.8
aF0.9
aF0.7
aF0.1
aF0.1
aF1.3
aF1.5
aF8.5
aF4.7
aI0
aI0
aI5
aV201988,1610612759
p1504
aa(lp1505
I2200
aVPau Gasol
p1506
aI1610612741
aVCHI
p1507
aF35.0
aI72
aI36
aI36
aF0.5
aF31.8
aF6.5
aF13.8
aF0.469
aF0.3
aF1.0
aF0.348
aF3.2
aF4.0
aF0.792
aF2.2
aF8.9
aF11.0
aF4.1
aF2.3
aF0.6
aF2.0
aF0.8
aF2.1
aF3.6
aF16.5
aF0.0
aI46
aI2
aI5
aV2200,1610612741
p1508
aa(lp1509
I202331
aVPaul George
p1510
aI1610612754
aVIND
p1511
aF26.0
aI81
aI44
aI37
aF0.543
aF34.8
aF7.5
aF17.9
aF0.418
aF2.6
aF7.0
aF0.371
aF5.6
aF6.5
aF0.86
aF1.0
aF6.0
aF7.0
aF4.1
aF3.3
aF1.9
aF0.4
aF1.0
aF2.8
aF5.4
aF23.1
aF2.2
aI15
aI0
aI5
aV202331,1610612754
p1512
aa(lp1513
I200794
aVPaul Millsap
p1514
aI1610612737
aVATL
p1515
aF31.0
aI81
aI48
aI33
aF0.593
aF32.7
aF6.2
aF13.2
aF0.47
aF0.9
aF2.9
aF0.319
aF3.8
aF5.0
aF0.757
aF2.4
aF6.6
aF9.0
aF3.3
aF2.4
aF1.8
aF1.7
aF0.9
aF2.9
aF4.4
aF17.1
aF2.7
aI32
aI0
aI5
aV200794,1610612737
p1516
aa(lp1517
I1718
aVPaul Pierce
p1518
aI1610612746
aVLAC
p1519
aF38.0
aI68
aI44
aI24
aF0.647
aF18.1
aF2.1
aF5.8
aF0.363
aF1.1
aF3.6
aF0.31
aF0.8
aF1.0
aF0.818
aF0.2
aF2.6
aF2.7
aF1.0
aF0.9
aF0.5
aF0.3
aF0.3
aF1.9
aF0.9
aF6.1
aF0.8
aI0
aI0
aI5
aV1718,1610612746
p1520
aa(lp1521
I203515
aVPhil Pressey
p1522
aI1610612757
aVPOR
p1523
aF25.0
aI23
aI3
aI20
aF0.13
aF12.3
aF1.3
aF3.4
aF0.385
aF0.2
aF0.8
aF0.222
aF0.6
aF1.1
aF0.52
aF0.1
aF1.2
aF1.3
aF3.3
aF1.4
aF0.8
aF0.2
aF0.4
aF1.2
aF0.9
aF3.3
aF-1.7
aI0
aI0
aI5
aV203515,1610612757
p1524
aa(lp1525
I203112
aVQuincy Acy
p1526
aI1610612758
aVSAC
p1527
aF25.0
aI59
aI21
aI38
aF0.356
aF14.8
aF2.0
aF3.6
aF0.556
aF0.3
aF0.8
aF0.388
aF0.8
aF1.2
aF0.735
aF1.1
aF2.1
aF3.2
aF0.5
aF0.5
aF0.5
aF0.4
aF0.1
aF1.7
aF1.3
aF5.2
aF-2.2
aI0
aI0
aI5
aV203112,1610612758
p1528
aa(lp1529
I1626154
aVRJ Hunter
p1530
aI1610612738
aVBOS
p1531
aF22.0
aI36
aI21
aI15
aF0.583
aF8.7
aF1.0
aF2.7
aF0.367
aF0.5
aF1.8
aF0.302
aF0.2
aF0.2
aF0.857
aF0.1
aF1.0
aF1.0
aF0.4
aF0.3
aF0.4
aF0.1
aF0.1
aF0.8
aF0.3
aF2.7
aF-0.8
aI0
aI0
aI5
aV1626154,1610612738
p1532
aa(lp1533
I200765
aVRajon Rondo
p1534
aI1610612758
aVSAC
p1535
aF30.0
aI72
aI29
aI43
aF0.403
aF35.2
aF4.9
aF10.9
aF0.454
aF0.9
aF2.4
aF0.365
aF1.2
aF2.1
aF0.58
aF1.1
aF5.0
aF6.0
aF11.7
aF3.9
aF2.0
aF0.1
aF0.8
aF2.4
aF2.1
aF11.9
aF-2.1
aI37
aI6
aI5
aV200765,1610612758
p1536
aa(lp1537
I1626176
aVRakeem Christmas
p1538
aI1610612754
aVIND
p1539
aF24.0
aI1
aI1
aI0
aF1.0
aF6.1
aF2.0
aF2.0
aF1.0
aF0.0
aF0.0
aF0.0
aF0.0
aF0.0
aF0.0
aF1.0
aF0.0
aF1.0
aF0.0
aF0.0
aF0.0
aF0.0
aF0.0
aF1.0
aF0.0
aF4.0
aF-10.0
aI0
aI0
aI5
aV1626176,1610612754
p1540
aa(lp1541
I201196
aVRamon Sessions
p1542
aI1610612764
aVWAS
p1543
aF30.0
aI82
aI41
aI41
aF0.5
aF20.3
aF3.4
aF7.2
aF0.473
aF0.4
aF1.4
aF0.324
aF2.6
aF3.5
aF0.756
aF0.3
aF2.2
aF2.5
aF2.9
aF1.4
aF0.6
aF0.1
aF0.5
aF1.2
aF2.6
aF9.9
aF-0.7
aI3
aI0
aI5
aV201196,1610612764
p1544
aa(lp1545
I200751
aVRandy Foye
p1546
aI1610612760
aVOKC
p1547
aF32.0
aI81
aI37
aI44
aF0.457
aF20.3
aF2.1
aF6.0
aF0.351
aF0.9
aF3.1
aF0.3
aF0.8
aF0.9
aF0.824
aF0.3
aF1.6
aF1.9
aF2.0
aF1.1
aF0.5
aF0.4
aF0.3
aF1.6
aF0.9
aF5.9
aF0.3
aI0
aI0
aI5
aV200751,1610612760
p1548
aa(lp1549
I1626173
aVRashad Vaughn
p1550
aI1610612749
aVMIL
p1551
aF19.0
aI70
aI30
aI40
aF0.429
aF14.3
aF1.2
aF3.8
aF0.305
aF0.6
aF2.1
aF0.293
aF0.2
aF0.2
aF0.8
aF0.2
aF1.1
aF1.3
aF0.6
aF0.4
aF0.4
aF0.2
aF0.4
aF1.0
aF0.3
aF3.1
aF-2.1
aI0
aI0
aI5
aV1626173,1610612749
p1552
aa(lp1553
I2446
aVRasual Butler
p1554
aI1610612759
aVSAS
p1555
aF37.0
aI46
aI41
aI5
aF0.891
aF9.4
aF1.1
aF2.3
aF0.471
aF0.3
aF1.1
aF0.306
aF0.2
aF0.3
aF0.688
aF0.1
aF1.2
aF1.2
aF0.5
aF0.2
aF0.3
aF0.5
aF0.1
aF0.2
aF0.3
aF2.7
aF1.7
aI0
aI0
aI5
aV2446,1610612759
p1556
aa(lp1557
I203526
aVRaul Neto
p1558
aI1610612762
aVUTA
p1559
aF24.0
aI81
aI40
aI41
aF0.494
aF18.5
aF2.2
aF5.2
aF0.431
aF0.8
aF2.0
aF0.395
aF0.6
aF0.9
aF0.743
aF0.2
aF1.3
aF1.5
aF2.1
aF1.3
aF0.8
aF0.0
aF0.3
aF1.5
aF1.3
aF5.9
aF0.9
aI0
aI0
aI5
aV203526,1610612762
p1560
aa(lp1561
I203492
aVRay McCallum
p1562
aI1610612759
aVSAS
p1563
aF25.0
aI41
aI30
aI11
aF0.732
aF11.6
aF1.3
aF3.6
aF0.377
aF0.4
aF1.0
aF0.357
aF0.3
aF0.4
aF0.8
aF0.2
aF1.0
aF1.1
aF1.5
aF0.6
aF0.3
aF0.2
aF0.3
aF0.7
aF0.4
aF3.3
aF0.5
aI0
aI0
aI5
aV203492,1610612759
p1564
aa(lp1565
I101109
aVRaymond Felton
p1566
aI1610612742
aVDAL
p1567
aF32.0
aI80
aI40
aI40
aF0.5
aF27.4
aF3.5
aF8.5
aF0.406
aF0.8
aF2.7
aF0.282
aF1.9
aF2.2
aF0.847
aF0.5
aF2.8
aF3.2
aF3.6
aF1.5
aF0.9
aF0.2
aF0.4
aF1.8
aF1.9
aF9.5
aF-0.8
aI3
aI1
aI5
aV101109,1610612742
p1568
aa(lp1569
I203493
aVReggie Bullock
p1570
aI1610612765
aVDET
p1571
aF25.0
aI37
aI22
aI15
aF0.595
aF11.6
aF1.2
aF2.6
aF0.439
aF0.6
aF1.4
aF0.415
aF0.4
aF0.4
aF0.933
aF0.4
aF1.5
aF1.8
aF0.7
aF0.2
aF0.3
aF0.1
aF0.1
aF0.8
aF0.4
aF3.3
aF-1.6
aI0
aI0
aI5
aV203493,1610612765
p1572
aa(lp1573
I202704
aVReggie Jackson
p1574
aI1610612765
aVDET
p1575
aF26.0
aI79
aI43
aI36
aF0.544
aF30.7
aF6.8
aF15.7
aF0.434
aF1.5
aF4.2
aF0.353
aF3.7
aF4.3
aF0.864
aF0.7
aF2.5
aF3.2
aF6.2
aF2.8
aF0.7
aF0.1
aF0.9
aF2.4
aF3.4
aF18.8
aF1.6
aI9
aI0
aI5
aV202704,1610612765
p1576
aa(lp1577
I2210
aVRichard Jefferson
p1578
aI1610612739
aVCLE
p1579
aF36.0
aI74
aI51
aI23
aF0.689
aF17.9
aF1.9
aF4.2
aF0.458
aF0.9
aF2.3
aF0.382
aF0.8
aF1.2
aF0.667
aF0.2
aF1.5
aF1.7
aF0.8
aF0.6
aF0.4
aF0.2
aF0.1
aF1.7
aF1.1
aF5.5
aF-0.6
aI0
aI0
aI5
aV2210,1610612739
p1580
aa(lp1581
I1626158
aVRichaun Holmes
p1582
aI1610612755
aVPHI
p1583
aF22.0
aI51
aI7
aI44
aF0.137
aF13.8
aF2.2
aF4.4
aF0.514
aF0.2
aF0.9
aF0.182
aF1.0
aF1.5
aF0.689
aF1.2
aF1.4
aF2.6
aF0.6
aF0.6
aF0.4
aF0.8
aF0.4
aF1.8
aF1.3
aF5.6
aF-1.0
aI0
aI0
aI5
aV1626158,1610612755
p1584
aa(lp1585
I201937
aVRicky Rubio
p1586
aI1610612750
aVMIN
p1587
aF25.0
aI76
aI28
aI48
aF0.368
aF30.6
aF2.9
aF7.7
aF0.374
aF0.8
aF2.5
aF0.326
aF3.5
aF4.1
aF0.847
aF0.5
aF3.8
aF4.3
aF8.7
aF2.5
aF2.1
aF0.1
aF0.4
aF2.6
aF3.4
aF10.1
aF0.2
aI14
aI0
aI5
aV201937,1610612750
p1588
aa(lp1589
I203496
aVRobert Covington
p1590
aI1610612755
aVPHI
p1591
aF25.0
aI67
aI10
aI57
aF0.149
aF28.4
aF4.1
aF10.6
aF0.385
aF2.5
aF7.2
aF0.353
aF2.1
aF2.6
aF0.791
aF1.0
aF5.3
aF6.3
aF1.4
aF2.1
aF1.6
aF0.6
aF0.6
aF3.5
aF2.0
aF12.8
aF-4.2
aI7
aI0
aI5
aV203496,1610612755
p1592
aa(lp1593
I203135
aVRobert Sacre
p1594
aI1610612747
aVLAL
p1595
aF27.0
aI25
aI2
aI23
aF0.08
aF12.8
aF1.2
aF3.0
aF0.413
aF0.0
aF0.0
aF0.0
aF1.0
aF1.5
aF0.658
aF1.3
aF1.6
aF2.9
aF0.6
aF0.5
aF0.2
aF0.4
aF0.4
aF1.7
aF1.0
aF3.5
aF-1.3
aI0
aI0
aI5
aV203135,1610612747
p1596
aa(lp1597
I201577
aVRobin Lopez
p1598
aI1610612752
aVNYK
p1599
aF28.0
aI82
aI32
aI50
aF0.39
aF27.1
aF4.4
aF8.1
aF0.539
aF0.0
aF0.0
aF0.0
aF1.6
aF2.0
aF0.795
aF3.3
aF4.1
aF7.3
aF1.4
aF1.6
aF0.2
aF1.6
aF0.3
aF2.2
aF1.7
aF10.3
aF-1.2
aI15
aI0
aI5
aV201577,1610612752
p1600
aa(lp1601
I203918
aVRodney Hood
p1602
aI1610612762
aVUTA
p1603
aF23.0
aI79
aI39
aI40
aF0.494
aF32.2
aF5.2
aF12.3
aF0.42
aF2.0
aF5.7
aF0.359
aF2.2
aF2.5
aF0.86
aF0.5
aF2.9
aF3.4
aF2.7
aF1.6
aF0.9
aF0.2
aF0.5
aF2.6
aF2.1
aF14.5
aF1.7
aI0
aI0
aI5
aV203918,1610612762
p1604
aa(lp1605
I201155
aVRodney Stuckey
p1606
aI1610612754
aVIND
p1607
aF30.0
aI58
aI33
aI25
aF0.569
aF22.0
aF3.2
aF7.6
aF0.413
aF0.3
aF1.4
aF0.241
aF2.3
aF2.7
aF0.829
aF0.3
aF2.4
aF2.7
aF2.4
aF1.3
aF0.7
aF0.1
aF0.5
aF1.3
aF2.3
aF8.9
aF0.2
aI0
aI0
aI5
aV201155,1610612754
p1608
aa(lp1609
I1626178
aVRondae Hollis-Jefferson
p1610
aI1610612751
aVBKN
p1611
aF21.0
aI29
aI7
aI22
aF0.241
aF21.2
aF2.2
aF4.8
aF0.457
aF0.1
aF0.5
aF0.286
aF1.3
aF1.8
aF0.712
aF1.3
aF4.0
aF5.3
aF1.5
aF0.9
aF1.3
aF0.6
aF0.3
aF2.1
aF1.6
aF5.8
aF-2.1
aI2
aI0
aI5
aV1626178,1610612751
p1612
aa(lp1613
I101179
aVRonnie Price
p1614
aI1610612756
aVPHX
p1615
aF33.0
aI62
aI20
aI42
aF0.323
aF19.5
aF1.9
aF4.9
aF0.384
aF1.1
aF3.2
aF0.347
aF0.5
aF0.7
aF0.756
aF0.4
aF1.2
aF1.6
aF2.4
aF1.1
aF1.2
aF0.2
aF0.2
aF2.6
aF1.2
aF5.3
aF-1.2
aI0
aI0
aI5
aV101179,1610612756
p1616
aa(lp1617
I201579
aVRoy Hibbert
p1618
aI1610612747
aVLAL
p1619
aF29.0
aI81
aI17
aI64
aF0.21
aF23.2
aF2.2
aF5.1
aF0.443
aF0.0
aF0.0
aF0.0
aF1.4
aF1.8
aF0.807
aF1.6
aF3.3
aF4.9
aF1.2
aF0.9
aF0.4
aF1.4
aF0.4
aF3.1
aF1.9
aF5.9
aF-8.4
aI3
aI0
aI5
aV201579,1610612747
p1620
aa(lp1621
I200752
aVRudy Gay
p1622
aI1610612758
aVSAC
p1623
aF29.0
aI70
aI29
aI41
aF0.414
aF34.0
aF6.7
aF14.4
aF0.463
aF1.1
aF3.1
aF0.344
aF2.8
aF3.6
aF0.78
aF1.5
aF5.0
aF6.5
aF1.7
aF2.0
aF1.4
aF0.7
aF0.9
aF2.6
aF3.0
aF17.2
aF-1.2
aI7
aI0
aI5
aV200752,1610612758
p1624
aa(lp1625
I203497
aVRudy Gobert
p1626
aI1610612762
aVUTA
p1627
aF24.0
aI61
aI33
aI28
aF0.541
aF31.7
aF3.2
aF5.8
aF0.559
aF0.0
aF0.0
aF0.0
aF2.6
aF4.6
aF0.569
aF3.4
aF7.5
aF11.0
aF1.5
aF1.9
aF0.7
aF2.2
aF0.7
aF2.7
aF3.9
aF9.1
aF2.5
aI20
aI0
aI5
aV203497,1610612762
p1628
aa(lp1629
I203893
aVRuss Smith
p1630
aI1610612763
aVMEM
p1631
aF25.0
aI15
aI6
aI9
aF0.4
aF4.4
aF0.5
aF1.5
aF0.318
aF0.1
aF0.3
aF0.2
aF0.5
aF0.9
aF0.615
aF0.1
aF0.5
aF0.6
aF0.7
aF0.5
aF0.3
aF0.1
aF0.3
aF0.3
aF0.5
aF1.5
aF-2.7
aI0
aI0
aI5
aV203893,1610612763
p1632
aa(lp1633
I201566
aVRussell Westbrook
p1634
aI1610612760
aVOKC
p1635
aF27.0
aI80
aI55
aI25
aF0.688
aF34.4
aF8.2
aF18.1
aF0.454
aF1.3
aF4.3
aF0.296
aF5.8
aF7.2
aF0.812
aF1.8
aF6.0
aF7.8
aF10.4
aF4.3
aF2.0
aF0.3
aF1.1
aF2.5
aF5.4
aF23.5
aF7.9
aI54
aI18
aI5
aV201566,1610612760
p1636
aa(lp1637
I201583
aVRyan Anderson
p1638
aI1610612740
aVNOP
p1639
aF28.0
aI66
aI24
aI42
aF0.364
aF30.4
aF6.0
aF14.1
aF0.427
aF2.0
aF5.4
aF0.366
aF3.0
aF3.5
aF0.873
aF2.0
aF4.0
aF6.0
aF1.1
aF1.4
aF0.6
aF0.4
aF0.6
aF1.7
aF2.9
aF17.0
aF0.5
aI8
aI0
aI5
aV201583,1610612740
p1640
aa(lp1641
I200797
aVRyan Hollins
p1642
aI1610612763
aVMEM
p1643
aF31.0
aI37
aI18
aI19
aF0.486
aF12.4
aF1.3
aF2.1
aF0.62
aF0.0
aF0.0
aF0.0
aF0.7
aF1.1
aF0.619
aF1.3
aF1.4
aF2.6
aF0.3
aF0.6
aF0.2
aF0.6
aF0.4
aF1.7
aF1.3
aF3.4
aF-4.0
aI0
aI0
aI5
aV200797,1610612763
p1644
aa(lp1645
I203527
aVRyan Kelly
p1646
aI1610612747
aVLAL
p1647
aF25.0
aI36
aI3
aI33
aF0.083
aF13.1
aF1.5
aF4.1
aF0.369
aF0.1
aF1.0
aF0.135
aF1.0
aF1.5
aF0.685
aF0.6
aF2.8
aF3.4
aF0.6
aF0.5
aF0.4
aF0.3
aF0.4
aF1.1
aF1.2
aF4.2
aF0.0
aI0
aI0
aI5
aV203527,1610612747
p1648
aa(lp1649
I1626257
aVSalah Mejri
p1650
aI1610612742
aVDAL
p1651
aF30.0
aI34
aI16
aI18
aF0.471
aF11.7
aF1.4
aF2.3
aF0.628
aF0.0
aF0.0
aF0.0
aF0.8
aF1.4
aF0.587
aF1.2
aF2.4
aF3.6
aF0.3
aF0.7
aF0.2
aF1.1
aF0.4
aF1.6
aF1.3
aF3.7
aF1.2
aI3
aI0
aI5
aV1626257,1610612742
p1652
aa(lp1653
I1626155
aVSam Dekker
p1654
aI1610612745
aVHOU
p1655
aF22.0
aI3
aI1
aI2
aF0.333
aF2.0
aF0.0
aF0.0
aF0.0
aF0.0
aF0.0
aF0.0
aF0.0
aF0.0
aF0.0
aF0.0
aF0.3
aF0.3
aF0.0
aF0.0
aF0.3
aF0.0
aF0.0
aF0.0
aF0.0
aF0.0
aF-0.7
aI0
aI0
aI5
aV1626155,1610612745
p1656
aa(lp1657
I201619
aVSasha Kaun
p1658
aI1610612739
aVCLE
p1659
aF31.0
aI25
aI18
aI7
aF0.72
aF3.8
aF0.4
aF0.7
aF0.529
aF0.0
aF0.0
aF0.0
aF0.2
aF0.4
aF0.455
aF0.5
aF0.6
aF1.0
aF0.1
aF0.3
aF0.2
aF0.2
aF0.2
aF0.4
aF0.2
aF0.9
aF-0.2
aI0
aI0
aI5
aV201619,1610612739
p1660
aa(lp1661
I2756
aVSasha Vujacic
p1662
aI1610612752
aVNYK
p1663
aF32.0
aI61
aI22
aI39
aF0.361
aF14.9
aF1.7
aF4.5
aF0.383
aF0.9
aF2.3
aF0.364
aF0.5
aF0.6
aF0.821
aF0.4
aF2.0
aF2.4
aF1.4
aF0.7
aF0.6
aF0.1
aF0.1
aF1.4
aF0.9
aF4.9
aF-0.7
aI0
aI0
aI5
aV2756,1610612752
p1664
aa(lp1665
I203930
aVSean Kilpatrick
p1666
aI1610612751
aVBKN
p1667
aF26.0
aI31
aI7
aI24
aF0.226
aF19.9
aF4.0
aF8.7
aF0.456
aF1.3
aF3.7
aF0.342
aF1.9
aF2.2
aF0.896
aF0.4
aF1.4
aF1.8
aF0.9
aF1.0
aF0.4
aF0.1
aF0.5
aF1.2
aF1.7
aF11.1
aF-4.7
aI0
aI0
aI5
aV203930,1610612751
p1668
aa(lp1669
I201586
aVSerge Ibaka
p1670
aI1610612760
aVOKC
p1671
aF26.0
aI78
aI54
aI24
aF0.692
aF32.1
aF5.3
aF11.1
aF0.479
aF0.8
aF2.4
aF0.326
aF1.2
aF1.6
aF0.752
aF1.8
aF5.0
aF6.8
aF0.8
aF1.4
aF0.5
aF1.9
aF0.3
aF2.7
aF1.3
aF12.6
aF6.8
aI9
aI0
aI5
aV201586,1610612760
p1672
aa(lp1673
I203508
aVSergey Karasev
p1674
aI1610612751
aVBKN
p1675
aF22.0
aI40
aI9
aI31
aF0.225
aF10.0
aF0.8
aF1.9
aF0.405
aF0.3
aF0.9
aF0.297
aF0.7
aF0.7
aF0.929
aF0.2
aF1.3
aF1.5
aF0.9
aF0.6
aF0.2
aF0.1
aF0.1
aF0.7
aF0.8
aF2.4
aF-0.2
aI0
aI0
aI5
aV203508,1610612751
p1676
aa(lp1677
I203552
aVSeth Curry
p1678
aI1610612758
aVSAC
p1679
aF25.0
aI44
aI17
aI27
aF0.386
aF15.7
aF2.3
aF5.1
aF0.455
aF1.1
aF2.5
aF0.45
aF1.0
aF1.2
aF0.833
aF0.2
aF1.2
aF1.4
aF1.5
aF0.8
aF0.5
aF0.1
aF0.3
aF0.9
aF0.9
aF6.8
aF-0.9
aI1
aI0
aI5
aV203552,1610612758
p1680
aa(lp1681
I203498
aVShabazz Muhammad
p1682
aI1610612750
aVMIN
p1683
aF23.0
aI82
aI29
aI53
aF0.354
aF20.5
aF3.9
aF8.3
aF0.465
aF0.5
aF1.9
aF0.289
aF2.3
aF3.0
aF0.764
aF1.2
aF2.0
aF3.3
aF0.6
aF0.9
aF0.3
aF0.1
aF0.7
aF1.1
aF2.2
aF10.5
aF-3.3
aI0
aI0
aI5
aV203498,1610612750
p1684
aa(lp1685
I203894
aVShabazz Napier
p1686
aI1610612753
aVORL
p1687
aF24.0
aI55
aI23
aI32
aF0.418
aF10.9
aF1.2
aF3.7
aF0.338
aF0.6
aF1.9
aF0.327
aF0.6
aF0.8
aF0.733
aF0.2
aF0.8
aF1.0
aF1.8
aF0.8
aF0.4
aF0.0
aF0.1
aF0.7
aF0.9
aF3.7
aF-1.0
aI0
aI0
aI5
aV203894,1610612753
p1688
aa(lp1689
I203499
aVShane Larkin
p1690
aI1610612751
aVBKN
p1691
aF23.0
aI78
aI20
aI58
aF0.256
aF22.4
aF2.8
aF6.4
aF0.442
aF0.5
aF1.4
aF0.361
aF1.1
aF1.4
aF0.776
aF0.4
aF1.9
aF2.3
aF4.4
aF1.9
aF1.2
aF0.2
aF0.4
aF1.6
aF1.6
aF7.3
aF-4.4
aI0
aI0
aI5
aV203499,1610612751
p1692
aa(lp1693
I2733
aVShaun Livingston
p1694
aI1610612744
aVGSW
p1695
aF30.0
aI78
aI69
aI9
aF0.885
aF19.5
aF2.6
aF4.9
aF0.536
aF0.0
aF0.2
aF0.167
aF1.0
aF1.2
aF0.86
aF0.5
aF1.6
aF2.2
aF3.0
aF1.0
aF0.7
aF0.3
aF0.2
aF1.8
aF1.1
aF6.3
aF2.7
aI0
aI0
aI5
aV2733,1610612744
p1696
aa(lp1697
I203963
aVShayne Whittington
p1698
aI1610612754
aVIND
p1699
aF25.0
aI7
aI4
aI3
aF0.571
aF5.8
aF0.7
aF1.6
aF0.455
aF0.0
aF0.3
aF0.0
aF0.1
aF0.3
aF0.5
aF0.7
aF1.0
aF1.7
aF0.4
aF0.7
aF0.1
aF0.1
aF0.0
aF1.0
aF0.3
aF1.6
aF-0.9
aI0
aI0
aI5
aV203963,1610612754
p1700
aa(lp1701
I202714
aVShelvin Mack
p1702
aI1610612762
aVUTA
p1703
aF26.0
aI52
aI27
aI25
aF0.519
aF20.3
aF3.5
aF8.0
aF0.439
aF0.8
aF2.4
aF0.312
aF0.9
aF1.2
aF0.738
aF0.3
aF2.2
aF2.5
aF3.6
aF1.8
aF0.7
aF0.1
aF0.4
aF1.4
aF1.3
aF8.6
aF1.9
aI3
aI0
aI5
aV202714,1610612762
p1704
aa(lp1705
I203524
aVSolomon Hill
p1706
aI1610612754
aVIND
p1707
aF25.0
aI59
aI31
aI28
aF0.525
aF14.7
aF1.6
aF3.5
aF0.447
aF0.4
aF1.3
aF0.324
aF0.6
aF0.7
aF0.857
aF0.7
aF2.2
aF2.8
aF1.0
aF0.6
aF0.6
aF0.2
aF0.2
aF1.2
aF0.6
aF4.2
aF0.8
aI1
aI0
aI5
aV203524,1610612754
p1708
aa(lp1709
I201603
aVSonny Weems
p1710
aI1610612756
aVPHX
p1711
aF29.0
aI43
aI6
aI37
aF0.14
aF11.6
aF1.0
aF2.6
aF0.382
aF0.3
aF1.0
aF0.366
aF0.2
aF0.3
aF0.533
aF0.2
aF1.1
aF1.2
aF1.1
aF1.0
aF0.2
aF0.0
aF0.2
aF1.1
aF0.4
aF2.5
aF-2.3
aI0
aI0
aI5
aV201603,1610612756
p1712
aa(lp1713
I203915
aVSpencer Dinwiddie
p1714
aI1610612741
aVCHI
p1715
aF23.0
aI12
aI5
aI7
aF0.417
aF13.3
aF1.6
aF4.5
aF0.352
aF0.1
aF0.8
aF0.1
aF1.6
aF2.8
aF0.576
aF0.3
aF1.1
aF1.4
aF1.8
aF0.6
aF0.3
aF0.0
aF0.3
aF1.7
aF2.6
aF4.8
aF-4.7
aI0
aI0
aI5
aV203915,1610612741
p1716
aa(lp1717
I201150
aVSpencer Hawes
p1718
aI1610612766
aVCHA
p1719
aF28.0
aI57
aI30
aI27
aF0.526
aF18.2
aF2.2
aF5.4
aF0.405
aF0.7
aF1.8
aF0.373
aF0.9
aF1.1
aF0.831
aF0.9
aF3.4
aF4.3
aF1.9
aF1.0
aF0.4
aF0.5
aF0.2
aF1.9
aF1.1
aF6.0
aF0.8
aI1
aI0
aI5
aV201150,1610612766
p1720
aa(lp1721
I1626169
aVStanley Johnson
p1722
aI1610612765
aVDET
p1723
aF20.0
aI73
aI37
aI36
aF0.507
aF23.1
aF3.1
aF8.2
aF0.375
aF0.9
aF2.8
aF0.307
aF1.1
aF1.4
aF0.784
aF0.8
aF3.4
aF4.2
aF1.6
aF1.6
aF0.8
aF0.2
aF0.5
aF2.4
aF1.1
aF8.1
aF-1.9
aI3
aI0
aI5
aV1626169,1610612765
p1724
aa(lp1725
I201939
aVStephen Curry
p1726
aI1610612744
aVGSW
p1727
aF28.0
aI79
aI71
aI8
aF0.899
aF34.2
aF10.2
aF20.2
aF0.504
aF5.1
aF11.2
aF0.454
aF4.6
aF5.1
aF0.908
aF0.9
aF4.6
aF5.4
aF6.7
aF3.3
aF2.1
aF0.2
aF0.7
aF2.0
aF4.5
aF30.1
aF12.9
aI15
aI2
aI5
aV201939,1610612744
p1728
aa(lp1729
I2581
aVSteve Blake
p1730
aI1610612765
aVDET
p1731
aF36.0
aI58
aI34
aI24
aF0.586
aF17.0
aF1.6
aF4.1
aF0.388
aF0.9
aF2.6
aF0.344
aF0.3
aF0.3
aF0.8
aF0.2
aF1.4
aF1.5
aF3.4
aF1.4
aF0.4
aF0.1
aF0.2
aF1.2
aF0.8
aF4.4
aF-1.0
aI0
aI0
aI5
aV2581,1610612765
p1732
aa(lp1733
I200779
aVSteve Novak
p1734
aI1610612749
aVMIL
p1735
aF33.0
aI10
aI8
aI2
aF0.8
aF4.4
aF0.8
aF1.8
aF0.444
aF0.7
aF1.5
aF0.467
aF0.1
aF0.1
aF1.0
aF0.0
aF0.5
aF0.5
aF0.0
aF0.1
aF0.0
aF0.0
aF0.0
aF0.3
aF0.2
aF2.4
aF0.7
aI0
aI0
aI5
aV200779,1610612749
p1736
aa(lp1737
I203500
aVSteven Adams
p1738
aI1610612760
aVOKC
p1739
aF22.0
aI80
aI54
aI26
aF0.675
aF25.2
aF3.3
aF5.3
aF0.613
aF0.0
aF0.0
aF0.0
aF1.4
aF2.5
aF0.582
aF2.7
aF3.9
aF6.7
aF0.8
aF1.1
aF0.5
aF1.1
aF0.4
aF2.8
aF2.4
aF8.0
aF6.0
aI6
aI0
aI5
aV203500,1610612760
p1740
aa(lp1741
I204456
aVTJ McConnell
p1742
aI1610612755
aVPHI
p1743
aF24.0
aI81
aI10
aI71
aF0.123
aF19.8
aF2.7
aF5.7
aF0.47
aF0.4
aF1.1
aF0.348
aF0.3
aF0.5
aF0.634
aF0.5
aF2.6
aF3.1
aF4.5
aF1.7
aF1.2
aF0.1
aF0.3
aF1.4
aF0.9
aF6.1
aF-3.4
aI0
aI0
aI5
aV204456,1610612755
p1744
aa(lp1745
I203933
aVTJ Warren
p1746
aI1610612756
aVPHX
p1747
aF22.0
aI47
aI14
aI33
aF0.298
aF22.8
aF4.7
aF9.4
aF0.501
aF0.6
aF1.5
aF0.4
aF1.0
aF1.4
aF0.703
aF1.2
aF1.9
aF3.1
aF0.9
aF0.7
aF0.8
aF0.3
aF0.3
aF2.0
aF1.4
aF11.0
aF-2.4
aI1
aI0
aI5
aV203933,1610612756
p1748
aa(lp1749
I201959
aVTaj Gibson
p1750
aI1610612741
aVCHI
p1751
aF31.0
aI73
aI37
aI36
aF0.507
aF26.5
aF3.6
aF6.8
aF0.526
aF0.0
aF0.0
aF0.0
aF1.4
aF2.0
aF0.692
aF2.8
aF4.1
aF6.9
aF1.5
aF1.1
aF0.6
aF1.1
aF0.7
aF2.5
aF2.2
aF8.6
aF-2.1
aI7
aI0
aI5
aV201959,1610612741
p1752
aa(lp1753
I204028
aVTarik Black
p1754
aI1610612747
aVLAL
p1755
aF24.0
aI39
aI6
aI33
aF0.154
aF12.7
aF1.5
aF2.7
aF0.548
aF0.0
aF0.0
aF0.0
aF0.5
aF1.2
aF0.422
aF1.1
aF2.9
aF4.0
aF0.4
aF0.6
aF0.4
aF0.5
aF0.2
aF2.0
aF1.0
aF3.4
aF0.5
aI0
aI0
aI5
aV204028,1610612747
p1756
aa(lp1757
I2419
aVTayshaun Prince
p1758
aI1610612750
aVMIN
p1759
aF36.0
aI77
aI27
aI50
aF0.351
aF19.0
aF1.3
aF3.0
aF0.445
aF0.1
aF0.3
aF0.174
aF0.2
aF0.2
aF0.684
aF0.4
aF1.5
aF1.9
aF1.0
aF0.4
aF0.5
aF0.2
aF0.1
aF0.8
aF0.4
aF2.9
aF-1.7
aI0
aI0
aI5
aV2419,1610612750
p1760
aa(lp1761
I203093
aVTerrence Jones
p1762
aI1610612745
aVHOU
p1763
aF24.0
aI50
aI24
aI26
aF0.48
aF20.9
aF3.3
aF7.3
aF0.452
aF0.5
aF1.6
aF0.316
aF1.5
aF2.3
aF0.664
aF1.2
aF3.0
aF4.2
aF0.8
aF1.0
aF0.5
aF0.8
aF0.8
aF1.7
aF1.6
aF8.7
aF-4.8
aI0
aI0
aI5
aV203093,1610612745
p1764
aa(lp1765
I203082
aVTerrence Ross
p1766
aI1610612761
aVTOR
p1767
aF25.0
aI73
aI53
aI20
aF0.726
aF23.9
aF3.7
aF8.6
aF0.431
aF1.8
aF4.6
aF0.388
aF0.7
aF0.8
aF0.79
aF0.3
aF2.2
aF2.5
aF0.8
aF0.6
aF0.7
aF0.3
aF0.2
aF1.6
aF0.6
aF9.9
aF3.4
aI1
aI0
aI5
aV203082,1610612761
p1768
aa(lp1769
I1626179
aVTerry Rozier
p1770
aI1610612738
aVBOS
p1771
aF22.0
aI39
aI24
aI15
aF0.615
aF8.0
aF0.7
aF2.7
aF0.274
aF0.2
aF0.7
aF0.222
aF0.2
aF0.3
aF0.8
aF0.6
aF1.0
aF1.6
aF0.9
aF0.5
aF0.2
aF0.0
aF0.1
aF0.6
aF0.4
aF1.8
aF-1.2
aI0
aI0
aI5
aV1626179,1610612738
p1772
aa(lp1773
I200757
aVThabo Sefolosha
p1774
aI1610612737
aVATL
p1775
aF32.0
aI75
aI42
aI33
aF0.56
aF23.4
aF2.5
aF4.9
aF0.507
aF0.6
aF1.6
aF0.341
aF0.8
aF1.3
aF0.626
aF0.7
aF3.8
aF4.5
aF1.4
aF0.9
aF1.1
aF0.5
aF0.3
aF1.5
aF1.1
aF6.4
aF-0.3
aI1
aI0
aI5
aV200757,1610612737
p1776
aa(lp1777
I201152
aVThaddeus Young
p1778
aI1610612751
aVBKN
p1779
aF28.0
aI73
aI21
aI52
aF0.288
aF33.0
aF6.8
aF13.2
aF0.514
aF0.1
aF0.4
aF0.233
aF1.4
aF2.2
aF0.644
aF2.4
aF6.6
aF9.0
aF1.9
aF1.9
aF1.5
aF0.5
aF1.1
aF2.5
aF2.2
aF15.1
aF-3.2
aI28
aI0
aI5
aV201152,1610612751
p1780
aa(lp1781
I203648
aVThanasis Antetokounmpo
p1782
aI1610612752
aVNYK
p1783
aF23.0
aI2
aI1
aI1
aF0.5
aF3.1
aF1.5
aF2.0
aF0.75
aF0.0
aF0.5
aF0.0
aF0.0
aF0.0
aF0.0
aF0.0
aF0.5
aF0.5
aF0.0
aF0.0
aF0.0
aF0.0
aF0.0
aF1.0
aF0.0
aF3.0
aF-3.0
aI0
aI0
aI5
aV203648,1610612752
p1784
aa(lp1785
I203080
aVThomas Robinson
p1786
aI1610612751
aVBKN
p1787
aF25.0
aI71
aI16
aI55
aF0.225
aF12.9
aF1.8
aF4.1
aF0.447
aF0.0
aF0.0
aF0.0
aF0.7
aF1.5
aF0.431
aF1.9
aF3.1
aF5.1
aF0.6
aF1.0
aF0.5
aF0.5
aF0.4
aF1.6
aF1.3
aF4.3
aF-3.9
aI8
aI0
aI5
aV203080,1610612751
p1788
aa(lp1789
I201168
aVTiago Splitter
p1790
aI1610612737
aVATL
p1791
aF31.0
aI36
aI21
aI15
aF0.583
aF16.1
aF2.3
aF4.3
aF0.523
aF0.0
aF0.1
aF0.0
aF1.1
aF1.3
aF0.813
aF1.3
aF2.1
aF3.3
aF0.8
aF0.7
aF0.6
aF0.3
aF0.5
aF2.0
aF1.3
aF5.6
aF2.8
aI0
aI0
aI5
aV201168,1610612737
p1792
aa(lp1793
I202353
aVTibor Pleiss
p1794
aI1610612762
aVUTA
p1795
aF26.0
aI12
aI7
aI5
aF0.583
aF6.8
aF0.9
aF2.1
aF0.44
aF0.0
aF0.2
aF0.0
aF0.2
aF0.2
aF1.0
aF0.5
aF0.8
aF1.3
aF0.2
aF0.7
aF0.1
aF0.2
aF0.3
aF1.6
aF0.1
aF2.0
aF-1.3
aI0
aI0
aI5
aV202353,1610612762
p1796
aa(lp1797
I1495
aVTim Duncan
p1798
aI1610612759
aVSAS
p1799
aF40.0
aI61
aI50
aI11
aF0.82
aF25.2
aF3.5
aF7.2
aF0.488
aF0.0
aF0.0
aF0.0
aF1.5
aF2.1
aF0.702
aF1.9
aF5.4
aF7.3
aF2.7
aF1.5
aF0.8
aF1.3
aF0.6
aF2.0
aF1.8
aF8.6
aF7.0
aI11
aI0
aI5
aV1495,1610612759
p1800
aa(lp1801
I204025
aVTim Frazier
p1802
aI1610612740
aVNOP
p1803
aF25.0
aI51
aI25
aI26
aF0.49
aF14.5
aF1.9
aF4.5
aF0.419
aF0.3
aF0.9
aF0.333
aF1.0
aF1.5
aF0.716
aF0.5
aF1.6
aF2.2
aF3.2
aF1.3
aF0.6
aF0.0
aF0.4
aF1.4
aF1.6
aF5.1
aF-0.6
aI2
aI0
aI5
aV204025,1610612740
p1804
aa(lp1805
I203501
aVTim Hardaway Jr.
p1806
aI1610612737
aVATL
p1807
aF24.0
aI51
aI29
aI22
aF0.569
aF16.9
aF2.2
aF5.2
aF0.43
aF0.9
aF2.8
aF0.336
aF1.0
aF1.1
aF0.893
aF0.1
aF1.5
aF1.7
aF1.0
aF0.5
aF0.4
aF0.1
aF0.3
aF0.9
aF0.9
aF6.4
aF2.0
aI0
aI0
aI5
aV203501,1610612737
p1808
aa(lp1809
I202389
aVTimofey Mozgov
p1810
aI1610612739
aVCLE
p1811
aF29.0
aI76
aI52
aI24
aF0.684
aF17.4
aF2.7
aF4.7
aF0.565
aF0.0
aF0.1
aF0.143
aF0.9
aF1.3
aF0.716
aF1.4
aF3.0
aF4.4
aF0.4
aF0.9
aF0.3
aF0.8
aF0.4
aF2.1
aF1.5
aF6.3
aF0.0
aI2
aI0
aI5
aV202389,1610612739
p1812
aa(lp1813
I202699
aVTobias Harris
p1814
aI1610612765
aVDET
p1815
aF23.0
aI76
aI37
aI39
aF0.487
aF33.1
aF5.5
aF11.7
aF0.469
aF1.1
aF3.1
aF0.335
aF2.7
aF3.2
aF0.831
aF1.3
aF5.4
aF6.7
aF2.2
aF1.4
aF0.9
aF0.5
aF0.9
aF2.0
aF2.5
aF14.7
aF0.3
aI12
aI0
aI5
aV202699,1610612765
p1816
aa(lp1817
I201962
aVToney Douglas
p1818
aI1610612740
aVNOP
p1819
aF30.0
aI61
aI22
aI39
aF0.361
aF20.7
aF3.0
aF7.3
aF0.411
aF1.3
aF3.3
aF0.399
aF1.4
aF1.6
aF0.848
aF0.4
aF1.9
aF2.3
aF2.6
aF1.0
aF1.1
aF0.1
aF0.5
aF2.1
aF1.6
aF8.7
aF-2.3
aI1
aI0
aI5
aV201962,1610612740
p1820
aa(lp1821
I2754
aVTony Allen
p1822
aI1610612763
aVMEM
p1823
aF34.0
aI64
aI34
aI30
aF0.531
aF25.3
aF3.4
aF7.3
aF0.458
aF0.2
aF0.7
aF0.357
aF1.4
aF2.2
aF0.652
aF1.6
aF3.0
aF4.6
aF1.1
aF1.2
aF1.7
aF0.3
aF0.9
aF2.7
aF1.6
aF8.4
aF-1.4
aI1
aI0
aI5
aV2754,1610612763
p1824
aa(lp1825
I2225
aVTony Parker
p1826
aI1610612759
aVSAS
p1827
aF34.0
aI72
aI59
aI13
aF0.819
aF27.5
aF4.9
aF9.9
aF0.493
aF0.4
aF0.9
aF0.415
aF1.8
aF2.4
aF0.76
aF0.2
aF2.2
aF2.4
aF5.3
aF1.8
aF0.8
aF0.2
aF0.5
aF1.6
aF2.0
aF11.9
aF5.7
aI3
aI0
aI5
aV2225,1610612759
p1828
aa(lp1829
I203503
aVTony Snell
p1830
aI1610612741
aVCHI
p1831
aF24.0
aI64
aI33
aI31
aF0.516
aF20.3
aF2.0
aF5.3
aF0.372
aF0.9
aF2.4
aF0.361
aF0.5
aF0.5
aF0.909
aF0.3
aF2.8
aF3.1
aF1.0
aF0.8
aF0.3
aF0.3
aF0.4
aF1.6
aF0.6
aF5.3
aF1.5
aI1
aI0
aI5
aV203503,1610612741
p1832
aa(lp1833
I203100
aVTony Wroten
p1834
aI1610612752
aVNYK
p1835
aF23.0
aI8
aI0
aI8
aF0.0
aF18.0
aF2.8
aF8.1
aF0.338
aF0.4
aF2.1
aF0.176
aF2.5
aF4.6
aF0.541
aF0.3
aF2.4
aF2.6
aF2.5
aF3.6
aF0.4
aF0.0
aF1.4
aF1.4
aF3.0
aF8.4
aF-8.5
aI0
aI0
aI5
aV203100,1610612752
p1836
aa(lp1837
I2772
aVTrevor Ariza
p1838
aI1610612745
aVHOU
p1839
aF31.0
aI81
aI40
aI41
aF0.494
aF35.3
aF4.4
aF10.6
aF0.416
aF2.3
aF6.2
aF0.371
aF1.6
aF2.0
aF0.783
aF0.8
aF3.7
aF4.5
aF2.3
aF1.4
aF2.0
aF0.3
aF0.5
aF2.2
aF1.4
aF12.7
aF0.5
aI1
aI0
aI5
aV2772,1610612745
p1840
aa(lp1841
I202344
aVTrevor Booker
p1842
aI1610612762
aVUTA
p1843
aF28.0
aI79
aI39
aI40
aF0.494
aF20.7
aF2.4
aF4.9
aF0.49
aF0.2
aF0.5
aF0.293
aF0.9
aF1.3
aF0.67
aF2.1
aF3.6
aF5.7
aF1.1
aF1.0
aF0.7
aF0.5
aF0.2
aF2.1
aF1.1
aF5.9
aF0.8
aI4
aI0
aI5
aV202344,1610612762
p1844
aa(lp1845
I203504
aVTrey Burke
p1846
aI1610612762
aVUTA
p1847
aF23.0
aI64
aI31
aI33
aF0.484
aF21.3
aF4.1
aF9.9
aF0.413
aF1.4
aF4.0
aF0.344
aF1.0
aF1.3
aF0.817
aF0.3
aF1.5
aF1.8
aF2.3
aF1.3
aF0.5
aF0.1
aF0.5
aF1.3
aF1.2
aF10.6
aF0.0
aI0
aI0
aI5
aV203504,1610612762
p1848
aa(lp1849
I1626168
aVTrey Lyles
p1850
aI1610612762
aVUTA
p1851
aF20.0
aI80
aI38
aI42
aF0.475
aF17.3
aF2.4
aF5.5
aF0.438
aF0.6
aF1.6
aF0.383
aF0.7
aF1.0
aF0.695
aF0.7
aF3.0
aF3.7
aF0.7
aF0.8
aF0.3
aF0.2
aF0.2
aF1.4
aF1.0
aF6.1
aF-0.6
aI2
aI0
aI5
aV1626168,1610612762
p1852
aa(lp1853
I202684
aVTristan Thompson
p1854
aI1610612739
aVCLE
p1855
aF25.0
aI82
aI57
aI25
aF0.695
aF27.7
aF3.0
aF5.1
aF0.588
aF0.0
aF0.0
aF0.0
aF1.8
aF3.0
aF0.616
aF3.3
aF5.7
aF9.0
aF0.8
aF0.7
aF0.5
aF0.6
aF0.5
aF2.5
aF2.7
aF7.8
aF4.4
aI23
aI0
aI5
aV202684,1610612739
p1856
aa(lp1857
I203584
aVTroy Daniels
p1858
aI1610612766
aVCHA
p1859
aF24.0
aI43
aI25
aI18
aF0.581
aF11.1
aF2.1
aF4.3
aF0.476
aF1.4
aF2.8
aF0.484
aF0.1
aF0.2
aF0.556
aF0.2
aF1.2
aF1.3
aF0.5
aF0.6
aF0.3
aF0.1
aF0.1
aF0.9
aF0.3
aF5.6
aF-1.0
aI0
aI0
aI5
aV203584,1610612766
p1860
aa(lp1861
I201951
aVTy Lawson
p1862
aI1610612754
aVIND
p1863
aF28.0
aI66
aI31
aI35
aF0.47
aF21.4
aF2.1
aF5.4
aF0.393
aF0.5
aF1.6
aF0.333
aF0.9
aF1.3
aF0.686
aF0.4
aF1.4
aF1.8
aF3.6
aF1.4
aF0.8
aF0.1
aF0.4
aF1.3
aF1.3
aF5.7
aF-2.4
aI1
aI0
aI5
aV201951,1610612754
p1864
aa(lp1865
I203898
aVTyler Ennis
p1866
aI1610612749
aVMIL
p1867
aF21.0
aI46
aI17
aI29
aF0.37
aF14.2
aF1.8
aF4.1
aF0.449
aF0.3
aF0.8
aF0.333
aF0.5
aF0.7
aF0.735
aF0.3
aF1.3
aF1.6
aF2.1
aF1.0
aF0.5
aF0.0
aF0.4
aF1.4
aF0.8
aF4.5
aF-1.5
aI0
aI0
aI5
aV203898,1610612749
p1868
aa(lp1869
I201946
aVTyler Hansbrough
p1870
aI1610612766
aVCHA
p1871
aF30.0
aI44
aI28
aI16
aF0.636
aF7.8
aF0.7
aF1.6
aF0.451
aF0.0
aF0.1
aF0.667
aF0.9
aF1.5
aF0.585
aF0.9
aF1.1
aF2.0
aF0.2
aF0.3
aF0.3
aF0.2
aF0.3
aF1.3
aF1.2
aF2.4
aF-0.8
aI1
aI0
aI5
aV201946,1610612766
p1872
aa(lp1873
I204020
aVTyler Johnson
p1874
aI1610612748
aVMIA
p1875
aF24.0
aI36
aI19
aI17
aF0.528
aF24.0
aF3.3
aF6.8
aF0.486
aF0.8
aF2.0
aF0.38
aF1.4
aF1.8
aF0.797
aF0.8
aF2.3
aF3.0
aF2.2
aF1.3
aF0.7
aF0.4
aF0.6
aF1.8
aF1.8
aF8.7
aF0.3
aI0
aI0
aI5
aV204020,1610612748
p1876
aa(lp1877
I203092
aVTyler Zeller
p1878
aI1610612738
aVBOS
p1879
aF26.0
aI60
aI38
aI22
aF0.633
aF11.8
aF2.3
aF4.8
aF0.476
aF0.0
aF0.0
aF0.0
aF1.5
aF1.8
aF0.815
aF1.0
aF1.9
aF3.0
aF0.5
aF0.8
aF0.2
aF0.4
aF0.3
aF1.6
aF1.6
aF6.1
aF-1.1
aI1
aI0
aI5
aV203092,1610612738
p1880
aa(lp1881
I201936
aVTyreke Evans
p1882
aI1610612740
aVNOP
p1883
aF26.0
aI25
aI11
aI14
aF0.44
aF30.6
aF5.4
aF12.6
aF0.433
aF1.3
aF3.4
aF0.388
aF3.0
aF3.7
aF0.796
aF0.8
aF4.4
aF5.2
aF6.6
aF2.9
aF1.3
aF0.3
aF0.9
aF2.6
aF3.0
aF15.2
aF-0.6
aI6
aI0
aI5
aV201936,1610612740
p1884
aa(lp1885
I2199
aVTyson Chandler
p1886
aI1610612756
aVPHX
p1887
aF33.0
aI66
aI18
aI48
aF0.273
aF24.5
aF2.8
aF4.8
aF0.583
aF0.0
aF0.0
aF0.0
aF1.6
aF2.6
aF0.62
aF2.7
aF6.1
aF8.7
aF1.0
aF1.4
aF0.5
aF0.7
aF0.3
aF2.2
aF2.3
aF7.2
aF-6.0
aI20
aI0
aI5
aV2199,1610612756
p1888
aa(lp1889
I1626145
aVTyus Jones
p1890
aI1610612750
aVMIN
p1891
aF20.0
aI37
aI13
aI24
aF0.351
aF15.5
aF1.5
aF4.2
aF0.359
aF0.4
aF1.4
aF0.302
aF0.8
aF1.1
aF0.718
aF0.2
aF1.1
aF1.3
aF2.9
aF0.9
aF0.8
aF0.1
aF0.3
aF0.9
aF0.9
aF4.2
aF-3.6
aI0
aI0
aI5
aV1626145,1610612750
p1892
aa(lp1893
I2617
aVUdonis Haslem
p1894
aI1610612748
aVMIA
p1895
aF36.0
aI37
aI25
aI12
aF0.676
aF7.0
aF0.6
aF1.6
aF0.377
aF0.0
aF0.2
aF0.111
aF0.3
aF0.4
aF0.786
aF0.3
aF1.8
aF2.0
aF0.4
aF0.1
aF0.1
aF0.1
aF0.0
aF0.7
aF0.6
aF1.6
aF-0.5
aI0
aI0
aI5
aV2617,1610612748
p1896
aa(lp1897
I203506
aVVictor Oladipo
p1898
aI1610612753
aVORL
p1899
aF24.0
aI72
aI32
aI40
aF0.444
aF33.0
aF5.9
aF13.5
aF0.438
aF1.4
aF3.9
aF0.348
aF2.8
aF3.4
aF0.83
aF0.7
aF4.1
aF4.8
aF3.9
aF2.1
aF1.6
aF0.8
aF0.9
aF2.4
aF2.9
aF16.0
aF-0.3
aI3
aI1
aI5
aV203506,1610612753
p1900
aa(lp1901
I1713
aVVince Carter
p1902
aI1610612763
aVMEM
p1903
aF39.0
aI60
aI33
aI27
aF0.55
aF16.8
aF2.2
aF5.7
aF0.388
aF1.0
aF2.8
aF0.349
aF1.2
aF1.4
aF0.833
aF0.5
aF1.9
aF2.4
aF0.9
aF0.6
aF0.6
aF0.3
aF0.2
aF1.7
aF1.3
aF6.6
aF-0.6
aI0
aI0
aI5
aV1713,1610612763
p1904
aa(lp1905
I204002
aVWalter Tavares
p1906
aI1610612737
aVATL
p1907
aF24.0
aI11
aI7
aI4
aF0.636
aF6.6
aF1.0
aF1.7
aF0.579
aF0.0
aF0.0
aF0.0
aF0.3
aF0.7
aF0.375
aF0.6
aF1.3
aF1.9
aF0.3
aF0.5
aF0.1
aF0.5
aF0.2
aF0.7
aF0.4
aF2.3
aF-0.9
aI0
aI0
aI5
aV204002,1610612737
p1908
aa(lp1909
I201961
aVWayne Ellington
p1910
aI1610612751
aVBKN
p1911
aF28.0
aI76
aI18
aI58
aF0.237
aF21.3
aF2.9
aF7.4
aF0.389
aF1.3
aF3.5
aF0.358
aF0.7
aF0.8
aF0.857
aF0.3
aF2.0
aF2.3
aF1.1
aF0.6
aF0.6
aF0.1
aF0.3
aF1.1
aF0.6
aF7.7
aF-4.2
aI0
aI0
aI5
aV201961,1610612751
p1912
aa(lp1913
I202325
aVWesley Johnson
p1914
aI1610612746
aVLAC
p1915
aF28.0
aI80
aI51
aI29
aF0.638
aF20.8
aF2.6
aF6.4
aF0.404
aF1.3
aF3.9
aF0.333
aF0.4
aF0.6
aF0.652
aF0.5
aF2.6
aF3.1
aF0.6
aF0.7
aF1.1
aF0.7
aF0.1
aF2.2
aF0.5
aF6.9
aF1.5
aI0
aI0
aI5
aV202325,1610612746
p1916
aa(lp1917
I202083
aVWesley Matthews
p1918
aI1610612742
aVDAL
p1919
aF29.0
aI78
aI40
aI38
aF0.513
aF33.9
aF4.2
aF10.9
aF0.388
aF2.4
aF6.7
aF0.36
aF1.6
aF1.9
aF0.863
aF0.3
aF2.7
aF3.1
aF1.9
aF1.0
aF1.0
aF0.2
aF0.5
aF2.3
aF1.9
aF12.5
aF1.3
aI0
aI0
aI5
aV202083,1610612742
p1920
aa(lp1921
I203115
aVWill Barton
p1922
aI1610612743
aVDEN
p1923
aF25.0
aI82
aI33
aI49
aF0.402
aF28.7
aF5.2
aF12.0
aF0.432
aF1.4
aF4.0
aF0.345
aF2.6
aF3.3
aF0.806
aF0.7
aF5.1
aF5.8
aF2.5
aF1.7
aF0.9
aF0.5
aF0.7
aF1.8
aF2.5
aF14.4
aF-1.6
aI6
aI0
aI5
aV203115,1610612743
p1924
aa(lp1925
I1626161
aVWillie Cauley-Stein
p1926
aI1610612758
aVSAC
p1927
aF22.0
aI66
aI26
aI40
aF0.394
aF21.4
aF2.9
aF5.1
aF0.563
aF0.0
aF0.0
aF0.0
aF1.2
aF1.9
aF0.648
aF2.0
aF3.3
aF5.3
aF0.6
aF0.7
aF0.7
aF1.0
aF0.3
aF2.2
aF1.3
aF7.0
aF-1.2
aI3
aI0
aI5
aV1626161,1610612758
p1928
aa(lp1929
I203186
aVWillie Reed
p1930
aI1610612751
aVBKN
p1931
aF26.0
aI39
aI8
aI31
aF0.205
aF10.9
aF1.9
aF3.4
aF0.571
aF0.0
aF0.0
aF0.0
aF0.8
aF1.4
aF0.545
aF1.3
aF1.9
aF3.1
aF0.3
aF0.4
aF0.2
aF0.8
aF0.2
aF1.2
aF1.6
aF4.7
aF-2.1
aI0
aI0
aI5
aV203186,1610612751
p1932
aa(lp1933
I204098
aVXavier Munford
p1934
aI1610612763
aVMEM
p1935
aF24.0
aI14
aI3
aI11
aF0.214
aF17.4
aF2.3
aF5.5
aF0.416
aF0.6
aF1.6
aF0.391
aF0.5
aF1.0
aF0.5
aF0.2
aF2.0
aF2.2
aF1.6
aF1.1
aF0.9
aF0.2
aF0.5
aF1.8
aF1.1
aF5.7
aF-1.8
aI0
aI0
aI5
aV204098,1610612763
p1936
aa(lp1937
I203897
aVZach LaVine
p1938
aI1610612750
aVMIN
p1939
aF21.0
aI82
aI29
aI53
aF0.354
aF28.0
aF5.3
aF11.7
aF0.452
aF1.5
aF3.9
aF0.389
aF2.0
aF2.5
aF0.793
aF0.3
aF2.5
aF2.8
aF3.1
aF1.9
aF0.8
aF0.2
aF0.7
aF2.4
aF1.9
aF14.0
aF-3.6
aI0
aI0
aI5
aV203897,1610612750
p1940
aa(lp1941
I2216
aVZach Randolph
p1942
aI1610612763
aVMEM
p1943
aF34.0
aI68
aI37
aI31
aF0.544
aF29.7
aF6.3
aF13.3
aF0.475
aF0.1
aF0.4
aF0.231
aF2.5
aF3.2
aF0.796
aF2.6
aF5.1
aF7.8
aF2.1
aF1.5
aF0.6
aF0.2
aF1.1
aF2.1
aF2.8
aF15.3
aF-0.2
aI17
aI1
aI5
aV2216,1610612763
p1944
aa(lp1945
I2585
aVZaza Pachulia
p1946
aI1610612742
aVDAL
p1947
aF32.0
aI76
aI40
aI36
aF0.526
aF26.4
aF2.9
aF6.2
aF0.466
aF0.0
aF0.0
aF0.0
aF2.8
aF3.6
aF0.768
aF3.3
aF6.2
aF9.4
aF1.7
aF1.6
aF0.8
aF0.3
aF0.6
aF2.4
aF3.4
aF8.6
aF0.0
aI26
aI0
aI5
aV2585,1610612742
p1948
aasVname
p1949
VLeagueDashPlayerStats
p1950
sasVparameters
p1951
(dp1952
VConference
p1953
NsVPlusMinus
p1954
VN
p1955
sVGameScope
p1956
NsVTeamID
p1957
I0
sVHeight
p1958
NsVLocation
p1959
NsVStarterBench
p1960
NsVShotClockRange
p1961
NsVSeasonType
p1962
VRegular Season
p1963
sVDivision
p1964
NsVSeason
p1965
V2015-16
p1966
sVPaceAdjust
p1967
VN
p1968
sVDraftYear
p1969
NsVDateFrom
p1970
NsVPlayerPosition
p1971
NsVCountry
p1972
NsVVsConference
p1973
NsVOpponentTeamID
p1974
I0
sVDateTo
p1975
NsVGameSegment
p1976
NsVDraftPick
p1977
NsVLastNGames
p1978
I0
sVPlayerExperience
p1979
NsVVsDivision
p1980
NsVLeagueID
p1981
V00
p1982
sVOutcome
p1983
NsVMeasureType
p1984
VBase
p1985
sVWeight
p1986
NsVPORound
p1987
I0
sVPerMode
p1988
VPerGame
p1989
sVSeasonSegment
p1990
NsVPeriod
p1991
I0
sVRank
p1992
VN
p1993
sVMonth
p1994
I0
sVCollege
p1995
Nss.