(dp0
Vresource
p1
Vleaguedashplayerstats
p2
sVresultSets
p3
(lp4
(dp5
Vheaders
p6
(lp7
VPLAYER_ID
p8
aVPLAYER_NAME
p9
aVTEAM_ID
p10
aVTEAM_ABBREVIATION
p11
aVAGE
p12
aVGP
p13
aVW
p14
aVL
p15
aVW_PCT
p16
aVMIN
p17
aVFGM
p18
aVFGA
p19
aVFG_PCT
p20
aVFG3M
p21
aVFG3A
p22
aVFG3_PCT
p23
aVFTM
p24
aVFTA
p25
aVFT_PCT
p26
aVOREB
p27
aVDREB
p28
aVREB
p29
aVAST
p30
aVTOV
p31
aVSTL
p32
aVBLK
p33
aVBLKA
p34
aVPF
p35
aVPFD
p36
aVPTS
p37
aVPLUS_MINUS
p38
aVDD2
p39
aVTD3
p40
aVCFID
p41
aVCFPARAMS
p42
asVrowSet
p43
(lp44
(lp45
I201985
aVA.J. Price
p46
aI1610612764
aVWAS
p47
aF26.0
aI57
aI21
aI36
aF0.368
aF22.4
aF2.8
aF7.2
aF0.39
aF1.2
aF3.5
aF0.35
aF0.9
aF1.1
aF0.79
aF0.4
aF1.6
aF2.0
aF3.6
aF1.1
aF0.6
aF0.1
aF0.2
aF1.3
aF1.2
aF7.7
aF-1.1
aI1
aI0
aI5
aV201985,1610612764
p48
aa(lp49
I201166
aVAaron Brooks
p50
aI1610612745
aVHOU
p51
aF28.0
aI53
aI20
aI33
aF0.377
aF18.8
aF2.7
aF6.0
aF0.453
aF0.9
aF2.5
aF0.373
aF0.8
aF1.0
aF0.769
aF0.2
aF1.3
aF1.5
aF2.2
aF1.3
aF0.6
aF0.2
aF0.6
aF1.8
aF1.3
aF7.1
aF-3.8
aI0
aI0
aI5
aV201166,1610612745
p52
aa(lp53
I201189
aVAaron Gray
p54
aI1610612761
aVTOR
p55
aF28.0
aI42
aI14
aI28
aF0.333
aF12.2
aF1.1
aF2.1
aF0.533
aF0.0
aF0.0
aF0.0
aF0.5
aF1.0
aF0.523
aF1.1
aF2.0
aF3.2
aF0.8
aF0.9
aF0.2
aF0.1
aF0.3
aF2.0
aF0.9
aF2.8
aF-2.1
aI1
aI0
aI5
aV201189,1610612761
p56
aa(lp57
I1733
aVAl Harrington
p58
aI1610612753
aVORL
p59
aF33.0
aI10
aI3
aI7
aF0.3
aF11.9
aF2.0
aF5.7
aF0.351
aF0.8
aF3.0
aF0.267
aF0.3
aF0.4
aF0.75
aF0.6
aF2.1
aF2.7
aF1.0
aF0.7
aF0.4
aF0.1
aF0.1
aF1.8
aF0.3
aF5.1
aF-3.5
aI0
aI0
aI5
aV1733,1610612753
p60
aa(lp61
I201143
aVAl Horford
p62
aI1610612737
aVATL
p63
aF27.0
aI74
aI42
aI32
aF0.568
aF37.3
aF7.8
aF14.3
aF0.543
aF0.0
aF0.1
aF0.5
aF1.8
aF2.8
aF0.644
aF2.6
aF7.6
aF10.2
aF3.2
aF2.0
aF1.1
aF1.1
aF0.5
aF2.2
aF2.6
aF17.4
aF2.2
aI43
aI0
aI5
aV201143,1610612737
p64
aa(lp65
I2744
aVAl Jefferson
p66
aI1610612762
aVUTA
p67
aF28.0
aI78
aI41
aI37
aF0.526
aF33.1
aF7.8
aF15.8
aF0.494
aF0.0
aF0.2
aF0.118
aF2.1
aF2.8
aF0.77
aF2.0
aF7.2
aF9.2
aF2.1
aF1.3
aF1.0
aF1.1
aF1.1
aF2.2
aF2.3
aF17.8
aF-2.0
aI37
aI0
aI5
aV2744,1610612762
p68
aa(lp69
I202329
aVAl-Farouq Aminu
p70
aI1610612740
aVNOH
p71
aF22.0
aI76
aI25
aI51
aF0.329
aF27.2
aF3.0
aF6.2
aF0.475
aF0.1
aF0.3
aF0.211
aF1.3
aF1.8
aF0.737
aF1.8
aF5.9
aF7.7
aF1.4
aF1.5
aF1.2
aF0.7
aF0.5
aF2.0
aF1.3
aF7.3
aF-1.0
aI10
aI0
aI5
aV202329,1610612740
p72
aa(lp73
I101187
aVAlan Anderson
p74
aI1610612761
aVTOR
p75
aF30.0
aI65
aI31
aI34
aF0.477
aF23.0
aF3.6
aF9.5
aF0.383
aF1.5
aF4.4
aF0.333
aF1.9
aF2.3
aF0.857
aF0.5
aF1.8
aF2.3
aF1.6
aF1.2
aF0.7
aF0.1
aF0.5
aF2.0
aF2.4
aF10.7
aF-1.2
aI0
aI0
aI5
aV101187,1610612761
p76
aa(lp77
I202692
aVAlec Burks
p78
aI1610612762
aVUTA
p79
aF21.0
aI64
aI32
aI32
aF0.5
aF17.8
aF2.5
aF6.1
aF0.42
aF0.5
aF1.4
aF0.359
aF1.4
aF2.0
aF0.713
aF0.6
aF1.7
aF2.3
aF1.4
aF1.2
aF0.5
aF0.2
aF0.5
aF1.8
aF1.9
aF7.0
aF1.5
aI0
aI0
aI5
aV202692,1610612762
p80
aa(lp81
I203144
aVAlexey Shved
p82
aI1610612750
aVMIN
p83
aF24.0
aI77
aI30
aI47
aF0.39
aF23.9
aF3.1
aF8.2
aF0.372
aF1.1
aF3.7
aF0.295
aF1.4
aF1.9
aF0.72
aF0.5
aF1.7
aF2.3
aF3.7
aF1.9
aF0.7
aF0.4
aF0.5
aF1.5
aF1.8
aF8.6
aF-1.0
aI2
aI0
aI5
aV203144,1610612750
p84
aa(lp85
I202087
aVAlonzo Gee
p86
aI1610612739
aVCLE
p87
aF26.0
aI82
aI24
aI58
aF0.293
aF31.0
aF3.7
aF9.1
aF0.41
aF0.8
aF2.7
aF0.315
aF2.0
aF2.5
aF0.795
aF0.9
aF3.0
aF3.9
aF1.6
aF1.6
aF1.3
aF0.4
aF1.0
aF2.4
aF1.7
aF10.3
aF-4.3
aI2
aI0
aI5
aV202087,1610612739
p88
aa(lp89
I2405
aVAmar'e Stoudemire
p90
aI1610612752
aVNYK
p91
aF30.0
aI29
aI16
aI13
aF0.552
aF23.5
aF5.3
aF9.2
aF0.577
aF0.0
aF0.0
aF0.0
aF3.6
aF4.5
aF0.808
aF2.1
aF2.9
aF5.0
aF0.4
aF1.7
aF0.3
aF0.7
aF1.1
aF3.1
aF3.4
aF14.2
aF1.0
aI0
aI0
aI5
aV2405,1610612752
p92
aa(lp93
I101161
aVAmir Johnson
p94
aI1610612761
aVTOR
p95
aF26.0
aI81
aI34
aI47
aF0.42
aF28.7
aF4.1
aF7.5
aF0.554
aF0.1
aF0.2
aF0.385
aF1.7
aF2.3
aF0.727
aF2.8
aF4.7
aF7.5
aF1.5
aF1.4
aF1.0
aF1.4
aF0.4
aF3.7
aF2.2
aF10.0
aF2.6
aI15
aI0
aI5
aV101161,1610612761
p96
aa(lp97
I2760
aVAnderson Varejao
p98
aI1610612739
aVCLE
p99
aF30.0
aI25
aI5
aI20
aF0.2
aF36.0
aF5.5
aF11.6
aF0.478
aF0.0
aF0.2
aF0.0
aF3.1
aF4.1
aF0.755
aF5.5
aF8.9
aF14.4
aF3.4
aF1.8
aF1.5
aF0.6
aF0.7
aF2.7
aF3.8
aF14.1
aF-3.0
aI16
aI0
aI5
aV2760,1610612739
p100
aa(lp101
I101154
aVAndray Blatche
p102
aI1610612751
aVBKN
p103
aF26.0
aI82
aI49
aI33
aF0.598
aF19.0
aF4.2
aF8.2
aF0.512
aF0.0
aF0.3
aF0.136
aF1.8
aF2.6
aF0.685
aF2.0
aF3.1
aF5.1
aF1.0
aF1.5
aF1.0
aF0.7
aF0.8
aF2.0
aF2.4
aF10.3
aF-0.3
aI7
aI0
aI5
aV101154,1610612751
p104
aa(lp105
I203083
aVAndre Drummond
p106
aI1610612765
aVDET
p107
aF19.0
aI60
aI23
aI37
aF0.383
aF20.7
aF3.5
aF5.7
aF0.608
aF0.0
aF0.0
aF0.5
aF1.0
aF2.7
aF0.371
aF2.8
aF4.8
aF7.6
aF0.5
aF1.0
aF1.0
aF1.6
aF0.5
aF2.4
aF2.1
aF7.9
aF-0.9
aI9
aI0
aI5
aV203083,1610612765
p108
aa(lp109
I2738
aVAndre Iguodala
p110
aI1610612743
aVDEN
p111
aF29.0
aI80
aI57
aI23
aF0.713
aF34.7
aF5.0
aF11.0
aF0.451
aF1.1
aF3.6
aF0.317
aF1.9
aF3.4
aF0.574
aF1.0
aF4.3
aF5.3
aF5.4
aF2.6
aF1.7
aF0.7
aF0.4
aF1.6
aF2.8
aF13.0
aF4.8
aI10
aI1
aI5
aV2738,1610612743
p112
aa(lp113
I1889
aVAndre Miller
p114
aI1610612743
aVDEN
p115
aF37.0
aI82
aI57
aI25
aF0.695
aF26.2
aF3.7
aF7.7
aF0.479
aF0.2
aF0.8
aF0.266
aF2.0
aF2.4
aF0.84
aF0.7
aF2.2
aF2.9
aF5.9
aF2.1
aF0.9
aF0.1
aF0.8
aF1.9
aF2.3
aF9.6
aF2.5
aI4
aI0
aI5
aV1889,1610612743
p116
aa(lp117
I200745
aVAndrea Bargnani
p118
aI1610612761
aVTOR
p119
aF27.0
aI35
aI10
aI25
aF0.286
aF28.6
aF4.9
aF12.2
aF0.399
aF1.1
aF3.5
aF0.309
aF1.9
aF2.2
aF0.844
aF0.7
aF2.9
aF3.7
aF1.1
aF1.5
aF0.6
aF0.7
aF0.6
aF1.8
aF2.5
aF12.7
aF-3.1
aI0
aI0
aI5
aV200745,1610612761
p120
aa(lp121
I1905
aVAndrei Kirilenko
p122
aI1610612750
aVMIN
p123
aF32.0
aI64
aI26
aI38
aF0.406
aF31.8
aF4.4
aF8.8
aF0.507
aF0.5
aF1.9
aF0.292
aF2.9
aF3.9
aF0.752
aF1.6
aF4.1
aF5.7
aF2.8
aF1.9
aF1.5
aF1.0
aF0.5
aF1.3
aF3.2
aF12.4
aF-0.4
aI7
aI0
aI5
aV1905,1610612750
p124
aa(lp125
I101106
aVAndrew Bogut
p126
aI1610612744
aVGSW
p127
aF28.0
aI32
aI19
aI13
aF0.594
aF24.6
aF2.6
aF5.8
aF0.451
aF0.0
aF0.0
aF1.0
aF0.6
aF1.2
aF0.5
aF2.1
aF5.5
aF7.7
aF2.1
aF1.1
aF0.6
aF1.7
aF0.4
aF2.7
aF1.7
aF5.8
aF1.2
aI1
aI0
aI5
aV101106,1610612744
p128
aa(lp129
I202726
aVAndrew Goudelock
p130
aI1610612747
aVLAL
p131
aF24.0
aI1
aI1
aI0
aF1.0
aF6.2
aF0.0
aF2.0
aF0.0
aF0.0
aF0.0
aF0.0
aF0.0
aF0.0
aF0.0
aF1.0
aF0.0
aF1.0
aF0.0
aF0.0
aF0.0
aF0.0
aF0.0
aF0.0
aF0.0
aF0.0
aF-12.0
aI0
aI0
aI5
aV202726,1610612747
p132
aa(lp133
I203094
aVAndrew Nicholson
p134
aI1610612753
aVORL
p135
aF23.0
aI75
aI18
aI57
aF0.24
aF16.7
aF3.4
aF6.5
aF0.527
aF0.0
aF0.0
aF0.0
aF1.0
aF1.3
aF0.798
aF0.9
aF2.5
aF3.4
aF0.6
aF1.1
aF0.3
aF0.4
aF0.3
aF1.8
aF1.2
aF7.8
aF-2.1
aI2
aI0
aI5
aV203094,1610612753
p136
aa(lp137
I2740
aVAndris Biedrins
p138
aI1610612744
aVGSW
p139
aF27.0
aI53
aI28
aI25
aF0.528
aF9.3
aF0.2
aF0.4
aF0.476
aF0.0
aF0.0
aF0.0
aF0.1
aF0.2
aF0.308
aF0.6
aF2.2
aF2.9
aF0.3
aF0.3
aF0.3
aF0.8
aF0.1
aF1.9
aF0.3
aF0.5
aF-1.4
aI0
aI0
aI5
aV2740,1610612744
p140
aa(lp141
I1712
aVAntawn Jamison
p142
aI1610612747
aVLAL
p143
aF37.0
aI76
aI41
aI35
aF0.539
aF21.5
aF3.5
aF7.6
aF0.464
aF1.1
aF3.1
aF0.361
aF1.2
aF1.8
aF0.691
aF1.4
aF3.3
aF4.8
aF0.7
aF0.7
aF0.4
aF0.3
aF0.4
aF1.6
aF1.5
aF9.4
aF0.2
aI5
aI0
aI5
aV1712,1610612747
p144
aa(lp145
I203076
aVAnthony Davis
p146
aI1610612740
aVNOH
p147
aF20.0
aI64
aI23
aI41
aF0.359
aF28.8
aF5.5
aF10.6
aF0.516
aF0.0
aF0.1
aF0.0
aF2.6
aF3.5
aF0.751
aF2.6
aF5.6
aF8.2
aF1.0
aF1.4
aF1.2
aF1.8
aF0.7
aF2.5
aF3.2
aF13.5
aF-2.4
aI20
aI0
aI5
aV203076,1610612740
p148
aa(lp149
I201627
aVAnthony Morrow
p150
aI1610612742
aVDAL
p151
aF27.0
aI41
aI25
aI16
aF0.61
aF9.3
aF1.6
aF3.5
aF0.441
aF0.4
aF1.0
aF0.372
aF0.5
aF0.5
aF0.909
aF0.3
aF0.5
aF0.7
aF0.3
aF0.2
aF0.3
aF0.0
aF0.2
aF1.0
aF0.4
aF4.0
aF-1.4
aI0
aI0
aI5
aV201627,1610612742
p152
aa(lp153
I201576
aVAnthony Randolph
p154
aI1610612743
aVDEN
p155
aF23.0
aI39
aI29
aI10
aF0.744
aF8.4
aF1.4
aF2.9
aF0.491
aF0.0
aF0.2
aF0.0
aF0.8
aF1.2
aF0.689
aF0.7
aF1.7
aF2.4
aF0.3
aF0.9
aF0.5
aF0.5
aF0.4
aF1.1
aF0.7
aF3.7
aF0.1
aI1
aI0
aI5
aV201576,1610612743
p156
aa(lp157
I201229
aVAnthony Tolliver
p158
aI1610612737
aVATL
p159
aF28.0
aI62
aI28
aI34
aF0.452
aF15.5
aF1.3
aF3.5
aF0.38
aF0.7
aF2.1
aF0.338
aF0.7
aF0.8
aF0.863
aF0.5
aF2.0
aF2.5
aF0.5
aF0.6
aF0.2
aF0.2
aF0.1
aF1.1
aF0.7
aF4.1
aF-1.0
aI0
aI0
aI5
aV201229,1610612737
p160
aa(lp161
I203102
aVArnett Moultrie
p162
aI1610612755
aVPHI
p163
aF22.0
aI47
aI20
aI27
aF0.426
aF11.5
aF1.7
aF2.9
aF0.582
aF0.0
aF0.0
aF0.0
aF0.4
aF0.6
aF0.643
aF1.6
aF1.5
aF3.1
aF0.2
aF0.4
aF0.4
aF0.2
aF0.3
aF0.9
aF0.5
aF3.7
aF-1.8
aI1
aI0
aI5
aV203102,1610612755
p164
aa(lp165
I203382
aVAron Baynes
p166
aI1610612759
aVSAS
p167
aF26.0
aI16
aI11
aI5
aF0.688
aF8.8
aF1.1
aF2.3
aF0.5
aF0.0
aF0.1
aF0.0
aF0.4
aF0.8
aF0.583
aF0.8
aF1.3
aF2.0
aF0.3
aF0.7
aF0.1
aF0.4
aF0.0
aF1.4
aF0.6
aF2.7
aF-0.1
aI0
aI0
aI5
aV203382,1610612759
p168
aa(lp169
I201167
aVArron Afflalo
p170
aI1610612753
aVORL
p171
aF27.0
aI64
aI18
aI46
aF0.281
aF36.0
aF6.2
aF14.1
aF0.439
aF1.1
aF3.8
aF0.3
aF3.0
aF3.5
aF0.857
aF0.5
aF3.3
aF3.7
aF3.2
aF2.2
aF0.6
aF0.2
aF0.9
aF2.1
aF2.9
aF16.5
aF-5.0
aI0
aI0
aI5
aV201167,1610612753
p172
aa(lp173
I201948
aVAustin Daye
p174
aI1610612763
aVMEM
p175
aF25.0
aI55
aI34
aI21
aF0.618
aF12.3
aF1.6
aF3.8
aF0.433
aF0.7
aF1.8
aF0.418
aF0.5
aF0.6
aF0.765
aF0.3
aF1.9
aF2.2
aF0.8
aF0.5
aF0.3
aF0.4
aF0.2
aF1.5
aF0.5
aF4.5
aF0.4
aI0
aI0
aI5
aV201948,1610612763
p176
aa(lp177
I203085
aVAustin Rivers
p178
aI1610612740
aVNOH
p179
aF20.0
aI61
aI21
aI40
aF0.344
aF23.2
aF2.4
aF6.4
aF0.372
aF0.5
aF1.4
aF0.326
aF1.0
aF1.8
aF0.546
aF0.3
aF1.5
aF1.8
aF2.1
aF1.2
aF0.4
aF0.1
aF0.9
aF2.0
aF1.7
aF6.2
aF-2.6
aI0
aI0
aI5
aV203085,1610612740
p180
aa(lp181
I202340
aVAvery Bradley
p182
aI1610612738
aVBOS
p183
aF22.0
aI50
aI27
aI23
aF0.54
aF28.7
aF3.8
aF9.6
aF0.402
aF0.8
aF2.5
aF0.317
aF0.7
aF1.0
aF0.755
aF0.6
aF1.6
aF2.2
aF2.1
aF1.4
aF1.3
aF0.4
aF0.7
aF2.6
aF1.3
aF9.2
aF-0.9
aI0
aI0
aI5
aV202340,1610612738
p184
aa(lp185
I2732
aVBen Gordon
p186
aI1610612766
aVCHA
p187
aF30.0
aI75
aI19
aI56
aF0.253
aF20.8
aF4.1
aF10.1
aF0.408
aF1.5
aF3.9
aF0.387
aF1.4
aF1.7
aF0.843
aF0.2
aF1.5
aF1.7
aF1.9
aF1.8
aF0.5
aF0.2
aF0.7
aF1.8
aF1.7
aF11.2
aF-5.7
aI0
aI0
aI5
aV2732,1610612766
p188
aa(lp189
I203162
aVBen Hansbrough
p190
aI1610612754
aVIND
p191
aF25.0
aI28
aI20
aI8
aF0.714
aF7.2
aF0.5
aF1.6
aF0.333
aF0.2
aF0.8
aF0.261
aF0.8
aF1.0
aF0.778
aF0.1
aF0.6
aF0.6
aF0.8
aF0.6
aF0.3
aF0.1
aF0.1
aF0.8
aF0.8
aF2.0
aF-1.1
aI0
aI0
aI5
aV203162,1610612754
p192
aa(lp193
I2757
aVBeno Udrih
p194
aI1610612753
aVORL
p195
aF30.0
aI66
aI24
aI42
aF0.364
aF22.1
aF3.2
aF7.2
aF0.441
aF0.5
aF1.5
aF0.333
aF1.3
aF1.6
aF0.816
aF0.5
aF1.6
aF2.1
aF4.6
aF1.6
aF0.6
aF0.0
aF0.3
aF1.4
aF1.6
aF8.2
aF-2.3
aI3
aI0
aI5
aV2757,1610612753
p196
aa(lp197
I203108
aVBernard James
p198
aI1610612742
aVDAL
p199
aF28.0
aI46
aI24
aI22
aF0.522
aF9.9
aF1.2
aF2.2
aF0.515
aF0.0
aF0.0
aF0.0
aF0.5
aF0.9
aF0.61
aF1.1
aF1.7
aF2.8
aF0.1
aF0.4
aF0.3
aF0.8
aF0.2
aF1.4
aF0.8
aF2.8
aF-0.5
aI0
aI0
aI5
aV203108,1610612742
p200
aa(lp201
I202687
aVBismack Biyombo
p202
aI1610612766
aVCHA
p203
aF20.0
aI80
aI20
aI60
aF0.25
aF27.3
aF2.0
aF4.3
aF0.451
aF0.0
aF0.0
aF0.0
aF0.9
aF1.8
aF0.521
aF2.4
aF4.9
aF7.3
aF0.4
aF1.0
aF0.4
aF1.8
aF0.7
aF2.4
aF1.6
aF4.8
aF-4.6
aI7
aI0
aI5
aV202687,1610612766
p204
aa(lp205
I201933
aVBlake Griffin
p206
aI1610612746
aVLAC
p207
aF24.0
aI80
aI55
aI25
aF0.688
aF32.5
aF7.2
aF13.4
aF0.538
aF0.1
aF0.4
aF0.179
aF3.5
aF5.3
aF0.66
aF2.3
aF6.0
aF8.3
aF3.7
aF2.3
aF1.2
aF0.6
aF0.8
aF2.9
aF5.5
aF18.0
aF4.8
aI28
aI1
aI5
aV201933,1610612746
p208
aa(lp209
I2564
aVBoris Diaw
p210
aI1610612759
aVSAS
p211
aF31.0
aI75
aI55
aI20
aF0.733
aF22.8
aF2.4
aF4.4
aF0.539
aF0.4
aF1.0
aF0.385
aF0.6
aF0.9
aF0.723
aF0.9
aF2.5
aF3.4
aF2.4
aF1.1
aF0.7
aF0.4
aF0.2
aF1.9
aF1.0
aF5.8
aF2.0
aI0
aI0
aI5
aV2564,1610612759
p212
aa(lp213
I203078
aVBradley Beal
p214
aI1610612764
aVWAS
p215
aF20.0
aI56
aI21
aI35
aF0.375
aF31.2
aF5.0
aF12.3
aF0.41
aF1.6
aF4.2
aF0.386
aF2.2
aF2.8
aF0.786
aF0.8
aF3.0
aF3.8
aF2.4
aF1.6
aF0.9
aF0.5
aF0.8
aF2.0
aF1.9
aF13.9
aF-1.6
aI3
aI0
aI5
aV203078,1610612764
p216
aa(lp217
I201148
aVBrandan Wright
p218
aI1610612742
aVDAL
p219
aF25.0
aI64
aI33
aI31
aF0.516
aF17.9
aF3.8
aF6.3
aF0.597
aF0.0
aF0.0
aF0.0
aF0.9
aF1.5
aF0.615
aF1.3
aF2.7
aF4.1
aF0.6
aF0.5
aF0.4
aF1.2
aF0.4
aF1.2
aF1.3
aF8.5
aF1.6
aI1
aI0
aI5
aV201148,1610612742
p220
aa(lp221
I101138
aVBrandon Bass
p222
aI1610612738
aVBOS
p223
aF28.0
aI81
aI41
aI40
aF0.506
aF27.6
aF3.5
aF7.3
aF0.486
aF0.0
aF0.0
aF0.0
aF1.6
aF1.9
aF0.86
aF1.6
aF3.7
aF5.2
aF1.0
aF1.0
aF0.5
aF0.8
aF0.6
aF2.3
aF1.5
aF8.7
aF-2.2
aI3
aI0
aI5
aV101138,1610612738
p224
aa(lp225
I201943
aVBrandon Jennings
p226
aI1610612749
aVMIL
p227
aF23.0
aI80
aI38
aI42
aF0.475
aF36.2
aF6.2
aF15.6
aF0.399
aF2.2
aF5.8
aF0.375
aF2.9
aF3.5
aF0.819
aF0.7
aF2.3
aF3.1
aF6.5
aF2.5
aF1.6
aF0.1
aF0.7
aF1.9
aF3.0
aF17.5
aF-3.6
aI13
aI0
aI5
aV201943,1610612749
p228
aa(lp229
I202688
aVBrandon Knight
p230
aI1610612765
aVDET
p231
aF21.0
aI75
aI29
aI46
aF0.387
aF31.5
aF4.8
aF11.7
aF0.407
aF1.6
aF4.4
aF0.367
aF2.2
aF3.0
aF0.733
aF0.7
aF2.6
aF3.3
aF4.0
aF2.7
aF0.8
aF0.1
aF0.8
aF2.1
aF3.0
aF13.3
aF-1.7
aI3
aI0
aI5
aV202688,1610612765
p232
aa(lp233
I200750
aVBrandon Roy
p234
aI1610612750
aVMIN
p235
aF28.0
aI5
aI4
aI1
aF0.8
aF24.4
aF2.2
aF7.0
aF0.314
aF0.0
aF1.8
aF0.0
aF1.4
aF2.0
aF0.7
aF0.6
aF2.2
aF2.8
aF4.6
aF1.4
aF0.6
aF0.0
aF0.2
aF1.0
aF1.6
aF5.8
aF1.2
aI0
aI0
aI5
aV200750,1610612750
p236
aa(lp237
I201575
aVBrandon Rush
p238
aI1610612744
aVGSW
p239
aF27.0
aI2
aI1
aI1
aF0.5
aF12.7
aF3.0
aF4.5
aF0.667
aF0.0
aF1.0
aF0.0
aF1.0
aF1.5
aF0.667
aF0.0
aF0.5
aF0.5
aF1.0
aF1.5
aF0.0
aF0.0
aF0.5
aF2.5
aF1.5
aF7.0
aF3.0
aI0
aI0
aI5
aV201575,1610612744
p240
aa(lp241
I2217
aVBrendan Haywood
p242
aI1610612766
aVCHA
p243
aF33.0
aI61
aI15
aI46
aF0.246
aF19.1
aF1.5
aF3.5
aF0.431
aF0.0
aF0.0
aF0.0
aF0.5
aF1.1
aF0.455
aF2.0
aF2.7
aF4.8
aF0.5
aF0.8
aF0.3
aF0.8
aF0.3
aF2.0
aF0.9
aF3.5
aF-2.9
aI1
aI0
aI5
aV2217,1610612766
p244
aa(lp245
I203148
aVBrian Roberts
p246
aI1610612740
aVNOH
p247
aF27.0
aI78
aI26
aI52
aF0.333
aF17.0
aF2.7
aF6.6
aF0.417
aF0.8
aF2.0
aF0.386
aF0.9
aF1.0
aF0.909
aF0.2
aF1.0
aF1.2
aF2.8
aF0.9
aF0.5
aF0.0
aF0.4
aF1.4
aF1.4
aF7.1
aF-2.2
aI2
aI0
aI5
aV203148,1610612740
p248
aa(lp249
I201572
aVBrook Lopez
p250
aI1610612751
aVBKN
p251
aF25.0
aI74
aI46
aI28
aF0.622
aF30.4
aF7.7
aF14.8
aF0.521
aF0.0
aF0.0
aF0.0
aF4.0
aF5.3
aF0.758
aF2.8
aF4.1
aF6.9
aF0.9
aF1.8
aF0.4
aF2.1
aF0.9
aF2.1
aF4.1
aF19.4
aF3.8
aI12
aI0
aI5
aV201572,1610612751
p252
aa(lp253
I201957
aVByron Mullens
p254
aI1610612766
aVCHA
p255
aF24.0
aI53
aI13
aI40
aF0.245
aF26.9
aF4.1
aF10.6
aF0.385
aF1.2
aF3.9
aF0.317
aF1.2
aF1.9
aF0.646
aF1.3
aF5.0
aF6.4
aF1.5
aF1.4
aF0.6
aF0.6
aF0.5
aF2.1
aF1.8
aF10.6
aF-7.9
aI8
aI0
aI5
aV201957,1610612766
p256
aa(lp257
I101139
aVCJ Miles
p258
aI1610612739
aVCLE
p259
aF26.0
aI65
aI19
aI46
aF0.292
aF21.0
aF3.9
aF9.4
aF0.415
aF1.9
aF5.0
aF0.384
aF1.4
aF1.6
aF0.869
aF0.4
aF2.3
aF2.7
aF1.0
aF1.1
aF0.8
aF0.3
aF0.3
aF2.1
aF1.3
aF11.2
aF-1.3
aI0
aI0
aI5
aV101139,1610612739
p260
aa(lp261
I201228
aVCJ Watson
p262
aI1610612751
aVBKN
p263
aF29.0
aI80
aI47
aI33
aF0.588
aF19.0
aF2.4
aF5.7
aF0.418
aF1.1
aF2.7
aF0.411
aF0.9
aF1.1
aF0.78
aF0.5
aF1.3
aF1.8
aF2.0
aF0.9
aF0.8
aF0.2
aF0.2
aF1.5
aF1.4
aF6.8
aF0.3
aI0
aI0
aI5
aV201228,1610612751
p264
aa(lp265
I201171
aVCarl Landry
p266
aI1610612744
aVGSW
p267
aF29.0
aI81
aI46
aI35
aF0.568
aF23.2
aF4.0
aF7.4
aF0.54
aF0.0
aF0.0
aF0.333
aF2.8
aF3.4
aF0.817
aF2.2
aF3.7
aF6.0
aF0.8
aF1.4
aF0.4
aF0.4
aF0.7
aF2.3
aF2.8
aF10.8
aF-0.1
aI7
aI0
aI5
aV201171,1610612744
p268
aa(lp269
I2430
aVCarlos Boozer
p270
aI1610612741
aVCHI
p271
aF31.0
aI79
aI43
aI36
aF0.544
aF32.2
aF6.9
aF14.4
aF0.477
aF0.0
aF0.0
aF0.0
aF2.4
aF3.3
aF0.731
aF2.2
aF7.5
aF9.8
aF2.3
aF2.2
aF0.8
aF0.4
aF1.1
aF3.0
aF2.8
aF16.2
aF-0.9
aI44
aI0
aI5
aV2430,1610612741
p272
aa(lp273
I2568
aVCarlos Delfino
p274
aI1610612745
aVHOU
p275
aF30.0
aI67
aI38
aI29
aF0.567
aF25.2
aF3.7
aF9.3
aF0.405
aF2.4
aF6.3
aF0.375
aF0.7
aF0.8
aF0.857
aF0.3
aF3.0
aF3.3
aF2.0
aF1.1
aF1.0
aF0.1
aF0.4
aF1.7
aF0.8
aF10.6
aF3.7
aI0
aI0
aI5
aV2568,1610612745
p276
aa(lp277
I2546
aVCarmelo Anthony
p278
aI1610612752
aVNYK
p279
aF29.0
aI67
aI47
aI20
aF0.701
aF37.0
aF10.0
aF22.2
aF0.449
aF2.3
aF6.2
aF0.379
aF6.3
aF7.6
aF0.83
aF2.0
aF4.9
aF6.9
aF2.6
aF2.6
aF0.8
aF0.5
aF1.3
aF3.1
aF6.2
aF28.7
aF4.6
aI10
aI0
aI5
aV2546,1610612752
p280
aa(lp281
I2406
aVCaron Butler
p282
aI1610612746
aVLAC
p283
aF33.0
aI78
aI55
aI23
aF0.705
aF24.1
aF3.9
aF9.2
aF0.424
aF1.6
aF4.2
aF0.388
aF1.0
aF1.2
aF0.833
aF0.5
aF2.3
aF2.9
aF1.0
aF0.9
aF0.7
aF0.1
aF0.4
aF1.8
aF0.9
aF10.4
aF3.2
aI0
aI0
aI5
aV2406,1610612746
p284
aa(lp285
I201858
aVCartier Martin
p286
aI1610612764
aVWAS
p287
aF28.0
aI41
aI8
aI33
aF0.195
aF16.9
aF2.3
aF6.1
aF0.381
aF1.4
aF3.6
aF0.397
aF0.5
aF0.7
aF0.714
aF0.3
aF2.2
aF2.4
aF0.5
aF0.8
aF0.5
aF0.1
aF0.2
aF1.4
aF1.0
aF6.6
aF-1.2
aI0
aI0
aI5
aV201858,1610612764
p288
aa(lp289
I202718
aVChandler Parsons
p290
aI1610612745
aVHOU
p291
aF24.0
aI76
aI42
aI34
aF0.553
aF36.3
aF6.0
aF12.4
aF0.486
aF2.0
aF5.2
aF0.385
aF1.5
aF2.0
aF0.729
aF1.0
aF4.3
aF5.3
aF3.5
aF1.9
aF1.0
aF0.4
aF0.9
aF1.9
aF1.9
aF15.5
aF2.0
aI8
aI0
aI5
aV202718,1610612745
p292
aa(lp293
I101236
aVCharles Hayes
p294
aI1610612758
aVSAC
p295
aF30.0
aI74
aI27
aI47
aF0.365
aF16.3
aF1.1
aF2.6
aF0.442
aF0.0
aF0.0
aF0.0
aF0.4
aF0.6
aF0.625
aF1.5
aF2.5
aF4.0
aF1.5
aF0.6
aF0.4
aF0.2
aF0.3
aF1.5
aF0.6
aF2.7
aF-0.4
aI0
aI0
aI5
aV101236,1610612758
p296
aa(lp297
I202724
aVCharles Jenkins
p298
aI1610612755
aVPHI
p299
aF24.0
aI59
aI29
aI30
aF0.492
aF7.5
aF0.8
aF2.1
aF0.405
aF0.0
aF0.0
aF0.5
aF0.2
aF0.4
aF0.545
aF0.1
aF0.4
aF0.5
aF0.7
aF0.4
aF0.3
aF0.0
aF0.2
aF0.4
aF0.3
aF1.9
aF-0.6
aI0
aI0
aI5
aV202724,1610612755
p300
aa(lp301
I101111
aVCharlie Villanueva
p302
aI1610612765
aVDET
p303
aF28.0
aI69
aI26
aI43
aF0.377
aF15.8
aF2.5
aF6.7
aF0.377
aF1.3
aF3.8
aF0.347
aF0.4
aF0.7
aF0.551
aF0.7
aF2.8
aF3.5
aF0.8
aF0.6
aF0.4
aF0.6
aF0.1
aF1.4
aF0.6
aF6.8
aF-1.3
aI2
aI0
aI5
aV101111,1610612765
p304
aa(lp305
I201978
aVChase Budinger
p306
aI1610612750
aVMIN
p307
aF25.0
aI23
aI12
aI11
aF0.522
aF22.1
aF3.4
aF8.3
aF0.414
aF1.1
aF3.5
aF0.321
aF1.4
aF1.8
aF0.762
aF0.7
aF2.4
aF3.1
aF1.1
aF1.0
aF0.6
aF0.3
aF0.4
aF1.3
aF1.4
aF9.4
aF0.9
aI0
aI0
aI5
aV201978,1610612750
p308
aa(lp309
I1497
aVChauncey Billups
p310
aI1610612746
aVLAC
p311
aF36.0
aI22
aI16
aI6
aF0.727
aF19.0
aF2.4
aF6.0
aF0.402
aF1.5
aF4.1
aF0.367
aF2.0
aF2.2
aF0.938
aF0.1
aF1.4
aF1.5
aF2.2
aF1.2
aF0.5
aF0.0
aF0.1
aF1.1
aF1.7
aF8.4
aF2.1
aI0
aI0
aI5
aV1497,1610612746
p312
aa(lp313
I2365
aVChris Andersen
p314
aI1610612748
aVMIA
p315
aF34.0
aI42
aI39
aI3
aF0.929
aF14.9
aF1.7
aF2.9
aF0.577
aF0.0
aF0.1
aF0.667
aF1.5
aF2.2
aF0.677
aF1.4
aF2.7
aF4.1
aF0.4
aF0.6
aF0.4
aF1.0
aF0.3
aF2.1
aF2.1
aF4.9
aF2.3
aI0
aI0
aI5
aV2365,1610612748
p316
aa(lp317
I2547
aVChris Bosh
p318
aI1610612748
aVMIA
p319
aF29.0
aI74
aI58
aI16
aF0.784
aF33.2
aF6.6
aF12.3
aF0.535
aF0.3
aF1.0
aF0.284
aF3.3
aF4.1
aF0.798
aF1.8
aF5.0
aF6.8
aF1.7
aF1.7
aF0.9
aF1.4
aF0.6
aF2.3
aF3.1
aF16.6
aF6.4
aI15
aI0
aI5
aV2547,1610612748
p320
aa(lp321
I203142
aVChris Copeland
p322
aI1610612752
aVNYK
p323
aF29.0
aI56
aI38
aI18
aF0.679
aF15.4
aF3.3
aF6.8
aF0.479
aF1.1
aF2.5
aF0.421
aF1.1
aF1.5
aF0.759
aF0.6
aF1.5
aF2.1
aF0.5
aF0.9
aF0.3
aF0.2
aF0.6
aF1.9
aF1.3
aF8.7
aF0.8
aI0
aI0
aI5
aV203142,1610612752
p324
aa(lp325
I201604
aVChris Douglas-Roberts
p326
aI1610612742
aVDAL
p327
aF26.0
aI6
aI1
aI5
aF0.167
aF10.5
aF0.8
aF2.3
aF0.357
aF0.0
aF0.7
aF0.0
aF1.2
aF1.7
aF0.7
aF0.0
aF0.8
aF0.8
aF0.7
aF0.2
aF0.3
aF0.0
aF0.0
aF0.7
aF0.8
aF2.8
aF-2.2
aI0
aI0
aI5
aV201604,1610612742
p328
aa(lp329
I2768
aVChris Duhon
p330
aI1610612747
aVLAL
p331
aF30.0
aI46
aI23
aI23
aF0.5
aF17.8
aF1.0
aF2.7
aF0.382
aF0.7
aF2.0
aF0.363
aF0.1
aF0.3
aF0.462
aF0.2
aF1.2
aF1.5
aF2.9
aF0.9
aF0.4
aF0.0
aF0.1
aF1.2
aF0.4
aF2.9
aF-0.2
aI1
aI0
aI5
aV2768,1610612747
p332
aa(lp333
I202419
aVChris Johnson
p334
aI1610612750
aVMIN
p335
aF27.0
aI30
aI8
aI22
aF0.267
aF9.5
aF1.6
aF2.5
aF0.64
aF0.0
aF0.0
aF0.0
aF0.7
aF1.1
aF0.618
aF0.7
aF1.3
aF2.0
aF0.3
aF0.4
aF0.2
aF0.9
aF0.1
aF1.6
aF1.1
aF3.9
aF-0.8
aI0
aI0
aI5
aV202419,1610612750
p336
aa(lp337
I203187
aVChris Johnson
p338
aI1610612763
aVMEM
p339
aF23.0
aI8
aI4
aI4
aF0.5
aF12.8
aF1.4
aF3.1
aF0.44
aF0.8
aF2.3
aF0.333
aF0.1
aF0.3
aF0.5
aF0.6
aF0.8
aF1.4
aF0.3
aF0.4
aF0.5
aF0.0
aF0.4
aF0.6
aF0.3
aF3.6
aF4.5
aI0
aI0
aI5
aV203187,1610612763
p340
aa(lp341
I2549
aVChris Kaman
p342
aI1610612742
aVDAL
p343
aF31.0
aI66
aI31
aI35
aF0.47
aF20.7
aF4.7
aF9.3
aF0.507
aF0.0
aF0.0
aF0.0
aF1.0
aF1.3
aF0.788
aF1.5
aF4.2
aF5.6
aF0.8
aF1.6
aF0.4
aF0.8
aF0.4
aF2.1
aF1.4
aF10.5
aF-2.0
aI3
aI0
aI5
aV2549,1610612742
p344
aa(lp345
I101108
aVChris Paul
p346
aI1610612746
aVLAC
p347
aF28.0
aI70
aI50
aI20
aF0.714
aF33.4
aF5.9
aF12.2
aF0.481
aF1.1
aF3.3
aF0.328
aF4.1
aF4.6
aF0.885
aF0.8
aF3.0
aF3.7
aF9.7
aF2.3
aF2.4
aF0.1
aF0.3
aF2.0
aF4.0
aF16.9
aF6.1
aI31
aI0
aI5
aV101108,1610612746
p348
aa(lp349
I200809
aVChris Quinn
p350
aI1610612739
aVCLE
p351
aF29.0
aI7
aI0
aI7
aF0.0
aF11.2
aF0.6
aF2.3
aF0.25
aF0.0
aF0.7
aF0.0
aF0.3
aF0.3
aF1.0
aF0.1
aF0.1
aF0.3
aF1.3
aF0.9
aF0.4
aF0.0
aF0.0
aF0.6
aF1.0
aF1.4
aF1.6
aI0
aI0
aI5
aV200809,1610612739
p352
aa(lp353
I202698
aVChris Singleton
p354
aI1610612764
aVWAS
p355
aF23.0
aI57
aI17
aI40
aF0.298
aF16.2
aF1.6
aF4.2
aF0.382
aF0.1
aF0.6
aF0.194
aF0.7
aF1.2
aF0.571
aF0.9
aF2.3
aF3.2
aF0.6
aF0.8
aF0.7
aF0.4
aF0.2
aF2.2
aF1.1
aF4.1
aF-1.6
aI1
aI0
aI5
aV202698,1610612764
p356
aa(lp357
I2404
aVChris Wilcox
p358
aI1610612738
aVBOS
p359
aF30.0
aI61
aI33
aI28
aF0.541
aF13.6
aF1.8
aF2.5
aF0.719
aF0.0
aF0.0
aF0.0
aF0.6
aF1.0
aF0.672
aF0.9
aF2.0
aF3.0
aF0.4
aF0.6
aF0.5
aF0.5
aF0.1
aF2.0
aF0.9
aF4.2
aF-0.7
aI0
aI0
aI5
aV2404,1610612738
p360
aa(lp361
I203203
aVChris Wright
p362
aI1610612742
aVDAL
p363
aF23.0
aI3
aI2
aI1
aF0.667
aF1.5
aF0.3
aF0.7
aF0.5
aF0.0
aF0.0
aF0.0
aF0.0
aF0.0
aF0.0
aF0.0
aF0.0
aF0.0
aF0.0
aF0.3
aF0.0
aF0.0
aF0.0
aF0.0
aF0.3
aF0.7
aF-2.7
aI0
aI0
aI5
aV203203,1610612742
p364
aa(lp365
I202332
aVCole Aldrich
p366
aI1610612758
aVSAC
p367
aF24.0
aI45
aI20
aI25
aF0.444
aF8.6
aF1.0
aF1.8
aF0.55
aF0.0
aF0.0
aF0.0
aF0.3
aF0.4
aF0.6
aF0.7
aF2.0
aF2.7
aF0.2
aF0.5
aF0.1
aF0.5
aF0.2
aF1.3
aF0.4
aF2.2
aF0.2
aI2
aI0
aI5
aV202332,1610612758
p368
aa(lp369
I201147
aVCorey Brewer
p370
aI1610612743
aVDEN
p371
aF27.0
aI82
aI57
aI25
aF0.695
aF24.4
aF4.6
aF10.8
aF0.425
aF1.1
aF3.7
aF0.296
aF1.8
aF2.6
aF0.69
aF0.7
aF2.2
aF2.9
aF1.5
aF1.2
aF1.4
aF0.3
aF0.7
aF1.9
aF2.0
aF12.1
aF1.8
aI0
aI0
aI5
aV201147,1610612743
p372
aa(lp373
I1894
aVCorey Maggette
p374
aI1610612765
aVDET
p375
aF33.0
aI18
aI7
aI11
aF0.389
aF14.3
aF1.5
aF4.2
aF0.355
aF0.3
aF1.2
aF0.238
aF2.0
aF2.7
aF0.75
aF0.3
aF1.1
aF1.4
aF1.1
aF0.9
aF0.3
aF0.1
aF0.4
aF2.3
aF1.8
aF5.3
aF-0.9
aI0
aI0
aI5
aV1894,1610612765
p376
aa(lp377
I202809
aVCory Higgins
p378
aI1610612766
aVCHA
p379
aF24.0
aI6
aI3
aI3
aF0.5
aF5.4
aF1.0
aF3.2
aF0.316
aF0.2
aF0.8
aF0.2
aF0.2
aF0.3
aF0.5
aF0.2
aF0.3
aF0.5
aF0.8
aF0.0
aF0.5
aF0.0
aF0.0
aF0.8
aF0.5
aF2.3
aF-1.2
aI0
aI0
aI5
aV202809,1610612766
p380
aa(lp381
I202709
aVCory Joseph
p382
aI1610612759
aVSAS
p383
aF21.0
aI28
aI19
aI9
aF0.679
aF13.9
aF1.8
aF3.9
aF0.464
aF0.2
aF0.8
aF0.286
aF0.6
aF0.8
aF0.857
aF0.4
aF1.4
aF1.9
aF1.9
aF0.8
aF0.5
aF0.1
aF0.4
aF0.9
aF1.0
aF4.5
aF-0.2
aI0
aI0
aI5
aV202709,1610612759
p384
aa(lp385
I201584
aVCourtney Lee
p386
aI1610612738
aVBOS
p387
aF27.0
aI78
aI40
aI38
aF0.513
aF24.9
aF3.2
aF6.8
aF0.464
aF0.7
aF2.0
aF0.372
aF0.8
aF0.9
aF0.861
aF0.4
aF2.0
aF2.4
aF1.8
aF1.1
aF1.1
aF0.3
aF0.3
aF1.8
aF0.8
aF7.8
aF-1.2
aI0
aI0
aI5
aV201584,1610612738
p388
aa(lp389
I201571
aVD.J. Augustin
p390
aI1610612754
aVIND
p391
aF25.0
aI76
aI45
aI31
aF0.592
aF16.1
aF1.4
aF3.9
aF0.35
aF0.9
aF2.5
aF0.353
aF1.1
aF1.3
aF0.838
aF0.3
aF0.9
aF1.2
aF2.2
aF0.9
aF0.4
aF0.0
aF0.3
aF0.8
aF1.1
aF4.7
aF-0.5
aI0
aI0
aI5
aV201571,1610612754
p392
aa(lp393
I201591
aVDJ White
p394
aI1610612738
aVBOS
p395
aF26.0
aI12
aI4
aI8
aF0.333
aF7.2
aF1.0
aF1.9
aF0.522
aF0.0
aF0.0
aF0.0
aF0.4
aF0.8
aF0.556
aF0.3
aF0.8
aF1.1
aF0.3
aF0.2
aF0.1
aF0.5
aF0.2
aF0.4
aF0.6
aF2.4
aF2.3
aI0
aI0
aI5
aV201591,1610612738
p396
aa(lp397
I201969
aVDaJuan Summers
p398
aI1610612746
aVLAC
p399
aF25.0
aI2
aI1
aI1
aF0.5
aF3.3
aF0.5
aF2.0
aF0.25
aF0.0
aF0.0
aF0.0
aF0.0
aF0.0
aF0.0
aF0.0
aF1.0
aF1.0
aF0.5
aF0.0
aF0.0
aF0.0
aF0.0
aF0.0
aF0.0
aF1.0
aF0.0
aI0
aI0
aI5
aV201969,1610612746
p400
aa(lp401
I201161
aVDaequan Cook
p402
aI1610612741
aVCHI
p403
aF26.0
aI49
aI25
aI24
aF0.51
aF9.0
aF1.0
aF3.4
aF0.305
aF0.5
aF1.9
aF0.286
aF0.2
aF0.2
aF0.75
aF0.1
aF1.1
aF1.2
aF0.4
aF0.3
aF0.2
aF0.1
aF0.1
aF0.5
aF0.2
aF2.8
aF-0.9
aI0
aI0
aI5
aV201161,1610612741
p404
aa(lp405
I2563
aVDahntay Jones
p406
aI1610612737
aVATL
p407
aF32.0
aI78
aI35
aI43
aF0.449
aF13.0
aF1.1
aF2.8
aF0.369
aF0.1
aF0.6
aF0.224
aF1.1
aF1.4
aF0.77
aF0.3
aF1.0
aF1.3
aF0.6
aF0.5
aF0.3
aF0.1
aF0.2
aF1.5
aF1.2
aF3.4
aF-1.2
aI0
aI0
aI5
aV2563,1610612737
p408
aa(lp409
I203081
aVDamian Lillard
p410
aI1610612757
aVPOR
p411
aF22.0
aI82
aI33
aI49
aF0.402
aF38.6
aF6.7
aF15.7
aF0.429
aF2.3
aF6.1
aF0.368
aF3.3
aF3.9
aF0.844
aF0.5
aF2.6
aF3.1
aF6.5
aF3.0
aF0.9
aF0.2
aF1.0
aF2.1
aF3.4
aF19.0
aF-0.8
aI7
aI0
aI5
aV203081,1610612757
p412
aa(lp413
I2863
aVDamien Wilkins
p414
aI1610612755
aVPHI
p415
aF33.0
aI61
aI22
aI39
aF0.361
aF18.0
aF2.4
aF5.2
aF0.459
aF0.3
aF0.8
aF0.333
aF1.3
aF1.8
aF0.743
aF0.5
aF1.2
aF1.7
aF1.5
aF0.8
aF0.6
aF0.3
aF0.3
aF1.6
aF1.5
aF6.4
aF-2.2
aI0
aI0
aI5
aV2863,1610612755
p416
aa(lp417
I202345
aVDamion James
p418
aI1610612751
aVBKN
p419
aF25.0
aI2
aI2
aI0
aF1.0
aF0.2
aF0.0
aF0.0
aF0.0
aF0.0
aF0.0
aF0.0
aF0.0
aF0.0
aF0.0
aF0.0
aF0.5
aF0.5
aF0.0
aF0.0
aF0.0
aF0.0
aF0.0
aF0.0
aF0.0
aF0.0
aF-0.5
aI0
aI0
aI5
aV202345,1610612751
p420
aa(lp421
I200789
aVDaniel Gibson
p422
aI1610612739
aVCLE
p423
aF27.0
aI46
aI11
aI35
aF0.239
aF20.0
aF1.8
aF5.4
aF0.34
aF1.2
aF3.5
aF0.344
aF0.6
aF0.8
aF0.703
aF0.1
aF1.2
aF1.3
aF1.8
aF0.7
aF0.7
aF0.1
aF0.2
aF1.9
aF1.2
aF5.4
aF-4.4
aI0
aI0
aI5
aV200789,1610612739
p424
aa(lp425
I202350
aVDaniel Orton
p426
aI1610612760
aVOKC
p427
aF22.0
aI13
aI10
aI3
aF0.769
aF8.0
aF0.9
aF2.0
aF0.462
aF0.0
aF0.0
aF0.0
aF0.7
aF1.3
aF0.529
aF1.0
aF1.0
aF2.0
aF0.3
aF0.3
aF0.3
aF0.2
aF0.2
aF1.0
aF0.8
aF2.5
aF-1.2
aI0
aI0
aI5
aV202350,1610612760
p428
aa(lp429
I201568
aVDanilo Gallinari
p430
aI1610612743
aVDEN
p431
aF24.0
aI71
aI50
aI21
aF0.704
aF32.5
aF5.1
aF12.3
aF0.418
aF1.9
aF5.1
aF0.373
aF4.0
aF4.9
aF0.822
aF0.9
aF4.3
aF5.2
aF2.5
aF1.6
aF0.9
aF0.5
aF0.8
aF1.8
aF4.2
aF16.2
aF4.7
aI2
aI0
aI5
aV201568,1610612743
p432
aa(lp433
I101122
aVDanny Granger
p434
aI1610612754
aVIND
p435
aF30.0
aI5
aI4
aI1
aF0.8
aF14.7
aF2.0
aF7.0
aF0.286
aF0.4
aF2.0
aF0.2
aF1.0
aF1.6
aF0.625
aF0.6
aF1.2
aF1.8
aF0.6
aF0.8
aF0.4
aF0.2
aF0.4
aF1.2
aF1.6
aF5.4
aF-3.2
aI0
aI0
aI5
aV101122,1610612754
p436
aa(lp437
I201980
aVDanny Green
p438
aI1610612759
aVSAS
p439
aF26.0
aI80
aI57
aI23
aF0.713
aF27.5
aF3.7
aF8.3
aF0.448
aF2.2
aF5.2
aF0.429
aF0.8
aF1.0
aF0.848
aF0.5
aF2.6
aF3.1
aF1.8
aF1.2
aF1.2
aF0.7
aF0.3
aF1.6
aF1.0
aF10.5
aF3.9
aI0
aI0
aI5
aV201980,1610612759
p440
aa(lp441
I201967
aVDante Cunningham
p442
aI1610612750
aVMIN
p443
aF26.0
aI80
aI30
aI50
aF0.375
aF25.1
aF3.9
aF8.4
aF0.468
aF0.0
aF0.1
aF0.0
aF0.8
aF1.3
aF0.65
aF1.8
aF3.3
aF5.1
aF0.8
aF0.7
aF1.1
aF0.5
aF0.4
aF1.9
aF1.1
aF8.7
aF-1.2
aI3
aI0
aI5
aV201967,1610612750
p444
aa(lp445
I203130
aVDarius Johnson-Odom
p446
aI1610612747
aVLAL
p447
aF23.0
aI4
aI4
aI0
aF1.0
aF1.4
aF0.0
aF1.0
aF0.0
aF0.0
aF0.3
aF0.0
aF0.0
aF0.0
aF0.0
aF0.3
aF0.8
aF1.0
aF0.3
aF0.0
aF0.0
aF0.0
aF0.0
aF0.0
aF0.0
aF0.0
aF-2.0
aI0
aI0
aI5
aV203130,1610612747
p448
aa(lp449
I203121
aVDarius Miller
p450
aI1610612740
aVNOH
p451
aF23.0
aI52
aI14
aI38
aF0.269
aF13.3
aF0.8
aF2.1
aF0.407
aF0.4
aF1.1
aF0.393
aF0.2
aF0.2
aF1.0
aF0.2
aF1.3
aF1.5
aF0.8
aF0.4
aF0.3
aF0.2
aF0.1
aF1.7
aF0.4
aF2.3
aF-1.1
aI0
aI0
aI5
aV203121,1610612740
p452
aa(lp453
I202721
aVDarius Morris
p454
aI1610612747
aVLAL
p455
aF22.0
aI48
aI23
aI25
aF0.479
aF14.2
aF1.5
aF3.9
aF0.388
aF0.5
aF1.4
aF0.364
aF0.5
aF0.8
aF0.649
aF0.5
aF0.7
aF1.2
aF1.6
aF0.9
aF0.4
aF0.0
aF0.2
aF1.2
aF0.7
aF4.0
aF-0.3
aI0
aI0
aI5
aV202721,1610612747
p456
aa(lp457
I2545
aVDarko Milicic
p458
aI1610612738
aVBOS
p459
aF28.0
aI1
aI0
aI1
aF0.0
aF4.5
aF0.0
aF1.0
aF0.0
aF0.0
aF0.0
aF0.0
aF0.0
aF0.0
aF0.0
aF0.0
aF1.0
aF1.0
aF0.0
aF2.0
aF0.0
aF0.0
aF0.0
aF1.0
aF0.0
aF0.0
aF-3.0
aI0
aI0
aI5
aV2545,1610612738
p460
aa(lp461
I201589
aVDarrell Arthur
p462
aI1610612763
aVMEM
p463
aF25.0
aI59
aI37
aI22
aF0.627
aF16.4
aF2.7
aF6.1
aF0.451
aF0.1
aF0.3
aF0.278
aF0.6
aF0.8
aF0.717
aF1.2
aF1.7
aF2.9
aF0.6
aF0.7
aF0.4
aF0.6
aF0.3
aF2.1
aF0.9
aF6.1
aF-1.8
aI0
aI0
aI5
aV201589,1610612763
p464
aa(lp465
I201954
aVDarren Collison
p466
aI1610612742
aVDAL
p467
aF25.0
aI81
aI41
aI40
aF0.506
aF29.3
aF4.2
aF8.9
aF0.471
aF0.6
aF1.7
aF0.353
aF3.0
aF3.4
aF0.88
aF0.4
aF2.3
aF2.7
aF5.1
aF2.1
aF1.2
aF0.1
aF0.7
aF1.7
aF2.8
aF12.0
aF-1.0
aI3
aI0
aI5
aV201954,1610612742
p468
aa(lp469
I101135
aVDavid Lee
p470
aI1610612744
aVGSW
p471
aF30.0
aI79
aI46
aI33
aF0.582
aF36.8
aF7.6
aF14.7
aF0.519
aF0.0
aF0.1
aF0.0
aF3.2
aF4.1
aF0.797
aF2.8
aF8.5
aF11.2
aF3.5
aF2.6
aF0.8
aF0.3
aF1.3
aF3.1
aF3.1
aF18.5
aF2.3
aI56
aI1
aI5
aV101135,1610612744
p472
aa(lp473
I2561
aVDavid West
p474
aI1610612754
aVIND
p475
aF32.0
aI73
aI43
aI30
aF0.589
aF33.4
aF6.9
aF13.8
aF0.498
aF0.1
aF0.3
aF0.211
aF3.3
aF4.3
aF0.768
aF2.0
aF5.7
aF7.7
aF2.9
aF2.2
aF1.0
aF0.9
aF0.8
aF2.0
aF3.9
aF17.1
aF5.0
aI16
aI1
aI5
aV2561,1610612754
p476
aa(lp477
I201599
aVDeAndre Jordan
p478
aI1610612746
aVLAC
p479
aF24.0
aI82
aI56
aI26
aF0.683
aF24.5
aF3.8
aF6.0
aF0.643
aF0.0
aF0.0
aF0.0
aF1.2
aF3.0
aF0.386
aF2.6
aF4.7
aF7.2
aF0.3
aF1.2
aF0.6
aF1.4
aF0.4
aF2.3
aF2.5
aF8.8
aF3.4
aI12
aI0
aI5
aV201599,1610612746
p480
aa(lp481
I202732
aVDeAndre Liggins
p482
aI1610612760
aVOKC
p483
aF25.0
aI39
aI30
aI9
aF0.769
aF7.4
aF0.5
aF1.2
aF0.447
aF0.2
aF0.5
aF0.368
aF0.2
aF0.5
aF0.5
aF0.3
aF1.0
aF1.4
aF0.4
aF0.4
aF0.5
aF0.1
aF0.2
aF0.8
aF0.5
aF1.5
aF-0.7
aI0
aI0
aI5
aV202732,1610612760
p484
aa(lp485
I201971
aVDeJuan Blair
p486
aI1610612759
aVSAS
p487
aF24.0
aI61
aI44
aI17
aF0.721
aF14.0
aF2.3
aF4.4
aF0.524
aF0.0
aF0.0
aF0.0
aF0.7
aF1.1
aF0.629
aF1.1
aF2.7
aF3.8
aF0.7
aF0.8
aF0.6
aF0.2
aF0.4
aF1.8
aF0.9
aF5.4
aF-0.4
aI1
aI0
aI5
aV201971,1610612759
p488
aa(lp489
I201942
aVDeMar DeRozan
p490
aI1610612761
aVTOR
p491
aF23.0
aI82
aI34
aI48
aF0.415
aF36.7
aF6.7
aF15.0
aF0.445
aF0.4
aF1.5
aF0.283
aF4.3
aF5.2
aF0.831
aF0.6
aF3.3
aF3.9
aF2.5
aF1.8
aF0.9
aF0.3
aF1.0
aF2.1
aF4.1
aF18.1
aF-1.4
aI0
aI0
aI5
aV201942,1610612761
p492
aa(lp493
I202326
aVDeMarcus Cousins
p494
aI1610612758
aVSAC
p495
aF22.0
aI75
aI26
aI49
aF0.347
aF30.5
aF6.4
aF13.8
aF0.465
aF0.1
aF0.3
aF0.182
aF4.2
aF5.6
aF0.738
aF3.0
aF7.0
aF9.9
aF2.7
aF3.0
aF1.4
aF0.7
aF1.3
aF3.6
aF5.3
aF17.1
aF-4.0
aI35
aI1
aI5
aV202326,1610612758
p496
aa(lp497
I201960
aVDeMarre Carroll
p498
aI1610612762
aVUTA
p499
aF26.0
aI66
aI34
aI32
aF0.515
aF16.8
aF2.3
aF4.9
aF0.46
aF0.3
aF1.1
aF0.286
aF1.1
aF1.5
aF0.765
aF1.3
aF1.5
aF2.8
aF0.9
aF0.5
aF0.9
aF0.4
aF0.4
aF1.8
aF1.1
aF6.0
aF1.8
aI0
aI0
aI5
aV201960,1610612762
p500
aa(lp501
I203199
aVDeQuan Jones
p502
aI1610612753
aVORL
p503
aF23.0
aI63
aI14
aI49
aF0.222
aF12.7
aF1.5
aF3.5
aF0.436
aF0.1
aF0.6
aF0.257
aF0.5
aF0.8
aF0.667
aF0.3
aF1.4
aF1.7
aF0.3
aF0.5
aF0.3
aF0.3
aF0.2
aF0.9
aF0.7
aF3.7
aF-2.8
aI0
aI0
aI5
aV203199,1610612753
p504
aa(lp505
I2205
aVDeSagana Diop
p506
aI1610612766
aVCHA
p507
aF31.0
aI22
aI3
aI19
aF0.136
aF10.3
aF0.4
aF1.2
aF0.296
aF0.0
aF0.0
aF0.0
aF0.0
aF0.0
aF0.0
aF0.5
aF1.9
aF2.3
aF0.6
aF0.4
aF0.2
aF0.7
aF0.0
aF0.9
aF0.1
aF0.7
aF-1.2
aI0
aI0
aI5
aV2205,1610612766
p508
aa(lp509
I2052
aVDeShawn Stevenson
p510
aI1610612737
aVATL
p511
aF32.0
aI56
aI30
aI26
aF0.536
aF20.7
aF1.8
aF4.7
aF0.374
aF1.4
aF3.7
aF0.364
aF0.2
aF0.4
aF0.522
aF0.3
aF1.9
aF2.2
aF0.9
aF0.4
aF0.5
aF0.1
aF0.1
aF1.2
aF0.6
aF5.1
aF-0.9
aI0
aI0
aI5
aV2052,1610612737
p512
aa(lp513
I965
aVDerek Fisher
p514
aI1610612760
aVOKC
p515
aF38.0
aI33
aI22
aI11
aF0.667
aF17.4
aF1.7
aF4.9
aF0.342
aF0.9
aF2.4
aF0.375
aF1.1
aF1.2
aF0.921
aF0.1
aF1.1
aF1.1
aF1.4
aF0.9
aF0.6
aF0.1
aF0.2
aF1.7
aF1.5
aF5.3
aF1.9
aI0
aI0
aI5
aV965,1610612760
p516
aa(lp517
I101114
aVDeron Williams
p518
aI1610612751
aVBKN
p519
aF29.0
aI78
aI46
aI32
aF0.59
aF36.4
aF6.3
aF14.4
aF0.44
aF2.2
aF5.7
aF0.378
aF4.1
aF4.7
aF0.859
aF0.4
aF2.6
aF3.0
aF7.7
aF2.8
aF1.0
aF0.4
aF0.7
aF2.5
aF4.1
aF18.9
aF2.1
aI21
aI0
aI5
aV101114,1610612751
p520
aa(lp521
I202324
aVDerrick Favors
p522
aI1610612762
aVUTA
p523
aF21.0
aI77
aI40
aI37
aF0.519
aF23.2
aF3.6
aF7.4
aF0.482
aF0.0
aF0.1
aF0.0
aF2.3
aF3.4
aF0.688
aF2.4
aF4.7
aF7.1
aF1.0
aF1.7
aF0.9
aF1.7
aF0.8
aF3.2
aF2.7
aF9.4
aF-0.1
aI9
aI0
aI5
aV202324,1610612762
p524
aa(lp525
I202682
aVDerrick Williams
p526
aI1610612750
aVMIN
p527
aF22.0
aI78
aI29
aI49
aF0.372
aF24.6
aF4.3
aF10.1
aF0.43
aF0.8
aF2.5
aF0.332
aF2.5
aF3.5
aF0.706
aF1.2
aF4.3
aF5.5
aF0.6
aF1.3
aF0.6
aF0.5
aF0.9
aF1.6
aF2.4
aF12.0
aF-2.5
aI8
aI0
aI5
aV202682,1610612750
p528
aa(lp529
I202365
aVDevin Ebanks
p530
aI1610612747
aVLAL
p531
aF23.0
aI19
aI8
aI11
aF0.421
aF10.3
aF1.3
aF3.8
aF0.329
aF0.3
aF1.2
aF0.273
aF0.6
aF0.7
aF0.786
aF0.5
aF1.6
aF2.2
aF0.5
aF0.6
aF0.2
aF0.1
aF0.4
aF1.2
aF0.6
aF3.4
aF-1.1
aI0
aI0
aI5
aV202365,1610612747
p532
aa(lp533
I2734
aVDevin Harris
p534
aI1610612737
aVATL
p535
aF30.0
aI58
aI35
aI23
aF0.603
aF24.5
aF3.3
aF7.6
aF0.438
aF1.3
aF4.0
aF0.335
aF1.9
aF2.7
aF0.727
aF0.1
aF1.9
aF2.0
aF3.4
aF1.5
aF1.1
aF0.2
aF0.3
aF1.8
aF2.6
aF9.9
aF2.7
aI0
aI0
aI5
aV2734,1610612737
p536
aa(lp537
I202354
aVDexter Pittman
p538
aI1610612763
aVMEM
p539
aF25.0
aI11
aI9
aI2
aF0.818
aF2.9
aF0.4
aF1.0
aF0.364
aF0.0
aF0.0
aF0.0
aF0.0
aF0.3
aF0.0
aF0.6
aF0.5
aF1.1
aF0.0
aF0.3
aF0.0
aF0.0
aF0.4
aF0.7
aF0.3
aF0.7
aF-2.6
aI0
aI0
aI5
aV202354,1610612763
p540
aa(lp541
I203197
aVDiante Garrett
p542
aI1610612756
aVPHX
p543
aF24.0
aI19
aI3
aI16
aF0.158
aF7.9
aF0.8
aF2.6
aF0.327
aF0.2
aF0.8
aF0.2
aF0.3
aF0.5
aF0.5
aF0.3
aF0.5
aF0.8
aF1.6
aF0.8
aF0.5
aF0.0
aF0.2
aF0.3
aF0.4
aF2.1
aF-2.5
aI0
aI0
aI5
aV203197,1610612756
p544
aa(lp545
I203079
aVDion Waiters
p546
aI1610612739
aVCLE
p547
aF21.0
aI61
aI20
aI41
aF0.328
aF28.8
aF5.5
aF13.4
aF0.412
aF1.0
aF3.3
aF0.31
aF2.6
aF3.5
aF0.746
aF0.4
aF2.1
aF2.4
aF3.0
aF2.0
aF1.0
aF0.3
aF1.1
aF1.9
aF2.5
aF14.7
aF-2.5
aI0
aI0
aI5
aV203079,1610612739
p548
aa(lp549
I1717
aVDirk Nowitzki
p550
aI1610612742
aVDAL
p551
aF35.0
aI53
aI28
aI25
aF0.528
aF31.3
aF6.5
aF13.7
aF0.471
aF1.2
aF3.0
aF0.414
aF3.1
aF3.6
aF0.86
aF0.7
aF6.2
aF6.8
aF2.5
aF1.3
aF0.7
aF0.7
aF0.3
aF1.8
aF3.9
aF17.3
aF1.1
aI6
aI0
aI5
aV1717,1610612742
p552
aa(lp553
I201187
aVDominic McGuire
p554
aI1610612754
aVIND
p555
aF27.0
aI26
aI7
aI19
aF0.269
aF14.9
aF0.9
aF2.2
aF0.429
aF0.0
aF0.0
aF0.0
aF0.1
aF0.4
aF0.3
aF0.7
aF2.3
aF3.0
aF0.8
aF0.5
aF0.5
aF0.4
aF0.2
aF1.5
aF0.3
aF2.0
aF-3.9
aI0
aI0
aI5
aV201187,1610612754
p556
aa(lp557
I202346
aVDominique Jones
p558
aI1610612742
aVDAL
p559
aF24.0
aI29
aI9
aI20
aF0.31
aF11.6
aF1.4
aF3.8
aF0.367
aF0.0
aF0.3
aF0.111
aF1.2
aF1.8
aF0.66
aF0.6
aF0.9
aF1.6
aF2.9
aF1.3
aF0.5
aF0.1
aF0.3
aF1.0
aF1.3
aF4.0
aF-0.8
aI0
aI0
aI5
aV202346,1610612742
p560
aa(lp561
I202388
aVDonald Sloan
p562
aI1610612740
aVNOH
p563
aF25.0
aI23
aI6
aI17
aF0.261
aF11.4
aF1.2
aF3.4
aF0.346
aF0.3
aF0.8
aF0.368
aF0.9
aF1.1
aF0.8
aF0.1
aF1.1
aF1.2
aF1.7
aF0.6
aF0.2
aF0.0
aF0.6
aF0.7
aF1.0
aF3.5
aF-2.9
aI0
aI0
aI5
aV202388,1610612740
p564
aa(lp565
I202700
aVDonatas Motiejunas
p566
aI1610612745
aVHOU
p567
aF22.0
aI44
aI27
aI17
aF0.614
aF12.2
aF2.2
aF4.8
aF0.455
aF0.5
aF1.9
aF0.289
aF0.7
aF1.2
aF0.627
aF0.8
aF1.3
aF2.1
aF0.7
aF0.8
aF0.2
aF0.2
aF0.2
aF1.7
aF1.3
aF5.7
aF0.9
aI0
aI0
aI5
aV202700,1610612745
p568
aa(lp569
I2748
aVDorell Wright
p570
aI1610612755
aVPHI
p571
aF27.0
aI79
aI32
aI47
aF0.405
aF22.6
aF3.0
aF7.6
aF0.396
aF1.7
aF4.6
aF0.374
aF1.5
aF1.8
aF0.851
aF0.5
aF3.3
aF3.8
aF1.9
aF0.8
aF0.8
aF0.4
aF0.2
aF1.2
aF1.4
aF9.2
aF-2.3
aI0
aI0
aI5
aV2748,1610612755
p572
aa(lp573
I203117
aVDoron Lamb
p574
aI1610612753
aVORL
p575
aF21.0
aI47
aI16
aI31
aF0.34
aF12.3
aF1.3
aF3.5
aF0.368
aF0.3
aF0.8
aF0.378
aF0.4
aF0.7
aF0.588
aF0.2
aF0.8
aF1.0
aF0.7
aF0.6
aF0.3
aF0.0
aF0.2
aF1.1
aF0.7
aF3.3
aF-1.7
aI0
aI0
aI5
aV203117,1610612753
p576
aa(lp577
I203110
aVDraymond Green
p578
aI1610612744
aVGSW
p579
aF23.0
aI79
aI45
aI34
aF0.57
aF13.4
aF1.1
aF3.3
aF0.327
aF0.2
aF0.8
aF0.209
aF0.6
aF0.7
aF0.818
aF0.7
aF2.6
aF3.3
aF0.7
aF0.6
aF0.5
aF0.3
aF0.2
aF2.0
aF0.7
aF2.9
aF-1.0
aI0
aI0
aI5
aV203110,1610612744
p580
aa(lp581
I2400
aVDrew Gooden
p582
aI1610612749
aVMIL
p583
aF31.0
aI16
aI9
aI7
aF0.563
aF9.5
aF1.3
aF3.8
aF0.328
aF0.1
aF0.3
aF0.2
aF0.7
aF1.0
aF0.688
aF0.8
aF1.1
aF1.9
aF0.4
aF0.6
aF0.3
aF0.4
aF0.5
aF1.3
aF0.9
aF3.3
aF-1.0
aI0
aI0
aI5
aV2400,1610612749
p584
aa(lp585
I2730
aVDwight Howard
p586
aI1610612747
aVLAL
p587
aF27.0
aI76
aI42
aI34
aF0.553
aF35.8
aF6.2
aF10.7
aF0.578
aF0.0
aF0.1
aF0.167
aF4.7
aF9.5
aF0.492
aF3.3
aF9.1
aF12.4
aF1.4
aF3.0
aF1.1
aF2.4
aF1.0
aF3.8
aF7.9
aF17.1
aF1.8
aI48
aI0
aI5
aV2730,1610612747
p588
aa(lp589
I2548
aVDwyane Wade
p590
aI1610612748
aVMIA
p591
aF31.0
aI69
aI55
aI14
aF0.797
aF34.6
aF8.2
aF15.8
aF0.521
aF0.2
aF1.0
aF0.258
aF4.5
aF6.2
aF0.725
aF1.2
aF3.7
aF5.0
aF5.1
aF2.8
aF1.9
aF0.8
aF0.5
aF2.0
aF4.7
aF21.2
aF8.3
aI4
aI0
aI5
aV2548,1610612748
p592
aa(lp593
I202734
aVE'Twaun Moore
p594
aI1610612753
aVORL
p595
aF24.0
aI75
aI19
aI56
aF0.253
aF22.4
aF3.2
aF8.0
aF0.396
aF0.9
aF2.6
aF0.34
aF0.6
aF0.8
aF0.797
aF0.6
aF1.6
aF2.2
aF2.7
aF1.4
aF0.7
aF0.3
aF0.2
aF1.6
aF1.0
aF7.8
aF-4.1
aI1
aI0
aI5
aV202734,1610612753
p596
aa(lp597
I2853
aVEarl Barron
p598
aI1610612752
aVNYK
p599
aF31.0
aI12
aI1
aI11
aF0.083
aF13.2
aF1.5
aF4.3
aF0.353
aF0.0
aF0.0
aF0.0
aF0.3
aF0.6
aF0.429
aF1.8
aF3.3
aF5.1
aF0.4
aF0.9
aF0.4
aF0.5
aF0.2
aF2.0
aF0.6
aF3.3
aF-1.5
aI1
aI0
aI5
aV2853,1610612752
p600
aa(lp601
I201947
aVEarl Clark
p602
aI1610612747
aVLAL
p603
aF25.0
aI59
aI37
aI22
aF0.627
aF23.1
aF2.9
aF6.5
aF0.44
aF0.6
aF1.8
aF0.337
aF0.9
aF1.3
aF0.697
aF1.4
aF4.1
aF5.5
aF1.1
aF1.1
aF0.6
aF0.7
aF0.5
aF1.7
aF0.9
aF7.3
aF-1.4
aI11
aI0
aI5
aV201947,1610612747
p604
aa(lp605
I2248
aVEarl Watson
p606
aI1610612762
aVUTA
p607
aF34.0
aI48
aI24
aI24
aF0.5
aF17.3
aF0.8
aF2.5
aF0.308
aF0.1
aF0.6
aF0.179
aF0.4
aF0.5
aF0.68
aF0.5
aF1.3
aF1.8
aF4.0
aF1.4
aF0.8
aF0.2
aF0.1
aF2.0
aF0.7
aF2.0
aF-1.0
aI0
aI0
aI5
aV2248,1610612762
p608
aa(lp609
I202334
aVEd Davis
p610
aI1610612763
aVMEM
p611
aF24.0
aI81
aI43
aI38
aF0.531
aF20.1
aF3.2
aF6.0
aF0.539
aF0.0
aF0.0
aF0.0
aF1.3
aF2.1
aF0.617
aF1.9
aF3.8
aF5.7
aF0.8
aF0.8
aF0.5
aF1.0
aF0.5
aF2.4
aF1.5
aF7.7
aF-0.4
aI9
aI0
aI5
aV202334,1610612763
p612
aa(lp613
I2201
aVEddy Curry
p614
aI1610612742
aVDAL
p615
aF30.0
aI2
aI1
aI1
aF0.5
aF12.4
aF2.0
aF4.0
aF0.5
aF0.0
aF0.0
aF0.0
aF0.5
aF2.0
aF0.25
aF1.0
aF1.0
aF2.0
aF0.0
aF1.5
aF0.0
aF0.0
aF1.0
aF3.5
aF1.0
aF4.5
aF3.0
aI0
aI0
aI5
aV2201,1610612742
p616
aa(lp617
I202327
aVEkpe Udoh
p618
aI1610612749
aVMIL
p619
aF26.0
aI76
aI36
aI40
aF0.474
aF17.3
aF1.5
aF3.5
aF0.435
aF0.0
aF0.0
aF0.0
aF1.2
aF1.6
aF0.748
aF1.5
aF1.8
aF3.3
aF0.6
aF0.6
aF0.5
aF1.1
aF0.3
aF1.8
aF1.3
aF4.3
aF-0.8
aI1
aI0
aI5
aV202327,1610612749
p620
aa(lp621
I1882
aVElton Brand
p622
aI1610612742
aVDAL
p623
aF34.0
aI72
aI35
aI37
aF0.486
aF21.2
aF3.1
aF6.6
aF0.473
aF0.0
aF0.0
aF0.0
aF0.9
aF1.3
aF0.71
aF1.8
aF4.2
aF6.0
aF1.0
aF0.8
aF0.7
aF1.3
aF0.3
aF2.7
aF1.3
aF7.2
aF-0.8
aI8
aI0
aI5
aV1882,1610612742
p624
aa(lp625
I2731
aVEmeka Okafor
p626
aI1610612764
aVWAS
p627
aF30.0
aI79
aI27
aI52
aF0.342
aF26.0
aF4.2
aF8.7
aF0.477
aF0.0
aF0.0
aF0.0
aF1.4
aF2.4
aF0.571
aF2.5
aF6.2
aF8.8
aF1.2
aF1.4
aF0.6
aF1.0
aF0.6
aF1.8
aF2.1
aF9.7
aF-0.6
aI20
aI0
aI5
aV2731,1610612764
p628
aa(lp629
I202683
aVEnes Kanter
p630
aI1610612762
aVUTA
p631
aF21.0
aI70
aI35
aI35
aF0.5
aF15.4
aF2.9
aF5.4
aF0.544
aF0.0
aF0.0
aF1.0
aF1.3
aF1.7
aF0.795
aF1.9
aF2.4
aF4.3
aF0.4
aF1.4
aF0.4
aF0.5
aF0.6
aF1.7
aF1.7
aF7.2
aF1.6
aI2
aI0
aI5
aV202683,1610612762
p632
aa(lp633
I202339
aVEric Bledsoe
p634
aI1610612746
aVLAC
p635
aF23.0
aI76
aI52
aI24
aF0.684
aF20.4
aF3.3
aF7.5
aF0.445
aF0.4
aF1.0
aF0.397
aF1.4
aF1.8
aF0.791
aF1.0
aF1.9
aF3.0
aF3.1
aF1.8
aF1.4
aF0.7
aF0.5
aF1.5
aF1.8
aF8.5
aF1.7
aI2
aI0
aI5
aV202339,1610612746
p636
aa(lp637
I201569
aVEric Gordon
p638
aI1610612740
aVNOH
p639
aF24.0
aI42
aI16
aI26
aF0.381
aF30.1
aF5.6
aF13.9
aF0.402
aF1.3
aF4.1
aF0.324
aF4.5
aF5.3
aF0.842
aF0.2
aF1.6
aF1.8
aF3.3
aF2.8
aF1.1
aF0.2
aF0.9
aF1.8
aF4.1
aF17.0
aF-0.8
aI0
aI0
aI5
aV201569,1610612740
p640
aa(lp641
I201953
aVEric Maynor
p642
aI1610612757
aVPOR
p643
aF26.0
aI64
aI40
aI24
aF0.625
aF15.0
aF1.7
aF4.4
aF0.377
aF0.5
aF1.5
aF0.354
aF0.7
aF1.0
aF0.726
aF0.1
aF0.6
aF0.7
aF2.8
aF1.2
aF0.3
aF0.0
aF0.2
aF0.9
aF0.8
aF4.5
aF-1.2
aI0
aI0
aI5
aV201953,1610612757
p644
aa(lp645
I101141
aVErsan Ilyasova
p646
aI1610612749
aVMIL
p647
aF26.0
aI73
aI34
aI39
aF0.466
aF27.6
aF5.1
aF11.0
aF0.462
aF1.3
aF2.9
aF0.444
aF1.7
aF2.2
aF0.796
aF2.1
aF5.0
aF7.1
aF1.6
aF1.0
aF0.9
aF0.5
aF0.6
aF2.5
aF2.6
aF13.2
aF0.2
aI18
aI0
aI5
aV101141,1610612749
p648
aa(lp649
I203095
aVEvan Fournier
p650
aI1610612743
aVDEN
p651
aF20.0
aI38
aI25
aI13
aF0.658
aF11.3
aF2.0
aF4.0
aF0.493
aF0.6
aF1.4
aF0.407
aF0.8
aF1.0
aF0.769
aF0.2
aF0.8
aF0.9
aF1.2
aF0.8
aF0.5
aF0.0
aF0.6
aF1.7
aF0.8
aF5.3
aF1.6
aI0
aI0
aI5
aV203095,1610612743
p652
aa(lp653
I202323
aVEvan Turner
p654
aI1610612755
aVPHI
p655
aF24.0
aI82
aI34
aI48
aF0.415
aF35.3
aF5.4
aF12.8
aF0.419
aF0.7
aF1.9
aF0.365
aF1.9
aF2.5
aF0.74
aF0.7
aF5.6
aF6.3
aF4.3
aF2.3
aF0.9
aF0.2
aF1.1
aF2.4
aF2.5
aF13.3
aF-2.6
aI14
aI0
aI5
aV202323,1610612755
p656
aa(lp657
I203097
aVFab Melo
p658
aI1610612738
aVBOS
p659
aF23.0
aI6
aI3
aI3
aF0.5
aF6.0
aF0.5
aF1.0
aF0.5
aF0.0
aF0.0
aF0.0
aF0.2
aF0.7
aF0.25
aF0.0
aF0.5
aF0.5
aF0.0
aF0.2
aF0.3
aF0.3
aF0.0
aF1.2
aF0.3
aF1.2
aF-1.2
aI0
aI0
aI5
aV203097,1610612738
p660
aa(lp661
I203105
aVFestus Ezeli
p662
aI1610612744
aVGSW
p663
aF23.0
aI78
aI44
aI34
aF0.564
aF14.4
aF0.9
aF2.2
aF0.438
aF0.0
aF0.0
aF0.0
aF0.6
aF1.0
aF0.531
aF1.8
aF2.2
aF4.0
aF0.3
aF0.8
aF0.3
aF0.9
aF0.3
aF2.0
aF1.0
aF2.4
aF-0.7
aI0
aI0
aI5
aV203105,1610612744
p664
aa(lp665
I101128
aVFrancisco Garcia
p666
aI1610612745
aVHOU
p667
aF31.0
aI58
aI24
aI34
aF0.414
aF17.7
aF2.0
aF5.2
aF0.393
aF1.2
aF3.1
aF0.374
aF0.3
aF0.4
aF0.857
aF0.1
aF1.4
aF1.6
aF1.1
aF0.6
aF0.8
aF0.7
aF0.1
aF1.5
aF0.3
aF5.5
aF-0.9
aI0
aI0
aI5
aV101128,1610612745
p668
aa(lp669
I202066
aVGarrett Temple
p670
aI1610612764
aVWAS
p671
aF27.0
aI51
aI24
aI27
aF0.471
aF22.7
aF2.1
aF5.1
aF0.407
aF0.5
aF1.6
aF0.325
aF0.5
aF0.7
aF0.703
aF0.6
aF1.8
aF2.4
aF2.3
aF1.2
aF1.0
aF0.3
aF0.2
aF1.8
aF1.1
aF5.1
aF-0.4
aI0
aI0
aI5
aV202066,1610612764
p672
aa(lp673
I202390
aVGary Neal
p674
aI1610612759
aVSAS
p675
aF28.0
aI68
aI47
aI21
aF0.691
aF21.8
aF3.6
aF8.8
aF0.412
aF1.3
aF3.7
aF0.355
aF0.9
aF1.1
aF0.865
aF0.2
aF1.9
aF2.1
aF1.9
aF1.0
aF0.4
aF0.0
aF0.3
aF1.4
aF1.0
aF9.5
aF1.5
aI0
aI0
aI5
aV202390,1610612759
p676
aa(lp677
I201588
aVGeorge Hill
p678
aI1610612754
aVIND
p679
aF27.0
aI76
aI46
aI30
aF0.605
aF34.5
aF5.1
aF11.5
aF0.443
aF1.7
aF4.6
aF0.368
aF2.3
aF2.8
aF0.817
aF0.6
aF3.1
aF3.7
aF4.7
aF1.5
aF1.1
aF0.3
aF0.4
aF1.8
aF2.7
aF14.2
aF5.5
aI3
aI0
aI5
aV201588,1610612754
p680
aa(lp681
I101123
aVGerald Green
p682
aI1610612754
aVIND
p683
aF27.0
aI60
aI37
aI23
aF0.617
aF18.0
aF2.6
aF7.1
aF0.366
aF1.0
aF3.1
aF0.314
aF0.9
aF1.1
aF0.8
aF0.5
aF1.8
aF2.4
aF0.8
aF0.9
aF0.3
aF0.4
aF0.3
aF1.1
aF0.9
aF7.0
aF-0.2
aI0
aI0
aI5
aV101123,1610612754
p684
aa(lp685
I201945
aVGerald Henderson
p686
aI1610612766
aVCHA
p687
aF25.0
aI68
aI15
aI53
aF0.221
aF31.4
aF5.6
aF12.6
aF0.447
aF0.5
aF1.5
aF0.33
aF3.8
aF4.6
aF0.824
aF0.8
aF2.9
aF3.7
aF2.6
aF1.6
aF1.0
aF0.5
aF0.7
aF2.2
aF4.2
aF15.5
aF-5.9
aI2
aI0
aI5
aV201945,1610612766
p688
aa(lp689
I2222
aVGerald Wallace
p690
aI1610612751
aVBKN
p691
aF30.0
aI69
aI41
aI28
aF0.594
aF30.1
aF2.6
aF6.6
aF0.397
aF0.7
aF2.4
aF0.282
aF1.8
aF2.8
aF0.637
aF1.0
aF3.6
aF4.6
aF2.6
aF1.6
aF1.4
aF0.7
aF0.4
aF1.7
aF2.7
aF7.7
aF2.1
aI3
aI0
aI5
aV2222,1610612751
p692
aa(lp693
I201175
aVGlen Davis
p694
aI1610612753
aVORL
p695
aF27.0
aI34
aI13
aI21
aF0.382
aF31.3
aF6.3
aF14.1
aF0.448
aF0.0
aF0.1
aF0.0
aF2.5
aF3.4
aF0.718
aF1.6
aF5.6
aF7.2
aF2.1
aF1.9
aF0.9
aF0.6
aF1.3
aF2.6
aF3.7
aF15.1
aF-0.8
aI10
aI0
aI5
aV201175,1610612753
p696
aa(lp697
I201609
aVGoran Dragic
p698
aI1610612756
aVPHX
p699
aF27.0
aI77
aI25
aI52
aF0.325
aF33.5
aF5.2
aF11.8
aF0.443
aF1.1
aF3.6
aF0.319
aF3.2
aF4.2
aF0.748
aF0.8
aF2.3
aF3.1
aF7.4
aF2.8
aF1.6
aF0.3
aF0.5
aF2.8
aF3.9
aF14.7
aF-3.1
aI19
aI0
aI5
aV201609,1610612756
p700
aa(lp701
I202330
aVGordon Hayward
p702
aI1610612762
aVUTA
p703
aF23.0
aI72
aI37
aI35
aF0.514
aF29.2
aF4.7
aF10.7
aF0.435
aF1.4
aF3.4
aF0.415
aF3.4
aF4.1
aF0.827
aF0.7
aF2.4
aF3.1
aF3.0
aF1.7
aF0.8
aF0.5
aF0.7
aF1.7
aF3.6
aF14.1
aF1.5
aI0
aI0
aI5
aV202330,1610612762
p704
aa(lp705
I255
aVGrant Hill
p706
aI1610612746
aVLAC
p707
aF40.0
aI29
aI15
aI14
aF0.517
aF15.1
aF1.3
aF3.4
aF0.388
aF0.1
aF0.4
aF0.273
aF0.5
aF0.8
aF0.583
aF0.2
aF1.5
aF1.7
aF0.9
aF0.9
aF0.4
aF0.2
aF0.2
aF1.3
aF0.8
aF3.2
aF0.0
aI0
aI0
aI5
aV255,1610612746
p708
aa(lp709
I202328
aVGreg Monroe
p710
aI1610612765
aVDET
p711
aF23.0
aI81
aI29
aI52
aF0.358
aF33.2
aF6.3
aF13.1
aF0.486
aF0.0
aF0.0
aF0.0
aF3.3
aF4.8
aF0.689
aF2.9
aF6.7
aF9.6
aF3.5
aF2.9
aF1.3
aF0.7
aF1.5
aF2.3
aF4.0
aF16.0
aF-2.8
aI37
aI1
aI5
aV202328,1610612765
p712
aa(lp713
I202962
aVGreg Smith
p714
aI1610612745
aVHOU
p715
aF22.0
aI70
aI41
aI29
aF0.586
aF15.9
aF2.4
aF3.9
aF0.62
aF0.0
aF0.0
aF0.0
aF1.2
aF1.9
aF0.623
aF1.6
aF3.0
aF4.6
aF0.4
aF0.6
aF0.3
aF0.6
aF0.5
aF2.5
aF1.3
aF6.0
aF1.7
aI2
aI0
aI5
aV202962,1610612745
p716
aa(lp717
I201880
aVGreg Stiemsma
p718
aI1610612750
aVMIN
p719
aF27.0
aI76
aI28
aI48
aF0.368
aF15.9
aF1.7
aF3.7
aF0.457
aF0.0
aF0.0
aF0.0
aF0.7
aF0.9
aF0.768
aF0.8
aF2.6
aF3.4
aF0.4
aF0.8
aF0.6
aF1.2
aF0.3
aF2.4
aF1.4
aF4.0
aF-1.1
aI1
aI0
aI5
aV201880,1610612750
p720
aa(lp721
I202349
aVGreivis Vasquez
p722
aI1610612740
aVNOH
p723
aF26.0
aI78
aI26
aI52
aF0.333
aF34.4
aF5.6
aF13.0
aF0.433
aF1.1
aF3.1
aF0.342
aF1.6
aF2.0
aF0.805
aF0.6
aF3.8
aF4.3
aF9.0
aF3.2
aF0.8
aF0.1
aF0.8
aF2.4
aF2.4
aF13.9
aF-2.4
aI25
aI1
aI5
aV202349,1610612740
p724
aa(lp725
I202970
aVGustavo Ayon
p726
aI1610612749
aVMIL
p727
aF28.0
aI55
aI17
aI38
aF0.309
aF13.4
aF1.7
aF3.0
aF0.551
aF0.0
aF0.0
aF0.0
aF0.4
aF0.9
aF0.4
aF1.1
aF2.5
aF3.6
aF1.3
aF0.9
aF0.4
aF0.3
aF0.3
aF1.9
aF1.0
aF3.7
aF-0.2
aI2
aI0
aI5
aV202970,1610612749
p728
aa(lp729
I101124
aVHakim Warrick
p730
aI1610612766
aVCHA
p731
aF30.0
aI28
aI6
aI22
aF0.214
aF17.5
aF2.4
aF5.9
aF0.406
aF0.0
aF0.1
aF0.0
aF2.1
aF3.1
aF0.682
aF0.8
aF2.4
aF3.2
aF0.9
aF1.0
aF0.5
aF0.2
aF0.8
aF1.3
aF2.1
aF6.9
aF-4.8
aI1
aI0
aI5
aV101124,1610612766
p732
aa(lp733
I201632
aVHamed Haddadi
p734
aI1610612756
aVPHX
p735
aF28.0
aI30
aI10
aI20
aF0.333
aF10.7
aF1.2
aF2.7
aF0.427
aF0.0
aF0.0
aF0.0
aF0.5
aF0.9
aF0.519
aF1.4
aF2.3
aF3.7
aF0.4
aF1.0
aF0.2
aF0.9
aF0.2
aF2.0
aF0.8
aF2.8
aF0.0
aI0
aI0
aI5
aV201632,1610612756
p736
aa(lp737
I203084
aVHarrison Barnes
p738
aI1610612744
aVGSW
p739
aF21.0
aI81
aI46
aI35
aF0.568
aF25.4
aF3.4
aF7.8
aF0.439
aF0.6
aF1.8
aF0.359
aF1.8
aF2.3
aF0.758
aF0.7
aF3.5
aF4.1
aF1.2
aF1.2
aF0.6
aF0.2
aF0.6
aF1.7
aF2.0
aF9.2
aF0.6
aI4
aI0
aI5
aV203084,1610612744
p740
aa(lp741
I201934
aVHasheem Thabeet
p742
aI1610612760
aVOKC
p743
aF26.0
aI66
aI50
aI16
aF0.758
aF11.7
aF1.0
aF1.6
aF0.604
aF0.0
aF0.0
aF0.0
aF0.5
aF0.8
aF0.604
aF1.0
aF1.9
aF3.0
aF0.2
aF0.6
aF0.5
aF0.9
aF0.2
aF2.2
aF1.0
aF2.4
aF2.1
aI1
aI0
aI5
aV201934,1610612760
p744
aa(lp745
I2045
aVHedo Turkoglu
p746
aI1610612753
aVORL
p747
aF34.0
aI11
aI1
aI10
aF0.091
aF17.2
aF1.3
aF4.8
aF0.264
aF0.1
aF2.2
aF0.042
aF0.3
aF0.5
aF0.5
aF0.4
aF2.0
aF2.4
aF2.1
aF1.1
aF0.6
aF0.1
aF0.2
aF1.0
aF1.4
aF2.9
aF-7.5
aI0
aI0
aI5
aV2045,1610612753
p748
aa(lp749
I203156
aVHenry Sims
p750
aI1610612740
aVNOH
p751
aF23.0
aI2
aI0
aI2
aF0.0
aF2.4
aF1.0
aF1.5
aF0.667
aF0.0
aF0.0
aF0.0
aF0.0
aF0.0
aF0.0
aF1.0
aF0.0
aF1.0
aF0.0
aF0.5
aF0.0
aF0.0
aF0.0
aF0.5
aF0.0
aF2.0
aF0.5
aI0
aI0
aI5
aV203156,1610612740
p752
aa(lp753
I101133
aVIan Mahinmi
p754
aI1610612754
aVIND
p755
aF26.0
aI80
aI49
aI31
aF0.613
aF16.5
aF1.9
aF4.1
aF0.453
aF0.0
aF0.0
aF0.0
aF1.3
aF2.1
aF0.608
aF1.4
aF2.5
aF3.9
aF0.3
aF1.2
aF0.5
aF0.8
aF0.4
aF2.5
aF1.9
aF5.0
aF-1.7
aI0
aI0
aI5
aV101133,1610612754
p756
aa(lp757
I202697
aVIman Shumpert
p758
aI1610612752
aVNYK
p759
aF23.0
aI45
aI30
aI15
aF0.667
aF22.1
aF2.4
aF6.1
aF0.396
aF1.1
aF2.8
aF0.402
aF0.8
aF1.0
aF0.766
aF0.7
aF2.3
aF3.0
aF1.7
aF0.8
aF1.0
aF0.2
aF0.4
aF2.2
aF1.4
aF6.8
aF-0.3
aI0
aI0
aI5
aV202697,1610612752
p760
aa(lp761
I202738
aVIsaiah Thomas
p762
aI1610612758
aVSAC
p763
aF24.0
aI79
aI27
aI52
aF0.342
aF26.9
aF4.6
aF10.5
aF0.44
aF1.5
aF4.1
aF0.358
aF3.2
aF3.6
aF0.882
aF0.4
aF1.7
aF2.0
aF4.0
aF1.8
aF0.8
aF0.0
aF0.8
aF2.1
aF3.1
aF13.9
aF-1.7
aI2
aI0
aI5
aV202738,1610612758
p764
aa(lp765
I202397
aVIsh Smith
p766
aI1610612749
aVMIL
p767
aF24.0
aI52
aI14
aI38
aF0.269
aF9.9
aF1.1
aF3.1
aF0.352
aF0.2
aF0.5
aF0.296
aF0.1
aF0.1
aF0.429
aF0.2
aF0.9
aF1.2
aF1.7
aF0.7
aF0.4
aF0.2
aF0.2
aF0.5
aF0.3
aF2.4
aF-1.1
aI0
aI0
aI5
aV202397,1610612749
p768
aa(lp769
I201274
aVIvan Johnson
p770
aI1610612737
aVATL
p771
aF29.0
aI69
aI35
aI34
aF0.507
aF15.0
aF2.7
aF5.2
aF0.52
aF0.0
aF0.2
aF0.077
aF1.2
aF1.9
aF0.618
aF1.1
aF2.8
aF3.9
aF0.7
aF1.0
aF0.8
aF0.2
aF0.7
aF1.9
aF2.0
aF6.6
aF-0.3
aI3
aI0
aI5
aV201274,1610612737
p772
aa(lp773
I2747
aVJ.R. Smith
p774
aI1610612752
aVNYK
p775
aF27.0
aI80
aI53
aI27
aF0.663
aF33.5
aF6.6
aF15.6
aF0.422
aF1.9
aF5.5
aF0.356
aF3.0
aF3.9
aF0.762
aF0.8
aF4.5
aF5.3
aF2.7
aF1.7
aF1.3
aF0.3
aF0.6
aF2.8
aF3.5
aF18.1
aF3.7
aI8
aI0
aI5
aV2747,1610612752
p776
aa(lp777
I201581
aVJJ Hickson
p778
aI1610612757
aVPOR
p779
aF24.0
aI80
aI33
aI47
aF0.413
aF29.0
aF5.2
aF9.3
aF0.562
aF0.0
aF0.0
aF0.0
aF2.3
aF3.4
aF0.679
aF3.3
aF7.0
aF10.4
aF1.1
aF1.8
aF0.6
aF0.6
aF0.9
aF2.0
aF2.7
aF12.7
aF-3.3
aI40
aI0
aI5
aV201581,1610612757
p780
aa(lp781
I200755
aVJJ Redick
p782
aI1610612749
aVMIL
p783
aF29.0
aI78
aI26
aI52
aF0.333
aF30.5
aF4.9
aF11.3
aF0.434
aF2.1
aF5.8
aF0.366
aF2.2
aF2.4
aF0.9
aF0.2
aF2.0
aF2.2
aF3.8
aF1.8
aF0.5
aF0.1
aF0.3
aF1.5
aF2.7
aF14.1
aF-1.2
aI0
aI0
aI5
aV200755,1610612749
p784
aa(lp785
I201580
aVJaVale McGee
p786
aI1610612743
aVDEN
p787
aF25.0
aI79
aI54
aI25
aF0.684
aF18.1
aF3.8
aF6.7
aF0.575
aF0.0
aF0.0
aF1.0
aF1.4
aF2.4
aF0.591
aF2.0
aF2.8
aF4.8
aF0.3
aF1.1
aF0.4
aF2.0
aF0.4
aF2.3
aF1.7
aF9.1
aF0.8
aI2
aI0
aI5
aV201580,1610612743
p788
aa(lp789
I203109
aVJae Crowder
p790
aI1610612742
aVDAL
p791
aF22.0
aI78
aI41
aI37
aF0.526
aF17.3
aF1.8
aF4.7
aF0.384
aF0.8
aF2.5
aF0.328
aF0.6
aF0.9
aF0.644
aF0.4
aF1.9
aF2.4
aF1.2
aF0.6
aF0.8
aF0.2
aF0.2
aF1.6
aF0.9
aF5.0
aF-0.4
aI0
aI0
aI5
aV203109,1610612742
p792
aa(lp793
I2224
aVJamaal Tinsley
p794
aI1610612762
aVUTA
p795
aF35.0
aI66
aI39
aI27
aF0.591
aF18.5
aF1.3
aF3.5
aF0.368
aF0.6
aF1.9
aF0.307
aF0.3
aF0.4
aF0.692
aF0.3
aF1.5
aF1.7
aF4.4
aF1.6
aF1.0
aF0.2
aF0.2
aF1.6
aF0.5
aF3.5
aF0.0
aI0
aI0
aI5
aV2224,1610612762
p796
aa(lp797
I2037
aVJamal Crawford
p798
aI1610612746
aVLAC
p799
aF33.0
aI76
aI51
aI25
aF0.671
aF29.3
aF5.9
aF13.4
aF0.438
aF2.0
aF5.2
aF0.376
aF2.8
aF3.3
aF0.871
aF0.3
aF1.4
aF1.7
aF2.5
aF1.9
aF1.0
aF0.2
aF0.4
aF0.9
aF2.6
aF16.5
aF4.8
aI0
aI0
aI5
aV2037,1610612746
p800
aa(lp801
I2749
aVJameer Nelson
p802
aI1610612753
aVORL
p803
aF31.0
aI56
aI17
aI39
aF0.304
aF35.3
aF5.5
aF13.9
aF0.392
aF2.2
aF6.3
aF0.341
aF1.6
aF1.8
aF0.873
aF0.4
aF3.3
aF3.7
aF7.4
aF2.8
aF1.3
aF0.1
aF0.8
aF2.9
aF2.7
aF14.7
aF-3.0
aI14
aI0
aI5
aV2749,1610612753
p804
aa(lp805
I202341
aVJames Anderson
p806
aI1610612745
aVHOU
p807
aF24.0
aI39
aI26
aI13
aF0.667
aF10.3
aF1.3
aF3.2
aF0.413
aF0.5
aF1.5
aF0.35
aF0.6
aF0.7
aF0.857
aF0.5
aF1.4
aF1.8
aF1.1
aF0.6
aF0.4
aF0.1
aF0.1
aF0.6
aF0.6
aF3.8
aF2.4
aI0
aI0
aI5
aV202341,1610612745
p808
aa(lp809
I201935
aVJames Harden
p810
aI1610612745
aVHOU
p811
aF23.0
aI78
aI43
aI35
aF0.551
aF38.3
aF7.5
aF17.1
aF0.438
aF2.3
aF6.2
aF0.368
aF8.6
aF10.2
aF0.851
aF0.8
aF4.1
aF4.9
aF5.8
aF3.8
aF1.8
aF0.5
aF1.4
aF2.3
aF6.8
aF25.9
aF2.5
aI9
aI1
aI5
aV201935,1610612745
p812
aa(lp813
I201949
aVJames Johnson
p814
aI1610612758
aVSAC
p815
aF26.0
aI54
aI17
aI37
aF0.315
aF16.3
aF2.2
aF5.2
aF0.413
aF0.0
aF0.4
aF0.095
aF0.7
aF1.2
aF0.597
aF0.9
aF1.8
aF2.7
aF1.1
aF1.3
aF0.8
aF0.9
aF0.6
aF1.8
aF1.1
aF5.1
aF-5.2
aI0
aI0
aI5
aV201949,1610612758
p816
aa(lp817
I2592
aVJames Jones
p818
aI1610612748
aVMIA
p819
aF32.0
aI38
aI32
aI6
aF0.842
aF5.8
aF0.6
aF1.6
aF0.344
aF0.4
aF1.4
aF0.302
aF0.1
aF0.1
aF0.5
aF0.0
aF0.6
aF0.6
aF0.3
aF0.1
aF0.1
aF0.2
aF0.0
aF0.4
aF0.1
aF1.6
aF-0.4
aI0
aI0
aI5
aV2592,1610612748
p820
aa(lp821
I200778
aVJames White
p822
aI1610612752
aVNYK
p823
aF30.0
aI57
aI41
aI16
aF0.719
aF7.6
aF0.9
aF2.0
aF0.431
aF0.2
aF0.7
aF0.341
aF0.2
aF0.3
aF0.579
aF0.1
aF0.8
aF0.8
aF0.5
aF0.3
aF0.2
aF0.1
aF0.1
aF0.8
aF0.3
aF2.2
aF-1.5
aI0
aI0
aI5
aV200778,1610612752
p824
aa(lp825
I202686
aVJan Vesely
p826
aI1610612764
aVWAS
p827
aF23.0
aI51
aI15
aI36
aF0.294
aF11.8
aF1.1
aF2.2
aF0.5
aF0.0
aF0.0
aF0.0
aF0.2
aF0.8
aF0.308
aF0.8
aF1.5
aF2.4
aF0.5
aF0.5
aF0.3
aF0.3
aF0.3
aF2.1
aF0.9
aF2.5
aF-0.8
aI0
aI0
aI5
aV202686,1610612764
p828
aa(lp829
I2457
aVJannero Pargo
p830
aI1610612766
aVCHA
p831
aF33.0
aI32
aI11
aI21
aF0.344
aF15.9
aF2.4
aF6.6
aF0.368
aF1.2
aF3.6
aF0.336
aF0.4
aF0.4
aF0.923
aF0.3
aF0.8
aF1.1
aF2.1
aF1.3
aF0.6
aF0.1
aF0.2
aF1.3
aF0.9
aF6.5
aF-2.7
aI0
aI0
aI5
aV2457,1610612766
p832
aa(lp833
I203099
aVJared Cunningham
p834
aI1610612742
aVDAL
p835
aF22.0
aI8
aI4
aI4
aF0.5
aF3.2
aF0.8
aF1.8
aF0.429
aF0.3
aF0.4
aF0.667
aF0.3
aF0.3
aF1.0
aF0.1
aF0.3
aF0.4
aF0.1
aF0.3
aF0.1
aF0.0
aF0.4
aF0.4
aF0.3
aF2.0
aF-1.1
aI0
aI0
aI5
aV203099,1610612742
p836
aa(lp837
I201162
aVJared Dudley
p838
aI1610612756
aVPHX
p839
aF27.0
aI79
aI24
aI55
aF0.304
aF27.5
aF4.0
aF8.5
aF0.468
aF1.3
aF3.4
aF0.391
aF1.6
aF2.1
aF0.796
aF1.0
aF2.1
aF3.1
aF2.6
aF1.3
aF0.9
aF0.1
aF0.4
aF1.6
aF1.8
aF10.9
aF-1.6
aI1
aI0
aI5
aV201162,1610612756
p840
aa(lp841
I2407
aVJared Jeffries
p842
aI1610612757
aVPOR
p843
aF31.0
aI38
aI16
aI22
aF0.421
aF9.2
aF0.4
aF1.4
aF0.296
aF0.0
aF0.1
aF0.0
aF0.3
aF0.6
aF0.522
aF0.7
aF0.9
aF1.6
aF0.4
aF0.4
aF0.2
aF0.2
aF0.3
aF1.5
aF0.8
aF1.2
aF0.3
aI0
aI0
aI5
aV2407,1610612757
p844
aa(lp845
I203096
aVJared Sullinger
p846
aI1610612738
aVBOS
p847
aF21.0
aI45
aI22
aI23
aF0.489
aF19.8
aF2.5
aF5.0
aF0.493
aF0.0
aF0.1
aF0.2
aF1.0
aF1.4
aF0.746
aF2.0
aF3.8
aF5.9
aF0.8
aF0.6
aF0.5
aF0.5
aF0.7
aF3.4
aF1.9
aF6.0
aF0.9
aI4
aI0
aI5
aV203096,1610612738
p848
aa(lp849
I101127
aVJarrett Jack
p850
aI1610612744
aVGSW
p851
aF29.0
aI79
aI47
aI32
aF0.595
aF29.7
aF4.9
aF10.8
aF0.452
aF1.0
aF2.6
aF0.404
aF2.1
aF2.5
aF0.843
aF0.3
aF2.8
aF3.1
aF5.6
aF2.0
aF0.8
aF0.1
aF0.3
aF1.7
aF2.7
aF12.9
aF1.1
aI8
aI0
aI5
aV101127,1610612744
p852
aa(lp853
I202363
aVJarvis Varnado
p854
aI1610612748
aVMIA
p855
aF25.0
aI13
aI10
aI3
aF0.769
aF4.5
aF0.2
aF0.5
aF0.429
aF0.0
aF0.0
aF0.0
aF0.2
aF0.3
aF0.5
aF0.2
aF0.5
aF0.7
aF0.2
aF0.5
aF0.1
aF0.2
aF0.2
aF0.8
aF0.3
aF0.6
aF-1.8
aI0
aI0
aI5
aV202363,1610612748
p856
aa(lp857
I2215
aVJason Collins
p858
aI1610612764
aVWAS
p859
aF34.0
aI38
aI19
aI19
aF0.5
aF10.1
aF0.2
aF0.8
aF0.31
aF0.0
aF0.0
aF0.0
aF0.6
aF0.8
aF0.719
aF0.6
aF1.0
aF1.6
aF0.2
aF0.5
aF0.3
aF0.3
aF0.2
aF2.2
aF1.1
aF1.1
aF0.1
aI0
aI0
aI5
aV2215,1610612764
p860
aa(lp861
I467
aVJason Kidd
p862
aI1610612752
aVNYK
p863
aF40.0
aI76
aI49
aI27
aF0.645
aF26.9
aF2.0
aF5.4
aF0.372
aF1.5
aF4.3
aF0.351
aF0.5
aF0.6
aF0.833
aF0.7
aF3.6
aF4.3
aF3.3
aF1.0
aF1.6
aF0.3
aF0.1
aF1.6
aF0.8
aF6.0
aF2.5
aI0
aI0
aI5
aV467,1610612752
p864
aa(lp865
I101131
aVJason Maxiell
p866
aI1610612765
aVDET
p867
aF30.0
aI72
aI24
aI48
aF0.333
aF24.8
aF2.8
aF6.3
aF0.446
aF0.0
aF0.0
aF0.0
aF1.3
aF2.0
aF0.621
aF1.9
aF3.8
aF5.7
aF0.8
aF1.1
aF0.4
aF1.3
aF0.3
aF2.4
aF2.1
aF6.9
aF-2.6
aI5
aI0
aI5
aV101131,1610612765
p868
aa(lp869
I2202
aVJason Richardson
p870
aI1610612755
aVPHI
p871
aF32.0
aI33
aI13
aI20
aF0.394
aF28.4
aF4.1
aF10.2
aF0.402
aF1.7
aF5.1
aF0.341
aF0.6
aF1.0
aF0.606
aF0.6
aF3.3
aF3.8
aF1.5
aF0.8
aF1.2
aF0.5
aF0.3
aF1.7
aF1.2
aF10.5
aF-0.3
aI0
aI0
aI5
aV2202,1610612755
p872
aa(lp873
I201160
aVJason Smith
p874
aI1610612740
aVNOH
p875
aF27.0
aI51
aI19
aI32
aF0.373
aF17.2
aF3.3
aF6.7
aF0.49
aF0.0
aF0.1
aF0.0
aF1.7
aF2.0
aF0.843
aF1.3
aF2.4
aF3.6
aF0.7
aF1.1
aF0.3
aF0.9
aF0.6
aF2.4
aF2.0
aF8.2
aF-1.4
aI1
aI0
aI5
aV201160,1610612740
p876
aa(lp877
I1891
aVJason Terry
p878
aI1610612738
aVBOS
p879
aF35.0
aI79
aI40
aI39
aF0.506
aF26.9
aF3.6
aF8.2
aF0.434
aF1.6
aF4.2
aF0.372
aF1.4
aF1.7
aF0.87
aF0.2
aF1.8
aF2.0
aF2.5
aF1.3
aF0.8
aF0.1
aF0.2
aF1.4
aF1.0
aF10.1
aF0.8
aI1
aI0
aI5
aV1891,1610612738
p880
aa(lp881
I201574
aVJason Thompson
p882
aI1610612758
aVSAC
p883
aF26.0
aI82
aI28
aI54
aF0.341
aF27.9
aF4.6
aF9.1
aF0.502
aF0.0
aF0.0
aF0.0
aF1.7
aF2.5
aF0.694
aF2.1
aF4.6
aF6.7
aF1.0
aF1.2
aF0.6
aF0.7
aF0.9
aF2.8
aF2.3
aF10.9
aF-2.9
aI13
aI0
aI5
aV201574,1610612758
p884
aa(lp885
I202399
aVJeff Adrien
p886
aI1610612766
aVCHA
p887
aF27.0
aI52
aI13
aI39
aF0.25
aF13.7
aF1.4
aF3.2
aF0.429
aF0.0
aF0.0
aF0.0
aF1.3
aF1.9
aF0.65
aF1.3
aF2.5
aF3.8
aF0.7
aF0.6
aF0.3
aF0.5
aF0.3
aF1.5
aF1.8
aF4.0
aF-1.8
aI1
aI0
aI5
aV202399,1610612766
p888
aa(lp889
I201965
aVJeff Ayres
p890
aI1610612754
aVIND
p891
aF26.0
aI37
aI24
aI13
aF0.649
aF10.0
aF1.6
aF3.4
aF0.484
aF0.1
aF0.1
aF0.5
aF0.6
aF0.6
aF0.913
aF0.8
aF2.0
aF2.8
aF0.4
aF0.6
aF0.2
aF0.3
aF0.3
aF1.2
aF0.6
aF3.9
aF1.5
aI1
aI0
aI5
aV201965,1610612754
p892
aa(lp893
I201145
aVJeff Green
p894
aI1610612738
aVBOS
p895
aF26.0
aI81
aI41
aI40
aF0.506
aF27.8
aF4.6
aF10.0
aF0.467
aF0.9
aF2.2
aF0.385
aF2.6
aF3.3
aF0.808
aF0.7
aF3.2
aF3.9
aF1.6
aF1.6
aF0.7
aF0.8
aF0.8
aF2.2
aF2.7
aF12.8
aF0.0
aI1
aI0
aI5
aV201145,1610612738
p896
aa(lp897
I203106
aVJeff Taylor
p898
aI1610612766
aVCHA
p899
aF24.0
aI77
aI18
aI59
aF0.234
aF19.6
aF2.2
aF5.2
aF0.431
aF0.7
aF2.0
aF0.344
aF1.0
aF1.3
aF0.728
aF0.7
aF1.3
aF1.9
aF0.8
aF0.6
aF0.6
aF0.2
aF0.5
aF1.8
aF0.9
aF6.1
aF-3.5
aI0
aI0
aI5
aV203106,1610612766
p900
aa(lp901
I201952
aVJeff Teague
p902
aI1610612737
aVATL
p903
aF25.0
aI80
aI43
aI37
aF0.538
aF32.9
aF5.5
aF12.2
aF0.451
aF1.1
aF3.1
aF0.359
aF2.5
aF2.8
aF0.881
aF0.3
aF1.9
aF2.3
aF7.2
aF2.9
aF1.5
aF0.4
aF1.0
aF2.3
aF2.9
aF14.6
aF0.9
aI15
aI0
aI5
aV201952,1610612737
p904
aa(lp905
I202379
aVJeremy Evans
p906
aI1610612762
aVUTA
p907
aF25.0
aI37
aI20
aI17
aF0.541
aF5.8
aF0.7
aF1.2
aF0.614
aF0.0
aF0.0
aF0.0
aF0.6
aF0.9
aF0.636
aF0.7
aF0.9
aF1.6
aF0.3
aF0.2
aF0.2
aF0.4
aF0.0
aF0.8
aF0.8
aF2.0
aF0.6
aI0
aI0
aI5
aV202379,1610612762
p908
aa(lp909
I203087
aVJeremy Lamb
p910
aI1610612760
aVOKC
p911
aF21.0
aI23
aI20
aI3
aF0.87
aF6.4
aF1.0
aF3.0
aF0.353
aF0.4
aF1.3
aF0.3
aF0.6
aF0.6
aF1.0
aF0.2
aF0.6
aF0.8
aF0.2
aF0.3
aF0.1
aF0.1
aF0.3
aF0.6
aF0.3
aF3.1
aF-2.0
aI0
aI0
aI5
aV203087,1610612760
p912
aa(lp913
I202391
aVJeremy Lin
p914
aI1610612745
aVHOU
p915
aF24.0
aI82
aI45
aI37
aF0.549
aF32.2
aF4.8
aF10.9
aF0.441
aF1.1
aF3.1
aF0.339
aF2.6
aF3.4
aF0.785
aF0.4
aF2.6
aF3.0
aF6.1
aF2.9
aF1.6
aF0.4
aF0.8
aF2.5
aF3.2
aF13.4
aF1.6
aI9
aI0
aI5
aV202391,1610612745
p916
aa(lp917
I202951
aVJeremy Pargo
p918
aI1610612755
aVPHI
p919
aF27.0
aI39
aI9
aI30
aF0.231
aF16.8
aF2.5
aF6.4
aF0.396
aF0.6
aF1.9
aF0.338
aF1.1
aF1.6
aF0.677
aF0.2
aF1.1
aF1.3
aF2.4
aF1.3
aF0.3
aF0.1
aF0.7
aF1.2
aF1.3
aF6.8
aF-2.8
aI0
aI0
aI5
aV202951,1610612755
p920
aa(lp921
I202719
aVJeremy Tyler
p922
aI1610612737
aVATL
p923
aF22.0
aI21
aI10
aI11
aF0.476
aF3.3
aF0.4
aF1.1
aF0.375
aF0.0
aF0.0
aF0.0
aF0.2
aF0.3
aF0.667
aF0.3
aF0.7
aF1.0
aF0.0
aF0.3
aF0.0
aF0.1
aF0.2
aF0.5
aF0.4
aF1.0
aF0.3
aI0
aI0
aI5
aV202719,1610612737
p924
aa(lp925
I979
aVJermaine O'Neal
p926
aI1610612756
aVPHX
p927
aF34.0
aI55
aI17
aI38
aF0.309
aF18.7
aF3.3
aF6.7
aF0.482
aF0.0
aF0.0
aF0.0
aF1.7
aF2.1
aF0.835
aF1.5
aF3.8
aF5.3
aF0.8
aF1.3
aF0.3
aF1.4
aF0.8
aF2.3
aF2.0
aF8.3
aF-2.4
aI5
aI0
aI5
aV979,1610612756
p928
aa(lp929
I711
aVJerry Stackhouse
p930
aI1610612751
aVBKN
p931
aF38.0
aI37
aI24
aI13
aF0.649
aF14.7
aF1.8
aF4.6
aF0.384
aF0.8
aF2.4
aF0.337
aF0.5
aF0.6
aF0.87
aF0.1
aF0.8
aF0.9
aF0.9
aF0.6
aF0.2
aF0.1
aF0.1
aF0.8
aF0.5
aF4.9
aF0.7
aI0
aI0
aI5
aV711,1610612751
p932
aa(lp933
I201573
aVJerryd Bayless
p934
aI1610612763
aVMEM
p935
aF24.0
aI80
aI54
aI26
aF0.675
aF22.1
aF3.3
aF7.8
aF0.419
aF0.9
aF2.5
aF0.353
aF1.3
aF1.5
aF0.836
aF0.3
aF1.9
aF2.2
aF3.3
aF1.5
aF0.7
aF0.2
aF0.4
aF2.1
aF1.5
aF8.7
aF0.1
aI0
aI0
aI5
aV201573,1610612763
p936
aa(lp937
I202690
aVJimmer Fredette
p938
aI1610612758
aVSAC
p939
aF24.0
aI69
aI25
aI44
aF0.362
aF14.0
aF2.5
aF5.9
aF0.421
aF0.9
aF2.3
aF0.417
aF1.2
aF1.4
aF0.859
aF0.3
aF0.8
aF1.0
aF1.3
aF1.0
aF0.4
aF0.0
aF0.4
aF0.9
aF1.1
aF7.2
aF-1.2
aI0
aI0
aI5
aV202690,1610612758
p940
aa(lp941
I202710
aVJimmy Butler
p942
aI1610612741
aVCHI
p943
aF23.0
aI82
aI45
aI37
aF0.549
aF26.0
aF2.9
aF6.2
aF0.467
aF0.5
aF1.3
aF0.381
aF2.3
aF2.8
aF0.803
aF1.7
aF2.3
aF4.0
aF1.4
aF0.8
aF1.0
aF0.4
aF0.7
aF1.2
aF2.2
aF8.6
aF0.6
aI4
aI0
aI5
aV202710,1610612741
p944
aa(lp945
I201149
aVJoakim Noah
p946
aI1610612741
aVCHI
p947
aF28.0
aI66
aI36
aI30
aF0.545
aF36.8
aF4.6
aF9.5
aF0.481
aF0.0
aF0.1
aF0.0
aF2.7
aF3.6
aF0.751
aF3.9
aF7.2
aF11.1
aF4.0
aF2.7
aF1.2
aF2.1
aF0.9
aF2.8
aF3.4
aF11.9
aF0.9
aI33
aI2
aI5
aV201149,1610612741
p948
aa(lp949
I201975
aVJodie Meeks
p950
aI1610612747
aVLAL
p951
aF25.0
aI78
aI45
aI33
aF0.577
aF21.3
aF2.6
aF6.8
aF0.387
aF1.6
aF4.4
aF0.357
aF1.1
aF1.2
aF0.896
aF0.5
aF1.7
aF2.2
aF0.9
aF0.7
aF0.7
aF0.1
aF0.4
aF1.3
aF1.0
aF7.9
aF0.7
aI0
aI0
aI5
aV201975,1610612747
p952
aa(lp953
I2207
aVJoe Johnson
p954
aI1610612751
aVBKN
p955
aF32.0
aI72
aI43
aI29
aF0.597
aF36.7
aF6.2
aF14.6
aF0.423
aF2.1
aF5.5
aF0.375
aF1.8
aF2.2
aF0.82
aF0.7
aF2.3
aF3.0
aF3.5
aF1.7
aF0.7
aF0.2
aF0.3
aF1.4
aF2.0
aF16.3
aF4.0
aI0
aI0
aI5
aV2207,1610612751
p956
aa(lp957
I201202
aVJoel Anthony
p958
aI1610612748
aVMIA
p959
aF30.0
aI62
aI50
aI12
aF0.806
aF9.1
aF0.6
aF1.1
aF0.515
aF0.0
aF0.0
aF0.0
aF0.3
aF0.5
aF0.607
aF0.7
aF1.1
aF1.9
aF0.2
aF0.4
aF0.2
aF0.7
aF0.1
aF0.8
aF0.4
aF1.4
aF0.5
aI0
aI0
aI5
aV201202,1610612748
p960
aa(lp961
I200777
aVJoel Freeland
p962
aI1610612757
aVPOR
p963
aF26.0
aI51
aI15
aI36
aF0.294
aF9.4
aF1.1
aF2.8
aF0.408
aF0.0
aF0.0
aF0.0
aF0.4
aF0.5
aF0.667
aF0.8
aF1.5
aF2.3
aF0.3
aF0.4
aF0.3
aF0.2
aF0.3
aF1.3
aF0.6
aF2.6
aF-1.8
aI0
aI0
aI5
aV200777,1610612757
p964
aa(lp965
I2038
aVJoel Przybilla
p966
aI1610612749
aVMIL
p967
aF33.0
aI12
aI4
aI8
aF0.333
aF5.7
aF0.1
aF0.3
aF0.25
aF0.0
aF0.0
aF0.0
aF0.0
aF0.2
aF0.0
aF0.4
aF1.3
aF1.8
aF0.3
aF0.3
aF0.1
aF0.2
aF0.1
aF0.8
aF0.1
aF0.2
aF-3.8
aI0
aI0
aI5
aV2038,1610612749
p968
aa(lp969
I101130
aVJohan Petro
p970
aI1610612737
aVATL
p971
aF27.0
aI31
aI13
aI18
aF0.419
aF11.3
aF1.5
aF3.5
aF0.436
aF0.0
aF0.1
aF0.25
aF0.4
aF0.4
aF0.917
aF1.1
aF2.5
aF3.6
aF0.5
aF0.8
aF0.3
aF0.3
aF0.1
aF1.5
aF0.5
aF3.5
aF-3.0
aI2
aI0
aI5
aV101130,1610612737
p972
aa(lp973
I203089
aVJohn Henson
p974
aI1610612749
aVMIL
p975
aF22.0
aI63
aI27
aI36
aF0.429
aF13.1
aF2.6
aF5.3
aF0.482
aF0.0
aF0.0
aF0.0
aF0.9
aF1.7
aF0.533
aF1.8
aF2.9
aF4.7
aF0.5
aF0.7
aF0.3
aF0.7
aF0.3
aF1.3
aF1.4
aF6.0
aF-0.6
aI6
aI0
aI5
aV203089,1610612749
p976
aa(lp977
I203098
aVJohn Jenkins
p978
aI1610612737
aVATL
p979
aF22.0
aI61
aI30
aI31
aF0.492
aF14.8
aF2.1
aF4.8
aF0.446
aF0.9
aF2.3
aF0.384
aF1.0
aF1.1
aF0.843
aF0.3
aF1.3
aF1.5
aF0.9
aF0.7
aF0.2
aF0.2
aF0.2
aF0.6
aF0.7
aF6.1
aF-2.0
aI0
aI0
aI5
aV203098,1610612737
p980
aa(lp981
I101249
aVJohn Lucas III
p982
aI1610612761
aVTOR
p983
aF30.0
aI63
aI26
aI37
aF0.413
aF13.1
aF2.0
aF5.3
aF0.386
aF0.9
aF2.4
aF0.377
aF0.3
aF0.4
aF0.72
aF0.1
aF0.9
aF1.0
aF1.7
aF0.4
aF0.4
aF0.0
aF0.2
aF0.8
aF0.8
aF5.3
aF-1.5
aI0
aI0
aI5
aV101249,1610612761
p984
aa(lp985
I2422
aVJohn Salmons
p986
aI1610612758
aVSAC
p987
aF33.0
aI76
aI26
aI50
aF0.342
aF30.0
aF3.2
aF8.1
aF0.399
aF1.3
aF3.5
aF0.371
aF1.1
aF1.4
aF0.773
aF0.4
aF2.3
aF2.7
aF3.0
aF1.1
aF0.7
aF0.3
aF0.4
aF1.9
aF1.3
aF8.8
aF-0.5
aI1
aI0
aI5
aV2422,1610612758
p988
aa(lp989
I202322
aVJohn Wall
p990
aI1610612764
aVWAS
p991
aF22.0
aI49
aI24
aI25
aF0.49
aF32.7
aF6.6
aF15.0
aF0.441
aF0.2
aF0.9
aF0.267
aF5.0
aF6.2
aF0.804
aF0.7
aF3.3
aF4.0
aF7.6
aF3.2
aF1.3
aF0.8
aF0.9
aF2.4
aF4.5
aF18.5
aF0.9
aI14
aI0
aI5
aV202322,1610612764
p992
aa(lp993
I202720
aVJon Leuer
p994
aI1610612763
aVMEM
p995
aF24.0
aI28
aI14
aI14
aF0.5
aF6.7
aF0.9
aF1.9
aF0.481
aF0.0
aF0.1
aF0.0
aF0.2
aF0.5
aF0.462
aF0.5
aF0.9
aF1.3
aF0.3
aF0.3
aF0.2
aF0.0
aF0.0
aF0.8
aF0.4
aF2.0
aF-2.3
aI0
aI0
aI5
aV202720,1610612763
p996
aa(lp997
I201973
aVJonas Jerebko
p998
aI1610612765
aVDET
p999
aF26.0
aI49
aI13
aI36
aF0.265
aF18.2
aF2.9
aF6.4
aF0.449
aF0.5
aF1.7
aF0.301
aF1.4
aF1.8
aF0.773
aF1.4
aF2.4
aF3.8
aF0.9
aF0.9
aF0.8
aF0.2
aF0.4
aF1.8
aF1.5
aF7.7
aF-1.7
aI0
aI0
aI5
aV201973,1610612765
p1000
aa(lp1001
I202685
aVJonas Valanciunas
p1002
aI1610612761
aVTOR
p1003
aF21.0
aI62
aI25
aI37
aF0.403
aF23.9
aF3.3
aF5.9
aF0.557
aF0.0
aF0.0
aF0.0
aF2.4
aF3.0
aF0.789
aF2.0
aF4.0
aF6.0
aF0.7
aF1.5
aF0.3
aF1.3
aF0.5
aF3.0
aF2.5
aF8.9
aF-2.0
aI8
aI0
aI5
aV202685,1610612761
p1004
aa(lp1005
I202348
aVJordan Crawford
p1006
aI1610612738
aVBOS
p1007
aF24.0
aI70
aI23
aI47
aF0.329
aF24.4
aF4.3
aF10.4
aF0.415
aF1.2
aF3.5
aF0.337
aF1.8
aF2.3
aF0.811
aF0.6
aF2.4
aF3.0
aF3.2
aF2.0
aF0.6
aF0.1
aF0.4
aF1.5
aF1.9
aF11.6
aF-2.4
aI1
aI1
aI5
aV202348,1610612738
p1008
aa(lp1009
I202706
aVJordan Hamilton
p1010
aI1610612743
aVDEN
p1011
aF22.0
aI40
aI26
aI14
aF0.65
aF9.9
aF2.1
aF5.0
aF0.418
aF0.7
aF1.8
aF0.37
aF0.3
aF0.7
aF0.5
aF0.8
aF1.6
aF2.4
aF0.6
aF0.5
aF0.4
aF0.2
aF0.4
aF0.6
aF0.5
aF5.2
aF-0.6
aI0
aI0
aI5
aV202706,1610612743
p1012
aa(lp1013
I201941
aVJordan Hill
p1014
aI1610612747
aVLAL
p1015
aF25.0
aI29
aI12
aI17
aF0.414
aF15.8
aF2.7
aF5.3
aF0.497
aF0.0
aF0.1
aF0.0
aF1.4
aF2.1
aF0.656
aF2.8
aF2.9
aF5.7
aF0.4
aF0.9
aF0.3
aF0.7
aF0.3
aF1.9
aF1.6
aF6.7
aF-1.1
aI0
aI0
aI5
aV201941,1610612747
p1016
aa(lp1017
I101181
aVJose Calderon
p1018
aI1610612765
aVDET
p1019
aF31.0
aI73
aI23
aI50
aF0.315
aF29.6
aF4.3
aF8.7
aF0.491
aF1.8
aF3.9
aF0.461
aF1.0
aF1.1
aF0.9
aF0.3
aF2.1
aF2.4
aF7.1
aF1.7
aF0.8
aF0.1
aF0.3
aF1.4
aF1.2
aF11.3
aF-3.4
aI11
aI2
aI5
aV101181,1610612765
p1020
aa(lp1021
I200826
aVJose Juan Barea
p1022
aI1610612750
aVMIN
p1023
aF29.0
aI74
aI29
aI45
aF0.392
aF23.1
aF4.3
aF10.2
aF0.417
aF1.3
aF3.8
aF0.346
aF1.4
aF1.8
aF0.784
aF0.5
aF2.3
aF2.8
aF4.0
aF2.0
aF0.4
aF0.0
aF0.6
aF1.8
aF2.6
aF11.3
aF-0.8
aI1
aI0
aI5
aV200826,1610612750
p1024
aa(lp1025
I203006
aVJosh Akognon
p1026
aI1610612742
aVDAL
p1027
aF27.0
aI3
aI2
aI1
aF0.667
aF2.9
aF0.7
aF1.3
aF0.5
aF0.3
aF0.7
aF0.5
aF0.0
aF0.0
aF0.0
aF0.0
aF0.3
aF0.3
aF0.3
aF0.0
aF0.0
aF0.0
aF0.0
aF1.0
aF0.0
aF1.7
aF-1.7
aI0
aI0
aI5
aV203006,1610612742
p1028
aa(lp1029
I2735
aVJosh Childress
p1030
aI1610612751
aVBKN
p1031
aF30.0
aI14
aI8
aI6
aF0.571
aF7.2
aF0.4
aF1.5
aF0.286
aF0.1
aF0.2
aF0.333
aF0.1
aF0.1
aF0.5
aF0.4
aF0.6
aF1.1
aF0.4
aF0.0
aF0.1
aF0.1
aF0.0
aF0.2
aF0.1
aF1.0
aF-2.5
aI0
aI0
aI5
aV2735,1610612751
p1032
aa(lp1033
I202725
aVJosh Harrellson
p1034
aI1610612748
aVMIA
p1035
aF24.0
aI6
aI3
aI3
aF0.5
aF5.1
aF0.7
aF1.5
aF0.444
aF0.2
aF0.8
aF0.2
aF0.2
aF0.3
aF0.5
aF0.5
aF0.7
aF1.2
aF0.0
aF0.5
aF0.2
aF0.2
aF0.0
aF0.7
aF0.2
aF1.7
aF-0.2
aI0
aI0
aI5
aV202725,1610612748
p1036
aa(lp1037
I2572
aVJosh Howard
p1038
aI1610612750
aVMIN
p1039
aF33.0
aI11
aI5
aI6
aF0.455
aF18.8
aF2.8
aF7.0
aF0.403
aF0.5
aF1.5
aF0.313
aF0.6
aF1.1
aF0.583
aF0.8
aF2.5
aF3.3
aF0.4
aF0.9
aF0.9
aF0.3
aF0.4
aF1.6
aF0.9
aF6.7
aF-1.5
aI1
aI0
aI5
aV2572,1610612750
p1040
aa(lp1041
I201177
aVJosh McRoberts
p1042
aI1610612766
aVCHA
p1043
aF26.0
aI67
aI19
aI48
aF0.284
aF22.2
aF2.3
aF5.1
aF0.455
aF0.4
aF1.3
aF0.286
aF1.0
aF1.3
aF0.765
aF1.4
aF3.5
aF4.9
aF2.1
aF1.0
aF0.5
aF0.4
aF0.3
aF2.0
aF1.0
aF6.0
aF-3.6
aI3
aI0
aI5
aV201177,1610612766
p1044
aa(lp1045
I202729
aVJosh Selby
p1046
aI1610612763
aVMEM
p1047
aF22.0
aI10
aI6
aI4
aF0.6
aF5.9
aF0.6
aF2.2
aF0.273
aF0.1
aF0.6
aF0.167
aF0.7
aF1.1
aF0.636
aF0.0
aF0.5
aF0.5
aF0.4
aF0.7
aF0.2
aF0.0
aF0.3
aF0.7
aF0.6
aF2.0
aF-4.0
aI0
aI0
aI5
aV202729,1610612763
p1048
aa(lp1049
I2746
aVJosh Smith
p1050
aI1610612737
aVATL
p1051
aF27.0
aI76
aI40
aI36
aF0.526
aF35.3
aF7.2
aF15.6
aF0.465
aF0.8
aF2.6
aF0.303
aF2.2
aF4.2
aF0.517
aF1.8
aF6.7
aF8.4
aF4.2
aF3.0
aF1.2
aF1.8
aF0.5
aF2.3
aF4.0
aF17.5
aF1.1
aI29
aI0
aI5
aV2746,1610612737
p1052
aa(lp1053
I201950
aVJrue Holiday
p1054
aI1610612755
aVPHI
p1055
aF23.0
aI78
aI34
aI44
aF0.436
aF37.5
aF7.1
aF16.5
aF0.431
aF1.2
aF3.2
aF0.368
aF2.3
aF3.1
aF0.752
aF1.1
aF3.1
aF4.2
aF8.0
aF3.7
aF1.6
aF0.4
aF1.0
aF2.2
aF3.2
aF17.7
aF-1.6
aI20
aI1
aI5
aV201950,1610612755
p1056
aa(lp1057
I202933
aVJulyan Stone
p1058
aI1610612743
aVDEN
p1059
aF24.0
aI4
aI2
aI2
aF0.5
aF7.0
aF0.5
aF0.5
aF1.0
aF0.0
aF0.0
aF0.0
aF0.8
aF1.0
aF0.75
aF0.5
aF0.3
aF0.8
aF0.5
aF0.5
aF0.3
aF0.0
aF0.0
aF1.0
aF0.8
aF1.8
aF1.8
aI0
aI0
aI5
aV202933,1610612743
p1060
aa(lp1061
I202458
aVJustin Dentmon
p1062
aI1610612742
aVDAL
p1063
aF27.0
aI2
aI0
aI2
aF0.0
aF2.2
aF0.0
aF1.0
aF0.0
aF0.0
aF0.0
aF0.0
aF0.0
aF0.0
aF0.0
aF0.0
aF0.0
aF0.0
aF0.0
aF0.0
aF0.0
aF0.0
aF0.0
aF0.0
aF0.0
aF0.0
aF-1.0
aI0
aI0
aI5
aV202458,1610612742
p1064
aa(lp1065
I203200
aVJustin Holiday
p1066
aI1610612755
aVPHI
p1067
aF24.0
aI9
aI4
aI5
aF0.444
aF15.8
aF1.8
aF5.3
aF0.333
aF0.4
aF1.8
aF0.25
aF0.7
aF0.9
aF0.75
aF0.0
aF1.6
aF1.6
aF1.7
aF1.0
aF0.3
aF0.7
aF0.2
aF0.8
aF0.7
aF4.7
aF1.3
aI0
aI0
aI5
aV203200,1610612755
p1068
aa(lp1069
I436
aVJuwan Howard
p1070
aI1610612748
aVMIA
p1071
aF40.0
aI7
aI7
aI0
aF1.0
aF7.2
aF1.4
aF2.7
aF0.526
aF0.0
aF0.0
aF0.0
aF0.1
aF0.1
aF1.0
aF0.0
aF1.1
aF1.1
aF0.9
aF0.6
aF0.0
aF0.0
aF0.3
aF1.3
aF0.3
aF3.0
aF-1.9
aI0
aI0
aI5
aV436,1610612748
p1072
aa(lp1073
I202695
aVKawhi Leonard
p1074
aI1610612759
aVSAS
p1075
aF22.0
aI58
aI43
aI15
aF0.741
aF31.2
aF4.5
aF9.1
aF0.494
aF1.1
aF3.0
aF0.374
aF1.8
aF2.2
aF0.825
aF1.1
aF4.9
aF6.0
aF1.6
aF1.1
aF1.7
aF0.6
aF0.5
aF1.7
aF1.6
aF11.9
aF6.1
aI6
aI0
aI5
aV202695,1610612759
p1076
aa(lp1077
I2586
aVKeith Bogans
p1078
aI1610612751
aVBKN
p1079
aF33.0
aI74
aI44
aI30
aF0.595
aF19.0
aF1.5
aF3.8
aF0.38
aF1.1
aF3.3
aF0.343
aF0.1
aF0.2
aF0.647
aF0.2
aF1.4
aF1.6
aF1.0
aF0.7
aF0.4
aF0.1
aF0.0
aF1.5
aF0.5
aF4.2
aF-0.5
aI0
aI0
aI5
aV2586,1610612751
p1080
aa(lp1081
I202689
aVKemba Walker
p1082
aI1610612766
aVCHA
p1083
aF23.0
aI82
aI21
aI61
aF0.256
aF34.9
aF6.4
aF15.2
aF0.423
aF1.3
aF4.0
aF0.322
aF3.6
aF4.5
aF0.798
aF0.7
aF2.7
aF3.5
aF5.7
aF2.4
aF2.0
aF0.4
aF1.3
aF1.9
aF4.0
aF17.7
aF-5.7
aI5
aI0
aI5
aV202689,1610612766
p1084
aa(lp1085
I203088
aVKendall Marshall
p1086
aI1610612756
aVPHX
p1087
aF21.0
aI48
aI12
aI36
aF0.25
aF14.6
aF1.2
aF3.1
aF0.371
aF0.5
aF1.5
aF0.315
aF0.2
aF0.3
aF0.571
aF0.1
aF0.8
aF0.9
aF3.0
aF1.2
aF0.5
aF0.1
aF0.1
aF1.0
aF0.5
aF3.0
aF-3.9
aI0
aI0
aI5
aV203088,1610612756
p1088
aa(lp1089
I2570
aVKendrick Perkins
p1090
aI1610612760
aVOKC
p1091
aF28.0
aI78
aI58
aI20
aF0.744
aF25.1
aF1.8
aF4.0
aF0.457
aF0.0
aF0.0
aF0.0
aF0.6
aF0.9
aF0.611
aF1.4
aF4.6
aF6.0
aF1.4
aF1.4
aF0.6
aF1.1
aF0.5
aF2.9
aF0.9
aF4.2
aF5.2
aI0
aI0
aI5
aV2570,1610612760
p1092
aa(lp1093
I202702
aVKenneth Faried
p1094
aI1610612743
aVDEN
p1095
aF23.0
aI80
aI55
aI25
aF0.688
aF28.1
aF4.8
aF8.6
aF0.552
aF0.0
aF0.0
aF0.0
aF2.0
aF3.3
aF0.613
aF3.3
aF5.9
aF9.2
aF1.0
aF1.4
aF1.0
aF1.0
aF0.9
aF2.9
aF2.9
aF11.5
aF2.7
aI31
aI0
aI5
aV202702,1610612743
p1096
aa(lp1097
I203145
aVKent Bazemore
p1098
aI1610612744
aVGSW
p1099
aF23.0
aI61
aI34
aI27
aF0.557
aF4.4
aF0.7
aF1.9
aF0.371
aF0.2
aF0.6
aF0.294
aF0.4
aF0.7
aF0.614
aF0.1
aF0.3
aF0.4
aF0.4
aF0.3
aF0.3
aF0.1
aF0.1
aF0.4
aF0.5
aF2.0
aF-0.6
aI0
aI0
aI5
aV203145,1610612744
p1100
aa(lp1101
I2030
aVKenyon Martin
p1102
aI1610612752
aVNYK
p1103
aF35.0
aI18
aI13
aI5
aF0.722
aF24.0
aF3.1
aF5.2
aF0.602
aF0.0
aF0.0
aF0.0
aF0.9
aF2.2
aF0.425
aF1.9
aF3.4
aF5.3
aF0.4
aF0.9
aF0.9
aF0.9
aF0.2
aF3.6
aF1.6
aF7.2
aF3.2
aI1
aI0
aI5
aV2030,1610612752
p1104
aa(lp1105
I201142
aVKevin Durant
p1106
aI1610612760
aVOKC
p1107
aF24.0
aI81
aI60
aI21
aF0.741
aF38.5
aF9.0
aF17.7
aF0.51
aF1.7
aF4.1
aF0.416
aF8.4
aF9.3
aF0.905
aF0.6
aF7.3
aF7.9
aF4.6
aF3.5
aF1.4
aF1.3
aF0.5
aF1.8
aF6.5
aF28.1
aF8.9
aI19
aI3
aI5
aV201142,1610612760
p1108
aa(lp1109
I708
aVKevin Garnett
p1110
aI1610612738
aVBOS
p1111
aF37.0
aI68
aI36
aI32
aF0.529
aF29.7
aF6.2
aF12.5
aF0.496
aF0.0
aF0.2
aF0.125
aF2.3
aF3.0
aF0.786
aF1.1
aF6.7
aF7.8
aF2.3
aF1.6
aF1.1
aF0.9
aF0.3
aF2.3
aF3.3
aF14.8
aF1.6
aI19
aI0
aI5
aV708,1610612738
p1112
aa(lp1113
I203158
aVKevin Jones
p1114
aI1610612739
aVCLE
p1115
aF23.0
aI32
aI5
aI27
aF0.156
aF10.4
aF1.3
aF3.3
aF0.402
aF0.0
aF0.0
aF0.0
aF0.3
aF0.5
aF0.6
aF1.2
aF1.3
aF2.4
aF0.3
aF0.3
aF0.3
aF0.2
aF0.4
aF0.8
aF0.5
aF3.0
aF1.7
aI1
aI0
aI5
aV203158,1610612739
p1116
aa(lp1117
I201567
aVKevin Love
p1118
aI1610612750
aVMIN
p1119
aF24.0
aI18
aI9
aI9
aF0.5
aF34.3
aF5.8
aF16.6
aF0.352
aF1.1
aF5.1
aF0.217
aF5.6
aF7.9
aF0.704
aF3.6
aF10.4
aF14.0
aF2.3
aF2.2
aF0.7
aF0.5
aF1.8
aF1.9
aF6.2
aF18.3
aF0.1
aI14
aI0
aI5
aV201567,1610612750
p1120
aa(lp1121
I2755
aVKevin Martin
p1122
aI1610612760
aVOKC
p1123
aF30.0
aI77
aI57
aI20
aF0.74
aF27.7
aF4.5
aF10.1
aF0.45
aF2.1
aF4.8
aF0.426
aF2.8
aF3.2
aF0.89
aF0.4
aF1.9
aF2.3
aF1.4
aF1.3
aF0.9
aF0.1
aF0.4
aF1.8
aF2.1
aF14.0
aF5.7
aI0
aI0
aI5
aV2755,1610612760
p1124
aa(lp1125
I203122
aVKevin Murphy
p1126
aI1610612762
aVUTA
p1127
aF23.0
aI17
aI11
aI6
aF0.647
aF3.1
aF0.4
aF1.6
aF0.25
aF0.1
aF0.3
aF0.2
aF0.0
aF0.0
aF0.0
aF0.0
aF0.2
aF0.2
aF0.1
aF0.2
aF0.1
aF0.0
aF0.0
aF0.2
aF0.1
aF0.9
aF-2.6
aI0
aI0
aI5
aV203122,1610612762
p1128
aa(lp1129
I202338
aVKevin Seraphin
p1130
aI1610612764
aVWAS
p1131
aF23.0
aI79
aI27
aI52
aF0.342
aF21.8
aF4.2
aF9.1
aF0.461
aF0.0
aF0.0
aF0.0
aF0.8
aF1.1
aF0.693
aF1.4
aF3.0
aF4.4
aF0.7
aF1.6
aF0.3
aF0.7
aF0.5
aF2.7
aF1.3
aF9.1
aF-2.8
aI4
aI0
aI5
aV202338,1610612764
p1132
aa(lp1133
I2039
aVKeyon Dooling
p1134
aI1610612763
aVMEM
p1135
aF33.0
aI7
aI6
aI1
aF0.857
aF11.7
aF1.4
aF3.0
aF0.476
aF0.7
aF1.7
aF0.417
aF0.9
aF1.0
aF0.857
aF0.0
aF0.1
aF0.1
aF1.1
aF0.7
aF0.1
aF0.0
aF0.0
aF1.1
aF1.4
aF4.4
aF-2.9
aI0
aI0
aI5
aV2039,1610612763
p1136
aa(lp1137
I203114
aVKhris Middleton
p1138
aI1610612765
aVDET
p1139
aF21.0
aI27
aI9
aI18
aF0.333
aF17.6
aF2.3
aF5.2
aF0.44
aF0.5
aF1.7
aF0.311
aF1.0
aF1.2
aF0.844
aF0.1
aF1.7
aF1.9
aF1.0
aF0.4
aF0.6
aF0.1
aF0.3
aF2.0
aF0.9
aF6.1
aF1.0
aI0
aI0
aI5
aV203114,1610612765
p1140
aa(lp1141
I203119
aVKim English
p1142
aI1610612765
aVDET
p1143
aF24.0
aI41
aI13
aI28
aF0.317
aF9.9
aF1.0
aF2.7
aF0.375
aF0.3
aF1.2
aF0.28
aF0.5
aF0.7
aF0.724
aF0.2
aF0.7
aF0.9
aF0.6
aF0.5
aF0.4
aF0.1
aF0.2
aF1.1
aF0.6
aF2.9
aF-1.4
aI0
aI0
aI5
aV203119,1610612765
p1144
aa(lp1145
I2550
aVKirk Hinrich
p1146
aI1610612741
aVCHI
p1147
aF32.0
aI60
aI38
aI22
aF0.633
aF29.4
aF2.7
aF7.0
aF0.377
aF1.2
aF3.0
aF0.39
aF1.2
aF1.6
aF0.714
aF0.3
aF2.4
aF2.6
aF5.2
aF1.7
aF1.1
aF0.4
aF0.5
aF3.2
aF2.1
aF7.7
aF1.7
aI1
aI0
aI5
aV2550,1610612741
p1148
aa(lp1149
I202691
aVKlay Thompson
p1150
aI1610612744
aVGSW
p1151
aF23.0
aI82
aI47
aI35
aF0.573
aF35.8
aF6.2
aF14.7
aF0.422
aF2.6
aF6.4
aF0.401
aF1.6
aF1.9
aF0.841
aF0.4
aF3.3
aF3.7
aF2.2
aF1.9
aF1.0
aF0.5
aF0.4
aF2.9
aF1.8
aF16.6
aF1.4
aI0
aI0
aI5
aV202691,1610612744
p1152
aa(lp1153
I977
aVKobe Bryant
p1154
aI1610612747
aVLAL
p1155
aF34.0
aI78
aI42
aI36
aF0.538
aF38.6
aF9.5
aF20.4
aF0.463
aF1.7
aF5.2
aF0.324
aF6.7
aF8.0
aF0.839
aF0.8
aF4.7
aF5.6
aF6.0
aF3.7
aF1.4
aF0.3
aF0.9
aF2.2
aF6.0
aF27.3
aF1.8
aI16
aI2
aI5
aV977,1610612747
p1156
aa(lp1157
I201585
aVKosta Koufos
p1158
aI1610612743
aVDEN
p1159
aF24.0
aI81
aI57
aI24
aF0.704
aF22.4
aF3.6
aF6.3
aF0.581
aF0.0
aF0.0
aF0.0
aF0.7
aF1.3
aF0.558
aF2.6
aF4.3
aF6.9
aF0.4
aF0.7
aF0.5
aF1.3
aF0.5
aF3.0
aF1.0
aF8.0
aF3.7
aI6
aI0
aI5
aV201585,1610612743
p1160
aa(lp1161
I2743
aVKris Humphries
p1162
aI1610612751
aVBKN
p1163
aF28.0
aI65
aI36
aI29
aF0.554
aF18.3
aF2.1
aF4.8
aF0.448
aF0.0
aF0.0
aF0.0
aF1.5
aF1.9
aF0.789
aF1.9
aF3.7
aF5.6
aF0.5
aF0.9
aF0.2
aF0.5
aF0.5
aF2.0
aF1.8
aF5.8
aF-1.5
aI6
aI0
aI5
aV2743,1610612751
p1164
aa(lp1165
I203126
aVKris Joseph
p1166
aI1610612751
aVBKN
p1167
aF24.0
aI10
aI7
aI3
aF0.7
aF5.4
aF0.2
aF1.4
aF0.143
aF0.0
aF0.3
aF0.0
aF0.5
aF0.8
aF0.625
aF0.1
aF0.6
aF0.7
aF0.1
aF0.2
aF0.3
aF0.0
aF0.1
aF0.3
aF0.4
aF0.9
aF-0.6
aI0
aI0
aI5
aV203126,1610612751
p1168
aa(lp1169
I703
aVKurt Thomas
p1170
aI1610612752
aVNYK
p1171
aF40.0
aI39
aI20
aI19
aF0.513
aF10.1
aF1.2
aF2.1
aF0.542
aF0.0
aF0.0
aF1.0
aF0.2
aF0.3
aF0.462
aF0.6
aF1.7
aF2.3
aF0.5
aF0.2
aF0.3
aF0.4
aF0.1
aF1.3
aF0.5
aF2.5
aF-0.6
aI0
aI0
aI5
aV703,1610612752
p1172
aa(lp1173
I2198
aVKwame Brown
p1174
aI1610612755
aVPHI
p1175
aF31.0
aI22
aI7
aI15
aF0.318
aF12.2
aF0.8
aF1.7
aF0.459
aF0.0
aF0.0
aF0.0
aF0.3
aF0.9
aF0.368
aF1.0
aF2.3
aF3.4
aF0.4
aF0.4
aF0.3
aF0.5
aF0.4
aF1.7
aF0.9
aF1.9
aF-1.8
aI0
aI0
aI5
aV2198,1610612755
p1176
aa(lp1177
I2594
aVKyle Korver
p1178
aI1610612737
aVATL
p1179
aF32.0
aI74
aI41
aI33
aF0.554
aF30.5
aF3.7
aF8.1
aF0.461
aF2.6
aF5.6
aF0.457
aF0.9
aF1.1
aF0.859
aF0.3
aF3.6
aF4.0
aF2.0
aF0.9
aF0.9
aF0.5
aF0.2
aF2.3
aF1.0
aF10.9
aF2.7
aI0
aI0
aI5
aV2594,1610612737
p1180
aa(lp1181
I200768
aVKyle Lowry
p1182
aI1610612761
aVTOR
p1183
aF27.0
aI68
aI27
aI41
aF0.397
aF29.7
aF3.7
aF9.2
aF0.401
aF1.5
aF4.1
aF0.362
aF2.8
aF3.5
aF0.795
aF0.8
aF3.9
aF4.7
aF6.4
aF2.3
aF1.4
aF0.4
aF0.6
aF3.2
aF3.3
aF11.6
aF0.6
aI11
aI1
aI5
aV200768,1610612761
p1184
aa(lp1185
I203124
aVKyle O'Quinn
p1186
aI1610612753
aVORL
p1187
aF23.0
aI57
aI11
aI46
aF0.193
aF11.2
aF1.8
aF3.5
aF0.513
aF0.0
aF0.0
aF0.0
aF0.5
aF0.8
aF0.667
aF1.1
aF2.5
aF3.7
aF0.9
aF0.6
aF0.2
aF0.5
aF0.4
aF1.9
aF0.9
aF4.1
aF-1.0
aI2
aI0
aI5
aV203124,1610612753
p1188
aa(lp1189
I202713
aVKyle Singler
p1190
aI1610612765
aVDET
p1191
aF25.0
aI82
aI29
aI53
aF0.354
aF28.0
aF3.4
aF7.8
aF0.428
aF0.9
aF2.4
aF0.35
aF1.2
aF1.5
aF0.806
aF1.3
aF2.7
aF4.0
aF0.9
aF1.2
aF0.7
aF0.5
aF0.6
aF2.6
aF1.5
aF8.8
aF-2.0
aI1
aI0
aI5
aV202713,1610612765
p1192
aa(lp1193
I202681
aVKyrie Irving
p1194
aI1610612739
aVCLE
p1195
aF21.0
aI59
aI19
aI40
aF0.322
aF34.7
aF8.2
aF18.1
aF0.452
aF1.8
aF4.7
aF0.391
aF4.2
aF4.9
aF0.855
aF0.6
aF3.1
aF3.7
aF5.9
aF3.2
aF1.5
aF0.4
aF1.1
aF2.5
aF4.2
aF22.5
aF-3.0
aI4
aI0
aI5
aV202681,1610612739
p1196
aa(lp1197
I200746
aVLaMarcus Aldridge
p1198
aI1610612757
aVPOR
p1199
aF27.0
aI74
aI32
aI42
aF0.432
aF37.7
aF8.6
aF17.8
aF0.484
aF0.0
aF0.2
aF0.143
aF3.8
aF4.7
aF0.81
aF2.4
aF6.7
aF9.1
aF2.6
aF1.9
aF0.8
aF1.2
aF0.5
aF2.5
aF4.4
aF21.1
aF-0.3
aI38
aI0
aI5
aV200746,1610612757
p1200
aa(lp1201
I1885
aVLamar Odom
p1202
aI1610612746
aVLAC
p1203
aF33.0
aI82
aI56
aI26
aF0.683
aF19.7
aF1.8
aF4.5
aF0.399
aF0.2
aF1.1
aF0.2
aF0.2
aF0.5
aF0.476
aF1.4
aF4.4
aF5.9
aF1.7
aF1.0
aF0.8
aF0.7
aF0.3
aF2.6
aF0.7
aF4.0
aF3.6
aI0
aI0
aI5
aV1885,1610612746
p1204
aa(lp1205
I202362
aVLance Stephenson
p1206
aI1610612754
aVIND
p1207
aF22.0
aI78
aI46
aI32
aF0.59
aF29.2
aF3.5
aF7.7
aF0.46
aF0.8
aF2.4
aF0.33
aF1.0
aF1.5
aF0.652
aF0.6
aF3.3
aF3.9
aF2.9
aF1.4
aF1.0
aF0.2
aF0.4
aF2.1
aF1.4
aF8.8
aF4.9
aI2
aI0
aI5
aV202362,1610612754
p1208
aa(lp1209
I202498
aVLance Thomas
p1210
aI1610612740
aVNOH
p1211
aF25.0
aI59
aI19
aI40
aF0.322
aF11.0
aF0.9
aF1.8
aF0.5
aF0.0
aF0.0
aF0.0
aF0.7
aF1.0
aF0.729
aF0.7
aF1.2
aF1.9
aF0.3
aF0.2
aF0.2
aF0.1
aF0.3
aF1.3
aF1.0
aF2.5
aF-0.9
aI0
aI0
aI5
aV202498,1610612740
p1212
aa(lp1213
I202361
aVLandry Fields
p1214
aI1610612761
aVTOR
p1215
aF25.0
aI51
aI21
aI30
aF0.412
aF20.3
aF2.0
aF4.4
aF0.457
aF0.0
aF0.3
aF0.143
aF0.7
aF1.0
aF0.642
aF1.2
aF2.9
aF4.1
aF1.2
aF0.8
aF0.6
aF0.2
aF0.4
aF1.2
aF1.0
aF4.7
aF-0.6
aI2
aI0
aI5
aV202361,1610612761
p1216
aa(lp1217
I202336
aVLarry Sanders
p1218
aI1610612749
aVMIL
p1219
aF24.0
aI71
aI34
aI37
aF0.479
aF27.3
aF4.3
aF8.5
aF0.506
aF0.0
aF0.0
aF0.0
aF1.2
aF1.9
aF0.618
aF3.2
aF6.3
aF9.5
aF1.2
aF1.2
aF0.7
aF2.8
aF0.5
aF3.3
aF1.6
aF9.8
aF0.7
aI26
aI1
aI5
aV202336,1610612749
p1220
aa(lp1221
I202730
aVLavoy Allen
p1222
aI1610612755
aVPHI
p1223
aF24.0
aI79
aI34
aI45
aF0.43
aF21.1
aF2.6
aF5.7
aF0.454
aF0.0
aF0.0
aF0.0
aF0.5
aF0.8
aF0.717
aF2.0
aF3.0
aF5.0
aF0.9
aF0.7
aF0.3
aF0.7
aF0.3
aF2.3
aF1.0
aF5.8
aF-1.3
aI3
aI0
aI5
aV202730,1610612755
p1224
aa(lp1225
I202351
aVLazar Hayward
p1226
aI1610612750
aVMIN
p1227
aF26.0
aI4
aI0
aI4
aF0.0
aF7.8
aF0.5
aF2.5
aF0.2
aF0.0
aF1.0
aF0.0
aF1.5
aF1.5
aF1.0
aF0.0
aF1.0
aF1.0
aF0.8
aF0.0
aF0.5
aF0.0
aF0.5
aF0.8
aF0.8
aF2.5
aF-6.5
aI0
aI0
aI5
aV202351,1610612750
p1228
aa(lp1229
I2544
aVLeBron James
p1230
aI1610612748
aVMIA
p1231
aF28.0
aI76
aI61
aI15
aF0.803
aF37.9
aF10.1
aF17.8
aF0.565
aF1.4
aF3.3
aF0.406
aF5.3
aF7.0
aF0.753
aF1.3
aF6.8
aF8.0
aF7.3
aF3.0
aF1.7
aF0.9
aF0.5
aF1.4
aF5.8
aF26.8
aF9.5
aI36
aI4
aI5
aV2544,1610612748
p1232
aa(lp1233
I2571
aVLeandro Barbosa
p1234
aI1610612738
aVBOS
p1235
aF30.0
aI41
aI23
aI18
aF0.561
aF12.5
aF2.0
aF4.7
aF0.43
aF0.4
aF1.1
aF0.383
aF0.8
aF1.0
aF0.756
aF0.2
aF0.9
aF1.1
aF1.4
aF0.5
aF0.4
aF0.1
aF0.3
aF1.2
aF1.0
aF5.2
aF-0.4
aI0
aI0
aI5
aV2571,1610612738
p1236
aa(lp1237
I101132
aVLinas Kleiza
p1238
aI1610612761
aVTOR
p1239
aF28.0
aI20
aI9
aI11
aF0.45
aF18.8
aF2.4
aF7.2
aF0.333
aF1.0
aF3.3
aF0.303
aF1.6
aF1.9
aF0.842
aF0.5
aF2.1
aF2.6
aF0.8
aF0.7
aF0.2
aF0.1
aF0.4
aF2.3
aF1.4
aF7.4
aF-2.2
aI0
aI0
aI5
aV101132,1610612761
p1240
aa(lp1241
I200811
aVLou Amundson
p1242
aI1610612740
aVNOH
p1243
aF30.0
aI39
aI11
aI28
aF0.282
aF9.5
aF0.8
aF2.1
aF0.395
aF0.0
aF0.0
aF0.0
aF0.3
aF0.9
aF0.333
aF1.2
aF1.5
aF2.7
aF0.3
aF0.5
aF0.4
aF0.3
aF0.3
aF1.4
aF0.8
aF1.9
aF-1.7
aI0
aI0
aI5
aV200811,1610612740
p1244
aa(lp1245
I101150
aVLou Williams
p1246
aI1610612737
aVATL
p1247
aF26.0
aI39
aI22
aI17
aF0.564
aF28.7
aF4.8
aF11.4
aF0.422
aF1.8
aF5.0
aF0.367
aF2.7
aF3.1
aF0.868
aF0.2
aF1.8
aF2.1
aF3.6
aF1.9
aF1.1
aF0.3
aF0.6
aF1.4
aF2.7
aF14.1
aF0.1
aI1
aI0
aI5
aV101150,1610612737
p1248
aa(lp1249
I201601
aVLuc Mbah a Moute
p1250
aI1610612749
aVMIL
p1251
aF26.0
aI58
aI28
aI30
aF0.483
aF22.9
aF2.6
aF6.5
aF0.401
aF0.2
aF0.6
aF0.351
aF1.2
aF2.2
aF0.571
aF1.5
aF2.9
aF4.4
aF0.9
aF1.2
aF0.7
aF0.2
aF0.6
aF1.4
aF1.7
aF6.7
aF-1.5
aI1
aI0
aI5
aV201601,1610612749
p1252
aa(lp1253
I2449
aVLuis Scola
p1254
aI1610612756
aVPHX
p1255
aF33.0
aI82
aI25
aI57
aF0.305
aF26.6
aF5.3
aF11.2
aF0.472
aF0.0
aF0.2
aF0.188
aF2.2
aF2.8
aF0.787
aF1.9
aF4.7
aF6.6
aF2.2
aF1.5
aF0.8
aF0.4
aF0.6
aF3.1
aF2.8
aF12.8
aF-2.6
aI15
aI0
aI5
aV2449,1610612756
p1256
aa(lp1257
I202337
aVLuke Babbitt
p1258
aI1610612757
aVPOR
p1259
aF24.0
aI62
aI24
aI38
aF0.387
aF11.8
aF1.4
aF3.8
aF0.368
aF1.0
aF2.9
aF0.348
aF0.2
aF0.2
aF0.769
aF0.2
aF2.0
aF2.2
aF0.5
aF0.4
aF0.2
aF0.1
aF0.0
aF1.3
aF0.2
aF3.9
aF0.0
aI0
aI0
aI5
aV202337,1610612757
p1260
aa(lp1261
I2557
aVLuke Ridnour
p1262
aI1610612750
aVMIN
p1263
aF32.0
aI82
aI31
aI51
aF0.378
aF30.2
aF4.5
aF9.9
aF0.453
aF0.8
aF2.6
aF0.311
aF1.7
aF2.0
aF0.848
aF0.5
aF2.0
aF2.5
aF3.8
aF1.6
aF1.0
aF0.2
aF0.4
aF2.3
aF2.0
aF11.5
aF-1.7
aI2
aI0
aI5
aV2557,1610612750
p1264
aa(lp1265
I2575
aVLuke Walton
p1266
aI1610612739
aVCLE
p1267
aF33.0
aI50
aI16
aI34
aF0.32
aF17.1
aF1.4
aF3.6
aF0.392
aF0.4
aF1.3
aF0.299
aF0.2
aF0.4
aF0.5
aF0.8
aF2.1
aF2.9
aF3.3
aF1.2
aF0.8
aF0.3
aF0.2
aF2.0
aF0.9
aF3.4
aF-1.1
aI0
aI0
aI5
aV2575,1610612739
p1268
aa(lp1269
I202545
aVLuke Zeller
p1270
aI1610612756
aVPHX
p1271
aF26.0
aI16
aI6
aI10
aF0.375
aF3.6
aF0.6
aF1.6
aF0.346
aF0.1
aF0.3
aF0.2
aF0.0
aF0.0
aF0.0
aF0.1
aF0.6
aF0.6
aF0.2
aF0.0
aF0.0
aF0.0
aF0.0
aF0.3
aF0.0
aF1.2
aF-2.6
aI0
aI0
aI5
aV202545,1610612756
p1272
aa(lp1273
I2736
aVLuol Deng
p1274
aI1610612741
aVCHI
p1275
aF28.0
aI75
aI42
aI33
aF0.56
aF38.7
aF6.2
aF14.6
aF0.426
aF1.0
aF3.1
aF0.322
aF3.1
aF3.8
aF0.816
aF2.2
aF4.2
aF6.3
aF3.0
aF1.9
aF1.1
aF0.4
aF0.9
aF1.4
aF3.5
aF16.5
aF0.0
aI9
aI0
aI5
aV2736,1610612741
p1276
aa(lp1277
I203146
aVMaalik Wayns
p1278
aI1610612746
aVLAC
p1279
aF22.0
aI27
aI10
aI17
aF0.37
aF7.5
aF1.0
aF3.3
aF0.295
aF0.3
aF1.1
aF0.226
aF0.6
aF0.7
aF0.895
aF0.0
aF0.2
aF0.3
aF1.0
aF0.6
aF0.2
aF0.0
aF0.3
aF1.0
aF0.6
aF2.8
aF-2.2
aI0
aI0
aI5
aV203146,1610612746
p1280
aa(lp1281
I202723
aVMalcolm Lee
p1282
aI1610612750
aVMIN
p1283
aF23.0
aI16
aI7
aI9
aF0.438
aF18.0
aF1.8
aF4.8
aF0.382
aF0.5
aF1.5
aF0.333
aF0.8
aF1.3
aF0.6
aF0.9
aF1.5
aF2.4
aF1.3
aF0.6
aF0.8
aF0.4
aF0.4
aF1.9
aF1.3
aF4.9
aF0.8
aI0
aI0
aI5
aV202723,1610612750
p1284
aa(lp1285
I202952
aVMalcolm Thomas
p1286
aI1610612741
aVCHI
p1287
aF24.0
aI12
aI6
aI6
aF0.5
aF4.7
aF0.4
aF0.8
aF0.5
aF0.0
aF0.0
aF0.0
aF0.4
aF0.7
aF0.625
aF0.4
aF0.9
aF1.3
aF0.3
aF0.3
aF0.2
aF0.2
aF0.1
aF0.7
aF0.5
aF1.3
aF3.1
aI0
aI0
aI5
aV202952,1610612741
p1288
aa(lp1289
I1938
aVManu Ginobili
p1290
aI1610612759
aVSAS
p1291
aF35.0
aI60
aI45
aI15
aF0.75
aF23.2
aF3.8
aF9.0
aF0.425
aF1.4
aF3.9
aF0.353
aF2.7
aF3.4
aF0.796
aF0.5
aF2.9
aF3.4
aF4.6
aF2.2
aF1.3
aF0.2
aF0.4
aF1.9
aF2.9
aF11.8
aF3.9
aI1
aI0
aI5
aV1938,1610612759
p1292
aa(lp1293
I202705
aVMarShon Brooks
p1294
aI1610612751
aVBKN
p1295
aF24.0
aI73
aI41
aI32
aF0.562
aF12.5
aF2.1
aF4.6
aF0.463
aF0.2
aF0.8
aF0.273
aF0.9
aF1.3
aF0.734
aF0.4
aF1.0
aF1.4
aF1.0
aF0.9
aF0.5
aF0.2
aF0.4
aF1.3
aF1.1
aF5.4
aF-0.8
aI0
aI0
aI5
aV202705,1610612751
p1296
aa(lp1297
I201188
aVMarc Gasol
p1298
aI1610612763
aVMEM
p1299
aF28.0
aI80
aI55
aI25
aF0.688
aF35.0
aF5.4
aF10.9
aF0.494
aF0.0
aF0.2
aF0.071
aF3.4
aF4.0
aF0.848
aF2.3
aF5.5
aF7.8
aF4.0
aF2.0
aF1.0
aF1.7
aF0.4
aF3.2
aF4.5
aF14.1
aF5.4
aI18
aI0
aI5
aV201188,1610612763
p1300
aa(lp1301
I101162
aVMarcin Gortat
p1302
aI1610612756
aVPHX
p1303
aF29.0
aI61
aI21
aI40
aF0.344
aF30.8
aF4.8
aF9.3
aF0.521
aF0.0
aF0.0
aF0.0
aF1.5
aF2.3
aF0.652
aF2.1
aF6.4
aF8.5
aF1.2
aF1.6
aF0.7
aF1.6
aF0.7
aF2.1
aF2.5
aF11.1
aF-3.3
aI17
aI0
aI5
aV101162,1610612756
p1304
aa(lp1305
I201158
aVMarco Belinelli
p1306
aI1610612741
aVCHI
p1307
aF27.0
aI73
aI40
aI33
aF0.548
aF25.8
aF3.3
aF8.4
aF0.395
aF1.1
aF3.0
aF0.357
aF1.9
aF2.3
aF0.839
aF0.2
aF1.7
aF1.9
aF2.0
aF1.1
aF0.6
aF0.1
aF0.5
aF1.9
aF2.2
aF9.6
aF-0.6
aI0
aI0
aI5
aV201158,1610612741
p1308
aa(lp1309
I948
aVMarcus Camby
p1310
aI1610612752
aVNYK
p1311
aF39.0
aI24
aI16
aI8
aF0.667
aF10.4
aF0.7
aF2.2
aF0.321
aF0.0
aF0.0
aF0.0
aF0.3
aF0.8
aF0.421
aF1.0
aF2.3
aF3.3
aF0.6
aF0.6
aF0.3
aF0.6
aF0.2
aF1.2
aF0.8
aF1.8
aF-0.5
aI0
aI0
aI5
aV948,1610612752
p1312
aa(lp1313
I202694
aVMarcus Morris
p1314
aI1610612756
aVPHX
p1315
aF23.0
aI77
aI35
aI42
aF0.455
aF19.8
aF2.9
aF6.8
aF0.422
aF1.1
aF3.0
aF0.369
aF0.9
aF1.5
aF0.564
aF1.0
aF2.6
aF3.6
aF0.8
aF1.0
aF0.6
aF0.3
aF0.4
aF2.1
aF1.2
aF7.7
aF-1.6
aI0
aI0
aI5
aV202694,1610612756
p1316
aa(lp1317
I201977
aVMarcus Thornton
p1318
aI1610612758
aVSAC
p1319
aF26.0
aI72
aI26
aI46
aF0.361
aF24.0
aF4.6
aF10.8
aF0.429
aF2.0
aF5.3
aF0.372
aF1.5
aF1.8
aF0.881
aF0.7
aF1.8
aF2.5
aF1.3
aF0.9
aF0.8
aF0.1
aF0.4
aF1.5
aF1.6
aF12.7
aF-4.0
aI0
aI0
aI5
aV201977,1610612758
p1320
aa(lp1321
I201596
aVMario Chalmers
p1322
aI1610612748
aVMIA
p1323
aF27.0
aI77
aI62
aI15
aF0.805
aF26.9
aF2.9
aF6.9
aF0.429
aF1.6
aF3.9
aF0.409
aF1.2
aF1.5
aF0.795
aF0.2
aF2.0
aF2.2
aF3.5
aF1.5
aF1.5
aF0.2
aF0.3
aF2.5
aF1.6
aF8.6
aF7.4
aI0
aI0
aI5
aV201596,1610612748
p1324
aa(lp1325
I202693
aVMarkieff Morris
p1326
aI1610612756
aVPHX
p1327
aF23.0
aI82
aI25
aI57
aF0.305
aF22.4
aF3.2
aF8.0
aF0.407
aF0.5
aF1.6
aF0.336
aF1.1
aF1.5
aF0.732
aF1.6
aF3.2
aF4.8
aF1.3
aF1.3
aF0.9
aF0.8
aF0.6
aF2.5
aF1.5
aF8.2
aF-4.4
aI3
aI0
aI5
aV202693,1610612756
p1328
aa(lp1329
I2605
aVMarquis Daniels
p1330
aI1610612749
aVMIL
p1331
aF32.0
aI59
aI27
aI32
aF0.458
aF18.4
aF2.2
aF5.9
aF0.376
aF0.3
aF1.2
aF0.278
aF0.7
aF0.9
aF0.741
aF0.8
aF1.7
aF2.5
aF1.1
aF0.8
aF0.9
aF0.2
aF0.4
aF1.3
aF0.8
aF5.5
aF-1.7
aI0
aI0
aI5
aV2605,1610612749
p1332
aa(lp1333
I203104
aVMarquis Teague
p1334
aI1610612741
aVCHI
p1335
aF20.0
aI48
aI24
aI24
aF0.5
aF8.2
aF0.9
aF2.4
aF0.381
aF0.1
aF0.5
aF0.174
aF0.2
aF0.3
aF0.563
aF0.1
aF0.9
aF0.9
aF1.3
aF0.7
aF0.2
aF0.1
aF0.3
aF1.0
aF0.3
aF2.1
aF-0.3
aI0
aI0
aI5
aV203104,1610612741
p1336
aa(lp1337
I201578
aVMarreese Speights
p1338
aI1610612739
aVCLE
p1339
aF25.0
aI79
aI39
aI40
aF0.494
aF16.5
aF3.3
aF7.4
aF0.445
aF0.0
aF0.1
aF0.3
aF1.7
aF2.2
aF0.771
aF1.8
aF3.0
aF4.9
aF0.6
aF1.0
aF0.3
aF0.7
aF0.6
aF2.2
aF1.8
aF8.3
aF-1.8
aI5
aI0
aI5
aV201578,1610612739
p1340
aa(lp1341
I101110
aVMartell Webster
p1342
aI1610612764
aVWAS
p1343
aF26.0
aI76
aI28
aI48
aF0.368
aF28.9
aF3.7
aF8.4
aF0.442
aF1.8
aF4.3
aF0.422
aF2.2
aF2.6
aF0.848
aF0.7
aF3.2
aF3.9
aF1.9
aF1.2
aF0.6
aF0.2
aF0.4
aF2.2
aF2.1
aF11.4
aF-0.4
aI1
aI0
aI5
aV101110,1610612764
p1344
aa(lp1345
I101107
aVMarvin Williams
p1346
aI1610612762
aVUTA
p1347
aF27.0
aI73
aI40
aI33
aF0.548
aF23.7
aF2.7
aF6.4
aF0.423
aF0.7
aF2.3
aF0.325
aF1.1
aF1.4
aF0.778
aF0.8
aF2.8
aF3.6
aF1.1
aF0.8
aF0.5
aF0.5
aF0.4
aF1.3
aF1.1
aF7.2
aF-1.3
aI2
aI0
aI5
aV101107,1610612762
p1348
aa(lp1349
I2440
aVMatt Barnes
p1350
aI1610612746
aVLAC
p1351
aF33.0
aI80
aI55
aI25
aF0.688
aF25.7
aF3.9
aF8.4
aF0.462
aF1.4
aF4.1
aF0.342
aF1.1
aF1.5
aF0.744
aF1.4
aF3.2
aF4.6
aF1.5
aF1.1
aF1.0
aF0.8
aF0.4
aF2.9
aF1.2
aF10.3
aF3.6
aI1
aI0
aI5
aV2440,1610612746
p1352
aa(lp1353
I2588
aVMatt Bonner
p1354
aI1610612759
aVSAS
p1355
aF33.0
aI68
aI47
aI21
aF0.691
aF13.4
aF1.6
aF3.4
aF0.487
aF0.8
aF1.8
aF0.442
aF0.2
aF0.2
aF0.733
aF0.4
aF1.5
aF1.9
aF0.5
aF0.2
aF0.3
aF0.3
aF0.0
aF1.3
aF0.5
aF4.2
aF1.2
aI1
aI0
aI5
aV2588,1610612759
p1356
aa(lp1357
I2679
aVMatt Carroll
p1358
aI1610612766
aVCHA
p1359
aF32.0
aI1
aI0
aI1
aF0.0
aF5.9
aF0.0
aF0.0
aF0.0
aF0.0
aF0.0
aF0.0
aF0.0
aF0.0
aF0.0
aF0.0
aF0.0
aF0.0
aF1.0
aF0.0
aF0.0
aF0.0
aF0.0
aF1.0
aF1.0
aF0.0
aF-2.0
aI0
aI0
aI5
aV2679,1610612766
p1360
aa(lp1361
I203090
aVMaurice Harkless
p1362
aI1610612753
aVORL
p1363
aF20.0
aI76
aI18
aI58
aF0.237
aF26.0
aF3.4
aF7.4
aF0.461
aF0.4
aF1.5
aF0.274
aF1.0
aF1.7
aF0.57
aF1.6
aF2.8
aF4.4
aF0.7
aF0.9
aF1.2
aF0.8
aF0.7
aF1.9
aF1.2
aF8.2
aF-6.2
aI1
aI0
aI5
aV203090,1610612753
p1364
aa(lp1365
I1897
aVMetta World Peace
p1366
aI1610612747
aVLAL
p1367
aF33.0
aI75
aI40
aI35
aF0.533
aF33.7
aF4.4
aF11.0
aF0.403
aF1.9
aF5.5
aF0.342
aF1.7
aF2.3
aF0.734
aF1.3
aF3.6
aF5.0
aF1.5
aF1.3
aF1.6
aF0.6
aF0.7
aF2.6
aF1.9
aF12.4
aF2.5
aI2
aI0
aI5
aV1897,1610612747
p1368
aa(lp1369
I203086
aVMeyers Leonard
p1370
aI1610612757
aVPOR
p1371
aF21.0
aI69
aI28
aI41
aF0.406
aF17.5
aF2.2
aF4.0
aF0.545
aF0.0
aF0.1
aF0.429
aF1.0
aF1.3
aF0.809
aF1.2
aF2.5
aF3.7
aF0.5
aF0.7
aF0.2
aF0.6
aF0.3
aF2.4
aF1.3
aF5.5
aF-2.2
aI1
aI0
aI5
aV203086,1610612757
p1372
aa(lp1373
I201563
aVMichael Beasley
p1374
aI1610612756
aVPHX
p1375
aF24.0
aI75
aI24
aI51
aF0.32
aF20.7
aF4.1
aF10.2
aF0.405
aF0.6
aF1.9
aF0.313
aF1.3
aF1.7
aF0.746
aF0.7
aF3.1
aF3.8
aF1.5
aF1.9
aF0.4
aF0.5
aF0.6
aF1.4
aF1.4
aF10.1
aF-4.5
aI2
aI0
aI5
aV201563,1610612756
p1376
aa(lp1377
I203077
aVMichael Kidd-Gilchrist
p1378
aI1610612766
aVCHA
p1379
aF19.0
aI78
aI20
aI58
aF0.256
aF26.0
aF3.6
aF7.9
aF0.458
aF0.0
aF0.1
aF0.222
aF1.8
aF2.4
aF0.749
aF1.7
aF4.2
aF5.8
aF1.5
aF1.3
aF0.7
aF0.9
aF1.2
aF2.1
aF1.9
aF9.0
aF-3.7
aI6
aI0
aI5
aV203077,1610612766
p1380
aa(lp1381
I101153
aVMickael Gelabale
p1382
aI1610612750
aVMIN
p1383
aF30.0
aI36
aI10
aI26
aF0.278
aF17.9
aF2.0
aF3.9
aF0.518
aF0.4
aF1.4
aF0.308
aF0.6
aF0.7
aF0.875
aF0.9
aF1.9
aF2.8
aF0.7
aF0.4
aF0.4
aF0.1
aF0.2
aF1.3
aF0.8
aF5.0
aF-1.8
aI0
aI0
aI5
aV101153,1610612750
p1384
aa(lp1385
I2554
aVMickael Pietrus
p1386
aI1610612761
aVTOR
p1387
aF31.0
aI19
aI10
aI9
aF0.526
aF20.3
aF1.8
aF5.2
aF0.347
aF1.1
aF3.4
aF0.313
aF0.6
aF0.9
aF0.667
aF0.3
aF1.6
aF1.9
aF0.5
aF0.8
aF0.6
aF0.3
aF0.3
aF1.7
aF0.9
aF5.3
aF-1.9
aI0
aI0
aI5
aV2554,1610612761
p1388
aa(lp1389
I201144
aVMike Conley
p1390
aI1610612763
aVMEM
p1391
aF25.0
aI80
aI54
aI26
aF0.675
aF34.5
aF5.2
aF11.8
aF0.44
aF1.3
aF3.7
aF0.362
aF2.9
aF3.5
aF0.83
aF0.5
aF2.3
aF2.8
aF6.1
aF2.4
aF2.2
aF0.3
aF0.6
aF2.1
aF3.5
aF14.6
aF6.3
aI7
aI0
aI5
aV201144,1610612763
p1392
aa(lp1393
I2399
aVMike Dunleavy
p1394
aI1610612749
aVMIL
p1395
aF32.0
aI75
aI33
aI42
aF0.44
aF25.9
aF3.7
aF8.3
aF0.442
aF1.7
aF4.0
aF0.428
aF1.4
aF1.7
aF0.82
aF0.4
aF3.5
aF3.9
aF1.9
aF1.2
aF0.5
aF0.5
aF0.2
aF1.8
aF1.9
aF10.5
aF1.4
aI1
aI0
aI5
aV2399,1610612749
p1396
aa(lp1397
I2229
aVMike James
p1398
aI1610612742
aVDAL
p1399
aF38.0
aI45
aI27
aI18
aF0.6
aF19.2
aF2.2
aF6.0
aF0.373
aF1.1
aF2.8
aF0.384
aF0.5
aF0.6
aF0.793
aF0.2
aF1.4
aF1.6
aF3.1
aF1.2
aF0.6
aF0.1
aF0.3
aF2.1
aF0.7
aF6.1
aF0.7
aI0
aI0
aI5
aV2229,1610612742
p1400
aa(lp1401
I2034
aVMike Miller
p1402
aI1610612748
aVMIA
p1403
aF33.0
aI59
aI47
aI12
aF0.797
aF15.2
aF1.7
aF3.9
aF0.433
aF1.2
aF3.0
aF0.417
aF0.1
aF0.2
aF0.727
aF0.3
aF2.4
aF2.7
aF1.7
aF0.6
aF0.4
aF0.1
aF0.1
aF1.1
aF0.3
aF4.8
aF0.9
aI0
aI0
aI5
aV2034,1610612748
p1404
aa(lp1405
I203118
aVMike Scott
p1406
aI1610612737
aVATL
p1407
aF24.0
aI40
aI19
aI21
aF0.475
aF9.4
aF1.8
aF3.7
aF0.476
aF0.0
aF0.0
aF0.0
aF1.1
aF1.4
aF0.768
aF1.0
aF1.8
aF2.8
aF0.3
aF0.5
aF0.1
aF0.1
aF0.4
aF0.8
aF0.9
aF4.6
aF-1.1
aI2
aI0
aI5
aV203118,1610612737
p1408
aa(lp1409
I203101
aVMiles Plumlee
p1410
aI1610612754
aVIND
p1411
aF24.0
aI14
aI9
aI5
aF0.643
aF3.9
aF0.4
aF1.5
aF0.238
aF0.0
aF0.0
aF0.0
aF0.2
aF0.3
aF0.75
aF0.9
aF0.7
aF1.6
aF0.1
aF0.2
aF0.0
aF0.2
aF0.2
aF0.4
aF0.1
aF0.9
aF-0.9
aI0
aI0
aI5
aV203101,1610612754
p1412
aa(lp1413
I203141
aVMirza Teletovic
p1414
aI1610612751
aVBKN
p1415
aF27.0
aI53
aI28
aI25
aF0.528
aF9.4
aF1.3
aF3.5
aF0.384
aF0.7
aF2.0
aF0.343
aF0.2
aF0.2
aF0.818
aF0.6
aF1.2
aF1.8
aF0.4
aF0.4
aF0.2
aF0.2
aF0.2
aF1.0
aF0.4
aF3.5
aF-0.4
aI0
aI0
aI5
aV203141,1610612751
p1416
aa(lp1417
I2590
aVMo Williams
p1418
aI1610612762
aVUTA
p1419
aF30.0
aI46
aI22
aI24
aF0.478
aF30.8
aF5.0
aF11.6
aF0.43
aF1.3
aF3.3
aF0.383
aF1.6
aF1.8
aF0.882
aF0.5
aF1.9
aF2.4
aF6.2
aF2.7
aF1.0
aF0.2
aF0.7
aF2.3
aF2.2
aF12.9
aF-1.3
aI3
aI0
aI5
aV2590,1610612762
p1420
aa(lp1421
I101145
aVMonta Ellis
p1422
aI1610612749
aVMIL
p1423
aF27.0
aI82
aI38
aI44
aF0.463
aF37.5
aF7.3
aF17.5
aF0.416
aF1.1
aF4.0
aF0.287
aF3.5
aF4.6
aF0.773
aF0.5
aF3.3
aF3.9
aF6.0
aF3.1
aF2.1
aF0.4
aF0.6
aF2.0
aF4.1
aF19.2
aF-0.5
aI9
aI0
aI5
aV101145,1610612749
p1424
aa(lp1425
I201986
aVNando De Colo
p1426
aI1610612759
aVSAS
p1427
aF26.0
aI72
aI50
aI22
aF0.694
aF12.8
aF1.5
aF3.3
aF0.436
aF0.4
aF1.1
aF0.378
aF0.5
aF0.6
aF0.795
aF0.3
aF1.6
aF1.9
aF1.9
aF1.1
aF0.6
aF0.1
aF0.2
aF1.2
aF0.8
aF3.8
aF-0.5
aI0
aI0
aI5
aV201986,1610612759
p1428
aa(lp1429
I101126
aVNate Robinson
p1430
aI1610612741
aVCHI
p1431
aF29.0
aI82
aI45
aI37
aF0.549
aF25.4
aF4.9
aF11.2
aF0.433
aF1.7
aF4.2
aF0.405
aF1.6
aF2.1
aF0.799
aF0.4
aF1.9
aF2.2
aF4.4
aF1.8
aF1.0
aF0.1
aF0.5
aF2.5
aF2.3
aF13.1
aF0.4
aI3
aI0
aI5
aV101126,1610612741
p1432
aa(lp1433
I1737
aVNazr Mohammed
p1434
aI1610612741
aVCHI
p1435
aF35.0
aI63
aI33
aI30
aF0.524
aF11.0
aF1.0
aF2.9
aF0.367
aF0.0
aF0.0
aF0.0
aF0.5
aF0.7
aF0.723
aF1.2
aF1.9
aF3.1
aF0.4
aF0.4
aF0.3
aF0.5
aF0.3
aF1.5
aF0.6
aF2.6
aF-0.2
aI2
aI0
aI5
aV1737,1610612741
p1436
aa(lp1437
I2403
aVNene
p1438
aI1610612764
aVWAS
p1439
aF30.0
aI61
aI26
aI35
aF0.426
aF27.2
aF4.7
aF9.7
aF0.48
aF0.0
aF0.0
aF0.0
aF3.2
aF4.4
aF0.729
aF1.7
aF5.0
aF6.7
aF2.9
aF2.3
aF0.9
aF0.6
aF0.5
aF2.8
aF4.5
aF12.6
aF1.5
aI7
aI0
aI5
aV2403,1610612764
p1440
aa(lp1441
I2555
aVNick Collison
p1442
aI1610612760
aVOKC
p1443
aF32.0
aI81
aI60
aI21
aF0.741
aF19.5
aF2.2
aF3.7
aF0.595
aF0.0
aF0.0
aF0.0
aF0.7
aF1.0
aF0.769
aF1.5
aF2.6
aF4.1
aF1.5
aF0.9
aF0.6
aF0.4
aF0.3
aF2.4
aF1.3
aF5.1
aF4.5
aI1
aI0
aI5
aV2555,1610612760
p1444
aa(lp1445
I201156
aVNick Young
p1446
aI1610612755
aVPHI
p1447
aF28.0
aI59
aI23
aI36
aF0.39
aF23.9
aF3.8
aF9.2
aF0.413
aF1.3
aF3.6
aF0.357
aF1.8
aF2.2
aF0.82
aF0.4
aF1.8
aF2.2
aF1.4
aF0.8
aF0.6
aF0.2
aF0.3
aF1.4
aF1.9
aF10.6
aF-1.6
aI0
aI0
aI5
aV201156,1610612755
p1448
aa(lp1449
I201587
aVNicolas Batum
p1450
aI1610612757
aVPOR
p1451
aF24.0
aI73
aI32
aI41
aF0.438
aF38.4
aF4.8
aF11.4
aF0.423
aF2.3
aF6.1
aF0.372
aF2.4
aF2.9
aF0.848
aF1.3
aF4.3
aF5.6
aF4.9
aF2.6
aF1.2
aF1.1
aF0.3
aF1.9
aF2.3
aF14.3
aF-1.5
aI7
aI2
aI5
aV201587,1610612757
p1452
aa(lp1453
I201593
aVNikola Pekovic
p1454
aI1610612750
aVMIN
p1455
aF27.0
aI62
aI26
aI36
aF0.419
aF31.6
aF6.2
aF12.0
aF0.52
aF0.0
aF0.0
aF0.0
aF3.9
aF5.2
aF0.744
aF3.7
aF5.1
aF8.8
aF0.9
aF1.6
aF0.7
aF0.8
aF1.4
aF2.3
aF4.3
aF16.3
aF-0.4
aI26
aI0
aI5
aV201593,1610612750
p1456
aa(lp1457
I202696
aVNikola Vucevic
p1458
aI1610612753
aVORL
p1459
aF22.0
aI77
aI19
aI58
aF0.247
aF33.2
aF6.0
aF11.5
aF0.519
aF0.0
aF0.0
aF0.0
aF1.1
aF1.6
aF0.683
aF3.5
aF8.4
aF11.9
aF1.9
aF1.8
aF0.8
aF1.0
aF0.8
aF2.8
aF1.8
aF13.1
aF-5.0
aI46
aI0
aI5
aV202696,1610612753
p1460
aa(lp1461
I202701
aVNolan Smith
p1462
aI1610612757
aVPOR
p1463
aF24.0
aI40
aI13
aI27
aF0.325
aF7.2
aF1.1
aF2.9
aF0.368
aF0.2
aF0.7
aF0.214
aF0.5
aF0.7
aF0.714
aF0.2
aF0.5
aF0.7
aF0.9
aF0.7
aF0.2
aF0.0
aF0.2
aF0.7
aF0.7
aF2.8
aF-0.3
aI0
aI0
aI5
aV202701,1610612757
p1464
aa(lp1465
I202708
aVNorris Cole
p1466
aI1610612748
aVMIA
p1467
aF24.0
aI80
aI65
aI15
aF0.813
aF19.9
aF2.2
aF5.3
aF0.421
aF0.4
aF1.2
aF0.357
aF0.7
aF1.0
aF0.65
aF0.2
aF1.4
aF1.6
aF2.1
aF1.3
aF0.7
aF0.1
aF0.4
aF1.9
aF1.1
aF5.6
aF0.1
aI1
aI0
aI5
aV202708,1610612748
p1468
aa(lp1469
I201564
aVO.J. Mayo
p1470
aI1610612742
aVDAL
p1471
aF25.0
aI82
aI41
aI41
aF0.5
aF35.5
aF5.6
aF12.5
aF0.449
aF1.7
aF4.3
aF0.407
aF2.3
aF2.8
aF0.82
aF0.4
aF3.1
aF3.5
aF4.4
aF2.6
aF1.1
aF0.3
aF0.6
aF2.4
aF2.6
aF15.3
aF-1.3
aI2
aI0
aI5
aV201564,1610612742
p1472
aa(lp1473
I201600
aVOmer Asik
p1474
aI1610612745
aVHOU
p1475
aF26.0
aI82
aI45
aI37
aF0.549
aF30.0
aF4.0
aF7.5
aF0.541
aF0.0
aF0.0
aF0.0
aF2.0
aF3.6
aF0.562
aF3.4
aF8.3
aF11.7
aF0.9
aF2.1
aF0.6
aF1.1
aF1.0
aF2.7
aF2.8
aF10.1
aF3.5
aI33
aI0
aI5
aV201600,1610612745
p1476
aa(lp1477
I201956
aVOmri Casspi
p1478
aI1610612739
aVCLE
p1479
aF25.0
aI43
aI10
aI33
aF0.233
aF11.7
aF1.5
aF3.7
aF0.394
aF0.6
aF1.8
aF0.329
aF0.5
aF1.0
aF0.537
aF0.5
aF2.2
aF2.7
aF0.7
aF0.5
aF0.6
aF0.3
aF0.3
aF1.0
aF0.8
aF4.0
aF-1.1
aI0
aI0
aI5
aV201956,1610612739
p1480
aa(lp1481
I203111
aVOrlando Johnson
p1482
aI1610612754
aVIND
p1483
aF24.0
aI51
aI31
aI20
aF0.608
aF12.1
aF1.4
aF3.5
aF0.4
aF0.7
aF1.8
aF0.383
aF0.5
aF0.6
aF0.719
aF0.4
aF1.8
aF2.2
aF0.9
aF0.6
aF0.2
aF0.2
aF0.4
aF1.0
aF0.5
aF4.0
aF-0.1
aI0
aI0
aI5
aV203111,1610612754
p1484
aa(lp1485
I200782
aVPJ Tucker
p1486
aI1610612756
aVPHX
p1487
aF28.0
aI79
aI25
aI54
aF0.316
aF24.2
aF2.7
aF5.6
aF0.473
aF0.3
aF0.9
aF0.314
aF0.8
aF1.1
aF0.744
aF1.7
aF2.8
aF4.4
aF1.4
aF0.8
aF0.8
aF0.2
aF0.5
aF1.8
aF1.2
aF6.4
aF-2.2
aI3
aI0
aI5
aV200782,1610612756
p1488
aa(lp1489
I203143
aVPablo Prigioni
p1490
aI1610612752
aVNYK
p1491
aF36.0
aI78
aI53
aI25
aF0.679
aF16.2
aF1.3
aF2.8
aF0.455
aF0.7
aF1.7
aF0.396
aF0.3
aF0.3
aF0.88
aF0.5
aF1.3
aF1.8
aF3.0
aF1.1
aF0.9
aF0.0
aF0.1
aF1.6
aF0.9
aF3.5
aF2.2
aI0
aI0
aI5
aV203143,1610612752
p1492
aa(lp1493
I201976
aVPatrick Beverley
p1494
aI1610612745
aVHOU
p1495
aF24.0
aI41
aI23
aI18
aF0.561
aF17.4
aF1.9
aF4.6
aF0.418
aF0.9
aF2.3
aF0.375
aF0.8
aF1.0
aF0.829
aF1.1
aF1.6
aF2.7
aF2.9
aF1.1
aF0.9
aF0.5
aF0.2
aF2.0
aF1.2
aF5.6
aF2.9
aI0
aI0
aI5
aV201976,1610612745
p1496
aa(lp1497
I202335
aVPatrick Patterson
p1498
aI1610612758
aVSAC
p1499
aF24.0
aI71
aI31
aI40
aF0.437
aF25.0
aF4.5
aF8.8
aF0.512
aF0.7
aF1.9
aF0.386
aF0.7
aF0.9
aF0.762
aF1.6
aF3.2
aF4.7
aF1.1
aF0.9
aF0.4
aF0.6
aF0.3
aF1.9
aF0.9
aF10.4
aF0.8
aI4
aI0
aI5
aV202335,1610612758
p1500
aa(lp1501
I201988
aVPatty Mills
p1502
aI1610612759
aVSAS
p1503
aF24.0
aI58
aI39
aI19
aF0.672
aF11.3
aF1.9
aF4.2
aF0.469
aF0.9
aF2.2
aF0.4
aF0.3
aF0.3
aF0.842
aF0.2
aF0.7
aF0.9
aF1.1
aF0.7
aF0.4
aF0.1
aF0.2
aF0.9
aF0.7
aF5.1
aF0.6
aI0
aI0
aI5
aV201988,1610612759
p1504
aa(lp1505
I2200
aVPau Gasol
p1506
aI1610612747
aVLAL
p1507
aF32.0
aI49
aI27
aI22
aF0.551
aF33.8
aF5.5
aF11.8
aF0.466
aF0.2
aF0.6
aF0.286
aF2.6
aF3.6
aF0.702
aF2.3
aF6.3
aF8.6
aF4.1
aF2.1
aF0.5
aF1.2
aF0.8
aF1.9
aF3.0
aF13.7
aF2.0
aI15
aI2
aI5
aV2200,1610612747
p1508
aa(lp1509
I202331
aVPaul George
p1510
aI1610612754
aVIND
p1511
aF23.0
aI79
aI48
aI31
aF0.608
aF37.6
aF6.2
aF14.9
aF0.419
aF2.2
aF5.9
aF0.362
aF2.8
aF3.5
aF0.807
aF1.1
aF6.5
aF7.6
aF4.1
aF2.9
aF1.8
aF0.6
aF1.0
aF2.9
aF3.2
aF17.4
aF4.6
aI23
aI1
aI5
aV202331,1610612754
p1512
aa(lp1513
I200794
aVPaul Millsap
p1514
aI1610612762
aVUTA
p1515
aF28.0
aI78
aI41
aI37
aF0.526
aF30.4
aF5.5
aF11.2
aF0.49
aF0.2
aF0.5
aF0.333
aF3.4
aF4.6
aF0.742
aF2.3
aF4.8
aF7.1
aF2.6
aF1.8
aF1.3
aF1.0
aF1.0
aF3.0
aF4.1
aF14.6
aF0.0
aI15
aI0
aI5
aV200794,1610612762
p1516
aa(lp1517
I1718
aVPaul Pierce
p1518
aI1610612738
aVBOS
p1519
aF35.0
aI77
aI41
aI36
aF0.532
aF33.4
aF6.2
aF14.2
aF0.436
aF1.9
aF5.0
aF0.38
aF4.3
aF5.5
aF0.787
aF0.6
aF5.7
aF6.3
aF4.8
aF2.8
aF1.1
aF0.4
aF1.0
aF2.7
aF4.6
aF18.6
aF1.6
aI12
aI3
aI5
aV1718,1610612738
p1520
aa(lp1521
I203103
aVPerry Jones
p1522
aI1610612760
aVOKC
p1523
aF21.0
aI38
aI30
aI8
aF0.789
aF7.4
aF1.0
aF2.6
aF0.394
aF0.0
aF0.1
aF0.0
aF0.3
aF0.4
aF0.667
aF0.3
aF1.3
aF1.6
aF0.3
aF0.4
aF0.1
aF0.2
aF0.2
aF0.6
aF0.3
aF2.3
aF0.0
aI0
aI0
aI5
aV203103,1610612760
p1524
aa(lp1525
I2047
aVQuentin Richardson
p1526
aI1610612752
aVNYK
p1527
aF33.0
aI1
aI1
aI0
aF1.0
aF28.9
aF1.0
aF11.0
aF0.091
aF1.0
aF4.0
aF0.25
aF2.0
aF2.0
aF1.0
aF5.0
aF5.0
aF10.0
aF1.0
aF2.0
aF0.0
aF0.0
aF0.0
aF1.0
aF1.0
aF5.0
aF-9.0
aI0
aI0
aI5
aV2047,1610612752
p1528
aa(lp1529
I203112
aVQuincy Acy
p1530
aI1610612761
aVTOR
p1531
aF22.0
aI29
aI13
aI16
aF0.448
aF11.8
aF1.4
aF2.6
aF0.56
aF0.0
aF0.1
aF0.5
aF1.1
aF1.3
aF0.816
aF1.0
aF1.6
aF2.7
aF0.4
aF0.6
aF0.4
aF0.5
aF0.2
aF1.8
aF1.1
aF4.0
aF3.3
aI0
aI0
aI5
aV203112,1610612761
p1532
aa(lp1533
I203113
aVQuincy Miller
p1534
aI1610612743
aVDEN
p1535
aF20.0
aI7
aI6
aI1
aF0.857
aF3.7
aF0.6
aF1.7
aF0.333
aF0.0
aF0.1
aF0.0
aF0.1
aF0.3
aF0.5
aF0.1
aF0.1
aF0.3
aF0.4
aF0.1
aF0.1
aF0.0
aF0.3
aF0.4
aF0.1
aF1.3
aF-0.7
aI0
aI0
aI5
aV203113,1610612743
p1536
aa(lp1537
I202347
aVQuincy Pondexter
p1538
aI1610612763
aVMEM
p1539
aF25.0
aI59
aI43
aI16
aF0.729
aF21.1
aF2.2
aF5.1
aF0.428
aF1.0
aF2.6
aF0.395
aF1.0
aF1.3
aF0.787
aF0.7
aF1.5
aF2.2
aF1.0
aF0.7
aF0.6
aF0.1
aF0.4
aF1.6
aF1.1
aF6.4
aF0.9
aI0
aI0
aI5
aV202347,1610612763
p1540
aa(lp1541
I200765
aVRajon Rondo
p1542
aI1610612738
aVBOS
p1543
aF27.0
aI38
aI18
aI20
aF0.474
aF37.4
aF5.9
aF12.2
aF0.484
aF0.3
aF1.3
aF0.24
aF1.6
aF2.4
aF0.645
aF1.1
aF4.4
aF5.6
aF11.1
aF3.9
aF1.8
aF0.2
aF0.6
aF2.5
aF3.3
aF13.7
aF-1.5
aI20
aI5
aI5
aV200765,1610612738
p1544
aa(lp1545
I201196
aVRamon Sessions
p1546
aI1610612766
aVCHA
p1547
aF27.0
aI61
aI13
aI48
aF0.213
aF27.1
aF4.5
aF11.1
aF0.408
aF0.5
aF1.8
aF0.308
aF4.8
aF5.7
aF0.839
aF0.4
aF2.3
aF2.8
aF3.8
aF1.7
aF0.8
aF0.1
aF1.1
aF1.5
aF4.2
aF14.4
aF-6.2
aI0
aI0
aI5
aV201196,1610612766
p1548
aa(lp1549
I200751
aVRandy Foye
p1550
aI1610612762
aVUTA
p1551
aF29.0
aI82
aI43
aI39
aF0.524
aF27.4
aF3.6
aF9.0
aF0.397
aF2.2
aF5.3
aF0.41
aF1.4
aF1.8
aF0.819
aF0.2
aF1.3
aF1.5
aF2.0
aF1.1
aF0.8
aF0.3
aF0.4
aF2.3
aF1.4
aF10.8
aF-1.0
aI0
aI0
aI5
aV200751,1610612762
p1552
aa(lp1553
I1740
aVRashard Lewis
p1554
aI1610612748
aVMIA
p1555
aF33.0
aI55
aI47
aI8
aF0.855
aF14.4
aF1.9
aF4.5
aF0.414
aF0.9
aF2.4
aF0.389
aF0.5
aF0.8
aF0.622
aF0.3
aF1.9
aF2.2
aF0.5
aF0.6
aF0.4
aF0.3
aF0.2
aF1.2
aF0.8
aF5.2
aF-0.4
aI0
aI0
aI5
aV1740,1610612748
p1556
aa(lp1557
I739
aVRasheed Wallace
p1558
aI1610612752
aVNYK
p1559
aF38.0
aI21
aI16
aI5
aF0.762
aF14.1
aF2.6
aF6.8
aF0.387
aF1.0
aF3.3
aF0.319
aF0.7
aF1.0
aF0.7
aF0.5
aF3.4
aF4.0
aF0.3
aF0.5
aF0.6
aF0.7
aF0.3
aF1.9
aF0.8
aF7.0
aF0.4
aI0
aI0
aI5
aV739,1610612752
p1560
aa(lp1561
I951
aVRay Allen
p1562
aI1610612748
aVMIA
p1563
aF37.0
aI79
aI63
aI16
aF0.797
aF25.8
aF3.7
aF8.2
aF0.449
aF1.8
aF4.2
aF0.419
aF1.8
aF2.0
aF0.886
aF0.5
aF2.2
aF2.7
aF1.7
aF1.3
aF0.8
aF0.2
aF0.3
aF1.6
aF1.5
aF10.9
aF2.2
aI0
aI0
aI5
aV951,1610612748
p1564
aa(lp1565
I101109
aVRaymond Felton
p1566
aI1610612752
aVNYK
p1567
aF29.0
aI68
aI47
aI21
aF0.691
aF34.0
aF5.5
aF13.0
aF0.427
aF1.4
aF3.8
aF0.36
aF1.5
aF1.9
aF0.789
aF0.8
aF2.1
aF2.9
aF5.5
aF2.3
aF1.4
aF0.2
aF0.5
aF1.9
aF2.0
aF13.9
aF4.1
aI3
aI0
aI5
aV101109,1610612752
p1568
aa(lp1569
I2501
aVReggie Evans
p1570
aI1610612751
aVBKN
p1571
aF33.0
aI80
aI48
aI32
aF0.6
aF24.6
aF1.6
aF3.3
aF0.479
aF0.0
aF0.0
aF0.0
aF1.4
aF2.8
aF0.509
aF3.3
aF7.9
aF11.1
aF0.5
aF1.4
aF0.9
aF0.2
aF0.6
aF2.5
aF2.5
aF4.5
aF1.5
aI8
aI0
aI5
aV2501,1610612751
p1572
aa(lp1573
I202704
aVReggie Jackson
p1574
aI1610612760
aVOKC
p1575
aF23.0
aI70
aI50
aI20
aF0.714
aF14.2
aF2.1
aF4.6
aF0.458
aF0.3
aF1.5
aF0.231
aF0.7
aF0.9
aF0.839
aF0.3
aF2.1
aF2.4
aF1.7
aF0.8
aF0.4
aF0.2
aF0.2
aF1.2
aF1.0
aF5.3
aF1.5
aI0
aI0
aI5
aV202704,1610612760
p1576
aa(lp1577
I202130
aVReggie Williams
p1578
aI1610612766
aVCHA
p1579
aF26.0
aI40
aI7
aI33
aF0.175
aF9.5
aF1.4
aF3.3
aF0.432
aF0.6
aF1.8
aF0.306
aF0.3
aF0.5
aF0.476
aF0.2
aF1.1
aF1.3
aF1.0
aF0.5
aF0.3
aF0.0
aF0.1
aF0.5
aF0.3
aF3.7
aF-0.8
aI0
aI0
aI5
aV202130,1610612766
p1580
aa(lp1581
I1888
aVRichard Hamilton
p1582
aI1610612741
aVCHI
p1583
aF35.0
aI50
aI28
aI22
aF0.56
aF21.8
aF4.1
aF9.5
aF0.429
aF0.3
aF1.0
aF0.308
aF1.3
aF1.5
aF0.857
aF0.3
aF1.3
aF1.7
aF2.4
aF1.7
aF0.5
aF0.1
aF0.5
aF1.9
aF1.3
aF9.8
aF-0.6
aI0
aI0
aI5
aV1888,1610612741
p1584
aa(lp1585
I2210
aVRichard Jefferson
p1586
aI1610612744
aVGSW
p1587
aF33.0
aI56
aI30
aI26
aF0.536
aF10.1
aF1.1
aF2.4
aF0.456
aF0.3
aF0.8
aF0.311
aF0.7
aF0.9
aF0.717
aF0.1
aF1.4
aF1.5
aF0.6
aF0.4
aF0.3
aF0.1
aF0.2
aF0.8
aF0.9
aF3.1
aF0.2
aI0
aI0
aI5
aV2210,1610612744
p1588
aa(lp1589
I201937
aVRicky Rubio
p1590
aI1610612750
aVMIN
p1591
aF22.0
aI57
aI18
aI39
aF0.316
aF29.7
aF3.2
aF9.0
aF0.36
aF0.5
aF1.6
aF0.293
aF3.7
aF4.6
aF0.799
aF0.8
aF3.2
aF4.0
aF7.3
aF3.0
aF2.4
aF0.1
aF0.8
aF2.5
aF4.3
aF10.7
aF-1.5
aI13
aI1
aI5
aV201937,1610612750
p1592
aa(lp1593
I203135
aVRobert Sacre
p1594
aI1610612747
aVLAL
p1595
aF24.0
aI32
aI19
aI13
aF0.594
aF6.4
aF0.6
aF1.5
aF0.375
aF0.0
aF0.0
aF0.0
aF0.2
aF0.3
aF0.636
aF0.3
aF0.8
aF1.1
aF0.2
aF0.3
aF0.0
aF0.3
aF0.3
aF1.2
aF0.3
aF1.3
aF-1.6
aI0
aI0
aI5
aV203135,1610612747
p1596
aa(lp1597
I201577
aVRobin Lopez
p1598
aI1610612740
aVNOH
p1599
aF25.0
aI82
aI27
aI55
aF0.329
aF26.0
aF4.7
aF8.8
aF0.534
aF0.0
aF0.0
aF0.0
aF2.0
aF2.5
aF0.778
aF2.8
aF2.9
aF5.6
aF0.8
aF1.3
aF0.4
aF1.6
aF0.8
aF2.0
aF2.2
aF11.3
aF-1.7
aI9
aI0
aI5
aV201577,1610612740
p1600
aa(lp1601
I201155
aVRodney Stuckey
p1602
aI1610612765
aVDET
p1603
aF27.0
aI76
aI24
aI52
aF0.316
aF28.6
aF4.0
aF9.8
aF0.406
aF0.7
aF2.4
aF0.302
aF2.8
aF3.6
aF0.783
aF0.6
aF2.2
aF2.8
aF3.6
aF1.8
aF0.7
aF0.2
aF0.7
aF1.7
aF2.9
aF11.5
aF-3.8
aI1
aI0
aI5
aV201155,1610612765
p1604
aa(lp1605
I201958
aVRodrigue Beaubois
p1606
aI1610612742
aVDAL
p1607
aF25.0
aI45
aI17
aI28
aF0.378
aF12.2
aF1.4
aF3.9
aF0.369
aF0.5
aF1.6
aF0.292
aF0.7
aF0.8
aF0.789
aF0.2
aF1.1
aF1.3
aF1.9
aF0.7
aF0.4
aF0.1
aF0.2
aF1.2
aF0.8
aF4.0
aF0.8
aI0
aI0
aI5
aV201958,1610612742
p1608
aa(lp1609
I2427
aVRoger Mason Jr.
p1610
aI1610612740
aVNOH
p1611
aF32.0
aI69
aI20
aI49
aF0.29
aF17.7
aF1.9
aF4.4
aF0.433
aF1.0
aF2.3
aF0.415
aF0.6
aF0.6
aF0.907
aF0.2
aF1.8
aF1.9
aF1.1
aF0.7
aF0.4
aF0.2
aF0.2
aF1.5
aF0.3
aF5.3
aF0.0
aI0
aI0
aI5
aV2427,1610612740
p1612
aa(lp1613
I200758
aVRonnie Brewer
p1614
aI1610612760
aVOKC
p1615
aF28.0
aI60
aI43
aI17
aF0.717
aF14.2
aF1.2
aF3.3
aF0.354
aF0.4
aF1.3
aF0.303
aF0.3
aF0.7
aF0.41
aF0.7
aF1.6
aF2.3
aF0.8
aF0.3
aF0.7
aF0.1
aF0.2
aF0.6
aF0.5
aF3.0
aF0.0
aI1
aI0
aI5
aV200758,1610612760
p1616
aa(lp1617
I101179
aVRonnie Price
p1618
aI1610612757
aVPOR
p1619
aF30.0
aI39
aI18
aI21
aF0.462
aF13.1
aF1.0
aF3.1
aF0.325
aF0.3
aF1.0
aF0.256
aF0.4
aF0.6
aF0.708
aF0.3
aF0.8
aF1.1
aF1.9
aF0.9
aF0.7
aF0.1
aF0.2
aF1.6
aF0.9
aF2.7
aF-1.9
aI0
aI0
aI5
aV101179,1610612757
p1620
aa(lp1621
I101142
aVRonny Turiaf
p1622
aI1610612746
aVLAC
p1623
aF30.0
aI65
aI47
aI18
aF0.723
aF10.8
aF0.8
aF1.5
aF0.505
aF0.0
aF0.0
aF0.0
aF0.4
aF1.0
aF0.365
aF0.7
aF1.6
aF2.3
aF0.5
aF0.4
aF0.3
aF0.5
aF0.3
aF1.2
aF0.9
aF1.9
aF0.4
aI0
aI0
aI5
aV101142,1610612746
p1624
aa(lp1625
I201579
aVRoy Hibbert
p1626
aI1610612754
aVIND
p1627
aF26.0
aI79
aI49
aI30
aF0.62
aF28.7
aF4.9
aF10.9
aF0.448
aF0.0
aF0.1
aF0.25
aF2.1
aF2.8
aF0.741
aF3.7
aF4.6
aF8.3
aF1.4
aF2.1
aF0.5
aF2.6
aF1.1
aF3.5
aF3.2
aF11.9
aF4.9
aI23
aI1
aI5
aV201579,1610612754
p1628
aa(lp1629
I2767
aVRoyal Ivey
p1630
aI1610612755
aVPHI
p1631
aF31.0
aI53
aI20
aI33
aF0.377
aF13.2
aF1.2
aF2.7
aF0.431
aF0.7
aF1.7
aF0.42
aF0.2
aF0.3
aF0.563
aF0.3
aF0.8
aF1.1
aF0.6
aF0.4
aF0.4
aF0.1
aF0.1
aF1.4
aF0.7
aF3.2
aF-1.7
aI0
aI0
aI5
aV2767,1610612755
p1632
aa(lp1633
I200752
aVRudy Gay
p1634
aI1610612761
aVTOR
p1635
aF26.0
aI75
aI46
aI29
aF0.613
aF35.8
aF6.9
aF16.7
aF0.416
aF1.1
aF3.5
aF0.323
aF3.2
aF3.9
aF0.814
aF1.3
aF4.8
aF6.1
aF2.7
aF2.6
aF1.5
aF0.7
aF1.1
aF2.4
aF3.1
aF18.2
aF2.9
aI6
aI0
aI5
aV200752,1610612761
p1636
aa(lp1637
I201566
aVRussell Westbrook
p1638
aI1610612760
aVOKC
p1639
aF24.0
aI82
aI60
aI22
aF0.732
aF34.9
aF8.2
aF18.7
aF0.438
aF1.2
aF3.7
aF0.323
aF5.6
aF7.0
aF0.8
aF1.4
aF3.9
aF5.2
aF7.4
aF3.3
aF1.8
aF0.3
aF0.9
aF2.3
aF4.8
aF23.2
aF7.7
aI23
aI1
aI5
aV201566,1610612760
p1640
aa(lp1641
I201583
aVRyan Anderson
p1642
aI1610612740
aVNOH
p1643
aF25.0
aI81
aI27
aI54
aF0.333
aF30.9
aF5.8
aF13.8
aF0.423
aF2.6
aF6.9
aF0.382
aF1.9
aF2.2
aF0.844
aF2.4
aF4.0
aF6.4
aF1.2
aF1.2
aF0.5
aF0.4
aF0.7
aF2.2
aF2.0
aF16.2
aF-3.2
aI11
aI0
aI5
aV201583,1610612740
p1644
aa(lp1645
I200797
aVRyan Hollins
p1646
aI1610612746
aVLAC
p1647
aF28.0
aI60
aI43
aI17
aF0.717
aF11.1
aF1.2
aF1.9
aF0.614
aF0.0
aF0.0
aF0.0
aF1.1
aF1.5
aF0.75
aF0.8
aF1.5
aF2.3
aF0.2
aF0.7
aF0.1
aF0.6
aF0.3
aF2.2
aF1.3
aF3.4
aF1.0
aI0
aI0
aI5
aV200797,1610612746
p1648
aa(lp1649
I201970
aVSam Young
p1650
aI1610612754
aVIND
p1651
aF28.0
aI56
aI36
aI20
aF0.643
aF12.4
aF1.0
aF2.6
aF0.392
aF0.3
aF0.9
aF0.308
aF0.4
aF0.8
aF0.535
aF0.5
aF1.7
aF2.2
aF0.8
aF0.6
aF0.3
aF0.1
aF0.2
aF1.1
aF0.7
aF2.8
aF-1.5
aI0
aI0
aI5
aV201970,1610612754
p1652
aa(lp1653
I202396
aVSamardo Samuels
p1654
aI1610612739
aVCLE
p1655
aF24.0
aI18
aI3
aI15
aF0.167
aF10.9
aF1.2
aF3.3
aF0.367
aF0.0
aF0.1
aF0.0
aF0.8
aF1.3
aF0.583
aF0.6
aF1.0
aF1.6
aF0.4
aF0.3
aF0.2
aF0.2
aF0.2
aF1.7
aF1.1
aF3.2
aF-1.4
aI0
aI0
aI5
aV202396,1610612739
p1656
aa(lp1657
I2223
aVSamuel Dalembert
p1658
aI1610612749
aVMIL
p1659
aF33.0
aI47
aI22
aI25
aF0.468
aF16.3
aF2.9
aF5.4
aF0.542
aF0.0
aF0.0
aF1.0
aF0.8
aF1.2
aF0.691
aF2.2
aF3.6
aF5.9
aF0.4
aF1.1
aF0.4
aF1.1
aF0.4
aF1.9
aF0.9
aF6.7
aF-2.3
aI8
aI0
aI5
aV2223,1610612749
p1660
aa(lp1661
I2562
aVSasha Pavlovic
p1662
aI1610612757
aVPOR
p1663
aF29.0
aI39
aI15
aI24
aF0.385
aF13.5
aF1.1
aF3.1
aF0.353
aF0.5
aF1.5
aF0.3
aF0.0
aF0.2
aF0.167
aF0.2
aF1.3
aF1.4
aF0.8
aF0.4
aF0.6
aF0.1
aF0.1
aF1.5
aF0.4
aF2.6
aF-0.8
aI0
aI0
aI5
aV2562,1610612757
p1664
aa(lp1665
I203159
aVScott Machado
p1666
aI1610612744
aVGSW
p1667
aF23.0
aI6
aI4
aI2
aF0.667
aF3.5
aF0.5
aF1.0
aF0.5
aF0.0
aF0.2
aF0.0
aF0.3
aF0.3
aF1.0
aF0.0
aF0.2
aF0.2
aF1.0
aF1.3
aF0.3
aF0.0
aF0.0
aF0.0
aF0.2
aF1.3
aF-1.7
aI0
aI0
aI5
aV203159,1610612744
p1668
aa(lp1669
I2742
aVSebastian Telfair
p1670
aI1610612761
aVTOR
p1671
aF28.0
aI59
aI21
aI38
aF0.356
aF16.6
aF1.9
aF5.2
aF0.362
aF0.9
aF2.5
aF0.353
aF0.9
aF1.2
aF0.783
aF0.2
aF1.2
aF1.4
aF2.6
aF1.1
aF0.6
aF0.2
aF0.3
aF1.8
aF1.1
aF5.6
aF-0.6
aI0
aI0
aI5
aV2742,1610612761
p1672
aa(lp1673
I201586
aVSerge Ibaka
p1674
aI1610612760
aVOKC
p1675
aF23.0
aI80
aI58
aI22
aF0.725
aF31.1
aF5.6
aF9.7
aF0.573
aF0.3
aF0.7
aF0.351
aF1.8
aF2.4
aF0.749
aF2.8
aF4.9
aF7.7
aF0.5
aF1.6
aF0.4
aF3.0
aF0.4
aF2.7
aF1.9
aF13.2
aF6.1
aI15
aI0
aI5
aV201586,1610612760
p1676
aa(lp1677
I2203
aVShane Battier
p1678
aI1610612748
aVMIA
p1679
aF34.0
aI72
aI59
aI13
aF0.819
aF24.8
aF2.1
aF5.0
aF0.42
aF1.9
aF4.4
aF0.43
aF0.4
aF0.5
aF0.842
aF0.5
aF1.8
aF2.3
aF1.0
aF0.5
aF0.6
aF0.8
aF0.1
aF2.1
aF0.9
aF6.6
aF4.7
aI0
aI0
aI5
aV2203,1610612748
p1680
aa(lp1681
I200769
aVShannon Brown
p1682
aI1610612756
aVPHX
p1683
aF27.0
aI59
aI17
aI42
aF0.288
aF23.8
aF4.1
aF9.7
aF0.42
aF0.7
aF2.4
aF0.277
aF1.7
aF2.1
aF0.784
aF0.7
aF1.8
aF2.5
aF1.8
aF1.3
aF1.0
aF0.3
aF0.5
aF1.6
aF1.4
aF10.5
aF-3.3
aI0
aI0
aI5
aV200769,1610612756
p1684
aa(lp1685
I2733
aVShaun Livingston
p1686
aI1610612739
aVCLE
p1687
aF27.0
aI66
aI20
aI46
aF0.303
aF22.0
aF2.5
aF5.2
aF0.48
aF0.0
aF0.1
aF0.0
aF1.3
aF1.5
aF0.867
aF0.5
aF1.9
aF2.4
aF3.3
aF1.2
aF0.7
aF0.5
aF0.2
aF1.9
aF1.5
aF6.3
aF-1.8
aI0
aI0
aI5
aV2733,1610612739
p1688
aa(lp1689
I101183
aVShavlik Randolph
p1690
aI1610612738
aVBOS
p1691
aF29.0
aI16
aI7
aI9
aF0.438
aF12.4
aF1.8
aF3.0
aF0.583
aF0.0
aF0.0
aF0.0
aF0.7
aF1.7
aF0.407
aF1.8
aF2.6
aF4.4
aF0.3
aF0.6
aF0.5
aF0.4
aF0.4
aF2.4
aF1.8
aF4.2
aF0.4
aI0
aI0
aI5
aV101183,1610612738
p1692
aa(lp1693
I1890
aVShawn Marion
p1694
aI1610612742
aVDAL
p1695
aF35.0
aI67
aI32
aI35
aF0.478
aF30.0
aF5.3
aF10.3
aF0.514
aF0.3
aF1.1
aF0.315
aF1.2
aF1.5
aF0.782
aF2.2
aF5.7
aF7.8
aF2.4
aF1.5
aF1.1
aF0.7
aF0.4
aF1.7
aF1.1
aF12.1
aF-2.4
aI14
aI0
aI5
aV1890,1610612742
p1696
aa(lp1697
I202714
aVShelvin Mack
p1698
aI1610612737
aVATL
p1699
aF23.0
aI31
aI13
aI18
aF0.419
aF13.4
aF1.9
aF4.1
aF0.46
aF0.6
aF1.6
aF0.367
aF0.3
aF0.5
aF0.563
aF0.1
aF1.2
aF1.3
aF2.2
aF1.1
aF0.5
aF0.0
aF0.2
aF1.3
aF0.7
aF4.6
aF-1.0
aI0
aI0
aI5
aV202714,1610612737
p1700
aa(lp1701
I200780
aVSolomon Jones
p1702
aI1610612752
aVNYK
p1703
aF28.0
aI2
aI2
aI0
aF1.0
aF13.0
aF0.0
aF0.5
aF0.0
aF0.0
aF0.0
aF0.0
aF0.0
aF0.0
aF0.0
aF0.5
aF1.0
aF1.5
aF0.0
aF1.5
aF0.0
aF0.5
aF0.0
aF1.5
aF1.0
aF0.0
aF0.5
aI0
aI0
aI5
aV200780,1610612752
p1704
aa(lp1705
I201150
aVSpencer Hawes
p1706
aI1610612755
aVPHI
p1707
aF25.0
aI82
aI34
aI48
aF0.415
aF27.2
aF4.6
aF9.9
aF0.464
aF0.4
aF1.1
aF0.356
aF1.5
aF1.9
aF0.777
aF2.1
aF5.1
aF7.2
aF2.2
aF1.6
aF0.3
aF1.4
aF0.6
aF2.8
aF1.8
aF11.0
aF-1.7
aI19
aI0
aI5
aV201150,1610612755
p1708
aa(lp1709
I201939
aVStephen Curry
p1710
aI1610612744
aVGSW
p1711
aF25.0
aI78
aI45
aI33
aF0.577
aF38.2
aF8.0
aF17.8
aF0.451
aF3.5
aF7.7
aF0.453
aF3.4
aF3.7
aF0.9
aF0.8
aF3.3
aF4.0
aF6.9
aF3.1
aF1.6
aF0.2
aF0.6
aF2.5
aF3.4
aF22.9
aF1.7
aI15
aI0
aI5
aV201939,1610612744
p1712
aa(lp1713
I1536
aVStephen Jackson
p1714
aI1610612759
aVSAS
p1715
aF35.0
aI55
aI40
aI15
aF0.727
aF19.5
aF2.2
aF6.0
aF0.373
aF0.8
aF3.1
aF0.271
aF0.9
aF1.3
aF0.7
aF0.4
aF2.4
aF2.8
aF1.5
aF1.4
aF0.7
aF0.3
aF0.3
aF1.6
aF1.2
aF6.2
aF1.8
aI1
aI0
aI5
aV1536,1610612759
p1716
aa(lp1717
I2581
aVSteve Blake
p1718
aI1610612747
aVLAL
p1719
aF33.0
aI45
aI29
aI16
aF0.644
aF26.1
aF2.5
aF6.0
aF0.422
aF1.6
aF3.8
aF0.421
aF0.6
aF0.8
aF0.771
aF0.5
aF2.5
aF2.9
aF3.8
aF1.4
aF0.8
aF0.1
aF0.2
aF1.8
aF1.1
aF7.3
aF0.6
aI0
aI0
aI5
aV2581,1610612747
p1720
aa(lp1721
I959
aVSteve Nash
p1722
aI1610612747
aVLAL
p1723
aF39.0
aI50
aI26
aI24
aF0.52
aF32.5
aF4.7
aF9.5
aF0.497
aF1.1
aF2.6
aF0.438
aF2.1
aF2.3
aF0.922
aF0.5
aF2.3
aF2.8
aF6.7
aF2.5
aF0.6
aF0.1
aF0.2
aF1.4
aF2.3
aF12.7
aF0.8
aI8
aI0
aI5
aV959,1610612747
p1724
aa(lp1725
I200779
aVSteve Novak
p1726
aI1610612752
aVNYK
p1727
aF30.0
aI81
aI53
aI28
aF0.654
aF20.3
aF2.2
aF5.3
aF0.414
aF1.8
aF4.3
aF0.425
aF0.4
aF0.4
aF0.909
aF0.2
aF1.7
aF1.9
aF0.4
aF0.1
aF0.3
aF0.1
aF0.0
aF1.2
aF0.4
aF6.6
aF3.0
aI0
aI0
aI5
aV200779,1610612752
p1728
aa(lp1729
I201959
aVTaj Gibson
p1730
aI1610612741
aVCHI
p1731
aF28.0
aI65
aI38
aI27
aF0.585
aF22.5
aF3.3
aF6.8
aF0.485
aF0.0
aF0.1
aF0.0
aF1.4
aF2.0
aF0.679
aF1.9
aF3.4
aF5.3
aF0.9
aF1.2
aF0.4
aF1.4
aF0.6
aF2.6
aF1.6
aF8.0
aF1.7
aI5
aI0
aI5
aV201959,1610612741
p1732
aa(lp1733
I2419
aVTayshaun Prince
p1734
aI1610612763
aVMEM
p1735
aF33.0
aI82
aI44
aI38
aF0.537
aF32.1
aF4.4
aF10.0
aF0.438
aF0.5
aF1.1
aF0.404
aF1.2
aF1.6
aF0.738
aF0.9
aF3.6
aF4.4
aF2.4
aF1.1
aF0.6
aF0.3
aF0.4
aF1.0
aF1.5
aF10.4
aF1.4
aI2
aI0
aI5
aV2419,1610612763
p1736
aa(lp1737
I202227
aVTerrel Harris
p1738
aI1610612740
aVNOH
p1739
aF25.0
aI20
aI7
aI13
aF0.35
aF6.9
aF0.2
aF1.4
aF0.148
aF0.0
aF0.4
aF0.0
aF0.4
aF0.5
aF0.7
aF0.2
aF1.1
aF1.3
aF0.5
aF0.9
aF0.1
aF0.2
aF0.3
aF0.9
aF0.5
aF0.8
aF-0.1
aI0
aI0
aI5
aV202227,1610612740
p1740
aa(lp1741
I203093
aVTerrence Jones
p1742
aI1610612745
aVHOU
p1743
aF21.0
aI19
aI9
aI10
aF0.474
aF14.5
aF2.3
aF4.9
aF0.457
aF0.3
aF1.0
aF0.263
aF0.7
aF0.9
aF0.765
aF1.5
aF1.9
aF3.4
aF0.8
aF0.7
aF0.6
aF1.0
aF0.5
aF1.1
aF0.7
aF5.5
aF-0.2
aI1
aI0
aI5
aV203093,1610612745
p1744
aa(lp1745
I203082
aVTerrence Ross
p1746
aI1610612761
aVTOR
p1747
aF22.0
aI73
aI29
aI44
aF0.397
aF17.0
aF2.5
aF6.3
aF0.407
aF0.9
aF2.7
aF0.332
aF0.4
aF0.6
aF0.714
aF0.5
aF1.5
aF2.0
aF0.7
aF0.7
aF0.6
aF0.2
aF0.3
aF1.7
aF0.6
aF6.4
aF-0.9
aI0
aI0
aI5
aV203082,1610612761
p1748
aa(lp1749
I201944
aVTerrence Williams
p1750
aI1610612738
aVBOS
p1751
aF26.0
aI24
aI11
aI13
aF0.458
aF13.2
aF2.0
aF4.0
aF0.495
aF0.2
aF0.6
aF0.333
aF0.4
aF0.9
aF0.429
aF0.2
aF1.7
aF1.8
aF1.6
aF0.9
aF0.5
aF0.1
aF0.2
aF0.5
aF0.7
aF4.6
aF-0.5
aI0
aI0
aI5
aV201944,1610612738
p1752
aa(lp1753
I200757
aVThabo Sefolosha
p1754
aI1610612760
aVOKC
p1755
aF29.0
aI81
aI59
aI22
aF0.728
aF27.5
aF2.8
aF5.8
aF0.481
aF1.3
aF3.2
aF0.419
aF0.7
aF0.9
aF0.826
aF0.7
aF3.2
aF3.9
aF1.5
aF0.8
aF1.3
aF0.5
aF0.2
aF2.2
aF0.8
aF7.6
aF6.2
aI0
aI0
aI5
aV200757,1610612760
p1756
aa(lp1757
I201152
aVThaddeus Young
p1758
aI1610612755
aVPHI
p1759
aF25.0
aI76
aI33
aI43
aF0.434
aF34.6
aF6.7
aF12.6
aF0.531
aF0.0
aF0.1
aF0.125
aF1.4
aF2.5
aF0.574
aF2.4
aF5.1
aF7.5
aF1.6
aF1.2
aF1.8
aF0.7
aF0.7
aF2.5
aF2.3
aF14.8
aF-0.4
aI21
aI0
aI5
aV201152,1610612755
p1760
aa(lp1761
I203080
aVThomas Robinson
p1762
aI1610612745
aVHOU
p1763
aF22.0
aI70
aI30
aI40
aF0.429
aF15.1
aF2.0
aF4.6
aF0.43
aF0.0
aF0.0
aF0.0
aF0.8
aF1.6
aF0.523
aF1.7
aF2.8
aF4.5
aF0.7
aF1.3
aF0.6
aF0.4
aF0.5
aF1.8
aF1.3
aF4.8
aF-2.1
aI3
aI0
aI5
aV203080,1610612745
p1764
aa(lp1765
I201168
aVTiago Splitter
p1766
aI1610612759
aVSAS
p1767
aF28.0
aI81
aI58
aI23
aF0.716
aF24.7
aF3.9
aF7.0
aF0.56
aF0.0
aF0.0
aF0.0
aF2.6
aF3.5
aF0.73
aF1.8
aF4.6
aF6.4
aF1.6
aF1.2
aF0.8
aF0.8
aF1.0
aF2.0
aF3.1
aF10.3
aF4.7
aI11
aI0
aI5
aV201168,1610612759
p1768
aa(lp1769
I1495
aVTim Duncan
p1770
aI1610612759
aVSAS
p1771
aF37.0
aI69
aI50
aI19
aF0.725
aF30.1
aF7.1
aF14.1
aF0.502
aF0.0
aF0.1
aF0.286
aF3.6
aF4.3
aF0.817
aF1.8
aF8.1
aF9.9
aF2.7
aF2.1
aF0.7
aF2.7
aF1.1
aF1.7
aF3.7
aF17.8
aF6.7
aI36
aI0
aI5
aV1495,1610612759
p1772
aa(lp1773
I203317
aVTim Ohlbrecht
p1774
aI1610612745
aVHOU
p1775
aF24.0
aI3
aI3
aI0
aF1.0
aF3.9
aF0.3
aF1.0
aF0.333
aF0.0
aF0.0
aF0.0
aF0.3
aF0.3
aF1.0
aF0.0
aF0.3
aF0.3
aF0.3
aF1.3
aF0.3
aF0.0
aF0.0
aF0.3
aF0.3
aF1.0
aF-2.3
aI0
aI0
aI5
aV203317,1610612745
p1776
aa(lp1777
I202389
aVTimofey Mozgov
p1778
aI1610612743
aVDEN
p1779
aF26.0
aI41
aI27
aI14
aF0.659
aF8.9
aF1.1
aF2.1
aF0.506
aF0.0
aF0.0
aF0.0
aF0.5
aF0.6
aF0.769
aF1.2
aF1.4
aF2.6
aF0.2
aF0.6
aF0.1
aF0.4
aF0.2
aF1.4
aF0.5
aF2.6
aF-1.8
aI1
aI0
aI5
aV202389,1610612743
p1780
aa(lp1781
I202699
aVTobias Harris
p1782
aI1610612753
aVORL
p1783
aF20.0
aI55
aI16
aI39
aF0.291
aF23.6
aF4.2
aF9.3
aF0.455
aF0.6
aF2.0
aF0.315
aF1.9
aF2.5
aF0.752
aF1.3
aF3.9
aF5.2
aF1.3
aF1.2
aF0.6
aF0.8
aF0.8
aF2.2
aF1.8
aF11.0
aF-3.1
aI9
aI0
aI5
aV202699,1610612753
p1784
aa(lp1785
I201962
aVToney Douglas
p1786
aI1610612758
aVSAC
p1787
aF27.0
aI71
aI36
aI35
aF0.507
aF18.1
aF2.6
aF6.6
aF0.403
aF1.2
aF3.0
aF0.38
aF1.1
aF1.2
aF0.905
aF0.5
aF1.5
aF1.9
aF2.1
aF1.1
aF1.0
aF0.0
aF0.4
aF2.0
aF1.1
aF7.5
aF1.5
aI0
aI0
aI5
aV201962,1610612758
p1788
aa(lp1789
I2754
aVTony Allen
p1790
aI1610612763
aVMEM
p1791
aF31.0
aI79
aI54
aI25
aF0.684
aF26.7
aF3.6
aF8.1
aF0.445
aF0.0
aF0.3
aF0.125
aF1.7
aF2.4
aF0.717
aF1.5
aF3.1
aF4.6
aF1.2
aF1.2
aF1.5
aF0.6
aF0.8
aF2.7
aF1.7
aF8.9
aF2.7
aI2
aI0
aI5
aV2754,1610612763
p1792
aa(lp1793
I2225
aVTony Parker
p1794
aI1610612759
aVSAS
p1795
aF31.0
aI66
aI47
aI19
aF0.712
aF32.9
aF7.9
aF15.1
aF0.522
aF0.4
aF1.0
aF0.353
aF4.2
aF5.0
aF0.845
aF0.3
aF2.7
aF3.0
aF7.6
aF2.6
aF0.8
aF0.1
aF1.0
aF1.4
aF4.2
aF20.3
aF6.8
aI17
aI1
aI5
aV2225,1610612759
p1796
aa(lp1797
I203100
aVTony Wroten
p1798
aI1610612763
aVMEM
p1799
aF20.0
aI35
aI28
aI7
aF0.8
aF7.8
aF0.9
aF2.5
aF0.384
aF0.1
aF0.5
aF0.25
aF0.6
aF0.8
aF0.724
aF0.4
aF0.4
aF0.8
aF1.2
aF0.8
aF0.2
aF0.1
aF0.4
aF1.0
aF0.6
aF2.6
aF-1.6
aI0
aI0
aI5
aV203100,1610612763
p1800
aa(lp1801
I203129
aVTornike Shengelia
p1802
aI1610612751
aVBKN
p1803
aF21.0
aI19
aI11
aI8
aF0.579
aF4.9
aF0.5
aF1.2
aF0.435
aF0.1
aF0.1
aF0.5
aF0.5
aF0.8
aF0.563
aF0.5
aF0.7
aF1.2
aF0.2
aF0.6
aF0.2
aF0.1
aF0.1
aF0.6
aF0.5
aF1.6
aF0.5
aI1
aI0
aI5
aV203129,1610612751
p1804
aa(lp1805
I2566
aVTravis Outlaw
p1806
aI1610612758
aVSAC
p1807
aF28.0
aI38
aI7
aI31
aF0.184
aF11.7
aF1.9
aF4.7
aF0.418
aF0.4
aF1.3
aF0.28
aF1.0
aF1.4
aF0.731
aF0.4
aF1.2
aF1.6
aF0.6
aF0.5
aF0.3
aF0.2
aF0.1
aF0.9
aF1.1
aF5.3
aF-0.9
aI0
aI0
aI5
aV2566,1610612758
p1808
aa(lp1809
I2772
aVTrevor Ariza
p1810
aI1610612764
aVWAS
p1811
aF28.0
aI56
aI25
aI31
aF0.446
aF26.3
aF3.4
aF8.1
aF0.417
aF1.4
aF3.7
aF0.364
aF1.4
aF1.7
aF0.821
aF0.8
aF4.0
aF4.8
aF2.0
aF1.5
aF1.3
aF0.4
aF0.3
aF1.3
aF1.4
aF9.5
aF-0.8
aI2
aI0
aI5
aV2772,1610612764
p1812
aa(lp1813
I202344
aVTrevor Booker
p1814
aI1610612764
aVWAS
p1815
aF25.0
aI48
aI18
aI30
aF0.375
aF18.5
aF2.3
aF4.6
aF0.491
aF0.0
aF0.1
aF0.0
aF0.8
aF1.5
aF0.556
aF2.0
aF2.9
aF5.0
aF0.8
aF0.6
aF0.7
aF0.3
aF0.4
aF2.0
aF1.3
aF5.3
aF-3.1
aI3
aI0
aI5
aV202344,1610612764
p1816
aa(lp1817
I202684
aVTristan Thompson
p1818
aI1610612739
aVCLE
p1819
aF22.0
aI82
aI24
aI58
aF0.293
aF31.3
aF4.8
aF9.7
aF0.488
aF0.0
aF0.0
aF0.0
aF2.2
aF3.5
aF0.608
aF3.7
aF5.7
aF9.4
aF1.3
aF1.5
aF0.7
aF0.9
aF1.5
aF2.9
aF3.1
aF11.7
aF-2.9
aI31
aI0
aI5
aV202684,1610612739
p1820
aa(lp1821
I2211
aVTroy Murphy
p1822
aI1610612742
aVDAL
p1823
aF33.0
aI14
aI6
aI8
aF0.429
aF18.3
aF1.6
aF4.4
aF0.361
aF0.8
aF2.5
aF0.314
aF0.7
aF0.8
aF0.909
aF0.5
aF3.0
aF3.5
aF0.5
aF0.5
aF0.7
aF0.4
aF0.1
aF2.1
aF0.7
aF4.6
aF-1.4
aI0
aI0
aI5
aV2211,1610612742
p1824
aa(lp1825
I201951
aVTy Lawson
p1826
aI1610612743
aVDEN
p1827
aF25.0
aI73
aI49
aI24
aF0.671
aF34.4
aF6.1
aF13.3
aF0.461
aF1.2
aF3.2
aF0.366
aF3.2
aF4.3
aF0.756
aF0.5
aF2.2
aF2.7
aF6.9
aF2.5
aF1.5
aF0.1
aF1.4
aF1.8
aF3.6
aF16.7
aF3.9
aI9
aI0
aI5
aV201951,1610612743
p1828
aa(lp1829
I201946
aVTyler Hansbrough
p1830
aI1610612754
aVIND
p1831
aF27.0
aI81
aI49
aI32
aF0.605
aF16.9
aF2.2
aF5.0
aF0.432
aF0.0
aF0.0
aF0.0
aF2.7
aF3.7
aF0.72
aF2.0
aF2.6
aF4.6
aF0.4
aF1.0
aF0.4
aF0.2
aF0.8
aF1.9
aF3.2
aF7.0
aF-0.1
aI6
aI0
aI5
aV201946,1610612754
p1832
aa(lp1833
I202715
aVTyler Honeycutt
p1834
aI1610612758
aVSAC
p1835
aF22.0
aI9
aI3
aI6
aF0.333
aF3.5
aF0.3
aF1.2
aF0.273
aF0.0
aF0.2
aF0.0
aF0.2
aF0.2
aF1.0
aF0.3
aF0.8
aF1.1
aF0.2
aF0.6
aF0.0
aF0.1
aF0.1
aF0.2
aF0.1
aF0.9
aF-1.1
aI0
aI0
aI5
aV202715,1610612758
p1836
aa(lp1837
I203092
aVTyler Zeller
p1838
aI1610612739
aVCLE
p1839
aF23.0
aI77
aI24
aI53
aF0.312
aF26.4
aF3.2
aF7.3
aF0.438
aF0.0
aF0.1
aF0.0
aF1.6
aF2.0
aF0.764
aF2.1
aF3.6
aF5.7
aF1.2
aF1.2
aF0.5
aF0.9
aF0.6
aF3.3
aF2.4
aF7.9
aF-3.4
aI7
aI0
aI5
aV203092,1610612739
p1840
aa(lp1841
I201936
aVTyreke Evans
p1842
aI1610612758
aVSAC
p1843
aF23.0
aI65
aI20
aI45
aF0.308
aF31.0
aF5.6
aF11.8
aF0.478
aF0.7
aF2.0
aF0.338
aF3.2
aF4.2
aF0.775
aF0.9
aF3.6
aF4.4
aF3.5
aF2.0
aF1.4
aF0.4
aF0.9
aF2.0
aF2.8
aF15.2
aF-3.3
aI1
aI0
aI5
aV201936,1610612758
p1844
aa(lp1845
I200748
aVTyrus Thomas
p1846
aI1610612766
aVCHA
p1847
aF26.0
aI26
aI9
aI17
aF0.346
aF13.8
aF1.8
aF5.2
aF0.353
aF0.1
aF0.3
aF0.375
aF1.0
aF1.2
aF0.839
aF0.6
aF1.7
aF2.3
aF0.7
aF0.7
aF0.5
aF0.6
aF0.4
aF2.0
aF1.2
aF4.8
aF-3.5
aI0
aI0
aI5
aV200748,1610612766
p1848
aa(lp1849
I203116
aVTyshawn Taylor
p1850
aI1610612751
aVBKN
p1851
aF23.0
aI38
aI23
aI15
aF0.605
aF5.8
aF0.8
aF2.3
aF0.368
aF0.2
aF0.3
aF0.462
aF0.4
aF0.7
aF0.556
aF0.1
aF0.4
aF0.5
aF0.6
aF0.7
aF0.3
aF0.0
aF0.3
aF0.7
aF0.4
aF2.2
aF-1.7
aI0
aI0
aI5
aV203116,1610612751
p1852
aa(lp1853
I2199
aVTyson Chandler
p1854
aI1610612752
aVNYK
p1855
aF30.0
aI66
aI42
aI24
aF0.636
aF32.8
aF3.9
aF6.1
aF0.638
aF0.0
aF0.0
aF0.0
aF2.7
aF3.9
aF0.694
aF4.1
aF6.6
aF10.7
aF0.9
aF1.3
aF0.6
aF1.1
aF0.3
aF2.8
aF3.2
aF10.4
aF3.8
aI20
aI0
aI5
aV2199,1610612752
p1856
aa(lp1857
I2617
aVUdonis Haslem
p1858
aI1610612748
aVMIA
p1859
aF33.0
aI75
aI60
aI15
aF0.8
aF18.8
aF1.7
aF3.3
aF0.514
aF0.0
aF0.0
aF0.0
aF0.4
aF0.6
aF0.711
aF1.3
aF4.1
aF5.4
aF0.5
aF0.6
aF0.4
aF0.2
aF0.3
aF2.3
aF1.2
aF3.9
aF3.6
aI1
aI0
aI5
aV2617,1610612748
p1860
aa(lp1861
I203139
aVViacheslav Kravtsov
p1862
aI1610612765
aVDET
p1863
aF25.0
aI25
aI8
aI17
aF0.32
aF8.9
aF1.3
aF1.8
aF0.717
aF0.0
aF0.0
aF0.0
aF0.4
aF1.5
aF0.297
aF1.0
aF0.8
aF1.8
aF0.4
aF0.6
aF0.2
aF0.4
aF0.2
aF1.3
aF1.2
aF3.1
aF-0.9
aI1
aI0
aI5
aV203139,1610612765
p1864
aa(lp1865
I201964
aVVictor Claver
p1866
aI1610612757
aVPOR
p1867
aF24.0
aI49
aI19
aI30
aF0.388
aF16.6
aF1.5
aF3.9
aF0.392
aF0.5
aF1.8
aF0.287
aF0.3
aF0.6
aF0.467
aF0.6
aF1.8
aF2.4
aF0.9
aF0.9
aF0.5
aF0.2
aF0.2
aF1.5
aF0.8
aF3.8
aF-2.2
aI0
aI0
aI5
aV201964,1610612757
p1868
aa(lp1869
I1713
aVVince Carter
p1870
aI1610612742
aVDAL
p1871
aF36.0
aI81
aI41
aI40
aF0.506
aF25.8
aF4.6
aF10.6
aF0.435
aF2.0
aF4.9
aF0.406
aF2.2
aF2.8
aF0.816
aF0.7
aF3.4
aF4.1
aF2.4
aF1.3
aF0.9
aF0.5
aF0.4
aF2.8
aF2.7
aF13.4
aF2.9
aI1
aI0
aI5
aV1713,1610612742
p1872
aa(lp1873
I2209
aVVladimir Radmanovic
p1874
aI1610612741
aVCHI
p1875
aF32.0
aI25
aI11
aI14
aF0.44
aF5.7
aF0.5
aF1.7
aF0.302
aF0.2
aF1.1
aF0.185
aF0.1
aF0.1
aF0.667
aF0.4
aF0.7
aF1.1
aF0.3
aF0.3
aF0.3
aF0.2
aF0.0
aF1.2
aF0.3
aF1.3
aF-1.5
aI0
aI0
aI5
aV2209,1610612741
p1876
aa(lp1877
I201961
aVWayne Ellington
p1878
aI1610612739
aVCLE
p1879
aF25.0
aI78
aI39
aI39
aF0.5
aF21.3
aF2.9
aF6.8
aF0.427
aF1.2
aF3.1
aF0.392
aF0.9
aF1.0
aF0.907
aF0.3
aF1.8
aF2.1
aF1.3
aF0.7
aF0.6
aF0.0
aF0.3
aF1.0
aF0.9
aF7.9
aF0.2
aI0
aI0
aI5
aV201961,1610612739
p1880
aa(lp1881
I202325
aVWesley Johnson
p1882
aI1610612756
aVPHX
p1883
aF25.0
aI50
aI14
aI36
aF0.28
aF19.1
aF3.2
aF7.9
aF0.407
aF1.0
aF3.1
aF0.323
aF0.5
aF0.7
aF0.771
aF0.4
aF2.0
aF2.5
aF0.7
aF1.0
aF0.4
aF0.4
aF0.3
aF1.1
aF0.6
aF8.0
aF-4.6
aI0
aI0
aI5
aV202325,1610612756
p1884
aa(lp1885
I202083
aVWesley Matthews
p1886
aI1610612757
aVPOR
p1887
aF26.0
aI69
aI28
aI41
aF0.406
aF34.8
aF5.1
aF11.7
aF0.436
aF2.4
aF6.2
aF0.398
aF2.2
aF2.7
aF0.797
aF0.5
aF2.3
aF2.8
aF2.5
aF1.6
aF1.3
aF0.3
aF0.7
aF2.5
aF2.9
aF14.8
aF-1.3
aI1
aI0
aI5
aV202083,1610612757
p1888
aa(lp1889
I203115
aVWill Barton
p1890
aI1610612757
aVPOR
p1891
aF22.0
aI73
aI27
aI46
aF0.37
aF12.2
aF1.6
aF4.2
aF0.382
aF0.1
aF0.9
aF0.138
aF0.7
aF0.9
aF0.769
aF0.5
aF1.5
aF2.0
aF0.8
aF0.8
aF0.5
aF0.1
aF0.3
aF0.8
aF0.7
aF4.0
aF-2.8
aI1
aI0
aI5
aV203115,1610612757
p1892
aa(lp1893
I101198
aVWill Bynum
p1894
aI1610612765
aVDET
p1895
aF30.0
aI65
aI26
aI39
aF0.4
aF18.7
aF3.9
aF8.3
aF0.469
aF0.4
aF1.2
aF0.316
aF1.6
aF2.0
aF0.809
aF0.4
aF1.1
aF1.5
aF3.6
aF1.9
aF0.7
aF0.1
aF0.8
aF2.0
aF1.8
aF9.8
aF-2.6
aI3
aI0
aI5
aV101198,1610612765
p1896
aa(lp1897
I101215
aVWill Conroy
p1898
aI1610612750
aVMIN
p1899
aF30.0
aI4
aI2
aI2
aF0.5
aF5.1
aF0.0
aF2.3
aF0.0
aF0.0
aF0.8
aF0.0
aF0.3
aF0.5
aF0.5
aF0.3
aF0.0
aF0.3
aF0.0
aF0.0
aF0.0
aF0.0
aF0.8
aF0.3
aF0.3
aF0.3
aF-10.0
aI0
aI0
aI5
aV101215,1610612750
p1900
aa(lp1901
I2584
aVWillie Green
p1902
aI1610612746
aVLAC
p1903
aF31.0
aI72
aI48
aI24
aF0.667
aF16.5
aF2.5
aF5.4
aF0.461
aF1.0
aF2.3
aF0.428
aF0.3
aF0.4
aF0.719
aF0.2
aF1.1
aF1.3
aF0.8
aF0.4
aF0.4
aF0.2
aF0.2
aF1.3
aF0.4
aF6.3
aF1.2
aI0
aI0
aI5
aV2584,1610612746
p1904
aa(lp1905
I201163
aVWilson Chandler
p1906
aI1610612743
aVDEN
p1907
aF26.0
aI43
aI33
aI10
aF0.767
aF25.1
aF4.9
aF10.6
aF0.462
aF1.2
aF2.9
aF0.413
aF2.0
aF2.6
aF0.793
aF1.0
aF4.0
aF5.1
aF1.3
aF1.4
aF1.0
aF0.3
aF0.7
aF2.8
aF2.0
aF13.0
aF4.1
aI0
aI0
aI5
aV201163,1610612743
p1908
aa(lp1909
I202333
aVXavier Henry
p1910
aI1610612740
aVNOH
p1911
aF22.0
aI50
aI16
aI34
aF0.32
aF12.5
aF1.3
aF3.2
aF0.41
aF0.1
aF0.2
aF0.364
aF1.2
aF1.8
aF0.63
aF0.4
aF1.4
aF1.8
aF0.3
aF0.6
aF0.3
aF0.1
aF0.4
aF1.4
aF1.5
aF3.9
aF-2.9
aI0
aI0
aI5
aV202333,1610612740
p1912
aa(lp1913
I2216
aVZach Randolph
p1914
aI1610612763
aVMEM
p1915
aF31.0
aI76
aI51
aI25
aF0.671
aF34.3
aF6.2
aF13.5
aF0.46
aF0.0
aF0.3
aF0.087
aF3.0
aF3.9
aF0.75
aF4.1
aF7.2
aF11.2
aF1.4
aF2.0
aF0.8
aF0.4
aF1.3
aF2.4
aF3.6
aF15.4
aF3.9
aI45
aI0
aI5
aV2216,1610612763
p1916
aa(lp1917
I2585
aVZaza Pachulia
p1918
aI1610612737
aVATL
p1919
aF29.0
aI52
aI29
aI23
aF0.558
aF21.8
aF2.2
aF4.6
aF0.473
aF0.0
aF0.1
aF0.0
aF1.5
aF2.0
aF0.757
aF2.5
aF3.9
aF6.5
aF1.5
aF1.3
aF0.7
aF0.2
aF0.7
aF2.5
aF2.1
aF5.9
aF-0.5
aI4
aI0
aI5
aV2585,1610612737
p1920
aasVname
p1921
VLeagueDashPlayerStats
p1922
sasVparameters
p1923
(dp1924
VConference
p1925
NsVPlusMinus
p1926
VN
p1927
sVGameScope
p1928
NsVTeamID
p1929
I0
sVHeight
p1930
NsVLocation
p1931
NsVStarterBench
p1932
NsVShotClockRange
p1933
NsVSeasonType
p1934
VRegular Season
p1935
sVDivision
p1936
NsVSeason
p1937
V2012-13
p1938
sVPaceAdjust
p1939
VN
p1940
sVDraftYear
p1941
NsVDateFrom
p1942
NsVPlayerPosition
p1943
NsVCountry
p1944
NsVVsConference
p1945
NsVOpponentTeamID
p1946
I0
sVDateTo
p1947
NsVGameSegment
p1948
NsVDraftPick
p1949
NsVLastNGames
p1950
I0
sVPlayerExperience
p1951
NsVVsDivision
p1952
NsVLeagueID
p1953
V00
p1954
sVOutcome
p1955
NsVMeasureType
p1956
VBase
p1957
sVWeight
p1958
NsVPORound
p1959
I0
sVPerMode
p1960
VPerGame
p1961
sVSeasonSegment
p1962
NsVPeriod
p1963
I0
sVRank
p1964
VN
p1965
sVMonth
p1966
I0
sVCollege
p1967
Nss.