(dp0
S'age'
p1
I22
sS'stats'
p2
(lp3
(lp4
V0020601222
p5
aVAPR 18, 2007
p6
aVNJN vs. CHI
p7
aVW
p8
aI16
aI1
aI2
aF0.5
aI0
aI0
aF0.0
aI0
aI2
aF0.0
aI2
aI3
aI5
aI0
aI0
aI2
aI2
aI3
aI2
aI-1
aa(lp9
V0020601203
p10
aVAPR 16, 2007
p11
aVNJN @ NYK
p12
aVW
p13
aI10
aI1
aI2
aF0.5
aI0
aI0
aF0.0
aI0
aI0
aF0.0
aI0
aI1
aI1
aI0
aI0
aI0
aI0
aI3
aI2
aI-4
aa(lp14
V0020601196
p15
aVAPR 15, 2007
p16
aVNJN @ IND
p17
aVW
p18
aI20
aI0
aI1
aF0.0
aI0
aI0
aF0.0
aI0
aI0
aF0.0
aI1
aI2
aI3
aI1
aI1
aI0
aI0
aI0
aI0
aI-11
aa(lp19
V0020601177
p20
aVAPR 13, 2007
p21
aVNJN vs. NYK
p22
aVW
p23
aI9
aI1
aI2
aF0.5
aI1
aI1
aF1.0
aI0
aI0
aF0.0
aI0
aI3
aI3
aI0
aI0
aI0
aI0
aI1
aI3
aI2
aa(lp24
V0020601173
p25
aVAPR 12, 2007
p26
aVNJN @ CLE
p27
aVL
p28
aI14
aI1
aI2
aF0.5
aI0
aI0
aF0.0
aI1
aI2
aF0.5
aI0
aI2
aI2
aI1
aI0
aI2
aI2
aI3
aI3
aI-4
aa(lp29
V0020601158
p30
aVAPR 10, 2007
p31
aVNJN @ WAS
p32
aVW
p33
aI1
aI0
aI0
aF0.0
aI0
aI0
aF0.0
aI0
aI0
aF0.0
aI0
aI0
aI0
aI0
aI0
aI0
aI0
aI0
aI0
aI1
aa(lp34
V0020601136
p35
aVAPR 07, 2007
p36
aVNJN vs. WAS
p37
aVW
p38
aI5
aI0
aI3
aF0.0
aI0
aI1
aF0.0
aI0
aI0
aF0.0
aI0
aI1
aI1
aI1
aI0
aI0
aI0
aI2
aI0
aI1
aa(lp39
V0020601129
p40
aVAPR 06, 2007
p41
aVNJN @ CHI
p42
aVL
p43
aI29
aI4
aI9
aF0.444
aI1
aI4
aF0.25
aI0
aI0
aF0.0
aI3
aI3
aI6
aI2
aI0
aI0
aI5
aI2
aI9
aI-31
aa(lp44
V0020601110
p45
aVAPR 04, 2007
p46
aVNJN vs. ATL
p47
aVW
p48
aI15
aI1
aI3
aF0.333
aI0
aI0
aF0.0
aI0
aI0
aF0.0
aI0
aI1
aI1
aI0
aI0
aI0
aI1
aI2
aI2
aI-14
aa(lp49
V0020601085
p50
aVMAR 31, 2007
p51
aVNJN vs. PHI
p52
aVW
p53
aI19
aI4
aI8
aF0.5
aI1
aI1
aF1.0
aI3
aI3
aF1.0
aI2
aI1
aI3
aI1
aI2
aI0
aI0
aI1
aI12
aI-5
aa(lp54
V0020601076
p55
aVMAR 30, 2007
p56
aVNJN @ DET
p57
aVL
p58
aI7
aI1
aI1
aF1.0
aI0
aI0
aF0.0
aI0
aI0
aF0.0
aI0
aI1
aI1
aI0
aI0
aI0
aI0
aI2
aI2
aI0
aa(lp59
V0020601062
p60
aVMAR 28, 2007
p61
aVNJN vs. IND
p62
aVW
p63
aI12
aI3
aI5
aF0.6
aI1
aI1
aF1.0
aI0
aI4
aF0.0
aI0
aI1
aI1
aI1
aI0
aI0
aI0
aI0
aI7
aI-2
aa(lp64
V0020601032
p65
aVMAR 24, 2007
p66
aVNJN @ CHA
p67
aVW
p68
aI26
aI3
aI5
aF0.6
aI0
aI0
aF0.0
aI1
aI3
aF0.333
aI1
aI1
aI2
aI1
aI1
aI0
aI2
aI2
aI7
aI-5
aa(lp69
V0020601022
p70
aVMAR 23, 2007
p71
aVNJN @ ORL
p72
aVL
p73
aI3
aI1
aI1
aF1.0
aI0
aI0
aF0.0
aI0
aI0
aF0.0
aI0
aI0
aI0
aI0
aI0
aI0
aI0
aI1
aI2
aI-6
aa(lp74
V0020600997
p75
aVMAR 20, 2007
p76
aVNJN vs. DEN
p77
aVL
p78
aI8
aI1
aI1
aF1.0
aI0
aI0
aF0.0
aI0
aI0
aF0.0
aI0
aI1
aI1
aI1
aI0
aI0
aI0
aI1
aI2
aI6
aa(lp79
V0020600990
p80
aVMAR 18, 2007
p81
aVNJN vs. LAC
p82
aVW
p83
aI11
aI2
aI3
aF0.667
aI0
aI1
aF0.0
aI0
aI0
aF0.0
aI1
aI1
aI2
aI0
aI1
aI0
aI0
aI0
aI4
aI-1
aa(lp84
V0020600951
p85
aVMAR 13, 2007
p86
aVNJN @ NOK
p87
aVW
p88
aI1
aI0
aI0
aF0.0
aI0
aI0
aF0.0
aI0
aI0
aF0.0
aI0
aI0
aI0
aI0
aI0
aI0
aI0
aI0
aI0
aI0
aa(lp89
V0020600837
p90
aVFEB 25, 2007
p91
aVNJN vs. NYK
p92
aVW
p93
aI8
aI0
aI4
aF0.0
aI0
aI0
aF0.0
aI0
aI0
aF0.0
aI0
aI1
aI1
aI1
aI0
aI0
aI0
aI1
aI0
aI2
aa(lp94
V0020600817
p95
aVFEB 23, 2007
p96
aVNJN vs. SAC
p97
aVW
p98
aI22
aI2
aI5
aF0.4
aI0
aI1
aF0.0
aI0
aI0
aF0.0
aI1
aI3
aI4
aI0
aI2
aI1
aI3
aI6
aI4
aI8
aa(lp99
V0020600804
p100
aVFEB 21, 2007
p101
aVNJN vs. NOK
p102
aVL
p103
aI30
aI4
aI6
aF0.667
aI1
aI1
aF1.0
aI0
aI0
aF0.0
aI2
aI1
aI3
aI4
aI0
aI0
aI0
aI3
aI9
aI0
aa(lp104
V0020600775
p105
aVFEB 14, 2007
p106
aVNJN @ TOR
p107
aVL
p108
aI28
aI2
aI6
aF0.333
aI0
aI1
aF0.0
aI2
aI2
aF1.0
aI2
aI2
aI4
aI1
aI1
aI0
aI0
aI1
aI6
aI-9
aa(lp109
V0020600768
p110
aVFEB 13, 2007
p111
aVNJN vs. SAS
p112
aVL
p113
aI20
aI2
aI7
aF0.286
aI0
aI2
aF0.0
aI0
aI0
aF0.0
aI0
aI2
aI2
aI1
aI0
aI0
aI0
aI3
aI4
aI-2
aa(lp114
V0020600749
p115
aVFEB 10, 2007
p116
aVNJN vs. ORL
p117
aVW
p118
aI28
aI4
aI5
aF0.8
aI0
aI0
aF0.0
aI0
aI0
aF0.0
aI0
aI4
aI4
aI0
aI1
aI1
aI2
aI2
aI8
aI8
aa(lp119
V0020600743
p120
aVFEB 09, 2007
p121
aVNJN @ BOS
p122
aVW
p123
aI26
aI4
aI6
aF0.667
aI1
aI1
aF1.0
aI0
aI0
aF0.0
aI1
aI5
aI6
aI1
aI1
aI0
aI2
aI4
aI9
aI9
aa(lp124
V0020600728
p125
aVFEB 07, 2007
p126
aVNJN @ ATL
p127
aVW
p128
aI29
aI2
aI6
aF0.333
aI0
aI0
aF0.0
aI2
aI2
aF1.0
aI0
aI3
aI3
aI3
aI2
aI0
aI2
aI3
aI6
aI-7
aa(lp129
V0020600712
p130
aVFEB 05, 2007
p131
aVNJN @ PHI
p132
aVL
p133
aI30
aI2
aI4
aF0.5
aI0
aI1
aF0.0
aI0
aI2
aF0.0
aI2
aI3
aI5
aI1
aI0
aI0
aI0
aI3
aI4
aI-14
aa(lp134
V0020600710
p135
aVFEB 04, 2007
p136
aVNJN vs. ATL
p137
aVL
p138
aI25
aI4
aI8
aF0.5
aI0
aI0
aF0.0
aI0
aI0
aF0.0
aI0
aI2
aI2
aI2
aI1
aI1
aI0
aI4
aI8
aI-9
aa(lp139
V0020600690
p140
aVFEB 02, 2007
p141
aVNJN @ ORL
p142
aVL
p143
aI30
aI3
aI5
aF0.6
aI0
aI1
aF0.0
aI2
aI3
aF0.667
aI0
aI2
aI2
aI2
aI2
aI0
aI0
aI2
aI8
aI-24
aa(lp144
V0020600679
p145
aVJAN 31, 2007
p146
aVNJN vs. DET
p147
aVL
p148
aI16
aI0
aI3
aF0.0
aI0
aI1
aF0.0
aI1
aI2
aF0.5
aI0
aI4
aI4
aI2
aI0
aI0
aI2
aI3
aI1
aI-5
aa(lp149
V0020600667
p150
aVJAN 29, 2007
p151
aVNJN @ UTA
p152
aVW
p153
aI23
aI4
aI6
aF0.667
aI1
aI1
aF1.0
aI3
aI3
aF1.0
aI0
aI1
aI1
aI0
aI1
aI0
aI0
aI4
aI12
aI-1
aa(lp154
V0020600652
p155
aVJAN 27, 2007
p156
aVNJN @ DEN
p157
aVW
p158
aI34
aI4
aI7
aF0.571
aI0
aI1
aF0.0
aI3
aI6
aF0.5
aI0
aI2
aI2
aI4
aI3
aI1
aI1
aI4
aI11
aI14
aa(lp159
V0020600631
p160
aVJAN 24, 2007
p161
aVNJN @ GSW
p162
aVL
p163
aI7
aI0
aI0
aF0.0
aI0
aI0
aF0.0
aI0
aI0
aF0.0
aI0
aI0
aI0
aI0
aI0
aI0
aI0
aI1
aI0
aI-1
aa(lp164
V0020600597
p165
aVJAN 20, 2007
p166
aVNJN vs. ORL
p167
aVW
p168
aI0
aI0
aI0
aF0.0
aI0
aI0
aF0.0
aI0
aI0
aF0.0
aI0
aI0
aI0
aI0
aI0
aI0
aI0
aI0
aI0
aI-3
aa(lp169
V0020600545
p170
aVJAN 13, 2007
p171
aVNJN @ MIN
p172
aVL
p173
aI6
aI0
aI1
aF0.0
aI0
aI1
aF0.0
aI0
aI0
aF0.0
aI0
aI1
aI1
aI0
aI0
aI0
aI0
aI1
aI0
aI-3
aa(lp174
V0020600482
p175
aVJAN 05, 2007
p176
aVNJN vs. CHI
p177
aVW
p178
aI1
aI0
aI1
aF0.0
aI0
aI1
aF0.0
aI0
aI0
aF0.0
aI0
aI1
aI1
aI0
aI0
aI0
aI0
aI1
aI0
aI-2
aa(lp179
V0020600432
p180
aVDEC 29, 2006
p181
aVNJN @ MIA
p182
aVW
p183
aI4
aI0
aI1
aF0.0
aI0
aI0
aF0.0
aI0
aI0
aF0.0
aI1
aI1
aI2
aI1
aI0
aI0
aI2
aI0
aI0
aI-10
aa(lp184
V0020600419
p185
aVDEC 27, 2006
p186
aVNJN vs. HOU
p187
aVL
p188
aI6
aI0
aI0
aF0.0
aI0
aI0
aF0.0
aI0
aI0
aF0.0
aI0
aI1
aI1
aI1
aI1
aI0
aI0
aI0
aI0
aI-1
aa(lp189
V0020600400
p190
aVDEC 23, 2006
p191
aVNJN @ MIL
p192
aVL
p193
aI4
aI0
aI1
aF0.0
aI0
aI1
aF0.0
aI0
aI0
aF0.0
aI0
aI1
aI1
aI1
aI0
aI0
aI1
aI1
aI0
aI1
aa(lp194
V0020600369
p195
aVDEC 20, 2006
p196
aVNJN vs. CLE
p197
aVW
p198
aI1
aI0
aI0
aF0.0
aI0
aI0
aF0.0
aI0
aI0
aF0.0
aI0
aI0
aI0
aI0
aI0
aI0
aI0
aI0
aI0
aI0
aa(lp199
V0020600356
p200
aVDEC 18, 2006
p201
aVNJN vs. GSW
p202
aVW
p203
aI22
aI2
aI10
aF0.2
aI0
aI2
aF0.0
aI0
aI0
aF0.0
aI1
aI6
aI7
aI1
aI0
aI0
aI0
aI1
aI4
aI0
aa(lp204
V0020600346
p205
aVDEC 16, 2006
p206
aVNJN vs. DET
p207
aVL
p208
aI13
aI0
aI1
aF0.0
aI0
aI0
aF0.0
aI0
aI0
aF0.0
aI0
aI3
aI3
aI1
aI0
aI0
aI0
aI1
aI0
aI-14
aa(lp209
V0020600329
p210
aVDEC 15, 2006
p211
aVNJN @ TOR
p212
aVL
p213
aI23
aI2
aI4
aF0.5
aI0
aI1
aF0.0
aI2
aI2
aF1.0
aI0
aI5
aI5
aI0
aI1
aI0
aI0
aI4
aI6
aI-1
aa(lp214
V0020600319
p215
aVDEC 13, 2006
p216
aVNJN vs. MIL
p217
aVW
p218
aI24
aI2
aI4
aF0.5
aI1
aI2
aF0.5
aI4
aI5
aF0.8
aI0
aI1
aI1
aI1
aI0
aI0
aI0
aI3
aI9
aI-5
aa(lp219
V0020600302
p220
aVDEC 11, 2006
p221
aVNJN vs. MEM
p222
aVW
p223
aI25
aI2
aI6
aF0.333
aI1
aI2
aF0.5
aI0
aI0
aF0.0
aI2
aI4
aI6
aI0
aI0
aI0
aI0
aI1
aI5
aI-8
aa(lp224
V0020600288
p225
aVDEC 09, 2006
p226
aVNJN vs. BOS
p227
aVL
p228
aI24
aI3
aI5
aF0.6
aI1
aI3
aF0.333
aI0
aI0
aF0.0
aI1
aI4
aI5
aI1
aI2
aI1
aI1
aI0
aI7
aI1
aa(lp229
V0020600271
p230
aVDEC 07, 2006
p231
aVNJN vs. PHX
p232
aVL
p233
aI18
aI2
aI6
aF0.333
aI1
aI3
aF0.333
aI0
aI0
aF0.0
aI2
aI2
aI4
aI0
aI0
aI0
aI2
aI1
aI5
aI2
aa(lp234
V0020600255
p235
aVDEC 05, 2006
p236
aVNJN vs. DAL
p237
aVL
p238
aI2
aI0
aI1
aF0.0
aI0
aI0
aF0.0
aI2
aI2
aF1.0
aI0
aI1
aI1
aI1
aI0
aI0
aI1
aI3
aI2
aI-11
aa(lp239
V0020600234
p240
aVDEC 02, 2006
p241
aVNJN vs. PHI
p242
aVW
p243
aI11
aI0
aI2
aF0.0
aI0
aI1
aF0.0
aI0
aI0
aF0.0
aI0
aI2
aI2
aI0
aI0
aI0
aI0
aI1
aI0
aI-8
aa(lp244
V0020600215
p245
aVNOV 29, 2006
p246
aVNJN @ BOS
p247
aVW
p248
aI19
aI0
aI3
aF0.0
aI0
aI1
aF0.0
aI0
aI0
aF0.0
aI0
aI0
aI0
aI1
aI1
aI0
aI0
aI2
aI0
aI9
aa(lp249
V0020600205
p250
aVNOV 28, 2006
p251
aVNJN vs. CHA
p252
aVL
p253
aI16
aI1
aI1
aF1.0
aI1
aI1
aF1.0
aI0
aI0
aF0.0
aI1
aI2
aI3
aI0
aI0
aI0
aI0
aI2
aI3
aI0
aa(lp254
V0020600199
p255
aVNOV 26, 2006
p256
aVNJN @ LAL
p257
aVL
p258
aI10
aI0
aI2
aF0.0
aI0
aI1
aF0.0
aI1
aI2
aF0.5
aI1
aI1
aI2
aI2
aI0
aI0
aI0
aI0
aI1
aI-5
aa(lp259
V0020600182
p260
aVNOV 24, 2006
p261
aVNJN @ PHX
p262
aVL
p263
aI22
aI0
aI0
aF0.0
aI0
aI0
aF0.0
aI1
aI2
aF0.5
aI0
aI6
aI6
aI2
aI0
aI0
aI1
aI3
aI1
aI13
aa(lp264
V0020600168
p265
aVNOV 22, 2006
p266
aVNJN @ POR
p267
aVL
p268
aI20
aI4
aI8
aF0.5
aI1
aI2
aF0.5
aI0
aI0
aF0.0
aI0
aI2
aI2
aI0
aI0
aI0
aI1
aI1
aI9
aI-13
aa(lp269
V0020600149
p270
aVNOV 20, 2006
p271
aVNJN @ SEA
p272
aVL
p273
aI38
aI5
aI12
aF0.417
aI0
aI2
aF0.0
aI1
aI2
aF0.5
aI3
aI8
aI11
aI1
aI2
aI0
aI0
aI5
aI11
aI-19
aa(lp274
V0020600132
p275
aVNOV 18, 2006
p276
aVNJN vs. POR
p277
aVL
p278
aI36
aI4
aI10
aF0.4
aI1
aI2
aF0.5
aI0
aI3
aF0.0
aI2
aI6
aI8
aI2
aI0
aI0
aI1
aI2
aI9
aI-12
aa(lp279
V0020600119
p280
aVNOV 17, 2006
p281
aVNJN @ IND
p282
aVW
p283
aI16
aI1
aI4
aF0.25
aI0
aI1
aF0.0
aI0
aI0
aF0.0
aI1
aI2
aI3
aI0
aI0
aI0
aI1
aI3
aI2
aI0
aa(lp284
V0020600111
p285
aVNOV 15, 2006
p286
aVNJN vs. MIL
p287
aVW
p288
aI54
aI5
aI8
aF0.625
aI0
aI1
aF0.0
aI1
aI2
aF0.5
aI2
aI6
aI8
aI1
aI3
aI0
aI1
aI3
aI11
aI6
aa(lp289
V0020600098
p290
aVNOV 13, 2006
p291
aVNJN vs. SEA
p292
aVL
p293
aI37
aI4
aI8
aF0.5
aI0
aI2
aF0.0
aI2
aI2
aF1.0
aI1
aI2
aI3
aI2
aI0
aI0
aI2
aI0
aI10
aI-12
aa(lp294
V0020600091
p295
aVNOV 12, 2006
p296
aVNJN @ WAS
p297
aVW
p298
aI35
aI0
aI3
aF0.0
aI0
aI0
aF0.0
aI1
aI2
aF0.5
aI0
aI4
aI4
aI2
aI0
aI0
aI3
aI5
aI1
aI19
aa(lp299
V0020600078
p300
aVNOV 10, 2006
p301
aVNJN vs. MIA
p302
aVL
p303
aI27
aI4
aI7
aF0.571
aI2
aI4
aF0.5
aI6
aI8
aF0.75
aI0
aI2
aI2
aI1
aI0
aI0
aI0
aI3
aI16
aI1
aa(lp304
V0020600062
p305
aVNOV 08, 2006
p306
aVNJN vs. UTA
p307
aVW
p308
aI32
aI5
aI8
aF0.625
aI2
aI3
aF0.667
aI3
aI5
aF0.6
aI0
aI1
aI1
aI0
aI0
aI0
aI0
aI2
aI15
aI0
aa(lp309
V0020600023
p310
aVNOV 03, 2006
p311
aVNJN @ MIA
p312
aVL
p313
aI13
aI2
aI5
aF0.4
aI1
aI1
aF1.0
aI2
aI2
aF1.0
aI2
aI4
aI6
aI0
aI1
aI0
aI1
aI2
aI7
aI6
aa(lp314
V0020600007
p315
aVNOV 01, 2006
p316
aVNJN vs. TOR
p317
aVW
p318
aI16
aI1
aI3
aF0.333
aI0
aI1
aF0.0
aI0
aI0
aF0.0
aI0
aI1
aI1
aI2
aI0
aI1
aI1
aI2
aI2
aI-7
aasS'name'
p319
VAntoine Wright
p320
sS'experience'
p321
I1
s.