(dp0
S'age'
p1
I22
sS'stats'
p2
(lp3
(lp4
V0020600007
p5
aVNOV 01, 2006
p6
aVNJN vs. TOR
p7
aVW
p8
aI16
aI1
aI3
aF0.333
aI0
aI1
aF0.0
aI0
aI0
aF0.0
aI0
aI1
aI1
aI2
aI0
aI1
aI1
aI2
aI2
aI-7
aa(lp9
V0020600023
p10
aVNOV 03, 2006
p11
aVNJN @ MIA
p12
aVL
p13
aI13
aI2
aI5
aF0.4
aI1
aI1
aF1.0
aI2
aI2
aF1.0
aI2
aI4
aI6
aI0
aI1
aI0
aI1
aI2
aI7
aI6
aa(lp14
V0020600062
p15
aVNOV 08, 2006
p16
aVNJN vs. UTA
p17
aVW
p18
aI32
aI5
aI8
aF0.625
aI2
aI3
aF0.667
aI3
aI5
aF0.6
aI0
aI1
aI1
aI0
aI0
aI0
aI0
aI2
aI15
aI0
aa(lp19
V0020600078
p20
aVNOV 10, 2006
p21
aVNJN vs. MIA
p22
aVL
p23
aI27
aI4
aI7
aF0.571
aI2
aI4
aF0.5
aI6
aI8
aF0.75
aI0
aI2
aI2
aI1
aI0
aI0
aI0
aI3
aI16
aI1
aa(lp24
V0020600091
p25
aVNOV 12, 2006
p26
aVNJN @ WAS
p27
aVW
p28
aI35
aI0
aI3
aF0.0
aI0
aI0
aF0.0
aI1
aI2
aF0.5
aI0
aI4
aI4
aI2
aI0
aI0
aI3
aI5
aI1
aI19
aa(lp29
V0020600098
p30
aVNOV 13, 2006
p31
aVNJN vs. SEA
p32
aVL
p33
aI37
aI4
aI8
aF0.5
aI0
aI2
aF0.0
aI2
aI2
aF1.0
aI1
aI2
aI3
aI2
aI0
aI0
aI2
aI0
aI10
aI-12
aa(lp34
V0020600111
p35
aVNOV 15, 2006
p36
aVNJN vs. MIL
p37
aVW
p38
aI54
aI5
aI8
aF0.625
aI0
aI1
aF0.0
aI1
aI2
aF0.5
aI2
aI6
aI8
aI1
aI3
aI0
aI1
aI3
aI11
aI6
aa(lp39
V0020600119
p40
aVNOV 17, 2006
p41
aVNJN @ IND
p42
aVW
p43
aI16
aI1
aI4
aF0.25
aI0
aI1
aF0.0
aI0
aI0
aF0.0
aI1
aI2
aI3
aI0
aI0
aI0
aI1
aI3
aI2
aI0
aa(lp44
V0020600132
p45
aVNOV 18, 2006
p46
aVNJN vs. POR
p47
aVL
p48
aI36
aI4
aI10
aF0.4
aI1
aI2
aF0.5
aI0
aI3
aF0.0
aI2
aI6
aI8
aI2
aI0
aI0
aI1
aI2
aI9
aI-12
aa(lp49
V0020600149
p50
aVNOV 20, 2006
p51
aVNJN @ SEA
p52
aVL
p53
aI38
aI5
aI12
aF0.417
aI0
aI2
aF0.0
aI1
aI2
aF0.5
aI3
aI8
aI11
aI1
aI2
aI0
aI0
aI5
aI11
aI-19
aa(lp54
V0020600168
p55
aVNOV 22, 2006
p56
aVNJN @ POR
p57
aVL
p58
aI20
aI4
aI8
aF0.5
aI1
aI2
aF0.5
aI0
aI0
aF0.0
aI0
aI2
aI2
aI0
aI0
aI0
aI1
aI1
aI9
aI-13
aa(lp59
V0020600182
p60
aVNOV 24, 2006
p61
aVNJN @ PHX
p62
aVL
p63
aI22
aI0
aI0
aF0.0
aI0
aI0
aF0.0
aI1
aI2
aF0.5
aI0
aI6
aI6
aI2
aI0
aI0
aI1
aI3
aI1
aI13
aa(lp64
V0020600199
p65
aVNOV 26, 2006
p66
aVNJN @ LAL
p67
aVL
p68
aI10
aI0
aI2
aF0.0
aI0
aI1
aF0.0
aI1
aI2
aF0.5
aI1
aI1
aI2
aI2
aI0
aI0
aI0
aI0
aI1
aI-5
aa(lp69
V0020600205
p70
aVNOV 28, 2006
p71
aVNJN vs. CHA
p72
aVL
p73
aI16
aI1
aI1
aF1.0
aI1
aI1
aF1.0
aI0
aI0
aF0.0
aI1
aI2
aI3
aI0
aI0
aI0
aI0
aI2
aI3
aI0
aa(lp74
V0020600215
p75
aVNOV 29, 2006
p76
aVNJN @ BOS
p77
aVW
p78
aI19
aI0
aI3
aF0.0
aI0
aI1
aF0.0
aI0
aI0
aF0.0
aI0
aI0
aI0
aI1
aI1
aI0
aI0
aI2
aI0
aI9
aa(lp79
V0020600234
p80
aVDEC 02, 2006
p81
aVNJN vs. PHI
p82
aVW
p83
aI11
aI0
aI2
aF0.0
aI0
aI1
aF0.0
aI0
aI0
aF0.0
aI0
aI2
aI2
aI0
aI0
aI0
aI0
aI1
aI0
aI-8
aa(lp84
V0020600255
p85
aVDEC 05, 2006
p86
aVNJN vs. DAL
p87
aVL
p88
aI2
aI0
aI1
aF0.0
aI0
aI0
aF0.0
aI2
aI2
aF1.0
aI0
aI1
aI1
aI1
aI0
aI0
aI1
aI3
aI2
aI-11
aa(lp89
V0020600271
p90
aVDEC 07, 2006
p91
aVNJN vs. PHX
p92
aVL
p93
aI18
aI2
aI6
aF0.333
aI1
aI3
aF0.333
aI0
aI0
aF0.0
aI2
aI2
aI4
aI0
aI0
aI0
aI2
aI1
aI5
aI2
aa(lp94
V0020600288
p95
aVDEC 09, 2006
p96
aVNJN vs. BOS
p97
aVL
p98
aI24
aI3
aI5
aF0.6
aI1
aI3
aF0.333
aI0
aI0
aF0.0
aI1
aI4
aI5
aI1
aI2
aI1
aI1
aI0
aI7
aI1
aa(lp99
V0020600302
p100
aVDEC 11, 2006
p101
aVNJN vs. MEM
p102
aVW
p103
aI25
aI2
aI6
aF0.333
aI1
aI2
aF0.5
aI0
aI0
aF0.0
aI2
aI4
aI6
aI0
aI0
aI0
aI0
aI1
aI5
aI-8
aa(lp104
V0020600319
p105
aVDEC 13, 2006
p106
aVNJN vs. MIL
p107
aVW
p108
aI24
aI2
aI4
aF0.5
aI1
aI2
aF0.5
aI4
aI5
aF0.8
aI0
aI1
aI1
aI1
aI0
aI0
aI0
aI3
aI9
aI-5
aa(lp109
V0020600329
p110
aVDEC 15, 2006
p111
aVNJN @ TOR
p112
aVL
p113
aI23
aI2
aI4
aF0.5
aI0
aI1
aF0.0
aI2
aI2
aF1.0
aI0
aI5
aI5
aI0
aI1
aI0
aI0
aI4
aI6
aI-1
aa(lp114
V0020600346
p115
aVDEC 16, 2006
p116
aVNJN vs. DET
p117
aVL
p118
aI13
aI0
aI1
aF0.0
aI0
aI0
aF0.0
aI0
aI0
aF0.0
aI0
aI3
aI3
aI1
aI0
aI0
aI0
aI1
aI0
aI-14
aa(lp119
V0020600356
p120
aVDEC 18, 2006
p121
aVNJN vs. GSW
p122
aVW
p123
aI22
aI2
aI10
aF0.2
aI0
aI2
aF0.0
aI0
aI0
aF0.0
aI1
aI6
aI7
aI1
aI0
aI0
aI0
aI1
aI4
aI0
aa(lp124
V0020600369
p125
aVDEC 20, 2006
p126
aVNJN vs. CLE
p127
aVW
p128
aI1
aI0
aI0
aF0.0
aI0
aI0
aF0.0
aI0
aI0
aF0.0
aI0
aI0
aI0
aI0
aI0
aI0
aI0
aI0
aI0
aI0
aa(lp129
V0020600400
p130
aVDEC 23, 2006
p131
aVNJN @ MIL
p132
aVL
p133
aI4
aI0
aI1
aF0.0
aI0
aI1
aF0.0
aI0
aI0
aF0.0
aI0
aI1
aI1
aI1
aI0
aI0
aI1
aI1
aI0
aI1
aa(lp134
V0020600419
p135
aVDEC 27, 2006
p136
aVNJN vs. HOU
p137
aVL
p138
aI6
aI0
aI0
aF0.0
aI0
aI0
aF0.0
aI0
aI0
aF0.0
aI0
aI1
aI1
aI1
aI1
aI0
aI0
aI0
aI0
aI-1
aa(lp139
V0020600432
p140
aVDEC 29, 2006
p141
aVNJN @ MIA
p142
aVW
p143
aI4
aI0
aI1
aF0.0
aI0
aI0
aF0.0
aI0
aI0
aF0.0
aI1
aI1
aI2
aI1
aI0
aI0
aI2
aI0
aI0
aI-10
aa(lp144
V0020600482
p145
aVJAN 05, 2007
p146
aVNJN vs. CHI
p147
aVW
p148
aI1
aI0
aI1
aF0.0
aI0
aI1
aF0.0
aI0
aI0
aF0.0
aI0
aI1
aI1
aI0
aI0
aI0
aI0
aI1
aI0
aI-2
aa(lp149
V0020600545
p150
aVJAN 13, 2007
p151
aVNJN @ MIN
p152
aVL
p153
aI6
aI0
aI1
aF0.0
aI0
aI1
aF0.0
aI0
aI0
aF0.0
aI0
aI1
aI1
aI0
aI0
aI0
aI0
aI1
aI0
aI-3
aa(lp154
V0020600597
p155
aVJAN 20, 2007
p156
aVNJN vs. ORL
p157
aVW
p158
aI0
aI0
aI0
aF0.0
aI0
aI0
aF0.0
aI0
aI0
aF0.0
aI0
aI0
aI0
aI0
aI0
aI0
aI0
aI0
aI0
aI-3
aa(lp159
V0020600631
p160
aVJAN 24, 2007
p161
aVNJN @ GSW
p162
aVL
p163
aI7
aI0
aI0
aF0.0
aI0
aI0
aF0.0
aI0
aI0
aF0.0
aI0
aI0
aI0
aI0
aI0
aI0
aI0
aI1
aI0
aI-1
aa(lp164
V0020600652
p165
aVJAN 27, 2007
p166
aVNJN @ DEN
p167
aVW
p168
aI34
aI4
aI7
aF0.571
aI0
aI1
aF0.0
aI3
aI6
aF0.5
aI0
aI2
aI2
aI4
aI3
aI1
aI1
aI4
aI11
aI14
aa(lp169
V0020600667
p170
aVJAN 29, 2007
p171
aVNJN @ UTA
p172
aVW
p173
aI23
aI4
aI6
aF0.667
aI1
aI1
aF1.0
aI3
aI3
aF1.0
aI0
aI1
aI1
aI0
aI1
aI0
aI0
aI4
aI12
aI-1
aa(lp174
V0020600679
p175
aVJAN 31, 2007
p176
aVNJN vs. DET
p177
aVL
p178
aI16
aI0
aI3
aF0.0
aI0
aI1
aF0.0
aI1
aI2
aF0.5
aI0
aI4
aI4
aI2
aI0
aI0
aI2
aI3
aI1
aI-5
aa(lp179
V0020600690
p180
aVFEB 02, 2007
p181
aVNJN @ ORL
p182
aVL
p183
aI30
aI3
aI5
aF0.6
aI0
aI1
aF0.0
aI2
aI3
aF0.667
aI0
aI2
aI2
aI2
aI2
aI0
aI0
aI2
aI8
aI-24
aa(lp184
V0020600710
p185
aVFEB 04, 2007
p186
aVNJN vs. ATL
p187
aVL
p188
aI25
aI4
aI8
aF0.5
aI0
aI0
aF0.0
aI0
aI0
aF0.0
aI0
aI2
aI2
aI2
aI1
aI1
aI0
aI4
aI8
aI-9
aa(lp189
V0020600712
p190
aVFEB 05, 2007
p191
aVNJN @ PHI
p192
aVL
p193
aI30
aI2
aI4
aF0.5
aI0
aI1
aF0.0
aI0
aI2
aF0.0
aI2
aI3
aI5
aI1
aI0
aI0
aI0
aI3
aI4
aI-14
aa(lp194
V0020600728
p195
aVFEB 07, 2007
p196
aVNJN @ ATL
p197
aVW
p198
aI29
aI2
aI6
aF0.333
aI0
aI0
aF0.0
aI2
aI2
aF1.0
aI0
aI3
aI3
aI3
aI2
aI0
aI2
aI3
aI6
aI-7
aa(lp199
V0020600743
p200
aVFEB 09, 2007
p201
aVNJN @ BOS
p202
aVW
p203
aI26
aI4
aI6
aF0.667
aI1
aI1
aF1.0
aI0
aI0
aF0.0
aI1
aI5
aI6
aI1
aI1
aI0
aI2
aI4
aI9
aI9
aa(lp204
V0020600749
p205
aVFEB 10, 2007
p206
aVNJN vs. ORL
p207
aVW
p208
aI28
aI4
aI5
aF0.8
aI0
aI0
aF0.0
aI0
aI0
aF0.0
aI0
aI4
aI4
aI0
aI1
aI1
aI2
aI2
aI8
aI8
aa(lp209
V0020600768
p210
aVFEB 13, 2007
p211
aVNJN vs. SAS
p212
aVL
p213
aI20
aI2
aI7
aF0.286
aI0
aI2
aF0.0
aI0
aI0
aF0.0
aI0
aI2
aI2
aI1
aI0
aI0
aI0
aI3
aI4
aI-2
aa(lp214
V0020600775
p215
aVFEB 14, 2007
p216
aVNJN @ TOR
p217
aVL
p218
aI28
aI2
aI6
aF0.333
aI0
aI1
aF0.0
aI2
aI2
aF1.0
aI2
aI2
aI4
aI1
aI1
aI0
aI0
aI1
aI6
aI-9
aa(lp219
V0020600804
p220
aVFEB 21, 2007
p221
aVNJN vs. NOK
p222
aVL
p223
aI30
aI4
aI6
aF0.667
aI1
aI1
aF1.0
aI0
aI0
aF0.0
aI2
aI1
aI3
aI4
aI0
aI0
aI0
aI3
aI9
aI0
aa(lp224
V0020600817
p225
aVFEB 23, 2007
p226
aVNJN vs. SAC
p227
aVW
p228
aI22
aI2
aI5
aF0.4
aI0
aI1
aF0.0
aI0
aI0
aF0.0
aI1
aI3
aI4
aI0
aI2
aI1
aI3
aI6
aI4
aI8
aa(lp229
V0020600837
p230
aVFEB 25, 2007
p231
aVNJN vs. NYK
p232
aVW
p233
aI8
aI0
aI4
aF0.0
aI0
aI0
aF0.0
aI0
aI0
aF0.0
aI0
aI1
aI1
aI1
aI0
aI0
aI0
aI1
aI0
aI2
aa(lp234
V0020600951
p235
aVMAR 13, 2007
p236
aVNJN @ NOK
p237
aVW
p238
aI1
aI0
aI0
aF0.0
aI0
aI0
aF0.0
aI0
aI0
aF0.0
aI0
aI0
aI0
aI0
aI0
aI0
aI0
aI0
aI0
aI0
aa(lp239
V0020600990
p240
aVMAR 18, 2007
p241
aVNJN vs. LAC
p242
aVW
p243
aI11
aI2
aI3
aF0.667
aI0
aI1
aF0.0
aI0
aI0
aF0.0
aI1
aI1
aI2
aI0
aI1
aI0
aI0
aI0
aI4
aI-1
aa(lp244
V0020600997
p245
aVMAR 20, 2007
p246
aVNJN vs. DEN
p247
aVL
p248
aI8
aI1
aI1
aF1.0
aI0
aI0
aF0.0
aI0
aI0
aF0.0
aI0
aI1
aI1
aI1
aI0
aI0
aI0
aI1
aI2
aI6
aa(lp249
V0020601022
p250
aVMAR 23, 2007
p251
aVNJN @ ORL
p252
aVL
p253
aI3
aI1
aI1
aF1.0
aI0
aI0
aF0.0
aI0
aI0
aF0.0
aI0
aI0
aI0
aI0
aI0
aI0
aI0
aI1
aI2
aI-6
aa(lp254
V0020601032
p255
aVMAR 24, 2007
p256
aVNJN @ CHA
p257
aVW
p258
aI26
aI3
aI5
aF0.6
aI0
aI0
aF0.0
aI1
aI3
aF0.333
aI1
aI1
aI2
aI1
aI1
aI0
aI2
aI2
aI7
aI-5
aa(lp259
V0020601062
p260
aVMAR 28, 2007
p261
aVNJN vs. IND
p262
aVW
p263
aI12
aI3
aI5
aF0.6
aI1
aI1
aF1.0
aI0
aI4
aF0.0
aI0
aI1
aI1
aI1
aI0
aI0
aI0
aI0
aI7
aI-2
aa(lp264
V0020601076
p265
aVMAR 30, 2007
p266
aVNJN @ DET
p267
aVL
p268
aI7
aI1
aI1
aF1.0
aI0
aI0
aF0.0
aI0
aI0
aF0.0
aI0
aI1
aI1
aI0
aI0
aI0
aI0
aI2
aI2
aI0
aa(lp269
V0020601085
p270
aVMAR 31, 2007
p271
aVNJN vs. PHI
p272
aVW
p273
aI19
aI4
aI8
aF0.5
aI1
aI1
aF1.0
aI3
aI3
aF1.0
aI2
aI1
aI3
aI1
aI2
aI0
aI0
aI1
aI12
aI-5
aa(lp274
V0020601110
p275
aVAPR 04, 2007
p276
aVNJN vs. ATL
p277
aVW
p278
aI15
aI1
aI3
aF0.333
aI0
aI0
aF0.0
aI0
aI0
aF0.0
aI0
aI1
aI1
aI0
aI0
aI0
aI1
aI2
aI2
aI-14
aa(lp279
V0020601129
p280
aVAPR 06, 2007
p281
aVNJN @ CHI
p282
aVL
p283
aI29
aI4
aI9
aF0.444
aI1
aI4
aF0.25
aI0
aI0
aF0.0
aI3
aI3
aI6
aI2
aI0
aI0
aI5
aI2
aI9
aI-31
aa(lp284
V0020601136
p285
aVAPR 07, 2007
p286
aVNJN vs. WAS
p287
aVW
p288
aI5
aI0
aI3
aF0.0
aI0
aI1
aF0.0
aI0
aI0
aF0.0
aI0
aI1
aI1
aI1
aI0
aI0
aI0
aI2
aI0
aI1
aa(lp289
V0020601158
p290
aVAPR 10, 2007
p291
aVNJN @ WAS
p292
aVW
p293
aI1
aI0
aI0
aF0.0
aI0
aI0
aF0.0
aI0
aI0
aF0.0
aI0
aI0
aI0
aI0
aI0
aI0
aI0
aI0
aI0
aI1
aa(lp294
V0020601173
p295
aVAPR 12, 2007
p296
aVNJN @ CLE
p297
aVL
p298
aI14
aI1
aI2
aF0.5
aI0
aI0
aF0.0
aI1
aI2
aF0.5
aI0
aI2
aI2
aI1
aI0
aI2
aI2
aI3
aI3
aI-4
aa(lp299
V0020601177
p300
aVAPR 13, 2007
p301
aVNJN vs. NYK
p302
aVW
p303
aI9
aI1
aI2
aF0.5
aI1
aI1
aF1.0
aI0
aI0
aF0.0
aI0
aI3
aI3
aI0
aI0
aI0
aI0
aI1
aI3
aI2
aa(lp304
V0020601196
p305
aVAPR 15, 2007
p306
aVNJN @ IND
p307
aVW
p308
aI20
aI0
aI1
aF0.0
aI0
aI0
aF0.0
aI0
aI0
aF0.0
aI1
aI2
aI3
aI1
aI1
aI0
aI0
aI0
aI0
aI-11
aa(lp309
V0020601203
p310
aVAPR 16, 2007
p311
aVNJN @ NYK
p312
aVW
p313
aI10
aI1
aI2
aF0.5
aI0
aI0
aF0.0
aI0
aI0
aF0.0
aI0
aI1
aI1
aI0
aI0
aI0
aI0
aI3
aI2
aI-4
aa(lp314
V0020601222
p315
aVAPR 18, 2007
p316
aVNJN vs. CHI
p317
aVW
p318
aI16
aI1
aI2
aF0.5
aI0
aI0
aF0.0
aI0
aI2
aF0.0
aI2
aI3
aI5
aI0
aI0
aI2
aI2
aI3
aI2
aI-1
aasS'name'
p319
VAntoine Wright
p320
sS'experience'
p321
I1
s.