(dp0
S'stats'
p1
(lp2
(lp3
V0020600010
p4
aVNOV 01, 2006
p5
aVMEM vs. NYK
p6
aVL
p7
aI20
aI2
aI5
aF0.4
aI0
aI0
aF0.0
aI0
aI0
aF0.0
aI1
aI2
aI3
aI0
aI0
aI1
aI1
aI1
aI4
aI-10
aa(lp8
V0020600024
p9
aVNOV 03, 2006
p10
aVMEM vs. CHA
p11
aVW
p12
aI24
aI4
aI8
aF0.5
aI0
aI0
aF0.0
aI1
aI2
aF0.5
aI3
aI8
aI11
aI2
aI3
aI2
aI0
aI2
aI9
aI7
aa(lp13
V0020600034
p14
aVNOV 04, 2006
p15
aVMEM @ DET
p16
aVL
p17
aI21
aI1
aI4
aF0.25
aI0
aI0
aF0.0
aI2
aI4
aF0.5
aI2
aI5
aI7
aI0
aI0
aI0
aI1
aI2
aI4
aI-2
aa(lp18
V0020600055
p19
aVNOV 07, 2006
p20
aVMEM vs. HOU
p21
aVL
p22
aI17
aI1
aI3
aF0.333
aI0
aI0
aF0.0
aI0
aI0
aF0.0
aI5
aI3
aI8
aI1
aI0
aI0
aI3
aI5
aI2
aI9
aa(lp23
V0020600088
p24
aVNOV 11, 2006
p25
aVMEM @ PHX
p26
aVL
p27
aI25
aI3
aI5
aF0.6
aI0
aI0
aF0.0
aI4
aI4
aF1.0
aI2
aI6
aI8
aI1
aI2
aI1
aI1
aI3
aI10
aI-10
aa(lp28
V0020600096
p29
aVNOV 12, 2006
p30
aVMEM @ LAL
p31
aVL
p32
aI16
aI0
aI0
aF0.0
aI0
aI0
aF0.0
aI5
aI6
aF0.833
aI1
aI5
aI6
aI1
aI1
aI2
aI2
aI1
aI5
aI1
aa(lp33
V0020600115
p34
aVNOV 15, 2006
p35
aVMEM @ SAC
p36
aVL
p37
aI20
aI3
aI7
aF0.429
aI0
aI0
aF0.0
aI2
aI3
aF0.667
aI3
aI5
aI8
aI1
aI1
aI1
aI0
aI1
aI8
aI3
aa(lp38
V0020600124
p39
aVNOV 17, 2006
p40
aVMEM vs. DAL
p41
aVL
p42
aI20
aI2
aI6
aF0.333
aI0
aI0
aF0.0
aI4
aI7
aF0.571
aI3
aI3
aI6
aI1
aI0
aI1
aI0
aI3
aI8
aI-7
aa(lp43
V0020600137
p44
aVNOV 18, 2006
p45
aVMEM @ DAL
p46
aVL
p47
aI28
aI2
aI5
aF0.4
aI0
aI0
aF0.0
aI7
aI9
aF0.778
aI3
aI2
aI5
aI1
aI2
aI0
aI0
aI3
aI11
aI-6
aa(lp48
V0020600146
p49
aVNOV 20, 2006
p50
aVMEM vs. ORL
p51
aVW
p52
aI10
aI1
aI3
aF0.333
aI0
aI0
aF0.0
aI1
aI1
aF1.0
aI0
aI1
aI1
aI0
aI0
aI0
aI0
aI3
aI3
aI-4
aa(lp53
V0020600152
p54
aVNOV 21, 2006
p55
aVMEM @ CLE
p56
aVL
p57
aI20
aI1
aI1
aF1.0
aI0
aI0
aF0.0
aI4
aI4
aF1.0
aI1
aI4
aI5
aI0
aI0
aI0
aI0
aI1
aI6
aI14
aa(lp58
V0020600177
p59
aVNOV 24, 2006
p60
aVMEM vs. WAS
p61
aVW
p62
aI19
aI1
aI2
aF0.5
aI0
aI0
aF0.0
aI4
aI4
aF1.0
aI0
aI3
aI3
aI1
aI0
aI0
aI1
aI3
aI6
aI12
aa(lp63
V0020600190
p64
aVNOV 25, 2006
p65
aVMEM @ HOU
p66
aVL
p67
aI5
aI1
aI3
aF0.333
aI0
aI0
aF0.0
aI1
aI2
aF0.5
aI2
aI5
aI7
aI0
aI1
aI0
aI1
aI1
aI3
aI-9
aa(lp68
V0020600209
p69
aVNOV 28, 2006
p70
aVMEM @ DEN
p71
aVW
p72
aI26
aI8
aI11
aF0.727
aI0
aI0
aF0.0
aI0
aI1
aF0.0
aI3
aI3
aI6
aI1
aI1
aI0
aI1
aI3
aI16
aI16
aa(lp73
V0020600220
p74
aVNOV 29, 2006
p75
aVMEM @ LAC
p76
aVL
p77
aI22
aI1
aI3
aF0.333
aI0
aI0
aF0.0
aI2
aI4
aF0.5
aI2
aI6
aI8
aI1
aI2
aI0
aI1
aI4
aI4
aI-12
aa(lp78
V0020600236
p79
aVDEC 02, 2006
p80
aVMEM vs. MIA
p81
aVL
p82
aI23
aI0
aI2
aF0.0
aI0
aI0
aF0.0
aI0
aI0
aF0.0
aI0
aI4
aI4
aI1
aI1
aI0
aI0
aI3
aI0
aI7
aa(lp83
V0020600249
p84
aVDEC 04, 2006
p85
aVMEM @ NYK
p86
aVL
p87
aI6
aI1
aI2
aF0.5
aI0
aI0
aF0.0
aI1
aI1
aF1.0
aI0
aI3
aI3
aI0
aI1
aI0
aI1
aI1
aI3
aI6
aa(lp88
V0020600264
p89
aVDEC 06, 2006
p90
aVMEM @ BOS
p91
aVW
p92
aI28
aI2
aI3
aF0.667
aI0
aI0
aF0.0
aI14
aI15
aF0.933
aI4
aI3
aI7
aI0
aI2
aI0
aI0
aI2
aI18
aI10
aa(lp93
V0020600535
p94
aVJAN 12, 2007
p95
aVMEM vs. MIN
p96
aVL
p97
aI21
aI3
aI3
aF1.0
aI0
aI0
aF0.0
aI0
aI2
aF0.0
aI1
aI1
aI2
aI0
aI0
aI0
aI0
aI2
aI6
aI-2
aa(lp98
V0020600546
p99
aVJAN 13, 2007
p100
aVMEM @ CHI
p101
aVL
p102
aI13
aI1
aI3
aF0.333
aI0
aI0
aF0.0
aI0
aI0
aF0.0
aI1
aI3
aI4
aI0
aI0
aI1
aI0
aI3
aI2
aI-20
aa(lp103
V0020600563
p104
aVJAN 15, 2007
p105
aVMEM vs. PHX
p106
aVL
p107
aI14
aI1
aI3
aF0.333
aI0
aI1
aF0.0
aI2
aI2
aF1.0
aI0
aI3
aI3
aI0
aI0
aI0
aI0
aI3
aI4
aI-6
aa(lp108
V0020600573
p109
aVJAN 17, 2007
p110
aVMEM vs. PHI
p111
aVW
p112
aI22
aI6
aI7
aF0.857
aI0
aI0
aF0.0
aI1
aI2
aF0.5
aI5
aI3
aI8
aI0
aI1
aI0
aI1
aI4
aI13
aI3
aa(lp113
V0020600592
p114
aVJAN 20, 2007
p115
aVMEM @ LAC
p116
aVL
p117
aI22
aI3
aI8
aF0.375
aI0
aI0
aF0.0
aI2
aI4
aF0.5
aI2
aI4
aI6
aI0
aI0
aI0
aI1
aI2
aI8
aI-15
aa(lp118
V0020600611
p119
aVJAN 22, 2007
p120
aVMEM @ DEN
p121
aVL
p122
aI5
aI2
aI2
aF1.0
aI0
aI0
aF0.0
aI0
aI0
aF0.0
aI1
aI0
aI1
aI0
aI0
aI0
aI1
aI2
aI4
aI5
aa(lp123
V0020600628
p124
aVJAN 24, 2007
p125
aVMEM @ UTA
p126
aVW
p127
aI13
aI1
aI4
aF0.25
aI0
aI0
aF0.0
aI4
aI4
aF1.0
aI3
aI2
aI5
aI1
aI0
aI1
aI0
aI6
aI6
aI-9
aa(lp128
V0020600640
p129
aVJAN 26, 2007
p130
aVMEM @ SAS
p131
aVL
p132
aI31
aI1
aI7
aF0.143
aI0
aI0
aF0.0
aI3
aI8
aF0.375
aI3
aI3
aI6
aI3
aI3
aI0
aI1
aI3
aI5
aI-7
aa(lp133
V0020600648
p134
aVJAN 27, 2007
p135
aVMEM vs. POR
p136
aVL
p137
aI24
aI2
aI6
aF0.333
aI0
aI0
aF0.0
aI2
aI3
aF0.667
aI1
aI4
aI5
aI0
aI1
aI0
aI3
aI3
aI6
aI0
aa(lp138
V0020600662
p139
aVJAN 29, 2007
p140
aVMEM vs. SAC
p141
aVW
p142
aI25
aI0
aI2
aF0.0
aI0
aI0
aF0.0
aI3
aI4
aF0.75
aI4
aI10
aI14
aI1
aI0
aI0
aI2
aI3
aI3
aI-5
aa(lp143
V0020600680
p144
aVJAN 31, 2007
p145
aVMEM vs. DAL
p146
aVL
p147
aI20
aI2
aI5
aF0.4
aI0
aI0
aF0.0
aI1
aI2
aF0.5
aI0
aI5
aI5
aI0
aI0
aI0
aI0
aI3
aI5
aI0
aa(lp148
V0020600702
p149
aVFEB 03, 2007
p150
aVMEM vs. IND
p151
aVL
p152
aI19
aI2
aI5
aF0.4
aI0
aI0
aF0.0
aI2
aI2
aF1.0
aI2
aI1
aI3
aI0
aI0
aI1
aI1
aI6
aI6
aI2
aa(lp153
V0020600723
p154
aVFEB 06, 2007
p155
aVMEM vs. HOU
p156
aVL
p157
aI27
aI4
aI6
aF0.667
aI0
aI0
aF0.0
aI2
aI2
aF1.0
aI3
aI5
aI8
aI1
aI1
aI0
aI0
aI2
aI10
aI-8
aa(lp158
V0020600733
p159
aVFEB 07, 2007
p160
aVMEM @ DAL
p161
aVL
p162
aI19
aI1
aI3
aF0.333
aI0
aI0
aF0.0
aI3
aI4
aF0.75
aI4
aI1
aI5
aI1
aI0
aI0
aI3
aI2
aI5
aI4
aa(lp163
V0020600745
p164
aVFEB 09, 2007
p165
aVMEM vs. MIN
p166
aVW
p167
aI21
aI4
aI6
aF0.667
aI0
aI0
aF0.0
aI1
aI1
aF1.0
aI3
aI1
aI4
aI1
aI2
aI0
aI2
aI5
aI9
aI-2
aa(lp168
V0020600751
p169
aVFEB 10, 2007
p170
aVMEM @ NOK
p171
aVL
p172
aI12
aI0
aI1
aF0.0
aI0
aI0
aF0.0
aI0
aI0
aF0.0
aI1
aI2
aI3
aI0
aI0
aI0
aI0
aI4
aI0
aI-11
aa(lp173
V0020600771
p174
aVFEB 13, 2007
p175
aVMEM vs. NOK
p176
aVW
p177
aI24
aI2
aI5
aF0.4
aI0
aI0
aF0.0
aI0
aI0
aF0.0
aI3
aI4
aI7
aI1
aI0
aI0
aI0
aI2
aI4
aI12
aa(lp178
V0020600779
p179
aVFEB 14, 2007
p180
aVMEM @ IND
p181
aVL
p182
aI21
aI1
aI4
aF0.25
aI0
aI0
aF0.0
aI0
aI0
aF0.0
aI3
aI2
aI5
aI2
aI1
aI0
aI1
aI2
aI2
aI4
aa(lp183
V0020600798
p184
aVFEB 20, 2007
p185
aVMEM @ SEA
p186
aVL
p187
aI18
aI3
aI6
aF0.5
aI0
aI0
aF0.0
aI0
aI1
aF0.0
aI4
aI2
aI6
aI1
aI1
aI0
aI1
aI3
aI6
aI-7
aa(lp188
V0020600810
p189
aVFEB 21, 2007
p190
aVMEM @ GSW
p191
aVL
p192
aI15
aI0
aI1
aF0.0
aI0
aI0
aF0.0
aI0
aI0
aF0.0
aI2
aI4
aI6
aI1
aI1
aI0
aI0
aI4
aI0
aI-5
aa(lp193
V0020600823
p194
aVFEB 23, 2007
p195
aVMEM @ POR
p196
aVW
p197
aI24
aI3
aI6
aF0.5
aI0
aI0
aF0.0
aI2
aI2
aF1.0
aI2
aI5
aI7
aI0
aI1
aI0
aI1
aI4
aI8
aI-12
aa(lp198
V0020600842
p199
aVFEB 26, 2007
p200
aVMEM vs. DEN
p201
aVL
p202
aI24
aI3
aI6
aF0.5
aI0
aI0
aF0.0
aI2
aI3
aF0.667
aI0
aI6
aI6
aI0
aI0
aI0
aI0
aI2
aI8
aI0
aa(lp203
V0020600858
p204
aVFEB 28, 2007
p205
aVMEM vs. UTA
p206
aVL
p207
aI24
aI2
aI2
aF1.0
aI0
aI0
aF0.0
aI0
aI0
aF0.0
aI3
aI6
aI9
aI2
aI3
aI0
aI1
aI2
aI4
aI11
aa(lp208
V0020600869
p209
aVMAR 02, 2007
p210
aVMEM @ PHI
p211
aVL
p212
aI26
aI0
aI3
aF0.0
aI0
aI0
aF0.0
aI1
aI2
aF0.5
aI2
aI0
aI2
aI2
aI1
aI0
aI0
aI2
aI1
aI-13
aa(lp213
V0020600882
p214
aVMAR 03, 2007
p215
aVMEM vs. DET
p216
aVL
p217
aI23
aI0
aI3
aF0.0
aI0
aI0
aF0.0
aI2
aI2
aF1.0
aI6
aI3
aI9
aI0
aI1
aI0
aI1
aI3
aI2
aI3
aa(lp218
V0020600907
p219
aVMAR 07, 2007
p220
aVMEM @ TOR
p221
aVL
p222
aI17
aI2
aI3
aF0.667
aI0
aI0
aF0.0
aI0
aI0
aF0.0
aI3
aI2
aI5
aI0
aI1
aI0
aI1
aI4
aI4
aI2
aa(lp223
V0020600921
p224
aVMAR 09, 2007
p225
aVMEM @ ATL
p226
aVL
p227
aI22
aI4
aI6
aF0.667
aI0
aI0
aF0.0
aI0
aI0
aF0.0
aI1
aI2
aI3
aI0
aI0
aI0
aI0
aI3
aI8
aI-9
aa(lp228
V0020600928
p229
aVMAR 10, 2007
p230
aVMEM @ CHA
p231
aVW
p232
aI3
aI1
aI1
aF1.0
aI0
aI0
aF0.0
aI1
aI1
aF1.0
aI0
aI0
aI0
aI0
aI0
aI0
aI0
aI1
aI3
aI1
aa(lp233
V0020600945
p234
aVMAR 12, 2007
p235
aVMEM vs. NJN
p236
aVL
p237
aI10
aI0
aI1
aF0.0
aI0
aI0
aF0.0
aI2
aI2
aF1.0
aI0
aI1
aI1
aI0
aI0
aI0
aI0
aI3
aI2
aI3
aa(lp238
V0020600963
p239
aVMAR 14, 2007
p240
aVMEM vs. CLE
p241
aVL
p242
aI9
aI1
aI2
aF0.5
aI0
aI0
aF0.0
aI2
aI2
aF1.0
aI1
aI1
aI2
aI1
aI0
aI0
aI0
aI0
aI4
aI13
aa(lp243
V0020600983
p244
aVMAR 17, 2007
p245
aVMEM vs. CHI
p246
aVW
p247
aI8
aI2
aI3
aF0.667
aI0
aI0
aF0.0
aI1
aI3
aF0.333
aI0
aI0
aI0
aI0
aI0
aI1
aI1
aI0
aI5
aI7
aa(lp248
V0020601001
p249
aVMAR 20, 2007
p250
aVMEM vs. NOK
p251
aVL
p252
aI7
aI0
aI3
aF0.0
aI0
aI1
aF0.0
aI0
aI0
aF0.0
aI0
aI1
aI1
aI0
aI0
aI1
aI0
aI0
aI0
aI1
aa(lp253
V0020601034
p254
aVMAR 24, 2007
p255
aVMEM @ UTA
p256
aVL
p257
aI7
aI0
aI0
aF0.0
aI0
aI0
aF0.0
aI0
aI0
aF0.0
aI0
aI0
aI0
aI0
aI0
aI0
aI0
aI2
aI0
aI-2
aa(lp258
V0020601070
p259
aVMAR 29, 2007
p260
aVMEM @ POR
p261
aVW
p262
aI2
aI0
aI1
aF0.0
aI0
aI0
aF0.0
aI2
aI2
aF1.0
aI0
aI0
aI0
aI0
aI0
aI0
aI0
aI0
aI2
aI-2
aa(lp263
V0020601134
p264
aVAPR 07, 2007
p265
aVMEM @ ORL
p266
aVL
p267
aI8
aI2
aI7
aF0.286
aI0
aI0
aF0.0
aI1
aI2
aF0.5
aI2
aI2
aI4
aI0
aI1
aI0
aI1
aI1
aI5
aI1
aa(lp268
V0020601161
p269
aVAPR 10, 2007
p270
aVMEM vs. SAC
p271
aVL
p272
aI5
aI1
aI1
aF1.0
aI0
aI0
aF0.0
aI1
aI2
aF0.5
aI0
aI0
aI0
aI0
aI0
aI0
aI0
aI0
aI3
aI3
aasS'name'
p273
VLawrence Roberts
p274
sS'weight'
p275
V240
p276
sS'age'
p277
I24
sS'experience'
p278
I1
sS'height'
p279
V6-9
p280
sS'position'
p281
VForward
p282
s.