(dp0
S'stats'
p1
(lp2
(lp3
V0020600017
p4
aVNOV 02, 2006
p5
aVLAC vs. DEN
p6
aVW
p7
aI7
aI0
aI1
aF0.0
aI0
aI1
aF0.0
aI0
aI0
aF0.0
aI0
aI1
aI1
aI0
aI1
aI0
aI1
aI1
aI0
aI1
aa(lp8
V0020600039
p9
aVNOV 04, 2006
p10
aVLAC vs. PHX
p11
aVW
p12
aI5
aI0
aI0
aF0.0
aI0
aI0
aF0.0
aI0
aI0
aF0.0
aI0
aI0
aI0
aI0
aI0
aI0
aI0
aI0
aI0
aI3
aa(lp13
V0020600106
p14
aVNOV 14, 2006
p15
aVLAC @ UTA
p16
aVL
p17
aI2
aI0
aI0
aF0.0
aI0
aI0
aF0.0
aI0
aI0
aF0.0
aI0
aI0
aI0
aI0
aI0
aI0
aI0
aI0
aI0
aI-3
aa(lp18
V0020600169
p19
aVNOV 22, 2006
p20
aVLAC vs. SEA
p21
aVL
p22
aI1
aI0
aI0
aF0.0
aI0
aI0
aF0.0
aI0
aI0
aF0.0
aI0
aI0
aI0
aI0
aI0
aI0
aI0
aI0
aI0
aI0
aa(lp23
V0020600189
p24
aVNOV 25, 2006
p25
aVLAC @ MIN
p26
aVL
p27
aI4
aI1
aI1
aF1.0
aI0
aI0
aF0.0
aI0
aI0
aF0.0
aI0
aI0
aI0
aI0
aI0
aI0
aI2
aI0
aI2
aI-3
aa(lp28
V0020600196
p29
aVNOV 26, 2006
p30
aVLAC @ DEN
p31
aVL
p32
aI13
aI1
aI5
aF0.2
aI0
aI2
aF0.0
aI2
aI3
aF0.667
aI0
aI0
aI0
aI2
aI1
aI0
aI0
aI0
aI4
aI2
aa(lp33
V0020600210
p34
aVNOV 28, 2006
p35
aVLAC @ SAC
p36
aVL
p37
aI9
aI1
aI2
aF0.5
aI0
aI0
aF0.0
aI0
aI0
aF0.0
aI0
aI1
aI1
aI1
aI0
aI0
aI0
aI1
aI2
aI-2
aa(lp38
V0020600220
p39
aVNOV 29, 2006
p40
aVLAC vs. MEM
p41
aVW
p42
aI1
aI0
aI0
aF0.0
aI0
aI0
aF0.0
aI0
aI0
aF0.0
aI0
aI0
aI0
aI0
aI0
aI1
aI0
aI0
aI0
aI-2
aa(lp43
V0020600247
p44
aVDEC 03, 2006
p45
aVLAC vs. ORL
p46
aVW
p47
aI3
aI1
aI1
aF1.0
aI0
aI0
aF0.0
aI2
aI2
aF1.0
aI0
aI0
aI0
aI0
aI1
aI0
aI0
aI0
aI4
aI4
aa(lp48
V0020600279
p49
aVDEC 08, 2006
p50
aVLAC @ SAS
p51
aVL
p52
aI12
aI3
aI4
aF0.75
aI1
aI2
aF0.5
aI0
aI0
aF0.0
aI0
aI1
aI1
aI1
aI0
aI0
aI0
aI1
aI7
aI2
aa(lp53
V0020600291
p54
aVDEC 09, 2006
p55
aVLAC @ MEM
p56
aVW
p57
aI1
aI0
aI0
aF0.0
aI0
aI0
aF0.0
aI0
aI0
aF0.0
aI0
aI0
aI0
aI0
aI0
aI0
aI0
aI1
aI0
aI0
aa(lp58
V0020600308
p59
aVDEC 11, 2006
p60
aVLAC vs. SAS
p61
aVL
p62
aI25
aI1
aI3
aF0.333
aI0
aI2
aF0.0
aI2
aI4
aF0.5
aI0
aI1
aI1
aI0
aI1
aI0
aI1
aI3
aI4
aI-10
aa(lp63
V0020600325
p64
aVDEC 13, 2006
p65
aVLAC vs. UTA
p66
aVL
p67
aI9
aI0
aI2
aF0.0
aI0
aI1
aF0.0
aI0
aI0
aF0.0
aI0
aI0
aI0
aI0
aI2
aI0
aI0
aI1
aI0
aI-11
aa(lp68
V0020600339
p69
aVDEC 15, 2006
p70
aVLAC @ POR
p71
aVL
p72
aI1
aI0
aI0
aF0.0
aI0
aI0
aF0.0
aI0
aI0
aF0.0
aI0
aI0
aI0
aI0
aI0
aI0
aI0
aI0
aI0
aI0
aa(lp73
V0020600353
p74
aVDEC 17, 2006
p75
aVLAC vs. HOU
p76
aVL
p77
aI5
aI0
aI0
aF0.0
aI0
aI0
aF0.0
aI0
aI0
aF0.0
aI0
aI0
aI0
aI0
aI0
aI0
aI1
aI1
aI0
aI2
aa(lp78
V0020600388
p79
aVDEC 22, 2006
p80
aVLAC @ DAL
p81
aVL
p82
aI15
aI1
aI4
aF0.25
aI0
aI0
aF0.0
aI2
aI2
aF1.0
aI0
aI2
aI2
aI1
aI1
aI0
aI0
aI0
aI4
aI0
aa(lp83
V0020600401
p84
aVDEC 23, 2006
p85
aVLAC @ HOU
p86
aVW
p87
aI9
aI0
aI0
aF0.0
aI0
aI0
aF0.0
aI3
aI4
aF0.75
aI0
aI0
aI0
aI0
aI1
aI0
aI1
aI1
aI3
aI0
aa(lp88
V0020600411
p89
aVDEC 26, 2006
p90
aVLAC @ UTA
p91
aVL
p92
aI17
aI0
aI1
aF0.0
aI0
aI0
aF0.0
aI3
aI4
aF0.75
aI0
aI3
aI3
aI2
aI1
aI0
aI1
aI2
aI3
aI9
aa(lp93
V0020600425
p94
aVDEC 27, 2006
p95
aVLAC vs. BOS
p96
aVW
p97
aI26
aI3
aI5
aF0.6
aI0
aI2
aF0.0
aI0
aI0
aF0.0
aI0
aI1
aI1
aI1
aI2
aI0
aI2
aI3
aI6
aI8
aa(lp98
V0020600440
p99
aVDEC 29, 2006
p100
aVLAC vs. SAC
p101
aVW
p102
aI16
aI0
aI1
aF0.0
aI0
aI0
aF0.0
aI2
aI2
aF1.0
aI0
aI2
aI2
aI3
aI1
aI0
aI3
aI2
aI2
aI9
aa(lp103
V0020600452
p104
aVDEC 31, 2006
p105
aVLAC vs. NYK
p106
aVW
p107
aI16
aI0
aI1
aF0.0
aI0
aI0
aF0.0
aI0
aI0
aF0.0
aI0
aI1
aI1
aI1
aI0
aI1
aI0
aI1
aI0
aI7
aa(lp108
V0020600460
p109
aVJAN 02, 2007
p110
aVLAC @ ORL
p111
aVL
p112
aI13
aI2
aI3
aF0.667
aI0
aI0
aF0.0
aI0
aI0
aF0.0
aI0
aI0
aI0
aI0
aI1
aI0
aI0
aI0
aI4
aI5
aa(lp113
V0020600470
p114
aVJAN 03, 2007
p115
aVLAC @ MIA
p116
aVW
p117
aI32
aI5
aI8
aF0.625
aI0
aI0
aF0.0
aI2
aI2
aF1.0
aI1
aI4
aI5
aI5
aI1
aI0
aI1
aI4
aI12
aI4
aa(lp118
V0020600480
p119
aVJAN 05, 2007
p120
aVLAC @ WAS
p121
aVL
p122
aI18
aI1
aI5
aF0.2
aI1
aI1
aF1.0
aI1
aI2
aF0.5
aI1
aI6
aI7
aI2
aI1
aI0
aI2
aI1
aI4
aI16
aa(lp123
V0020600491
p124
aVJAN 06, 2007
p125
aVLAC @ ATL
p126
aVL
p127
aI13
aI1
aI3
aF0.333
aI0
aI0
aF0.0
aI0
aI0
aF0.0
aI0
aI2
aI2
aI1
aI0
aI0
aI3
aI1
aI2
aI-2
aa(lp128
V0020600505
p129
aVJAN 08, 2007
p130
aVLAC @ NOK
p131
aVW
p132
aI5
aI0
aI2
aF0.0
aI0
aI1
aF0.0
aI0
aI0
aF0.0
aI0
aI1
aI1
aI2
aI0
aI0
aI0
aI0
aI0
aI2
aa(lp133
V0020600551
p134
aVJAN 13, 2007
p135
aVLAC vs. CLE
p136
aVL
p137
aI1
aI0
aI0
aF0.0
aI0
aI0
aF0.0
aI0
aI0
aF0.0
aI0
aI0
aI0
aI0
aI0
aI0
aI0
aI0
aI0
aI5
aa(lp138
V0020600562
p139
aVJAN 15, 2007
p140
aVLAC @ GSW
p141
aVL
p142
aI4
aI0
aI1
aF0.0
aI0
aI0
aF0.0
aI0
aI0
aF0.0
aI0
aI2
aI2
aI1
aI0
aI1
aI1
aI1
aI0
aI2
aa(lp143
V0020600578
p144
aVJAN 17, 2007
p145
aVLAC vs. GSW
p146
aVW
p147
aI12
aI1
aI2
aF0.5
aI0
aI0
aF0.0
aI0
aI0
aF0.0
aI0
aI1
aI1
aI4
aI0
aI0
aI2
aI2
aI2
aI-1
aa(lp148
V0020600592
p149
aVJAN 20, 2007
p150
aVLAC vs. MEM
p151
aVW
p152
aI12
aI2
aI2
aF1.0
aI0
aI0
aF0.0
aI2
aI2
aF1.0
aI0
aI1
aI1
aI3
aI0
aI0
aI1
aI0
aI6
aI-6
aa(lp153
V0020600620
p154
aVJAN 23, 2007
p155
aVLAC vs. MIL
p156
aVW
p157
aI9
aI0
aI2
aF0.0
aI0
aI0
aF0.0
aI0
aI0
aF0.0
aI0
aI0
aI0
aI2
aI0
aI0
aI1
aI0
aI0
aI1
aa(lp158
V0020600660
p159
aVJAN 28, 2007
p160
aVLAC @ SEA
p161
aVW
p162
aI13
aI3
aI6
aF0.5
aI2
aI4
aF0.5
aI0
aI0
aF0.0
aI0
aI2
aI2
aI1
aI0
aI0
aI1
aI0
aI8
aI-12
aa(lp163
V0020600692
p164
aVFEB 02, 2007
p165
aVLAC @ BOS
p166
aVW
p167
aI0
aI0
aI0
aF0.0
aI0
aI0
aF0.0
aI0
aI0
aF0.0
aI0
aI0
aI0
aI0
aI0
aI0
aI0
aI0
aI0
aI0
aa(lp168
V0020600729
p169
aVFEB 07, 2007
p170
aVLAC @ CLE
p171
aVL
p172
aI6
aI0
aI1
aF0.0
aI0
aI0
aF0.0
aI0
aI0
aF0.0
aI0
aI0
aI0
aI1
aI0
aI0
aI0
aI0
aI0
aI-5
aa(lp173
V0020600765
p174
aVFEB 12, 2007
p175
aVLAC @ DET
p176
aVL
p177
aI6
aI2
aI3
aF0.667
aI1
aI2
aF0.5
aI0
aI0
aF0.0
aI0
aI0
aI0
aI0
aI0
aI0
aI1
aI0
aI5
aI3
aa(lp178
V0020600799
p179
aVFEB 20, 2007
p180
aVLAC vs. PHX
p181
aVL
p182
aI29
aI6
aI11
aF0.545
aI2
aI6
aF0.333
aI2
aI4
aF0.5
aI0
aI1
aI1
aI1
aI0
aI1
aI2
aI1
aI16
aI-13
aa(lp183
V0020600826
p184
aVFEB 24, 2007
p185
aVLAC vs. GSW
p186
aVW
p187
aI1
aI0
aI0
aF0.0
aI0
aI0
aF0.0
aI0
aI0
aF0.0
aI0
aI0
aI0
aI0
aI0
aI0
aI0
aI1
aI0
aI-1
aa(lp188
V0020600849
p189
aVFEB 26, 2007
p190
aVLAC vs. CHA
p191
aVW
p192
aI20
aI2
aI5
aF0.4
aI0
aI2
aF0.0
aI3
aI4
aF0.75
aI0
aI2
aI2
aI4
aI0
aI0
aI0
aI0
aI7
aI14
aa(lp193
V0020600864
p194
aVFEB 28, 2007
p195
aVLAC vs. SEA
p196
aVW
p197
aI13
aI1
aI3
aF0.333
aI0
aI1
aF0.0
aI0
aI0
aF0.0
aI1
aI1
aI2
aI4
aI0
aI0
aI1
aI3
aI2
aI-1
aa(lp198
V0020600867
p199
aVMAR 01, 2007
p200
aVLAC @ SEA
p201
aVL
p202
aI35
aI2
aI6
aF0.333
aI0
aI2
aF0.0
aI0
aI0
aF0.0
aI0
aI1
aI1
aI5
aI1
aI0
aI2
aI1
aI4
aI6
aa(lp203
V0020600886
p204
aVMAR 03, 2007
p205
aVLAC vs. IND
p206
aVW
p207
aI31
aI4
aI9
aF0.444
aI0
aI0
aF0.0
aI0
aI0
aF0.0
aI0
aI5
aI5
aI2
aI5
aI0
aI2
aI3
aI8
aI16
aa(lp208
V0020600899
p209
aVMAR 05, 2007
p210
aVLAC vs. SAS
p211
aVL
p212
aI26
aI1
aI4
aF0.25
aI0
aI0
aF0.0
aI0
aI0
aF0.0
aI1
aI2
aI3
aI3
aI2
aI0
aI2
aI3
aI2
aI-12
aa(lp213
V0020600926
p214
aVMAR 09, 2007
p215
aVLAC @ GSW
p216
aVL
p217
aI19
aI3
aI5
aF0.6
aI2
aI4
aF0.5
aI1
aI2
aF0.5
aI0
aI4
aI4
aI4
aI1
aI0
aI2
aI2
aI9
aI6
aa(lp218
V0020600952
p219
aVMAR 13, 2007
p220
aVLAC @ SAS
p221
aVL
p222
aI18
aI2
aI6
aF0.333
aI0
aI2
aF0.0
aI0
aI0
aF0.0
aI0
aI2
aI2
aI4
aI0
aI0
aI1
aI1
aI4
aI-4
aa(lp223
V0020600964
p224
aVMAR 14, 2007
p225
aVLAC @ HOU
p226
aVL
p227
aI27
aI3
aI6
aF0.5
aI2
aI3
aF0.667
aI2
aI2
aF1.0
aI2
aI2
aI4
aI6
aI0
aI0
aI2
aI4
aI10
aI15
aa(lp228
V0020600972
p229
aVMAR 16, 2007
p230
aVLAC @ CHA
p231
aVW
p232
aI6
aI0
aI2
aF0.0
aI0
aI1
aF0.0
aI0
aI0
aF0.0
aI0
aI0
aI0
aI1
aI1
aI0
aI1
aI0
aI0
aI-6
aa(lp233
V0020600990
p234
aVMAR 18, 2007
p235
aVLAC @ NJN
p236
aVL
p237
aI0
aI0
aI0
aF0.0
aI0
aI0
aF0.0
aI0
aI0
aF0.0
aI0
aI0
aI0
aI0
aI0
aI0
aI0
aI1
aI0
aI-4
aa(lp238
V0020601002
p239
aVMAR 20, 2007
p240
aVLAC @ CHI
p241
aVW
p242
aI21
aI3
aI6
aF0.5
aI1
aI2
aF0.5
aI4
aI4
aF1.0
aI0
aI4
aI4
aI2
aI3
aI0
aI2
aI6
aI11
aI10
aa(lp243
V0020601011
p244
aVMAR 21, 2007
p245
aVLAC @ MIL
p246
aVW
p247
aI16
aI2
aI5
aF0.4
aI0
aI0
aF0.0
aI0
aI0
aF0.0
aI0
aI0
aI0
aI3
aI0
aI0
aI1
aI4
aI4
aI-11
aa(lp248
V0020601029
p249
aVMAR 23, 2007
p250
aVLAC vs. UTA
p251
aVW
p252
aI26
aI2
aI7
aF0.286
aI1
aI1
aF1.0
aI0
aI0
aF0.0
aI1
aI1
aI2
aI6
aI1
aI0
aI0
aI2
aI5
aI16
aa(lp253
V0020601035
p254
aVMAR 24, 2007
p255
aVLAC vs. WAS
p256
aVW
p257
aI16
aI3
aI4
aF0.75
aI1
aI1
aF1.0
aI2
aI2
aF1.0
aI2
aI1
aI3
aI4
aI0
aI0
aI2
aI0
aI9
aI-7
aa(lp258
V0020601068
p259
aVMAR 28, 2007
p260
aVLAC vs. HOU
p261
aVL
p262
aI5
aI0
aI1
aF0.0
aI0
aI0
aF0.0
aI0
aI0
aF0.0
aI0
aI1
aI1
aI2
aI0
aI0
aI0
aI1
aI0
aI-4
aa(lp263
V0020601082
p264
aVMAR 30, 2007
p265
aVLAC @ SAC
p266
aVW
p267
aI6
aI0
aI1
aF0.0
aI0
aI0
aF0.0
aI0
aI0
aF0.0
aI0
aI0
aI0
aI1
aI0
aI0
aI0
aI1
aI0
aI-4
aa(lp268
V0020601087
p269
aVMAR 31, 2007
p270
aVLAC @ POR
p271
aVW
p272
aI8
aI0
aI1
aF0.0
aI0
aI0
aF0.0
aI0
aI0
aF0.0
aI0
aI1
aI1
aI0
aI0
aI0
aI1
aI1
aI0
aI-6
aa(lp273
V0020601118
p274
aVAPR 04, 2007
p275
aVLAC vs. LAL
p276
aVW
p277
aI9
aI0
aI2
aF0.0
aI0
aI0
aF0.0
aI0
aI0
aF0.0
aI0
aI1
aI1
aI0
aI0
aI0
aI1
aI0
aI0
aI2
aa(lp278
V0020601142
p279
aVAPR 07, 2007
p280
aVLAC vs. DEN
p281
aVL
p282
aI10
aI0
aI2
aF0.0
aI0
aI0
aF0.0
aI0
aI0
aF0.0
aI0
aI0
aI0
aI2
aI2
aI0
aI0
aI0
aI0
aI-1
aa(lp283
V0020601153
p284
aVAPR 09, 2007
p285
aVLAC @ DAL
p286
aVL
p287
aI11
aI1
aI3
aF0.333
aI0
aI0
aF0.0
aI0
aI0
aF0.0
aI0
aI0
aI0
aI1
aI0
aI0
aI1
aI0
aI2
aI-3
aa(lp288
V0020601162
p289
aVAPR 10, 2007
p290
aVLAC @ NOK
p291
aVL
p292
aI7
aI0
aI2
aF0.0
aI0
aI1
aF0.0
aI0
aI0
aF0.0
aI0
aI2
aI2
aI0
aI0
aI0
aI0
aI0
aI0
aI12
aa(lp293
V0020601186
p294
aVAPR 13, 2007
p295
aVLAC vs. POR
p296
aVW
p297
aI3
aI0
aI0
aF0.0
aI0
aI0
aF0.0
aI0
aI0
aF0.0
aI0
aI0
aI0
aI0
aI1
aI0
aI1
aI0
aI0
aI-3
aa(lp298
V0020601215
p299
aVAPR 17, 2007
p300
aVLAC @ PHX
p301
aVW
p302
aI4
aI0
aI0
aF0.0
aI0
aI0
aF0.0
aI0
aI0
aF0.0
aI0
aI0
aI0
aI0
aI0
aI0
aI0
aI0
aI0
aI2
aa(lp303
V0020601230
p304
aVAPR 18, 2007
p305
aVLAC vs. NOK
p306
aVL
p307
aI7
aI1
aI1
aF1.0
aI0
aI0
aF0.0
aI0
aI0
aF0.0
aI0
aI1
aI1
aI1
aI0
aI0
aI1
aI0
aI2
aI-1
aasS'name'
p308
VDaniel Ewing
p309
sS'weight'
p310
V185
p311
sS'age'
p312
I23
sS'experience'
p313
I1
sS'height'
p314
V6-3
p315
sS'position'
p316
VGuard
p317
s.