(dp0
S'age'
p1
I20
sS'stats'
p2
(lp3
(lp4
V0020600284
p5
aVDEC 08, 2006
p6
aVATL @ LAL
p7
aVL
p8
aI22
aI2
aI9
aF0.222
aI1
aI2
aF0.5
aI4
aI6
aF0.667
aI1
aI1
aI2
aI1
aI1
aI0
aI2
aI5
aI9
aI-13
aa(lp9
V0020600297
p10
aVDEC 10, 2006
p11
aVATL @ SAC
p12
aVL
p13
aI23
aI1
aI8
aF0.125
aI1
aI1
aF1.0
aI0
aI0
aF0.0
aI1
aI2
aI3
aI3
aI0
aI0
aI2
aI5
aI3
aI-14
aa(lp14
V0020600309
p15
aVDEC 12, 2006
p16
aVATL vs. DEN
p17
aVL
p18
aI30
aI5
aI10
aF0.5
aI0
aI2
aF0.0
aI0
aI1
aF0.0
aI0
aI2
aI2
aI0
aI2
aI1
aI1
aI2
aI10
aI-15
aa(lp19
V0020600320
p20
aVDEC 13, 2006
p21
aVATL @ NYK
p22
aVL
p23
aI38
aI5
aI13
aF0.385
aI0
aI3
aF0.0
aI13
aI15
aF0.867
aI3
aI4
aI7
aI2
aI1
aI0
aI3
aI5
aI23
aI-4
aa(lp24
V0020600334
p25
aVDEC 15, 2006
p26
aVATL @ MEM
p27
aVW
p28
aI33
aI5
aI10
aF0.5
aI0
aI0
aF0.0
aI3
aI4
aF0.75
aI2
aI4
aI6
aI0
aI1
aI0
aI3
aI5
aI13
aI8
aa(lp29
V0020600342
p30
aVDEC 16, 2006
p31
aVATL vs. CHI
p32
aVL
p33
aI43
aI9
aI15
aF0.6
aI2
aI3
aF0.667
aI3
aI4
aF0.75
aI2
aI5
aI7
aI0
aI0
aI2
aI2
aI3
aI23
aI-1
aa(lp34
V0020600365
p35
aVDEC 20, 2006
p36
aVATL vs. UTA
p37
aVL
p38
aI39
aI2
aI11
aF0.182
aI0
aI2
aF0.0
aI5
aI6
aF0.833
aI1
aI0
aI1
aI2
aI3
aI1
aI4
aI4
aI9
aI-4
aa(lp39
V0020600383
p40
aVDEC 22, 2006
p41
aVATL vs. IND
p42
aVL
p43
aI39
aI7
aI11
aF0.636
aI0
aI1
aF0.0
aI4
aI5
aF0.8
aI1
aI3
aI4
aI3
aI0
aI1
aI2
aI1
aI18
aI-3
aa(lp44
V0020600395
p45
aVDEC 23, 2006
p46
aVATL @ DET
p47
aVL
p48
aI29
aI7
aI15
aF0.467
aI0
aI0
aF0.0
aI5
aI7
aF0.714
aI2
aI1
aI3
aI1
aI0
aI1
aI4
aI5
aI19
aI-11
aa(lp49
V0020600417
p50
aVDEC 27, 2006
p51
aVATL vs. CLE
p52
aVL
p53
aI13
aI2
aI5
aF0.4
aI1
aI4
aF0.25
aI0
aI0
aF0.0
aI2
aI2
aI4
aI1
aI0
aI0
aI4
aI5
aI5
aI-9
aa(lp54
V0020600437
p55
aVDEC 29, 2006
p56
aVATL @ HOU
p57
aVL
p58
aI33
aI0
aI5
aF0.0
aI0
aI0
aF0.0
aI4
aI5
aF0.8
aI1
aI3
aI4
aI2
aI1
aI0
aI2
aI4
aI4
aI-11
aa(lp59
V0020600451
p60
aVDEC 31, 2006
p61
aVATL @ SAS
p62
aVL
p63
aI37
aI4
aI12
aF0.333
aI1
aI3
aF0.333
aI4
aI4
aF1.0
aI2
aI5
aI7
aI1
aI2
aI0
aI3
aI4
aI13
aI-6
aa(lp64
V0020600479
p65
aVJAN 05, 2007
p66
aVATL @ TOR
p67
aVL
p68
aI38
aI9
aI15
aF0.6
aI0
aI3
aF0.0
aI6
aI7
aF0.857
aI1
aI4
aI5
aI1
aI0
aI1
aI2
aI1
aI24
aI-2
aa(lp69
V0020600491
p70
aVJAN 06, 2007
p71
aVATL vs. LAC
p72
aVW
p73
aI32
aI2
aI7
aF0.286
aI1
aI1
aF1.0
aI3
aI4
aF0.75
aI2
aI3
aI5
aI2
aI0
aI0
aI1
aI1
aI8
aI10
aa(lp74
V0020600509
p75
aVJAN 09, 2007
p76
aVATL @ IND
p77
aVL
p78
aI24
aI3
aI12
aF0.25
aI0
aI2
aF0.0
aI0
aI0
aF0.0
aI2
aI2
aI4
aI1
aI1
aI0
aI2
aI4
aI6
aI-4
aa(lp79
V0020600517
p80
aVJAN 10, 2007
p81
aVATL vs. NOK
p82
aVL
p83
aI25
aI2
aI13
aF0.154
aI0
aI0
aF0.0
aI3
aI4
aF0.75
aI1
aI3
aI4
aI3
aI0
aI0
aI3
aI3
aI7
aI-18
aa(lp84
V0020600534
p85
aVJAN 12, 2007
p86
aVATL vs. DET
p87
aVW
p88
aI30
aI5
aI11
aF0.455
aI0
aI0
aF0.0
aI2
aI4
aF0.5
aI3
aI6
aI9
aI7
aI0
aI0
aI3
aI2
aI12
aI8
aa(lp89
V0020600558
p90
aVJAN 15, 2007
p91
aVATL vs. BOS
p92
aVW
p93
aI37
aI3
aI12
aF0.25
aI0
aI0
aF0.0
aI2
aI4
aF0.5
aI2
aI1
aI3
aI4
aI1
aI1
aI1
aI2
aI8
aI3
aa(lp94
V0020600574
p95
aVJAN 17, 2007
p96
aVATL @ MIN
p97
aVW
p98
aI30
aI1
aI8
aF0.125
aI0
aI0
aF0.0
aI5
aI6
aF0.833
aI2
aI8
aI10
aI5
aI0
aI0
aI1
aI1
aI7
aI8
aa(lp99
V0020600586
p100
aVJAN 19, 2007
p101
aVATL vs. CHA
p102
aVL
p103
aI33
aI3
aI11
aF0.273
aI0
aI2
aF0.0
aI2
aI2
aF1.0
aI1
aI3
aI4
aI4
aI0
aI0
aI0
aI1
aI8
aI-8
aa(lp104
V0020600593
p105
aVJAN 20, 2007
p106
aVATL @ CHA
p107
aVL
p108
aI39
aI9
aI16
aF0.563
aI0
aI0
aF0.0
aI2
aI2
aF1.0
aI3
aI2
aI5
aI1
aI1
aI0
aI0
aI1
aI20
aI-1
aa(lp109
V0020600618
p110
aVJAN 23, 2007
p111
aVATL @ CHI
p112
aVL
p113
aI41
aI9
aI12
aF0.75
aI0
aI0
aF0.0
aI4
aI4
aF1.0
aI0
aI4
aI4
aI2
aI1
aI0
aI5
aI2
aI22
aI-8
aa(lp114
V0020600625
p115
aVJAN 24, 2007
p116
aVATL @ BOS
p117
aVW
p118
aI32
aI3
aI10
aF0.3
aI0
aI0
aF0.0
aI0
aI0
aF0.0
aI1
aI3
aI4
aI1
aI0
aI0
aI1
aI2
aI6
aI-1
aa(lp119
V0020600636
p120
aVJAN 26, 2007
p121
aVATL @ ORL
p122
aVW
p123
aI23
aI1
aI3
aF0.333
aI0
aI0
aF0.0
aI0
aI0
aF0.0
aI1
aI4
aI5
aI1
aI1
aI0
aI1
aI3
aI2
aI20
aa(lp124
V0020600646
p125
aVJAN 27, 2007
p126
aVATL vs. PHI
p127
aVL
p128
aI36
aI6
aI12
aF0.5
aI0
aI0
aF0.0
aI6
aI8
aF0.75
aI2
aI2
aI4
aI2
aI3
aI0
aI1
aI2
aI18
aI-16
aa(lp129
V0020600661
p130
aVJAN 29, 2007
p131
aVATL vs. ORL
p132
aVW
p133
aI38
aI6
aI9
aF0.667
aI0
aI0
aF0.0
aI0
aI0
aF0.0
aI0
aI4
aI4
aI4
aI1
aI2
aI5
aI2
aI12
aI8
aa(lp134
V0020600676
p135
aVJAN 31, 2007
p136
aVATL vs. GSW
p137
aVW
p138
aI32
aI7
aI10
aF0.7
aI1
aI3
aF0.333
aI2
aI2
aF1.0
aI0
aI4
aI4
aI2
aI2
aI1
aI0
aI3
aI17
aI17
aa(lp139
V0020600693
p140
aVFEB 02, 2007
p141
aVATL vs. TOR
p142
aVL
p143
aI42
aI5
aI12
aF0.417
aI0
aI0
aF0.0
aI1
aI1
aF1.0
aI0
aI5
aI5
aI1
aI1
aI0
aI3
aI3
aI11
aI-4
aa(lp144
V0020600710
p145
aVFEB 04, 2007
p146
aVATL @ NJN
p147
aVW
p148
aI32
aI6
aI10
aF0.6
aI0
aI1
aF0.0
aI0
aI0
aF0.0
aI1
aI3
aI4
aI1
aI0
aI1
aI0
aI2
aI12
aI5
aa(lp149
V0020600714
p150
aVFEB 05, 2007
p151
aVATL vs. LAL
p152
aVL
p153
aI21
aI0
aI6
aF0.0
aI0
aI0
aF0.0
aI0
aI0
aF0.0
aI1
aI4
aI5
aI1
aI0
aI0
aI2
aI3
aI0
aI-4
aa(lp154
V0020600728
p155
aVFEB 07, 2007
p156
aVATL vs. NJN
p157
aVL
p158
aI39
aI3
aI13
aF0.231
aI0
aI0
aF0.0
aI13
aI13
aF1.0
aI4
aI5
aI9
aI1
aI2
aI1
aI1
aI0
aI19
aI-15
aa(lp159
V0020600747
p160
aVFEB 09, 2007
p161
aVATL @ PHX
p162
aVW
p163
aI35
aI3
aI6
aF0.5
aI0
aI0
aF0.0
aI10
aI10
aF1.0
aI0
aI7
aI7
aI1
aI2
aI0
aI2
aI0
aI16
aI4
aa(lp164
V0020600763
p165
aVFEB 11, 2007
p166
aVATL @ GSW
p167
aVW
p168
aI26
aI4
aI9
aF0.444
aI0
aI0
aF0.0
aI1
aI2
aF0.5
aI1
aI5
aI6
aI0
aI2
aI2
aI2
aI4
aI9
aI-8
aa(lp169
V0020600767
p170
aVFEB 12, 2007
p171
aVATL @ UTA
p172
aVL
p173
aI33
aI6
aI12
aF0.5
aI0
aI0
aF0.0
aI3
aI4
aF0.75
aI0
aI1
aI1
aI2
aI0
aI1
aI1
aI3
aI15
aI-16
aa(lp174
V0020600786
p175
aVFEB 14, 2007
p176
aVATL @ LAC
p177
aVW
p178
aI43
aI3
aI9
aF0.333
aI0
aI0
aF0.0
aI4
aI4
aF1.0
aI0
aI1
aI1
aI3
aI0
aI1
aI1
aI1
aI10
aI2
aa(lp179
V0020600795
p180
aVFEB 20, 2007
p181
aVATL @ CHI
p182
aVL
p183
aI28
aI4
aI10
aF0.4
aI0
aI0
aF0.0
aI4
aI4
aF1.0
aI0
aI6
aI6
aI3
aI1
aI0
aI2
aI4
aI12
aI-19
aa(lp184
V0020600802
p185
aVFEB 21, 2007
p186
aVATL vs. SAS
p187
aVL
p188
aI35
aI5
aI12
aF0.417
aI0
aI0
aF0.0
aI6
aI10
aF0.6
aI3
aI3
aI6
aI3
aI1
aI1
aI1
aI5
aI16
aI-14
aa(lp189
V0020600819
p190
aVFEB 23, 2007
p191
aVATL vs. HOU
p192
aVW
p193
aI32
aI6
aI11
aF0.545
aI0
aI0
aF0.0
aI8
aI10
aF0.8
aI0
aI3
aI3
aI3
aI1
aI0
aI1
aI3
aI20
aI7
aa(lp194
V0020600833
p195
aVFEB 25, 2007
p196
aVATL vs. PHX
p197
aVL
p198
aI39
aI10
aI15
aF0.667
aI0
aI0
aF0.0
aI3
aI3
aF1.0
aI1
aI9
aI10
aI1
aI0
aI0
aI2
aI4
aI23
aI-13
aa(lp199
V0020600846
p200
aVFEB 26, 2007
p201
aVATL @ DAL
p202
aVL
p203
aI34
aI4
aI8
aF0.5
aI0
aI0
aF0.0
aI3
aI4
aF0.75
aI0
aI3
aI3
aI0
aI2
aI0
aI1
aI3
aI11
aI-18
aa(lp204
V0020600859
p205
aVFEB 28, 2007
p206
aVATL @ NOK
p207
aVL
p208
aI26
aI6
aI9
aF0.667
aI0
aI0
aF0.0
aI0
aI0
aF0.0
aI0
aI8
aI8
aI1
aI0
aI1
aI0
aI6
aI12
aI9
aa(lp209
V0020600870
p210
aVMAR 02, 2007
p211
aVATL @ WAS
p212
aVL
p213
aI38
aI7
aI14
aF0.5
aI1
aI1
aF1.0
aI6
aI6
aF1.0
aI3
aI3
aI6
aI1
aI1
aI0
aI2
aI3
aI21
aI8
aa(lp214
V0020600880
p215
aVMAR 03, 2007
p216
aVATL vs. NYK
p217
aVL
p218
aI29
aI5
aI11
aF0.455
aI0
aI1
aF0.0
aI4
aI6
aF0.667
aI1
aI1
aI2
aI0
aI0
aI0
aI1
aI5
aI14
aI3
aa(lp219
V0020600896
p220
aVMAR 05, 2007
p221
aVATL @ MIA
p222
aVL
p223
aI13
aI1
aI5
aF0.2
aI0
aI0
aF0.0
aI2
aI2
aF1.0
aI0
aI1
aI1
aI0
aI0
aI0
aI0
aI0
aI4
aI1
aa(lp224
V0020600921
p225
aVMAR 09, 2007
p226
aVATL vs. MEM
p227
aVW
p228
aI36
aI7
aI17
aF0.412
aI0
aI0
aF0.0
aI3
aI3
aF1.0
aI1
aI2
aI3
aI2
aI2
aI1
aI4
aI6
aI17
aI-9
aa(lp229
V0020600929
p230
aVMAR 10, 2007
p231
aVATL vs. MIN
p232
aVW
p233
aI39
aI4
aI10
aF0.4
aI0
aI0
aF0.0
aI3
aI3
aF1.0
aI2
aI4
aI6
aI5
aI2
aI1
aI2
aI0
aI11
aI15
aa(lp234
V0020600948
p235
aVMAR 13, 2007
p236
aVATL vs. PHI
p237
aVW
p238
aI38
aI5
aI9
aF0.556
aI1
aI1
aF1.0
aI3
aI4
aF0.75
aI0
aI5
aI5
aI2
aI0
aI0
aI3
aI3
aI14
aI26
aa(lp239
V0020600962
p240
aVMAR 14, 2007
p241
aVATL @ BOS
p242
aVL
p243
aI38
aI5
aI9
aF0.556
aI1
aI2
aF0.5
aI6
aI6
aF1.0
aI1
aI7
aI8
aI2
aI1
aI0
aI3
aI3
aI17
aI-7
aa(lp244
V0020600981
p245
aVMAR 17, 2007
p246
aVATL @ IND
p247
aVL
p248
aI42
aI4
aI9
aF0.444
aI0
aI2
aF0.0
aI4
aI4
aF1.0
aI0
aI2
aI2
aI3
aI1
aI0
aI2
aI2
aI12
aI-21
aa(lp249
V0020600995
p250
aVMAR 19, 2007
p251
aVATL vs. SAC
p252
aVW
p253
aI30
aI6
aI13
aF0.462
aI0
aI2
aF0.0
aI1
aI1
aF1.0
aI3
aI8
aI11
aI2
aI1
aI1
aI0
aI5
aI13
aI25
aa(lp254
V0020601008
p255
aVMAR 21, 2007
p256
aVATL vs. MIA
p257
aVL
p258
aI38
aI7
aI15
aF0.467
aI0
aI0
aF0.0
aI2
aI4
aF0.5
aI5
aI7
aI12
aI2
aI1
aI0
aI3
aI2
aI16
aI-10
aa(lp259
V0020601025
p260
aVMAR 23, 2007
p261
aVATL vs. POR
p262
aVL
p263
aI18
aI0
aI4
aF0.0
aI0
aI0
aF0.0
aI2
aI2
aF1.0
aI0
aI2
aI2
aI1
aI0
aI0
aI1
aI3
aI2
aI-2
aa(lp264
V0020601036
p265
aVMAR 25, 2007
p266
aVATL vs. DAL
p267
aVL
p268
aI36
aI3
aI9
aF0.333
aI0
aI0
aF0.0
aI3
aI3
aF1.0
aI0
aI7
aI7
aI2
aI1
aI0
aI2
aI3
aI9
aI-4
aa(lp269
V0020601047
p270
aVMAR 26, 2007
p271
aVATL @ MIA
p272
aVL
p273
aI34
aI6
aI11
aF0.545
aI0
aI0
aF0.0
aI2
aI2
aF1.0
aI1
aI7
aI8
aI1
aI0
aI1
aI2
aI2
aI14
aI-16
aa(lp274
V0020601060
p275
aVMAR 28, 2007
p276
aVATL @ CHA
p277
aVL
p278
aI36
aI4
aI14
aF0.286
aI0
aI1
aF0.0
aI4
aI6
aF0.667
aI3
aI7
aI10
aI1
aI0
aI1
aI2
aI4
aI12
aI-11
aa(lp279
V0020601089
p280
aVAPR 01, 2007
p281
aVATL vs. CHI
p282
aVL
p283
aI39
aI6
aI14
aF0.429
aI0
aI0
aF0.0
aI4
aI4
aF1.0
aI2
aI6
aI8
aI1
aI0
aI0
aI2
aI3
aI16
aI-22
aa(lp284
V0020601110
p285
aVAPR 04, 2007
p286
aVATL @ NJN
p287
aVL
p288
aI40
aI2
aI10
aF0.2
aI0
aI0
aF0.0
aI3
aI5
aF0.6
aI3
aI3
aI6
aI1
aI0
aI1
aI1
aI3
aI7
aI-12
aa(lp289
V0020601125
p290
aVAPR 06, 2007
p291
aVATL vs. MIL
p292
aVW
p293
aI27
aI3
aI10
aF0.3
aI0
aI0
aF0.0
aI4
aI5
aF0.8
aI1
aI2
aI3
aI5
aI1
aI1
aI2
aI4
aI10
aI-5
aa(lp294
V0020601147
p295
aVAPR 08, 2007
p296
aVATL @ PHI
p297
aVL
p298
aI51
aI8
aI18
aF0.444
aI0
aI2
aF0.0
aI5
aI7
aF0.714
aI2
aI7
aI9
aI4
aI1
aI0
aI1
aI4
aI21
aI-1
aa(lp299
V0020601160
p300
aVAPR 10, 2007
p301
aVATL vs. BOS
p302
aVW
p303
aI45
aI8
aI14
aF0.571
aI0
aI0
aF0.0
aI5
aI7
aF0.714
aI0
aI5
aI5
aI1
aI2
aI1
aI4
aI4
aI21
aI11
aa(lp304
V0020601178
p305
aVAPR 13, 2007
p306
aVATL vs. WAS
p307
aVL
p308
aI46
aI11
aI20
aF0.55
aI0
aI0
aF0.0
aI2
aI5
aF0.4
aI2
aI5
aI7
aI2
aI1
aI0
aI5
aI0
aI24
aI-7
aa(lp309
V0020601188
p310
aVAPR 14, 2007
p311
aVATL @ CLE
p312
aVL
p313
aI41
aI3
aI15
aF0.2
aI0
aI0
aF0.0
aI2
aI2
aF1.0
aI0
aI2
aI2
aI1
aI0
aI1
aI4
aI3
aI8
aI-27
aa(lp314
V0020601205
p315
aVAPR 16, 2007
p316
aVATL @ MIL
p317
aVL
p318
aI38
aI8
aI13
aF0.615
aI0
aI0
aF0.0
aI5
aI6
aF0.833
aI1
aI8
aI9
aI2
aI1
aI1
aI1
aI5
aI21
aI-2
aa(lp319
V0020601213
p320
aVAPR 17, 2007
p321
aVATL vs. IND
p322
aVW
p323
aI38
aI10
aI15
aF0.667
aI0
aI0
aF0.0
aI3
aI3
aF1.0
aI3
aI4
aI7
aI3
aI2
aI1
aI3
aI5
aI23
aI25
aasS'name'
p324
VMarvin Williams
p325
sS'experience'
p326
I1
s.