(dp0
S'age'
p1
I24
sS'stats'
p2
(lp3
(lp4
V0020600010
p5
aVNOV 01, 2006
p6
aVMEM vs. NYK
p7
aVL
p8
aI20
aI2
aI5
aF0.4
aI0
aI0
aF0.0
aI0
aI0
aF0.0
aI1
aI2
aI3
aI0
aI0
aI1
aI1
aI1
aI4
aI-10
aa(lp9
V0020600024
p10
aVNOV 03, 2006
p11
aVMEM vs. CHA
p12
aVW
p13
aI24
aI4
aI8
aF0.5
aI0
aI0
aF0.0
aI1
aI2
aF0.5
aI3
aI8
aI11
aI2
aI3
aI2
aI0
aI2
aI9
aI7
aa(lp14
V0020600034
p15
aVNOV 04, 2006
p16
aVMEM @ DET
p17
aVL
p18
aI21
aI1
aI4
aF0.25
aI0
aI0
aF0.0
aI2
aI4
aF0.5
aI2
aI5
aI7
aI0
aI0
aI0
aI1
aI2
aI4
aI-2
aa(lp19
V0020600055
p20
aVNOV 07, 2006
p21
aVMEM vs. HOU
p22
aVL
p23
aI17
aI1
aI3
aF0.333
aI0
aI0
aF0.0
aI0
aI0
aF0.0
aI5
aI3
aI8
aI1
aI0
aI0
aI3
aI5
aI2
aI9
aa(lp24
V0020600088
p25
aVNOV 11, 2006
p26
aVMEM @ PHX
p27
aVL
p28
aI25
aI3
aI5
aF0.6
aI0
aI0
aF0.0
aI4
aI4
aF1.0
aI2
aI6
aI8
aI1
aI2
aI1
aI1
aI3
aI10
aI-10
aa(lp29
V0020600096
p30
aVNOV 12, 2006
p31
aVMEM @ LAL
p32
aVL
p33
aI16
aI0
aI0
aF0.0
aI0
aI0
aF0.0
aI5
aI6
aF0.833
aI1
aI5
aI6
aI1
aI1
aI2
aI2
aI1
aI5
aI1
aa(lp34
V0020600115
p35
aVNOV 15, 2006
p36
aVMEM @ SAC
p37
aVL
p38
aI20
aI3
aI7
aF0.429
aI0
aI0
aF0.0
aI2
aI3
aF0.667
aI3
aI5
aI8
aI1
aI1
aI1
aI0
aI1
aI8
aI3
aa(lp39
V0020600124
p40
aVNOV 17, 2006
p41
aVMEM vs. DAL
p42
aVL
p43
aI20
aI2
aI6
aF0.333
aI0
aI0
aF0.0
aI4
aI7
aF0.571
aI3
aI3
aI6
aI1
aI0
aI1
aI0
aI3
aI8
aI-7
aa(lp44
V0020600137
p45
aVNOV 18, 2006
p46
aVMEM @ DAL
p47
aVL
p48
aI28
aI2
aI5
aF0.4
aI0
aI0
aF0.0
aI7
aI9
aF0.778
aI3
aI2
aI5
aI1
aI2
aI0
aI0
aI3
aI11
aI-6
aa(lp49
V0020600146
p50
aVNOV 20, 2006
p51
aVMEM vs. ORL
p52
aVW
p53
aI10
aI1
aI3
aF0.333
aI0
aI0
aF0.0
aI1
aI1
aF1.0
aI0
aI1
aI1
aI0
aI0
aI0
aI0
aI3
aI3
aI-4
aa(lp54
V0020600152
p55
aVNOV 21, 2006
p56
aVMEM @ CLE
p57
aVL
p58
aI20
aI1
aI1
aF1.0
aI0
aI0
aF0.0
aI4
aI4
aF1.0
aI1
aI4
aI5
aI0
aI0
aI0
aI0
aI1
aI6
aI14
aa(lp59
V0020600177
p60
aVNOV 24, 2006
p61
aVMEM vs. WAS
p62
aVW
p63
aI19
aI1
aI2
aF0.5
aI0
aI0
aF0.0
aI4
aI4
aF1.0
aI0
aI3
aI3
aI1
aI0
aI0
aI1
aI3
aI6
aI12
aa(lp64
V0020600190
p65
aVNOV 25, 2006
p66
aVMEM @ HOU
p67
aVL
p68
aI5
aI1
aI3
aF0.333
aI0
aI0
aF0.0
aI1
aI2
aF0.5
aI2
aI5
aI7
aI0
aI1
aI0
aI1
aI1
aI3
aI-9
aa(lp69
V0020600209
p70
aVNOV 28, 2006
p71
aVMEM @ DEN
p72
aVW
p73
aI26
aI8
aI11
aF0.727
aI0
aI0
aF0.0
aI0
aI1
aF0.0
aI3
aI3
aI6
aI1
aI1
aI0
aI1
aI3
aI16
aI16
aa(lp74
V0020600220
p75
aVNOV 29, 2006
p76
aVMEM @ LAC
p77
aVL
p78
aI22
aI1
aI3
aF0.333
aI0
aI0
aF0.0
aI2
aI4
aF0.5
aI2
aI6
aI8
aI1
aI2
aI0
aI1
aI4
aI4
aI-12
aa(lp79
V0020600236
p80
aVDEC 02, 2006
p81
aVMEM vs. MIA
p82
aVL
p83
aI23
aI0
aI2
aF0.0
aI0
aI0
aF0.0
aI0
aI0
aF0.0
aI0
aI4
aI4
aI1
aI1
aI0
aI0
aI3
aI0
aI7
aa(lp84
V0020600249
p85
aVDEC 04, 2006
p86
aVMEM @ NYK
p87
aVL
p88
aI6
aI1
aI2
aF0.5
aI0
aI0
aF0.0
aI1
aI1
aF1.0
aI0
aI3
aI3
aI0
aI1
aI0
aI1
aI1
aI3
aI6
aa(lp89
V0020600264
p90
aVDEC 06, 2006
p91
aVMEM @ BOS
p92
aVW
p93
aI28
aI2
aI3
aF0.667
aI0
aI0
aF0.0
aI14
aI15
aF0.933
aI4
aI3
aI7
aI0
aI2
aI0
aI0
aI2
aI18
aI10
aa(lp94
V0020600535
p95
aVJAN 12, 2007
p96
aVMEM vs. MIN
p97
aVL
p98
aI21
aI3
aI3
aF1.0
aI0
aI0
aF0.0
aI0
aI2
aF0.0
aI1
aI1
aI2
aI0
aI0
aI0
aI0
aI2
aI6
aI-2
aa(lp99
V0020600546
p100
aVJAN 13, 2007
p101
aVMEM @ CHI
p102
aVL
p103
aI13
aI1
aI3
aF0.333
aI0
aI0
aF0.0
aI0
aI0
aF0.0
aI1
aI3
aI4
aI0
aI0
aI1
aI0
aI3
aI2
aI-20
aa(lp104
V0020600563
p105
aVJAN 15, 2007
p106
aVMEM vs. PHX
p107
aVL
p108
aI14
aI1
aI3
aF0.333
aI0
aI1
aF0.0
aI2
aI2
aF1.0
aI0
aI3
aI3
aI0
aI0
aI0
aI0
aI3
aI4
aI-6
aa(lp109
V0020600573
p110
aVJAN 17, 2007
p111
aVMEM vs. PHI
p112
aVW
p113
aI22
aI6
aI7
aF0.857
aI0
aI0
aF0.0
aI1
aI2
aF0.5
aI5
aI3
aI8
aI0
aI1
aI0
aI1
aI4
aI13
aI3
aa(lp114
V0020600592
p115
aVJAN 20, 2007
p116
aVMEM @ LAC
p117
aVL
p118
aI22
aI3
aI8
aF0.375
aI0
aI0
aF0.0
aI2
aI4
aF0.5
aI2
aI4
aI6
aI0
aI0
aI0
aI1
aI2
aI8
aI-15
aa(lp119
V0020600611
p120
aVJAN 22, 2007
p121
aVMEM @ DEN
p122
aVL
p123
aI5
aI2
aI2
aF1.0
aI0
aI0
aF0.0
aI0
aI0
aF0.0
aI1
aI0
aI1
aI0
aI0
aI0
aI1
aI2
aI4
aI5
aa(lp124
V0020600628
p125
aVJAN 24, 2007
p126
aVMEM @ UTA
p127
aVW
p128
aI13
aI1
aI4
aF0.25
aI0
aI0
aF0.0
aI4
aI4
aF1.0
aI3
aI2
aI5
aI1
aI0
aI1
aI0
aI6
aI6
aI-9
aa(lp129
V0020600640
p130
aVJAN 26, 2007
p131
aVMEM @ SAS
p132
aVL
p133
aI31
aI1
aI7
aF0.143
aI0
aI0
aF0.0
aI3
aI8
aF0.375
aI3
aI3
aI6
aI3
aI3
aI0
aI1
aI3
aI5
aI-7
aa(lp134
V0020600648
p135
aVJAN 27, 2007
p136
aVMEM vs. POR
p137
aVL
p138
aI24
aI2
aI6
aF0.333
aI0
aI0
aF0.0
aI2
aI3
aF0.667
aI1
aI4
aI5
aI0
aI1
aI0
aI3
aI3
aI6
aI0
aa(lp139
V0020600662
p140
aVJAN 29, 2007
p141
aVMEM vs. SAC
p142
aVW
p143
aI25
aI0
aI2
aF0.0
aI0
aI0
aF0.0
aI3
aI4
aF0.75
aI4
aI10
aI14
aI1
aI0
aI0
aI2
aI3
aI3
aI-5
aa(lp144
V0020600680
p145
aVJAN 31, 2007
p146
aVMEM vs. DAL
p147
aVL
p148
aI20
aI2
aI5
aF0.4
aI0
aI0
aF0.0
aI1
aI2
aF0.5
aI0
aI5
aI5
aI0
aI0
aI0
aI0
aI3
aI5
aI0
aa(lp149
V0020600702
p150
aVFEB 03, 2007
p151
aVMEM vs. IND
p152
aVL
p153
aI19
aI2
aI5
aF0.4
aI0
aI0
aF0.0
aI2
aI2
aF1.0
aI2
aI1
aI3
aI0
aI0
aI1
aI1
aI6
aI6
aI2
aa(lp154
V0020600723
p155
aVFEB 06, 2007
p156
aVMEM vs. HOU
p157
aVL
p158
aI27
aI4
aI6
aF0.667
aI0
aI0
aF0.0
aI2
aI2
aF1.0
aI3
aI5
aI8
aI1
aI1
aI0
aI0
aI2
aI10
aI-8
aa(lp159
V0020600733
p160
aVFEB 07, 2007
p161
aVMEM @ DAL
p162
aVL
p163
aI19
aI1
aI3
aF0.333
aI0
aI0
aF0.0
aI3
aI4
aF0.75
aI4
aI1
aI5
aI1
aI0
aI0
aI3
aI2
aI5
aI4
aa(lp164
V0020600745
p165
aVFEB 09, 2007
p166
aVMEM vs. MIN
p167
aVW
p168
aI21
aI4
aI6
aF0.667
aI0
aI0
aF0.0
aI1
aI1
aF1.0
aI3
aI1
aI4
aI1
aI2
aI0
aI2
aI5
aI9
aI-2
aa(lp169
V0020600751
p170
aVFEB 10, 2007
p171
aVMEM @ NOK
p172
aVL
p173
aI12
aI0
aI1
aF0.0
aI0
aI0
aF0.0
aI0
aI0
aF0.0
aI1
aI2
aI3
aI0
aI0
aI0
aI0
aI4
aI0
aI-11
aa(lp174
V0020600771
p175
aVFEB 13, 2007
p176
aVMEM vs. NOK
p177
aVW
p178
aI24
aI2
aI5
aF0.4
aI0
aI0
aF0.0
aI0
aI0
aF0.0
aI3
aI4
aI7
aI1
aI0
aI0
aI0
aI2
aI4
aI12
aa(lp179
V0020600779
p180
aVFEB 14, 2007
p181
aVMEM @ IND
p182
aVL
p183
aI21
aI1
aI4
aF0.25
aI0
aI0
aF0.0
aI0
aI0
aF0.0
aI3
aI2
aI5
aI2
aI1
aI0
aI1
aI2
aI2
aI4
aa(lp184
V0020600798
p185
aVFEB 20, 2007
p186
aVMEM @ SEA
p187
aVL
p188
aI18
aI3
aI6
aF0.5
aI0
aI0
aF0.0
aI0
aI1
aF0.0
aI4
aI2
aI6
aI1
aI1
aI0
aI1
aI3
aI6
aI-7
aa(lp189
V0020600810
p190
aVFEB 21, 2007
p191
aVMEM @ GSW
p192
aVL
p193
aI15
aI0
aI1
aF0.0
aI0
aI0
aF0.0
aI0
aI0
aF0.0
aI2
aI4
aI6
aI1
aI1
aI0
aI0
aI4
aI0
aI-5
aa(lp194
V0020600823
p195
aVFEB 23, 2007
p196
aVMEM @ POR
p197
aVW
p198
aI24
aI3
aI6
aF0.5
aI0
aI0
aF0.0
aI2
aI2
aF1.0
aI2
aI5
aI7
aI0
aI1
aI0
aI1
aI4
aI8
aI-12
aa(lp199
V0020600842
p200
aVFEB 26, 2007
p201
aVMEM vs. DEN
p202
aVL
p203
aI24
aI3
aI6
aF0.5
aI0
aI0
aF0.0
aI2
aI3
aF0.667
aI0
aI6
aI6
aI0
aI0
aI0
aI0
aI2
aI8
aI0
aa(lp204
V0020600858
p205
aVFEB 28, 2007
p206
aVMEM vs. UTA
p207
aVL
p208
aI24
aI2
aI2
aF1.0
aI0
aI0
aF0.0
aI0
aI0
aF0.0
aI3
aI6
aI9
aI2
aI3
aI0
aI1
aI2
aI4
aI11
aa(lp209
V0020600869
p210
aVMAR 02, 2007
p211
aVMEM @ PHI
p212
aVL
p213
aI26
aI0
aI3
aF0.0
aI0
aI0
aF0.0
aI1
aI2
aF0.5
aI2
aI0
aI2
aI2
aI1
aI0
aI0
aI2
aI1
aI-13
aa(lp214
V0020600882
p215
aVMAR 03, 2007
p216
aVMEM vs. DET
p217
aVL
p218
aI23
aI0
aI3
aF0.0
aI0
aI0
aF0.0
aI2
aI2
aF1.0
aI6
aI3
aI9
aI0
aI1
aI0
aI1
aI3
aI2
aI3
aa(lp219
V0020600907
p220
aVMAR 07, 2007
p221
aVMEM @ TOR
p222
aVL
p223
aI17
aI2
aI3
aF0.667
aI0
aI0
aF0.0
aI0
aI0
aF0.0
aI3
aI2
aI5
aI0
aI1
aI0
aI1
aI4
aI4
aI2
aa(lp224
V0020600921
p225
aVMAR 09, 2007
p226
aVMEM @ ATL
p227
aVL
p228
aI22
aI4
aI6
aF0.667
aI0
aI0
aF0.0
aI0
aI0
aF0.0
aI1
aI2
aI3
aI0
aI0
aI0
aI0
aI3
aI8
aI-9
aa(lp229
V0020600928
p230
aVMAR 10, 2007
p231
aVMEM @ CHA
p232
aVW
p233
aI3
aI1
aI1
aF1.0
aI0
aI0
aF0.0
aI1
aI1
aF1.0
aI0
aI0
aI0
aI0
aI0
aI0
aI0
aI1
aI3
aI1
aa(lp234
V0020600945
p235
aVMAR 12, 2007
p236
aVMEM vs. NJN
p237
aVL
p238
aI10
aI0
aI1
aF0.0
aI0
aI0
aF0.0
aI2
aI2
aF1.0
aI0
aI1
aI1
aI0
aI0
aI0
aI0
aI3
aI2
aI3
aa(lp239
V0020600963
p240
aVMAR 14, 2007
p241
aVMEM vs. CLE
p242
aVL
p243
aI9
aI1
aI2
aF0.5
aI0
aI0
aF0.0
aI2
aI2
aF1.0
aI1
aI1
aI2
aI1
aI0
aI0
aI0
aI0
aI4
aI13
aa(lp244
V0020600983
p245
aVMAR 17, 2007
p246
aVMEM vs. CHI
p247
aVW
p248
aI8
aI2
aI3
aF0.667
aI0
aI0
aF0.0
aI1
aI3
aF0.333
aI0
aI0
aI0
aI0
aI0
aI1
aI1
aI0
aI5
aI7
aa(lp249
V0020601001
p250
aVMAR 20, 2007
p251
aVMEM vs. NOK
p252
aVL
p253
aI7
aI0
aI3
aF0.0
aI0
aI1
aF0.0
aI0
aI0
aF0.0
aI0
aI1
aI1
aI0
aI0
aI1
aI0
aI0
aI0
aI1
aa(lp254
V0020601034
p255
aVMAR 24, 2007
p256
aVMEM @ UTA
p257
aVL
p258
aI7
aI0
aI0
aF0.0
aI0
aI0
aF0.0
aI0
aI0
aF0.0
aI0
aI0
aI0
aI0
aI0
aI0
aI0
aI2
aI0
aI-2
aa(lp259
V0020601070
p260
aVMAR 29, 2007
p261
aVMEM @ POR
p262
aVW
p263
aI2
aI0
aI1
aF0.0
aI0
aI0
aF0.0
aI2
aI2
aF1.0
aI0
aI0
aI0
aI0
aI0
aI0
aI0
aI0
aI2
aI-2
aa(lp264
V0020601134
p265
aVAPR 07, 2007
p266
aVMEM @ ORL
p267
aVL
p268
aI8
aI2
aI7
aF0.286
aI0
aI0
aF0.0
aI1
aI2
aF0.5
aI2
aI2
aI4
aI0
aI1
aI0
aI1
aI1
aI5
aI1
aa(lp269
V0020601161
p270
aVAPR 10, 2007
p271
aVMEM vs. SAC
p272
aVL
p273
aI5
aI1
aI1
aF1.0
aI0
aI0
aF0.0
aI1
aI2
aF0.5
aI0
aI0
aI0
aI0
aI0
aI0
aI0
aI0
aI3
aI3
aasS'name'
p274
VLawrence Roberts
p275
sS'experience'
p276
I1
s.