(dp0
S'age'
p1
I24
sS'stats'
p2
(lp3
(lp4
V0020601125
p5
aVAPR 06, 2007
p6
aVATL vs. MIL
p7
aVW
p8
aI31
aI7
aI15
aF0.467
aI7
aI11
aF0.636
aI0
aI0
aF0.0
aI0
aI1
aI1
aI1
aI1
aI1
aI1
aI4
aI21
aI21
aa(lp9
V0020601110
p10
aVAPR 04, 2007
p11
aVATL @ NJN
p12
aVL
p13
aI28
aI6
aI12
aF0.5
aI1
aI7
aF0.143
aI6
aI6
aF1.0
aI0
aI2
aI2
aI2
aI1
aI0
aI1
aI1
aI19
aI0
aa(lp14
V0020601089
p15
aVAPR 01, 2007
p16
aVATL vs. CHI
p17
aVL
p18
aI17
aI4
aI7
aF0.571
aI0
aI0
aF0.0
aI0
aI0
aF0.0
aI0
aI5
aI5
aI1
aI0
aI0
aI1
aI4
aI8
aI4
aa(lp19
V0020601060
p20
aVMAR 28, 2007
p21
aVATL @ CHA
p22
aVL
p23
aI24
aI5
aI11
aF0.455
aI1
aI2
aF0.5
aI1
aI1
aF1.0
aI0
aI2
aI2
aI1
aI3
aI0
aI3
aI5
aI12
aI4
aa(lp24
V0020601047
p25
aVMAR 26, 2007
p26
aVATL @ MIA
p27
aVL
p28
aI27
aI9
aI14
aF0.643
aI4
aI7
aF0.571
aI0
aI0
aF0.0
aI1
aI2
aI3
aI0
aI2
aI0
aI3
aI3
aI22
aI-4
aa(lp29
V0020601036
p30
aVMAR 25, 2007
p31
aVATL vs. DAL
p32
aVL
p33
aI17
aI0
aI3
aF0.0
aI0
aI0
aF0.0
aI1
aI2
aF0.5
aI0
aI2
aI2
aI2
aI0
aI0
aI2
aI0
aI1
aI1
aa(lp34
V0020601025
p35
aVMAR 23, 2007
p36
aVATL vs. POR
p37
aVL
p38
aI33
aI14
aI20
aF0.7
aI6
aI9
aF0.667
aI3
aI3
aF1.0
aI0
aI2
aI2
aI0
aI0
aI0
aI2
aI0
aI37
aI0
aa(lp39
V0020601008
p40
aVMAR 21, 2007
p41
aVATL vs. MIA
p42
aVL
p43
aI17
aI3
aI11
aF0.273
aI1
aI4
aF0.25
aI6
aI6
aF1.0
aI0
aI2
aI2
aI3
aI0
aI0
aI2
aI1
aI13
aI-7
aa(lp44
V0020600995
p45
aVMAR 19, 2007
p46
aVATL vs. SAC
p47
aVW
p48
aI25
aI6
aI11
aF0.545
aI1
aI3
aF0.333
aI0
aI0
aF0.0
aI0
aI0
aI0
aI4
aI2
aI0
aI1
aI3
aI13
aI-6
aa(lp49
V0020600981
p50
aVMAR 17, 2007
p51
aVATL @ IND
p52
aVL
p53
aI14
aI3
aI9
aF0.333
aI0
aI2
aF0.0
aI0
aI0
aF0.0
aI0
aI0
aI0
aI1
aI0
aI0
aI1
aI1
aI6
aI-1
aa(lp54
V0020600962
p55
aVMAR 14, 2007
p56
aVATL @ BOS
p57
aVL
p58
aI23
aI1
aI2
aF0.5
aI1
aI1
aF1.0
aI2
aI2
aF1.0
aI0
aI1
aI1
aI2
aI0
aI0
aI0
aI0
aI5
aI-4
aa(lp59
V0020600948
p60
aVMAR 13, 2007
p61
aVATL vs. PHI
p62
aVW
p63
aI19
aI4
aI9
aF0.444
aI0
aI2
aF0.0
aI1
aI2
aF0.5
aI0
aI0
aI0
aI0
aI0
aI0
aI1
aI4
aI9
aI-13
aa(lp64
V0020600929
p65
aVMAR 10, 2007
p66
aVATL vs. MIN
p67
aVW
p68
aI17
aI4
aI8
aF0.5
aI0
aI2
aF0.0
aI0
aI0
aF0.0
aI0
aI0
aI0
aI1
aI1
aI0
aI0
aI1
aI8
aI-6
aa(lp69
V0020600921
p70
aVMAR 09, 2007
p71
aVATL vs. MEM
p72
aVW
p73
aI7
aI2
aI3
aF0.667
aI1
aI1
aF1.0
aI0
aI0
aF0.0
aI0
aI2
aI2
aI2
aI1
aI0
aI1
aI0
aI5
aI10
aa(lp74
V0020600909
p75
aVMAR 07, 2007
p76
aVATL vs. WAS
p77
aVW
p78
aI32
aI4
aI9
aF0.444
aI0
aI4
aF0.0
aI5
aI6
aF0.833
aI0
aI5
aI5
aI4
aI0
aI0
aI1
aI2
aI13
aI11
aa(lp79
V0020600880
p80
aVMAR 03, 2007
p81
aVATL vs. NYK
p82
aVL
p83
aI0
aI0
aI1
aF0.0
aI0
aI1
aF0.0
aI0
aI0
aF0.0
aI0
aI0
aI0
aI0
aI0
aI0
aI0
aI0
aI0
aI0
aa(lp84
V0020600859
p85
aVFEB 28, 2007
p86
aVATL @ NOK
p87
aVL
p88
aI0
aI1
aI1
aF1.0
aI1
aI1
aF1.0
aI0
aI0
aF0.0
aI0
aI0
aI0
aI0
aI0
aI0
aI0
aI1
aI3
aI-1
aa(lp89
V0020600846
p90
aVFEB 26, 2007
p91
aVATL @ DAL
p92
aVL
p93
aI6
aI1
aI3
aF0.333
aI0
aI0
aF0.0
aI0
aI0
aF0.0
aI0
aI1
aI1
aI0
aI0
aI0
aI2
aI2
aI2
aI-4
aa(lp94
V0020600802
p95
aVFEB 21, 2007
p96
aVATL vs. SAS
p97
aVL
p98
aI10
aI1
aI1
aF1.0
aI0
aI0
aF0.0
aI2
aI2
aF1.0
aI0
aI2
aI2
aI1
aI0
aI0
aI1
aI1
aI4
aI7
aa(lp99
V0020600795
p100
aVFEB 20, 2007
p101
aVATL @ CHI
p102
aVL
p103
aI17
aI4
aI7
aF0.571
aI1
aI2
aF0.5
aI1
aI1
aF1.0
aI0
aI1
aI1
aI1
aI0
aI0
aI1
aI1
aI10
aI-2
aa(lp104
V0020600786
p105
aVFEB 14, 2007
p106
aVATL @ LAC
p107
aVW
p108
aI4
aI0
aI0
aF0.0
aI0
aI0
aF0.0
aI1
aI1
aF1.0
aI0
aI0
aI0
aI0
aI0
aI0
aI0
aI2
aI1
aI6
aa(lp109
V0020600767
p110
aVFEB 12, 2007
p111
aVATL @ UTA
p112
aVL
p113
aI12
aI0
aI5
aF0.0
aI0
aI0
aF0.0
aI2
aI2
aF1.0
aI0
aI1
aI1
aI0
aI0
aI0
aI0
aI1
aI2
aI-7
aa(lp114
V0020600763
p115
aVFEB 11, 2007
p116
aVATL @ GSW
p117
aVW
p118
aI5
aI0
aI3
aF0.0
aI0
aI0
aF0.0
aI0
aI0
aF0.0
aI0
aI0
aI0
aI0
aI0
aI0
aI0
aI1
aI0
aI-9
aa(lp119
V0020600747
p120
aVFEB 09, 2007
p121
aVATL @ PHX
p122
aVW
p123
aI12
aI3
aI5
aF0.6
aI0
aI0
aF0.0
aI0
aI0
aF0.0
aI0
aI0
aI0
aI0
aI0
aI0
aI1
aI2
aI6
aI-1
aa(lp124
V0020600661
p125
aVJAN 29, 2007
p126
aVATL vs. ORL
p127
aVW
p128
aI0
aI0
aI0
aF0.0
aI0
aI0
aF0.0
aI0
aI0
aF0.0
aI0
aI0
aI0
aI0
aI0
aI0
aI0
aI0
aI0
aI2
aa(lp129
V0020600646
p130
aVJAN 27, 2007
p131
aVATL vs. PHI
p132
aVL
p133
aI2
aI1
aI1
aF1.0
aI1
aI1
aF1.0
aI0
aI0
aF0.0
aI0
aI0
aI0
aI0
aI0
aI0
aI0
aI0
aI3
aI4
aa(lp134
V0020600636
p135
aVJAN 26, 2007
p136
aVATL @ ORL
p137
aVW
p138
aI3
aI0
aI2
aF0.0
aI0
aI0
aF0.0
aI0
aI0
aF0.0
aI0
aI0
aI0
aI0
aI0
aI0
aI0
aI0
aI0
aI-10
aa(lp139
V0020600625
p140
aVJAN 24, 2007
p141
aVATL @ BOS
p142
aVW
p143
aI3
aI2
aI3
aF0.667
aI0
aI1
aF0.0
aI0
aI0
aF0.0
aI0
aI0
aI0
aI0
aI0
aI0
aI0
aI0
aI4
aI3
aa(lp144
V0020600618
p145
aVJAN 23, 2007
p146
aVATL @ CHI
p147
aVL
p148
aI0
aI0
aI0
aF0.0
aI0
aI0
aF0.0
aI0
aI0
aF0.0
aI0
aI0
aI0
aI0
aI0
aI0
aI0
aI0
aI0
aI4
aa(lp149
V0020600586
p150
aVJAN 19, 2007
p151
aVATL vs. CHA
p152
aVL
p153
aI15
aI1
aI5
aF0.2
aI0
aI0
aF0.0
aI0
aI0
aF0.0
aI0
aI2
aI2
aI0
aI0
aI0
aI0
aI5
aI2
aI-5
aa(lp154
V0020600574
p155
aVJAN 17, 2007
p156
aVATL @ MIN
p157
aVW
p158
aI16
aI3
aI6
aF0.5
aI0
aI0
aF0.0
aI0
aI0
aF0.0
aI0
aI2
aI2
aI5
aI1
aI0
aI1
aI0
aI6
aI2
aa(lp159
V0020600558
p160
aVJAN 15, 2007
p161
aVATL vs. BOS
p162
aVW
p163
aI17
aI4
aI12
aF0.333
aI0
aI3
aF0.0
aI0
aI0
aF0.0
aI0
aI1
aI1
aI1
aI0
aI0
aI0
aI1
aI8
aI-6
aa(lp164
V0020600534
p165
aVJAN 12, 2007
p166
aVATL vs. DET
p167
aVW
p168
aI24
aI3
aI11
aF0.273
aI2
aI7
aF0.286
aI0
aI0
aF0.0
aI1
aI1
aI2
aI3
aI0
aI0
aI1
aI0
aI8
aI4
aa(lp169
V0020600517
p170
aVJAN 10, 2007
p171
aVATL vs. NOK
p172
aVL
p173
aI17
aI3
aI8
aF0.375
aI0
aI0
aF0.0
aI2
aI2
aF1.0
aI0
aI0
aI0
aI0
aI0
aI0
aI0
aI1
aI8
aI-15
aa(lp174
V0020600509
p175
aVJAN 09, 2007
p176
aVATL @ IND
p177
aVL
p178
aI10
aI1
aI4
aF0.25
aI0
aI1
aF0.0
aI0
aI0
aF0.0
aI0
aI0
aI0
aI1
aI1
aI0
aI0
aI1
aI2
aI-7
aa(lp179
V0020600491
p180
aVJAN 06, 2007
p181
aVATL vs. LAC
p182
aVW
p183
aI9
aI2
aI6
aF0.333
aI0
aI0
aF0.0
aI0
aI0
aF0.0
aI0
aI0
aI0
aI0
aI0
aI0
aI0
aI2
aI4
aI-9
aa(lp184
V0020600451
p185
aVDEC 31, 2006
p186
aVATL @ SAS
p187
aVL
p188
aI15
aI3
aI9
aF0.333
aI0
aI2
aF0.0
aI1
aI2
aF0.5
aI0
aI0
aI0
aI0
aI0
aI0
aI1
aI1
aI7
aI-11
aa(lp189
V0020600437
p190
aVDEC 29, 2006
p191
aVATL @ HOU
p192
aVL
p193
aI24
aI4
aI13
aF0.308
aI0
aI6
aF0.0
aI0
aI0
aF0.0
aI0
aI2
aI2
aI1
aI0
aI0
aI1
aI1
aI8
aI-11
aa(lp194
V0020600417
p195
aVDEC 27, 2006
p196
aVATL vs. CLE
p197
aVL
p198
aI14
aI1
aI5
aF0.2
aI0
aI3
aF0.0
aI0
aI0
aF0.0
aI0
aI1
aI1
aI0
aI0
aI0
aI1
aI0
aI2
aI-3
aa(lp199
V0020600395
p200
aVDEC 23, 2006
p201
aVATL @ DET
p202
aVL
p203
aI37
aI4
aI12
aF0.333
aI0
aI1
aF0.0
aI2
aI3
aF0.667
aI0
aI1
aI1
aI3
aI0
aI0
aI3
aI1
aI10
aI-17
aa(lp204
V0020600383
p205
aVDEC 22, 2006
p206
aVATL vs. IND
p207
aVL
p208
aI29
aI5
aI10
aF0.5
aI1
aI4
aF0.25
aI2
aI2
aF1.0
aI0
aI1
aI1
aI2
aI0
aI0
aI3
aI3
aI13
aI-8
aa(lp209
V0020600365
p210
aVDEC 20, 2006
p211
aVATL vs. UTA
p212
aVL
p213
aI15
aI3
aI8
aF0.375
aI2
aI4
aF0.5
aI0
aI0
aF0.0
aI0
aI3
aI3
aI1
aI1
aI0
aI0
aI2
aI8
aI-3
aa(lp214
V0020600342
p215
aVDEC 16, 2006
p216
aVATL vs. CHI
p217
aVL
p218
aI23
aI3
aI11
aF0.273
aI1
aI6
aF0.167
aI0
aI0
aF0.0
aI0
aI1
aI1
aI1
aI1
aI0
aI2
aI2
aI7
aI1
aa(lp219
V0020600334
p220
aVDEC 15, 2006
p221
aVATL @ MEM
p222
aVW
p223
aI9
aI1
aI3
aF0.333
aI0
aI1
aF0.0
aI0
aI0
aF0.0
aI0
aI0
aI0
aI1
aI0
aI0
aI0
aI1
aI2
aI-5
aa(lp224
V0020600320
p225
aVDEC 13, 2006
p226
aVATL @ NYK
p227
aVL
p228
aI22
aI4
aI9
aF0.444
aI3
aI6
aF0.5
aI1
aI1
aF1.0
aI0
aI1
aI1
aI0
aI0
aI0
aI0
aI3
aI12
aI-17
aa(lp229
V0020600309
p230
aVDEC 12, 2006
p231
aVATL vs. DEN
p232
aVL
p233
aI21
aI4
aI12
aF0.333
aI1
aI2
aF0.5
aI4
aI5
aF0.8
aI0
aI1
aI1
aI1
aI0
aI0
aI3
aI1
aI13
aI-8
aa(lp234
V0020600297
p235
aVDEC 10, 2006
p236
aVATL @ SAC
p237
aVL
p238
aI54
aI10
aI17
aF0.588
aI3
aI7
aF0.429
aI3
aI3
aF1.0
aI1
aI1
aI2
aI3
aI0
aI0
aI3
aI2
aI26
aI-20
aa(lp239
V0020600284
p240
aVDEC 08, 2006
p241
aVATL @ LAL
p242
aVL
p243
aI10
aI0
aI3
aF0.0
aI0
aI3
aF0.0
aI0
aI0
aF0.0
aI1
aI0
aI1
aI0
aI1
aI0
aI1
aI0
aI0
aI-8
aa(lp244
V0020600269
p245
aVDEC 06, 2006
p246
aVATL @ DEN
p247
aVW
p248
aI36
aI7
aI15
aF0.467
aI3
aI5
aF0.6
aI4
aI4
aF1.0
aI0
aI2
aI2
aI2
aI0
aI1
aI2
aI2
aI21
aI9
aa(lp249
V0020600259
p250
aVDEC 05, 2006
p251
aVATL @ SEA
p252
aVL
p253
aI25
aI3
aI9
aF0.333
aI3
aI6
aF0.5
aI0
aI0
aF0.0
aI1
aI1
aI2
aI3
aI1
aI0
aI1
aI3
aI9
aI2
aa(lp254
V0020600246
p255
aVDEC 03, 2006
p256
aVATL @ POR
p257
aVW
p258
aI21
aI3
aI5
aF0.6
aI3
aI4
aF0.75
aI2
aI2
aF1.0
aI0
aI0
aI0
aI0
aI0
aI0
aI0
aI1
aI11
aI2
aa(lp259
V0020600226
p260
aVDEC 01, 2006
p261
aVATL vs. CLE
p262
aVL
p263
aI25
aI4
aI9
aF0.444
aI2
aI4
aF0.5
aI0
aI0
aF0.0
aI0
aI2
aI2
aI0
aI0
aI0
aI2
aI1
aI10
aI-2
aa(lp264
V0020600213
p265
aVNOV 29, 2006
p266
aVATL vs. CHA
p267
aVW
p268
aI23
aI0
aI4
aF0.0
aI0
aI2
aF0.0
aI0
aI0
aF0.0
aI0
aI2
aI2
aI1
aI0
aI0
aI0
aI1
aI0
aI0
aa(lp269
V0020600204
p270
aVNOV 28, 2006
p271
aVATL @ WAS
p272
aVL
p273
aI25
aI3
aI6
aF0.5
aI2
aI2
aF1.0
aI0
aI0
aF0.0
aI0
aI1
aI1
aI1
aI0
aI0
aI0
aI0
aI8
aI4
aa(lp274
V0020600186
p275
aVNOV 25, 2006
p276
aVATL @ ORL
p277
aVL
p278
aI27
aI3
aI10
aF0.3
aI1
aI3
aF0.333
aI7
aI8
aF0.875
aI1
aI2
aI3
aI1
aI0
aI0
aI2
aI5
aI14
aI-1
aa(lp279
V0020600173
p280
aVNOV 24, 2006
p281
aVATL vs. TOR
p282
aVW
p283
aI23
aI3
aI8
aF0.375
aI0
aI1
aF0.0
aI2
aI2
aF1.0
aI0
aI3
aI3
aI2
aI1
aI0
aI0
aI1
aI8
aI9
aa(lp284
V0020600161
p285
aVNOV 22, 2006
p286
aVATL @ DET
p287
aVL
p288
aI17
aI3
aI5
aF0.6
aI1
aI2
aF0.5
aI0
aI0
aF0.0
aI0
aI3
aI3
aI0
aI0
aI0
aI1
aI1
aI7
aI2
aa(lp289
V0020600130
p290
aVNOV 18, 2006
p291
aVATL vs. MIA
p292
aVL
p293
aI24
aI3
aI9
aF0.333
aI2
aI6
aF0.333
aI0
aI0
aF0.0
aI0
aI1
aI1
aI1
aI1
aI0
aI1
aI1
aI8
aI6
aa(lp294
V0020600100
p295
aVNOV 14, 2006
p296
aVATL vs. MIL
p297
aVL
p298
aI6
aI1
aI2
aF0.5
aI0
aI1
aF0.0
aI0
aI0
aF0.0
aI0
aI0
aI0
aI1
aI0
aI0
aI1
aI3
aI2
aI11
aa(lp299
V0020600052
p300
aVNOV 07, 2006
p301
aVATL @ CLE
p302
aVW
p303
aI0
aI0
aI0
aF0.0
aI0
aI0
aF0.0
aI0
aI0
aF0.0
aI0
aI0
aI0
aI0
aI0
aI0
aI0
aI0
aI0
aI2
aa(lp304
V0020600003
p305
aVNOV 01, 2006
p306
aVATL @ PHI
p307
aVL
p308
aI8
aI0
aI3
aF0.0
aI0
aI2
aF0.0
aI0
aI0
aF0.0
aI0
aI2
aI2
aI0
aI2
aI0
aI0
aI2
aI0
aI5
aasS'name'
p309
VSalim Stoudamire
p310
sS'experience'
p311
I1
s.