(dp0
S'stats'
p1
(lp2
(lp3
V0020600017
p4
aVNOV 02, 2006
p5
aVLAC vs. DEN
p6
aVW
p7
aI0
aI0
aI0
aF0.0
aI0
aI0
aF0.0
aI0
aI0
aF0.0
aI0
aI0
aI0
aI0
aI0
aI0
aI0
aI0
aI0
aI0
aa(lp8
V0020600067
p9
aVNOV 08, 2006
p10
aVLAC vs. DAL
p11
aVW
p12
aI7
aI0
aI1
aF0.0
aI0
aI0
aF0.0
aI2
aI2
aF1.0
aI1
aI2
aI3
aI0
aI0
aI1
aI0
aI1
aI2
aI3
aa(lp13
V0020600106
p14
aVNOV 14, 2006
p15
aVLAC @ UTA
p16
aVL
p17
aI4
aI0
aI0
aF0.0
aI0
aI0
aF0.0
aI1
aI2
aF0.5
aI0
aI1
aI1
aI0
aI0
aI0
aI1
aI0
aI1
aI-2
aa(lp18
V0020600196
p19
aVNOV 26, 2006
p20
aVLAC @ DEN
p21
aVL
p22
aI32
aI4
aI9
aF0.444
aI1
aI2
aF0.5
aI0
aI0
aF0.0
aI3
aI4
aI7
aI1
aI3
aI1
aI2
aI4
aI9
aI1
aa(lp23
V0020600210
p24
aVNOV 28, 2006
p25
aVLAC @ SAC
p26
aVL
p27
aI23
aI0
aI5
aF0.0
aI0
aI3
aF0.0
aI0
aI0
aF0.0
aI1
aI5
aI6
aI2
aI1
aI3
aI1
aI3
aI0
aI-5
aa(lp28
V0020600242
p29
aVDEC 02, 2006
p30
aVLAC vs. LAL
p31
aVL
p32
aI5
aI0
aI0
aF0.0
aI0
aI0
aF0.0
aI0
aI0
aF0.0
aI0
aI0
aI0
aI0
aI0
aI0
aI0
aI0
aI0
aI-2
aa(lp33
V0020600247
p34
aVDEC 03, 2006
p35
aVLAC vs. ORL
p36
aVW
p37
aI3
aI0
aI1
aF0.0
aI0
aI0
aF0.0
aI0
aI0
aF0.0
aI0
aI2
aI2
aI0
aI0
aI0
aI0
aI0
aI0
aI4
aa(lp38
V0020600279
p39
aVDEC 08, 2006
p40
aVLAC @ SAS
p41
aVL
p42
aI14
aI3
aI7
aF0.429
aI0
aI0
aF0.0
aI0
aI0
aF0.0
aI2
aI1
aI3
aI1
aI0
aI0
aI0
aI0
aI6
aI3
aa(lp43
V0020600308
p44
aVDEC 11, 2006
p45
aVLAC vs. SAS
p46
aVL
p47
aI20
aI4
aI9
aF0.444
aI0
aI0
aF0.0
aI2
aI4
aF0.5
aI3
aI3
aI6
aI0
aI1
aI0
aI2
aI2
aI10
aI-5
aa(lp48
V0020600325
p49
aVDEC 13, 2006
p50
aVLAC vs. UTA
p51
aVL
p52
aI9
aI1
aI1
aF1.0
aI0
aI0
aF0.0
aI0
aI0
aF0.0
aI0
aI2
aI2
aI0
aI0
aI0
aI0
aI1
aI2
aI-8
aa(lp53
V0020600375
p54
aVDEC 20, 2006
p55
aVLAC vs. TOR
p56
aVL
p57
aI1
aI0
aI0
aF0.0
aI0
aI0
aF0.0
aI0
aI0
aF0.0
aI0
aI0
aI0
aI0
aI0
aI0
aI0
aI0
aI0
aI-2
aa(lp58
V0020600388
p59
aVDEC 22, 2006
p60
aVLAC @ DAL
p61
aVL
p62
aI18
aI1
aI3
aF0.333
aI0
aI1
aF0.0
aI4
aI4
aF1.0
aI1
aI6
aI7
aI2
aI0
aI0
aI0
aI2
aI6
aI-1
aa(lp63
V0020600425
p64
aVDEC 27, 2006
p65
aVLAC vs. BOS
p66
aVW
p67
aI3
aI0
aI1
aF0.0
aI0
aI0
aF0.0
aI0
aI0
aF0.0
aI0
aI2
aI2
aI0
aI0
aI0
aI0
aI0
aI0
aI0
aa(lp68
V0020600440
p69
aVDEC 29, 2006
p70
aVLAC vs. SAC
p71
aVW
p72
aI12
aI0
aI3
aF0.0
aI0
aI0
aF0.0
aI4
aI4
aF1.0
aI0
aI5
aI5
aI0
aI1
aI1
aI3
aI1
aI4
aI6
aa(lp73
V0020600452
p74
aVDEC 31, 2006
p75
aVLAC vs. NYK
p76
aVW
p77
aI8
aI0
aI0
aF0.0
aI0
aI0
aF0.0
aI0
aI0
aF0.0
aI0
aI0
aI0
aI0
aI2
aI0
aI0
aI0
aI0
aI1
aa(lp78
V0020600460
p79
aVJAN 02, 2007
p80
aVLAC @ ORL
p81
aVL
p82
aI1
aI0
aI0
aF0.0
aI0
aI0
aF0.0
aI0
aI0
aF0.0
aI0
aI0
aI0
aI0
aI0
aI0
aI0
aI0
aI0
aI-3
aa(lp83
V0020600470
p84
aVJAN 03, 2007
p85
aVLAC @ MIA
p86
aVW
p87
aI2
aI0
aI0
aF0.0
aI0
aI0
aF0.0
aI0
aI0
aF0.0
aI0
aI0
aI0
aI0
aI0
aI0
aI0
aI0
aI0
aI-3
aa(lp88
V0020600480
p89
aVJAN 05, 2007
p90
aVLAC @ WAS
p91
aVL
p92
aI2
aI0
aI0
aF0.0
aI0
aI0
aF0.0
aI0
aI0
aF0.0
aI0
aI0
aI0
aI0
aI0
aI0
aI0
aI0
aI0
aI6
aa(lp93
V0020600505
p94
aVJAN 08, 2007
p95
aVLAC @ NOK
p96
aVW
p97
aI20
aI2
aI2
aF1.0
aI0
aI0
aF0.0
aI0
aI0
aF0.0
aI3
aI3
aI6
aI1
aI0
aI0
aI2
aI3
aI4
aI20
aa(lp98
V0020600522
p99
aVJAN 10, 2007
p100
aVLAC @ MIN
p101
aVW
p102
aI5
aI0
aI0
aF0.0
aI0
aI0
aF0.0
aI0
aI0
aF0.0
aI0
aI1
aI1
aI0
aI0
aI0
aI0
aI1
aI0
aI5
aa(lp103
V0020600551
p104
aVJAN 13, 2007
p105
aVLAC vs. CLE
p106
aVL
p107
aI3
aI0
aI0
aF0.0
aI0
aI0
aF0.0
aI0
aI0
aF0.0
aI0
aI1
aI1
aI1
aI0
aI0
aI0
aI0
aI0
aI6
aa(lp108
V0020600562
p109
aVJAN 15, 2007
p110
aVLAC @ GSW
p111
aVL
p112
aI6
aI1
aI2
aF0.5
aI0
aI0
aF0.0
aI0
aI0
aF0.0
aI0
aI0
aI0
aI0
aI0
aI0
aI0
aI2
aI2
aI6
aa(lp113
V0020600578
p114
aVJAN 17, 2007
p115
aVLAC vs. GSW
p116
aVW
p117
aI10
aI0
aI3
aF0.0
aI0
aI0
aF0.0
aI0
aI0
aF0.0
aI0
aI2
aI2
aI0
aI0
aI1
aI0
aI2
aI0
aI-10
aa(lp118
V0020600592
p119
aVJAN 20, 2007
p120
aVLAC vs. MEM
p121
aVW
p122
aI1
aI1
aI1
aF1.0
aI0
aI0
aF0.0
aI0
aI0
aF0.0
aI0
aI0
aI0
aI0
aI0
aI1
aI0
aI0
aI2
aI1
aa(lp123
V0020600620
p124
aVJAN 23, 2007
p125
aVLAC vs. MIL
p126
aVW
p127
aI3
aI0
aI2
aF0.0
aI0
aI0
aF0.0
aI0
aI0
aF0.0
aI1
aI1
aI2
aI0
aI0
aI2
aI0
aI0
aI0
aI0
aa(lp128
V0020600633
p129
aVJAN 25, 2007
p130
aVLAC vs. NJN
p131
aVW
p132
aI1
aI0
aI0
aF0.0
aI0
aI0
aF0.0
aI0
aI0
aF0.0
aI0
aI0
aI0
aI0
aI0
aI0
aI0
aI0
aI0
aI-2
aa(lp133
V0020600653
p134
aVJAN 27, 2007
p135
aVLAC vs. MIN
p136
aVL
p137
aI0
aI0
aI0
aF0.0
aI0
aI0
aF0.0
aI0
aI0
aF0.0
aI0
aI0
aI0
aI0
aI0
aI0
aI0
aI0
aI0
aI-2
aa(lp138
V0020600660
p139
aVJAN 28, 2007
p140
aVLAC @ SEA
p141
aVW
p142
aI9
aI1
aI3
aF0.333
aI1
aI2
aF0.5
aI1
aI2
aF0.5
aI1
aI1
aI2
aI1
aI1
aI2
aI1
aI1
aI4
aI-9
aa(lp143
V0020600729
p144
aVFEB 07, 2007
p145
aVLAC @ CLE
p146
aVL
p147
aI6
aI0
aI0
aF0.0
aI0
aI0
aF0.0
aI0
aI0
aF0.0
aI1
aI0
aI1
aI0
aI0
aI1
aI0
aI2
aI0
aI1
aa(lp148
V0020600739
p149
aVFEB 09, 2007
p150
aVLAC @ PHI
p151
aVW
p152
aI8
aI1
aI3
aF0.333
aI0
aI0
aF0.0
aI1
aI2
aF0.5
aI1
aI1
aI2
aI0
aI2
aI0
aI0
aI0
aI3
aI8
aa(lp153
V0020600758
p154
aVFEB 11, 2007
p155
aVLAC @ IND
p156
aVL
p157
aI1
aI0
aI0
aF0.0
aI0
aI0
aF0.0
aI0
aI0
aF0.0
aI0
aI0
aI0
aI0
aI0
aI0
aI0
aI0
aI0
aI-5
aa(lp158
V0020600765
p159
aVFEB 12, 2007
p160
aVLAC @ DET
p161
aVL
p162
aI9
aI0
aI2
aF0.0
aI0
aI2
aF0.0
aI0
aI0
aF0.0
aI0
aI3
aI3
aI0
aI0
aI0
aI0
aI2
aI0
aI6
aa(lp163
V0020600786
p164
aVFEB 14, 2007
p165
aVLAC vs. ATL
p166
aVL
p167
aI13
aI0
aI0
aF0.0
aI0
aI0
aF0.0
aI2
aI2
aF1.0
aI0
aI3
aI3
aI1
aI0
aI1
aI0
aI3
aI2
aI-2
aa(lp168
V0020600799
p169
aVFEB 20, 2007
p170
aVLAC vs. PHX
p171
aVL
p172
aI20
aI1
aI4
aF0.25
aI1
aI2
aF0.5
aI0
aI0
aF0.0
aI2
aI5
aI7
aI1
aI1
aI2
aI0
aI1
aI3
aI-6
aa(lp173
V0020600826
p174
aVFEB 24, 2007
p175
aVLAC vs. GSW
p176
aVW
p177
aI13
aI1
aI5
aF0.2
aI0
aI0
aF0.0
aI0
aI0
aF0.0
aI5
aI3
aI8
aI1
aI1
aI0
aI1
aI2
aI2
aI3
aa(lp178
V0020600849
p179
aVFEB 26, 2007
p180
aVLAC vs. CHA
p181
aVW
p182
aI3
aI0
aI0
aF0.0
aI0
aI0
aF0.0
aI0
aI2
aF0.0
aI0
aI1
aI1
aI0
aI0
aI0
aI0
aI2
aI0
aI-2
aa(lp183
V0020600867
p184
aVMAR 01, 2007
p185
aVLAC @ SEA
p186
aVL
p187
aI2
aI0
aI1
aF0.0
aI0
aI1
aF0.0
aI0
aI0
aF0.0
aI0
aI0
aI0
aI0
aI0
aI0
aI0
aI1
aI0
aI-6
aa(lp188
V0020600886
p189
aVMAR 03, 2007
p190
aVLAC vs. IND
p191
aVW
p192
aI7
aI2
aI4
aF0.5
aI0
aI0
aF0.0
aI0
aI0
aF0.0
aI1
aI1
aI2
aI0
aI0
aI0
aI1
aI1
aI4
aI-7
aa(lp193
V0020600990
p194
aVMAR 18, 2007
p195
aVLAC @ NJN
p196
aVL
p197
aI0
aI0
aI0
aF0.0
aI0
aI0
aF0.0
aI0
aI0
aF0.0
aI0
aI0
aI0
aI0
aI0
aI0
aI0
aI0
aI0
aI-4
aa(lp198
V0020601011
p199
aVMAR 21, 2007
p200
aVLAC @ MIL
p201
aVW
p202
aI11
aI2
aI2
aF1.0
aI0
aI0
aF0.0
aI2
aI2
aF1.0
aI3
aI1
aI4
aI2
aI1
aI0
aI0
aI3
aI6
aI2
aa(lp203
V0020601029
p204
aVMAR 23, 2007
p205
aVLAC vs. UTA
p206
aVW
p207
aI16
aI3
aI3
aF1.0
aI0
aI0
aF0.0
aI2
aI2
aF1.0
aI0
aI1
aI1
aI1
aI1
aI0
aI1
aI3
aI8
aI17
aa(lp208
V0020601035
p209
aVMAR 24, 2007
p210
aVLAC vs. WAS
p211
aVW
p212
aI4
aI0
aI0
aF0.0
aI0
aI0
aF0.0
aI0
aI0
aF0.0
aI0
aI1
aI1
aI0
aI0
aI0
aI0
aI0
aI0
aI-2
aa(lp213
V0020601082
p214
aVMAR 30, 2007
p215
aVLAC @ SAC
p216
aVW
p217
aI0
aI0
aI0
aF0.0
aI0
aI0
aF0.0
aI0
aI0
aF0.0
aI0
aI0
aI0
aI0
aI0
aI0
aI0
aI0
aI0
aI-3
aa(lp218
V0020601087
p219
aVMAR 31, 2007
p220
aVLAC @ POR
p221
aVW
p222
aI2
aI0
aI0
aF0.0
aI0
aI0
aF0.0
aI0
aI0
aF0.0
aI0
aI0
aI0
aI0
aI0
aI0
aI1
aI0
aI0
aI-3
aa(lp223
V0020601118
p224
aVAPR 04, 2007
p225
aVLAC vs. LAL
p226
aVW
p227
aI0
aI0
aI0
aF0.0
aI0
aI0
aF0.0
aI0
aI0
aF0.0
aI0
aI0
aI0
aI0
aI0
aI0
aI0
aI0
aI0
aI-2
aa(lp228
V0020601142
p229
aVAPR 07, 2007
p230
aVLAC vs. DEN
p231
aVL
p232
aI3
aI0
aI1
aF0.0
aI0
aI1
aF0.0
aI0
aI0
aF0.0
aI0
aI1
aI1
aI0
aI0
aI0
aI0
aI1
aI0
aI-3
aa(lp233
V0020601153
p234
aVAPR 09, 2007
p235
aVLAC @ DAL
p236
aVL
p237
aI25
aI1
aI2
aF0.5
aI0
aI0
aF0.0
aI1
aI1
aF1.0
aI6
aI4
aI10
aI2
aI0
aI1
aI0
aI1
aI3
aI-1
aa(lp238
V0020601162
p239
aVAPR 10, 2007
p240
aVLAC @ NOK
p241
aVL
p242
aI0
aI0
aI0
aF0.0
aI0
aI0
aF0.0
aI0
aI0
aF0.0
aI0
aI0
aI0
aI0
aI0
aI0
aI0
aI0
aI0
aI-2
aa(lp243
V0020601174
p244
aVAPR 12, 2007
p245
aVLAC @ LAL
p246
aVW
p247
aI1
aI0
aI0
aF0.0
aI0
aI0
aF0.0
aI0
aI0
aF0.0
aI0
aI0
aI0
aI0
aI0
aI0
aI0
aI0
aI0
aI2
aa(lp248
V0020601186
p249
aVAPR 13, 2007
p250
aVLAC vs. POR
p251
aVW
p252
aI4
aI1
aI1
aF1.0
aI0
aI0
aF0.0
aI0
aI0
aF0.0
aI0
aI1
aI1
aI0
aI0
aI0
aI1
aI0
aI2
aI-4
aa(lp253
V0020601197
p254
aVAPR 15, 2007
p255
aVLAC vs. SAC
p256
aVL
p257
aI0
aI0
aI0
aF0.0
aI0
aI0
aF0.0
aI0
aI0
aF0.0
aI0
aI0
aI0
aI0
aI0
aI0
aI0
aI0
aI0
aI0
aa(lp258
V0020601215
p259
aVAPR 17, 2007
p260
aVLAC @ PHX
p261
aVW
p262
aI0
aI0
aI0
aF0.0
aI0
aI0
aF0.0
aI0
aI0
aF0.0
aI0
aI0
aI0
aI0
aI0
aI0
aI0
aI0
aI0
aI-3
aa(lp263
V0020601230
p264
aVAPR 18, 2007
p265
aVLAC vs. NOK
p266
aVL
p267
aI6
aI0
aI1
aF0.0
aI0
aI0
aF0.0
aI0
aI0
aF0.0
aI1
aI2
aI3
aI0
aI0
aI0
aI0
aI0
aI0
aI-4
aasS'name'
p268
VJames Singleton
p269
sS'weight'
p270
V230
p271
sS'age'
p272
I25
sS'experience'
p273
I1
sS'height'
p274
V6-8
p275
sS'position'
p276
VForward
p277
s.