(dp0
S'age'
p1
I37
sS'stats'
p2
(lp3
(lp4
V0020601222
p5
aVAPR 18, 2007
p6
aVCHI @ NJN
p7
aVL
p8
aI27
aI5
aI10
aF0.5
aI0
aI0
aF0.0
aI1
aI1
aF1.0
aI2
aI5
aI7
aI2
aI0
aI2
aI1
aI5
aI11
aI0
aa(lp9
V0020601195
p10
aVAPR 15, 2007
p11
aVCHI @ WAS
p12
aVW
p13
aI28
aI1
aI4
aF0.25
aI0
aI0
aF0.0
aI0
aI0
aF0.0
aI2
aI6
aI8
aI3
aI0
aI0
aI2
aI2
aI2
aI27
aa(lp14
V0020601182
p15
aVAPR 13, 2007
p16
aVCHI vs. CHA
p17
aVW
p18
aI22
aI2
aI5
aF0.4
aI0
aI0
aF0.0
aI0
aI0
aF0.0
aI0
aI4
aI4
aI0
aI1
aI0
aI2
aI3
aI4
aI5
aa(lp19
V0020601163
p20
aVAPR 10, 2007
p21
aVCHI vs. NYK
p22
aVW
p23
aI23
aI3
aI6
aF0.5
aI0
aI0
aF0.0
aI0
aI0
aF0.0
aI1
aI1
aI2
aI0
aI0
aI0
aI1
aI3
aI6
aI27
aa(lp24
V0020601145
p25
aVAPR 08, 2007
p26
aVCHI @ TOR
p27
aVL
p28
aI25
aI4
aI6
aF0.667
aI0
aI0
aF0.0
aI1
aI2
aF0.5
aI2
aI1
aI3
aI1
aI0
aI1
aI3
aI5
aI9
aI-2
aa(lp29
V0020601129
p30
aVAPR 06, 2007
p31
aVCHI vs. NJN
p32
aVW
p33
aI26
aI1
aI7
aF0.143
aI0
aI0
aF0.0
aI0
aI0
aF0.0
aI3
aI4
aI7
aI1
aI1
aI1
aI0
aI3
aI2
aI13
aa(lp34
V0020601112
p35
aVAPR 04, 2007
p36
aVCHI @ DET
p37
aVW
p38
aI38
aI5
aI8
aF0.625
aI0
aI0
aF0.0
aI1
aI2
aF0.5
aI3
aI4
aI7
aI4
aI1
aI2
aI2
aI4
aI11
aI24
aa(lp39
V0020601089
p40
aVAPR 01, 2007
p41
aVCHI @ ATL
p42
aVW
p43
aI23
aI3
aI8
aF0.375
aI0
aI0
aF0.0
aI2
aI2
aF1.0
aI5
aI4
aI9
aI1
aI0
aI1
aI1
aI3
aI8
aI13
aa(lp44
V0020601084
p45
aVMAR 31, 2007
p46
aVCHI vs. CLE
p47
aVL
p48
aI8
aI1
aI2
aF0.5
aI0
aI0
aF0.0
aI0
aI0
aF0.0
aI1
aI1
aI2
aI1
aI1
aI0
aI0
aI4
aI2
aI6
aa(lp49
V0020601069
p50
aVMAR 29, 2007
p51
aVCHI vs. DET
p52
aVW
p53
aI20
aI1
aI5
aF0.2
aI0
aI0
aF0.0
aI2
aI2
aF1.0
aI2
aI1
aI3
aI1
aI0
aI1
aI0
aI2
aI4
aI0
aa(lp54
V0020601049
p55
aVMAR 26, 2007
p56
aVCHI vs. POR
p57
aVW
p58
aI21
aI2
aI3
aF0.667
aI0
aI0
aF0.0
aI3
aI4
aF0.75
aI1
aI2
aI3
aI1
aI0
aI1
aI0
aI5
aI7
aI1
aa(lp59
V0020601037
p60
aVMAR 25, 2007
p61
aVCHI @ IND
p62
aVW
p63
aI16
aI4
aI8
aF0.5
aI0
aI0
aF0.0
aI0
aI0
aF0.0
aI2
aI1
aI3
aI0
aI0
aI0
aI3
aI4
aI8
aI-3
aa(lp64
V0020601017
p65
aVMAR 22, 2007
p66
aVCHI vs. DEN
p67
aVW
p68
aI35
aI7
aI11
aF0.636
aI0
aI0
aF0.0
aI2
aI4
aF0.5
aI5
aI2
aI7
aI3
aI1
aI0
aI2
aI2
aI16
aI-7
aa(lp69
V0020601002
p70
aVMAR 20, 2007
p71
aVCHI vs. LAC
p72
aVL
p73
aI32
aI5
aI9
aF0.556
aI0
aI0
aF0.0
aI0
aI0
aF0.0
aI0
aI3
aI3
aI0
aI1
aI0
aI3
aI3
aI10
aI-7
aa(lp74
V0020600983
p75
aVMAR 17, 2007
p76
aVCHI @ MEM
p77
aVL
p78
aI21
aI1
aI5
aF0.2
aI0
aI0
aF0.0
aI0
aI0
aF0.0
aI1
aI3
aI4
aI0
aI0
aI0
aI1
aI4
aI2
aI-15
aa(lp79
V0020600958
p80
aVMAR 14, 2007
p81
aVCHI @ PHI
p82
aVW
p83
aI23
aI5
aI5
aF1.0
aI0
aI0
aF0.0
aI1
aI2
aF0.5
aI3
aI4
aI7
aI0
aI1
aI0
aI1
aI1
aI11
aI-5
aa(lp84
V0020600954
p85
aVMAR 13, 2007
p86
aVCHI vs. BOS
p87
aVW
p88
aI25
aI1
aI6
aF0.167
aI0
aI0
aF0.0
aI2
aI2
aF1.0
aI2
aI0
aI2
aI0
aI1
aI1
aI1
aI1
aI4
aI2
aa(lp89
V0020600936
p90
aVMAR 11, 2007
p91
aVCHI @ BOS
p92
aVW
p93
aI21
aI1
aI8
aF0.125
aI0
aI0
aF0.0
aI2
aI4
aF0.5
aI3
aI6
aI9
aI2
aI0
aI0
aI1
aI2
aI4
aI-10
aa(lp94
V0020600917
p95
aVMAR 08, 2007
p96
aVCHI @ ORL
p97
aVW
p98
aI15
aI3
aI5
aF0.6
aI0
aI0
aF0.0
aI2
aI2
aF1.0
aI2
aI4
aI6
aI0
aI1
aI0
aI1
aI4
aI8
aI13
aa(lp99
V0020600911
p100
aVMAR 07, 2007
p101
aVCHI @ MIA
p102
aVL
p103
aI15
aI1
aI5
aF0.2
aI0
aI0
aF0.0
aI0
aI0
aF0.0
aI4
aI1
aI5
aI2
aI0
aI0
aI1
aI1
aI2
aI-3
aa(lp104
V0020600889
p105
aVMAR 04, 2007
p106
aVCHI @ MIL
p107
aVW
p108
aI16
aI1
aI3
aF0.333
aI0
aI0
aF0.0
aI2
aI2
aF1.0
aI0
aI2
aI2
aI0
aI0
aI0
aI1
aI2
aI4
aI-18
aa(lp109
V0020600860
p110
aVFEB 28, 2007
p111
aVCHI vs. GSW
p112
aVW
p113
aI7
aI0
aI1
aF0.0
aI0
aI0
aF0.0
aI3
aI4
aF0.75
aI0
aI1
aI1
aI0
aI0
aI0
aI0
aI1
aI3
aI7
aa(lp114
V0020600844
p115
aVFEB 26, 2007
p116
aVCHI vs. ORL
p117
aVL
p118
aI14
aI0
aI7
aF0.0
aI0
aI0
aF0.0
aI1
aI2
aF0.5
aI2
aI0
aI2
aI0
aI1
aI2
aI2
aI3
aI1
aI-4
aa(lp119
V0020600832
p120
aVFEB 25, 2007
p121
aVCHI @ DET
p122
aVL
p123
aI35
aI6
aI9
aF0.667
aI0
aI0
aF0.0
aI7
aI8
aF0.875
aI5
aI7
aI12
aI0
aI0
aI4
aI2
aI3
aI19
aI-2
aa(lp124
V0020600820
p125
aVFEB 23, 2007
p126
aVCHI vs. WAS
p127
aVW
p128
aI19
aI3
aI9
aF0.333
aI0
aI0
aF0.0
aI1
aI2
aF0.5
aI2
aI2
aI4
aI4
aI0
aI1
aI0
aI2
aI7
aI4
aa(lp129
V0020600812
p130
aVFEB 22, 2007
p131
aVCHI @ CLE
p132
aVW
p133
aI12
aI2
aI3
aF0.667
aI0
aI0
aF0.0
aI0
aI0
aF0.0
aI0
aI5
aI5
aI0
aI0
aI0
aI1
aI3
aI4
aI6
aa(lp134
V0020600795
p135
aVFEB 20, 2007
p136
aVCHI vs. ATL
p137
aVW
p138
aI22
aI2
aI3
aF0.667
aI0
aI0
aF0.0
aI7
aI8
aF0.875
aI1
aI8
aI9
aI1
aI0
aI2
aI0
aI3
aI11
aI21
aa(lp139
V0020600777
p140
aVFEB 14, 2007
p141
aVCHI @ CHA
p142
aVL
p143
aI20
aI3
aI8
aF0.375
aI0
aI0
aF0.0
aI6
aI8
aF0.75
aI2
aI2
aI4
aI1
aI0
aI0
aI0
aI3
aI12
aI-9
aa(lp144
V0020600772
p145
aVFEB 13, 2007
p146
aVCHI vs. TOR
p147
aVL
p148
aI11
aI1
aI2
aF0.5
aI0
aI0
aF0.0
aI0
aI0
aF0.0
aI1
aI1
aI2
aI0
aI0
aI0
aI3
aI2
aI2
aI0
aa(lp149
V0020600748
p150
aVFEB 09, 2007
p151
aVCHI @ GSW
p152
aVL
p153
aI33
aI5
aI13
aF0.385
aI0
aI0
aF0.0
aI9
aI10
aF0.9
aI5
aI4
aI9
aI1
aI0
aI1
aI2
aI6
aI19
aI2
aa(lp154
V0020600737
p155
aVFEB 08, 2007
p156
aVCHI @ SAC
p157
aVL
p158
aI19
aI1
aI6
aF0.167
aI0
aI0
aF0.0
aI0
aI0
aF0.0
aI5
aI4
aI9
aI0
aI0
aI0
aI4
aI2
aI2
aI-22
aa(lp159
V0020600718
p160
aVFEB 05, 2007
p161
aVCHI @ UTA
p162
aVL
p163
aI31
aI2
aI3
aF0.667
aI0
aI0
aF0.0
aI6
aI6
aF1.0
aI2
aI3
aI5
aI1
aI1
aI2
aI6
aI4
aI10
aI-2
aa(lp164
V0020600708
p165
aVFEB 03, 2007
p166
aVCHI @ POR
p167
aVW
p168
aI20
aI2
aI7
aF0.286
aI0
aI0
aF0.0
aI0
aI0
aF0.0
aI0
aI1
aI1
aI0
aI0
aI1
aI0
aI4
aI4
aI-22
aa(lp169
V0020600698
p170
aVFEB 02, 2007
p171
aVCHI @ SEA
p172
aVW
p173
aI31
aI6
aI8
aF0.75
aI0
aI0
aF0.0
aI2
aI2
aF1.0
aI2
aI5
aI7
aI0
aI1
aI3
aI2
aI3
aI14
aI13
aa(lp174
V0020600686
p175
aVJAN 31, 2007
p176
aVCHI @ LAC
p177
aVL
p178
aI40
aI4
aI11
aF0.364
aI0
aI0
aF0.0
aI0
aI0
aF0.0
aI4
aI4
aI8
aI0
aI0
aI3
aI1
aI4
aI8
aI2
aa(lp179
V0020600650
p180
aVJAN 27, 2007
p181
aVCHI vs. MIA
p182
aVW
p183
aI19
aI1
aI6
aF0.167
aI0
aI0
aF0.0
aI2
aI2
aF1.0
aI3
aI2
aI5
aI0
aI0
aI0
aI0
aI2
aI4
aI6
aa(lp184
V0020600632
p185
aVJAN 25, 2007
p186
aVCHI vs. DAL
p187
aVW
p188
aI28
aI6
aI11
aF0.545
aI0
aI0
aF0.0
aI0
aI0
aF0.0
aI6
aI3
aI9
aI2
aI0
aI0
aI1
aI4
aI12
aI26
aa(lp189
V0020600618
p190
aVJAN 23, 2007
p191
aVCHI vs. ATL
p192
aVW
p193
aI37
aI7
aI14
aF0.5
aI0
aI0
aF0.0
aI1
aI1
aF1.0
aI3
aI6
aI9
aI1
aI1
aI3
aI3
aI4
aI15
aI2
aa(lp194
V0020600608
p195
aVJAN 22, 2007
p196
aVCHI @ IND
p197
aVL
p198
aI20
aI2
aI5
aF0.4
aI0
aI0
aF0.0
aI1
aI4
aF0.25
aI1
aI4
aI5
aI0
aI0
aI0
aI1
aI1
aI5
aI-16
aa(lp199
V0020600599
p200
aVJAN 20, 2007
p201
aVCHI vs. UTA
p202
aVL
p203
aI29
aI2
aI7
aF0.286
aI0
aI0
aF0.0
aI0
aI0
aF0.0
aI4
aI5
aI9
aI0
aI0
aI0
aI1
aI5
aI4
aI-4
aa(lp204
V0020600572
p205
aVJAN 17, 2007
p206
aVCHI @ MIL
p207
aVW
p208
aI13
aI1
aI6
aF0.167
aI0
aI0
aF0.0
aI0
aI0
aF0.0
aI1
aI1
aI2
aI0
aI0
aI2
aI2
aI1
aI2
aI-4
aa(lp209
V0020600559
p210
aVJAN 15, 2007
p211
aVCHI vs. SAS
p212
aVW
p213
aI28
aI5
aI7
aF0.714
aI0
aI0
aF0.0
aI0
aI0
aF0.0
aI2
aI3
aI5
aI0
aI0
aI1
aI0
aI4
aI10
aI-3
aa(lp214
V0020600546
p215
aVJAN 13, 2007
p216
aVCHI vs. MEM
p217
aVW
p218
aI25
aI1
aI8
aF0.125
aI0
aI0
aF0.0
aI0
aI0
aF0.0
aI3
aI6
aI9
aI3
aI0
aI5
aI2
aI3
aI2
aI29
aa(lp219
V0020600528
p220
aVJAN 11, 2007
p221
aVCHI vs. NJN
p222
aVL
p223
aI16
aI0
aI4
aF0.0
aI0
aI0
aF0.0
aI1
aI2
aF0.5
aI1
aI5
aI6
aI1
aI0
aI1
aI2
aI3
aI1
aI7
aa(lp224
V0020600494
p225
aVJAN 06, 2007
p226
aVCHI vs. DET
p227
aVW
p228
aI11
aI1
aI2
aF0.5
aI0
aI0
aF0.0
aI2
aI2
aF1.0
aI0
aI1
aI1
aI0
aI0
aI1
aI0
aI5
aI4
aI2
aa(lp229
V0020600482
p230
aVJAN 05, 2007
p231
aVCHI @ NJN
p232
aVL
p233
aI3
aI0
aI1
aF0.0
aI0
aI0
aF0.0
aI1
aI2
aF0.5
aI0
aI0
aI0
aI0
aI0
aI0
aI0
aI2
aI1
aI-5
aa(lp234
V0020600463
p235
aVJAN 02, 2007
p236
aVCHI vs. PHX
p237
aVL
p238
aI6
aI0
aI2
aF0.0
aI0
aI0
aF0.0
aI0
aI0
aF0.0
aI1
aI0
aI1
aI0
aI0
aI0
aI1
aI1
aI0
aI2
aa(lp239
V0020600446
p240
aVDEC 30, 2006
p241
aVCHI vs. CLE
p242
aVW
p243
aI31
aI5
aI11
aF0.455
aI0
aI0
aF0.0
aI3
aI3
aF1.0
aI4
aI6
aI10
aI1
aI1
aI0
aI1
aI0
aI13
aI21
aa(lp244
V0020600429
p245
aVDEC 29, 2006
p246
aVCHI @ TOR
p247
aVW
p248
aI31
aI1
aI4
aF0.25
aI0
aI0
aF0.0
aI4
aI4
aF1.0
aI0
aI3
aI3
aI0
aI0
aI0
aI1
aI2
aI6
aI17
aa(lp249
V0020600422
p250
aVDEC 27, 2006
p251
aVCHI vs. MIA
p252
aVW
p253
aI9
aI1
aI3
aF0.333
aI0
aI0
aF0.0
aI0
aI0
aF0.0
aI1
aI4
aI5
aI0
aI0
aI0
aI0
aI0
aI2
aI13
aa(lp254
V0020600408
p255
aVDEC 26, 2006
p256
aVCHI @ MIN
p257
aVL
p258
aI7
aI0
aI1
aF0.0
aI0
aI0
aF0.0
aI0
aI0
aF0.0
aI1
aI1
aI2
aI0
aI0
aI0
aI0
aI1
aI0
aI-7
aa(lp259
V0020600399
p260
aVDEC 23, 2006
p261
aVCHI vs. CHA
p262
aVW
p263
aI15
aI1
aI3
aF0.333
aI0
aI1
aF0.0
aI0
aI0
aF0.0
aI0
aI4
aI4
aI0
aI1
aI2
aI1
aI1
aI2
aI15
aa(lp264
V0020600382
p265
aVDEC 22, 2006
p266
aVCHI @ NYK
p267
aVL
p268
aI14
aI1
aI2
aF0.5
aI0
aI0
aF0.0
aI0
aI0
aF0.0
aI0
aI2
aI2
aI1
aI0
aI0
aI1
aI2
aI2
aI3
aa(lp269
V0020600306
p270
aVDEC 11, 2006
p271
aVCHI vs. IND
p272
aVW
p273
aI23
aI4
aI7
aF0.571
aI0
aI0
aF0.0
aI2
aI2
aF1.0
aI1
aI3
aI4
aI2
aI1
aI1
aI2
aI2
aI10
aI5
aa(lp274
V0020600292
p275
aVDEC 09, 2006
p276
aVCHI vs. MIN
p277
aVL
p278
aI8
aI0
aI3
aF0.0
aI0
aI0
aF0.0
aI0
aI0
aF0.0
aI1
aI1
aI2
aI0
aI0
aI0
aI1
aI0
aI0
aI2
aa(lp279
V0020600281
p280
aVDEC 08, 2006
p281
aVCHI vs. TOR
p282
aVW
p283
aI8
aI1
aI1
aF1.0
aI0
aI0
aF0.0
aI0
aI0
aF0.0
aI1
aI1
aI2
aI1
aI0
aI0
aI1
aI1
aI2
aI0
aa(lp284
V0020600268
p285
aVDEC 06, 2006
p286
aVCHI vs. PHI
p287
aVW
p288
aI19
aI4
aI7
aF0.571
aI0
aI0
aF0.0
aI2
aI4
aF0.5
aI1
aI2
aI3
aI2
aI0
aI1
aI0
aI3
aI10
aI3
aa(lp289
V0020600251
p290
aVDEC 04, 2006
p291
aVCHI vs. BOS
p292
aVW
p293
aI14
aI1
aI4
aF0.25
aI0
aI0
aF0.0
aI0
aI0
aF0.0
aI2
aI1
aI3
aI0
aI1
aI0
aI2
aI4
aI2
aI-1
aa(lp294
V0020600228
p295
aVDEC 01, 2006
p296
aVCHI @ NOK
p297
aVW
p298
aI13
aI1
aI6
aF0.167
aI0
aI0
aF0.0
aI1
aI2
aF0.5
aI0
aI3
aI3
aI0
aI0
aI1
aI1
aI2
aI3
aI1
aa(lp299
V0020600207
p300
aVNOV 28, 2006
p301
aVCHI vs. NYK
p302
aVW
p303
aI28
aI6
aI9
aF0.667
aI0
aI0
aF0.0
aI2
aI2
aF1.0
aI5
aI3
aI8
aI0
aI1
aI1
aI2
aI3
aI14
aI21
aa(lp304
V0020600187
p305
aVNOV 25, 2006
p306
aVCHI @ NYK
p307
aVW
p308
aI12
aI0
aI3
aF0.0
aI0
aI0
aF0.0
aI1
aI2
aF0.5
aI1
aI5
aI6
aI0
aI1
aI1
aI0
aI4
aI1
aI-3
aa(lp309
V0020600172
p310
aVNOV 24, 2006
p311
aVCHI @ PHI
p312
aVL
p313
aI5
aI0
aI1
aF0.0
aI0
aI0
aF0.0
aI0
aI0
aF0.0
aI0
aI2
aI2
aI0
aI0
aI0
aI2
aI2
aI0
aI8
aa(lp314
V0020600142
p315
aVNOV 19, 2006
p316
aVCHI @ LAL
p317
aVL
p318
aI11
aI1
aI4
aF0.25
aI0
aI1
aF0.0
aI0
aI0
aF0.0
aI1
aI2
aI3
aI0
aI0
aI0
aI0
aI1
aI2
aI0
aa(lp319
V0020600125
p320
aVNOV 17, 2006
p321
aVCHI @ SAS
p322
aVL
p323
aI20
aI4
aI6
aF0.667
aI0
aI0
aF0.0
aI1
aI1
aF1.0
aI1
aI4
aI5
aI0
aI1
aI0
aI0
aI2
aI9
aI-5
aa(lp324
V0020600117
p325
aVNOV 16, 2006
p326
aVCHI @ HOU
p327
aVL
p328
aI13
aI1
aI3
aF0.333
aI0
aI0
aF0.0
aI0
aI0
aF0.0
aI0
aI2
aI2
aI0
aI0
aI0
aI2
aI3
aI2
aI5
aa(lp329
V0020600105
p330
aVNOV 14, 2006
p331
aVCHI @ DAL
p332
aVL
p333
aI18
aI3
aI9
aF0.333
aI0
aI0
aF0.0
aI1
aI2
aF0.5
aI3
aI3
aI6
aI1
aI0
aI1
aI0
aI2
aI7
aI-5
aa(lp334
V0020600086
p335
aVNOV 11, 2006
p336
aVCHI vs. IND
p337
aVW
p338
aI17
aI3
aI5
aF0.6
aI0
aI0
aF0.0
aI2
aI2
aF1.0
aI0
aI3
aI3
aI1
aI0
aI0
aI0
aI2
aI8
aI0
aa(lp339
V0020600069
p340
aVNOV 09, 2006
p341
aVCHI @ CLE
p342
aVL
p343
aI25
aI5
aI12
aF0.417
aI0
aI0
aF0.0
aI1
aI1
aF1.0
aI3
aI3
aI6
aI0
aI2
aI0
aI0
aI2
aI11
aI-12
aa(lp344
V0020600047
p345
aVNOV 06, 2006
p346
aVCHI vs. MIL
p347
aVW
p348
aI29
aI6
aI12
aF0.5
aI0
aI0
aF0.0
aI1
aI1
aF1.0
aI1
aI10
aI11
aI1
aI0
aI0
aI1
aI1
aI13
aI12
aa(lp349
V0020600026
p350
aVNOV 03, 2006
p351
aVCHI vs. SAC
p352
aVL
p353
aI19
aI0
aI3
aF0.0
aI0
aI0
aF0.0
aI0
aI0
aF0.0
aI0
aI3
aI3
aI0
aI1
aI1
aI2
aI1
aI0
aI-1
aa(lp354
V0020600005
p355
aVNOV 01, 2006
p356
aVCHI @ ORL
p357
aVL
p358
aI12
aI0
aI5
aF0.0
aI0
aI0
aF0.0
aI2
aI2
aF1.0
aI2
aI2
aI4
aI0
aI0
aI0
aI0
aI2
aI2
aI-11
aa(lp359
V0020600001
p360
aVOCT 31, 2006
p361
aVCHI @ MIA
p362
aVW
p363
aI18
aI1
aI2
aF0.5
aI0
aI0
aF0.0
aI2
aI2
aF1.0
aI0
aI3
aI3
aI1
aI1
aI1
aI2
aI3
aI4
aI15
aasS'name'
p364
VP.J. Brown
p365
sS'experience'
p366
I13
s.