(dp0
S'age'
p1
I31
sS'stats'
p2
(lp3
(lp4
V0020601230
p5
aVAPR 18, 2007
p6
aVNOK @ LAC
p7
aVW
p8
aI37
aI3
aI11
aF0.273
aI0
aI0
aF0.0
aI6
aI6
aF1.0
aI2
aI3
aI5
aI2
aI0
aI0
aI0
aI1
aI12
aI5
aa(lp9
V0020601210
p10
aVAPR 16, 2007
p11
aVNOK @ SAC
p12
aVW
p13
aI21
aI5
aI9
aF0.556
aI0
aI0
aF0.0
aI2
aI3
aF0.667
aI0
aI5
aI5
aI1
aI0
aI0
aI1
aI2
aI12
aI-6
aa(lp14
V0020601191
p15
aVAPR 14, 2007
p16
aVNOK @ HOU
p17
aVL
p18
aI25
aI10
aI19
aF0.526
aI0
aI0
aF0.0
aI2
aI2
aF1.0
aI2
aI1
aI3
aI1
aI2
aI0
aI1
aI3
aI22
aI-15
aa(lp19
V0020601180
p20
aVAPR 13, 2007
p21
aVNOK vs. DEN
p22
aVL
p23
aI37
aI5
aI9
aF0.556
aI0
aI0
aF0.0
aI3
aI3
aF1.0
aI4
aI9
aI13
aI0
aI0
aI0
aI1
aI2
aI13
aI-10
aa(lp24
V0020601162
p25
aVAPR 10, 2007
p26
aVNOK vs. LAC
p27
aVW
p28
aI37
aI1
aI5
aF0.2
aI0
aI0
aF0.0
aI0
aI0
aF0.0
aI0
aI6
aI6
aI3
aI0
aI0
aI1
aI4
aI2
aI7
aa(lp29
V0020601138
p30
aVAPR 07, 2007
p31
aVNOK @ MIN
p32
aVW
p33
aI27
aI5
aI13
aF0.385
aI0
aI0
aF0.0
aI5
aI5
aF1.0
aI5
aI6
aI11
aI1
aI0
aI0
aI3
aI1
aI15
aI6
aa(lp34
V0020601128
p35
aVAPR 06, 2007
p36
aVNOK vs. PHX
p37
aVL
p38
aI28
aI8
aI13
aF0.615
aI0
aI0
aF0.0
aI0
aI0
aF0.0
aI1
aI4
aI5
aI2
aI0
aI0
aI4
aI3
aI16
aI1
aa(lp39
V0020601114
p40
aVAPR 04, 2007
p41
aVNOK vs. SEA
p42
aVW
p43
aI39
aI5
aI10
aF0.5
aI0
aI0
aF0.0
aI3
aI3
aF1.0
aI3
aI9
aI12
aI3
aI1
aI0
aI3
aI3
aI13
aI-2
aa(lp44
V0020601086
p45
aVMAR 31, 2007
p46
aVNOK vs. NYK
p47
aVW
p48
aI6
aI0
aI1
aF0.0
aI0
aI0
aF0.0
aI0
aI0
aF0.0
aI0
aI0
aI0
aI1
aI0
aI1
aI0
aI1
aI0
aI5
aa(lp49
V0020601064
p50
aVMAR 28, 2007
p51
aVNOK @ SAS
p52
aVL
p53
aI4
aI0
aI2
aF0.0
aI0
aI0
aF0.0
aI0
aI0
aF0.0
aI0
aI0
aI0
aI0
aI0
aI0
aI0
aI0
aI0
aI-1
aa(lp54
V0020601055
p55
aVMAR 27, 2007
p56
aVNOK vs. DAL
p57
aVL
p58
aI14
aI2
aI2
aF1.0
aI0
aI0
aF0.0
aI2
aI2
aF1.0
aI1
aI1
aI2
aI0
aI1
aI0
aI0
aI1
aI6
aI-14
aa(lp59
V0020601039
p60
aVMAR 25, 2007
p61
aVNOK vs. HOU
p62
aVW
p63
aI13
aI2
aI6
aF0.333
aI0
aI0
aF0.0
aI2
aI2
aF1.0
aI2
aI4
aI6
aI0
aI0
aI0
aI2
aI1
aI6
aI3
aa(lp64
V0020601027
p65
aVMAR 23, 2007
p66
aVNOK vs. LAL
p67
aVL
p68
aI8
aI0
aI2
aF0.0
aI0
aI0
aF0.0
aI2
aI2
aF1.0
aI1
aI1
aI2
aI0
aI0
aI0
aI0
aI0
aI2
aI-1
aa(lp69
V0020601001
p70
aVMAR 20, 2007
p71
aVNOK @ MEM
p72
aVW
p73
aI15
aI2
aI3
aF0.667
aI0
aI0
aF0.0
aI0
aI0
aF0.0
aI1
aI1
aI2
aI0
aI0
aI0
aI1
aI1
aI4
aI1
aa(lp74
V0020600996
p75
aVMAR 19, 2007
p76
aVNOK vs. BOS
p77
aVW
p78
aI15
aI2
aI6
aF0.333
aI0
aI0
aF0.0
aI2
aI2
aF1.0
aI1
aI1
aI2
aI1
aI1
aI1
aI1
aI1
aI6
aI5
aa(lp79
V0020600979
p80
aVMAR 17, 2007
p81
aVNOK @ WAS
p82
aVL
p83
aI15
aI5
aI7
aF0.714
aI0
aI0
aF0.0
aI0
aI0
aF0.0
aI0
aI0
aI0
aI1
aI0
aI0
aI1
aI1
aI10
aI-6
aa(lp84
V0020600973
p85
aVMAR 16, 2007
p86
aVNOK @ NYK
p87
aVW
p88
aI5
aI0
aI0
aF0.0
aI0
aI0
aF0.0
aI0
aI0
aF0.0
aI0
aI0
aI0
aI0
aI0
aI0
aI1
aI0
aI0
aI0
aa(lp89
V0020600951
p90
aVMAR 13, 2007
p91
aVNOK vs. NJN
p92
aVL
p93
aI6
aI1
aI3
aF0.333
aI0
aI0
aF0.0
aI3
aI3
aF1.0
aI2
aI0
aI2
aI0
aI1
aI0
aI0
aI0
aI5
aI-3
aa(lp94
V0020600933
p95
aVMAR 10, 2007
p96
aVNOK @ UTA
p97
aVL
p98
aI6
aI0
aI0
aF0.0
aI0
aI0
aF0.0
aI2
aI2
aF1.0
aI0
aI2
aI2
aI0
aI0
aI0
aI0
aI0
aI2
aI-4
aa(lp99
V0020600904
p100
aVMAR 06, 2007
p101
aVNOK @ DEN
p102
aVL
p103
aI6
aI1
aI4
aF0.25
aI0
aI0
aF0.0
aI1
aI1
aF1.0
aI0
aI1
aI1
aI0
aI0
aI0
aI0
aI0
aI3
aI1
aa(lp104
V0020600891
p105
aVMAR 04, 2007
p106
aVNOK vs. UTA
p107
aVL
p108
aI7
aI3
aI5
aF0.6
aI0
aI0
aF0.0
aI0
aI0
aF0.0
aI0
aI0
aI0
aI0
aI0
aI0
aI0
aI2
aI6
aI-6
aa(lp109
V0020600875
p110
aVMAR 02, 2007
p111
aVNOK @ CHI
p112
aVL
p113
aI12
aI0
aI3
aF0.0
aI0
aI0
aF0.0
aI4
aI4
aF1.0
aI2
aI5
aI7
aI1
aI0
aI0
aI0
aI1
aI4
aI1
aa(lp114
V0020600859
p115
aVFEB 28, 2007
p116
aVNOK vs. ATL
p117
aVW
p118
aI7
aI0
aI2
aF0.0
aI0
aI0
aF0.0
aI2
aI4
aF0.5
aI0
aI0
aI0
aI1
aI0
aI0
aI0
aI0
aI2
aI-1
aa(lp119
V0020600782
p120
aVFEB 14, 2007
p121
aVNOK vs. SAC
p122
aVW
p123
aI6
aI0
aI2
aF0.0
aI0
aI0
aF0.0
aI0
aI0
aF0.0
aI0
aI3
aI3
aI0
aI0
aI0
aI3
aI1
aI0
aI-11
aa(lp124
V0020600734
p125
aVFEB 07, 2007
p126
aVNOK @ DEN
p127
aVW
p128
aI1
aI0
aI0
aF0.0
aI0
aI0
aF0.0
aI0
aI0
aF0.0
aI0
aI0
aI0
aI0
aI0
aI0
aI0
aI0
aI0
aI4
aa(lp129
V0020600621
p130
aVJAN 24, 2007
p131
aVNOK @ TOR
p132
aVL
p133
aI4
aI0
aI1
aF0.0
aI0
aI0
aF0.0
aI0
aI0
aF0.0
aI0
aI3
aI3
aI1
aI0
aI0
aI1
aI1
aI0
aI2
aa(lp134
V0020600615
p135
aVJAN 23, 2007
p136
aVNOK @ PHI
p137
aVL
p138
aI7
aI1
aI2
aF0.5
aI0
aI0
aF0.0
aI0
aI0
aF0.0
aI1
aI1
aI2
aI0
aI0
aI0
aI2
aI1
aI2
aI-8
aa(lp139
V0020600598
p140
aVJAN 20, 2007
p141
aVNOK vs. LAL
p142
aVW
p143
aI5
aI0
aI1
aF0.0
aI0
aI0
aF0.0
aI0
aI0
aF0.0
aI0
aI2
aI2
aI0
aI0
aI0
aI0
aI0
aI0
aI3
aa(lp144
V0020600587
p145
aVJAN 19, 2007
p146
aVNOK @ SAS
p147
aVL
p148
aI7
aI0
aI1
aF0.0
aI0
aI0
aF0.0
aI0
aI0
aF0.0
aI0
aI1
aI1
aI1
aI0
aI0
aI1
aI1
aI0
aI-5
aa(lp149
V0020600565
p150
aVJAN 16, 2007
p151
aVNOK vs. ORL
p152
aVW
p153
aI22
aI0
aI5
aF0.0
aI0
aI0
aF0.0
aI0
aI0
aF0.0
aI1
aI1
aI2
aI2
aI0
aI0
aI2
aI3
aI0
aI1
aa(lp154
V0020600536
p155
aVJAN 12, 2007
p156
aVNOK vs. WAS
p157
aVW
p158
aI30
aI4
aI9
aF0.444
aI0
aI0
aF0.0
aI3
aI3
aF1.0
aI1
aI1
aI2
aI3
aI0
aI0
aI5
aI1
aI11
aI-1
aa(lp159
V0020600517
p160
aVJAN 10, 2007
p161
aVNOK @ ATL
p162
aVW
p163
aI21
aI3
aI5
aF0.6
aI0
aI0
aF0.0
aI3
aI3
aF1.0
aI0
aI4
aI4
aI0
aI0
aI1
aI1
aI2
aI9
aI0
aa(lp164
V0020600505
p165
aVJAN 08, 2007
p166
aVNOK vs. LAC
p167
aVL
p168
aI24
aI4
aI9
aF0.444
aI0
aI0
aF0.0
aI2
aI2
aF1.0
aI0
aI2
aI2
aI3
aI2
aI0
aI0
aI2
aI10
aI8
aa(lp169
V0020600493
p170
aVJAN 06, 2007
p171
aVNOK vs. IND
p172
aVL
p173
aI26
aI4
aI10
aF0.4
aI0
aI0
aF0.0
aI3
aI4
aF0.75
aI0
aI4
aI4
aI0
aI1
aI2
aI1
aI4
aI11
aI-1
aa(lp174
V0020600476
p175
aVJAN 04, 2007
p176
aVNOK vs. DET
p177
aVL
p178
aI25
aI2
aI7
aF0.286
aI0
aI0
aF0.0
aI0
aI0
aF0.0
aI0
aI3
aI3
aI1
aI1
aI0
aI0
aI2
aI4
aI-4
aa(lp179
V0020600462
p180
aVJAN 02, 2007
p181
aVNOK vs. GSW
p182
aVL
p183
aI25
aI6
aI14
aF0.429
aI0
aI0
aF0.0
aI3
aI4
aF0.75
aI0
aI6
aI6
aI4
aI0
aI0
aI4
aI0
aI15
aI-5
aa(lp184
V0020600448
p185
aVDEC 30, 2006
p186
aVNOK @ DAL
p187
aVL
p188
aI33
aI6
aI13
aF0.462
aI0
aI0
aF0.0
aI10
aI10
aF1.0
aI2
aI6
aI8
aI0
aI0
aI0
aI2
aI4
aI22
aI-24
aa(lp189
V0020600435
p190
aVDEC 29, 2006
p191
aVNOK vs. DEN
p192
aVW
p193
aI28
aI4
aI8
aF0.5
aI0
aI0
aF0.0
aI2
aI2
aF1.0
aI1
aI2
aI3
aI5
aI0
aI0
aI0
aI4
aI10
aI8
aa(lp194
V0020600424
p195
aVDEC 27, 2006
p196
aVNOK @ POR
p197
aVL
p198
aI26
aI3
aI11
aF0.273
aI0
aI0
aF0.0
aI1
aI2
aF0.5
aI3
aI1
aI4
aI1
aI0
aI0
aI1
aI1
aI7
aI-20
aa(lp199
V0020600413
p200
aVDEC 26, 2006
p201
aVNOK @ SEA
p202
aVL
p203
aI21
aI3
aI7
aF0.429
aI0
aI0
aF0.0
aI0
aI0
aF0.0
aI2
aI0
aI2
aI3
aI2
aI0
aI2
aI0
aI6
aI-8
aa(lp204
V0020600398
p205
aVDEC 23, 2006
p206
aVNOK vs. SAS
p207
aVL
p208
aI17
aI3
aI7
aF0.429
aI0
aI0
aF0.0
aI0
aI0
aF0.0
aI2
aI2
aI4
aI1
aI0
aI0
aI5
aI2
aI6
aI-15
aa(lp209
V0020600385
p210
aVDEC 22, 2006
p211
aVNOK vs. MEM
p212
aVW
p213
aI28
aI8
aI18
aF0.444
aI0
aI0
aF0.0
aI3
aI4
aF0.75
aI2
aI8
aI10
aI3
aI2
aI0
aI1
aI1
aI19
aI12
aa(lp214
V0020600366
p215
aVDEC 20, 2006
p216
aVNOK @ ORL
p217
aVL
p218
aI23
aI3
aI9
aF0.333
aI0
aI0
aF0.0
aI5
aI6
aF0.833
aI2
aI1
aI3
aI0
aI1
aI0
aI2
aI4
aI11
aI1
aa(lp219
V0020600358
p220
aVDEC 18, 2006
p221
aVNOK @ MIA
p222
aVL
p223
aI17
aI3
aI5
aF0.6
aI0
aI0
aF0.0
aI0
aI0
aF0.0
aI1
aI0
aI1
aI0
aI0
aI0
aI0
aI1
aI6
aI1
aa(lp224
V0020600347
p225
aVDEC 16, 2006
p226
aVNOK vs. DAL
p227
aVL
p228
aI18
aI5
aI10
aF0.5
aI0
aI0
aF0.0
aI3
aI3
aF1.0
aI3
aI2
aI5
aI1
aI0
aI1
aI1
aI4
aI13
aI-4
aa(lp229
V0020600327
p230
aVDEC 14, 2006
p231
aVNOK vs. SAS
p232
aVL
p233
aI26
aI4
aI10
aF0.4
aI0
aI0
aF0.0
aI0
aI2
aF0.0
aI0
aI1
aI1
aI1
aI0
aI0
aI0
aI1
aI8
aI-19
aa(lp234
V0020600305
p235
aVDEC 11, 2006
p236
aVNOK vs. CLE
p237
aVW
p238
aI24
aI7
aI11
aF0.636
aI0
aI0
aF0.0
aI0
aI0
aF0.0
aI1
aI0
aI1
aI1
aI0
aI0
aI0
aI3
aI14
aI7
aa(lp239
V0020600285
p240
aVDEC 08, 2006
p241
aVNOK @ SEA
p242
aVL
p243
aI17
aI1
aI5
aF0.2
aI0
aI0
aF0.0
aI2
aI2
aF1.0
aI1
aI1
aI2
aI2
aI1
aI0
aI3
aI3
aI4
aI-13
aa(lp244
V0020600270
p245
aVDEC 06, 2006
p246
aVNOK @ LAL
p247
aVW
p248
aI22
aI1
aI5
aF0.2
aI0
aI0
aF0.0
aI2
aI2
aF1.0
aI3
aI2
aI5
aI0
aI2
aI0
aI3
aI3
aI4
aI5
aa(lp249
V0020600228
p250
aVDEC 01, 2006
p251
aVNOK vs. CHI
p252
aVL
p253
aI28
aI6
aI15
aF0.4
aI0
aI0
aF0.0
aI3
aI3
aF1.0
aI2
aI4
aI6
aI0
aI0
aI0
aI1
aI1
aI15
aI-20
aa(lp254
V0020600206
p255
aVNOV 28, 2006
p256
aVNOK vs. TOR
p257
aVL
p258
aI17
aI4
aI9
aF0.444
aI0
aI0
aF0.0
aI1
aI2
aF0.5
aI2
aI1
aI3
aI0
aI1
aI0
aI2
aI3
aI9
aI4
aa(lp259
V0020600191
p260
aVNOV 25, 2006
p261
aVNOK @ DAL
p262
aVL
p263
aI56
aI1
aI7
aF0.143
aI0
aI0
aF0.0
aI3
aI4
aF0.75
aI2
aI1
aI3
aI0
aI0
aI0
aI1
aI4
aI5
aI-21
aa(lp264
V0020600178
p265
aVNOV 24, 2006
p266
aVNOK vs. MIN
p267
aVL
p268
aI19
aI4
aI12
aF0.333
aI0
aI0
aF0.0
aI0
aI0
aF0.0
aI0
aI3
aI3
aI1
aI1
aI1
aI0
aI0
aI8
aI-6
aa(lp269
V0020600166
p270
aVNOV 22, 2006
p271
aVNOK @ PHX
p272
aVL
p273
aI8
aI0
aI4
aF0.0
aI0
aI0
aF0.0
aI0
aI0
aF0.0
aI1
aI1
aI2
aI0
aI1
aI0
aI1
aI0
aI0
aI-6
aa(lp274
V0020600154
p275
aVNOV 21, 2006
p276
aVNOK vs. MIA
p277
aVW
p278
aI31
aI6
aI12
aF0.5
aI0
aI0
aF0.0
aI0
aI1
aF0.0
aI1
aI2
aI3
aI3
aI0
aI0
aI0
aI3
aI12
aI21
aa(lp279
V0020600135
p280
aVNOV 18, 2006
p281
aVNOK @ MIN
p282
aVW
p283
aI14
aI3
aI9
aF0.333
aI0
aI1
aF0.0
aI0
aI0
aF0.0
aI1
aI2
aI3
aI3
aI0
aI0
aI0
aI1
aI6
aI5
aasS'name'
p284
VMarc Jackson
p285
sS'experience'
p286
I6
s.