(dp0
S'stats'
p1
(lp2
(lp3
V0020600004
p4
aVNOV 01, 2006
p5
aVIND @ CHA
p6
aVW
p7
aI19
aI3
aI10
aF0.3
aI0
aI1
aF0.0
aI2
aI4
aF0.5
aI6
aI3
aI9
aI0
aI0
aI0
aI2
aI5
aI8
aI-6
aa(lp8
V0020600020
p9
aVNOV 03, 2006
p10
aVIND vs. NOK
p11
aVL
p12
aI13
aI1
aI9
aF0.111
aI0
aI0
aF0.0
aI2
aI2
aF1.0
aI2
aI5
aI7
aI3
aI0
aI0
aI0
aI2
aI4
aI-5
aa(lp13
V0020600033
p14
aVNOV 04, 2006
p15
aVIND @ NYK
p16
aVW
p17
aI39
aI14
aI24
aF0.583
aI2
aI3
aF0.667
aI2
aI2
aF1.0
aI3
aI4
aI7
aI2
aI2
aI0
aI2
aI4
aI32
aI20
aa(lp18
V0020600053
p19
aVNOV 07, 2006
p20
aVIND vs. PHI
p21
aVW
p22
aI31
aI6
aI12
aF0.5
aI2
aI4
aF0.5
aI0
aI0
aF0.0
aI4
aI4
aI8
aI1
aI2
aI0
aI4
aI3
aI14
aI16
aa(lp23
V0020600059
p24
aVNOV 08, 2006
p25
aVIND @ WAS
p26
aVL
p27
aI30
aI10
aI19
aF0.526
aI0
aI1
aF0.0
aI3
aI4
aF0.75
aI2
aI2
aI4
aI2
aI0
aI0
aI4
aI4
aI23
aI-31
aa(lp28
V0020600076
p29
aVNOV 10, 2006
p30
aVIND vs. ORL
p31
aVW
p32
aI38
aI13
aI23
aF0.565
aI0
aI2
aF0.0
aI6
aI7
aF0.857
aI3
aI5
aI8
aI1
aI1
aI0
aI2
aI3
aI32
aI-4
aa(lp33
V0020600086
p34
aVNOV 11, 2006
p35
aVIND @ CHI
p36
aVL
p37
aI38
aI7
aI12
aF0.583
aI1
aI2
aF0.5
aI4
aI4
aF1.0
aI1
aI3
aI4
aI1
aI1
aI0
aI3
aI5
aI19
aI-5
aa(lp38
V0020600110
p39
aVNOV 15, 2006
p40
aVIND @ BOS
p41
aVL
p42
aI32
aI9
aI18
aF0.5
aI2
aI2
aF1.0
aI3
aI4
aF0.75
aI1
aI5
aI6
aI0
aI0
aI0
aI2
aI2
aI23
aI-19
aa(lp43
V0020600119
p44
aVNOV 17, 2006
p45
aVIND vs. NJN
p46
aVL
p47
aI25
aI7
aI13
aF0.538
aI2
aI4
aF0.5
aI2
aI2
aF1.0
aI2
aI2
aI4
aI0
aI0
aI0
aI2
aI5
aI18
aI-18
aa(lp48
V0020600153
p49
aVNOV 21, 2006
p50
aVIND vs. MIL
p51
aVW
p52
aI33
aI3
aI11
aF0.273
aI0
aI0
aF0.0
aI1
aI2
aF0.5
aI7
aI11
aI18
aI2
aI0
aI1
aI3
aI3
aI7
aI-4
aa(lp53
V0020600160
p54
aVNOV 22, 2006
p55
aVIND @ ORL
p56
aVL
p57
aI37
aI2
aI13
aF0.154
aI0
aI1
aF0.0
aI0
aI0
aF0.0
aI2
aI5
aI7
aI2
aI2
aI0
aI3
aI2
aI4
aI-3
aa(lp58
V0020600176
p59
aVNOV 24, 2006
p60
aVIND vs. CLE
p61
aVW
p62
aI28
aI5
aI9
aF0.556
aI0
aI0
aF0.0
aI0
aI2
aF0.0
aI2
aI6
aI8
aI1
aI0
aI0
aI2
aI2
aI10
aI0
aa(lp63
V0020600195
p64
aVNOV 26, 2006
p65
aVIND @ TOR
p66
aVL
p67
aI34
aI4
aI15
aF0.267
aI1
aI2
aF0.5
aI2
aI2
aF1.0
aI5
aI9
aI14
aI1
aI0
aI0
aI2
aI4
aI11
aI-13
aa(lp68
V0020600211
p69
aVNOV 28, 2006
p70
aVIND @ POR
p71
aVW
p72
aI20
aI7
aI12
aF0.583
aI3
aI4
aF0.75
aI0
aI0
aF0.0
aI0
aI5
aI5
aI2
aI0
aI1
aI2
aI2
aI17
aI3
aa(lp73
V0020600221
p74
aVNOV 29, 2006
p75
aVIND @ GSW
p76
aVW
p77
aI38
aI10
aI17
aF0.588
aI6
aI8
aF0.75
aI2
aI4
aF0.5
aI2
aI2
aI4
aI3
aI1
aI0
aI3
aI4
aI28
aI16
aa(lp78
V0020600233
p79
aVDEC 01, 2006
p80
aVIND @ SEA
p81
aVL
p82
aI41
aI11
aI14
aF0.786
aI5
aI7
aF0.714
aI1
aI2
aF0.5
aI1
aI7
aI8
aI3
aI0
aI1
aI4
aI1
aI28
aI-8
aa(lp83
V0020600240
p84
aVDEC 02, 2006
p85
aVIND @ DEN
p86
aVL
p87
aI24
aI7
aI15
aF0.467
aI0
aI2
aF0.0
aI4
aI5
aF0.8
aI2
aI1
aI3
aI1
aI0
aI0
aI3
aI5
aI18
aI-2
aa(lp88
V0020600254
p89
aVDEC 04, 2006
p90
aVIND @ LAL
p91
aVL
p92
aI36
aI2
aI7
aF0.286
aI1
aI2
aF0.5
aI3
aI4
aF0.75
aI2
aI1
aI3
aI2
aI0
aI0
aI2
aI3
aI8
aI-5
aa(lp93
V0020600263
p94
aVDEC 06, 2006
p95
aVIND vs. ORL
p96
aVW
p97
aI34
aI10
aI15
aF0.667
aI2
aI4
aF0.5
aI4
aI7
aF0.571
aI1
aI5
aI6
aI0
aI0
aI1
aI1
aI3
aI26
aI14
aa(lp98
V0020600276
p99
aVDEC 08, 2006
p100
aVIND vs. POR
p101
aVW
p102
aI39
aI7
aI16
aF0.438
aI1
aI4
aF0.25
aI1
aI5
aF0.2
aI1
aI2
aI3
aI3
aI1
aI0
aI1
aI3
aI16
aI23
aa(lp103
V0020600290
p104
aVDEC 09, 2006
p105
aVIND @ CLE
p106
aVL
p107
aI32
aI3
aI13
aF0.231
aI1
aI2
aF0.5
aI1
aI4
aF0.25
aI0
aI4
aI4
aI1
aI0
aI1
aI3
aI2
aI8
aI-24
aa(lp108
V0020600318
p109
aVDEC 13, 2006
p110
aVIND vs. DET
p111
aVW
p112
aI32
aI7
aI12
aF0.583
aI1
aI4
aF0.25
aI1
aI1
aF1.0
aI0
aI5
aI5
aI3
aI0
aI0
aI3
aI4
aI16
aI11
aa(lp113
V0020600331
p114
aVDEC 15, 2006
p115
aVIND vs. NYK
p116
aVW
p117
aI22
aI7
aI16
aF0.438
aI3
aI7
aF0.429
aI0
aI0
aF0.0
aI0
aI1
aI1
aI3
aI1
aI1
aI1
aI2
aI17
aI13
aa(lp118
V0020600352
p119
aVDEC 17, 2006
p120
aVIND vs. UTA
p121
aVL
p122
aI23
aI0
aI3
aF0.0
aI0
aI1
aF0.0
aI0
aI0
aF0.0
aI0
aI6
aI6
aI0
aI0
aI0
aI3
aI5
aI0
aI-16
aa(lp123
V0020600364
p124
aVDEC 20, 2006
p125
aVIND @ PHI
p126
aVW
p127
aI32
aI3
aI11
aF0.273
aI1
aI3
aF0.333
aI0
aI0
aF0.0
aI1
aI1
aI2
aI1
aI0
aI0
aI2
aI4
aI7
aI-3
aa(lp128
V0020600383
p129
aVDEC 22, 2006
p130
aVIND @ ATL
p131
aVW
p132
aI39
aI8
aI17
aF0.471
aI3
aI5
aF0.6
aI1
aI2
aF0.5
aI3
aI1
aI4
aI1
aI1
aI1
aI4
aI3
aI20
aI7
aa(lp133
V0020600392
p134
aVDEC 23, 2006
p135
aVIND vs. MIN
p136
aVL
p137
aI33
aI4
aI10
aF0.4
aI2
aI5
aF0.4
aI2
aI2
aF1.0
aI1
aI5
aI6
aI2
aI0
aI0
aI4
aI4
aI12
aI4
aa(lp138
V0020600405
p139
aVDEC 26, 2006
p140
aVIND vs. HOU
p141
aVW
p142
aI118
aI10
aI24
aF0.417
aI0
aI3
aF0.0
aI3
aI3
aF1.0
aI4
aI10
aI14
aI1
aI3
aI0
aI5
aI3
aI23
aI5
aa(lp143
V0020600434
p144
aVDEC 29, 2006
p145
aVIND @ DET
p146
aVW
p147
aI38
aI6
aI14
aF0.429
aI4
aI7
aF0.571
aI0
aI0
aF0.0
aI1
aI6
aI7
aI1
aI3
aI0
aI2
aI3
aI16
aI14
aa(lp148
V0020600443
p149
aVDEC 30, 2006
p150
aVIND vs. CHA
p151
aVL
p152
aI38
aI4
aI10
aF0.4
aI1
aI6
aF0.167
aI0
aI2
aF0.0
aI0
aI1
aI1
aI0
aI1
aI0
aI2
aI3
aI9
aI-20
aa(lp153
V0020600477
p154
aVJAN 04, 2007
p155
aVIND @ DAL
p156
aVL
p157
aI40
aI8
aI14
aF0.571
aI2
aI5
aF0.4
aI6
aI6
aF1.0
aI2
aI9
aI11
aI0
aI2
aI0
aI4
aI1
aI24
aI-6
aa(lp158
V0020600493
p159
aVJAN 06, 2007
p160
aVIND @ NOK
p161
aVW
p162
aI39
aI10
aI12
aF0.833
aI3
aI3
aF1.0
aI4
aI5
aF0.8
aI3
aI2
aI5
aI3
aI1
aI1
aI2
aI4
aI27
aI8
aa(lp163
V0020600509
p164
aVJAN 09, 2007
p165
aVIND vs. ATL
p166
aVW
p167
aI32
aI6
aI16
aF0.375
aI2
aI5
aF0.4
aI4
aI4
aF1.0
aI2
aI4
aI6
aI1
aI1
aI1
aI4
aI4
aI18
aI9
aa(lp168
V0020600518
p169
aVJAN 10, 2007
p170
aVIND @ BOS
p171
aVW
p172
aI27
aI1
aI10
aF0.1
aI1
aI3
aF0.333
aI4
aI6
aF0.667
aI0
aI2
aI2
aI1
aI1
aI0
aI1
aI3
aI7
aI-3
aa(lp173
V0020600531
p174
aVJAN 12, 2007
p175
aVIND vs. DAL
p176
aVL
p177
aI45
aI1
aI5
aF0.2
aI0
aI1
aF0.0
aI2
aI2
aF1.0
aI2
aI5
aI7
aI1
aI0
aI0
aI3
aI5
aI4
aI-1
aa(lp178
V0020600560
p179
aVJAN 15, 2007
p180
aVIND @ NJN
p181
aVL
p182
aI35
aI7
aI16
aF0.438
aI2
aI5
aF0.4
aI2
aI2
aF1.0
aI3
aI6
aI9
aI2
aI1
aI1
aI1
aI1
aI18
aI-10
aa(lp183
V0020600601
p184
aVJAN 20, 2007
p185
aVGSW vs. CLE
p186
aVL
p187
aI37
aI4
aI21
aF0.19
aI2
aI5
aF0.4
aI4
aI4
aF1.0
aI6
aI6
aI12
aI3
aI3
aI0
aI4
aI5
aI14
aI-12
aa(lp188
V0020600614
p189
aVJAN 22, 2007
p190
aVGSW @ LAL
p191
aVL
p192
aI43
aI13
aI19
aF0.684
aI2
aI3
aF0.667
aI2
aI3
aF0.667
aI1
aI0
aI1
aI3
aI3
aI1
aI3
aI5
aI30
aI-10
aa(lp193
V0020600631
p194
aVJAN 24, 2007
p195
aVGSW vs. NJN
p196
aVW
p197
aI35
aI10
aI14
aF0.714
aI2
aI4
aF0.5
aI7
aI10
aF0.7
aI3
aI1
aI4
aI4
aI1
aI0
aI3
aI4
aI29
aI-2
aa(lp198
V0020600654
p199
aVJAN 27, 2007
p200
aVGSW vs. CHA
p201
aVW
p202
aI29
aI9
aI11
aF0.818
aI5
aI5
aF1.0
aI5
aI7
aF0.714
aI1
aI4
aI5
aI0
aI1
aI0
aI1
aI3
aI28
aI27
aa(lp203
V0020600669
p204
aVJAN 30, 2007
p205
aVGSW @ CLE
p206
aVL
p207
aI35
aI4
aI12
aF0.333
aI0
aI3
aF0.0
aI5
aI6
aF0.833
aI3
aI5
aI8
aI2
aI2
aI1
aI3
aI4
aI13
aI-7
aa(lp208
V0020600676
p209
aVJAN 31, 2007
p210
aVGSW @ ATL
p211
aVL
p212
aI35
aI7
aI15
aF0.467
aI0
aI2
aF0.0
aI7
aI11
aF0.636
aI3
aI5
aI8
aI2
aI2
aI0
aI1
aI2
aI21
aI-15
aa(lp213
V0020600689
p214
aVFEB 02, 2007
p215
aVGSW @ PHI
p216
aVW
p217
aI31
aI4
aI14
aF0.286
aI1
aI1
aF1.0
aI2
aI4
aF0.5
aI2
aI6
aI8
aI0
aI1
aI0
aI2
aI5
aI11
aI-3
aa(lp218
V0020600700
p219
aVFEB 03, 2007
p220
aVGSW @ CHA
p221
aVL
p222
aI36
aI7
aI20
aF0.35
aI1
aI5
aF0.2
aI2
aI4
aF0.5
aI5
aI3
aI8
aI3
aI0
aI1
aI4
aI4
aI17
aI-11
aa(lp223
V0020600715
p224
aVFEB 05, 2007
p225
aVGSW @ IND
p226
aVW
p227
aI42
aI6
aI17
aF0.353
aI3
aI5
aF0.6
aI1
aI2
aF0.5
aI2
aI8
aI10
aI5
aI2
aI0
aI4
aI2
aI16
aI11
aa(lp228
V0020600732
p229
aVFEB 07, 2007
p230
aVGSW @ MIN
p231
aVL
p232
aI35
aI6
aI18
aF0.333
aI1
aI2
aF0.5
aI0
aI0
aF0.0
aI3
aI6
aI9
aI6
aI1
aI0
aI0
aI3
aI13
aI-16
aa(lp233
V0020600748
p234
aVFEB 09, 2007
p235
aVGSW vs. CHI
p236
aVW
p237
aI41
aI10
aI26
aF0.385
aI3
aI8
aF0.375
aI1
aI3
aF0.333
aI2
aI7
aI9
aI2
aI0
aI1
aI1
aI6
aI24
aI-9
aa(lp238
V0020600763
p239
aVFEB 11, 2007
p240
aVGSW vs. ATL
p241
aVL
p242
aI22
aI3
aI7
aF0.429
aI0
aI0
aF0.0
aI0
aI0
aF0.0
aI0
aI3
aI3
aI3
aI1
aI0
aI3
aI4
aI6
aI-9
aa(lp243
V0020600766
p244
aVFEB 12, 2007
p245
aVGSW @ DEN
p246
aVL
p247
aI39
aI11
aI23
aF0.478
aI2
aI7
aF0.286
aI0
aI0
aF0.0
aI3
aI5
aI8
aI6
aI0
aI0
aI4
aI3
aI24
aI-24
aa(lp248
V0020600787
p249
aVFEB 14, 2007
p250
aVGSW vs. NYK
p251
aVW
p252
aI43
aI7
aI15
aF0.467
aI2
aI6
aF0.333
aI1
aI2
aF0.5
aI0
aI9
aI9
aI6
aI2
aI1
aI5
aI3
aI17
aI34
aa(lp253
V0020600810
p254
aVFEB 21, 2007
p255
aVGSW vs. MEM
p256
aVW
p257
aI47
aI9
aI16
aF0.563
aI2
aI5
aF0.4
aI2
aI4
aF0.5
aI0
aI5
aI5
aI1
aI2
aI1
aI3
aI4
aI22
aI1
aa(lp258
V0020600826
p259
aVFEB 24, 2007
p260
aVGSW @ LAC
p261
aVL
p262
aI37
aI10
aI20
aF0.5
aI3
aI5
aF0.6
aI1
aI2
aF0.5
aI2
aI5
aI7
aI4
aI0
aI0
aI3
aI5
aI24
aI-12
aa(lp263
V0020600838
p264
aVFEB 25, 2007
p265
aVGSW vs. LAL
p266
aVL
p267
aI28
aI3
aI10
aF0.3
aI0
aI1
aF0.0
aI2
aI2
aF1.0
aI2
aI3
aI5
aI2
aI0
aI0
aI1
aI3
aI8
aI-26
aa(lp268
V0020600853
p269
aVFEB 27, 2007
p270
aVGSW @ MIL
p271
aVL
p272
aI28
aI7
aI16
aF0.438
aI1
aI5
aF0.2
aI0
aI4
aF0.0
aI2
aI3
aI5
aI1
aI1
aI0
aI2
aI2
aI15
aI-12
aa(lp273
V0020600860
p274
aVFEB 28, 2007
p275
aVGSW @ CHI
p276
aVL
p277
aI30
aI4
aI12
aF0.333
aI0
aI4
aF0.0
aI2
aI2
aF1.0
aI0
aI4
aI4
aI4
aI1
aI0
aI4
aI5
aI10
aI-17
aa(lp278
V0020600871
p279
aVMAR 02, 2007
p280
aVGSW @ NYK
p281
aVL
p282
aI43
aI10
aI18
aF0.556
aI4
aI6
aF0.667
aI2
aI4
aF0.5
aI1
aI7
aI8
aI1
aI0
aI1
aI0
aI5
aI26
aI-7
aa(lp283
V0020600888
p284
aVMAR 04, 2007
p285
aVGSW @ WAS
p286
aVL
p287
aI39
aI9
aI21
aF0.429
aI1
aI3
aF0.333
aI6
aI7
aF0.857
aI6
aI7
aI13
aI1
aI0
aI0
aI3
aI5
aI25
aI-2
aa(lp288
V0020600897
p289
aVMAR 05, 2007
p290
aVGSW @ DET
p291
aVW
p292
aI40
aI7
aI16
aF0.438
aI2
aI5
aF0.4
aI0
aI0
aF0.0
aI2
aI8
aI10
aI5
aI3
aI2
aI1
aI5
aI16
aI28
aa(lp293
V0020600916
p294
aVMAR 07, 2007
p295
aVGSW vs. DEN
p296
aVW
p297
aI30
aI7
aI19
aF0.368
aI3
aI6
aF0.5
aI3
aI3
aF1.0
aI0
aI9
aI9
aI0
aI0
aI0
aI2
aI2
aI20
aI9
aa(lp298
V0020600926
p299
aVMAR 09, 2007
p300
aVGSW vs. LAC
p301
aVW
p302
aI34
aI6
aI14
aF0.429
aI0
aI1
aF0.0
aI0
aI0
aF0.0
aI1
aI5
aI6
aI1
aI1
aI0
aI1
aI1
aI12
aI-2
aa(lp303
V0020600942
p304
aVMAR 11, 2007
p305
aVGSW @ POR
p306
aVL
p307
aI22
aI6
aI10
aF0.6
aI2
aI3
aF0.667
aI2
aI2
aF1.0
aI4
aI3
aI7
aI1
aI0
aI0
aI1
aI4
aI16
aI-8
aa(lp308
V0020600947
p309
aVMAR 12, 2007
p310
aVGSW vs. DAL
p311
aVW
p312
aI21
aI5
aI5
aF1.0
aI2
aI2
aF1.0
aI4
aI6
aF0.667
aI0
aI2
aI2
aI1
aI1
aI0
aI0
aI3
aI16
aI18
aa(lp313
V0020600978
p314
aVMAR 16, 2007
p315
aVGSW vs. MIN
p316
aVW
p317
aI22
aI4
aI7
aF0.571
aI1
aI3
aF0.333
aI1
aI1
aF1.0
aI0
aI5
aI5
aI3
aI0
aI0
aI1
aI3
aI10
aI20
aa(lp318
V0020600987
p319
aVMAR 17, 2007
p320
aVGSW @ SEA
p321
aVW
p322
aI37
aI8
aI12
aF0.667
aI2
aI4
aF0.5
aI2
aI2
aF1.0
aI1
aI3
aI4
aI3
aI0
aI0
aI1
aI4
aI20
aI-3
aa(lp323
V0020601003
p324
aVMAR 20, 2007
p325
aVGSW @ UTA
p326
aVL
p327
aI42
aI9
aI16
aF0.563
aI7
aI10
aF0.7
aI2
aI4
aF0.5
aI0
aI5
aI5
aI1
aI1
aI0
aI2
aI3
aI27
aI2
aa(lp328
V0020601030
p329
aVMAR 23, 2007
p330
aVGSW vs. WAS
p331
aVW
p332
aI27
aI4
aI7
aF0.571
aI1
aI3
aF0.333
aI0
aI0
aF0.0
aI0
aI1
aI1
aI0
aI0
aI0
aI1
aI5
aI9
aI0
aa(lp333
V0020601044
p334
aVMAR 25, 2007
p335
aVGSW @ LAL
p336
aVL
p337
aI40
aI8
aI16
aF0.5
aI2
aI8
aF0.25
aI5
aI6
aF0.833
aI1
aI4
aI5
aI2
aI0
aI0
aI2
aI5
aI23
aI-3
aa(lp338
V0020601053
p339
aVMAR 26, 2007
p340
aVGSW vs. SAS
p341
aVL
p342
aI18
aI0
aI5
aF0.0
aI0
aI1
aF0.0
aI1
aI2
aF0.5
aI0
aI3
aI3
aI0
aI0
aI0
aI1
aI3
aI1
aI-8
aa(lp343
V0020601071
p344
aVMAR 29, 2007
p345
aVGSW vs. PHX
p346
aVW
p347
aI22
aI2
aI9
aF0.222
aI0
aI2
aF0.0
aI3
aI4
aF0.75
aI1
aI5
aI6
aI0
aI1
aI0
aI1
aI4
aI7
aI5
aa(lp348
V0020601093
p349
aVAPR 01, 2007
p350
aVGSW vs. MEM
p351
aVW
p352
aI29
aI7
aI13
aF0.538
aI3
aI5
aF0.6
aI0
aI2
aF0.0
aI0
aI3
aI3
aI5
aI1
aI0
aI1
aI3
aI17
aI-1
aa(lp353
V0020601115
p354
aVAPR 04, 2007
p355
aVGSW @ HOU
p356
aVW
p357
aI27
aI4
aI17
aF0.235
aI2
aI8
aF0.25
aI5
aI6
aF0.833
aI3
aI3
aI6
aI1
aI3
aI1
aI1
aI5
aI15
aI-5
aa(lp358
V0020601127
p359
aVAPR 06, 2007
p360
aVGSW @ MEM
p361
aVW
p362
aI22
aI3
aI9
aF0.333
aI1
aI4
aF0.25
aI2
aI4
aF0.5
aI2
aI1
aI3
aI1
aI1
aI0
aI0
aI2
aI9
aI-11
aa(lp363
V0020601137
p364
aVAPR 07, 2007
p365
aVGSW @ SAS
p366
aVL
p367
aI32
aI9
aI15
aF0.6
aI3
aI6
aF0.5
aI1
aI2
aF0.5
aI3
aI4
aI7
aI2
aI2
aI0
aI3
aI6
aI22
aI-3
aa(lp368
V0020601156
p369
aVAPR 09, 2007
p370
aVGSW vs. UTA
p371
aVW
p372
aI28
aI6
aI10
aF0.6
aI1
aI2
aF0.5
aI2
aI2
aF1.0
aI5
aI6
aI11
aI2
aI2
aI1
aI0
aI3
aI15
aI32
aa(lp373
V0020601184
p374
aVAPR 13, 2007
p375
aVGSW @ SAC
p376
aVW
p377
aI29
aI5
aI15
aF0.333
aI1
aI5
aF0.2
aI1
aI2
aF0.5
aI5
aI4
aI9
aI1
aI0
aI0
aI1
aI4
aI12
aI3
aa(lp378
V0020601198
p379
aVAPR 15, 2007
p380
aVGSW vs. MIN
p381
aVW
p382
aI26
aI7
aI13
aF0.538
aI1
aI4
aF0.25
aI3
aI3
aF1.0
aI1
aI5
aI6
aI3
aI0
aI1
aI2
aI2
aI18
aI40
aa(lp383
V0020601216
p384
aVAPR 17, 2007
p385
aVGSW vs. DAL
p386
aVW
p387
aI19
aI2
aI7
aF0.286
aI2
aI3
aF0.667
aI5
aI5
aF1.0
aI2
aI4
aI6
aI3
aI1
aI2
aI2
aI3
aI11
aI11
aa(lp388
V0020601228
p389
aVAPR 18, 2007
p390
aVGSW @ POR
p391
aVW
p392
aI31
aI10
aI16
aF0.625
aI2
aI5
aF0.4
aI2
aI4
aF0.5
aI2
aI5
aI7
aI4
aI0
aI0
aI0
aI1
aI24
aI13
aasS'name'
p393
VAl Harrington
p394
sS'weight'
p395
V245
p396
sS'age'
p397
I26
sS'experience'
p398
I8
sS'height'
p399
V6-9
p400
sS'position'
p401
VForward
p402
s.