(dp0
S'age'
p1
I27
sS'stats'
p2
(lp3
(lp4
V0020601228
p5
aVAPR 18, 2007
p6
aVGSW @ POR
p7
aVW
p8
aI35
aI4
aI16
aF0.25
aI0
aI3
aF0.0
aI4
aI5
aF0.8
aI2
aI8
aI10
aI14
aI3
aI0
aI3
aI3
aI12
aI31
aa(lp9
V0020601216
p10
aVAPR 17, 2007
p11
aVGSW vs. DAL
p12
aVW
p13
aI30
aI5
aI9
aF0.556
aI0
aI1
aF0.0
aI2
aI4
aF0.5
aI0
aI3
aI3
aI4
aI2
aI0
aI0
aI3
aI12
aI26
aa(lp14
V0020601198
p15
aVAPR 15, 2007
p16
aVGSW vs. MIN
p17
aVW
p18
aI25
aI6
aI13
aF0.462
aI1
aI3
aF0.333
aI4
aI4
aF1.0
aI2
aI1
aI3
aI7
aI4
aI0
aI1
aI0
aI17
aI38
aa(lp19
V0020601184
p20
aVAPR 13, 2007
p21
aVGSW @ SAC
p22
aVW
p23
aI38
aI9
aI20
aF0.45
aI2
aI5
aF0.4
aI5
aI6
aF0.833
aI1
aI1
aI2
aI4
aI5
aI0
aI3
aI3
aI25
aI9
aa(lp24
V0020601156
p25
aVAPR 09, 2007
p26
aVGSW vs. UTA
p27
aVW
p28
aI31
aI5
aI11
aF0.455
aI2
aI2
aF1.0
aI7
aI9
aF0.778
aI0
aI3
aI3
aI8
aI1
aI2
aI4
aI3
aI19
aI23
aa(lp29
V0020601137
p30
aVAPR 07, 2007
p31
aVGSW @ SAS
p32
aVL
p33
aI33
aI7
aI14
aF0.5
aI1
aI4
aF0.25
aI2
aI5
aF0.4
aI0
aI1
aI1
aI2
aI0
aI1
aI1
aI3
aI17
aI-8
aa(lp34
V0020601127
p35
aVAPR 06, 2007
p36
aVGSW @ MEM
p37
aVW
p38
aI42
aI11
aI19
aF0.579
aI4
aI9
aF0.444
aI5
aI7
aF0.714
aI0
aI8
aI8
aI9
aI4
aI1
aI8
aI5
aI31
aI22
aa(lp39
V0020601115
p40
aVAPR 04, 2007
p41
aVGSW @ HOU
p42
aVW
p43
aI39
aI7
aI15
aF0.467
aI3
aI5
aF0.6
aI8
aI10
aF0.8
aI0
aI1
aI1
aI10
aI2
aI0
aI3
aI2
aI25
aI10
aa(lp44
V0020601093
p45
aVAPR 01, 2007
p46
aVGSW vs. MEM
p47
aVW
p48
aI11
aI3
aI4
aF0.75
aI1
aI1
aF1.0
aI0
aI0
aF0.0
aI0
aI2
aI2
aI2
aI1
aI2
aI1
aI1
aI7
aI1
aa(lp49
V0020601071
p50
aVMAR 29, 2007
p51
aVGSW vs. PHX
p52
aVW
p53
aI43
aI10
aI22
aF0.455
aI0
aI5
aF0.0
aI1
aI1
aF1.0
aI2
aI6
aI8
aI12
aI3
aI1
aI8
aI5
aI21
aI5
aa(lp54
V0020601053
p55
aVMAR 26, 2007
p56
aVGSW vs. SAS
p57
aVL
p58
aI26
aI7
aI19
aF0.368
aI0
aI7
aF0.0
aI3
aI4
aF0.75
aI0
aI0
aI0
aI3
aI1
aI1
aI1
aI1
aI17
aI-23
aa(lp59
V0020601044
p60
aVMAR 25, 2007
p61
aVGSW @ LAL
p62
aVL
p63
aI35
aI4
aI15
aF0.267
aI3
aI10
aF0.3
aI3
aI4
aF0.75
aI0
aI1
aI1
aI8
aI1
aI0
aI2
aI3
aI14
aI-14
aa(lp64
V0020601030
p65
aVMAR 23, 2007
p66
aVGSW vs. WAS
p67
aVW
p68
aI38
aI10
aI16
aF0.625
aI3
aI6
aF0.5
aI11
aI14
aF0.786
aI0
aI9
aI9
aI15
aI4
aI0
aI3
aI4
aI34
aI19
aa(lp69
V0020601003
p70
aVMAR 20, 2007
p71
aVGSW @ UTA
p72
aVL
p73
aI25
aI7
aI16
aF0.438
aI3
aI4
aF0.75
aI3
aI4
aF0.75
aI0
aI2
aI2
aI7
aI2
aI0
aI1
aI1
aI20
aI10
aa(lp74
V0020600987
p75
aVMAR 17, 2007
p76
aVGSW @ SEA
p77
aVW
p78
aI25
aI6
aI12
aF0.5
aI2
aI3
aF0.667
aI5
aI6
aF0.833
aI0
aI5
aI5
aI4
aI4
aI0
aI4
aI1
aI19
aI15
aa(lp79
V0020600978
p80
aVMAR 16, 2007
p81
aVGSW vs. MIN
p82
aVW
p83
aI24
aI6
aI12
aF0.5
aI2
aI4
aF0.5
aI1
aI1
aF1.0
aI1
aI4
aI5
aI4
aI3
aI0
aI2
aI6
aI15
aI12
aa(lp84
V0020600947
p85
aVMAR 12, 2007
p86
aVGSW vs. DAL
p87
aVW
p88
aI23
aI4
aI10
aF0.4
aI0
aI2
aF0.0
aI1
aI1
aF1.0
aI1
aI3
aI4
aI7
aI2
aI0
aI4
aI3
aI9
aI10
aa(lp89
V0020600926
p90
aVMAR 09, 2007
p91
aVGSW vs. LAC
p92
aVW
p93
aI28
aI8
aI10
aF0.8
aI0
aI1
aF0.0
aI9
aI9
aF1.0
aI1
aI6
aI7
aI3
aI0
aI0
aI3
aI5
aI25
aI18
aa(lp94
V0020600916
p95
aVMAR 07, 2007
p96
aVGSW vs. DEN
p97
aVW
p98
aI30
aI7
aI15
aF0.467
aI2
aI5
aF0.4
aI6
aI7
aF0.857
aI1
aI4
aI5
aI9
aI2
aI1
aI4
aI1
aI22
aI18
aa(lp99
V0020600897
p100
aVMAR 05, 2007
p101
aVGSW @ DET
p102
aVW
p103
aI28
aI5
aI9
aF0.556
aI1
aI2
aF0.5
aI4
aI5
aF0.8
aI0
aI1
aI1
aI5
aI3
aI0
aI7
aI4
aI15
aI17
aa(lp104
V0020600700
p105
aVFEB 03, 2007
p106
aVGSW @ CHA
p107
aVL
p108
aI38
aI8
aI17
aF0.471
aI1
aI5
aF0.2
aI4
aI7
aF0.571
aI0
aI1
aI1
aI4
aI1
aI0
aI4
aI2
aI21
aI-5
aa(lp109
V0020600689
p110
aVFEB 02, 2007
p111
aVGSW @ PHI
p112
aVW
p113
aI45
aI11
aI24
aF0.458
aI0
aI3
aF0.0
aI3
aI5
aF0.6
aI1
aI5
aI6
aI12
aI3
aI0
aI2
aI2
aI25
aI-1
aa(lp114
V0020600676
p115
aVJAN 31, 2007
p116
aVGSW @ ATL
p117
aVL
p118
aI36
aI5
aI12
aF0.417
aI0
aI3
aF0.0
aI7
aI7
aF1.0
aI2
aI4
aI6
aI12
aI1
aI0
aI2
aI2
aI17
aI-21
aa(lp119
V0020600669
p120
aVJAN 30, 2007
p121
aVGSW @ CLE
p122
aVL
p123
aI36
aI7
aI18
aF0.389
aI1
aI7
aF0.143
aI6
aI6
aF1.0
aI1
aI4
aI5
aI8
aI1
aI2
aI5
aI2
aI21
aI-10
aa(lp124
V0020600654
p125
aVJAN 27, 2007
p126
aVGSW vs. CHA
p127
aVW
p128
aI23
aI5
aI8
aF0.625
aI2
aI2
aF1.0
aI5
aI6
aF0.833
aI0
aI3
aI3
aI10
aI3
aI0
aI3
aI3
aI17
aI28
aa(lp129
V0020600631
p130
aVJAN 24, 2007
p131
aVGSW vs. NJN
p132
aVW
p133
aI41
aI6
aI20
aF0.3
aI0
aI6
aF0.0
aI6
aI6
aF1.0
aI0
aI4
aI4
aI10
aI1
aI1
aI3
aI4
aI18
aI4
aa(lp134
V0020600614
p135
aVJAN 22, 2007
p136
aVGSW @ LAL
p137
aVL
p138
aI36
aI7
aI18
aF0.389
aI0
aI3
aF0.0
aI1
aI2
aF0.5
aI0
aI3
aI3
aI7
aI5
aI1
aI5
aI3
aI15
aI10
aa(lp139
V0020600578
p140
aVJAN 17, 2007
p141
aVGSW @ LAC
p142
aVL
p143
aI35
aI9
aI19
aF0.474
aI2
aI5
aF0.4
aI3
aI4
aF0.75
aI3
aI5
aI8
aI8
aI2
aI0
aI4
aI3
aI23
aI-11
aa(lp144
V0020600562
p145
aVJAN 15, 2007
p146
aVGSW vs. LAC
p147
aVW
p148
aI43
aI4
aI18
aF0.222
aI0
aI4
aF0.0
aI11
aI12
aF0.917
aI0
aI2
aI2
aI13
aI3
aI0
aI3
aI3
aI19
aI17
aa(lp149
V0020600540
p150
aVJAN 12, 2007
p151
aVGSW vs. MIA
p152
aVL
p153
aI38
aI8
aI22
aF0.364
aI1
aI6
aF0.167
aI4
aI9
aF0.444
aI0
aI5
aI5
aI10
aI4
aI0
aI2
aI2
aI21
aI-5
aa(lp154
V0020600527
p155
aVJAN 10, 2007
p156
aVGSW vs. ORL
p157
aVL
p158
aI39
aI4
aI14
aF0.286
aI1
aI4
aF0.25
aI4
aI6
aF0.667
aI1
aI1
aI2
aI8
aI3
aI2
aI6
aI4
aI13
aI-7
aa(lp159
V0020600502
p160
aVJAN 07, 2007
p161
aVGSW @ PHX
p162
aVL
p163
aI32
aI8
aI17
aF0.471
aI1
aI2
aF0.5
aI0
aI3
aF0.0
aI1
aI3
aI4
aI2
aI1
aI0
aI5
aI2
aI17
aI-19
aa(lp164
V0020600497
p165
aVJAN 06, 2007
p166
aVGSW vs. SEA
p167
aVW
p168
aI48
aI9
aI19
aF0.474
aI2
aI6
aF0.333
aI2
aI4
aF0.5
aI2
aI5
aI7
aI11
aI1
aI0
aI5
aI5
aI22
aI4
aa(lp169
V0020600471
p170
aVJAN 03, 2007
p171
aVGSW @ MEM
p172
aVL
p173
aI40
aI8
aI14
aF0.571
aI1
aI5
aF0.2
aI5
aI6
aF0.833
aI2
aI5
aI7
aI13
aI2
aI0
aI1
aI2
aI22
aI-22
aa(lp174
V0020600462
p175
aVJAN 02, 2007
p176
aVGSW @ NOK
p177
aVW
p178
aI48
aI10
aI25
aF0.4
aI1
aI8
aF0.125
aI8
aI13
aF0.615
aI2
aI5
aI7
aI7
aI2
aI1
aI3
aI3
aI29
aI8
aa(lp179
V0020600450
p180
aVDEC 30, 2006
p181
aVGSW @ SAC
p182
aVL
p183
aI33
aI3
aI13
aF0.231
aI1
aI5
aF0.2
aI1
aI1
aF1.0
aI3
aI3
aI6
aI4
aI1
aI0
aI2
aI4
aI8
aI-23
aa(lp184
V0020600441
p185
aVDEC 29, 2006
p186
aVGSW vs. BOS
p187
aVW
p188
aI39
aI8
aI20
aF0.4
aI2
aI6
aF0.333
aI9
aI13
aF0.692
aI3
aI3
aI6
aI9
aI2
aI1
aI0
aI5
aI27
aI10
aa(lp189
V0020600414
p190
aVDEC 26, 2006
p191
aVGSW vs. PHI
p192
aVW
p193
aI41
aI9
aI17
aF0.529
aI1
aI5
aF0.2
aI2
aI3
aF0.667
aI1
aI3
aI4
aI16
aI0
aI1
aI5
aI3
aI21
aI26
aa(lp194
V0020600394
p195
aVDEC 23, 2006
p196
aVGSW @ MIA
p197
aVL
p198
aI25
aI5
aI14
aF0.357
aI0
aI3
aF0.0
aI0
aI2
aF0.0
aI2
aI3
aI5
aI4
aI1
aI0
aI3
aI2
aI10
aI-19
aa(lp199
V0020600380
p200
aVDEC 22, 2006
p201
aVGSW @ ORL
p202
aVW
p203
aI43
aI11
aI23
aF0.478
aI3
aI5
aF0.6
aI13
aI15
aF0.867
aI0
aI2
aI2
aI9
aI4
aI1
aI2
aI1
aI38
aI3
aa(lp204
V0020600367
p205
aVDEC 20, 2006
p206
aVGSW @ BOS
p207
aVW
p208
aI45
aI11
aI16
aF0.688
aI2
aI4
aF0.5
aI7
aI9
aF0.778
aI0
aI3
aI3
aI8
aI2
aI0
aI5
aI5
aI31
aI5
aa(lp209
V0020600356
p210
aVDEC 18, 2006
p211
aVGSW @ NJN
p212
aVL
p213
aI44
aI10
aI25
aF0.4
aI4
aI10
aF0.4
aI1
aI2
aF0.5
aI2
aI6
aI8
aI9
aI3
aI0
aI8
aI2
aI25
aI-6
aa(lp214
V0020600351
p215
aVDEC 17, 2006
p216
aVGSW @ TOR
p217
aVL
p218
aI38
aI7
aI17
aF0.412
aI2
aI6
aF0.333
aI4
aI5
aF0.8
aI0
aI3
aI3
aI11
aI1
aI0
aI5
aI2
aI20
aI-2
aa(lp219
V0020600338
p220
aVDEC 15, 2006
p221
aVGSW @ PHX
p222
aVL
p223
aI39
aI7
aI22
aF0.318
aI3
aI7
aF0.429
aI2
aI4
aF0.5
aI1
aI5
aI6
aI7
aI3
aI1
aI2
aI4
aI19
aI7
aa(lp224
V0020600328
p225
aVDEC 14, 2006
p226
aVGSW vs. HOU
p227
aVW
p228
aI41
aI12
aI22
aF0.545
aI2
aI5
aF0.4
aI8
aI11
aF0.727
aI1
aI2
aI3
aI8
aI1
aI0
aI1
aI3
aI34
aI-8
aa(lp229
V0020600312
p230
aVDEC 12, 2006
p231
aVGSW vs. SAC
p232
aVW
p233
aI41
aI4
aI15
aF0.267
aI2
aI4
aF0.5
aI4
aI7
aF0.571
aI1
aI5
aI6
aI13
aI4
aI0
aI3
aI3
aI14
aI15
aa(lp234
V0020600298
p235
aVDEC 10, 2006
p236
aVGSW @ SEA
p237
aVL
p238
aI41
aI10
aI19
aF0.526
aI2
aI3
aF0.667
aI6
aI7
aF0.857
aI2
aI7
aI9
aI13
aI0
aI0
aI1
aI5
aI28
aI1
aa(lp239
V0020600294
p240
aVDEC 09, 2006
p241
aVGSW vs. NOK
p242
aVW
p243
aI37
aI7
aI15
aF0.467
aI1
aI5
aF0.2
aI1
aI1
aF1.0
aI1
aI8
aI9
aI10
aI1
aI0
aI3
aI3
aI16
aI13
aa(lp244
V0020600257
p245
aVDEC 05, 2006
p246
aVGSW @ HOU
p247
aVL
p248
aI30
aI6
aI16
aF0.375
aI3
aI5
aF0.6
aI3
aI5
aF0.6
aI0
aI2
aI2
aI5
aI2
aI0
aI2
aI1
aI18
aI-12
aa(lp249
V0020600250
p250
aVDEC 04, 2006
p251
aVGSW @ SAS
p252
aVL
p253
aI27
aI4
aI15
aF0.267
aI0
aI4
aF0.0
aI0
aI0
aF0.0
aI0
aI4
aI4
aI4
aI2
aI1
aI0
aI1
aI8
aI-27
aa(lp254
V0020600243
p255
aVDEC 02, 2006
p256
aVGSW vs. MIL
p257
aVL
p258
aI41
aI7
aI15
aF0.467
aI0
aI3
aF0.0
aI5
aI6
aF0.833
aI0
aI1
aI1
aI11
aI2
aI0
aI2
aI2
aI19
aI-5
aa(lp259
V0020600221
p260
aVNOV 29, 2006
p261
aVGSW vs. IND
p262
aVL
p263
aI35
aI12
aI25
aF0.48
aI0
aI2
aF0.0
aI0
aI0
aF0.0
aI2
aI7
aI9
aI9
aI2
aI3
aI4
aI1
aI24
aI5
aa(lp264
V0020600170
p265
aVNOV 22, 2006
p266
aVGSW vs. DEN
p267
aVL
p268
aI33
aI6
aI16
aF0.375
aI2
aI7
aF0.286
aI7
aI9
aF0.778
aI0
aI1
aI1
aI4
aI3
aI0
aI5
aI4
aI21
aI-8
aa(lp269
V0020600141
p270
aVNOV 18, 2006
p271
aVGSW vs. SEA
p272
aVW
p273
aI18
aI4
aI6
aF0.667
aI0
aI0
aF0.0
aI0
aI0
aF0.0
aI1
aI1
aI2
aI2
aI0
aI1
aI1
aI1
aI8
aI-2
aa(lp274
V0020600118
p275
aVNOV 16, 2006
p276
aVGSW vs. SAC
p277
aVW
p278
aI45
aI12
aI20
aF0.6
aI2
aI5
aF0.4
aI10
aI10
aF1.0
aI1
aI7
aI8
aI18
aI3
aI0
aI8
aI5
aI36
aI16
aa(lp279
V0020600107
p280
aVNOV 14, 2006
p281
aVGSW vs. TOR
p282
aVW
p283
aI45
aI8
aI24
aF0.333
aI4
aI10
aF0.4
aI2
aI4
aF0.5
aI0
aI3
aI3
aI12
aI2
aI3
aI3
aI3
aI22
aI10
aa(lp284
V0020600089
p285
aVNOV 11, 2006
p286
aVGSW vs. DET
p287
aVW
p288
aI28
aI8
aI14
aF0.571
aI1
aI2
aF0.5
aI3
aI5
aF0.6
aI0
aI1
aI1
aI9
aI5
aI0
aI1
aI3
aI20
aI29
aa(lp289
V0020600071
p290
aVNOV 09, 2006
p291
aVGSW vs. NOK
p292
aVW
p293
aI44
aI11
aI17
aF0.647
aI1
aI4
aF0.25
aI13
aI17
aF0.765
aI0
aI4
aI4
aI9
aI3
aI0
aI0
aI3
aI36
aI11
aa(lp294
V0020600056
p295
aVNOV 07, 2006
p296
aVGSW @ NOK
p297
aVL
p298
aI30
aI8
aI17
aF0.471
aI2
aI5
aF0.4
aI4
aI5
aF0.8
aI0
aI4
aI4
aI4
aI2
aI0
aI1
aI3
aI22
aI-5
aa(lp299
V0020600048
p300
aVNOV 06, 2006
p301
aVGSW @ DAL
p302
aVW
p303
aI48
aI9
aI22
aF0.409
aI2
aI8
aF0.25
aI6
aI9
aF0.667
aI2
aI5
aI7
aI8
aI2
aI1
aI4
aI3
aI26
aI3
aa(lp304
V0020600037
p305
aVNOV 04, 2006
p306
aVGSW @ UTA
p307
aVL
p308
aI25
aI1
aI9
aF0.111
aI0
aI1
aF0.0
aI0
aI3
aF0.0
aI2
aI0
aI2
aI6
aI1
aI0
aI3
aI4
aI2
aI-13
aa(lp309
V0020600030
p310
aVNOV 03, 2006
p311
aVGSW vs. POR
p312
aVW
p313
aI40
aI6
aI15
aF0.4
aI0
aI1
aF0.0
aI5
aI5
aF1.0
aI0
aI4
aI4
aI9
aI2
aI0
aI0
aI3
aI17
aI18
aa(lp314
V0020600015
p315
aVNOV 01, 2006
p316
aVGSW vs. LAL
p317
aVL
p318
aI35
aI6
aI19
aF0.316
aI0
aI4
aF0.0
aI6
aI9
aF0.667
aI0
aI4
aI4
aI6
aI1
aI0
aI3
aI3
aI18
aI-8
aasS'name'
p319
VBaron Davis
p320
sS'experience'
p321
I7
s.