(dp0
S'age'
p1
I29
sS'stats'
p2
(lp3
(lp4
V0020600004
p5
aVNOV 01, 2006
p6
aVIND @ CHA
p7
aVW
p8
aI26
aI3
aI5
aF0.6
aI0
aI0
aF0.0
aI0
aI0
aF0.0
aI3
aI8
aI11
aI0
aI4
aI1
aI3
aI3
aI6
aI18
aa(lp9
V0020600020
p10
aVNOV 03, 2006
p11
aVIND vs. NOK
p12
aVL
p13
aI7
aI0
aI1
aF0.0
aI0
aI0
aF0.0
aI2
aI2
aF1.0
aI2
aI1
aI3
aI0
aI0
aI0
aI2
aI2
aI2
aI-4
aa(lp14
V0020600033
p15
aVNOV 04, 2006
p16
aVIND @ NYK
p17
aVW
p18
aI11
aI2
aI2
aF1.0
aI0
aI0
aF0.0
aI0
aI0
aF0.0
aI0
aI6
aI6
aI0
aI1
aI0
aI2
aI5
aI4
aI4
aa(lp19
V0020600053
p20
aVNOV 07, 2006
p21
aVIND vs. PHI
p22
aVW
p23
aI21
aI2
aI4
aF0.5
aI0
aI0
aF0.0
aI1
aI2
aF0.5
aI5
aI5
aI10
aI2
aI0
aI1
aI3
aI3
aI5
aI3
aa(lp24
V0020600059
p25
aVNOV 08, 2006
p26
aVIND @ WAS
p27
aVL
p28
aI19
aI2
aI4
aF0.5
aI0
aI0
aF0.0
aI1
aI2
aF0.5
aI3
aI3
aI6
aI0
aI2
aI0
aI2
aI3
aI5
aI-11
aa(lp29
V0020600076
p30
aVNOV 10, 2006
p31
aVIND vs. ORL
p32
aVW
p33
aI17
aI1
aI5
aF0.2
aI0
aI0
aF0.0
aI2
aI2
aF1.0
aI4
aI4
aI8
aI1
aI2
aI3
aI0
aI3
aI4
aI8
aa(lp34
V0020600086
p35
aVNOV 11, 2006
p36
aVIND @ CHI
p37
aVL
p38
aI18
aI2
aI2
aF1.0
aI0
aI0
aF0.0
aI3
aI4
aF0.75
aI3
aI4
aI7
aI1
aI2
aI1
aI1
aI3
aI7
aI-19
aa(lp39
V0020600110
p40
aVNOV 15, 2006
p41
aVIND @ BOS
p42
aVL
p43
aI20
aI1
aI2
aF0.5
aI0
aI0
aF0.0
aI0
aI2
aF0.0
aI1
aI3
aI4
aI0
aI0
aI1
aI2
aI2
aI2
aI-2
aa(lp44
V0020600119
p45
aVNOV 17, 2006
p46
aVIND vs. NJN
p47
aVL
p48
aI29
aI2
aI4
aF0.5
aI0
aI1
aF0.0
aI0
aI0
aF0.0
aI3
aI8
aI11
aI0
aI1
aI1
aI1
aI0
aI4
aI5
aa(lp49
V0020600136
p50
aVNOV 18, 2006
p51
aVIND @ MIL
p52
aVW
p53
aI28
aI3
aI5
aF0.6
aI0
aI0
aF0.0
aI5
aI6
aF0.833
aI4
aI5
aI9
aI0
aI0
aI1
aI1
aI2
aI11
aI6
aa(lp54
V0020600153
p55
aVNOV 21, 2006
p56
aVIND vs. MIL
p57
aVW
p58
aI19
aI2
aI2
aF1.0
aI0
aI0
aF0.0
aI0
aI0
aF0.0
aI1
aI1
aI2
aI3
aI0
aI1
aI0
aI2
aI4
aI-6
aa(lp59
V0020600160
p60
aVNOV 22, 2006
p61
aVIND @ ORL
p62
aVL
p63
aI20
aI2
aI5
aF0.4
aI0
aI0
aF0.0
aI1
aI2
aF0.5
aI2
aI7
aI9
aI1
aI2
aI1
aI2
aI4
aI5
aI0
aa(lp64
V0020600176
p65
aVNOV 24, 2006
p66
aVIND vs. CLE
p67
aVW
p68
aI24
aI3
aI4
aF0.75
aI0
aI0
aF0.0
aI2
aI2
aF1.0
aI4
aI4
aI8
aI0
aI1
aI1
aI0
aI1
aI8
aI7
aa(lp69
V0020600195
p70
aVNOV 26, 2006
p71
aVIND @ TOR
p72
aVL
p73
aI20
aI0
aI3
aF0.0
aI0
aI0
aF0.0
aI0
aI0
aF0.0
aI2
aI4
aI6
aI0
aI0
aI0
aI0
aI2
aI0
aI-18
aa(lp74
V0020600211
p75
aVNOV 28, 2006
p76
aVIND @ POR
p77
aVW
p78
aI15
aI1
aI2
aF0.5
aI0
aI0
aF0.0
aI1
aI1
aF1.0
aI2
aI3
aI5
aI0
aI2
aI1
aI1
aI5
aI3
aI0
aa(lp79
V0020600221
p80
aVNOV 29, 2006
p81
aVIND @ GSW
p82
aVW
p83
aI21
aI5
aI8
aF0.625
aI0
aI0
aF0.0
aI1
aI2
aF0.5
aI5
aI5
aI10
aI0
aI1
aI0
aI1
aI1
aI11
aI-1
aa(lp84
V0020600233
p85
aVDEC 01, 2006
p86
aVIND @ SEA
p87
aVL
p88
aI13
aI1
aI1
aF1.0
aI0
aI0
aF0.0
aI0
aI0
aF0.0
aI0
aI2
aI2
aI1
aI0
aI0
aI0
aI4
aI2
aI-14
aa(lp89
V0020600240
p90
aVDEC 02, 2006
p91
aVIND @ DEN
p92
aVL
p93
aI29
aI3
aI12
aF0.25
aI0
aI0
aF0.0
aI2
aI2
aF1.0
aI12
aI6
aI18
aI0
aI1
aI1
aI1
aI4
aI8
aI-14
aa(lp94
V0020600254
p95
aVDEC 04, 2006
p96
aVIND @ LAL
p97
aVL
p98
aI16
aI1
aI1
aF1.0
aI0
aI0
aF0.0
aI2
aI4
aF0.5
aI1
aI2
aI3
aI0
aI0
aI0
aI1
aI3
aI4
aI-20
aa(lp99
V0020600263
p100
aVDEC 06, 2006
p101
aVIND vs. ORL
p102
aVW
p103
aI34
aI4
aI9
aF0.444
aI0
aI0
aF0.0
aI0
aI1
aF0.0
aI7
aI11
aI18
aI1
aI4
aI0
aI1
aI1
aI8
aI19
aa(lp104
V0020600276
p105
aVDEC 08, 2006
p106
aVIND vs. POR
p107
aVW
p108
aI31
aI1
aI4
aF0.25
aI0
aI0
aF0.0
aI1
aI1
aF1.0
aI8
aI5
aI13
aI0
aI1
aI0
aI1
aI4
aI3
aI11
aa(lp109
V0020600290
p110
aVDEC 09, 2006
p111
aVIND @ CLE
p112
aVL
p113
aI24
aI2
aI2
aF1.0
aI0
aI0
aF0.0
aI0
aI0
aF0.0
aI2
aI8
aI10
aI0
aI2
aI0
aI1
aI2
aI4
aI-12
aa(lp114
V0020600306
p115
aVDEC 11, 2006
p116
aVIND @ CHI
p117
aVL
p118
aI31
aI1
aI2
aF0.5
aI0
aI0
aF0.0
aI1
aI2
aF0.5
aI0
aI2
aI2
aI0
aI1
aI1
aI2
aI3
aI3
aI0
aa(lp119
V0020600318
p120
aVDEC 13, 2006
p121
aVIND vs. DET
p122
aVW
p123
aI30
aI1
aI4
aF0.25
aI0
aI0
aF0.0
aI2
aI2
aF1.0
aI3
aI7
aI10
aI0
aI0
aI1
aI1
aI3
aI4
aI-1
aa(lp124
V0020600331
p125
aVDEC 15, 2006
p126
aVIND vs. NYK
p127
aVW
p128
aI24
aI2
aI9
aF0.222
aI0
aI0
aF0.0
aI2
aI5
aF0.4
aI7
aI3
aI10
aI1
aI3
aI1
aI0
aI3
aI6
aI26
aa(lp129
V0020600352
p130
aVDEC 17, 2006
p131
aVIND vs. UTA
p132
aVL
p133
aI18
aI0
aI3
aF0.0
aI0
aI0
aF0.0
aI3
aI4
aF0.75
aI5
aI1
aI6
aI0
aI0
aI0
aI1
aI3
aI3
aI-7
aa(lp134
V0020600364
p135
aVDEC 20, 2006
p136
aVIND @ PHI
p137
aVW
p138
aI31
aI3
aI3
aF1.0
aI0
aI0
aF0.0
aI2
aI2
aF1.0
aI3
aI8
aI11
aI0
aI0
aI0
aI1
aI4
aI8
aI8
aa(lp139
V0020600383
p140
aVDEC 22, 2006
p141
aVIND @ ATL
p142
aVW
p143
aI25
aI1
aI2
aF0.5
aI0
aI0
aF0.0
aI1
aI4
aF0.25
aI4
aI12
aI16
aI0
aI0
aI1
aI0
aI4
aI3
aI7
aa(lp144
V0020600392
p145
aVDEC 23, 2006
p146
aVIND vs. MIN
p147
aVL
p148
aI28
aI0
aI3
aF0.0
aI0
aI0
aF0.0
aI0
aI0
aF0.0
aI2
aI9
aI11
aI2
aI0
aI0
aI4
aI2
aI0
aI9
aa(lp149
V0020600405
p150
aVDEC 26, 2006
p151
aVIND vs. HOU
p152
aVW
p153
aI78
aI0
aI1
aF0.0
aI0
aI0
aF0.0
aI1
aI2
aF0.5
aI3
aI13
aI16
aI3
aI2
aI2
aI0
aI1
aI1
aI2
aa(lp154
V0020600434
p155
aVDEC 29, 2006
p156
aVIND @ DET
p157
aVW
p158
aI33
aI3
aI6
aF0.5
aI0
aI0
aF0.0
aI1
aI1
aF1.0
aI4
aI6
aI10
aI2
aI1
aI0
aI0
aI6
aI7
aI24
aa(lp159
V0020600443
p160
aVDEC 30, 2006
p161
aVIND vs. CHA
p162
aVL
p163
aI29
aI3
aI7
aF0.429
aI0
aI0
aF0.0
aI2
aI2
aF1.0
aI4
aI5
aI9
aI0
aI0
aI0
aI1
aI2
aI8
aI-4
aa(lp164
V0020600477
p165
aVJAN 04, 2007
p166
aVIND @ DAL
p167
aVL
p168
aI33
aI4
aI8
aF0.5
aI0
aI0
aF0.0
aI0
aI0
aF0.0
aI7
aI5
aI12
aI3
aI0
aI0
aI2
aI4
aI8
aI-9
aa(lp169
V0020600493
p170
aVJAN 06, 2007
p171
aVIND @ NOK
p172
aVW
p173
aI19
aI0
aI0
aF0.0
aI0
aI0
aF0.0
aI2
aI2
aF1.0
aI4
aI4
aI8
aI1
aI1
aI0
aI2
aI4
aI2
aI7
aa(lp174
V0020600509
p175
aVJAN 09, 2007
p176
aVIND vs. ATL
p177
aVW
p178
aI30
aI2
aI7
aF0.286
aI0
aI0
aF0.0
aI4
aI5
aF0.8
aI7
aI10
aI17
aI0
aI3
aI0
aI1
aI4
aI8
aI9
aa(lp179
V0020600518
p180
aVJAN 10, 2007
p181
aVIND @ BOS
p182
aVW
p183
aI26
aI2
aI3
aF0.667
aI0
aI0
aF0.0
aI0
aI0
aF0.0
aI4
aI4
aI8
aI2
aI0
aI0
aI1
aI2
aI4
aI7
aa(lp184
V0020600531
p185
aVJAN 12, 2007
p186
aVIND vs. DAL
p187
aVL
p188
aI25
aI1
aI3
aF0.333
aI0
aI0
aF0.0
aI2
aI4
aF0.5
aI4
aI5
aI9
aI0
aI1
aI1
aI1
aI4
aI4
aI-6
aa(lp189
V0020600560
p190
aVJAN 15, 2007
p191
aVIND @ NJN
p192
aVL
p193
aI18
aI2
aI2
aF1.0
aI0
aI0
aF0.0
aI0
aI0
aF0.0
aI1
aI2
aI3
aI2
aI0
aI1
aI0
aI4
aI4
aI-9
aa(lp194
V0020600579
p195
aVJAN 18, 2007
p196
aVIND @ MIA
p197
aVL
p198
aI33
aI6
aI7
aF0.857
aI0
aI0
aF0.0
aI2
aI3
aF0.667
aI6
aI3
aI9
aI0
aI1
aI0
aI3
aI3
aI14
aI-12
aa(lp199
V0020600594
p200
aVJAN 20, 2007
p201
aVIND vs. NYK
p202
aVL
p203
aI19
aI2
aI2
aF1.0
aI0
aI0
aF0.0
aI2
aI2
aF1.0
aI3
aI0
aI3
aI0
aI1
aI0
aI0
aI5
aI6
aI-4
aa(lp204
V0020600608
p205
aVJAN 22, 2007
p206
aVIND vs. CHI
p207
aVW
p208
aI13
aI2
aI3
aF0.667
aI0
aI0
aF0.0
aI0
aI0
aF0.0
aI1
aI4
aI5
aI0
aI0
aI0
aI1
aI0
aI4
aI-13
aa(lp209
V0020600624
p210
aVJAN 24, 2007
p211
aVIND vs. MIA
p212
aVW
p213
aI19
aI0
aI0
aF0.0
aI0
aI0
aF0.0
aI2
aI4
aF0.5
aI2
aI4
aI6
aI1
aI0
aI0
aI0
aI0
aI2
aI10
aa(lp214
V0020600647
p215
aVJAN 27, 2007
p216
aVIND vs. TOR
p217
aVW
p218
aI20
aI0
aI0
aF0.0
aI0
aI0
aF0.0
aI0
aI0
aF0.0
aI3
aI9
aI12
aI0
aI0
aI0
aI0
aI4
aI0
aI16
aa(lp219
V0020600659
p220
aVJAN 28, 2007
p221
aVIND @ DET
p222
aVL
p223
aI23
aI1
aI3
aF0.333
aI0
aI0
aF0.0
aI0
aI0
aF0.0
aI2
aI7
aI9
aI0
aI0
aI0
aI1
aI2
aI2
aI13
aa(lp224
V0020600670
p225
aVJAN 30, 2007
p226
aVIND vs. BOS
p227
aVW
p228
aI24
aI3
aI4
aF0.75
aI0
aI0
aF0.0
aI1
aI2
aF0.5
aI3
aI3
aI6
aI1
aI0
aI0
aI1
aI0
aI7
aI12
aa(lp229
V0020600691
p230
aVFEB 02, 2007
p231
aVIND vs. LAL
p232
aVW
p233
aI33
aI3
aI3
aF1.0
aI0
aI0
aF0.0
aI3
aI6
aF0.5
aI1
aI11
aI12
aI2
aI3
aI1
aI3
aI4
aI9
aI-3
aa(lp234
V0020600702
p235
aVFEB 03, 2007
p236
aVIND @ MEM
p237
aVW
p238
aI25
aI1
aI3
aF0.333
aI0
aI0
aF0.0
aI2
aI2
aF1.0
aI3
aI1
aI4
aI2
aI1
aI0
aI3
aI5
aI4
aI-7
aa(lp239
V0020600715
p240
aVFEB 05, 2007
p241
aVIND vs. GSW
p242
aVL
p243
aI13
aI1
aI3
aF0.333
aI0
aI0
aF0.0
aI1
aI2
aF0.5
aI1
aI2
aI3
aI0
aI0
aI1
aI1
aI3
aI3
aI-14
aa(lp244
V0020600730
p245
aVFEB 07, 2007
p246
aVIND vs. SEA
p247
aVL
p248
aI31
aI2
aI4
aF0.5
aI0
aI0
aF0.0
aI0
aI0
aF0.0
aI6
aI6
aI12
aI2
aI0
aI0
aI2
aI3
aI4
aI2
aa(lp249
V0020600742
p250
aVFEB 09, 2007
p251
aVIND vs. DEN
p252
aVL
p253
aI22
aI1
aI3
aF0.333
aI0
aI0
aF0.0
aI0
aI0
aF0.0
aI4
aI3
aI7
aI0
aI1
aI3
aI0
aI5
aI2
aI-8
aa(lp254
V0020600758
p255
aVFEB 11, 2007
p256
aVIND vs. LAC
p257
aVW
p258
aI31
aI2
aI4
aF0.5
aI0
aI0
aF0.0
aI0
aI3
aF0.0
aI6
aI6
aI12
aI1
aI1
aI1
aI0
aI1
aI4
aI12
aa(lp259
V0020600779
p260
aVFEB 14, 2007
p261
aVIND vs. MEM
p262
aVW
p263
aI28
aI3
aI3
aF1.0
aI0
aI0
aF0.0
aI2
aI2
aF1.0
aI3
aI4
aI7
aI1
aI1
aI0
aI0
aI3
aI8
aI16
aa(lp264
V0020600803
p265
aVFEB 21, 2007
p266
aVIND vs. MIL
p267
aVW
p268
aI22
aI0
aI3
aF0.0
aI0
aI0
aF0.0
aI0
aI0
aF0.0
aI4
aI2
aI6
aI1
aI0
aI0
aI0
aI4
aI0
aI0
aa(lp269
V0020600814
p270
aVFEB 23, 2007
p271
aVIND @ TOR
p272
aVL
p273
aI17
aI1
aI1
aF1.0
aI0
aI0
aF0.0
aI1
aI2
aF0.5
aI6
aI3
aI9
aI2
aI1
aI0
aI1
aI2
aI3
aI1
aa(lp274
V0020600839
p275
aVFEB 25, 2007
p276
aVIND vs. SAC
p277
aVL
p278
aI21
aI2
aI5
aF0.4
aI0
aI0
aF0.0
aI0
aI3
aF0.0
aI5
aI4
aI9
aI2
aI1
aI1
aI0
aI1
aI4
aI-12
aa(lp279
V0020600851
p280
aVFEB 27, 2007
p281
aVIND vs. PHX
p282
aVL
p283
aI20
aI0
aI3
aF0.0
aI0
aI0
aF0.0
aI0
aI0
aF0.0
aI6
aI8
aI14
aI0
aI0
aI0
aI1
aI1
aI0
aI-19
aa(lp284
V0020600877
p285
aVMAR 02, 2007
p286
aVIND @ PHX
p287
aVL
p288
aI28
aI0
aI5
aF0.0
aI0
aI0
aF0.0
aI2
aI2
aF1.0
aI4
aI2
aI6
aI0
aI3
aI1
aI0
aI4
aI2
aI-17
aa(lp289
V0020600886
p290
aVMAR 03, 2007
p291
aVIND @ LAC
p292
aVL
p293
aI8
aI0
aI0
aF0.0
aI0
aI0
aF0.0
aI0
aI0
aF0.0
aI0
aI0
aI0
aI0
aI1
aI0
aI1
aI3
aI0
aI-9
aa(lp294
V0020600905
p295
aVMAR 06, 2007
p296
aVIND @ SAC
p297
aVL
p298
aI16
aI1
aI1
aF1.0
aI0
aI0
aF0.0
aI0
aI0
aF0.0
aI2
aI1
aI3
aI0
aI1
aI0
aI2
aI1
aI2
aI-7
aa(lp299
V0020600914
p300
aVMAR 07, 2007
p301
aVIND @ UTA
p302
aVL
p303
aI25
aI2
aI2
aF1.0
aI0
aI0
aF0.0
aI0
aI2
aF0.0
aI1
aI8
aI9
aI1
aI1
aI0
aI0
aI2
aI4
aI-2
aa(lp304
V0020600930
p305
aVMAR 10, 2007
p306
aVIND vs. PHI
p307
aVL
p308
aI20
aI0
aI2
aF0.0
aI0
aI0
aF0.0
aI0
aI0
aF0.0
aI1
aI2
aI3
aI1
aI0
aI1
aI1
aI2
aI0
aI-11
aa(lp309
V0020600940
p310
aVMAR 11, 2007
p311
aVIND @ CLE
p312
aVL
p313
aI21
aI2
aI4
aF0.5
aI0
aI0
aF0.0
aI0
aI0
aF0.0
aI5
aI6
aI11
aI3
aI1
aI0
aI1
aI4
aI4
aI-9
aa(lp314
V0020600953
p315
aVMAR 13, 2007
p316
aVIND @ MIN
p317
aVL
p318
aI29
aI1
aI7
aF0.143
aI0
aI0
aF0.0
aI1
aI2
aF0.5
aI3
aI8
aI11
aI0
aI1
aI0
aI1
aI4
aI3
aI4
aa(lp319
V0020601004
p320
aVMAR 20, 2007
p321
aVIND @ HOU
p322
aVL
p323
aI20
aI2
aI2
aF1.0
aI0
aI0
aF0.0
aI0
aI0
aF0.0
aI3
aI4
aI7
aI1
aI0
aI0
aI0
aI3
aI4
aI0
aa(lp324
V0020601012
p325
aVMAR 21, 2007
p326
aVIND @ SAS
p327
aVL
p328
aI20
aI0
aI2
aF0.0
aI0
aI0
aF0.0
aI0
aI0
aF0.0
aI2
aI4
aI6
aI0
aI1
aI1
aI1
aI3
aI0
aI-21
aa(lp329
V0020601023
p330
aVMAR 23, 2007
p331
aVIND vs. MIA
p332
aVW
p333
aI26
aI2
aI2
aF1.0
aI0
aI0
aF0.0
aI0
aI0
aF0.0
aI1
aI4
aI5
aI1
aI0
aI0
aI0
aI3
aI4
aI25
aa(lp334
V0020601037
p335
aVMAR 25, 2007
p336
aVIND vs. CHI
p337
aVL
p338
aI22
aI1
aI2
aF0.5
aI0
aI0
aF0.0
aI0
aI0
aF0.0
aI2
aI3
aI5
aI2
aI0
aI1
aI1
aI1
aI2
aI0
aa(lp339
V0020601054
p340
aVMAR 27, 2007
p341
aVIND vs. CLE
p342
aVL
p343
aI15
aI0
aI1
aF0.0
aI0
aI0
aF0.0
aI0
aI0
aF0.0
aI0
aI5
aI5
aI0
aI1
aI0
aI0
aI2
aI0
aI-4
aa(lp344
V0020601062
p345
aVMAR 28, 2007
p346
aVIND @ NJN
p347
aVL
p348
aI20
aI0
aI4
aF0.0
aI0
aI0
aF0.0
aI3
aI4
aF0.75
aI4
aI3
aI7
aI2
aI1
aI0
aI1
aI3
aI3
aI-13
aa(lp349
V0020601075
p350
aVMAR 30, 2007
p351
aVIND @ ORL
p352
aVL
p353
aI27
aI3
aI3
aF1.0
aI0
aI0
aF0.0
aI1
aI2
aF0.5
aI2
aI5
aI7
aI0
aI1
aI1
aI1
aI2
aI7
aI-4
aa(lp354
V0020601090
p355
aVAPR 01, 2007
p356
aVIND vs. SAS
p357
aVW
p358
aI9
aI0
aI3
aF0.0
aI0
aI0
aF0.0
aI0
aI0
aF0.0
aI4
aI5
aI9
aI0
aI0
aI0
aI0
aI0
aI0
aI-5
aa(lp359
V0020601157
p360
aVAPR 10, 2007
p361
aVIND @ PHI
p362
aVL
p363
aI20
aI5
aI6
aF0.833
aI0
aI0
aF0.0
aI5
aI5
aF1.0
aI6
aI3
aI9
aI1
aI0
aI0
aI0
aI3
aI15
aI1
aa(lp364
V0020601167
p365
aVAPR 11, 2007
p366
aVIND @ MIL
p367
aVW
p368
aI21
aI1
aI3
aF0.333
aI0
aI0
aF0.0
aI1
aI2
aF0.5
aI3
aI10
aI13
aI1
aI0
aI2
aI0
aI1
aI3
aI5
aa(lp369
V0020601179
p370
aVAPR 13, 2007
p371
aVIND @ MIA
p372
aVL
p373
aI31
aI4
aI5
aF0.8
aI0
aI0
aF0.0
aI2
aI2
aF1.0
aI4
aI0
aI4
aI2
aI1
aI1
aI0
aI3
aI10
aI-3
aa(lp374
V0020601196
p375
aVAPR 15, 2007
p376
aVIND vs. NJN
p377
aVL
p378
aI19
aI0
aI2
aF0.0
aI0
aI0
aF0.0
aI0
aI0
aF0.0
aI5
aI2
aI7
aI1
aI0
aI0
aI0
aI0
aI0
aI-11
aasS'name'
p379
VJeff Foster
p380
sS'experience'
p381
I7
s.