(dp0
S'stats'
p1
(lp2
(lp3
V0020600028
p4
aVNOV 03, 2006
p5
aVUTA @ PHX
p6
aVW
p7
aI15
aI3
aI4
aF0.75
aI2
aI2
aF1.0
aI0
aI0
aF0.0
aI0
aI1
aI1
aI1
aI0
aI0
aI1
aI1
aI8
aI8
aa(lp8
V0020600037
p9
aVNOV 04, 2006
p10
aVUTA vs. GSW
p11
aVW
p12
aI20
aI2
aI4
aF0.5
aI1
aI1
aF1.0
aI0
aI0
aF0.0
aI0
aI3
aI3
aI3
aI0
aI0
aI1
aI2
aI5
aI12
aa(lp13
V0020600049
p14
aVNOV 06, 2006
p15
aVUTA vs. DET
p16
aVW
p17
aI17
aI6
aI6
aF1.0
aI1
aI1
aF1.0
aI0
aI0
aF0.0
aI2
aI1
aI3
aI0
aI0
aI0
aI1
aI4
aI13
aI4
aa(lp18
V0020600062
p19
aVNOV 08, 2006
p20
aVUTA @ NJN
p21
aVL
p22
aI19
aI4
aI9
aF0.444
aI1
aI2
aF0.5
aI2
aI2
aF1.0
aI2
aI3
aI5
aI3
aI0
aI0
aI0
aI3
aI11
aI4
aa(lp23
V0020600167
p24
aVNOV 22, 2006
p25
aVUTA @ SAC
p26
aVW
p27
aI16
aI1
aI6
aF0.167
aI0
aI2
aF0.0
aI0
aI0
aF0.0
aI0
aI0
aI0
aI1
aI0
aI1
aI0
aI4
aI2
aI-4
aa(lp28
V0020600181
p29
aVNOV 24, 2006
p30
aVUTA vs. LAL
p31
aVW
p32
aI18
aI3
aI5
aF0.6
aI1
aI2
aF0.5
aI5
aI5
aF1.0
aI0
aI0
aI0
aI1
aI1
aI0
aI0
aI2
aI12
aI1
aa(lp33
V0020600194
p34
aVNOV 25, 2006
p35
aVUTA @ GSW
p36
aVL
p37
aI17
aI2
aI7
aF0.286
aI0
aI2
aF0.0
aI0
aI0
aF0.0
aI1
aI2
aI3
aI1
aI1
aI0
aI0
aI0
aI4
aI-7
aa(lp38
V0020600202
p39
aVNOV 27, 2006
p40
aVUTA vs. ORL
p41
aVL
p42
aI10
aI1
aI4
aF0.25
aI0
aI1
aF0.0
aI0
aI0
aF0.0
aI0
aI1
aI1
aI1
aI0
aI0
aI3
aI2
aI2
aI-8
aa(lp43
V0020600217
p44
aVNOV 29, 2006
p45
aVUTA vs. SAS
p46
aVW
p47
aI19
aI1
aI6
aF0.167
aI0
aI1
aF0.0
aI2
aI2
aF1.0
aI0
aI0
aI0
aI0
aI0
aI0
aI1
aI1
aI4
aI0
aa(lp48
V0020600223
p49
aVNOV 30, 2006
p50
aVUTA @ LAL
p51
aVL
p52
aI15
aI0
aI5
aF0.0
aI0
aI1
aF0.0
aI2
aI2
aF1.0
aI0
aI0
aI0
aI2
aI0
aI0
aI1
aI4
aI2
aI-9
aa(lp53
V0020600241
p54
aVDEC 02, 2006
p55
aVUTA vs. SEA
p56
aVW
p57
aI7
aI1
aI2
aF0.5
aI0
aI1
aF0.0
aI0
aI0
aF0.0
aI0
aI0
aI0
aI1
aI0
aI0
aI0
aI1
aI2
aI7
aa(lp58
V0020600252
p59
aVDEC 04, 2006
p60
aVUTA vs. MIL
p61
aVW
p62
aI9
aI2
aI3
aF0.667
aI0
aI1
aF0.0
aI0
aI0
aF0.0
aI0
aI0
aI0
aI0
aI0
aI0
aI0
aI1
aI4
aI-8
aa(lp63
V0020600337
p64
aVDEC 15, 2006
p65
aVUTA vs. SAC
p66
aVL
p67
aI18
aI4
aI5
aF0.8
aI1
aI1
aF1.0
aI3
aI4
aF0.75
aI0
aI1
aI1
aI1
aI1
aI0
aI2
aI3
aI12
aI-4
aa(lp68
V0020600352
p69
aVDEC 17, 2006
p70
aVUTA @ IND
p71
aVW
p72
aI12
aI1
aI5
aF0.2
aI0
aI1
aF0.0
aI0
aI0
aF0.0
aI1
aI3
aI4
aI0
aI0
aI0
aI2
aI0
aI2
aI-1
aa(lp73
V0020600357
p74
aVDEC 18, 2006
p75
aVUTA @ NYK
p76
aVL
p77
aI9
aI1
aI7
aF0.143
aI0
aI1
aF0.0
aI1
aI1
aF1.0
aI0
aI0
aI0
aI0
aI0
aI0
aI1
aI0
aI3
aI-9
aa(lp78
V0020600365
p79
aVDEC 20, 2006
p80
aVUTA @ ATL
p81
aVW
p82
aI9
aI2
aI3
aF0.667
aI0
aI1
aF0.0
aI1
aI1
aF1.0
aI0
aI0
aI0
aI2
aI0
aI0
aI1
aI1
aI5
aI-3
aa(lp83
V0020600379
p84
aVDEC 22, 2006
p85
aVUTA @ CHA
p86
aVL
p87
aI6
aI0
aI0
aF0.0
aI0
aI0
aF0.0
aI0
aI0
aF0.0
aI0
aI1
aI1
aI2
aI0
aI0
aI0
aI1
aI0
aI3
aa(lp88
V0020600411
p89
aVDEC 26, 2006
p90
aVUTA vs. LAC
p91
aVW
p92
aI23
aI3
aI5
aF0.6
aI2
aI3
aF0.667
aI0
aI0
aF0.0
aI0
aI0
aI0
aI0
aI1
aI0
aI1
aI5
aI8
aI19
aa(lp93
V0020600427
p94
aVDEC 28, 2006
p95
aVUTA @ SAS
p96
aVL
p97
aI18
aI4
aI8
aF0.5
aI1
aI3
aF0.333
aI2
aI4
aF0.5
aI2
aI2
aI4
aI0
aI1
aI0
aI0
aI2
aI11
aI-19
aa(lp98
V0020600449
p99
aVDEC 30, 2006
p100
aVUTA vs. POR
p101
aVW
p102
aI32
aI3
aI9
aF0.333
aI0
aI2
aF0.0
aI3
aI4
aF0.75
aI0
aI4
aI4
aI2
aI1
aI0
aI2
aI3
aI9
aI12
aa(lp103
V0020600474
p104
aVJAN 03, 2007
p105
aVUTA vs. PHI
p106
aVW
p107
aI22
aI1
aI5
aF0.2
aI0
aI1
aF0.0
aI2
aI2
aF1.0
aI0
aI4
aI4
aI4
aI1
aI1
aI1
aI3
aI4
aI6
aa(lp108
V0020600487
p109
aVJAN 05, 2007
p110
aVUTA @ HOU
p111
aVL
p112
aI11
aI2
aI4
aF0.5
aI0
aI1
aF0.0
aI0
aI0
aF0.0
aI0
aI3
aI3
aI1
aI0
aI0
aI0
aI0
aI4
aI-1
aa(lp113
V0020600495
p114
aVJAN 06, 2007
p115
aVUTA @ DEN
p116
aVW
p117
aI17
aI4
aI7
aF0.571
aI0
aI1
aF0.0
aI1
aI2
aF0.5
aI0
aI3
aI3
aI2
aI1
aI0
aI1
aI2
aI9
aI9
aa(lp118
V0020600513
p119
aVJAN 09, 2007
p120
aVUTA vs. DAL
p121
aVL
p122
aI18
aI2
aI3
aF0.667
aI1
aI1
aF1.0
aI2
aI2
aF1.0
aI0
aI3
aI3
aI2
aI0
aI0
aI2
aI3
aI7
aI-13
aa(lp123
V0020600541
p124
aVJAN 12, 2007
p125
aVUTA @ SEA
p126
aVL
p127
aI25
aI2
aI4
aF0.5
aI0
aI0
aF0.0
aI1
aI2
aF0.5
aI0
aI1
aI1
aI4
aI1
aI0
aI4
aI3
aI5
aI-2
aa(lp128
V0020600548
p129
aVJAN 13, 2007
p130
aVUTA vs. MIA
p131
aVL
p132
aI12
aI0
aI3
aF0.0
aI0
aI1
aF0.0
aI0
aI0
aF0.0
aI0
aI0
aI0
aI0
aI0
aI0
aI1
aI3
aI0
aI-7
aa(lp133
V0020600571
p134
aVJAN 17, 2007
p135
aVUTA @ DET
p136
aVW
p137
aI20
aI0
aI4
aF0.0
aI0
aI1
aF0.0
aI0
aI0
aF0.0
aI0
aI4
aI4
aI0
aI0
aI0
aI0
aI1
aI0
aI9
aa(lp138
V0020600581
p139
aVJAN 19, 2007
p140
aVUTA @ TOR
p141
aVW
p142
aI16
aI0
aI3
aF0.0
aI0
aI0
aF0.0
aI0
aI0
aF0.0
aI1
aI0
aI1
aI1
aI0
aI0
aI3
aI1
aI0
aI1
aa(lp143
V0020600599
p144
aVJAN 20, 2007
p145
aVUTA @ CHI
p146
aVW
p147
aI17
aI1
aI4
aF0.25
aI0
aI1
aF0.0
aI0
aI0
aF0.0
aI0
aI0
aI0
aI0
aI1
aI0
aI1
aI1
aI2
aI5
aa(lp148
V0020600612
p149
aVJAN 22, 2007
p150
aVUTA vs. MIN
p151
aVW
p152
aI13
aI3
aI7
aF0.429
aI0
aI1
aF0.0
aI0
aI0
aF0.0
aI1
aI1
aI2
aI0
aI1
aI0
aI0
aI1
aI6
aI8
aa(lp153
V0020600628
p154
aVJAN 24, 2007
p155
aVUTA vs. MEM
p156
aVL
p157
aI18
aI5
aI10
aF0.5
aI0
aI1
aF0.0
aI0
aI0
aF0.0
aI0
aI2
aI2
aI1
aI0
aI0
aI2
aI1
aI10
aI-13
aa(lp158
V0020600643
p159
aVJAN 26, 2007
p160
aVUTA vs. DEN
p161
aVW
p162
aI15
aI5
aI8
aF0.625
aI3
aI6
aF0.5
aI0
aI1
aF0.0
aI0
aI1
aI1
aI1
aI0
aI0
aI1
aI2
aI13
aI7
aa(lp163
V0020600649
p164
aVJAN 27, 2007
p165
aVUTA @ NOK
p166
aVL
p167
aI10
aI0
aI3
aF0.0
aI0
aI2
aF0.0
aI3
aI4
aF0.75
aI0
aI1
aI1
aI1
aI1
aI1
aI1
aI1
aI3
aI-1
aa(lp168
V0020600667
p169
aVJAN 29, 2007
p170
aVUTA vs. NJN
p171
aVL
p172
aI17
aI4
aI8
aF0.5
aI1
aI2
aF0.5
aI0
aI0
aF0.0
aI0
aI1
aI1
aI2
aI0
aI0
aI1
aI2
aI9
aI9
aa(lp173
V0020600684
p174
aVJAN 31, 2007
p175
aVUTA vs. SAS
p176
aVW
p177
aI21
aI2
aI4
aF0.5
aI0
aI1
aF0.0
aI0
aI0
aF0.0
aI1
aI3
aI4
aI1
aI1
aI1
aI1
aI2
aI4
aI1
aa(lp178
V0020600706
p179
aVFEB 03, 2007
p180
aVUTA @ PHX
p181
aVW
p182
aI25
aI2
aI4
aF0.5
aI1
aI2
aF0.5
aI2
aI2
aF1.0
aI1
aI3
aI4
aI1
aI1
aI0
aI1
aI2
aI7
aI12
aa(lp183
V0020600718
p184
aVFEB 05, 2007
p185
aVUTA vs. CHI
p186
aVW
p187
aI20
aI4
aI8
aF0.5
aI2
aI4
aF0.5
aI2
aI2
aF1.0
aI0
aI2
aI2
aI0
aI0
aI0
aI1
aI3
aI12
aI6
aa(lp188
V0020600754
p189
aVFEB 10, 2007
p190
aVUTA vs. NYK
p191
aVW
p192
aI15
aI1
aI3
aF0.333
aI0
aI2
aF0.0
aI0
aI0
aF0.0
aI1
aI3
aI4
aI4
aI0
aI1
aI1
aI1
aI2
aI1
aa(lp193
V0020600767
p194
aVFEB 12, 2007
p195
aVUTA vs. ATL
p196
aVW
p197
aI19
aI4
aI8
aF0.5
aI2
aI4
aF0.5
aI0
aI0
aF0.0
aI0
aI2
aI2
aI0
aI0
aI0
aI2
aI1
aI10
aI21
aa(lp198
V0020600784
p199
aVFEB 14, 2007
p200
aVUTA vs. CLE
p201
aVW
p202
aI28
aI2
aI8
aF0.25
aI2
aI4
aF0.5
aI2
aI2
aF1.0
aI1
aI1
aI2
aI2
aI1
aI0
aI1
aI2
aI8
aI5
aa(lp203
V0020600797
p204
aVFEB 20, 2007
p205
aVUTA @ POR
p206
aVL
p207
aI24
aI4
aI8
aF0.5
aI0
aI0
aF0.0
aI1
aI2
aF0.5
aI0
aI2
aI2
aI0
aI1
aI0
aI1
aI2
aI9
aI-11
aa(lp208
V0020600824
p209
aVFEB 23, 2007
p210
aVUTA @ DEN
p211
aVW
p212
aI21
aI5
aI13
aF0.385
aI2
aI6
aF0.333
aI0
aI0
aF0.0
aI1
aI3
aI4
aI2
aI1
aI0
aI2
aI4
aI12
aI-2
aa(lp213
V0020600831
p214
aVFEB 24, 2007
p215
aVUTA vs. BOS
p216
aVW
p217
aI23
aI7
aI8
aF0.875
aI1
aI2
aF0.5
aI1
aI2
aF0.5
aI0
aI2
aI2
aI1
aI1
aI0
aI2
aI3
aI16
aI11
aa(lp218
V0020600847
p219
aVFEB 26, 2007
p220
aVUTA vs. LAL
p221
aVL
p222
aI25
aI5
aI9
aF0.556
aI0
aI2
aF0.0
aI2
aI2
aF1.0
aI0
aI2
aI2
aI1
aI0
aI0
aI1
aI3
aI12
aI2
aa(lp223
V0020600858
p224
aVFEB 28, 2007
p225
aVUTA @ MEM
p226
aVW
p227
aI27
aI4
aI5
aF0.8
aI1
aI1
aF1.0
aI0
aI0
aF0.0
aI0
aI2
aI2
aI0
aI2
aI0
aI1
aI3
aI9
aI18
aa(lp228
V0020600874
p229
aVMAR 02, 2007
p230
aVUTA @ MIN
p231
aVW
p232
aI30
aI7
aI11
aF0.636
aI4
aI5
aF0.8
aI2
aI3
aF0.667
aI1
aI4
aI5
aI3
aI1
aI0
aI0
aI1
aI20
aI22
aa(lp233
V0020600891
p234
aVMAR 04, 2007
p235
aVUTA @ NOK
p236
aVW
p237
aI27
aI5
aI8
aF0.625
aI2
aI2
aF1.0
aI1
aI2
aF0.5
aI0
aI2
aI2
aI0
aI1
aI0
aI1
aI5
aI13
aI7
aa(lp238
V0020600898
p239
aVMAR 05, 2007
p240
aVUTA vs. CHA
p241
aVW
p242
aI29
aI3
aI4
aF0.75
aI0
aI0
aF0.0
aI9
aI9
aF1.0
aI0
aI2
aI2
aI2
aI0
aI0
aI1
aI3
aI15
aI7
aa(lp243
V0020600914
p244
aVMAR 07, 2007
p245
aVUTA vs. IND
p246
aVW
p247
aI26
aI1
aI8
aF0.125
aI0
aI2
aF0.0
aI6
aI6
aF1.0
aI0
aI3
aI3
aI0
aI1
aI0
aI1
aI2
aI8
aI11
aa(lp248
V0020600933
p249
aVMAR 10, 2007
p250
aVUTA vs. NOK
p251
aVW
p252
aI35
aI7
aI14
aF0.5
aI1
aI3
aF0.333
aI1
aI2
aF0.5
aI2
aI4
aI6
aI0
aI1
aI0
aI1
aI1
aI16
aI7
aa(lp253
V0020600950
p254
aVMAR 13, 2007
p255
aVUTA @ MIA
p256
aVL
p257
aI33
aI3
aI7
aF0.429
aI2
aI3
aF0.667
aI2
aI2
aF1.0
aI1
aI2
aI3
aI0
aI0
aI0
aI0
aI2
aI10
aI-1
aa(lp258
V0020600960
p259
aVMAR 14, 2007
p260
aVUTA @ ORL
p261
aVL
p262
aI13
aI0
aI2
aF0.0
aI0
aI0
aF0.0
aI2
aI2
aF1.0
aI0
aI0
aI0
aI0
aI0
aI0
aI1
aI1
aI2
aI-9
aa(lp263
V0020600971
p264
aVMAR 16, 2007
p265
aVUTA @ PHI
p266
aVL
p267
aI26
aI4
aI6
aF0.667
aI2
aI2
aF1.0
aI0
aI0
aF0.0
aI1
aI2
aI3
aI1
aI1
aI0
aI3
aI2
aI10
aI10
aa(lp268
V0020601077
p269
aVMAR 30, 2007
p270
aVUTA @ SAS
p271
aVL
p272
aI14
aI1
aI6
aF0.167
aI0
aI2
aF0.0
aI0
aI0
aF0.0
aI0
aI1
aI1
aI0
aI0
aI0
aI2
aI3
aI2
aI-5
aa(lp273
V0020601097
p274
aVAPR 01, 2007
p275
aVUTA @ HOU
p276
aVW
p277
aI26
aI4
aI7
aF0.571
aI1
aI1
aF1.0
aI0
aI0
aF0.0
aI0
aI0
aI0
aI1
aI0
aI0
aI1
aI1
aI9
aI0
aa(lp278
V0020601117
p279
aVAPR 04, 2007
p280
aVUTA @ POR
p281
aVL
p282
aI24
aI5
aI8
aF0.625
aI3
aI5
aF0.6
aI0
aI0
aF0.0
aI0
aI1
aI1
aI0
aI2
aI0
aI2
aI6
aI13
aI2
aa(lp283
V0020601131
p284
aVAPR 06, 2007
p285
aVUTA @ SAC
p286
aVL
p287
aI36
aI6
aI16
aF0.375
aI2
aI6
aF0.333
aI2
aI2
aF1.0
aI1
aI1
aI2
aI2
aI0
aI0
aI0
aI3
aI16
aI-4
aa(lp288
V0020601141
p289
aVAPR 07, 2007
p290
aVUTA vs. SEA
p291
aVL
p292
aI22
aI4
aI9
aF0.444
aI1
aI4
aF0.25
aI1
aI1
aF1.0
aI0
aI4
aI4
aI0
aI1
aI0
aI0
aI0
aI10
aI3
aa(lp293
V0020601156
p294
aVAPR 09, 2007
p295
aVUTA @ GSW
p296
aVL
p297
aI10
aI1
aI3
aF0.333
aI1
aI1
aF1.0
aI1
aI2
aF0.5
aI1
aI2
aI3
aI0
aI0
aI0
aI0
aI0
aI4
aI-5
aa(lp298
V0020601209
p299
aVAPR 16, 2007
p300
aVUTA vs. POR
p301
aVW
p302
aI23
aI6
aI8
aF0.75
aI5
aI6
aF0.833
aI4
aI4
aF1.0
aI1
aI3
aI4
aI0
aI0
aI0
aI2
aI1
aI21
aI18
aa(lp303
V0020601226
p304
aVAPR 18, 2007
p305
aVUTA vs. HOU
p306
aVW
p307
aI26
aI6
aI10
aF0.6
aI2
aI4
aF0.5
aI0
aI2
aF0.0
aI1
aI3
aI4
aI2
aI0
aI0
aI0
aI1
aI14
aI17
aasS'name'
p308
VGordan Giricek
p309
sS'weight'
p310
V220
p311
sS'age'
p312
I29
sS'experience'
p313
I4
sS'height'
p314
V6-6
p315
sS'position'
p316
VGuard
p317
s.