(dp0
S'age'
p1
I23
sS'stats'
p2
(lp3
(lp4
V0020601226
p5
aVAPR 18, 2007
p6
aVHOU @ UTA
p7
aVL
p8
aI19
aI1
aI4
aF0.25
aI1
aI4
aF0.25
aI0
aI0
aF0.0
aI0
aI2
aI2
aI1
aI1
aI0
aI1
aI5
aI3
aI-11
aa(lp9
V0020601115
p10
aVAPR 04, 2007
p11
aVHOU vs. GSW
p12
aVL
p13
aI0
aI0
aI0
aF0.0
aI0
aI0
aF0.0
aI0
aI0
aF0.0
aI0
aI0
aI0
aI0
aI0
aI0
aI0
aI0
aI0
aI-2
aa(lp14
V0020600970
p15
aVMAR 16, 2007
p16
aVHOU @ TOR
p17
aVW
p18
aI1
aI0
aI0
aF0.0
aI0
aI0
aF0.0
aI0
aI0
aF0.0
aI0
aI0
aI0
aI0
aI0
aI0
aI0
aI0
aI0
aI-2
aa(lp19
V0020600923
p20
aVMAR 09, 2007
p21
aVHOU vs. NJN
p22
aVW
p23
aI6
aI0
aI2
aF0.0
aI0
aI1
aF0.0
aI0
aI0
aF0.0
aI0
aI1
aI1
aI0
aI0
aI0
aI1
aI2
aI0
aI-13
aa(lp24
V0020600910
p25
aVMAR 07, 2007
p26
aVHOU @ BOS
p27
aVW
p28
aI3
aI1
aI1
aF1.0
aI1
aI1
aF1.0
aI0
aI0
aF0.0
aI0
aI0
aI0
aI0
aI0
aI0
aI0
aI1
aI3
aI6
aa(lp29
V0020600883
p30
aVMAR 03, 2007
p31
aVHOU vs. SAS
p32
aVL
p33
aI7
aI2
aI3
aF0.667
aI1
aI2
aF0.5
aI0
aI0
aF0.0
aI0
aI3
aI3
aI0
aI1
aI0
aI0
aI0
aI5
aI4
aa(lp34
V0020600845
p35
aVFEB 26, 2007
p36
aVHOU vs. BOS
p37
aVL
p38
aI0
aI0
aI0
aF0.0
aI0
aI0
aF0.0
aI0
aI0
aF0.0
aI0
aI0
aI0
aI0
aI0
aI0
aI0
aI0
aI0
aI0
aa(lp39
V0020600753
p40
aVFEB 10, 2007
p41
aVHOU vs. CHA
p42
aVW
p43
aI3
aI0
aI1
aF0.0
aI0
aI1
aF0.0
aI0
aI0
aF0.0
aI0
aI0
aI0
aI0
aI0
aI0
aI0
aI1
aI0
aI-3
aa(lp44
V0020600746
p45
aVFEB 09, 2007
p46
aVHOU @ DAL
p47
aVL
p48
aI5
aI0
aI1
aF0.0
aI0
aI0
aF0.0
aI0
aI0
aF0.0
aI0
aI0
aI0
aI0
aI1
aI0
aI0
aI1
aI0
aI7
aa(lp49
V0020600717
p50
aVFEB 05, 2007
p51
aVHOU vs. MIN
p52
aVW
p53
aI5
aI0
aI1
aF0.0
aI0
aI1
aF0.0
aI0
aI0
aF0.0
aI0
aI0
aI0
aI0
aI0
aI0
aI0
aI0
aI0
aI-4
aa(lp54
V0020600704
p55
aVFEB 03, 2007
p56
aVHOU vs. NOK
p57
aVL
p58
aI7
aI1
aI1
aF1.0
aI1
aI1
aF1.0
aI0
aI0
aF0.0
aI0
aI1
aI1
aI0
aI0
aI0
aI1
aI0
aI3
aI5
aa(lp59
V0020600665
p60
aVJAN 29, 2007
p61
aVHOU vs. PHI
p62
aVW
p63
aI12
aI2
aI4
aF0.5
aI2
aI4
aF0.5
aI0
aI0
aF0.0
aI0
aI2
aI2
aI1
aI0
aI0
aI0
aI2
aI6
aI-17
aa(lp64
V0020600642
p65
aVJAN 26, 2007
p66
aVHOU vs. POR
p67
aVW
p68
aI3
aI0
aI0
aF0.0
aI0
aI0
aF0.0
aI0
aI0
aF0.0
aI0
aI0
aI0
aI0
aI0
aI0
aI0
aI1
aI0
aI-2
aa(lp69
V0020600566
p70
aVJAN 16, 2007
p71
aVHOU @ DAL
p72
aVL
p73
aI2
aI0
aI0
aF0.0
aI0
aI0
aF0.0
aI0
aI0
aF0.0
aI0
aI0
aI0
aI0
aI0
aI0
aI0
aI0
aI0
aI-1
aa(lp74
V0020600538
p75
aVJAN 12, 2007
p76
aVHOU @ DEN
p77
aVW
p78
aI0
aI0
aI0
aF0.0
aI0
aI0
aF0.0
aI0
aI0
aF0.0
aI0
aI0
aI0
aI0
aI0
aI0
aI0
aI0
aI0
aI0
aa(lp79
V0020600523
p80
aVJAN 10, 2007
p81
aVHOU vs. LAL
p82
aVW
p83
aI5
aI1
aI1
aF1.0
aI1
aI1
aF1.0
aI0
aI0
aF0.0
aI0
aI0
aI0
aI0
aI0
aI0
aI0
aI0
aI3
aI-4
aa(lp84
V0020600499
p85
aVJAN 07, 2007
p86
aVHOU @ MIN
p87
aVL
p88
aI13
aI0
aI2
aF0.0
aI0
aI2
aF0.0
aI0
aI0
aF0.0
aI0
aI2
aI2
aI0
aI1
aI0
aI0
aI3
aI0
aI12
aa(lp89
V0020600487
p90
aVJAN 05, 2007
p91
aVHOU vs. UTA
p92
aVW
p93
aI6
aI0
aI1
aF0.0
aI0
aI1
aF0.0
aI0
aI0
aF0.0
aI0
aI1
aI1
aI0
aI0
aI0
aI0
aI0
aI0
aI0
aa(lp94
V0020600473
p95
aVJAN 03, 2007
p96
aVHOU vs. SEA
p97
aVW
p98
aI8
aI0
aI3
aF0.0
aI0
aI2
aF0.0
aI0
aI0
aF0.0
aI0
aI1
aI1
aI1
aI0
aI0
aI0
aI0
aI0
aI-4
aa(lp99
V0020600454
p100
aVDEC 31, 2006
p101
aVHOU vs. MEM
p102
aVW
p103
aI4
aI1
aI2
aF0.5
aI1
aI2
aF0.5
aI0
aI0
aF0.0
aI0
aI0
aI0
aI0
aI0
aI0
aI0
aI0
aI3
aI-4
aa(lp104
V0020600437
p105
aVDEC 29, 2006
p106
aVHOU vs. ATL
p107
aVW
p108
aI5
aI0
aI1
aF0.0
aI0
aI1
aF0.0
aI0
aI0
aF0.0
aI0
aI1
aI1
aI0
aI0
aI0
aI0
aI1
aI0
aI1
aa(lp109
V0020600419
p110
aVDEC 27, 2006
p111
aVHOU @ NJN
p112
aVW
p113
aI1
aI0
aI0
aF0.0
aI0
aI0
aF0.0
aI0
aI0
aF0.0
aI0
aI0
aI0
aI0
aI0
aI0
aI0
aI0
aI0
aI4
aa(lp114
V0020600405
p115
aVDEC 26, 2006
p116
aVHOU @ IND
p117
aVL
p118
aI2
aI0
aI0
aF0.0
aI0
aI0
aF0.0
aI0
aI0
aF0.0
aI0
aI0
aI0
aI0
aI0
aI0
aI0
aI0
aI0
aI1
aa(lp119
V0020600386
p120
aVDEC 22, 2006
p121
aVHOU @ SAS
p122
aVW
p123
aI1
aI0
aI1
aF0.0
aI0
aI0
aF0.0
aI0
aI0
aF0.0
aI0
aI0
aI0
aI0
aI0
aI0
aI0
aI0
aI0
aI-2
aa(lp124
V0020600374
p125
aVDEC 20, 2006
p126
aVHOU @ POR
p127
aVL
p128
aI1
aI0
aI0
aF0.0
aI0
aI0
aF0.0
aI0
aI0
aF0.0
aI0
aI0
aI0
aI0
aI0
aI0
aI0
aI1
aI0
aI2
aa(lp129
V0020600328
p130
aVDEC 14, 2006
p131
aVHOU @ GSW
p132
aVL
p133
aI3
aI0
aI0
aF0.0
aI0
aI0
aF0.0
aI0
aI0
aF0.0
aI0
aI0
aI0
aI0
aI0
aI0
aI0
aI0
aI0
aI3
aa(lp134
V0020600311
p135
aVDEC 12, 2006
p136
aVHOU vs. LAL
p137
aVL
p138
aI11
aI2
aI4
aF0.5
aI0
aI2
aF0.0
aI0
aI0
aF0.0
aI1
aI1
aI2
aI2
aI0
aI0
aI0
aI0
aI4
aI18
aa(lp139
V0020600274
p140
aVDEC 08, 2006
p141
aVHOU @ CHA
p142
aVW
p143
aI10
aI0
aI2
aF0.0
aI0
aI1
aF0.0
aI2
aI2
aF1.0
aI0
aI6
aI6
aI0
aI0
aI0
aI0
aI0
aI2
aI-3
aa(lp144
V0020600257
p145
aVDEC 05, 2006
p146
aVHOU vs. GSW
p147
aVW
p148
aI5
aI1
aI2
aF0.5
aI0
aI1
aF0.0
aI0
aI0
aF0.0
aI1
aI0
aI1
aI0
aI0
aI0
aI0
aI1
aI2
aI-1
aa(lp149
V0020600239
p150
aVDEC 02, 2006
p151
aVHOU vs. CLE
p152
aVW
p153
aI1
aI0
aI0
aF0.0
aI0
aI0
aF0.0
aI0
aI0
aF0.0
aI0
aI0
aI0
aI0
aI0
aI0
aI0
aI0
aI0
aI-2
aa(lp154
V0020600218
p155
aVNOV 29, 2006
p156
aVHOU @ PHX
p157
aVL
p158
aI19
aI2
aI5
aF0.4
aI2
aI5
aF0.4
aI0
aI0
aF0.0
aI0
aI0
aI0
aI0
aI1
aI0
aI0
aI1
aI6
aI-11
aa(lp159
V0020600190
p160
aVNOV 25, 2006
p161
aVHOU vs. MEM
p162
aVW
p163
aI0
aI1
aI2
aF0.5
aI1
aI2
aF0.5
aI0
aI0
aF0.0
aI0
aI0
aI0
aI0
aI0
aI0
aI0
aI1
aI3
aI2
aa(lp164
V0020600043
p165
aVNOV 05, 2006
p166
aVHOU @ NOK
p167
aVL
p168
aI2
aI0
aI0
aF0.0
aI0
aI0
aF0.0
aI0
aI0
aF0.0
aI0
aI0
aI0
aI0
aI0
aI0
aI0
aI0
aI0
aI-3
aa(lp169
V0020600036
p170
aVNOV 04, 2006
p171
aVHOU vs. DAL
p172
aVW
p173
aI2
aI2
aI2
aF1.0
aI1
aI1
aF1.0
aI0
aI0
aF0.0
aI1
aI1
aI2
aI0
aI0
aI0
aI1
aI0
aI5
aI2
aa(lp174
V0020600012
p175
aVNOV 01, 2006
p176
aVHOU @ UTA
p177
aVL
p178
aI9
aI1
aI4
aF0.25
aI1
aI3
aF0.333
aI0
aI0
aF0.0
aI1
aI0
aI1
aI1
aI0
aI0
aI0
aI0
aI3
aI-10
aasS'name'
p179
VSteve Novak
p180
sS'experience'
p181
I0
s.