(dp0
S'age'
p1
I22
sS'stats'
p2
(lp3
(lp4
V0020601227
p5
aVAPR 18, 2007
p6
aVSAC vs. LAL
p7
aVL
p8
aI28
aI5
aI9
aF0.556
aI1
aI5
aF0.2
aI0
aI0
aF0.0
aI0
aI2
aI2
aI2
aI0
aI0
aI1
aI3
aI11
aI-3
aa(lp9
V0020601210
p10
aVAPR 16, 2007
p11
aVSAC vs. NOK
p12
aVL
p13
aI30
aI5
aI13
aF0.385
aI1
aI5
aF0.2
aI0
aI0
aF0.0
aI0
aI1
aI1
aI3
aI1
aI0
aI0
aI2
aI11
aI-14
aa(lp14
V0020601197
p15
aVAPR 15, 2007
p16
aVSAC @ LAC
p17
aVW
p18
aI27
aI1
aI2
aF0.5
aI1
aI1
aF1.0
aI3
aI4
aF0.75
aI1
aI5
aI6
aI1
aI0
aI2
aI1
aI2
aI6
aI-11
aa(lp19
V0020601184
p20
aVAPR 13, 2007
p21
aVSAC vs. GSW
p22
aVL
p23
aI30
aI1
aI8
aF0.125
aI0
aI3
aF0.0
aI2
aI2
aF1.0
aI0
aI2
aI2
aI0
aI3
aI0
aI2
aI2
aI4
aI-29
aa(lp24
V0020601099
p25
aVAPR 01, 2007
p26
aVSAC @ LAL
p27
aVL
p28
aI3
aI0
aI1
aF0.0
aI0
aI0
aF0.0
aI0
aI0
aF0.0
aI0
aI0
aI0
aI0
aI0
aI0
aI1
aI0
aI0
aI-3
aa(lp29
V0020601019
p30
aVMAR 22, 2007
p31
aVSAC @ PHX
p32
aVL
p33
aI8
aI0
aI2
aF0.0
aI0
aI0
aF0.0
aI0
aI0
aF0.0
aI0
aI1
aI1
aI0
aI0
aI0
aI1
aI1
aI0
aI-3
aa(lp34
V0020600995
p35
aVMAR 19, 2007
p36
aVSAC @ ATL
p37
aVL
p38
aI9
aI2
aI7
aF0.286
aI0
aI4
aF0.0
aI0
aI0
aF0.0
aI0
aI1
aI1
aI1
aI0
aI0
aI2
aI0
aI4
aI9
aa(lp39
V0020600949
p40
aVMAR 13, 2007
p41
aVSAC @ CLE
p42
aVL
p43
aI5
aI2
aI4
aF0.5
aI1
aI2
aF0.5
aI0
aI0
aF0.0
aI0
aI1
aI1
aI0
aI0
aI0
aI0
aI0
aI5
aI-6
aa(lp44
V0020600863
p45
aVFEB 28, 2007
p46
aVSAC vs. CHA
p47
aVW
p48
aI1
aI0
aI0
aF0.0
aI0
aI0
aF0.0
aI0
aI0
aF0.0
aI0
aI1
aI1
aI1
aI0
aI0
aI0
aI0
aI0
aI2
aa(lp49
V0020600839
p50
aVFEB 25, 2007
p51
aVSAC @ IND
p52
aVW
p53
aI2
aI1
aI1
aF1.0
aI0
aI0
aF0.0
aI1
aI1
aF1.0
aI0
aI1
aI1
aI0
aI1
aI0
aI1
aI0
aI3
aI-3
aa(lp54
V0020600817
p55
aVFEB 23, 2007
p56
aVSAC @ NJN
p57
aVL
p58
aI5
aI1
aI1
aF1.0
aI0
aI0
aF0.0
aI0
aI0
aF0.0
aI1
aI1
aI2
aI0
aI0
aI0
aI0
aI0
aI2
aI3
aa(lp59
V0020600796
p60
aVFEB 20, 2007
p61
aVSAC vs. BOS
p62
aVW
p63
aI0
aI0
aI0
aF0.0
aI0
aI0
aF0.0
aI0
aI0
aF0.0
aI0
aI0
aI0
aI0
aI0
aI0
aI0
aI0
aI0
aI0
aa(lp64
V0020600782
p65
aVFEB 14, 2007
p66
aVSAC @ NOK
p67
aVL
p68
aI10
aI1
aI4
aF0.25
aI1
aI3
aF0.333
aI0
aI0
aF0.0
aI0
aI0
aI0
aI0
aI0
aI0
aI0
aI0
aI3
aI5
aa(lp69
V0020600755
p70
aVFEB 10, 2007
p71
aVSAC @ SEA
p72
aVW
p73
aI4
aI1
aI3
aF0.333
aI0
aI0
aF0.0
aI0
aI0
aF0.0
aI0
aI0
aI0
aI0
aI1
aI0
aI1
aI0
aI2
aI-3
aa(lp74
V0020600719
p75
aVFEB 05, 2007
p76
aVSAC vs. NOK
p77
aVW
p78
aI12
aI3
aI5
aF0.6
aI1
aI2
aF0.5
aI0
aI0
aF0.0
aI0
aI0
aI0
aI0
aI0
aI0
aI0
aI0
aI7
aI-5
aa(lp79
V0020600707
p80
aVFEB 03, 2007
p81
aVSAC vs. DEN
p82
aVW
p83
aI5
aI0
aI3
aF0.0
aI0
aI2
aF0.0
aI0
aI0
aF0.0
aI0
aI0
aI0
aI0
aI0
aI0
aI0
aI0
aI0
aI1
aa(lp84
V0020600683
p85
aVJAN 31, 2007
p86
aVSAC @ MIN
p87
aVW
p88
aI5
aI1
aI3
aF0.333
aI0
aI1
aF0.0
aI0
aI0
aF0.0
aI0
aI0
aI0
aI0
aI0
aI0
aI0
aI0
aI2
aI-1
aa(lp89
V0020600651
p90
aVJAN 27, 2007
p91
aVSAC @ DAL
p92
aVL
p93
aI5
aI0
aI2
aF0.0
aI0
aI0
aF0.0
aI0
aI0
aF0.0
aI1
aI0
aI1
aI1
aI1
aI0
aI0
aI1
aI0
aI5
aa(lp94
V0020600629
p95
aVJAN 24, 2007
p96
aVSAC vs. MIL
p97
aVW
p98
aI3
aI1
aI2
aF0.5
aI0
aI1
aF0.0
aI0
aI1
aF0.0
aI0
aI0
aI0
aI0
aI0
aI0
aI0
aI1
aI2
aI-5
aa(lp99
V0020600613
p100
aVJAN 22, 2007
p101
aVSAC vs. NJN
p102
aVW
p103
aI3
aI0
aI0
aF0.0
aI0
aI0
aF0.0
aI0
aI0
aF0.0
aI0
aI1
aI1
aI0
aI0
aI0
aI0
aI0
aI0
aI-4
aa(lp104
V0020600596
p105
aVJAN 20, 2007
p106
aVSAC @ DET
p107
aVL
p108
aI16
aI3
aI8
aF0.375
aI0
aI1
aF0.0
aI0
aI0
aF0.0
aI1
aI0
aI1
aI0
aI0
aI0
aI0
aI2
aI6
aI4
aa(lp109
V0020600584
p110
aVJAN 19, 2007
p111
aVSAC @ BOS
p112
aVW
p113
aI4
aI0
aI0
aF0.0
aI0
aI0
aF0.0
aI0
aI0
aF0.0
aI0
aI0
aI0
aI1
aI0
aI0
aI0
aI0
aI0
aI3
aa(lp114
V0020600568
p115
aVJAN 17, 2007
p116
aVSAC @ TOR
p117
aVL
p118
aI5
aI0
aI0
aF0.0
aI0
aI0
aF0.0
aI0
aI0
aF0.0
aI0
aI0
aI0
aI0
aI0
aI0
aI0
aI0
aI0
aI-3
aa(lp119
V0020600554
p120
aVJAN 15, 2007
p121
aVSAC @ NYK
p122
aVL
p123
aI3
aI0
aI1
aF0.0
aI0
aI1
aF0.0
aI0
aI0
aF0.0
aI0
aI0
aI0
aI0
aI0
aI0
aI0
aI0
aI0
aI-9
aa(lp124
V0020600550
p125
aVJAN 13, 2007
p126
aVSAC vs. HOU
p127
aVL
p128
aI12
aI0
aI0
aF0.0
aI0
aI0
aF0.0
aI1
aI2
aF0.5
aI0
aI0
aI0
aI0
aI0
aI0
aI0
aI0
aI1
aI7
aa(lp129
V0020600537
p130
aVJAN 12, 2007
p131
aVSAC @ POR
p132
aVL
p133
aI4
aI0
aI0
aF0.0
aI0
aI0
aF0.0
aI0
aI0
aF0.0
aI0
aI0
aI0
aI0
aI0
aI0
aI0
aI0
aI0
aI0
aa(lp134
V0020600515
p135
aVJAN 09, 2007
p136
aVSAC vs. CLE
p137
aVL
p138
aI5
aI0
aI1
aF0.0
aI0
aI0
aF0.0
aI0
aI0
aF0.0
aI1
aI0
aI1
aI0
aI0
aI0
aI0
aI1
aI0
aI2
aa(lp139
V0020600496
p140
aVJAN 06, 2007
p141
aVSAC vs. POR
p142
aVL
p143
aI6
aI1
aI3
aF0.333
aI1
aI1
aF1.0
aI0
aI0
aF0.0
aI0
aI0
aI0
aI0
aI1
aI0
aI0
aI0
aI3
aI-3
aa(lp144
V0020600478
p145
aVJAN 04, 2007
p146
aVSAC vs. LAL
p147
aVL
p148
aI3
aI0
aI1
aF0.0
aI0
aI1
aF0.0
aI0
aI0
aF0.0
aI0
aI0
aI0
aI0
aI0
aI0
aI0
aI0
aI0
aI-2
aa(lp149
V0020600466
p150
aVJAN 02, 2007
p151
aVSAC vs. NYK
p152
aVW
p153
aI10
aI1
aI2
aF0.5
aI1
aI1
aF1.0
aI0
aI0
aF0.0
aI0
aI2
aI2
aI1
aI0
aI0
aI1
aI1
aI3
aI-8
aa(lp154
V0020600450
p155
aVDEC 30, 2006
p156
aVSAC vs. GSW
p157
aVW
p158
aI30
aI9
aI13
aF0.692
aI2
aI4
aF0.5
aI1
aI1
aF1.0
aI1
aI4
aI5
aI1
aI3
aI1
aI1
aI0
aI21
aI22
aa(lp159
V0020600440
p160
aVDEC 29, 2006
p161
aVSAC @ LAC
p162
aVL
p163
aI5
aI0
aI1
aF0.0
aI0
aI1
aF0.0
aI0
aI0
aF0.0
aI0
aI1
aI1
aI0
aI1
aI0
aI0
aI0
aI0
aI-5
aa(lp164
V0020600423
p165
aVDEC 27, 2006
p166
aVSAC vs. PHI
p167
aVW
p168
aI12
aI1
aI5
aF0.2
aI1
aI3
aF0.333
aI0
aI0
aF0.0
aI0
aI0
aI0
aI1
aI0
aI0
aI0
aI2
aI3
aI4
aa(lp169
V0020600389
p170
aVDEC 22, 2006
p171
aVSAC @ DEN
p172
aVW
p173
aI17
aI3
aI6
aF0.5
aI0
aI2
aF0.0
aI2
aI2
aF1.0
aI1
aI0
aI1
aI0
aI1
aI1
aI1
aI0
aI8
aI-1
aa(lp174
V0020600378
p175
aVDEC 21, 2006
p176
aVSAC vs. WAS
p177
aVL
p178
aI6
aI0
aI1
aF0.0
aI0
aI1
aF0.0
aI0
aI0
aF0.0
aI0
aI1
aI1
aI1
aI0
aI0
aI1
aI2
aI0
aI1
aa(lp179
V0020600361
p180
aVDEC 18, 2006
p181
aVSAC vs. DAL
p182
aVL
p183
aI4
aI1
aI3
aF0.333
aI0
aI1
aF0.0
aI1
aI2
aF0.5
aI1
aI0
aI1
aI1
aI0
aI0
aI0
aI0
aI3
aI4
aa(lp184
V0020600350
p185
aVDEC 16, 2006
p186
aVSAC vs. PHX
p187
aVL
p188
aI1
aI0
aI0
aF0.0
aI0
aI0
aF0.0
aI0
aI0
aF0.0
aI0
aI0
aI0
aI0
aI0
aI0
aI0
aI0
aI0
aI2
aa(lp189
V0020600258
p190
aVDEC 05, 2006
p191
aVSAC @ PHX
p192
aVL
p193
aI7
aI2
aI4
aF0.5
aI1
aI2
aF0.5
aI0
aI0
aF0.0
aI1
aI0
aI1
aI0
aI0
aI0
aI0
aI0
aI5
aI-2
aa(lp194
V0020600230
p195
aVDEC 01, 2006
p196
aVSAC @ DAL
p197
aVL
p198
aI7
aI1
aI5
aF0.2
aI0
aI1
aF0.0
aI0
aI0
aF0.0
aI1
aI1
aI2
aI0
aI2
aI0
aI1
aI1
aI2
aI7
aa(lp199
V0020600143
p200
aVNOV 19, 2006
p201
aVSAC vs. SAS
p202
aVL
p203
aI3
aI0
aI1
aF0.0
aI0
aI1
aF0.0
aI0
aI0
aF0.0
aI0
aI0
aI0
aI0
aI0
aI0
aI0
aI0
aI0
aI5
aa(lp204
V0020600118
p205
aVNOV 16, 2006
p206
aVSAC @ GSW
p207
aVL
p208
aI1
aI1
aI1
aF1.0
aI0
aI0
aF0.0
aI0
aI0
aF0.0
aI1
aI0
aI1
aI0
aI0
aI0
aI0
aI0
aI2
aI2
aa(lp209
V0020600094
p210
aVNOV 12, 2006
p211
aVSAC vs. TOR
p212
aVW
p213
aI3
aI0
aI0
aF0.0
aI0
aI0
aF0.0
aI0
aI0
aF0.0
aI0
aI0
aI0
aI0
aI0
aI0
aI0
aI0
aI0
aI-3
aasS'name'
p214
VQuincy Douby
p215
sS'experience'
p216
I0
s.