(dp0
S'age'
p1
I20
sS'stats'
p2
(lp3
(lp4
V0020600013
p5
aVNOV 01, 2006
p6
aVSEA vs. POR
p7
aVL
p8
aI12
aI0
aI1
aF0.0
aI0
aI0
aF0.0
aI0
aI0
aF0.0
aI1
aI1
aI2
aI0
aI0
aI1
aI0
aI1
aI0
aI0
aa(lp9
V0020600029
p10
aVNOV 03, 2006
p11
aVSEA @ LAL
p12
aVL
p13
aI11
aI0
aI1
aF0.0
aI0
aI0
aF0.0
aI0
aI2
aF0.0
aI0
aI2
aI2
aI0
aI1
aI1
aI1
aI3
aI0
aI-8
aa(lp14
V0020600044
p15
aVNOV 05, 2006
p16
aVSEA vs. LAL
p17
aVW
p18
aI2
aI0
aI1
aF0.0
aI0
aI0
aF0.0
aI0
aI0
aF0.0
aI0
aI1
aI1
aI0
aI0
aI0
aI0
aI0
aI0
aI0
aa(lp19
V0020600128
p20
aVNOV 17, 2006
p21
aVSEA vs. UTA
p22
aVL
p23
aI4
aI0
aI0
aF0.0
aI0
aI0
aF0.0
aI0
aI0
aF0.0
aI0
aI1
aI1
aI0
aI0
aI0
aI0
aI1
aI0
aI-4
aa(lp24
V0020600198
p25
aVNOV 26, 2006
p26
aVSEA vs. SAS
p27
aVL
p28
aI2
aI0
aI0
aF0.0
aI0
aI0
aF0.0
aI0
aI0
aF0.0
aI0
aI1
aI1
aI0
aI0
aI0
aI0
aI0
aI0
aI-3
aa(lp29
V0020600219
p30
aVNOV 29, 2006
p31
aVSEA vs. ORL
p32
aVL
p33
aI3
aI1
aI2
aF0.5
aI0
aI0
aF0.0
aI0
aI0
aF0.0
aI0
aI0
aI0
aI0
aI0
aI0
aI0
aI3
aI2
aI5
aa(lp34
V0020600259
p35
aVDEC 05, 2006
p36
aVSEA vs. ATL
p37
aVW
p38
aI8
aI0
aI0
aF0.0
aI0
aI0
aF0.0
aI0
aI0
aF0.0
aI0
aI1
aI1
aI0
aI0
aI0
aI3
aI2
aI0
aI0
aa(lp39
V0020600285
p40
aVDEC 08, 2006
p41
aVSEA vs. NOK
p42
aVW
p43
aI1
aI0
aI0
aF0.0
aI0
aI0
aF0.0
aI0
aI0
aF0.0
aI0
aI0
aI0
aI0
aI0
aI0
aI0
aI1
aI0
aI-3
aa(lp44
V0020600333
p45
aVDEC 15, 2006
p46
aVSEA @ CLE
p47
aVL
p48
aI2
aI0
aI1
aF0.0
aI0
aI0
aF0.0
aI0
aI0
aF0.0
aI0
aI1
aI1
aI0
aI0
aI0
aI1
aI0
aI0
aI-2
aa(lp49
V0020600376
p50
aVDEC 20, 2006
p51
aVSEA vs. DAL
p52
aVL
p53
aI1
aI1
aI1
aF1.0
aI0
aI0
aF0.0
aI1
aI1
aF1.0
aI0
aI0
aI0
aI0
aI0
aI0
aI0
aI0
aI3
aI4
aa(lp54
V0020600428
p55
aVDEC 28, 2006
p56
aVSEA @ DEN
p57
aVL
p58
aI10
aI1
aI2
aF0.5
aI0
aI0
aF0.0
aI2
aI2
aF1.0
aI1
aI2
aI3
aI0
aI1
aI1
aI1
aI4
aI4
aI3
aa(lp59
V0020600436
p60
aVDEC 29, 2006
p61
aVSEA @ MIN
p62
aVL
p63
aI8
aI2
aI4
aF0.5
aI0
aI0
aF0.0
aI0
aI0
aF0.0
aI0
aI2
aI2
aI0
aI0
aI0
aI0
aI0
aI4
aI-3
aa(lp64
V0020600457
p65
aVDEC 31, 2006
p66
aVSEA vs. BOS
p67
aVW
p68
aI2
aI0
aI0
aF0.0
aI0
aI0
aF0.0
aI0
aI0
aF0.0
aI0
aI0
aI0
aI0
aI0
aI0
aI0
aI2
aI0
aI0
aa(lp69
V0020600464
p70
aVJAN 02, 2007
p71
aVSEA @ DAL
p72
aVL
p73
aI14
aI0
aI2
aF0.0
aI0
aI0
aF0.0
aI2
aI6
aF0.333
aI1
aI1
aI2
aI0
aI1
aI3
aI0
aI4
aI2
aI2
aa(lp74
V0020600473
p75
aVJAN 03, 2007
p76
aVSEA @ HOU
p77
aVL
p78
aI1
aI0
aI0
aF0.0
aI0
aI0
aF0.0
aI0
aI0
aF0.0
aI0
aI0
aI0
aI0
aI0
aI0
aI0
aI0
aI0
aI2
aa(lp79
V0020600514
p80
aVJAN 09, 2007
p81
aVSEA @ PHX
p82
aVL
p83
aI1
aI0
aI0
aF0.0
aI0
aI0
aF0.0
aI0
aI0
aF0.0
aI0
aI1
aI1
aI0
aI0
aI0
aI0
aI0
aI0
aI-1
aa(lp84
V0020600660
p85
aVJAN 28, 2007
p86
aVSEA vs. LAC
p87
aVL
p88
aI11
aI3
aI6
aF0.5
aI0
aI0
aF0.0
aI4
aI8
aF0.5
aI1
aI0
aI1
aI0
aI0
aI1
aI1
aI2
aI10
aI7
aa(lp89
V0020600673
p90
aVJAN 30, 2007
p91
aVSEA @ DAL
p92
aVL
p93
aI2
aI0
aI1
aF0.0
aI0
aI0
aF0.0
aI0
aI0
aF0.0
aI0
aI0
aI0
aI0
aI0
aI0
aI0
aI0
aI0
aI-6
aa(lp94
V0020600828
p95
aVFEB 24, 2007
p96
aVSEA @ SAS
p97
aVL
p98
aI12
aI0
aI3
aF0.0
aI0
aI0
aF0.0
aI2
aI2
aF1.0
aI2
aI4
aI6
aI0
aI0
aI0
aI0
aI3
aI2
aI2
aa(lp99
V0020600920
p100
aVMAR 09, 2007
p101
aVSEA @ BOS
p102
aVL
p103
aI1
aI0
aI2
aF0.0
aI0
aI0
aF0.0
aI0
aI0
aF0.0
aI1
aI0
aI1
aI0
aI0
aI0
aI0
aI0
aI0
aI0
aa(lp104
V0020601043
p105
aVMAR 25, 2007
p106
aVSEA vs. SAS
p107
aVL
p108
aI1
aI0
aI0
aF0.0
aI0
aI0
aF0.0
aI2
aI2
aF1.0
aI0
aI0
aI0
aI0
aI0
aI0
aI0
aI0
aI2
aI-4
aa(lp109
V0020601083
p110
aVMAR 30, 2007
p111
aVSEA vs. MEM
p112
aVW
p113
aI12
aI2
aI4
aF0.5
aI0
aI0
aF0.0
aI1
aI2
aF0.5
aI2
aI2
aI4
aI0
aI0
aI2
aI1
aI2
aI5
aI-2
aa(lp114
V0020601104
p115
aVAPR 03, 2007
p116
aVSEA @ SAS
p117
aVL
p118
aI12
aI4
aI6
aF0.667
aI0
aI0
aF0.0
aI0
aI0
aF0.0
aI0
aI1
aI1
aI0
aI0
aI1
aI0
aI3
aI8
aI7
aa(lp119
V0020601114
p120
aVAPR 04, 2007
p121
aVSEA @ NOK
p122
aVL
p123
aI1
aI0
aI0
aF0.0
aI0
aI0
aF0.0
aI0
aI0
aF0.0
aI0
aI0
aI0
aI0
aI0
aI0
aI0
aI1
aI0
aI-4
aa(lp124
V0020601171
p125
aVAPR 11, 2007
p126
aVSEA @ PHX
p127
aVL
p128
aI2
aI1
aI2
aF0.5
aI0
aI0
aF0.0
aI0
aI0
aF0.0
aI0
aI0
aI0
aI0
aI0
aI1
aI1
aI0
aI2
aI-1
aa(lp129
V0020601193
p130
aVAPR 14, 2007
p131
aVSEA @ POR
p132
aVL
p133
aI8
aI2
aI3
aF0.667
aI0
aI0
aF0.0
aI1
aI2
aF0.5
aI3
aI1
aI4
aI0
aI0
aI0
aI1
aI0
aI5
aI-12
aa(lp134
V0020601202
p135
aVAPR 15, 2007
p136
aVSEA @ LAL
p137
aVL
p138
aI6
aI1
aI2
aF0.5
aI0
aI0
aF0.0
aI0
aI0
aF0.0
aI2
aI2
aI4
aI0
aI0
aI1
aI0
aI0
aI2
aI-5
aa(lp139
V0020601229
p140
aVAPR 18, 2007
p141
aVSEA vs. DAL
p142
aVL
p143
aI22
aI0
aI5
aF0.0
aI0
aI0
aF0.0
aI2
aI2
aF1.0
aI2
aI5
aI7
aI0
aI0
aI0
aI1
aI1
aI2
aI-21
aasS'name'
p144
VMouhamed Sene
p145
sS'experience'
p146
I0
s.