(dp0
S'stats'
p1
(lp2
(lp3
V0020600030
p4
aVNOV 03, 2006
p5
aVPOR @ GSW
p6
aVL
p7
aI2
aI1
aI1
aF1.0
aI0
aI0
aF0.0
aI0
aI0
aF0.0
aI0
aI1
aI1
aI0
aI0
aI0
aI0
aI0
aI2
aI5
aa(lp8
V0020600103
p9
aVNOV 14, 2006
p10
aVPOR @ MIN
p11
aVL
p12
aI12
aI1
aI2
aF0.5
aI0
aI0
aF0.0
aI0
aI0
aF0.0
aI0
aI0
aI0
aI8
aI1
aI0
aI1
aI2
aI2
aI6
aa(lp13
V0020600109
p14
aVNOV 15, 2006
p15
aVPOR @ CLE
p16
aVL
p17
aI26
aI1
aI5
aF0.2
aI0
aI0
aF0.0
aI0
aI0
aF0.0
aI0
aI1
aI1
aI8
aI2
aI0
aI1
aI2
aI2
aI6
aa(lp18
V0020600120
p19
aVNOV 17, 2006
p20
aVPOR @ BOS
p21
aVL
p22
aI11
aI0
aI6
aF0.0
aI0
aI2
aF0.0
aI0
aI0
aF0.0
aI0
aI2
aI2
aI2
aI0
aI0
aI3
aI0
aI0
aI-16
aa(lp23
V0020600132
p24
aVNOV 18, 2006
p25
aVPOR @ NJN
p26
aVW
p27
aI3
aI0
aI0
aF0.0
aI0
aI0
aF0.0
aI0
aI0
aF0.0
aI0
aI0
aI0
aI1
aI0
aI0
aI0
aI0
aI0
aI-6
aa(lp28
V0020600148
p29
aVNOV 20, 2006
p30
aVPOR vs. SAS
p31
aVL
p32
aI7
aI1
aI3
aF0.333
aI0
aI1
aF0.0
aI0
aI0
aF0.0
aI0
aI1
aI1
aI2
aI0
aI0
aI1
aI2
aI2
aI0
aa(lp33
V0020600168
p34
aVNOV 22, 2006
p35
aVPOR vs. NJN
p36
aVW
p37
aI14
aI1
aI4
aF0.25
aI0
aI3
aF0.0
aI0
aI0
aF0.0
aI0
aI2
aI2
aI5
aI0
aI0
aI0
aI0
aI2
aI11
aa(lp38
V0020600193
p39
aVNOV 25, 2006
p40
aVPOR @ SAC
p41
aVL
p42
aI12
aI1
aI3
aF0.333
aI0
aI0
aF0.0
aI0
aI0
aF0.0
aI0
aI0
aI0
aI1
aI1
aI0
aI2
aI2
aI2
aI-5
aa(lp43
V0020600197
p44
aVNOV 26, 2006
p45
aVPOR vs. PHX
p46
aVL
p47
aI22
aI4
aI5
aF0.8
aI1
aI1
aF1.0
aI0
aI0
aF0.0
aI1
aI3
aI4
aI10
aI0
aI0
aI2
aI4
aI9
aI-5
aa(lp48
V0020600211
p49
aVNOV 28, 2006
p50
aVPOR vs. IND
p51
aVL
p52
aI8
aI2
aI3
aF0.667
aI1
aI2
aF0.5
aI0
aI0
aF0.0
aI1
aI0
aI1
aI2
aI0
aI0
aI0
aI1
aI5
aI-14
aa(lp53
V0020600232
p54
aVDEC 01, 2006
p55
aVPOR vs. ORL
p56
aVL
p57
aI19
aI1
aI3
aF0.333
aI0
aI1
aF0.0
aI0
aI0
aF0.0
aI0
aI2
aI2
aI4
aI0
aI0
aI1
aI0
aI2
aI6
aa(lp58
V0020600246
p59
aVDEC 03, 2006
p60
aVPOR vs. ATL
p61
aVL
p62
aI26
aI3
aI6
aF0.5
aI1
aI2
aF0.5
aI1
aI2
aF0.5
aI0
aI2
aI2
aI11
aI2
aI0
aI2
aI1
aI8
aI1
aa(lp63
V0020600256
p64
aVDEC 05, 2006
p65
aVPOR @ DET
p66
aVW
p67
aI3
aI0
aI1
aF0.0
aI0
aI1
aF0.0
aI0
aI0
aF0.0
aI0
aI0
aI0
aI2
aI0
aI0
aI1
aI0
aI0
aI2
aa(lp68
V0020600266
p69
aVDEC 06, 2006
p70
aVPOR @ MIL
p71
aVL
p72
aI2
aI0
aI0
aF0.0
aI0
aI0
aF0.0
aI0
aI0
aF0.0
aI0
aI0
aI0
aI0
aI0
aI0
aI1
aI0
aI0
aI-4
aa(lp73
V0020600276
p74
aVDEC 08, 2006
p75
aVPOR @ IND
p76
aVL
p77
aI15
aI1
aI2
aF0.5
aI0
aI0
aF0.0
aI4
aI4
aF1.0
aI1
aI1
aI2
aI2
aI1
aI0
aI4
aI1
aI6
aI4
aa(lp78
V0020600295
p79
aVDEC 10, 2006
p80
aVPOR @ TOR
p81
aVW
p82
aI5
aI0
aI1
aF0.0
aI0
aI0
aF0.0
aI0
aI0
aF0.0
aI0
aI1
aI1
aI1
aI0
aI0
aI0
aI0
aI0
aI-5
aa(lp83
V0020600300
p84
aVDEC 11, 2006
p85
aVPOR @ PHI
p86
aVW
p87
aI1
aI0
aI1
aF0.0
aI0
aI1
aF0.0
aI0
aI0
aF0.0
aI0
aI0
aI0
aI0
aI0
aI0
aI0
aI0
aI0
aI0
aa(lp88
V0020600321
p89
aVDEC 13, 2006
p90
aVPOR @ MEM
p91
aVW
p92
aI3
aI1
aI1
aF1.0
aI1
aI1
aF1.0
aI0
aI0
aF0.0
aI0
aI2
aI2
aI0
aI0
aI0
aI1
aI0
aI3
aI-2
aa(lp93
V0020600339
p94
aVDEC 15, 2006
p95
aVPOR vs. LAC
p96
aVW
p97
aI13
aI1
aI1
aF1.0
aI0
aI0
aF0.0
aI0
aI0
aF0.0
aI0
aI0
aI0
aI7
aI1
aI0
aI1
aI0
aI2
aI-3
aa(lp98
V0020600374
p99
aVDEC 20, 2006
p100
aVPOR vs. HOU
p101
aVW
p102
aI1
aI0
aI0
aF0.0
aI0
aI0
aF0.0
aI0
aI0
aF0.0
aI0
aI0
aI0
aI0
aI0
aI0
aI0
aI0
aI0
aI0
aa(lp103
V0020600390
p104
aVDEC 22, 2006
p105
aVPOR vs. TOR
p106
aVL
p107
aI1
aI0
aI1
aF0.0
aI0
aI1
aF0.0
aI0
aI0
aF0.0
aI0
aI0
aI0
aI0
aI0
aI0
aI0
aI0
aI0
aI0
aa(lp108
V0020600412
p109
aVDEC 26, 2006
p110
aVPOR @ PHX
p111
aVL
p112
aI8
aI1
aI2
aF0.5
aI0
aI1
aF0.0
aI0
aI0
aF0.0
aI0
aI1
aI1
aI3
aI3
aI0
aI1
aI0
aI2
aI5
aa(lp113
V0020600424
p114
aVDEC 27, 2006
p115
aVPOR vs. NOK
p116
aVW
p117
aI13
aI1
aI2
aF0.5
aI1
aI1
aF1.0
aI0
aI0
aF0.0
aI1
aI1
aI2
aI5
aI0
aI0
aI0
aI1
aI3
aI-8
aa(lp118
V0020600439
p119
aVDEC 29, 2006
p120
aVPOR vs. PHI
p121
aVL
p122
aI17
aI2
aI4
aF0.5
aI1
aI2
aF0.5
aI0
aI0
aF0.0
aI2
aI1
aI3
aI1
aI2
aI1
aI0
aI3
aI5
aI0
aa(lp123
V0020600449
p124
aVDEC 30, 2006
p125
aVPOR @ UTA
p126
aVL
p127
aI9
aI1
aI4
aF0.25
aI1
aI4
aF0.25
aI0
aI0
aF0.0
aI0
aI0
aI0
aI1
aI0
aI0
aI1
aI1
aI3
aI0
aa(lp128
V0020600459
p129
aVJAN 01, 2007
p130
aVPOR vs. BOS
p131
aVL
p132
aI7
aI0
aI1
aF0.0
aI0
aI1
aF0.0
aI0
aI0
aF0.0
aI0
aI0
aI0
aI3
aI1
aI0
aI0
aI0
aI0
aI0
aa(lp133
V0020600475
p134
aVJAN 03, 2007
p135
aVPOR vs. NYK
p136
aVL
p137
aI14
aI2
aI6
aF0.333
aI0
aI1
aF0.0
aI2
aI2
aF1.0
aI0
aI1
aI1
aI2
aI0
aI0
aI1
aI3
aI6
aI-2
aa(lp138
V0020600496
p139
aVJAN 06, 2007
p140
aVPOR @ SAC
p141
aVW
p142
aI5
aI1
aI2
aF0.5
aI1
aI2
aF0.5
aI0
aI0
aF0.0
aI0
aI0
aI0
aI1
aI0
aI0
aI0
aI1
aI3
aI2
aa(lp143
V0020600503
p144
aVJAN 07, 2007
p145
aVPOR vs. MIA
p146
aVL
p147
aI10
aI0
aI1
aF0.0
aI0
aI1
aF0.0
aI0
aI0
aF0.0
aI0
aI2
aI2
aI3
aI0
aI0
aI2
aI0
aI0
aI0
aa(lp148
V0020600512
p149
aVJAN 09, 2007
p150
aVPOR @ SAS
p151
aVL
p152
aI3
aI1
aI1
aF1.0
aI0
aI0
aF0.0
aI0
aI0
aF0.0
aI0
aI0
aI0
aI0
aI0
aI0
aI0
aI0
aI2
aI2
aa(lp153
V0020600524
p154
aVJAN 10, 2007
p155
aVPOR @ DAL
p156
aVL
p157
aI6
aI0
aI0
aF0.0
aI0
aI0
aF0.0
aI0
aI0
aF0.0
aI0
aI2
aI2
aI1
aI0
aI0
aI0
aI1
aI0
aI-5
aa(lp158
V0020600537
p159
aVJAN 12, 2007
p160
aVPOR vs. SAC
p161
aVW
p162
aI17
aI3
aI5
aF0.6
aI0
aI0
aF0.0
aI0
aI0
aF0.0
aI0
aI2
aI2
aI6
aI0
aI0
aI2
aI2
aI6
aI6
aa(lp163
V0020600553
p164
aVJAN 14, 2007
p165
aVPOR vs. DEN
p166
aVL
p167
aI30
aI11
aI14
aF0.786
aI1
aI3
aF0.333
aI0
aI0
aF0.0
aI0
aI4
aI4
aI10
aI3
aI0
aI4
aI3
aI23
aI7
aa(lp168
V0020600577
p169
aVJAN 17, 2007
p170
aVPOR vs. CLE
p171
aVW
p172
aI23
aI1
aI3
aF0.333
aI1
aI1
aF1.0
aI0
aI0
aF0.0
aI0
aI2
aI2
aI9
aI0
aI0
aI0
aI3
aI3
aI-2
aa(lp173
V0020600589
p174
aVJAN 19, 2007
p175
aVPOR @ PHX
p176
aVL
p177
aI17
aI4
aI11
aF0.364
aI1
aI4
aF0.25
aI0
aI0
aF0.0
aI1
aI3
aI4
aI3
aI1
aI0
aI2
aI2
aI9
aI1
aa(lp178
V0020600605
p179
aVJAN 21, 2007
p180
aVPOR vs. MIL
p181
aVW
p182
aI12
aI0
aI2
aF0.0
aI0
aI1
aF0.0
aI0
aI0
aF0.0
aI0
aI1
aI1
aI6
aI0
aI1
aI0
aI3
aI0
aI4
aa(lp183
V0020600630
p184
aVJAN 24, 2007
p185
aVPOR vs. MIN
p186
aVW
p187
aI21
aI8
aI13
aF0.615
aI2
aI4
aF0.5
aI0
aI0
aF0.0
aI0
aI2
aI2
aI1
aI1
aI0
aI2
aI0
aI18
aI2
aa(lp188
V0020600642
p189
aVJAN 26, 2007
p190
aVPOR @ HOU
p191
aVL
p192
aI18
aI0
aI2
aF0.0
aI0
aI1
aF0.0
aI0
aI0
aF0.0
aI0
aI3
aI3
aI5
aI0
aI0
aI1
aI1
aI0
aI-5
aa(lp193
V0020600648
p194
aVJAN 27, 2007
p195
aVPOR @ MEM
p196
aVW
p197
aI17
aI3
aI5
aF0.6
aI0
aI1
aF0.0
aI1
aI1
aF1.0
aI0
aI1
aI1
aI7
aI3
aI0
aI0
aI4
aI7
aI0
aa(lp198
V0020600663
p199
aVJAN 29, 2007
p200
aVPOR @ NOK
p201
aVL
p202
aI20
aI3
aI7
aF0.429
aI2
aI4
aF0.5
aI0
aI0
aF0.0
aI1
aI2
aI3
aI2
aI0
aI0
aI1
aI0
aI8
aI-7
aa(lp203
V0020600685
p204
aVJAN 31, 2007
p205
aVPOR vs. DEN
p206
aVW
p207
aI10
aI0
aI0
aF0.0
aI0
aI0
aF0.0
aI0
aI0
aF0.0
aI1
aI0
aI1
aI2
aI0
aI0
aI1
aI1
aI0
aI-4
aa(lp208
V0020600823
p209
aVFEB 23, 2007
p210
aVPOR vs. MEM
p211
aVL
p212
aI12
aI1
aI5
aF0.2
aI0
aI2
aF0.0
aI0
aI0
aF0.0
aI0
aI1
aI1
aI2
aI0
aI0
aI0
aI1
aI2
aI-2
aa(lp213
V0020600848
p214
aVFEB 26, 2007
p215
aVPOR @ SEA
p216
aVL
p217
aI13
aI2
aI6
aF0.333
aI0
aI2
aF0.0
aI0
aI0
aF0.0
aI1
aI1
aI2
aI4
aI0
aI0
aI2
aI2
aI4
aI-5
aa(lp218
V0020600866
p219
aVMAR 01, 2007
p220
aVPOR vs. CHA
p221
aVW
p222
aI15
aI1
aI2
aF0.5
aI0
aI1
aF0.0
aI0
aI0
aF0.0
aI0
aI2
aI2
aI6
aI1
aI0
aI0
aI0
aI2
aI8
aa(lp223
V0020600885
p224
aVMAR 03, 2007
p225
aVPOR vs. SAC
p226
aVL
p227
aI9
aI1
aI3
aF0.333
aI0
aI0
aF0.0
aI2
aI2
aF1.0
aI0
aI1
aI1
aI1
aI1
aI0
aI1
aI0
aI4
aI-3
aa(lp228
V0020600906
p229
aVMAR 06, 2007
p230
aVPOR vs. SAS
p231
aVL
p232
aI14
aI3
aI5
aF0.6
aI1
aI2
aF0.5
aI0
aI0
aF0.0
aI0
aI0
aI0
aI6
aI0
aI0
aI0
aI2
aI7
aI-2
aa(lp233
V0020600942
p234
aVMAR 11, 2007
p235
aVPOR vs. GSW
p236
aVW
p237
aI12
aI0
aI3
aF0.0
aI0
aI1
aF0.0
aI0
aI0
aF0.0
aI0
aI2
aI2
aI5
aI1
aI0
aI0
aI1
aI0
aI13
aa(lp238
V0020600955
p239
aVMAR 13, 2007
p240
aVPOR @ DEN
p241
aVL
p242
aI6
aI0
aI1
aF0.0
aI0
aI0
aF0.0
aI0
aI0
aF0.0
aI2
aI0
aI2
aI0
aI0
aI0
aI2
aI0
aI0
aI-11
aa(lp243
V0020600966
p244
aVMAR 14, 2007
p245
aVPOR vs. DET
p246
aVL
p247
aI8
aI0
aI5
aF0.0
aI0
aI2
aF0.0
aI0
aI0
aF0.0
aI0
aI1
aI1
aI2
aI2
aI0
aI1
aI0
aI0
aI-8
aa(lp248
V0020600977
p249
aVMAR 16, 2007
p250
aVPOR @ LAL
p251
aVL
p252
aI6
aI0
aI2
aF0.0
aI0
aI0
aF0.0
aI0
aI0
aF0.0
aI1
aI1
aI2
aI0
aI0
aI0
aI0
aI1
aI0
aI-5
aa(lp253
V0020600993
p254
aVMAR 18, 2007
p255
aVPOR vs. SEA
p256
aVL
p257
aI9
aI1
aI3
aF0.333
aI1
aI3
aF0.333
aI0
aI0
aF0.0
aI0
aI0
aI0
aI2
aI0
aI0
aI0
aI1
aI3
aI2
aa(lp258
V0020601006
p259
aVMAR 20, 2007
p260
aVPOR vs. WAS
p261
aVW
p262
aI22
aI4
aI9
aF0.444
aI1
aI3
aF0.333
aI0
aI0
aF0.0
aI1
aI1
aI2
aI9
aI0
aI0
aI3
aI1
aI9
aI7
aa(lp263
V0020601015
p264
aVMAR 22, 2007
p265
aVPOR @ NYK
p266
aVW
p267
aI15
aI1
aI6
aF0.167
aI0
aI2
aF0.0
aI0
aI0
aF0.0
aI0
aI1
aI1
aI4
aI2
aI0
aI1
aI0
aI2
aI-3
aa(lp268
V0020601025
p269
aVMAR 23, 2007
p270
aVPOR @ ATL
p271
aVW
p272
aI6
aI0
aI1
aF0.0
aI0
aI0
aF0.0
aI0
aI0
aF0.0
aI1
aI0
aI1
aI1
aI0
aI0
aI1
aI0
aI0
aI-3
aa(lp273
V0020601040
p274
aVMAR 25, 2007
p275
aVPOR @ MIN
p276
aVL
p277
aI8
aI0
aI1
aF0.0
aI0
aI0
aF0.0
aI0
aI0
aF0.0
aI0
aI1
aI1
aI0
aI0
aI0
aI2
aI0
aI0
aI-5
aa(lp278
V0020601049
p279
aVMAR 26, 2007
p280
aVPOR @ CHI
p281
aVL
p282
aI11
aI2
aI2
aF1.0
aI0
aI0
aF0.0
aI5
aI6
aF0.833
aI0
aI2
aI2
aI1
aI1
aI0
aI3
aI4
aI9
aI2
aa(lp283
V0020601070
p284
aVMAR 29, 2007
p285
aVPOR vs. MEM
p286
aVL
p287
aI21
aI1
aI2
aF0.5
aI0
aI0
aF0.0
aI0
aI0
aF0.0
aI0
aI1
aI1
aI8
aI0
aI0
aI1
aI2
aI2
aI9
aa(lp288
V0020601087
p289
aVMAR 31, 2007
p290
aVPOR vs. LAC
p291
aVL
p292
aI20
aI1
aI3
aF0.333
aI0
aI1
aF0.0
aI0
aI0
aF0.0
aI1
aI1
aI2
aI5
aI0
aI0
aI2
aI3
aI2
aI-10
aa(lp293
V0020601117
p294
aVAPR 04, 2007
p295
aVPOR vs. UTA
p296
aVW
p297
aI18
aI2
aI4
aF0.5
aI0
aI2
aF0.0
aI1
aI1
aF1.0
aI0
aI3
aI3
aI4
aI0
aI0
aI5
aI1
aI5
aI-1
aa(lp298
V0020601130
p299
aVAPR 06, 2007
p300
aVPOR @ HOU
p301
aVW
p302
aI16
aI2
aI5
aF0.4
aI1
aI2
aF0.5
aI0
aI0
aF0.0
aI0
aI1
aI1
aI2
aI0
aI0
aI2
aI0
aI5
aI-6
aa(lp303
V0020601140
p304
aVAPR 07, 2007
p305
aVPOR @ DAL
p306
aVL
p307
aI26
aI3
aI6
aF0.5
aI1
aI3
aF0.333
aI0
aI0
aF0.0
aI2
aI1
aI3
aI4
aI2
aI0
aI3
aI2
aI7
aI-9
aa(lp308
V0020601151
p309
aVAPR 09, 2007
p310
aVPOR @ SAS
p311
aVL
p312
aI13
aI4
aI6
aF0.667
aI1
aI1
aF1.0
aI0
aI0
aF0.0
aI0
aI0
aI0
aI0
aI0
aI0
aI1
aI3
aI9
aI-11
aa(lp313
V0020601172
p314
aVAPR 11, 2007
p315
aVPOR vs. HOU
p316
aVL
p317
aI9
aI0
aI1
aF0.0
aI0
aI1
aF0.0
aI0
aI0
aF0.0
aI0
aI1
aI1
aI2
aI0
aI0
aI1
aI0
aI0
aI-5
aa(lp318
V0020601186
p319
aVAPR 13, 2007
p320
aVPOR @ LAC
p321
aVL
p322
aI20
aI3
aI5
aF0.6
aI1
aI1
aF1.0
aI1
aI2
aF0.5
aI1
aI0
aI1
aI1
aI2
aI0
aI0
aI2
aI8
aI-13
aa(lp323
V0020601193
p324
aVAPR 14, 2007
p325
aVPOR vs. SEA
p326
aVW
p327
aI19
aI3
aI6
aF0.5
aI1
aI2
aF0.5
aI2
aI2
aF1.0
aI1
aI3
aI4
aI4
aI0
aI0
aI0
aI0
aI9
aI14
aa(lp328
V0020601209
p329
aVAPR 16, 2007
p330
aVPOR @ UTA
p331
aVL
p332
aI22
aI2
aI6
aF0.333
aI1
aI3
aF0.333
aI1
aI2
aF0.5
aI0
aI0
aI0
aI1
aI0
aI0
aI3
aI1
aI6
aI-30
aa(lp333
V0020601228
p334
aVAPR 18, 2007
p335
aVPOR vs. GSW
p336
aVL
p337
aI24
aI3
aI7
aF0.429
aI0
aI3
aF0.0
aI1
aI2
aF0.5
aI0
aI0
aI0
aI7
aI1
aI0
aI4
aI1
aI7
aI-3
aasS'name'
p338
VSergio Rodriguez
p339
sS'weight'
p340
V176
p341
sS'age'
p342
I20
sS'experience'
p343
I0
sS'height'
p344
V6-3
p345
sS'position'
p346
VGuard
p347
s.