(dp0
S'age'
p1
I23
sS'stats'
p2
(lp3
(lp4
V0020600155
p5
aVNOV 21, 2006
p6
aVDAL vs. WAS
p7
aVW
p8
aI3
aI0
aI1
aF0.0
aI0
aI0
aF0.0
aI0
aI0
aF0.0
aI0
aI1
aI1
aI0
aI0
aI0
aI0
aI0
aI0
aI-2
aa(lp9
V0020600846
p10
aVFEB 26, 2007
p11
aVDAL vs. ATL
p12
aVW
p13
aI3
aI1
aI1
aF1.0
aI0
aI0
aF0.0
aI2
aI2
aF1.0
aI1
aI0
aI1
aI0
aI0
aI0
aI0
aI0
aI4
aI1
aa(lp14
V0020600854
p15
aVFEB 27, 2007
p16
aVDAL @ MIN
p17
aVW
p18
aI3
aI1
aI1
aF1.0
aI0
aI0
aF0.0
aI0
aI0
aF0.0
aI0
aI0
aI0
aI0
aI0
aI0
aI0
aI0
aI2
aI4
aa(lp19
V0020600941
p20
aVMAR 11, 2007
p21
aVDAL @ LAL
p22
aVW
p23
aI4
aI1
aI1
aF1.0
aI0
aI0
aF0.0
aI1
aI2
aF0.5
aI0
aI0
aI0
aI0
aI0
aI0
aI1
aI0
aI3
aI8
aa(lp24
V0020600947
p25
aVMAR 12, 2007
p26
aVDAL @ GSW
p27
aVL
p28
aI15
aI1
aI1
aF1.0
aI0
aI0
aF0.0
aI0
aI2
aF0.0
aI0
aI3
aI3
aI0
aI0
aI0
aI4
aI1
aI2
aI13
aa(lp29
V0020600999
p30
aVMAR 20, 2007
p31
aVDAL @ NYK
p32
aVW
p33
aI2
aI0
aI0
aF0.0
aI0
aI0
aF0.0
aI0
aI0
aF0.0
aI0
aI0
aI0
aI0
aI0
aI0
aI0
aI1
aI0
aI-1
aa(lp34
V0020601010
p35
aVMAR 21, 2007
p36
aVDAL @ CLE
p37
aVW
p38
aI3
aI0
aI0
aF0.0
aI0
aI0
aF0.0
aI0
aI0
aF0.0
aI0
aI0
aI0
aI0
aI0
aI0
aI0
aI1
aI0
aI-2
aa(lp39
V0020601024
p40
aVMAR 23, 2007
p41
aVDAL @ BOS
p42
aVW
p43
aI8
aI2
aI3
aF0.667
aI0
aI0
aF0.0
aI0
aI0
aF0.0
aI2
aI1
aI3
aI0
aI0
aI0
aI1
aI1
aI4
aI-3
aa(lp44
V0020601036
p45
aVMAR 25, 2007
p46
aVDAL @ ATL
p47
aVW
p48
aI0
aI0
aI0
aF0.0
aI0
aI0
aF0.0
aI0
aI0
aF0.0
aI0
aI0
aI0
aI0
aI0
aI0
aI0
aI0
aI0
aI-2
aa(lp49
V0020601169
p50
aVAPR 11, 2007
p51
aVDAL @ MIN
p52
aVW
p53
aI10
aI3
aI5
aF0.6
aI0
aI0
aF0.0
aI0
aI2
aF0.0
aI1
aI3
aI4
aI0
aI0
aI0
aI1
aI2
aI6
aI-3
aa(lp54
V0020601183
p55
aVAPR 13, 2007
p56
aVDAL vs. UTA
p57
aVL
p58
aI6
aI1
aI1
aF1.0
aI0
aI0
aF0.0
aI2
aI4
aF0.5
aI3
aI0
aI3
aI0
aI1
aI0
aI0
aI1
aI4
aI-2
aa(lp59
V0020601216
p60
aVAPR 17, 2007
p61
aVDAL @ GSW
p62
aVL
p63
aI14
aI1
aI3
aF0.333
aI0
aI0
aF0.0
aI2
aI6
aF0.333
aI2
aI4
aI6
aI0
aI0
aI0
aI2
aI1
aI4
aI-3
aasS'name'
p64
VPops Mensah-Bonsu
p65
sS'experience'
p66
I0
s.