(dp0
S'age'
p1
I22
sS'stats'
p2
(lp3
(lp4
V0020601195
p5
aVAPR 15, 2007
p6
aVWAS vs. CHI
p7
aVL
p8
aI6
aI0
aI2
aF0.0
aI0
aI0
aF0.0
aI0
aI0
aF0.0
aI0
aI1
aI1
aI0
aI0
aI0
aI0
aI1
aI0
aI-4
aa(lp9
V0020601100
p10
aVAPR 03, 2007
p11
aVWAS @ CHA
p12
aVL
p13
aI7
aI1
aI2
aF0.5
aI0
aI0
aF0.0
aI0
aI0
aF0.0
aI1
aI0
aI1
aI1
aI0
aI0
aI0
aI0
aI2
aI1
aasS'name'
p14
VMike Hall
p15
sS'experience'
p16
I0
s.