(dp0
S'stats'
p1
(lp2
(lp3
V0020600676
p4
aVJAN 31, 2007
p5
aVATL vs. GSW
p6
aVW
p7
aI7
aI2
aI3
aF0.667
aI1
aI1
aF1.0
aI0
aI0
aF0.0
aI1
aI0
aI1
aI0
aI1
aI0
aI0
aI2
aI5
aI0
aa(lp8
V0020600693
p9
aVFEB 02, 2007
p10
aVATL vs. TOR
p11
aVL
p12
aI0
aI0
aI0
aF0.0
aI0
aI0
aF0.0
aI0
aI0
aF0.0
aI0
aI0
aI0
aI0
aI0
aI0
aI0
aI0
aI0
aI0
aa(lp13
V0020600728
p14
aVFEB 07, 2007
p15
aVATL vs. NJN
p16
aVL
p17
aI8
aI1
aI3
aF0.333
aI1
aI2
aF0.5
aI0
aI0
aF0.0
aI0
aI1
aI1
aI0
aI0
aI0
aI1
aI0
aI3
aI0
aa(lp18
V0020600763
p19
aVFEB 11, 2007
p20
aVATL @ GSW
p21
aVW
p22
aI3
aI0
aI0
aF0.0
aI0
aI0
aF0.0
aI0
aI0
aF0.0
aI0
aI0
aI0
aI0
aI0
aI0
aI0
aI0
aI0
aI-3
aa(lp23
V0020600786
p24
aVFEB 14, 2007
p25
aVATL @ LAC
p26
aVW
p27
aI0
aI0
aI0
aF0.0
aI0
aI0
aF0.0
aI0
aI0
aF0.0
aI0
aI0
aI0
aI0
aI0
aI0
aI0
aI0
aI0
aI-4
aa(lp28
V0020600942
p29
aVMAR 11, 2007
p30
aVPOR vs. GSW
p31
aVW
p32
aI1
aI0
aI0
aF0.0
aI0
aI0
aF0.0
aI0
aI0
aF0.0
aI0
aI0
aI0
aI0
aI0
aI0
aI0
aI0
aI0
aI6
aasS'name'
p33
VJeremy Richardson
p34
sS'weight'
p35
V195
p36
sS'age'
p37
I22
sS'experience'
p38
I0
sS'height'
p39
V6-7
p40
sS'position'
p41
VGuard-Forward
p42
s.