(dp0
S'age'
p1
I28
sS'stats'
p2
(lp3
(lp4
V0020600001
p5
aVOCT 31, 2006
p6
aVCHI @ MIA
p7
aVW
p8
aI14
aI2
aI6
aF0.333
aI0
aI0
aF0.0
aI0
aI0
aF0.0
aI1
aI2
aI3
aI1
aI1
aI1
aI0
aI1
aI4
aI19
aa(lp9
V0020600005
p10
aVNOV 01, 2006
p11
aVCHI @ ORL
p12
aVL
p13
aI23
aI3
aI9
aF0.333
aI0
aI1
aF0.0
aI1
aI1
aF1.0
aI2
aI1
aI3
aI0
aI1
aI0
aI1
aI3
aI7
aI6
aa(lp14
V0020600026
p15
aVNOV 03, 2006
p16
aVCHI vs. SAC
p17
aVL
p18
aI5
aI1
aI2
aF0.5
aI0
aI0
aF0.0
aI0
aI0
aF0.0
aI0
aI1
aI1
aI0
aI0
aI0
aI0
aI0
aI2
aI3
aa(lp19
V0020600047
p20
aVNOV 06, 2006
p21
aVCHI vs. MIL
p22
aVW
p23
aI4
aI1
aI1
aF1.0
aI0
aI0
aF0.0
aI2
aI2
aF1.0
aI0
aI1
aI1
aI0
aI1
aI0
aI0
aI0
aI4
aI5
aa(lp24
V0020600069
p25
aVNOV 09, 2006
p26
aVCHI @ CLE
p27
aVL
p28
aI11
aI3
aI6
aF0.5
aI0
aI0
aF0.0
aI0
aI0
aF0.0
aI2
aI0
aI2
aI1
aI0
aI0
aI0
aI1
aI6
aI-5
aa(lp29
V0020600105
p30
aVNOV 14, 2006
p31
aVCHI @ DAL
p32
aVL
p33
aI11
aI3
aI5
aF0.6
aI0
aI0
aF0.0
aI0
aI0
aF0.0
aI1
aI3
aI4
aI0
aI0
aI0
aI1
aI2
aI6
aI-2
aa(lp34
V0020600117
p35
aVNOV 16, 2006
p36
aVCHI @ HOU
p37
aVL
p38
aI12
aI3
aI4
aF0.75
aI0
aI0
aF0.0
aI0
aI0
aF0.0
aI1
aI2
aI3
aI0
aI1
aI0
aI0
aI2
aI6
aI16
aa(lp39
V0020600125
p40
aVNOV 17, 2006
p41
aVCHI @ SAS
p42
aVL
p43
aI19
aI2
aI6
aF0.333
aI0
aI0
aF0.0
aI0
aI0
aF0.0
aI2
aI4
aI6
aI0
aI0
aI0
aI1
aI1
aI4
aI-6
aa(lp44
V0020600156
p45
aVNOV 21, 2006
p46
aVCHI @ DEN
p47
aVL
p48
aI16
aI1
aI5
aF0.2
aI0
aI0
aF0.0
aI2
aI2
aF1.0
aI0
aI3
aI3
aI1
aI0
aI0
aI2
aI2
aI4
aI-8
aa(lp49
V0020600172
p50
aVNOV 24, 2006
p51
aVCHI @ PHI
p52
aVL
p53
aI6
aI0
aI1
aF0.0
aI0
aI0
aF0.0
aI0
aI0
aF0.0
aI0
aI0
aI0
aI0
aI0
aI0
aI0
aI0
aI0
aI-6
aa(lp54
V0020600187
p55
aVNOV 25, 2006
p56
aVCHI @ NYK
p57
aVW
p58
aI25
aI7
aI13
aF0.538
aI0
aI0
aF0.0
aI1
aI2
aF0.5
aI0
aI1
aI1
aI1
aI1
aI2
aI1
aI4
aI15
aI20
aa(lp59
V0020600207
p60
aVNOV 28, 2006
p61
aVCHI vs. NYK
p62
aVW
p63
aI12
aI2
aI6
aF0.333
aI0
aI0
aF0.0
aI0
aI0
aF0.0
aI1
aI2
aI3
aI0
aI1
aI0
aI0
aI1
aI4
aI11
aa(lp64
V0020600251
p65
aVDEC 04, 2006
p66
aVCHI vs. BOS
p67
aVW
p68
aI8
aI1
aI4
aF0.25
aI0
aI0
aF0.0
aI2
aI2
aF1.0
aI2
aI2
aI4
aI1
aI0
aI0
aI0
aI1
aI4
aI-6
aa(lp69
V0020600268
p70
aVDEC 06, 2006
p71
aVCHI vs. PHI
p72
aVW
p73
aI4
aI2
aI3
aF0.667
aI0
aI0
aF0.0
aI0
aI0
aF0.0
aI0
aI1
aI1
aI0
aI0
aI0
aI0
aI1
aI4
aI-1
aa(lp74
V0020600281
p75
aVDEC 08, 2006
p76
aVCHI vs. TOR
p77
aVW
p78
aI9
aI2
aI4
aF0.5
aI0
aI0
aF0.0
aI0
aI0
aF0.0
aI1
aI3
aI4
aI0
aI0
aI1
aI0
aI1
aI4
aI4
aa(lp79
V0020600292
p80
aVDEC 09, 2006
p81
aVCHI vs. MIN
p82
aVL
p83
aI6
aI1
aI4
aF0.25
aI0
aI0
aF0.0
aI0
aI0
aF0.0
aI0
aI1
aI1
aI0
aI0
aI0
aI0
aI2
aI2
aI-9
aa(lp84
V0020600306
p85
aVDEC 11, 2006
p86
aVCHI vs. IND
p87
aVW
p88
aI1
aI1
aI1
aF1.0
aI0
aI0
aF0.0
aI0
aI0
aF0.0
aI0
aI0
aI0
aI0
aI0
aI0
aI0
aI0
aI2
aI0
aa(lp89
V0020600323
p90
aVDEC 13, 2006
p91
aVCHI vs. SEA
p92
aVW
p93
aI9
aI1
aI5
aF0.2
aI0
aI0
aF0.0
aI0
aI0
aF0.0
aI0
aI1
aI1
aI0
aI0
aI1
aI0
aI1
aI2
aI-12
aa(lp94
V0020600336
p95
aVDEC 15, 2006
p96
aVCHI vs. MIL
p97
aVW
p98
aI2
aI0
aI1
aF0.0
aI0
aI0
aF0.0
aI0
aI0
aF0.0
aI0
aI0
aI0
aI0
aI0
aI0
aI0
aI0
aI0
aI-8
aa(lp99
V0020600342
p100
aVDEC 16, 2006
p101
aVCHI @ ATL
p102
aVW
p103
aI15
aI3
aI3
aF1.0
aI0
aI0
aF0.0
aI2
aI3
aF0.667
aI2
aI2
aI4
aI0
aI0
aI0
aI0
aI2
aI8
aI-1
aa(lp104
V0020600362
p105
aVDEC 19, 2006
p106
aVCHI vs. LAL
p107
aVW
p108
aI4
aI1
aI2
aF0.5
aI0
aI0
aF0.0
aI0
aI0
aF0.0
aI0
aI0
aI0
aI0
aI0
aI0
aI0
aI0
aI2
aI4
aa(lp109
V0020600399
p110
aVDEC 23, 2006
p111
aVCHI vs. CHA
p112
aVW
p113
aI12
aI4
aI8
aF0.5
aI0
aI0
aF0.0
aI0
aI0
aF0.0
aI0
aI2
aI2
aI0
aI0
aI0
aI0
aI0
aI8
aI13
aa(lp114
V0020600408
p115
aVDEC 26, 2006
p116
aVCHI @ MIN
p117
aVL
p118
aI4
aI0
aI1
aF0.0
aI0
aI0
aF0.0
aI0
aI0
aF0.0
aI1
aI0
aI1
aI0
aI0
aI1
aI0
aI0
aI0
aI-3
aa(lp119
V0020600446
p120
aVDEC 30, 2006
p121
aVCHI vs. CLE
p122
aVW
p123
aI15
aI5
aI9
aF0.556
aI0
aI0
aF0.0
aI0
aI0
aF0.0
aI1
aI6
aI7
aI0
aI1
aI1
aI0
aI4
aI10
aI21
aa(lp124
V0020600463
p125
aVJAN 02, 2007
p126
aVCHI vs. PHX
p127
aVL
p128
aI8
aI1
aI1
aF1.0
aI0
aI0
aF0.0
aI0
aI0
aF0.0
aI0
aI2
aI2
aI0
aI0
aI0
aI1
aI2
aI2
aI-7
aa(lp129
V0020600482
p130
aVJAN 05, 2007
p131
aVCHI @ NJN
p132
aVL
p133
aI17
aI2
aI5
aF0.4
aI0
aI0
aF0.0
aI0
aI2
aF0.0
aI0
aI2
aI2
aI0
aI0
aI0
aI1
aI3
aI4
aI-8
aa(lp134
V0020600506
p135
aVJAN 08, 2007
p136
aVCHI vs. HOU
p137
aVL
p138
aI12
aI4
aI9
aF0.444
aI0
aI0
aF0.0
aI0
aI0
aF0.0
aI1
aI2
aI3
aI0
aI1
aI1
aI1
aI1
aI8
aI5
aa(lp139
V0020600559
p140
aVJAN 15, 2007
p141
aVCHI vs. SAS
p142
aVW
p143
aI5
aI0
aI2
aF0.0
aI0
aI0
aF0.0
aI0
aI0
aF0.0
aI1
aI0
aI1
aI2
aI0
aI0
aI0
aI1
aI0
aI-1
aa(lp144
V0020600608
p145
aVJAN 22, 2007
p146
aVCHI @ IND
p147
aVL
p148
aI17
aI1
aI5
aF0.2
aI0
aI0
aF0.0
aI0
aI0
aF0.0
aI0
aI1
aI1
aI1
aI0
aI0
aI1
aI3
aI2
aI9
aa(lp149
V0020600632
p150
aVJAN 25, 2007
p151
aVCHI vs. DAL
p152
aVW
p153
aI11
aI0
aI4
aF0.0
aI0
aI0
aF0.0
aI0
aI0
aF0.0
aI2
aI0
aI2
aI0
aI0
aI0
aI0
aI0
aI0
aI-9
aa(lp154
V0020600686
p155
aVJAN 31, 2007
p156
aVCHI @ LAC
p157
aVL
p158
aI27
aI6
aI10
aF0.6
aI0
aI0
aF0.0
aI0
aI0
aF0.0
aI2
aI2
aI4
aI0
aI0
aI0
aI1
aI4
aI12
aI-10
aa(lp159
V0020600698
p160
aVFEB 02, 2007
p161
aVCHI @ SEA
p162
aVW
p163
aI3
aI0
aI1
aF0.0
aI0
aI0
aF0.0
aI0
aI0
aF0.0
aI0
aI0
aI0
aI1
aI0
aI0
aI0
aI2
aI0
aI-3
aa(lp164
V0020600708
p165
aVFEB 03, 2007
p166
aVCHI @ POR
p167
aVW
p168
aI16
aI0
aI2
aF0.0
aI0
aI0
aF0.0
aI0
aI0
aF0.0
aI0
aI2
aI2
aI1
aI1
aI0
aI0
aI2
aI0
aI20
aa(lp169
V0020600718
p170
aVFEB 05, 2007
p171
aVCHI @ UTA
p172
aVL
p173
aI5
aI0
aI4
aF0.0
aI0
aI0
aF0.0
aI0
aI0
aF0.0
aI0
aI0
aI0
aI0
aI0
aI0
aI0
aI1
aI0
aI-12
aa(lp174
V0020600737
p175
aVFEB 08, 2007
p176
aVCHI @ SAC
p177
aVL
p178
aI7
aI2
aI3
aF0.667
aI0
aI0
aF0.0
aI0
aI0
aF0.0
aI2
aI1
aI3
aI1
aI0
aI1
aI0
aI2
aI4
aI2
aa(lp179
V0020600762
p180
aVFEB 11, 2007
p181
aVCHI @ PHX
p182
aVW
p183
aI9
aI2
aI2
aF1.0
aI0
aI0
aF0.0
aI0
aI0
aF0.0
aI1
aI0
aI1
aI0
aI0
aI0
aI1
aI4
aI4
aI-6
aa(lp184
V0020600772
p185
aVFEB 13, 2007
p186
aVCHI vs. TOR
p187
aVL
p188
aI7
aI1
aI5
aF0.2
aI0
aI0
aF0.0
aI0
aI0
aF0.0
aI0
aI0
aI0
aI0
aI0
aI0
aI0
aI3
aI2
aI-13
aa(lp189
V0020600777
p190
aVFEB 14, 2007
p191
aVCHI @ CHA
p192
aVL
p193
aI4
aI0
aI0
aF0.0
aI0
aI0
aF0.0
aI0
aI0
aF0.0
aI0
aI0
aI0
aI0
aI0
aI0
aI0
aI0
aI0
aI-2
aa(lp194
V0020600795
p195
aVFEB 20, 2007
p196
aVCHI vs. ATL
p197
aVW
p198
aI18
aI5
aI10
aF0.5
aI0
aI0
aF0.0
aI2
aI2
aF1.0
aI1
aI3
aI4
aI0
aI0
aI0
aI0
aI5
aI12
aI6
aa(lp199
V0020600812
p200
aVFEB 22, 2007
p201
aVCHI @ CLE
p202
aVW
p203
aI12
aI2
aI5
aF0.4
aI0
aI0
aF0.0
aI1
aI1
aF1.0
aI2
aI0
aI2
aI0
aI0
aI0
aI1
aI1
aI5
aI6
aa(lp204
V0020600820
p205
aVFEB 23, 2007
p206
aVCHI vs. WAS
p207
aVW
p208
aI10
aI1
aI4
aF0.25
aI0
aI0
aF0.0
aI0
aI0
aF0.0
aI0
aI1
aI1
aI0
aI0
aI0
aI0
aI0
aI2
aI-3
aa(lp209
V0020600844
p210
aVFEB 26, 2007
p211
aVCHI vs. ORL
p212
aVL
p213
aI16
aI3
aI9
aF0.333
aI0
aI0
aF0.0
aI0
aI0
aF0.0
aI2
aI0
aI2
aI1
aI1
aI1
aI0
aI0
aI6
aI-6
aa(lp214
V0020600860
p215
aVFEB 28, 2007
p216
aVCHI vs. GSW
p217
aVW
p218
aI6
aI0
aI3
aF0.0
aI0
aI0
aF0.0
aI0
aI0
aF0.0
aI0
aI0
aI0
aI0
aI1
aI1
aI1
aI0
aI0
aI1
aa(lp219
V0020600875
p220
aVMAR 02, 2007
p221
aVCHI vs. NOK
p222
aVW
p223
aI7
aI1
aI2
aF0.5
aI0
aI0
aF0.0
aI1
aI2
aF0.5
aI1
aI1
aI2
aI0
aI0
aI0
aI1
aI1
aI3
aI-4
aa(lp224
V0020600889
p225
aVMAR 04, 2007
p226
aVCHI @ MIL
p227
aVW
p228
aI9
aI1
aI2
aF0.5
aI0
aI0
aF0.0
aI1
aI2
aF0.5
aI0
aI1
aI1
aI1
aI0
aI0
aI0
aI1
aI3
aI19
aa(lp229
V0020600911
p230
aVMAR 07, 2007
p231
aVCHI @ MIA
p232
aVL
p233
aI13
aI2
aI4
aF0.5
aI0
aI0
aF0.0
aI2
aI2
aF1.0
aI0
aI1
aI1
aI0
aI1
aI0
aI1
aI0
aI6
aI-15
aa(lp234
V0020600983
p235
aVMAR 17, 2007
p236
aVCHI @ MEM
p237
aVL
p238
aI4
aI1
aI2
aF0.5
aI0
aI0
aF0.0
aI0
aI0
aF0.0
aI0
aI0
aI0
aI1
aI0
aI1
aI0
aI1
aI2
aI8
aa(lp239
V0020601017
p240
aVMAR 22, 2007
p241
aVCHI vs. DEN
p242
aVW
p243
aI8
aI0
aI1
aF0.0
aI0
aI0
aF0.0
aI0
aI0
aF0.0
aI0
aI2
aI2
aI0
aI0
aI0
aI1
aI0
aI0
aI12
aa(lp244
V0020601037
p245
aVMAR 25, 2007
p246
aVCHI @ IND
p247
aVW
p248
aI18
aI4
aI9
aF0.444
aI0
aI0
aF0.0
aI1
aI1
aF1.0
aI2
aI1
aI3
aI1
aI1
aI1
aI0
aI2
aI9
aI8
aa(lp249
V0020601049
p250
aVMAR 26, 2007
p251
aVCHI vs. POR
p252
aVW
p253
aI4
aI0
aI1
aF0.0
aI0
aI0
aF0.0
aI0
aI0
aF0.0
aI0
aI0
aI0
aI0
aI0
aI0
aI1
aI0
aI0
aI-2
aa(lp254
V0020601069
p255
aVMAR 29, 2007
p256
aVCHI vs. DET
p257
aVW
p258
aI4
aI1
aI5
aF0.2
aI0
aI0
aF0.0
aI0
aI0
aF0.0
aI1
aI1
aI2
aI0
aI0
aI0
aI0
aI0
aI2
aI-3
aa(lp259
V0020601084
p260
aVMAR 31, 2007
p261
aVCHI vs. CLE
p262
aVL
p263
aI11
aI1
aI1
aF1.0
aI0
aI0
aF0.0
aI0
aI0
aF0.0
aI0
aI0
aI0
aI0
aI0
aI0
aI0
aI1
aI2
aI-4
aa(lp264
V0020601089
p265
aVAPR 01, 2007
p266
aVCHI @ ATL
p267
aVW
p268
aI7
aI1
aI2
aF0.5
aI0
aI0
aF0.0
aI4
aI4
aF1.0
aI0
aI0
aI0
aI0
aI0
aI0
aI0
aI3
aI6
aI-9
aa(lp269
V0020601112
p270
aVAPR 04, 2007
p271
aVCHI @ DET
p272
aVW
p273
aI8
aI3
aI6
aF0.5
aI0
aI0
aF0.0
aI0
aI0
aF0.0
aI0
aI1
aI1
aI0
aI0
aI0
aI0
aI1
aI6
aI-10
aa(lp274
V0020601129
p275
aVAPR 06, 2007
p276
aVCHI vs. NJN
p277
aVW
p278
aI24
aI2
aI7
aF0.286
aI0
aI0
aF0.0
aI2
aI2
aF1.0
aI2
aI1
aI3
aI0
aI1
aI2
aI1
aI2
aI6
aI25
aa(lp279
V0020601145
p280
aVAPR 08, 2007
p281
aVCHI @ TOR
p282
aVL
p283
aI8
aI2
aI4
aF0.5
aI0
aI0
aF0.0
aI0
aI0
aF0.0
aI0
aI3
aI3
aI0
aI1
aI1
aI0
aI1
aI4
aI2
aa(lp284
V0020601163
p285
aVAPR 10, 2007
p286
aVCHI vs. NYK
p287
aVW
p288
aI17
aI2
aI5
aF0.4
aI0
aI0
aF0.0
aI0
aI0
aF0.0
aI2
aI3
aI5
aI0
aI2
aI0
aI0
aI3
aI4
aI5
aa(lp289
V0020601182
p290
aVAPR 13, 2007
p291
aVCHI vs. CHA
p292
aVW
p293
aI19
aI4
aI8
aF0.5
aI0
aI0
aF0.0
aI0
aI0
aF0.0
aI2
aI3
aI5
aI1
aI0
aI0
aI1
aI2
aI8
aI11
aa(lp294
V0020601195
p295
aVAPR 15, 2007
p296
aVCHI @ WAS
p297
aVW
p298
aI12
aI2
aI4
aF0.5
aI0
aI0
aF0.0
aI2
aI2
aF1.0
aI0
aI4
aI4
aI0
aI0
aI0
aI1
aI3
aI6
aI6
aa(lp299
V0020601222
p300
aVAPR 18, 2007
p301
aVCHI @ NJN
p302
aVL
p303
aI5
aI1
aI2
aF0.5
aI0
aI0
aF0.0
aI2
aI2
aF1.0
aI1
aI1
aI2
aI0
aI0
aI0
aI0
aI1
aI4
aI-1
aasS'name'
p304
VMalik Allen
p305
sS'experience'
p306
I5
s.