(dp0
S'stats'
p1
(lp2
(lp3
V0020600096
p4
aVNOV 12, 2006
p5
aVLAL vs. MEM
p6
aVW
p7
aI18
aI3
aI5
aF0.6
aI0
aI0
aF0.0
aI0
aI2
aF0.0
aI0
aI2
aI2
aI0
aI1
aI0
aI2
aI3
aI6
aI3
aa(lp8
V0020600127
p9
aVNOV 17, 2006
p10
aVLAL vs. TOR
p11
aVW
p12
aI19
aI3
aI5
aF0.6
aI0
aI0
aF0.0
aI2
aI6
aF0.333
aI3
aI4
aI7
aI1
aI0
aI1
aI1
aI3
aI8
aI0
aa(lp13
V0020600142
p14
aVNOV 19, 2006
p15
aVLAL vs. CHI
p16
aVW
p17
aI19
aI1
aI3
aF0.333
aI0
aI0
aF0.0
aI1
aI3
aF0.333
aI2
aI7
aI9
aI0
aI2
aI0
aI1
aI3
aI3
aI17
aa(lp18
V0020600157
p19
aVNOV 21, 2006
p20
aVLAL vs. LAC
p21
aVW
p22
aI29
aI3
aI9
aF0.333
aI0
aI0
aF0.0
aI4
aI8
aF0.5
aI7
aI7
aI14
aI1
aI0
aI1
aI1
aI3
aI10
aI-2
aa(lp23
V0020600181
p24
aVNOV 24, 2006
p25
aVLAL @ UTA
p26
aVL
p27
aI32
aI6
aI10
aF0.6
aI0
aI0
aF0.0
aI3
aI4
aF0.75
aI3
aI2
aI5
aI2
aI3
aI3
aI0
aI3
aI15
aI4
aa(lp28
V0020600199
p29
aVNOV 26, 2006
p30
aVLAL vs. NJN
p31
aVW
p32
aI25
aI5
aI6
aF0.833
aI0
aI0
aF0.0
aI3
aI5
aF0.6
aI3
aI6
aI9
aI1
aI1
aI2
aI2
aI4
aI13
aI10
aa(lp33
V0020600212
p34
aVNOV 28, 2006
p35
aVLAL vs. MIL
p36
aVL
p37
aI25
aI0
aI1
aF0.0
aI0
aI0
aF0.0
aI2
aI2
aF1.0
aI1
aI1
aI2
aI3
aI0
aI1
aI0
aI2
aI2
aI4
aa(lp38
V0020600223
p39
aVNOV 30, 2006
p40
aVLAL vs. UTA
p41
aVW
p42
aI22
aI0
aI2
aF0.0
aI0
aI0
aF0.0
aI2
aI4
aF0.5
aI1
aI4
aI5
aI4
aI0
aI1
aI1
aI3
aI2
aI8
aa(lp43
V0020600242
p44
aVDEC 02, 2006
p45
aVLAL @ LAC
p46
aVW
p47
aI34
aI3
aI5
aF0.6
aI0
aI0
aF0.0
aI1
aI6
aF0.167
aI2
aI6
aI8
aI1
aI3
aI3
aI3
aI3
aI7
aI10
aa(lp48
V0020600254
p49
aVDEC 04, 2006
p50
aVLAL vs. IND
p51
aVW
p52
aI24
aI8
aI12
aF0.667
aI0
aI0
aF0.0
aI1
aI4
aF0.25
aI1
aI3
aI4
aI2
aI2
aI0
aI4
aI5
aI17
aI26
aa(lp53
V0020600270
p54
aVDEC 06, 2006
p55
aVLAL vs. NOK
p56
aVL
p57
aI30
aI4
aI8
aF0.5
aI0
aI0
aF0.0
aI1
aI1
aF1.0
aI2
aI7
aI9
aI3
aI0
aI1
aI1
aI3
aI9
aI-15
aa(lp58
V0020600284
p59
aVDEC 08, 2006
p60
aVLAL vs. ATL
p61
aVW
p62
aI19
aI5
aI6
aF0.833
aI0
aI0
aF0.0
aI3
aI4
aF0.75
aI1
aI6
aI7
aI7
aI0
aI1
aI3
aI5
aI13
aI13
aa(lp63
V0020600299
p64
aVDEC 10, 2006
p65
aVLAL vs. SAS
p66
aVW
p67
aI30
aI5
aI8
aF0.625
aI0
aI0
aF0.0
aI1
aI6
aF0.167
aI5
aI0
aI5
aI3
aI1
aI2
aI4
aI4
aI11
aI8
aa(lp68
V0020600311
p69
aVDEC 12, 2006
p70
aVLAL @ HOU
p71
aVW
p72
aI27
aI6
aI7
aF0.857
aI0
aI0
aF0.0
aI0
aI0
aF0.0
aI1
aI3
aI4
aI4
aI2
aI0
aI2
aI3
aI12
aI18
aa(lp73
V0020600324
p74
aVDEC 13, 2006
p75
aVLAL @ DAL
p76
aVL
p77
aI30
aI2
aI7
aF0.286
aI0
aI0
aF0.0
aI1
aI4
aF0.25
aI3
aI1
aI4
aI1
aI2
aI0
aI0
aI1
aI5
aI-19
aa(lp78
V0020600340
p79
aVDEC 15, 2006
p80
aVLAL vs. HOU
p81
aVW
p82
aI40
aI3
aI6
aF0.5
aI0
aI1
aF0.0
aI1
aI5
aF0.2
aI4
aI6
aI10
aI2
aI3
aI3
aI2
aI5
aI7
aI22
aa(lp83
V0020600355
p84
aVDEC 17, 2006
p85
aVLAL vs. WAS
p86
aVL
p87
aI25
aI1
aI3
aF0.333
aI0
aI0
aF0.0
aI1
aI2
aF0.5
aI2
aI4
aI6
aI5
aI1
aI0
aI1
aI1
aI3
aI-8
aa(lp88
V0020600362
p89
aVDEC 19, 2006
p90
aVLAL @ CHI
p91
aVL
p92
aI36
aI8
aI14
aF0.571
aI0
aI0
aF0.0
aI2
aI5
aF0.4
aI4
aI8
aI12
aI2
aI1
aI2
aI2
aI0
aI18
aI-9
aa(lp93
V0020600372
p94
aVDEC 20, 2006
p95
aVLAL @ MIN
p96
aVW
p97
aI23
aI3
aI7
aF0.429
aI0
aI0
aF0.0
aI0
aI1
aF0.0
aI3
aI1
aI4
aI2
aI0
aI0
aI1
aI0
aI6
aI-14
aa(lp98
V0020600381
p99
aVDEC 22, 2006
p100
aVLAL @ NJN
p101
aVW
p102
aI20
aI4
aI5
aF0.8
aI0
aI0
aF0.0
aI0
aI1
aF0.0
aI1
aI1
aI2
aI0
aI0
aI0
aI3
aI3
aI8
aI-2
aa(lp103
V0020600403
p104
aVDEC 25, 2006
p105
aVLAL @ MIA
p106
aVL
p107
aI21
aI3
aI4
aF0.75
aI0
aI0
aF0.0
aI1
aI2
aF0.5
aI0
aI2
aI2
aI2
aI1
aI0
aI1
aI3
aI7
aI-1
aa(lp108
V0020600418
p109
aVDEC 27, 2006
p110
aVLAL @ ORL
p111
aVW
p112
aI34
aI4
aI7
aF0.571
aI0
aI0
aF0.0
aI2
aI2
aF1.0
aI3
aI3
aI6
aI1
aI2
aI2
aI5
aI4
aI10
aI11
aa(lp113
V0020600431
p114
aVDEC 29, 2006
p115
aVLAL @ CHA
p116
aVL
p117
aI44
aI4
aI10
aF0.4
aI0
aI0
aF0.0
aI3
aI8
aF0.375
aI3
aI12
aI15
aI1
aI1
aI5
aI4
aI5
aI11
aI-1
aa(lp118
V0020600456
p119
aVDEC 31, 2006
p120
aVLAL vs. PHI
p121
aVW
p122
aI17
aI3
aI5
aF0.6
aI0
aI0
aF0.0
aI0
aI2
aF0.0
aI5
aI3
aI8
aI0
aI0
aI1
aI1
aI0
aI6
aI5
aa(lp123
V0020600878
p124
aVMAR 02, 2007
p125
aVLAL vs. SAC
p126
aVL
p127
aI20
aI0
aI0
aF0.0
aI0
aI0
aF0.0
aI0
aI0
aF0.0
aI1
aI2
aI3
aI3
aI0
aI1
aI0
aI2
aI0
aI9
aa(lp128
V0020600890
p129
aVMAR 04, 2007
p130
aVLAL @ PHX
p131
aVL
p132
aI28
aI3
aI5
aF0.6
aI0
aI0
aF0.0
aI0
aI0
aF0.0
aI2
aI6
aI8
aI1
aI0
aI1
aI3
aI3
aI6
aI-14
aa(lp133
V0020600902
p134
aVMAR 06, 2007
p135
aVLAL @ MIN
p136
aVL
p137
aI21
aI1
aI5
aF0.2
aI0
aI0
aF0.0
aI0
aI0
aF0.0
aI0
aI3
aI3
aI1
aI1
aI0
aI0
aI3
aI2
aI-15
aa(lp138
V0020600913
p139
aVMAR 07, 2007
p140
aVLAL @ MIL
p141
aVL
p142
aI29
aI5
aI8
aF0.625
aI0
aI0
aF0.0
aI3
aI5
aF0.6
aI2
aI4
aI6
aI2
aI0
aI3
aI4
aI3
aI13
aI-17
aa(lp143
V0020600919
p144
aVMAR 09, 2007
p145
aVLAL @ PHI
p146
aVL
p147
aI35
aI5
aI7
aF0.714
aI0
aI0
aF0.0
aI1
aI2
aF0.5
aI1
aI9
aI10
aI4
aI0
aI2
aI2
aI4
aI11
aI-14
aa(lp148
V0020600941
p149
aVMAR 11, 2007
p150
aVLAL vs. DAL
p151
aVL
p152
aI24
aI3
aI4
aF0.75
aI0
aI0
aF0.0
aI4
aI9
aF0.444
aI2
aI2
aI4
aI0
aI0
aI0
aI1
aI2
aI10
aI-18
aa(lp153
V0020600969
p154
aVMAR 15, 2007
p155
aVLAL @ DEN
p156
aVL
p157
aI30
aI5
aI7
aF0.714
aI0
aI0
aF0.0
aI1
aI3
aF0.333
aI1
aI3
aI4
aI0
aI1
aI1
aI1
aI4
aI11
aI-10
aa(lp158
V0020600977
p159
aVMAR 16, 2007
p160
aVLAL vs. POR
p161
aVW
p162
aI41
aI3
aI6
aF0.5
aI0
aI0
aF0.0
aI0
aI0
aF0.0
aI4
aI3
aI7
aI2
aI0
aI2
aI1
aI5
aI6
aI11
aa(lp163
V0020600994
p164
aVMAR 18, 2007
p165
aVLAL vs. MIN
p166
aVW
p167
aI27
aI2
aI2
aF1.0
aI0
aI0
aF0.0
aI0
aI0
aF0.0
aI1
aI4
aI5
aI2
aI2
aI1
aI2
aI2
aI4
aI24
aa(lp168
V0020601016
p169
aVMAR 22, 2007
p170
aVLAL @ MEM
p171
aVW
p172
aI39
aI2
aI5
aF0.4
aI0
aI0
aF0.0
aI4
aI8
aF0.5
aI1
aI3
aI4
aI3
aI2
aI2
aI3
aI2
aI8
aI-6
aa(lp173
V0020601027
p174
aVMAR 23, 2007
p175
aVLAL @ NOK
p176
aVW
p177
aI21
aI5
aI7
aF0.714
aI0
aI0
aF0.0
aI0
aI1
aF0.0
aI0
aI0
aI0
aI1
aI2
aI1
aI2
aI5
aI10
aI2
aa(lp178
V0020601044
p179
aVMAR 25, 2007
p180
aVLAL vs. GSW
p181
aVW
p182
aI24
aI2
aI3
aF0.667
aI0
aI0
aF0.0
aI0
aI0
aF0.0
aI1
aI5
aI6
aI0
aI0
aI1
aI5
aI3
aI4
aI1
aa(lp183
V0020601081
p184
aVMAR 30, 2007
p185
aVLAL vs. HOU
p186
aVL
p187
aI40
aI5
aI8
aF0.625
aI0
aI0
aF0.0
aI5
aI8
aF0.625
aI2
aI5
aI7
aI1
aI3
aI2
aI0
aI5
aI15
aI-3
aa(lp188
V0020601099
p189
aVAPR 01, 2007
p190
aVLAL vs. SAC
p191
aVW
p192
aI26
aI4
aI4
aF1.0
aI0
aI0
aF0.0
aI2
aI3
aF0.667
aI2
aI5
aI7
aI3
aI0
aI0
aI1
aI3
aI10
aI9
aa(lp193
V0020601107
p194
aVAPR 03, 2007
p195
aVLAL vs. DEN
p196
aVL
p197
aI16
aI3
aI5
aF0.6
aI0
aI0
aF0.0
aI0
aI0
aF0.0
aI0
aI3
aI3
aI2
aI0
aI0
aI3
aI2
aI6
aI-1
aa(lp198
V0020601202
p199
aVAPR 15, 2007
p200
aVLAL vs. SEA
p201
aVW
p202
aI27
aI1
aI3
aF0.333
aI0
aI0
aF0.0
aI1
aI5
aF0.2
aI1
aI3
aI4
aI2
aI1
aI2
aI1
aI4
aI3
aI16
aa(lp203
V0020601227
p204
aVAPR 18, 2007
p205
aVLAL @ SAC
p206
aVW
p207
aI23
aI7
aI8
aF0.875
aI0
aI0
aF0.0
aI3
aI3
aF1.0
aI0
aI4
aI4
aI0
aI1
aI1
aI2
aI3
aI17
aI11
aasS'name'
p208
VKwame Brown
p209
sS'weight'
p210
V290
p211
sS'age'
p212
I24
sS'experience'
p213
I5
sS'height'
p214
V6-11
p215
sS'position'
p216
VCenter
p217
s.