(dp0
S'age'
p1
I24
sS'stats'
p2
(lp3
(lp4
V0020601114
p5
aVAPR 04, 2007
p6
aVNOK vs. SEA
p7
aVW
p8
aI7
aI0
aI2
aF0.0
aI0
aI0
aF0.0
aI0
aI0
aF0.0
aI2
aI1
aI3
aI0
aI0
aI0
aI0
aI1
aI0
aI1
aa(lp9
V0020600547
p10
aVAPR 03, 2007
p11
aVNOK @ MIL
p12
aVW
p13
aI36
aI8
aI12
aF0.667
aI0
aI0
aF0.0
aI2
aI4
aF0.5
aI6
aI14
aI20
aI1
aI0
aI1
aI3
aI1
aI18
aI30
aa(lp14
V0020601086
p15
aVMAR 31, 2007
p16
aVNOK vs. NYK
p17
aVW
p18
aI40
aI4
aI6
aF0.667
aI0
aI0
aF0.0
aI5
aI8
aF0.625
aI6
aI7
aI13
aI2
aI1
aI1
aI2
aI5
aI13
aI3
aa(lp19
V0020601064
p20
aVMAR 28, 2007
p21
aVNOK @ SAS
p22
aVL
p23
aI38
aI3
aI6
aF0.5
aI0
aI0
aF0.0
aI4
aI4
aF1.0
aI1
aI11
aI12
aI0
aI0
aI1
aI2
aI4
aI10
aI0
aa(lp24
V0020601055
p25
aVMAR 27, 2007
p26
aVNOK vs. DAL
p27
aVL
p28
aI28
aI5
aI8
aF0.625
aI0
aI0
aF0.0
aI3
aI5
aF0.6
aI5
aI3
aI8
aI2
aI1
aI1
aI1
aI3
aI13
aI-22
aa(lp29
V0020601039
p30
aVMAR 25, 2007
p31
aVNOK vs. HOU
p32
aVW
p33
aI37
aI6
aI11
aF0.545
aI0
aI0
aF0.0
aI2
aI4
aF0.5
aI4
aI6
aI10
aI1
aI0
aI3
aI1
aI2
aI14
aI7
aa(lp34
V0020601027
p35
aVMAR 23, 2007
p36
aVNOK vs. LAL
p37
aVL
p38
aI40
aI9
aI13
aF0.692
aI0
aI0
aF0.0
aI4
aI5
aF0.8
aI9
aI13
aI22
aI3
aI1
aI2
aI3
aI2
aI22
aI-2
aa(lp39
V0020601001
p40
aVMAR 20, 2007
p41
aVNOK @ MEM
p42
aVW
p43
aI40
aI8
aI9
aF0.889
aI0
aI0
aF0.0
aI0
aI0
aF0.0
aI5
aI6
aI11
aI4
aI1
aI3
aI3
aI2
aI16
aI16
aa(lp44
V0020600996
p45
aVMAR 19, 2007
p46
aVNOK vs. BOS
p47
aVW
p48
aI27
aI6
aI9
aF0.667
aI0
aI0
aF0.0
aI4
aI8
aF0.5
aI3
aI8
aI11
aI2
aI1
aI0
aI1
aI2
aI16
aI21
aa(lp49
V0020600979
p50
aVMAR 17, 2007
p51
aVNOK @ WAS
p52
aVL
p53
aI33
aI2
aI8
aF0.25
aI0
aI0
aF0.0
aI0
aI0
aF0.0
aI2
aI8
aI10
aI0
aI0
aI1
aI2
aI2
aI4
aI-20
aa(lp54
V0020600973
p55
aVMAR 16, 2007
p56
aVNOK @ NYK
p57
aVW
p58
aI41
aI1
aI2
aF0.5
aI0
aI0
aF0.0
aI4
aI5
aF0.8
aI6
aI5
aI11
aI1
aI1
aI1
aI3
aI4
aI6
aI4
aa(lp59
V0020600951
p60
aVMAR 13, 2007
p61
aVNOK vs. NJN
p62
aVL
p63
aI35
aI2
aI3
aF0.667
aI0
aI0
aF0.0
aI2
aI4
aF0.5
aI5
aI6
aI11
aI0
aI0
aI1
aI3
aI6
aI6
aI1
aa(lp64
V0020600933
p65
aVMAR 10, 2007
p66
aVNOK @ UTA
p67
aVL
p68
aI38
aI6
aI7
aF0.857
aI0
aI0
aF0.0
aI0
aI0
aF0.0
aI2
aI4
aI6
aI2
aI0
aI6
aI1
aI2
aI12
aI-6
aa(lp69
V0020600925
p70
aVMAR 09, 2007
p71
aVNOK @ PHX
p72
aVL
p73
aI39
aI6
aI9
aF0.667
aI0
aI0
aF0.0
aI0
aI0
aF0.0
aI4
aI7
aI11
aI2
aI1
aI1
aI3
aI3
aI12
aI0
aa(lp74
V0020600904
p75
aVMAR 06, 2007
p76
aVNOK @ DEN
p77
aVL
p78
aI40
aI7
aI10
aF0.7
aI0
aI0
aF0.0
aI1
aI3
aF0.333
aI7
aI11
aI18
aI0
aI1
aI4
aI2
aI3
aI15
aI-15
aa(lp79
V0020600891
p80
aVMAR 04, 2007
p81
aVNOK vs. UTA
p82
aVL
p83
aI38
aI10
aI13
aF0.769
aI0
aI0
aF0.0
aI0
aI1
aF0.0
aI8
aI11
aI19
aI0
aI1
aI2
aI1
aI5
aI20
aI-5
aa(lp84
V0020600875
p85
aVMAR 02, 2007
p86
aVNOK @ CHI
p87
aVL
p88
aI36
aI5
aI9
aF0.556
aI0
aI0
aF0.0
aI0
aI0
aF0.0
aI6
aI7
aI13
aI0
aI0
aI0
aI2
aI2
aI10
aI-12
aa(lp89
V0020600859
p90
aVFEB 28, 2007
p91
aVNOK vs. ATL
p92
aVW
p93
aI34
aI5
aI6
aF0.833
aI0
aI0
aF0.0
aI8
aI10
aF0.8
aI6
aI7
aI13
aI0
aI1
aI4
aI1
aI5
aI18
aI2
aa(lp94
V0020600850
p95
aVFEB 27, 2007
p96
aVNOK @ CLE
p97
aVL
p98
aI30
aI7
aI10
aF0.7
aI0
aI0
aF0.0
aI0
aI0
aF0.0
aI3
aI7
aI10
aI0
aI0
aI3
aI2
aI4
aI14
aI-9
aa(lp99
V0020600821
p100
aVFEB 23, 2007
p101
aVNOK vs. SEA
p102
aVW
p103
aI38
aI7
aI10
aF0.7
aI0
aI0
aF0.0
aI1
aI2
aF0.5
aI10
aI9
aI19
aI2
aI0
aI1
aI1
aI3
aI15
aI-6
aa(lp104
V0020600804
p105
aVFEB 21, 2007
p106
aVNOK @ NJN
p107
aVW
p108
aI39
aI4
aI7
aF0.571
aI0
aI0
aF0.0
aI2
aI4
aF0.5
aI2
aI10
aI12
aI0
aI1
aI1
aI4
aI5
aI10
aI4
aa(lp109
V0020600791
p110
aVFEB 20, 2007
p111
aVNOK @ CHA
p112
aVL
p113
aI42
aI8
aI12
aF0.667
aI0
aI0
aF0.0
aI0
aI2
aF0.0
aI7
aI13
aI20
aI0
aI0
aI2
aI1
aI2
aI16
aI5
aa(lp114
V0020600782
p115
aVFEB 14, 2007
p116
aVNOK vs. SAC
p117
aVW
p118
aI32
aI4
aI5
aF0.8
aI0
aI0
aF0.0
aI2
aI3
aF0.667
aI5
aI10
aI15
aI0
aI0
aI1
aI2
aI3
aI10
aI24
aa(lp119
V0020600771
p120
aVFEB 13, 2007
p121
aVNOK @ MEM
p122
aVL
p123
aI38
aI8
aI17
aF0.471
aI0
aI0
aF0.0
aI1
aI5
aF0.2
aI12
aI11
aI23
aI0
aI0
aI2
aI2
aI4
aI17
aI4
aa(lp124
V0020600751
p125
aVFEB 10, 2007
p126
aVNOK vs. MEM
p127
aVW
p128
aI34
aI7
aI9
aF0.778
aI0
aI0
aF0.0
aI1
aI2
aF0.5
aI2
aI14
aI16
aI2
aI0
aI1
aI0
aI4
aI15
aI18
aa(lp129
V0020600736
p130
aVFEB 08, 2007
p131
aVNOK vs. MIL
p132
aVW
p133
aI47
aI5
aI9
aF0.556
aI0
aI0
aF0.0
aI1
aI2
aF0.5
aI9
aI13
aI22
aI1
aI1
aI1
aI3
aI3
aI11
aI6
aa(lp134
V0020600734
p135
aVFEB 07, 2007
p136
aVNOK @ DEN
p137
aVW
p138
aI44
aI5
aI12
aF0.417
aI0
aI0
aF0.0
aI0
aI2
aF0.0
aI6
aI10
aI16
aI2
aI0
aI1
aI2
aI0
aI10
aI10
aa(lp139
V0020600719
p140
aVFEB 05, 2007
p141
aVNOK @ SAC
p142
aVL
p143
aI37
aI4
aI9
aF0.444
aI0
aI0
aF0.0
aI1
aI4
aF0.25
aI5
aI8
aI13
aI3
aI0
aI1
aI1
aI5
aI9
aI-3
aa(lp144
V0020600704
p145
aVFEB 03, 2007
p146
aVNOK @ HOU
p147
aVW
p148
aI37
aI4
aI9
aF0.444
aI0
aI0
aF0.0
aI3
aI6
aF0.5
aI3
aI9
aI12
aI0
aI0
aI1
aI3
aI2
aI11
aI13
aa(lp149
V0020600696
p150
aVFEB 02, 2007
p151
aVNOK vs. MIN
p152
aVW
p153
aI38
aI8
aI9
aF0.889
aI0
aI0
aF0.0
aI0
aI0
aF0.0
aI5
aI13
aI18
aI0
aI0
aI4
aI0
aI2
aI16
aI12
aa(lp154
V0020600681
p155
aVJAN 31, 2007
p156
aVNOK vs. PHI
p157
aVL
p158
aI36
aI5
aI7
aF0.714
aI0
aI0
aF0.0
aI0
aI0
aF0.0
aI6
aI9
aI15
aI1
aI1
aI2
aI2
aI3
aI10
aI-18
aa(lp159
V0020600663
p160
aVJAN 29, 2007
p161
aVNOK vs. POR
p162
aVW
p163
aI38
aI6
aI11
aF0.545
aI0
aI0
aF0.0
aI2
aI3
aF0.667
aI5
aI11
aI16
aI1
aI0
aI4
aI1
aI4
aI14
aI9
aa(lp164
V0020600649
p165
aVJAN 27, 2007
p166
aVNOK vs. UTA
p167
aVW
p168
aI40
aI1
aI2
aF0.5
aI0
aI0
aF0.0
aI6
aI6
aF1.0
aI5
aI10
aI15
aI1
aI0
aI7
aI2
aI4
aI8
aI16
aa(lp169
V0020600639
p170
aVJAN 26, 2007
p171
aVNOK vs. SAC
p172
aVW
p173
aI34
aI6
aI8
aF0.75
aI0
aI0
aF0.0
aI1
aI3
aF0.333
aI2
aI10
aI12
aI0
aI0
aI4
aI0
aI3
aI13
aI11
aa(lp174
V0020600621
p175
aVJAN 24, 2007
p176
aVNOK @ TOR
p177
aVL
p178
aI35
aI3
aI4
aF0.75
aI0
aI0
aF0.0
aI2
aI3
aF0.667
aI1
aI4
aI5
aI3
aI0
aI1
aI5
aI6
aI8
aI-5
aa(lp179
V0020600615
p180
aVJAN 23, 2007
p181
aVNOK @ PHI
p182
aVL
p183
aI36
aI2
aI5
aF0.4
aI0
aI0
aF0.0
aI5
aI6
aF0.833
aI5
aI2
aI7
aI2
aI0
aI1
aI4
aI3
aI9
aI9
aa(lp184
V0020600598
p185
aVJAN 20, 2007
p186
aVNOK vs. LAL
p187
aVW
p188
aI36
aI7
aI13
aF0.538
aI0
aI1
aF0.0
aI3
aI4
aF0.75
aI7
aI5
aI12
aI1
aI1
aI3
aI1
aI4
aI17
aI6
aa(lp189
V0020600587
p190
aVJAN 19, 2007
p191
aVNOK @ SAS
p192
aVL
p193
aI33
aI4
aI7
aF0.571
aI0
aI0
aF0.0
aI2
aI3
aF0.667
aI4
aI7
aI11
aI2
aI1
aI0
aI3
aI3
aI10
aI-18
aa(lp194
V0020600565
p195
aVJAN 16, 2007
p196
aVNOK vs. ORL
p197
aVW
p198
aI37
aI1
aI2
aF0.5
aI0
aI0
aF0.0
aI2
aI2
aF1.0
aI2
aI8
aI10
aI1
aI0
aI3
aI2
aI6
aI4
aI1
aa(lp199
V0020600536
p200
aVJAN 12, 2007
p201
aVNOK vs. WAS
p202
aVW
p203
aI37
aI5
aI6
aF0.833
aI0
aI0
aF0.0
aI0
aI0
aF0.0
aI4
aI6
aI10
aI0
aI1
aI2
aI2
aI5
aI10
aI-1
aa(lp204
V0020600517
p205
aVJAN 10, 2007
p206
aVNOK @ ATL
p207
aVW
p208
aI33
aI6
aI7
aF0.857
aI0
aI0
aF0.0
aI2
aI5
aF0.4
aI1
aI8
aI9
aI2
aI0
aI0
aI4
aI4
aI14
aI22
aa(lp209
V0020600505
p210
aVJAN 08, 2007
p211
aVNOK vs. LAC
p212
aVL
p213
aI39
aI5
aI8
aF0.625
aI0
aI0
aF0.0
aI3
aI6
aF0.5
aI5
aI8
aI13
aI1
aI1
aI2
aI3
aI3
aI13
aI-5
aa(lp214
V0020600493
p215
aVJAN 06, 2007
p216
aVNOK vs. IND
p217
aVL
p218
aI39
aI3
aI7
aF0.429
aI0
aI0
aF0.0
aI4
aI4
aF1.0
aI5
aI5
aI10
aI1
aI1
aI2
aI3
aI4
aI10
aI-6
aa(lp219
V0020600476
p220
aVJAN 04, 2007
p221
aVNOK vs. DET
p222
aVL
p223
aI34
aI1
aI3
aF0.333
aI0
aI0
aF0.0
aI1
aI2
aF0.5
aI5
aI11
aI16
aI0
aI0
aI2
aI0
aI0
aI3
aI-9
aa(lp224
V0020600462
p225
aVJAN 02, 2007
p226
aVNOK vs. GSW
p227
aVL
p228
aI34
aI2
aI4
aF0.5
aI0
aI0
aF0.0
aI0
aI0
aF0.0
aI3
aI12
aI15
aI0
aI1
aI2
aI1
aI3
aI4
aI-8
aa(lp229
V0020600448
p230
aVDEC 30, 2006
p231
aVNOK @ DAL
p232
aVL
p233
aI32
aI2
aI5
aF0.4
aI0
aI0
aF0.0
aI1
aI2
aF0.5
aI0
aI5
aI5
aI1
aI0
aI0
aI3
aI5
aI5
aI-24
aa(lp234
V0020600435
p235
aVDEC 29, 2006
p236
aVNOK vs. DEN
p237
aVW
p238
aI38
aI4
aI7
aF0.571
aI0
aI0
aF0.0
aI2
aI4
aF0.5
aI0
aI9
aI9
aI1
aI0
aI4
aI2
aI2
aI10
aI6
aa(lp239
V0020600424
p240
aVDEC 27, 2006
p241
aVNOK @ POR
p242
aVL
p243
aI36
aI2
aI3
aF0.667
aI0
aI0
aF0.0
aI1
aI2
aF0.5
aI2
aI5
aI7
aI0
aI0
aI5
aI1
aI2
aI5
aI-21
aa(lp244
V0020600413
p245
aVDEC 26, 2006
p246
aVNOK @ SEA
p247
aVL
p248
aI35
aI7
aI9
aF0.778
aI0
aI0
aF0.0
aI0
aI3
aF0.0
aI4
aI7
aI11
aI0
aI1
aI1
aI2
aI5
aI14
aI-3
aa(lp249
V0020600398
p250
aVDEC 23, 2006
p251
aVNOK vs. SAS
p252
aVL
p253
aI24
aI1
aI3
aF0.333
aI0
aI0
aF0.0
aI0
aI0
aF0.0
aI4
aI5
aI9
aI0
aI1
aI0
aI1
aI2
aI2
aI-23
aa(lp254
V0020600385
p255
aVDEC 22, 2006
p256
aVNOK vs. MEM
p257
aVW
p258
aI27
aI2
aI5
aF0.4
aI0
aI0
aF0.0
aI2
aI4
aF0.5
aI10
aI7
aI17
aI1
aI1
aI1
aI2
aI6
aI6
aI-2
aa(lp259
V0020600366
p260
aVDEC 20, 2006
p261
aVNOK @ ORL
p262
aVL
p263
aI29
aI1
aI3
aF0.333
aI0
aI0
aF0.0
aI0
aI0
aF0.0
aI6
aI5
aI11
aI0
aI2
aI4
aI4
aI5
aI2
aI-13
aa(lp264
V0020600358
p265
aVDEC 18, 2006
p266
aVNOK @ MIA
p267
aVL
p268
aI39
aI4
aI8
aF0.5
aI0
aI0
aF0.0
aI2
aI2
aF1.0
aI6
aI2
aI8
aI0
aI2
aI3
aI2
aI4
aI10
aI-12
aa(lp269
V0020600347
p270
aVDEC 16, 2006
p271
aVNOK vs. DAL
p272
aVL
p273
aI33
aI2
aI2
aF1.0
aI0
aI0
aF0.0
aI0
aI1
aF0.0
aI0
aI6
aI6
aI0
aI0
aI1
aI1
aI2
aI4
aI-11
aa(lp274
V0020600305
p275
aVDEC 11, 2006
p276
aVNOK vs. CLE
p277
aVW
p278
aI38
aI2
aI2
aF1.0
aI0
aI0
aF0.0
aI0
aI2
aF0.0
aI2
aI8
aI10
aI1
aI0
aI4
aI0
aI1
aI4
aI2
aa(lp279
V0020600294
p280
aVDEC 09, 2006
p281
aVNOK @ GSW
p282
aVL
p283
aI32
aI1
aI4
aF0.25
aI0
aI0
aF0.0
aI0
aI0
aF0.0
aI3
aI6
aI9
aI1
aI3
aI0
aI1
aI3
aI2
aI-13
aa(lp284
V0020600285
p285
aVDEC 08, 2006
p286
aVNOK @ SEA
p287
aVL
p288
aI31
aI3
aI3
aF1.0
aI0
aI0
aF0.0
aI0
aI2
aF0.0
aI4
aI9
aI13
aI0
aI0
aI1
aI1
aI4
aI6
aI-3
aa(lp289
V0020600270
p290
aVDEC 06, 2006
p291
aVNOK @ LAL
p292
aVW
p293
aI32
aI4
aI5
aF0.8
aI0
aI0
aF0.0
aI2
aI2
aF1.0
aI4
aI8
aI12
aI1
aI0
aI3
aI2
aI4
aI10
aI13
aa(lp294
V0020600228
p295
aVDEC 01, 2006
p296
aVNOK vs. CHI
p297
aVL
p298
aI31
aI1
aI2
aF0.5
aI0
aI0
aF0.0
aI0
aI2
aF0.0
aI3
aI14
aI17
aI1
aI0
aI3
aI2
aI4
aI2
aI19
aa(lp299
V0020600206
p300
aVNOV 28, 2006
p301
aVNOK vs. TOR
p302
aVL
p303
aI39
aI3
aI4
aF0.75
aI0
aI0
aF0.0
aI0
aI2
aF0.0
aI4
aI13
aI17
aI0
aI0
aI2
aI0
aI3
aI6
aI-18
aa(lp304
V0020600191
p305
aVNOV 25, 2006
p306
aVNOK @ DAL
p307
aVL
p308
aI60
aI3
aI3
aF1.0
aI0
aI0
aF0.0
aI0
aI2
aF0.0
aI3
aI5
aI8
aI0
aI0
aI2
aI1
aI3
aI6
aI-19
aa(lp309
V0020600178
p310
aVNOV 24, 2006
p311
aVNOK vs. MIN
p312
aVL
p313
aI36
aI2
aI2
aF1.0
aI0
aI0
aF0.0
aI2
aI2
aF1.0
aI2
aI8
aI10
aI0
aI0
aI1
aI1
aI4
aI6
aI-4
aa(lp314
V0020600166
p315
aVNOV 22, 2006
p316
aVNOK @ PHX
p317
aVL
p318
aI31
aI2
aI3
aF0.667
aI0
aI0
aF0.0
aI0
aI2
aF0.0
aI6
aI10
aI16
aI2
aI2
aI1
aI1
aI1
aI4
aI-7
aa(lp319
V0020600154
p320
aVNOV 21, 2006
p321
aVNOK vs. MIA
p322
aVW
p323
aI30
aI2
aI5
aF0.4
aI0
aI0
aF0.0
aI3
aI7
aF0.429
aI5
aI13
aI18
aI1
aI3
aI1
aI1
aI4
aI7
aI8
aa(lp324
V0020600135
p325
aVNOV 18, 2006
p326
aVNOK @ MIN
p327
aVW
p328
aI28
aI2
aI2
aF1.0
aI0
aI0
aF0.0
aI0
aI0
aF0.0
aI1
aI5
aI6
aI0
aI1
aI0
aI0
aI4
aI4
aI-3
aa(lp329
V0020600102
p330
aVNOV 14, 2006
p331
aVNOK vs. CHA
p332
aVW
p333
aI40
aI1
aI5
aF0.2
aI0
aI0
aF0.0
aI0
aI2
aF0.0
aI3
aI12
aI15
aI1
aI0
aI1
aI2
aI4
aI2
aI7
aa(lp334
V0020600090
p335
aVNOV 12, 2006
p336
aVNOK @ LAC
p337
aVL
p338
aI35
aI4
aI4
aF1.0
aI0
aI0
aF0.0
aI0
aI1
aF0.0
aI6
aI7
aI13
aI1
aI1
aI2
aI2
aI5
aI8
aI0
aa(lp339
V0020600080
p340
aVNOV 10, 2006
p341
aVNOK @ POR
p342
aVL
p343
aI19
aI2
aI4
aF0.5
aI0
aI0
aF0.0
aI0
aI0
aF0.0
aI2
aI1
aI3
aI4
aI0
aI1
aI1
aI4
aI4
aI10
aa(lp344
V0020600071
p345
aVNOV 09, 2006
p346
aVNOK @ GSW
p347
aVL
p348
aI33
aI2
aI2
aF1.0
aI0
aI0
aF0.0
aI0
aI0
aF0.0
aI3
aI8
aI11
aI2
aI0
aI1
aI2
aI2
aI4
aI-6
aa(lp349
V0020600056
p350
aVNOV 07, 2006
p351
aVNOK vs. GSW
p352
aVW
p353
aI33
aI4
aI5
aF0.8
aI0
aI0
aF0.0
aI2
aI3
aF0.667
aI6
aI8
aI14
aI0
aI0
aI1
aI0
aI2
aI10
aI13
aa(lp354
V0020600043
p355
aVNOV 05, 2006
p356
aVNOK vs. HOU
p357
aVW
p358
aI25
aI2
aI3
aF0.667
aI0
aI0
aF0.0
aI4
aI10
aF0.4
aI5
aI6
aI11
aI0
aI1
aI0
aI1
aI5
aI8
aI4
aa(lp359
V0020600020
p360
aVNOV 03, 2006
p361
aVNOK @ IND
p362
aVW
p363
aI16
aI3
aI5
aF0.6
aI0
aI0
aF0.0
aI1
aI2
aF0.5
aI8
aI7
aI15
aI1
aI0
aI0
aI0
aI2
aI7
aI1
aa(lp364
V0020600006
p365
aVNOV 01, 2006
p366
aVNOK @ BOS
p367
aVW
p368
aI27
aI3
aI5
aF0.6
aI0
aI0
aF0.0
aI0
aI2
aF0.0
aI2
aI7
aI9
aI1
aI0
aI0
aI2
aI6
aI6
aI-6
aasS'name'
p369
VTyson Chandler
p370
sS'experience'
p371
I5
s.