(dp0
S'age'
p1
I25
sS'stats'
p2
(lp3
(lp4
V0020601228
p5
aVAPR 18, 2007
p6
aVGSW @ POR
p7
aVW
p8
aI33
aI10
aI16
aF0.625
aI4
aI6
aF0.667
aI1
aI3
aF0.333
aI2
aI6
aI8
aI2
aI3
aI0
aI2
aI1
aI25
aI15
aa(lp9
V0020601216
p10
aVAPR 17, 2007
p11
aVGSW vs. DAL
p12
aVW
p13
aI40
aI5
aI15
aF0.333
aI2
aI6
aF0.333
aI2
aI4
aF0.5
aI2
aI5
aI7
aI2
aI0
aI2
aI0
aI3
aI14
aI28
aa(lp14
V0020601198
p15
aVAPR 15, 2007
p16
aVGSW vs. MIN
p17
aVW
p18
aI37
aI11
aI17
aF0.647
aI4
aI7
aF0.667
aI6
aI7
aF0.857
aI4
aI8
aI12
aI7
aI3
aI1
aI1
aI2
aI32
aI41
aa(lp19
V0020601184
p20
aVAPR 13, 2007
p21
aVGSW @ SAC
p22
aVW
p23
aI31
aI4
aI9
aF0.444
aI3
aI6
aF0.5
aI6
aI8
aF0.75
aI1
aI4
aI5
aI5
aI0
aI0
aI2
aI4
aI17
aI-1
aa(lp24
V0020601156
p25
aVAPR 09, 2007
p26
aVGSW vs. UTA
p27
aVW
p28
aI31
aI4
aI9
aF0.444
aI2
aI6
aF0.333
aI1
aI2
aF0.5
aI1
aI5
aI6
aI4
aI0
aI2
aI2
aI4
aI11
aI15
aa(lp29
V0020601137
p30
aVAPR 07, 2007
p31
aVGSW @ SAS
p32
aVL
p33
aI37
aI9
aI17
aF0.529
aI5
aI9
aF0.556
aI0
aI1
aF0.0
aI1
aI5
aI6
aI1
aI0
aI0
aI0
aI4
aI23
aI-13
aa(lp34
V0020601127
p35
aVAPR 06, 2007
p36
aVGSW @ MEM
p37
aVW
p38
aI38
aI6
aI16
aF0.375
aI5
aI13
aF0.385
aI2
aI2
aF1.0
aI0
aI3
aI3
aI2
aI1
aI0
aI5
aI1
aI19
aI10
aa(lp39
V0020601115
p40
aVAPR 04, 2007
p41
aVGSW @ HOU
p42
aVW
p43
aI40
aI9
aI17
aF0.529
aI7
aI11
aF0.636
aI2
aI3
aF0.667
aI0
aI9
aI9
aI1
aI2
aI3
aI2
aI2
aI27
aI6
aa(lp44
V0020601093
p45
aVAPR 01, 2007
p46
aVGSW vs. MEM
p47
aVW
p48
aI40
aI9
aI18
aF0.5
aI2
aI9
aF0.222
aI6
aI6
aF1.0
aI0
aI6
aI6
aI8
aI2
aI2
aI1
aI5
aI26
aI14
aa(lp49
V0020601071
p50
aVMAR 29, 2007
p51
aVGSW vs. PHX
p52
aVW
p53
aI47
aI14
aI23
aF0.609
aI8
aI13
aF0.615
aI0
aI0
aF0.0
aI2
aI10
aI12
aI3
aI1
aI0
aI0
aI3
aI36
aI10
aa(lp54
V0020601053
p55
aVMAR 26, 2007
p56
aVGSW vs. SAS
p57
aVL
p58
aI29
aI0
aI8
aF0.0
aI0
aI3
aF0.0
aI0
aI0
aF0.0
aI0
aI0
aI0
aI1
aI0
aI0
aI2
aI4
aI0
aI-31
aa(lp59
V0020601044
p60
aVMAR 25, 2007
p61
aVGSW @ LAL
p62
aVL
p63
aI33
aI2
aI12
aF0.167
aI2
aI9
aF0.222
aI3
aI4
aF0.75
aI1
aI4
aI5
aI6
aI4
aI0
aI1
aI3
aI9
aI-4
aa(lp64
V0020601030
p65
aVMAR 23, 2007
p66
aVGSW vs. WAS
p67
aVW
p68
aI33
aI9
aI16
aF0.563
aI4
aI8
aF0.5
aI1
aI1
aF1.0
aI0
aI1
aI1
aI6
aI2
aI0
aI3
aI4
aI23
aI8
aa(lp69
V0020601003
p70
aVMAR 20, 2007
p71
aVGSW @ UTA
p72
aVL
p73
aI37
aI9
aI18
aF0.5
aI3
aI7
aF0.429
aI0
aI0
aF0.0
aI1
aI1
aI2
aI2
aI2
aI0
aI0
aI2
aI21
aI-8
aa(lp74
V0020600987
p75
aVMAR 17, 2007
p76
aVGSW @ SEA
p77
aVW
p78
aI35
aI7
aI19
aF0.368
aI3
aI8
aF0.375
aI6
aI6
aF1.0
aI2
aI1
aI3
aI3
aI2
aI0
aI1
aI5
aI23
aI-4
aa(lp79
V0020600978
p80
aVMAR 16, 2007
p81
aVGSW vs. MIN
p82
aVW
p83
aI37
aI5
aI15
aF0.333
aI2
aI8
aF0.25
aI2
aI2
aF1.0
aI0
aI7
aI7
aI8
aI2
aI0
aI2
aI3
aI14
aI21
aa(lp84
V0020600947
p85
aVMAR 12, 2007
p86
aVGSW vs. DAL
p87
aVW
p88
aI36
aI6
aI15
aF0.4
aI1
aI4
aF0.25
aI3
aI5
aF0.6
aI1
aI7
aI8
aI7
aI4
aI1
aI1
aI3
aI16
aI18
aa(lp89
V0020600942
p90
aVMAR 11, 2007
p91
aVGSW @ POR
p92
aVL
p93
aI29
aI6
aI14
aF0.429
aI2
aI6
aF0.333
aI0
aI0
aF0.0
aI1
aI2
aI3
aI5
aI0
aI0
aI0
aI3
aI14
aI-16
aa(lp94
V0020600926
p95
aVMAR 09, 2007
p96
aVGSW vs. LAC
p97
aVW
p98
aI17
aI4
aI10
aF0.4
aI0
aI3
aF0.0
aI0
aI0
aF0.0
aI0
aI1
aI1
aI2
aI1
aI0
aI0
aI4
aI8
aI-3
aa(lp99
V0020600916
p100
aVMAR 07, 2007
p101
aVGSW vs. DEN
p102
aVW
p103
aI38
aI6
aI14
aF0.429
aI4
aI8
aF0.5
aI0
aI0
aF0.0
aI2
aI4
aI6
aI4
aI0
aI3
aI4
aI3
aI16
aI19
aa(lp104
V0020600897
p105
aVMAR 05, 2007
p106
aVGSW @ DET
p107
aVW
p108
aI37
aI9
aI17
aF0.529
aI5
aI10
aF0.5
aI6
aI6
aF1.0
aI1
aI5
aI6
aI4
aI0
aI0
aI4
aI3
aI29
aI20
aa(lp109
V0020600888
p110
aVMAR 04, 2007
p111
aVGSW @ WAS
p112
aVL
p113
aI44
aI12
aI28
aF0.429
aI4
aI9
aF0.444
aI0
aI2
aF0.0
aI4
aI6
aI10
aI8
aI0
aI3
aI1
aI3
aI28
aI6
aa(lp114
V0020600871
p115
aVMAR 02, 2007
p116
aVGSW @ NYK
p117
aVL
p118
aI39
aI4
aI13
aF0.308
aI1
aI4
aF0.25
aI0
aI4
aF0.0
aI1
aI4
aI5
aI4
aI0
aI0
aI1
aI3
aI9
aI-10
aa(lp119
V0020600860
p120
aVFEB 28, 2007
p121
aVGSW @ CHI
p122
aVL
p123
aI33
aI8
aI18
aF0.444
aI1
aI6
aF0.167
aI0
aI0
aF0.0
aI3
aI3
aI6
aI1
aI0
aI1
aI2
aI1
aI17
aI-23
aa(lp124
V0020600853
p125
aVFEB 27, 2007
p126
aVGSW @ MIL
p127
aVL
p128
aI33
aI5
aI12
aF0.417
aI1
aI4
aF0.25
aI1
aI2
aF0.5
aI4
aI4
aI8
aI7
aI4
aI2
aI5
aI3
aI12
aI-21
aa(lp129
V0020600838
p130
aVFEB 25, 2007
p131
aVGSW vs. LAL
p132
aVL
p133
aI34
aI7
aI13
aF0.538
aI1
aI4
aF0.25
aI0
aI0
aF0.0
aI1
aI5
aI6
aI1
aI2
aI0
aI2
aI2
aI15
aI-8
aa(lp134
V0020600826
p135
aVFEB 24, 2007
p136
aVGSW @ LAC
p137
aVL
p138
aI34
aI7
aI16
aF0.438
aI3
aI8
aF0.375
aI1
aI2
aF0.5
aI1
aI4
aI5
aI3
aI1
aI2
aI4
aI2
aI18
aI-14
aa(lp139
V0020600810
p140
aVFEB 21, 2007
p141
aVGSW vs. MEM
p142
aVW
p143
aI37
aI8
aI22
aF0.364
aI1
aI5
aF0.2
aI2
aI2
aF1.0
aI6
aI4
aI10
aI5
aI2
aI1
aI1
aI2
aI19
aI5
aa(lp144
V0020600450
p145
aVDEC 30, 2006
p146
aVGSW @ SAC
p147
aVL
p148
aI14
aI2
aI8
aF0.25
aI0
aI2
aF0.0
aI1
aI2
aF0.5
aI2
aI1
aI3
aI0
aI0
aI1
aI1
aI0
aI5
aI-15
aa(lp149
V0020600441
p150
aVDEC 29, 2006
p151
aVGSW vs. BOS
p152
aVW
p153
aI28
aI5
aI13
aF0.385
aI1
aI3
aF0.333
aI2
aI2
aF1.0
aI1
aI1
aI2
aI3
aI1
aI3
aI1
aI4
aI13
aI9
aa(lp154
V0020600414
p155
aVDEC 26, 2006
p156
aVGSW vs. PHI
p157
aVW
p158
aI34
aI3
aI11
aF0.273
aI1
aI6
aF0.167
aI1
aI2
aF0.5
aI0
aI2
aI2
aI4
aI1
aI1
aI3
aI2
aI8
aI22
aa(lp159
V0020600394
p160
aVDEC 23, 2006
p161
aVGSW @ MIA
p162
aVL
p163
aI33
aI7
aI19
aF0.368
aI2
aI7
aF0.286
aI2
aI4
aF0.5
aI2
aI4
aI6
aI0
aI1
aI0
aI1
aI1
aI18
aI-8
aa(lp164
V0020600380
p165
aVDEC 22, 2006
p166
aVGSW @ ORL
p167
aVW
p168
aI15
aI1
aI5
aF0.2
aI1
aI2
aF0.5
aI2
aI4
aF0.5
aI0
aI2
aI2
aI1
aI1
aI0
aI2
aI1
aI5
aI3
aa(lp169
V0020600367
p170
aVDEC 20, 2006
p171
aVGSW @ BOS
p172
aVW
p173
aI41
aI4
aI19
aF0.211
aI1
aI7
aF0.143
aI0
aI0
aF0.0
aI3
aI5
aI8
aI3
aI2
aI0
aI3
aI2
aI9
aI-1
aa(lp174
V0020600356
p175
aVDEC 18, 2006
p176
aVGSW @ NJN
p177
aVL
p178
aI20
aI3
aI10
aF0.3
aI0
aI2
aF0.0
aI0
aI1
aF0.0
aI0
aI1
aI1
aI0
aI0
aI0
aI1
aI1
aI6
aI-3
aa(lp179
V0020600243
p180
aVDEC 02, 2006
p181
aVGSW vs. MIL
p182
aVL
p183
aI19
aI2
aI7
aF0.286
aI0
aI3
aF0.0
aI2
aI2
aF1.0
aI0
aI1
aI1
aI3
aI0
aI0
aI0
aI1
aI6
aI15
aa(lp184
V0020600221
p185
aVNOV 29, 2006
p186
aVGSW vs. IND
p187
aVL
p188
aI8
aI1
aI4
aF0.25
aI0
aI1
aF0.0
aI0
aI0
aF0.0
aI0
aI1
aI1
aI0
aI0
aI0
aI1
aI0
aI2
aI-11
aa(lp189
V0020600203
p190
aVNOV 27, 2006
p191
aVGSW vs. SAS
p192
aVW
p193
aI45
aI11
aI20
aF0.55
aI4
aI8
aF0.5
aI0
aI0
aF0.0
aI1
aI2
aI3
aI5
aI0
aI0
aI2
aI2
aI26
aI13
aa(lp194
V0020600194
p195
aVNOV 25, 2006
p196
aVGSW vs. UTA
p197
aVW
p198
aI44
aI6
aI18
aF0.333
aI0
aI3
aF0.0
aI1
aI5
aF0.2
aI4
aI2
aI6
aI6
aI2
aI3
aI1
aI2
aI13
aI12
aa(lp199
V0020600180
p200
aVNOV 24, 2006
p201
aVGSW @ DEN
p202
aVL
p203
aI31
aI6
aI12
aF0.5
aI1
aI4
aF0.25
aI5
aI6
aF0.833
aI1
aI3
aI4
aI4
aI0
aI0
aI1
aI3
aI18
aI-18
aa(lp204
V0020600170
p205
aVNOV 22, 2006
p206
aVGSW vs. DEN
p207
aVL
p208
aI37
aI10
aI19
aF0.526
aI3
aI7
aF0.429
aI1
aI4
aF0.25
aI2
aI6
aI8
aI6
aI4
aI0
aI2
aI5
aI24
aI-9
aa(lp209
V0020600150
p210
aVNOV 20, 2006
p211
aVGSW vs. PHX
p212
aVL
p213
aI33
aI5
aI14
aF0.357
aI2
aI4
aF0.5
aI2
aI3
aF0.667
aI1
aI2
aI3
aI3
aI1
aI0
aI0
aI2
aI14
aI-16
aa(lp214
V0020600141
p215
aVNOV 18, 2006
p216
aVGSW vs. SEA
p217
aVW
p218
aI42
aI8
aI17
aF0.471
aI2
aI5
aF0.4
aI0
aI1
aF0.0
aI1
aI3
aI4
aI3
aI0
aI0
aI2
aI0
aI18
aI9
aa(lp219
V0020600118
p220
aVNOV 16, 2006
p221
aVGSW vs. SAC
p222
aVW
p223
aI30
aI6
aI11
aF0.545
aI2
aI6
aF0.333
aI2
aI4
aF0.5
aI1
aI2
aI3
aI3
aI0
aI0
aI1
aI3
aI16
aI8
aa(lp224
V0020600107
p225
aVNOV 14, 2006
p226
aVGSW vs. TOR
p227
aVW
p228
aI36
aI4
aI13
aF0.308
aI3
aI7
aF0.429
aI3
aI4
aF0.75
aI2
aI3
aI5
aI1
aI1
aI0
aI0
aI0
aI14
aI7
aa(lp229
V0020600089
p230
aVNOV 11, 2006
p231
aVGSW vs. DET
p232
aVW
p233
aI32
aI6
aI13
aF0.462
aI2
aI5
aF0.4
aI2
aI2
aF1.0
aI3
aI6
aI9
aI4
aI0
aI0
aI0
aI1
aI16
aI29
aa(lp234
V0020600056
p235
aVNOV 07, 2006
p236
aVGSW @ NOK
p237
aVL
p238
aI25
aI2
aI9
aF0.222
aI0
aI4
aF0.0
aI2
aI2
aF1.0
aI0
aI1
aI1
aI1
aI1
aI0
aI1
aI4
aI6
aI-11
aa(lp239
V0020600048
p240
aVNOV 06, 2006
p241
aVGSW @ DAL
p242
aVW
p243
aI34
aI7
aI19
aF0.368
aI1
aI3
aF0.333
aI7
aI8
aF0.875
aI2
aI5
aI7
aI2
aI1
aI0
aI4
aI3
aI22
aI3
aa(lp244
V0020600037
p245
aVNOV 04, 2006
p246
aVGSW @ UTA
p247
aVL
p248
aI30
aI4
aI14
aF0.286
aI2
aI4
aF0.5
aI1
aI5
aF0.2
aI1
aI3
aI4
aI1
aI0
aI0
aI2
aI4
aI11
aI-16
aa(lp249
V0020600030
p250
aVNOV 03, 2006
p251
aVGSW vs. POR
p252
aVW
p253
aI29
aI3
aI9
aF0.333
aI1
aI3
aF0.333
aI1
aI1
aF1.0
aI1
aI4
aI5
aI5
aI0
aI1
aI2
aI2
aI8
aI6
aa(lp254
V0020600015
p255
aVNOV 01, 2006
p256
aVGSW vs. LAL
p257
aVL
p258
aI27
aI5
aI13
aF0.385
aI1
aI5
aF0.2
aI4
aI6
aF0.667
aI1
aI4
aI5
aI2
aI0
aI0
aI2
aI4
aI15
aI-8
aasS'name'
p259
VJason Richardson
p260
sS'experience'
p261
I5
s.