(dp0
S'stats'
p1
(lp2
(lp3
V0020600015
p4
aVNOV 01, 2006
p5
aVGSW vs. LAL
p6
aVL
p7
aI27
aI5
aI13
aF0.385
aI1
aI5
aF0.2
aI4
aI6
aF0.667
aI1
aI4
aI5
aI2
aI0
aI0
aI2
aI4
aI15
aI-8
aa(lp8
V0020600030
p9
aVNOV 03, 2006
p10
aVGSW vs. POR
p11
aVW
p12
aI29
aI3
aI9
aF0.333
aI1
aI3
aF0.333
aI1
aI1
aF1.0
aI1
aI4
aI5
aI5
aI0
aI1
aI2
aI2
aI8
aI6
aa(lp13
V0020600037
p14
aVNOV 04, 2006
p15
aVGSW @ UTA
p16
aVL
p17
aI30
aI4
aI14
aF0.286
aI2
aI4
aF0.5
aI1
aI5
aF0.2
aI1
aI3
aI4
aI1
aI0
aI0
aI2
aI4
aI11
aI-16
aa(lp18
V0020600048
p19
aVNOV 06, 2006
p20
aVGSW @ DAL
p21
aVW
p22
aI34
aI7
aI19
aF0.368
aI1
aI3
aF0.333
aI7
aI8
aF0.875
aI2
aI5
aI7
aI2
aI1
aI0
aI4
aI3
aI22
aI3
aa(lp23
V0020600056
p24
aVNOV 07, 2006
p25
aVGSW @ NOK
p26
aVL
p27
aI25
aI2
aI9
aF0.222
aI0
aI4
aF0.0
aI2
aI2
aF1.0
aI0
aI1
aI1
aI1
aI1
aI0
aI1
aI4
aI6
aI-11
aa(lp28
V0020600089
p29
aVNOV 11, 2006
p30
aVGSW vs. DET
p31
aVW
p32
aI32
aI6
aI13
aF0.462
aI2
aI5
aF0.4
aI2
aI2
aF1.0
aI3
aI6
aI9
aI4
aI0
aI0
aI0
aI1
aI16
aI29
aa(lp33
V0020600107
p34
aVNOV 14, 2006
p35
aVGSW vs. TOR
p36
aVW
p37
aI36
aI4
aI13
aF0.308
aI3
aI7
aF0.429
aI3
aI4
aF0.75
aI2
aI3
aI5
aI1
aI1
aI0
aI0
aI0
aI14
aI7
aa(lp38
V0020600118
p39
aVNOV 16, 2006
p40
aVGSW vs. SAC
p41
aVW
p42
aI30
aI6
aI11
aF0.545
aI2
aI6
aF0.333
aI2
aI4
aF0.5
aI1
aI2
aI3
aI3
aI0
aI0
aI1
aI3
aI16
aI8
aa(lp43
V0020600141
p44
aVNOV 18, 2006
p45
aVGSW vs. SEA
p46
aVW
p47
aI42
aI8
aI17
aF0.471
aI2
aI5
aF0.4
aI0
aI1
aF0.0
aI1
aI3
aI4
aI3
aI0
aI0
aI2
aI0
aI18
aI9
aa(lp48
V0020600150
p49
aVNOV 20, 2006
p50
aVGSW vs. PHX
p51
aVL
p52
aI33
aI5
aI14
aF0.357
aI2
aI4
aF0.5
aI2
aI3
aF0.667
aI1
aI2
aI3
aI3
aI1
aI0
aI0
aI2
aI14
aI-16
aa(lp53
V0020600170
p54
aVNOV 22, 2006
p55
aVGSW vs. DEN
p56
aVL
p57
aI37
aI10
aI19
aF0.526
aI3
aI7
aF0.429
aI1
aI4
aF0.25
aI2
aI6
aI8
aI6
aI4
aI0
aI2
aI5
aI24
aI-9
aa(lp58
V0020600180
p59
aVNOV 24, 2006
p60
aVGSW @ DEN
p61
aVL
p62
aI31
aI6
aI12
aF0.5
aI1
aI4
aF0.25
aI5
aI6
aF0.833
aI1
aI3
aI4
aI4
aI0
aI0
aI1
aI3
aI18
aI-18
aa(lp63
V0020600194
p64
aVNOV 25, 2006
p65
aVGSW vs. UTA
p66
aVW
p67
aI44
aI6
aI18
aF0.333
aI0
aI3
aF0.0
aI1
aI5
aF0.2
aI4
aI2
aI6
aI6
aI2
aI3
aI1
aI2
aI13
aI12
aa(lp68
V0020600203
p69
aVNOV 27, 2006
p70
aVGSW vs. SAS
p71
aVW
p72
aI45
aI11
aI20
aF0.55
aI4
aI8
aF0.5
aI0
aI0
aF0.0
aI1
aI2
aI3
aI5
aI0
aI0
aI2
aI2
aI26
aI13
aa(lp73
V0020600221
p74
aVNOV 29, 2006
p75
aVGSW vs. IND
p76
aVL
p77
aI8
aI1
aI4
aF0.25
aI0
aI1
aF0.0
aI0
aI0
aF0.0
aI0
aI1
aI1
aI0
aI0
aI0
aI1
aI0
aI2
aI-11
aa(lp78
V0020600243
p79
aVDEC 02, 2006
p80
aVGSW vs. MIL
p81
aVL
p82
aI19
aI2
aI7
aF0.286
aI0
aI3
aF0.0
aI2
aI2
aF1.0
aI0
aI1
aI1
aI3
aI0
aI0
aI0
aI1
aI6
aI15
aa(lp83
V0020600356
p84
aVDEC 18, 2006
p85
aVGSW @ NJN
p86
aVL
p87
aI20
aI3
aI10
aF0.3
aI0
aI2
aF0.0
aI0
aI1
aF0.0
aI0
aI1
aI1
aI0
aI0
aI0
aI1
aI1
aI6
aI-3
aa(lp88
V0020600367
p89
aVDEC 20, 2006
p90
aVGSW @ BOS
p91
aVW
p92
aI41
aI4
aI19
aF0.211
aI1
aI7
aF0.143
aI0
aI0
aF0.0
aI3
aI5
aI8
aI3
aI2
aI0
aI3
aI2
aI9
aI-1
aa(lp93
V0020600380
p94
aVDEC 22, 2006
p95
aVGSW @ ORL
p96
aVW
p97
aI15
aI1
aI5
aF0.2
aI1
aI2
aF0.5
aI2
aI4
aF0.5
aI0
aI2
aI2
aI1
aI1
aI0
aI2
aI1
aI5
aI3
aa(lp98
V0020600394
p99
aVDEC 23, 2006
p100
aVGSW @ MIA
p101
aVL
p102
aI33
aI7
aI19
aF0.368
aI2
aI7
aF0.286
aI2
aI4
aF0.5
aI2
aI4
aI6
aI0
aI1
aI0
aI1
aI1
aI18
aI-8
aa(lp103
V0020600414
p104
aVDEC 26, 2006
p105
aVGSW vs. PHI
p106
aVW
p107
aI34
aI3
aI11
aF0.273
aI1
aI6
aF0.167
aI1
aI2
aF0.5
aI0
aI2
aI2
aI4
aI1
aI1
aI3
aI2
aI8
aI22
aa(lp108
V0020600441
p109
aVDEC 29, 2006
p110
aVGSW vs. BOS
p111
aVW
p112
aI28
aI5
aI13
aF0.385
aI1
aI3
aF0.333
aI2
aI2
aF1.0
aI1
aI1
aI2
aI3
aI1
aI3
aI1
aI4
aI13
aI9
aa(lp113
V0020600450
p114
aVDEC 30, 2006
p115
aVGSW @ SAC
p116
aVL
p117
aI14
aI2
aI8
aF0.25
aI0
aI2
aF0.0
aI1
aI2
aF0.5
aI2
aI1
aI3
aI0
aI0
aI1
aI1
aI0
aI5
aI-15
aa(lp118
V0020600810
p119
aVFEB 21, 2007
p120
aVGSW vs. MEM
p121
aVW
p122
aI37
aI8
aI22
aF0.364
aI1
aI5
aF0.2
aI2
aI2
aF1.0
aI6
aI4
aI10
aI5
aI2
aI1
aI1
aI2
aI19
aI5
aa(lp123
V0020600826
p124
aVFEB 24, 2007
p125
aVGSW @ LAC
p126
aVL
p127
aI34
aI7
aI16
aF0.438
aI3
aI8
aF0.375
aI1
aI2
aF0.5
aI1
aI4
aI5
aI3
aI1
aI2
aI4
aI2
aI18
aI-14
aa(lp128
V0020600838
p129
aVFEB 25, 2007
p130
aVGSW vs. LAL
p131
aVL
p132
aI34
aI7
aI13
aF0.538
aI1
aI4
aF0.25
aI0
aI0
aF0.0
aI1
aI5
aI6
aI1
aI2
aI0
aI2
aI2
aI15
aI-8
aa(lp133
V0020600853
p134
aVFEB 27, 2007
p135
aVGSW @ MIL
p136
aVL
p137
aI33
aI5
aI12
aF0.417
aI1
aI4
aF0.25
aI1
aI2
aF0.5
aI4
aI4
aI8
aI7
aI4
aI2
aI5
aI3
aI12
aI-21
aa(lp138
V0020600860
p139
aVFEB 28, 2007
p140
aVGSW @ CHI
p141
aVL
p142
aI33
aI8
aI18
aF0.444
aI1
aI6
aF0.167
aI0
aI0
aF0.0
aI3
aI3
aI6
aI1
aI0
aI1
aI2
aI1
aI17
aI-23
aa(lp143
V0020600871
p144
aVMAR 02, 2007
p145
aVGSW @ NYK
p146
aVL
p147
aI39
aI4
aI13
aF0.308
aI1
aI4
aF0.25
aI0
aI4
aF0.0
aI1
aI4
aI5
aI4
aI0
aI0
aI1
aI3
aI9
aI-10
aa(lp148
V0020600888
p149
aVMAR 04, 2007
p150
aVGSW @ WAS
p151
aVL
p152
aI44
aI12
aI28
aF0.429
aI4
aI9
aF0.444
aI0
aI2
aF0.0
aI4
aI6
aI10
aI8
aI0
aI3
aI1
aI3
aI28
aI6
aa(lp153
V0020600897
p154
aVMAR 05, 2007
p155
aVGSW @ DET
p156
aVW
p157
aI37
aI9
aI17
aF0.529
aI5
aI10
aF0.5
aI6
aI6
aF1.0
aI1
aI5
aI6
aI4
aI0
aI0
aI4
aI3
aI29
aI20
aa(lp158
V0020600916
p159
aVMAR 07, 2007
p160
aVGSW vs. DEN
p161
aVW
p162
aI38
aI6
aI14
aF0.429
aI4
aI8
aF0.5
aI0
aI0
aF0.0
aI2
aI4
aI6
aI4
aI0
aI3
aI4
aI3
aI16
aI19
aa(lp163
V0020600926
p164
aVMAR 09, 2007
p165
aVGSW vs. LAC
p166
aVW
p167
aI17
aI4
aI10
aF0.4
aI0
aI3
aF0.0
aI0
aI0
aF0.0
aI0
aI1
aI1
aI2
aI1
aI0
aI0
aI4
aI8
aI-3
aa(lp168
V0020600942
p169
aVMAR 11, 2007
p170
aVGSW @ POR
p171
aVL
p172
aI29
aI6
aI14
aF0.429
aI2
aI6
aF0.333
aI0
aI0
aF0.0
aI1
aI2
aI3
aI5
aI0
aI0
aI0
aI3
aI14
aI-16
aa(lp173
V0020600947
p174
aVMAR 12, 2007
p175
aVGSW vs. DAL
p176
aVW
p177
aI36
aI6
aI15
aF0.4
aI1
aI4
aF0.25
aI3
aI5
aF0.6
aI1
aI7
aI8
aI7
aI4
aI1
aI1
aI3
aI16
aI18
aa(lp178
V0020600978
p179
aVMAR 16, 2007
p180
aVGSW vs. MIN
p181
aVW
p182
aI37
aI5
aI15
aF0.333
aI2
aI8
aF0.25
aI2
aI2
aF1.0
aI0
aI7
aI7
aI8
aI2
aI0
aI2
aI3
aI14
aI21
aa(lp183
V0020600987
p184
aVMAR 17, 2007
p185
aVGSW @ SEA
p186
aVW
p187
aI35
aI7
aI19
aF0.368
aI3
aI8
aF0.375
aI6
aI6
aF1.0
aI2
aI1
aI3
aI3
aI2
aI0
aI1
aI5
aI23
aI-4
aa(lp188
V0020601003
p189
aVMAR 20, 2007
p190
aVGSW @ UTA
p191
aVL
p192
aI37
aI9
aI18
aF0.5
aI3
aI7
aF0.429
aI0
aI0
aF0.0
aI1
aI1
aI2
aI2
aI2
aI0
aI0
aI2
aI21
aI-8
aa(lp193
V0020601030
p194
aVMAR 23, 2007
p195
aVGSW vs. WAS
p196
aVW
p197
aI33
aI9
aI16
aF0.563
aI4
aI8
aF0.5
aI1
aI1
aF1.0
aI0
aI1
aI1
aI6
aI2
aI0
aI3
aI4
aI23
aI8
aa(lp198
V0020601044
p199
aVMAR 25, 2007
p200
aVGSW @ LAL
p201
aVL
p202
aI33
aI2
aI12
aF0.167
aI2
aI9
aF0.222
aI3
aI4
aF0.75
aI1
aI4
aI5
aI6
aI4
aI0
aI1
aI3
aI9
aI-4
aa(lp203
V0020601053
p204
aVMAR 26, 2007
p205
aVGSW vs. SAS
p206
aVL
p207
aI29
aI0
aI8
aF0.0
aI0
aI3
aF0.0
aI0
aI0
aF0.0
aI0
aI0
aI0
aI1
aI0
aI0
aI2
aI4
aI0
aI-31
aa(lp208
V0020601071
p209
aVMAR 29, 2007
p210
aVGSW vs. PHX
p211
aVW
p212
aI47
aI14
aI23
aF0.609
aI8
aI13
aF0.615
aI0
aI0
aF0.0
aI2
aI10
aI12
aI3
aI1
aI0
aI0
aI3
aI36
aI10
aa(lp213
V0020601093
p214
aVAPR 01, 2007
p215
aVGSW vs. MEM
p216
aVW
p217
aI40
aI9
aI18
aF0.5
aI2
aI9
aF0.222
aI6
aI6
aF1.0
aI0
aI6
aI6
aI8
aI2
aI2
aI1
aI5
aI26
aI14
aa(lp218
V0020601115
p219
aVAPR 04, 2007
p220
aVGSW @ HOU
p221
aVW
p222
aI40
aI9
aI17
aF0.529
aI7
aI11
aF0.636
aI2
aI3
aF0.667
aI0
aI9
aI9
aI1
aI2
aI3
aI2
aI2
aI27
aI6
aa(lp223
V0020601127
p224
aVAPR 06, 2007
p225
aVGSW @ MEM
p226
aVW
p227
aI38
aI6
aI16
aF0.375
aI5
aI13
aF0.385
aI2
aI2
aF1.0
aI0
aI3
aI3
aI2
aI1
aI0
aI5
aI1
aI19
aI10
aa(lp228
V0020601137
p229
aVAPR 07, 2007
p230
aVGSW @ SAS
p231
aVL
p232
aI37
aI9
aI17
aF0.529
aI5
aI9
aF0.556
aI0
aI1
aF0.0
aI1
aI5
aI6
aI1
aI0
aI0
aI0
aI4
aI23
aI-13
aa(lp233
V0020601156
p234
aVAPR 09, 2007
p235
aVGSW vs. UTA
p236
aVW
p237
aI31
aI4
aI9
aF0.444
aI2
aI6
aF0.333
aI1
aI2
aF0.5
aI1
aI5
aI6
aI4
aI0
aI2
aI2
aI4
aI11
aI15
aa(lp238
V0020601184
p239
aVAPR 13, 2007
p240
aVGSW @ SAC
p241
aVW
p242
aI31
aI4
aI9
aF0.444
aI3
aI6
aF0.5
aI6
aI8
aF0.75
aI1
aI4
aI5
aI5
aI0
aI0
aI2
aI4
aI17
aI-1
aa(lp243
V0020601198
p244
aVAPR 15, 2007
p245
aVGSW vs. MIN
p246
aVW
p247
aI37
aI11
aI17
aF0.647
aI4
aI7
aF0.667
aI6
aI7
aF0.857
aI4
aI8
aI12
aI7
aI3
aI1
aI1
aI2
aI32
aI41
aa(lp248
V0020601216
p249
aVAPR 17, 2007
p250
aVGSW vs. DAL
p251
aVW
p252
aI40
aI5
aI15
aF0.333
aI2
aI6
aF0.333
aI2
aI4
aF0.5
aI2
aI5
aI7
aI2
aI0
aI2
aI0
aI3
aI14
aI28
aa(lp253
V0020601228
p254
aVAPR 18, 2007
p255
aVGSW @ POR
p256
aVW
p257
aI33
aI10
aI16
aF0.625
aI4
aI6
aF0.667
aI1
aI3
aF0.333
aI2
aI6
aI8
aI2
aI3
aI0
aI2
aI1
aI25
aI15
aasS'name'
p258
VJason Richardson
p259
sS'weight'
p260
V225
p261
sS'age'
p262
I25
sS'experience'
p263
I5
sS'height'
p264
V6-6
p265
sS'position'
p266
VGuard
p267
s.