(dp0
S'stats'
p1
(lp2
(lp3
V0020600016
p4
aVNOV 02, 2006
p5
aVDAL vs. SAS
p6
aVL
p7
aI27
aI1
aI3
aF0.333
aI0
aI0
aF0.0
aI1
aI3
aF0.333
aI6
aI2
aI8
aI0
aI1
aI3
aI1
aI4
aI3
aI2
aa(lp8
V0020600036
p9
aVNOV 04, 2006
p10
aVDAL @ HOU
p11
aVL
p12
aI18
aI1
aI1
aF1.0
aI0
aI0
aF0.0
aI1
aI2
aF0.5
aI3
aI1
aI4
aI0
aI0
aI0
aI3
aI3
aI3
aI-18
aa(lp13
V0020600048
p14
aVNOV 06, 2006
p15
aVDAL vs. GSW
p16
aVL
p17
aI13
aI0
aI0
aF0.0
aI0
aI0
aF0.0
aI0
aI0
aF0.0
aI2
aI1
aI3
aI1
aI0
aI0
aI1
aI3
aI0
aI1
aa(lp18
V0020600067
p19
aVNOV 08, 2006
p20
aVDAL @ LAC
p21
aVL
p22
aI12
aI1
aI1
aF1.0
aI0
aI0
aF0.0
aI2
aI2
aF1.0
aI2
aI1
aI3
aI0
aI0
aI3
aI3
aI3
aI4
aI-2
aa(lp23
V0020600070
p24
aVNOV 09, 2006
p25
aVDAL @ PHX
p26
aVW
p27
aI18
aI1
aI1
aF1.0
aI0
aI0
aF0.0
aI0
aI0
aF0.0
aI3
aI1
aI4
aI0
aI1
aI1
aI2
aI4
aI2
aI5
aa(lp28
V0020600095
p29
aVNOV 12, 2006
p30
aVDAL @ POR
p31
aVW
p32
aI18
aI2
aI3
aF0.667
aI0
aI0
aF0.0
aI0
aI0
aF0.0
aI2
aI2
aI4
aI1
aI0
aI1
aI0
aI3
aI4
aI-2
aa(lp33
V0020600105
p34
aVNOV 14, 2006
p35
aVDAL vs. CHI
p36
aVW
p37
aI11
aI1
aI1
aF1.0
aI0
aI0
aF0.0
aI0
aI0
aF0.0
aI0
aI2
aI2
aI0
aI0
aI5
aI0
aI3
aI2
aI-6
aa(lp38
V0020600124
p39
aVNOV 17, 2006
p40
aVDAL @ MEM
p41
aVW
p42
aI14
aI0
aI0
aF0.0
aI0
aI0
aF0.0
aI2
aI2
aF1.0
aI1
aI1
aI2
aI0
aI0
aI1
aI1
aI5
aI2
aI-8
aa(lp43
V0020600137
p44
aVNOV 18, 2006
p45
aVDAL vs. MEM
p46
aVW
p47
aI19
aI1
aI3
aF0.333
aI0
aI0
aF0.0
aI2
aI2
aF1.0
aI2
aI3
aI5
aI0
aI0
aI2
aI0
aI3
aI4
aI7
aa(lp48
V0020600144
p49
aVNOV 20, 2006
p50
aVDAL @ CHA
p51
aVW
p52
aI12
aI0
aI1
aF0.0
aI0
aI0
aF0.0
aI1
aI2
aF0.5
aI1
aI0
aI1
aI0
aI1
aI1
aI0
aI5
aI1
aI-4
aa(lp53
V0020600155
p54
aVNOV 21, 2006
p55
aVDAL vs. WAS
p56
aVW
p57
aI25
aI0
aI6
aF0.0
aI0
aI0
aF0.0
aI4
aI4
aF1.0
aI6
aI7
aI13
aI0
aI0
aI4
aI0
aI5
aI4
aI34
aa(lp58
V0020600179
p59
aVNOV 24, 2006
p60
aVDAL @ SAS
p61
aVW
p62
aI22
aI1
aI1
aF1.0
aI0
aI0
aF0.0
aI0
aI0
aF0.0
aI3
aI5
aI8
aI2
aI1
aI1
aI3
aI4
aI2
aI-2
aa(lp63
V0020600191
p64
aVNOV 25, 2006
p65
aVDAL vs. NOK
p66
aVW
p67
aI31
aI1
aI2
aF0.5
aI0
aI0
aF0.0
aI2
aI2
aF1.0
aI1
aI8
aI9
aI0
aI1
aI1
aI3
aI3
aI4
aI-1
aa(lp68
V0020600201
p69
aVNOV 27, 2006
p70
aVDAL vs. MIN
p71
aVW
p72
aI19
aI0
aI1
aF0.0
aI0
aI0
aF0.0
aI2
aI2
aF1.0
aI3
aI4
aI7
aI1
aI0
aI3
aI2
aI2
aI2
aI2
aa(lp73
V0020600216
p74
aVNOV 29, 2006
p75
aVDAL vs. TOR
p76
aVW
p77
aI16
aI1
aI3
aF0.333
aI0
aI0
aF0.0
aI1
aI4
aF0.25
aI2
aI3
aI5
aI0
aI0
aI1
aI1
aI2
aI3
aI3
aa(lp78
V0020600230
p79
aVDEC 01, 2006
p80
aVDAL vs. SAC
p81
aVW
p82
aI22
aI1
aI3
aF0.333
aI0
aI0
aF0.0
aI0
aI0
aF0.0
aI4
aI6
aI10
aI0
aI1
aI3
aI3
aI2
aI2
aI1
aa(lp83
V0020600248
p84
aVDEC 04, 2006
p85
aVDAL @ WAS
p86
aVL
p87
aI7
aI0
aI1
aF0.0
aI0
aI0
aF0.0
aI0
aI0
aF0.0
aI0
aI1
aI1
aI0
aI0
aI3
aI1
aI1
aI0
aI-4
aa(lp88
V0020600255
p89
aVDEC 05, 2006
p90
aVDAL @ NJN
p91
aVW
p92
aI16
aI0
aI1
aF0.0
aI0
aI0
aF0.0
aI2
aI2
aF1.0
aI2
aI3
aI5
aI0
aI0
aI1
aI1
aI4
aI2
aI19
aa(lp93
V0020600272
p94
aVDEC 07, 2006
p95
aVDAL vs. DET
p96
aVL
p97
aI13
aI1
aI1
aF1.0
aI0
aI0
aF0.0
aI0
aI0
aF0.0
aI0
aI0
aI0
aI0
aI0
aI0
aI0
aI0
aI2
aI-12
aa(lp98
V0020600293
p99
aVDEC 09, 2006
p100
aVDAL vs. DEN
p101
aVW
p102
aI23
aI1
aI3
aF0.333
aI0
aI0
aF0.0
aI0
aI0
aF0.0
aI6
aI4
aI10
aI0
aI2
aI1
aI0
aI1
aI2
aI4
aa(lp103
V0020600307
p104
aVDEC 11, 2006
p105
aVDAL @ UTA
p106
aVL
p107
aI22
aI0
aI0
aF0.0
aI0
aI0
aF0.0
aI0
aI2
aF0.0
aI1
aI5
aI6
aI0
aI1
aI3
aI2
aI4
aI0
aI-3
aa(lp108
V0020600324
p109
aVDEC 13, 2006
p110
aVDAL vs. LAL
p111
aVW
p112
aI17
aI2
aI2
aF1.0
aI0
aI0
aF0.0
aI0
aI0
aF0.0
aI1
aI3
aI4
aI0
aI0
aI1
aI0
aI5
aI4
aI-6
aa(lp113
V0020600335
p114
aVDEC 15, 2006
p115
aVDAL vs. PHI
p116
aVW
p117
aI11
aI1
aI1
aF1.0
aI0
aI0
aF0.0
aI0
aI0
aF0.0
aI0
aI5
aI5
aI0
aI0
aI2
aI1
aI1
aI2
aI-1
aa(lp118
V0020600347
p119
aVDEC 16, 2006
p120
aVDAL @ NOK
p121
aVW
p122
aI20
aI1
aI4
aF0.25
aI0
aI0
aF0.0
aI0
aI0
aF0.0
aI2
aI5
aI7
aI0
aI0
aI1
aI0
aI3
aI2
aI9
aa(lp123
V0020600361
p124
aVDEC 18, 2006
p125
aVDAL @ SAC
p126
aVW
p127
aI13
aI0
aI1
aF0.0
aI0
aI1
aF0.0
aI0
aI0
aF0.0
aI1
aI1
aI2
aI0
aI0
aI1
aI1
aI5
aI0
aI7
aa(lp128
V0020600376
p129
aVDEC 20, 2006
p130
aVDAL @ SEA
p131
aVW
p132
aI13
aI1
aI1
aF1.0
aI0
aI0
aF0.0
aI1
aI2
aF0.5
aI0
aI1
aI1
aI0
aI0
aI1
aI1
aI5
aI3
aI-4
aa(lp133
V0020600388
p134
aVDEC 22, 2006
p135
aVDAL vs. LAC
p136
aVW
p137
aI18
aI1
aI1
aF1.0
aI0
aI0
aF0.0
aI1
aI3
aF0.333
aI1
aI1
aI2
aI0
aI0
aI1
aI0
aI2
aI3
aI17
aa(lp138
V0020600409
p139
aVDEC 26, 2006
p140
aVDAL vs. CHA
p141
aVW
p142
aI22
aI0
aI1
aF0.0
aI0
aI0
aF0.0
aI1
aI2
aF0.5
aI1
aI2
aI3
aI0
aI1
aI0
aI3
aI2
aI1
aI0
aa(lp143
V0020600426
p144
aVDEC 28, 2006
p145
aVDAL vs. PHX
p146
aVW
p147
aI14
aI0
aI1
aF0.0
aI0
aI0
aF0.0
aI1
aI2
aF0.5
aI2
aI3
aI5
aI0
aI1
aI0
aI1
aI5
aI1
aI-5
aa(lp148
V0020600448
p149
aVDEC 30, 2006
p150
aVDAL vs. NOK
p151
aVW
p152
aI17
aI1
aI1
aF1.0
aI0
aI0
aF0.0
aI0
aI0
aF0.0
aI1
aI7
aI8
aI0
aI0
aI1
aI0
aI4
aI2
aI-7
aa(lp153
V0020600455
p154
aVDEC 31, 2006
p155
aVDAL @ DEN
p156
aVW
p157
aI17
aI2
aI3
aF0.667
aI0
aI0
aF0.0
aI0
aI0
aF0.0
aI3
aI2
aI5
aI0
aI1
aI0
aI0
aI3
aI4
aI-16
aa(lp158
V0020600464
p159
aVJAN 02, 2007
p160
aVDAL vs. SEA
p161
aVW
p162
aI13
aI0
aI1
aF0.0
aI0
aI0
aF0.0
aI1
aI2
aF0.5
aI5
aI1
aI6
aI1
aI1
aI0
aI0
aI3
aI1
aI-1
aa(lp163
V0020600477
p164
aVJAN 04, 2007
p165
aVDAL vs. IND
p166
aVW
p167
aI12
aI0
aI2
aF0.0
aI0
aI0
aF0.0
aI0
aI0
aF0.0
aI1
aI1
aI2
aI1
aI1
aI0
aI0
aI4
aI0
aI-3
aa(lp168
V0020600484
p169
aVJAN 05, 2007
p170
aVDAL @ SAS
p171
aVW
p172
aI22
aI1
aI1
aF1.0
aI0
aI0
aF0.0
aI3
aI4
aF0.75
aI2
aI5
aI7
aI1
aI0
aI0
aI1
aI5
aI5
aI-4
aa(lp173
V0020600504
p174
aVJAN 07, 2007
p175
aVDAL @ LAL
p176
aVL
p177
aI27
aI0
aI0
aF0.0
aI0
aI0
aF0.0
aI0
aI0
aF0.0
aI3
aI2
aI5
aI0
aI0
aI4
aI0
aI3
aI0
aI7
aa(lp178
V0020600513
p179
aVJAN 09, 2007
p180
aVDAL @ UTA
p181
aVW
p182
aI16
aI0
aI0
aF0.0
aI0
aI0
aF0.0
aI1
aI2
aF0.5
aI0
aI4
aI4
aI0
aI0
aI0
aI1
aI4
aI1
aI1
aa(lp183
V0020600524
p184
aVJAN 10, 2007
p185
aVDAL vs. POR
p186
aVW
p187
aI12
aI1
aI1
aF1.0
aI0
aI0
aF0.0
aI0
aI0
aF0.0
aI1
aI1
aI2
aI1
aI0
aI0
aI1
aI3
aI2
aI2
aa(lp188
V0020600531
p189
aVJAN 12, 2007
p190
aVDAL @ IND
p191
aVW
p192
aI12
aI1
aI2
aF0.5
aI0
aI0
aF0.0
aI0
aI0
aF0.0
aI1
aI0
aI1
aI0
aI0
aI3
aI0
aI2
aI2
aI-10
aa(lp193
V0020600566
p194
aVJAN 16, 2007
p195
aVDAL vs. HOU
p196
aVW
p197
aI5
aI0
aI0
aF0.0
aI0
aI0
aF0.0
aI0
aI0
aF0.0
aI2
aI1
aI3
aI0
aI0
aI1
aI0
aI2
aI0
aI-5
aa(lp198
V0020600580
p199
aVJAN 18, 2007
p200
aVDAL vs. LAL
p201
aVW
p202
aI14
aI2
aI4
aF0.5
aI0
aI0
aF0.0
aI0
aI0
aF0.0
aI6
aI2
aI8
aI0
aI0
aI2
aI2
aI3
aI4
aI-14
aa(lp203
V0020600602
p204
aVJAN 21, 2007
p205
aVDAL @ MIA
p206
aVW
p207
aI3
aI1
aI2
aF0.5
aI0
aI0
aF0.0
aI0
aI0
aF0.0
aI2
aI0
aI2
aI1
aI0
aI0
aI0
aI2
aI2
aI-1
aa(lp208
V0020600617
p209
aVJAN 23, 2007
p210
aVDAL @ ORL
p211
aVW
p212
aI25
aI2
aI2
aF1.0
aI0
aI0
aF0.0
aI0
aI0
aF0.0
aI1
aI4
aI5
aI0
aI3
aI3
aI1
aI4
aI4
aI6
aa(lp213
V0020600632
p214
aVJAN 25, 2007
p215
aVDAL @ CHI
p216
aVL
p217
aI18
aI0
aI2
aF0.0
aI0
aI0
aF0.0
aI0
aI0
aF0.0
aI2
aI6
aI8
aI0
aI2
aI1
aI0
aI0
aI0
aI-2
aa(lp218
V0020600651
p219
aVJAN 27, 2007
p220
aVDAL vs. SAC
p221
aVW
p222
aI24
aI2
aI2
aF1.0
aI0
aI0
aF0.0
aI0
aI0
aF0.0
aI1
aI2
aI3
aI0
aI0
aI1
aI2
aI4
aI4
aI8
aa(lp223
V0020600673
p224
aVJAN 30, 2007
p225
aVDAL vs. SEA
p226
aVW
p227
aI17
aI0
aI1
aF0.0
aI0
aI0
aF0.0
aI1
aI2
aF0.5
aI2
aI3
aI5
aI0
aI1
aI1
aI0
aI2
aI1
aI2
aa(lp228
V0020600680
p229
aVJAN 31, 2007
p230
aVDAL @ MEM
p231
aVW
p232
aI13
aI0
aI3
aF0.0
aI0
aI0
aF0.0
aI0
aI0
aF0.0
aI2
aI2
aI4
aI1
aI1
aI2
aI1
aI2
aI0
aI-3
aa(lp233
V0020600705
p234
aVFEB 03, 2007
p235
aVDAL vs. MIN
p236
aVW
p237
aI19
aI2
aI4
aF0.5
aI0
aI0
aF0.0
aI2
aI5
aF0.4
aI4
aI8
aI12
aI1
aI0
aI1
aI1
aI2
aI6
aI-5
aa(lp238
V0020600733
p239
aVFEB 07, 2007
p240
aVDAL vs. MEM
p241
aVW
p242
aI14
aI0
aI1
aF0.0
aI0
aI0
aF0.0
aI0
aI2
aF0.0
aI1
aI0
aI1
aI0
aI0
aI1
aI0
aI5
aI0
aI-6
aa(lp243
V0020600746
p244
aVFEB 09, 2007
p245
aVDAL vs. HOU
p246
aVW
p247
aI20
aI1
aI4
aF0.25
aI0
aI0
aF0.0
aI0
aI0
aF0.0
aI6
aI8
aI14
aI0
aI0
aI1
aI1
aI3
aI2
aI-10
aa(lp248
V0020600761
p249
aVFEB 11, 2007
p250
aVDAL @ PHI
p251
aVW
p252
aI16
aI0
aI0
aF0.0
aI0
aI0
aF0.0
aI2
aI2
aF1.0
aI1
aI7
aI8
aI0
aI1
aI1
aI0
aI2
aI2
aI17
aa(lp253
V0020600770
p254
aVFEB 13, 2007
p255
aVDAL @ MIL
p256
aVW
p257
aI11
aI0
aI0
aF0.0
aI0
aI0
aF0.0
aI0
aI0
aF0.0
aI0
aI1
aI1
aI0
aI0
aI0
aI2
aI1
aI0
aI-13
aa(lp258
V0020600788
p259
aVFEB 15, 2007
p260
aVDAL @ HOU
p261
aVW
p262
aI17
aI0
aI0
aF0.0
aI0
aI0
aF0.0
aI0
aI2
aF0.0
aI1
aI4
aI5
aI0
aI1
aI0
aI1
aI2
aI0
aI-5
aa(lp263
V0020600813
p264
aVFEB 22, 2007
p265
aVDAL vs. MIA
p266
aVW
p267
aI21
aI1
aI1
aF1.0
aI0
aI0
aF0.0
aI0
aI2
aF0.0
aI0
aI6
aI6
aI1
aI1
aI0
aI0
aI3
aI2
aI7
aa(lp268
V0020600830
p269
aVFEB 24, 2007
p270
aVDAL vs. DEN
p271
aVW
p272
aI16
aI2
aI4
aF0.5
aI0
aI0
aF0.0
aI1
aI2
aF0.5
aI3
aI4
aI7
aI0
aI0
aI1
aI0
aI2
aI5
aI13
aa(lp273
V0020600846
p274
aVFEB 26, 2007
p275
aVDAL vs. ATL
p276
aVW
p277
aI15
aI1
aI1
aF1.0
aI0
aI0
aF0.0
aI0
aI0
aF0.0
aI2
aI1
aI3
aI0
aI0
aI0
aI0
aI4
aI2
aI8
aa(lp278
V0020600854
p279
aVFEB 27, 2007
p280
aVDAL @ MIN
p281
aVW
p282
aI26
aI3
aI4
aF0.75
aI0
aI0
aF0.0
aI0
aI0
aF0.0
aI4
aI6
aI10
aI0
aI0
aI3
aI0
aI2
aI6
aI6
aa(lp283
V0020600865
p284
aVMAR 01, 2007
p285
aVDAL vs. CLE
p286
aVW
p287
aI23
aI3
aI4
aF0.75
aI0
aI0
aF0.0
aI2
aI2
aF1.0
aI3
aI1
aI4
aI2
aI0
aI4
aI0
aI2
aI8
aI12
aa(lp288
V0020600884
p289
aVMAR 03, 2007
p290
aVDAL vs. ORL
p291
aVW
p292
aI14
aI0
aI0
aF0.0
aI0
aI0
aF0.0
aI0
aI0
aF0.0
aI1
aI1
aI2
aI0
aI1
aI0
aI0
aI3
aI0
aI0
aa(lp293
V0020600903
p294
aVMAR 06, 2007
p295
aVDAL vs. NJN
p296
aVW
p297
aI13
aI0
aI1
aF0.0
aI0
aI0
aF0.0
aI0
aI0
aF0.0
aI1
aI2
aI3
aI0
aI0
aI2
aI3
aI2
aI0
aI-13
aa(lp298
V0020600941
p299
aVMAR 11, 2007
p300
aVDAL @ LAL
p301
aVW
p302
aI26
aI2
aI3
aF0.667
aI0
aI0
aF0.0
aI0
aI0
aF0.0
aI3
aI10
aI13
aI1
aI1
aI1
aI2
aI3
aI4
aI34
aa(lp303
V0020600947
p304
aVMAR 12, 2007
p305
aVDAL @ GSW
p306
aVL
p307
aI13
aI1
aI1
aF1.0
aI0
aI0
aF0.0
aI2
aI2
aF1.0
aI2
aI3
aI5
aI0
aI2
aI2
aI0
aI2
aI4
aI7
aa(lp308
V0020600965
p309
aVMAR 14, 2007
p310
aVDAL vs. PHX
p311
aVL
p312
aI16
aI2
aI4
aF0.5
aI0
aI0
aF0.0
aI1
aI1
aF1.0
aI5
aI2
aI7
aI1
aI0
aI0
aI0
aI0
aI5
aI-3
aa(lp313
V0020600975
p314
aVMAR 16, 2007
p315
aVDAL vs. BOS
p316
aVW
p317
aI25
aI1
aI1
aF1.0
aI0
aI0
aF0.0
aI0
aI0
aF0.0
aI2
aI3
aI5
aI1
aI0
aI3
aI2
aI3
aI2
aI0
aa(lp318
V0020600989
p319
aVMAR 18, 2007
p320
aVDAL @ DET
p321
aVW
p322
aI10
aI0
aI0
aF0.0
aI0
aI0
aF0.0
aI0
aI0
aF0.0
aI0
aI3
aI3
aI0
aI0
aI1
aI0
aI2
aI0
aI-8
aa(lp323
V0020600999
p324
aVMAR 20, 2007
p325
aVDAL @ NYK
p326
aVW
p327
aI10
aI1
aI1
aF1.0
aI0
aI0
aF0.0
aI0
aI0
aF0.0
aI0
aI1
aI1
aI0
aI1
aI2
aI0
aI3
aI2
aI1
aa(lp328
V0020601010
p329
aVMAR 21, 2007
p330
aVDAL @ CLE
p331
aVW
p332
aI8
aI2
aI2
aF1.0
aI0
aI0
aF0.0
aI0
aI0
aF0.0
aI0
aI0
aI0
aI0
aI0
aI0
aI1
aI5
aI4
aI-9
aa(lp333
V0020601024
p334
aVMAR 23, 2007
p335
aVDAL @ BOS
p336
aVW
p337
aI30
aI2
aI3
aF0.667
aI0
aI0
aF0.0
aI0
aI0
aF0.0
aI1
aI10
aI11
aI1
aI1
aI5
aI0
aI4
aI4
aI14
aa(lp338
V0020601036
p339
aVMAR 25, 2007
p340
aVDAL @ ATL
p341
aVW
p342
aI27
aI0
aI1
aF0.0
aI0
aI0
aF0.0
aI1
aI2
aF0.5
aI2
aI7
aI9
aI0
aI1
aI2
aI0
aI4
aI1
aI3
aa(lp343
V0020601055
p344
aVMAR 27, 2007
p345
aVDAL @ NOK
p346
aVW
p347
aI28
aI2
aI2
aF1.0
aI0
aI0
aF0.0
aI0
aI0
aF0.0
aI3
aI5
aI8
aI1
aI0
aI1
aI0
aI6
aI4
aI21
aa(lp348
V0020601065
p349
aVMAR 28, 2007
p350
aVDAL vs. MIL
p351
aVW
p352
aI14
aI0
aI4
aF0.0
aI0
aI0
aF0.0
aI0
aI2
aF0.0
aI3
aI3
aI6
aI2
aI0
aI0
aI1
aI2
aI0
aI2
aa(lp353
V0020601079
p354
aVMAR 30, 2007
p355
aVDAL vs. NYK
p356
aVW
p357
aI14
aI0
aI3
aF0.0
aI0
aI0
aF0.0
aI0
aI0
aF0.0
aI3
aI2
aI5
aI0
aI0
aI0
aI0
aI4
aI0
aI-6
aa(lp358
V0020601092
p359
aVAPR 01, 2007
p360
aVDAL @ PHX
p361
aVL
p362
aI26
aI0
aI0
aF0.0
aI0
aI0
aF0.0
aI0
aI0
aF0.0
aI0
aI3
aI3
aI1
aI0
aI0
aI0
aI3
aI0
aI-2
aa(lp363
V0020601106
p364
aVAPR 03, 2007
p365
aVDAL @ SAC
p366
aVW
p367
aI24
aI0
aI0
aF0.0
aI0
aI0
aF0.0
aI0
aI0
aF0.0
aI1
aI6
aI7
aI1
aI1
aI2
aI0
aI4
aI0
aI3
aa(lp368
V0020601132
p369
aVAPR 06, 2007
p370
aVDAL @ DEN
p371
aVL
p372
aI8
aI1
aI1
aF1.0
aI0
aI0
aF0.0
aI0
aI1
aF0.0
aI0
aI5
aI5
aI0
aI0
aI0
aI0
aI3
aI2
aI6
aa(lp373
V0020601140
p374
aVAPR 07, 2007
p375
aVDAL vs. POR
p376
aVW
p377
aI26
aI1
aI2
aF0.5
aI0
aI0
aF0.0
aI0
aI2
aF0.0
aI2
aI8
aI10
aI0
aI3
aI1
aI1
aI6
aI2
aI2
aa(lp378
V0020601153
p379
aVAPR 09, 2007
p380
aVDAL vs. LAC
p381
aVW
p382
aI31
aI0
aI1
aF0.0
aI0
aI0
aF0.0
aI2
aI4
aF0.5
aI4
aI5
aI9
aI1
aI2
aI2
aI1
aI5
aI2
aI8
aa(lp383
V0020601169
p384
aVAPR 11, 2007
p385
aVDAL @ MIN
p386
aVW
p387
aI34
aI5
aI7
aF0.714
aI0
aI0
aF0.0
aI0
aI1
aF0.0
aI9
aI6
aI15
aI3
aI0
aI0
aI1
aI1
aI10
aI14
aa(lp388
V0020601183
p389
aVAPR 13, 2007
p390
aVDAL vs. UTA
p391
aVL
p392
aI26
aI1
aI5
aF0.2
aI0
aI0
aF0.0
aI0
aI0
aF0.0
aI1
aI3
aI4
aI0
aI2
aI1
aI0
aI1
aI2
aI-6
aa(lp393
V0020601194
p394
aVAPR 15, 2007
p395
aVDAL vs. SAS
p396
aVW
p397
aI34
aI0
aI3
aF0.0
aI0
aI0
aF0.0
aI5
aI6
aF0.833
aI3
aI6
aI9
aI1
aI0
aI3
aI0
aI2
aI5
aI-6
aa(lp398
V0020601216
p399
aVAPR 17, 2007
p400
aVDAL @ GSW
p401
aVL
p402
aI23
aI2
aI4
aF0.5
aI0
aI0
aF0.0
aI0
aI0
aF0.0
aI1
aI5
aI6
aI0
aI1
aI4
aI1
aI3
aI4
aI-11
aa(lp403
V0020601229
p404
aVAPR 18, 2007
p405
aVDAL @ SEA
p406
aVW
p407
aI28
aI2
aI4
aF0.5
aI0
aI0
aF0.0
aI0
aI0
aF0.0
aI1
aI3
aI4
aI1
aI0
aI5
aI2
aI3
aI4
aI16
aasS'name'
p408
VDeSagana Diop
p409
sS'weight'
p410
V280
p411
sS'age'
p412
I24
sS'experience'
p413
I5
sS'height'
p414
V7-0
p415
sS'position'
p416
VCenter
p417
s.