(dp0
S'age'
p1
I25
sS'stats'
p2
(lp3
(lp4
V0020600003
p5
aVNOV 01, 2006
p6
aVATL @ PHI
p7
aVL
p8
aI46
aI9
aI23
aF0.391
aI3
aI9
aF0.333
aI4
aI4
aF1.0
aI1
aI3
aI4
aI4
aI2
aI0
aI5
aI3
aI25
aI-16
aa(lp9
V0020600022
p10
aVNOV 03, 2006
p11
aVATL vs. NYK
p12
aVW
p13
aI35
aI12
aI24
aF0.5
aI3
aI6
aF0.5
aI3
aI5
aF0.6
aI1
aI3
aI4
aI8
aI0
aI1
aI2
aI3
aI30
aI14
aa(lp14
V0020600042
p15
aVNOV 05, 2006
p16
aVATL vs. ORL
p17
aVW
p18
aI33
aI11
aI19
aF0.579
aI2
aI4
aF0.5
aI7
aI9
aF0.778
aI0
aI0
aI0
aI3
aI3
aI0
aI0
aI3
aI31
aI11
aa(lp19
V0020600052
p20
aVNOV 07, 2006
p21
aVATL @ CLE
p22
aVW
p23
aI46
aI8
aI17
aF0.471
aI3
aI3
aF1.0
aI6
aI11
aF0.545
aI0
aI8
aI8
aI5
aI1
aI0
aI6
aI4
aI25
aI0
aa(lp24
V0020600072
p25
aVNOV 10, 2006
p26
aVATL @ TOR
p27
aVW
p28
aI43
aI12
aI20
aF0.6
aI3
aI5
aF0.6
aI7
aI8
aF0.875
aI2
aI6
aI8
aI5
aI1
aI0
aI2
aI1
aI34
aI10
aa(lp29
V0020600082
p30
aVNOV 11, 2006
p31
aVATL vs. SEA
p32
aVL
p33
aI47
aI12
aI30
aF0.4
aI3
aI14
aF0.214
aI1
aI3
aF0.333
aI1
aI9
aI10
aI3
aI0
aI0
aI4
aI1
aI28
aI-4
aa(lp34
V0020600100
p35
aVNOV 14, 2006
p36
aVATL vs. MIL
p37
aVL
p38
aI38
aI10
aI18
aF0.556
aI3
aI6
aF0.5
aI6
aI6
aF1.0
aI0
aI5
aI5
aI1
aI3
aI0
aI3
aI5
aI29
aI-10
aa(lp39
V0020600130
p40
aVNOV 18, 2006
p41
aVATL vs. MIA
p42
aVL
p43
aI49
aI8
aI21
aF0.381
aI1
aI6
aF0.167
aI5
aI11
aF0.455
aI2
aI6
aI8
aI4
aI2
aI1
aI2
aI4
aI22
aI-10
aa(lp44
V0020600161
p45
aVNOV 22, 2006
p46
aVATL @ DET
p47
aVL
p48
aI35
aI8
aI13
aF0.615
aI3
aI6
aF0.5
aI6
aI8
aF0.75
aI1
aI3
aI4
aI2
aI0
aI0
aI4
aI2
aI25
aI-8
aa(lp49
V0020600173
p50
aVNOV 24, 2006
p51
aVATL vs. TOR
p52
aVW
p53
aI43
aI11
aI21
aF0.524
aI3
aI7
aF0.429
aI2
aI6
aF0.333
aI0
aI3
aI3
aI3
aI1
aI0
aI2
aI2
aI27
aI3
aa(lp54
V0020600186
p55
aVNOV 25, 2006
p56
aVATL @ ORL
p57
aVL
p58
aI33
aI6
aI15
aF0.4
aI0
aI2
aF0.0
aI4
aI4
aF1.0
aI1
aI4
aI5
aI1
aI1
aI0
aI3
aI0
aI16
aI-15
aa(lp59
V0020600204
p60
aVNOV 28, 2006
p61
aVATL @ WAS
p62
aVL
p63
aI45
aI12
aI22
aF0.545
aI3
aI7
aF0.429
aI6
aI8
aF0.75
aI2
aI4
aI6
aI8
aI1
aI0
aI4
aI3
aI33
aI1
aa(lp64
V0020600213
p65
aVNOV 29, 2006
p66
aVATL vs. CHA
p67
aVW
p68
aI42
aI13
aI24
aF0.542
aI5
aI11
aF0.455
aI5
aI5
aF1.0
aI1
aI2
aI3
aI5
aI2
aI0
aI4
aI3
aI36
aI28
aa(lp69
V0020600226
p70
aVDEC 01, 2006
p71
aVATL vs. CLE
p72
aVL
p73
aI44
aI12
aI23
aF0.522
aI1
aI5
aF0.2
aI6
aI8
aF0.75
aI0
aI5
aI5
aI4
aI0
aI1
aI1
aI0
aI31
aI-9
aa(lp74
V0020600246
p75
aVDEC 03, 2006
p76
aVATL @ POR
p77
aVW
p78
aI45
aI14
aI22
aF0.636
aI4
aI8
aF0.5
aI1
aI1
aF1.0
aI0
aI6
aI6
aI6
aI1
aI0
aI1
aI0
aI33
aI8
aa(lp79
V0020600259
p80
aVDEC 05, 2006
p81
aVATL @ SEA
p82
aVL
p83
aI42
aI14
aI29
aF0.483
aI3
aI9
aF0.333
aI3
aI3
aF1.0
aI1
aI1
aI2
aI1
aI2
aI1
aI3
aI5
aI34
aI-11
aa(lp84
V0020600269
p85
aVDEC 06, 2006
p86
aVATL @ DEN
p87
aVW
p88
aI45
aI9
aI18
aF0.5
aI2
aI6
aF0.333
aI7
aI8
aF0.875
aI2
aI5
aI7
aI4
aI1
aI0
aI8
aI4
aI27
aI0
aa(lp89
V0020600284
p90
aVDEC 08, 2006
p91
aVATL @ LAL
p92
aVL
p93
aI32
aI13
aI26
aF0.5
aI2
aI4
aF0.5
aI2
aI3
aF0.667
aI1
aI2
aI3
aI0
aI1
aI0
aI4
aI0
aI30
aI-9
aa(lp94
V0020600342
p95
aVDEC 16, 2006
p96
aVATL vs. CHI
p97
aVL
p98
aI45
aI9
aI21
aF0.429
aI3
aI7
aF0.429
aI2
aI2
aF1.0
aI0
aI2
aI2
aI5
aI2
aI0
aI3
aI1
aI23
aI-13
aa(lp99
V0020600365
p100
aVDEC 20, 2006
p101
aVATL vs. UTA
p102
aVL
p103
aI41
aI9
aI18
aF0.5
aI1
aI3
aF0.333
aI8
aI13
aF0.615
aI1
aI3
aI4
aI5
aI2
aI0
aI3
aI6
aI27
aI3
aa(lp104
V0020600383
p105
aVDEC 22, 2006
p106
aVATL vs. IND
p107
aVL
p108
aI44
aI14
aI24
aF0.583
aI2
aI4
aF0.5
aI1
aI1
aF1.0
aI2
aI1
aI3
aI4
aI3
aI1
aI5
aI2
aI31
aI-15
aa(lp109
V0020600395
p110
aVDEC 23, 2006
p111
aVATL @ DET
p112
aVL
p113
aI34
aI6
aI16
aF0.375
aI0
aI4
aF0.0
aI0
aI0
aF0.0
aI0
aI2
aI2
aI4
aI1
aI0
aI5
aI2
aI12
aI-25
aa(lp114
V0020600417
p115
aVDEC 27, 2006
p116
aVATL vs. CLE
p117
aVL
p118
aI35
aI4
aI17
aF0.235
aI0
aI5
aF0.0
aI2
aI2
aF1.0
aI1
aI2
aI3
aI5
aI0
aI0
aI5
aI1
aI10
aI-15
aa(lp119
V0020600437
p120
aVDEC 29, 2006
p121
aVATL @ HOU
p122
aVL
p123
aI33
aI5
aI13
aF0.385
aI0
aI1
aF0.0
aI1
aI3
aF0.333
aI0
aI1
aI1
aI2
aI1
aI0
aI3
aI0
aI11
aI-29
aa(lp124
V0020600451
p125
aVDEC 31, 2006
p126
aVATL @ SAS
p127
aVL
p128
aI46
aI8
aI21
aF0.381
aI3
aI7
aF0.429
aI4
aI4
aF1.0
aI1
aI2
aI3
aI4
aI2
aI0
aI9
aI3
aI23
aI-13
aa(lp129
V0020600479
p130
aVJAN 05, 2007
p131
aVATL @ TOR
p132
aVL
p133
aI42
aI7
aI16
aF0.438
aI1
aI4
aF0.25
aI0
aI1
aF0.0
aI0
aI1
aI1
aI2
aI0
aI0
aI2
aI0
aI15
aI-7
aa(lp134
V0020600491
p135
aVJAN 06, 2007
p136
aVATL vs. LAC
p137
aVW
p138
aI40
aI8
aI16
aF0.5
aI2
aI5
aF0.4
aI9
aI10
aF0.9
aI0
aI2
aI2
aI3
aI0
aI0
aI2
aI0
aI27
aI12
aa(lp139
V0020600509
p140
aVJAN 09, 2007
p141
aVATL @ IND
p142
aVL
p143
aI25
aI3
aI8
aF0.375
aI2
aI2
aF1.0
aI2
aI2
aF1.0
aI0
aI2
aI2
aI2
aI1
aI0
aI2
aI2
aI10
aI-6
aa(lp144
V0020600517
p145
aVJAN 10, 2007
p146
aVATL vs. NOK
p147
aVL
p148
aI37
aI6
aI24
aF0.25
aI1
aI5
aF0.2
aI0
aI0
aF0.0
aI3
aI2
aI5
aI2
aI2
aI0
aI3
aI3
aI13
aI-28
aa(lp149
V0020600534
p150
aVJAN 12, 2007
p151
aVATL vs. DET
p152
aVW
p153
aI36
aI13
aI17
aF0.765
aI4
aI6
aF0.667
aI4
aI7
aF0.571
aI1
aI2
aI3
aI5
aI1
aI0
aI1
aI3
aI34
aI4
aa(lp154
V0020600558
p155
aVJAN 15, 2007
p156
aVATL vs. BOS
p157
aVW
p158
aI44
aI8
aI16
aF0.5
aI2
aI4
aF0.5
aI0
aI0
aF0.0
aI0
aI2
aI2
aI9
aI1
aI0
aI2
aI2
aI18
aI-3
aa(lp159
V0020600574
p160
aVJAN 17, 2007
p161
aVATL @ MIN
p162
aVW
p163
aI35
aI12
aI19
aF0.632
aI5
aI8
aF0.625
aI0
aI0
aF0.0
aI0
aI1
aI1
aI8
aI1
aI0
aI2
aI0
aI29
aI23
aa(lp164
V0020600586
p165
aVJAN 19, 2007
p166
aVATL vs. CHA
p167
aVL
p168
aI35
aI8
aI18
aF0.444
aI0
aI3
aF0.0
aI3
aI4
aF0.75
aI2
aI4
aI6
aI1
aI3
aI0
aI1
aI0
aI19
aI-23
aa(lp169
V0020600593
p170
aVJAN 20, 2007
p171
aVATL @ CHA
p172
aVL
p173
aI42
aI7
aI14
aF0.5
aI1
aI1
aF1.0
aI7
aI8
aF0.875
aI0
aI2
aI2
aI5
aI0
aI0
aI2
aI3
aI22
aI-18
aa(lp174
V0020600618
p175
aVJAN 23, 2007
p176
aVATL @ CHI
p177
aVL
p178
aI42
aI12
aI27
aF0.444
aI0
aI6
aF0.0
aI5
aI6
aF0.833
aI0
aI4
aI4
aI4
aI0
aI0
aI3
aI2
aI29
aI-12
aa(lp179
V0020600625
p180
aVJAN 24, 2007
p181
aVATL @ BOS
p182
aVW
p183
aI38
aI7
aI19
aF0.368
aI1
aI1
aF1.0
aI6
aI7
aF0.857
aI2
aI5
aI7
aI4
aI1
aI0
aI2
aI3
aI21
aI21
aa(lp184
V0020600636
p185
aVJAN 26, 2007
p186
aVATL @ ORL
p187
aVW
p188
aI45
aI14
aI23
aF0.609
aI2
aI5
aF0.4
aI9
aI10
aF0.9
aI1
aI2
aI3
aI6
aI0
aI0
aI3
aI1
aI39
aI13
aa(lp189
V0020600646
p190
aVJAN 27, 2007
p191
aVATL vs. PHI
p192
aVL
p193
aI36
aI6
aI16
aF0.375
aI1
aI5
aF0.2
aI3
aI4
aF0.75
aI1
aI3
aI4
aI9
aI2
aI1
aI2
aI2
aI16
aI-21
aa(lp194
V0020600661
p195
aVJAN 29, 2007
p196
aVATL vs. ORL
p197
aVW
p198
aI45
aI12
aI24
aF0.5
aI4
aI9
aF0.444
aI6
aI8
aF0.75
aI2
aI4
aI6
aI5
aI1
aI0
aI2
aI2
aI34
aI18
aa(lp199
V0020600676
p200
aVJAN 31, 2007
p201
aVATL vs. GSW
p202
aVW
p203
aI40
aI10
aI26
aF0.385
aI6
aI14
aF0.429
aI7
aI7
aF1.0
aI3
aI4
aI7
aI4
aI0
aI0
aI4
aI3
aI33
aI17
aa(lp204
V0020600693
p205
aVFEB 02, 2007
p206
aVATL vs. TOR
p207
aVL
p208
aI35
aI12
aI18
aF0.667
aI2
aI4
aF0.5
aI2
aI2
aF1.0
aI1
aI1
aI2
aI2
aI0
aI0
aI3
aI3
aI28
aI-7
aa(lp209
V0020600710
p210
aVFEB 04, 2007
p211
aVATL @ NJN
p212
aVW
p213
aI49
aI12
aI23
aF0.522
aI4
aI6
aF0.667
aI9
aI10
aF0.9
aI1
aI4
aI5
aI8
aI0
aI1
aI4
aI1
aI37
aI2
aa(lp214
V0020600714
p215
aVFEB 05, 2007
p216
aVATL vs. LAL
p217
aVL
p218
aI46
aI10
aI26
aF0.385
aI2
aI7
aF0.286
aI5
aI9
aF0.556
aI1
aI4
aI5
aI5
aI1
aI0
aI6
aI3
aI27
aI0
aa(lp219
V0020600728
p220
aVFEB 07, 2007
p221
aVATL vs. NJN
p222
aVL
p223
aI44
aI5
aI16
aF0.313
aI0
aI4
aF0.0
aI0
aI2
aF0.0
aI2
aI5
aI7
aI4
aI0
aI0
aI5
aI3
aI10
aI-3
aa(lp224
V0020600747
p225
aVFEB 09, 2007
p226
aVATL @ PHX
p227
aVW
p228
aI48
aI10
aI25
aF0.4
aI2
aI7
aF0.286
aI10
aI14
aF0.714
aI1
aI7
aI8
aI5
aI0
aI0
aI2
aI1
aI32
aI9
aa(lp229
V0020600763
p230
aVFEB 11, 2007
p231
aVATL @ GSW
p232
aVW
p233
aI46
aI8
aI19
aF0.421
aI3
aI6
aF0.5
aI2
aI3
aF0.667
aI0
aI4
aI4
aI11
aI0
aI1
aI1
aI1
aI21
aI8
aa(lp234
V0020600767
p235
aVFEB 12, 2007
p236
aVATL @ UTA
p237
aVL
p238
aI28
aI5
aI14
aF0.357
aI1
aI3
aF0.333
aI3
aI3
aF1.0
aI1
aI0
aI1
aI3
aI1
aI0
aI2
aI2
aI14
aI-20
aa(lp239
V0020600786
p240
aVFEB 14, 2007
p241
aVATL @ LAC
p242
aVW
p243
aI44
aI9
aI19
aF0.474
aI1
aI3
aF0.333
aI8
aI12
aF0.667
aI1
aI3
aI4
aI2
aI0
aI0
aI3
aI2
aI27
aI6
aa(lp244
V0020600795
p245
aVFEB 20, 2007
p246
aVATL @ CHI
p247
aVL
p248
aI34
aI2
aI12
aF0.167
aI0
aI4
aF0.0
aI5
aI6
aF0.833
aI0
aI1
aI1
aI2
aI0
aI0
aI2
aI1
aI9
aI-25
aa(lp249
V0020600802
p250
aVFEB 21, 2007
p251
aVATL vs. SAS
p252
aVL
p253
aI47
aI14
aI29
aF0.483
aI1
aI3
aF0.333
aI1
aI5
aF0.2
aI2
aI3
aI5
aI4
aI2
aI1
aI2
aI2
aI30
aI1
aa(lp254
V0020600819
p255
aVFEB 23, 2007
p256
aVATL vs. HOU
p257
aVW
p258
aI45
aI12
aI22
aF0.545
aI2
aI5
aF0.4
aI5
aI6
aF0.833
aI2
aI2
aI4
aI7
aI0
aI0
aI2
aI1
aI31
aI6
aa(lp259
V0020600833
p260
aVFEB 25, 2007
p261
aVATL vs. PHX
p262
aVL
p263
aI45
aI9
aI25
aF0.36
aI2
aI8
aF0.25
aI8
aI10
aF0.8
aI1
aI4
aI5
aI5
aI1
aI0
aI3
aI2
aI28
aI-1
aa(lp264
V0020600846
p265
aVFEB 26, 2007
p266
aVATL @ DAL
p267
aVL
p268
aI42
aI12
aI18
aF0.667
aI1
aI2
aF0.5
aI4
aI6
aF0.667
aI1
aI2
aI3
aI2
aI1
aI1
aI1
aI0
aI29
aI-17
aa(lp269
V0020600859
p270
aVFEB 28, 2007
p271
aVATL @ NOK
p272
aVL
p273
aI44
aI10
aI18
aF0.556
aI2
aI4
aF0.5
aI5
aI6
aF0.833
aI0
aI1
aI1
aI8
aI2
aI1
aI4
aI2
aI27
aI-1
aa(lp274
V0020600870
p275
aVMAR 02, 2007
p276
aVATL @ WAS
p277
aVL
p278
aI43
aI8
aI19
aF0.421
aI2
aI7
aF0.286
aI2
aI2
aF1.0
aI0
aI4
aI4
aI6
aI1
aI0
aI3
aI1
aI20
aI2
aa(lp279
V0020600880
p280
aVMAR 03, 2007
p281
aVATL vs. NYK
p282
aVL
p283
aI49
aI12
aI24
aF0.5
aI5
aI8
aF0.625
aI3
aI4
aF0.75
aI1
aI7
aI8
aI7
aI3
aI0
aI4
aI3
aI32
aI-2
aa(lp284
V0020600896
p285
aVMAR 05, 2007
p286
aVATL @ MIA
p287
aVL
p288
aI46
aI4
aI14
aF0.286
aI1
aI4
aF0.25
aI3
aI4
aF0.75
aI2
aI6
aI8
aI3
aI2
aI0
aI5
aI3
aI12
aI-3
aasS'name'
p289
VJoe Johnson
p290
sS'experience'
p291
I5
s.