(dp0
S'stats'
p1
(lp2
(lp3
V0020600005
p4
aVNOV 01, 2006
p5
aVORL vs. CHI
p6
aVW
p7
aI18
aI2
aI5
aF0.4
aI0
aI0
aF0.0
aI3
aI4
aF0.75
aI0
aI3
aI3
aI3
aI0
aI0
aI2
aI1
aI7
aI1
aa(lp8
V0020600042
p9
aVNOV 05, 2006
p10
aVORL @ ATL
p11
aVL
p12
aI25
aI9
aI9
aF1.0
aI1
aI1
aF1.0
aI3
aI4
aF0.75
aI0
aI3
aI3
aI3
aI0
aI0
aI2
aI1
aI22
aI-14
aa(lp13
V0020600045
p14
aVNOV 06, 2006
p15
aVORL vs. WAS
p16
aVW
p17
aI27
aI9
aI13
aF0.692
aI3
aI4
aF0.75
aI2
aI3
aF0.667
aI0
aI1
aI1
aI4
aI0
aI0
aI0
aI2
aI23
aI17
aa(lp18
V0020600060
p19
aVNOV 08, 2006
p20
aVORL vs. SEA
p21
aVW
p22
aI8
aI2
aI5
aF0.4
aI1
aI2
aF0.5
aI5
aI5
aF1.0
aI0
aI2
aI2
aI6
aI0
aI0
aI2
aI1
aI10
aI-3
aa(lp23
V0020600076
p24
aVNOV 10, 2006
p25
aVORL @ IND
p26
aVL
p27
aI15
aI3
aI7
aF0.429
aI0
aI0
aF0.0
aI1
aI2
aF0.5
aI0
aI2
aI2
aI2
aI0
aI0
aI1
aI2
aI7
aI-4
aa(lp28
V0020600085
p29
aVNOV 11, 2006
p30
aVORL @ MIN
p31
aVW
p32
aI21
aI2
aI8
aF0.25
aI0
aI1
aF0.0
aI2
aI2
aF1.0
aI0
aI4
aI4
aI4
aI1
aI0
aI2
aI2
aI6
aI6
aa(lp33
V0020600097
p34
aVNOV 13, 2006
p35
aVORL @ BOS
p36
aVW
p37
aI13
aI2
aI6
aF0.333
aI0
aI1
aF0.0
aI1
aI1
aF1.0
aI0
aI1
aI1
aI1
aI0
aI0
aI2
aI0
aI5
aI-6
aa(lp38
V0020600108
p39
aVNOV 15, 2006
p40
aVORL vs. DEN
p41
aVW
p42
aI22
aI4
aI8
aF0.5
aI0
aI1
aF0.0
aI6
aI8
aF0.75
aI1
aI4
aI5
aI5
aI1
aI0
aI1
aI1
aI14
aI19
aa(lp43
V0020600131
p44
aVNOV 18, 2006
p45
aVORL vs. CHA
p46
aVW
p47
aI23
aI3
aI7
aF0.429
aI1
aI2
aF0.5
aI1
aI1
aF1.0
aI0
aI0
aI0
aI2
aI0
aI0
aI3
aI4
aI8
aI10
aa(lp48
V0020600146
p49
aVNOV 20, 2006
p50
aVORL @ MEM
p51
aVL
p52
aI15
aI1
aI6
aF0.167
aI1
aI2
aF0.5
aI0
aI0
aF0.0
aI0
aI0
aI0
aI3
aI1
aI0
aI0
aI3
aI3
aI-13
aa(lp53
V0020600160
p54
aVNOV 22, 2006
p55
aVORL vs. IND
p56
aVW
p57
aI16
aI2
aI5
aF0.4
aI0
aI1
aF0.0
aI4
aI5
aF0.8
aI0
aI0
aI0
aI2
aI0
aI0
aI4
aI1
aI8
aI-4
aa(lp58
V0020600174
p59
aVNOV 24, 2006
p60
aVORL @ MIA
p61
aVW
p62
aI19
aI3
aI7
aF0.429
aI0
aI0
aF0.0
aI1
aI1
aF1.0
aI1
aI2
aI3
aI3
aI0
aI0
aI0
aI1
aI7
aI16
aa(lp63
V0020600186
p64
aVNOV 25, 2006
p65
aVORL vs. ATL
p66
aVW
p67
aI18
aI4
aI11
aF0.364
aI1
aI2
aF0.5
aI6
aI6
aF1.0
aI0
aI1
aI1
aI2
aI2
aI0
aI2
aI3
aI15
aI5
aa(lp68
V0020600202
p69
aVNOV 27, 2006
p70
aVORL @ UTA
p71
aVW
p72
aI19
aI6
aI11
aF0.545
aI1
aI2
aF0.5
aI0
aI0
aF0.0
aI0
aI2
aI2
aI0
aI1
aI0
aI1
aI0
aI13
aI3
aa(lp73
V0020600219
p74
aVNOV 29, 2006
p75
aVORL @ SEA
p76
aVW
p77
aI24
aI5
aI9
aF0.556
aI0
aI0
aF0.0
aI6
aI7
aF0.857
aI1
aI1
aI2
aI4
aI2
aI0
aI2
aI2
aI16
aI4
aa(lp78
V0020600232
p79
aVDEC 01, 2006
p80
aVORL @ POR
p81
aVW
p82
aI22
aI3
aI9
aF0.333
aI0
aI2
aF0.0
aI1
aI1
aF1.0
aI0
aI2
aI2
aI4
aI2
aI0
aI0
aI1
aI7
aI2
aa(lp83
V0020600247
p84
aVDEC 03, 2006
p85
aVORL @ LAC
p86
aVL
p87
aI23
aI3
aI9
aF0.333
aI0
aI3
aF0.0
aI1
aI2
aF0.5
aI0
aI1
aI1
aI4
aI0
aI0
aI4
aI2
aI7
aI-17
aa(lp88
V0020600253
p89
aVDEC 04, 2006
p90
aVORL @ SAC
p91
aVW
p92
aI21
aI4
aI10
aF0.4
aI0
aI0
aF0.0
aI4
aI4
aF1.0
aI1
aI0
aI1
aI5
aI1
aI0
aI1
aI3
aI12
aI2
aa(lp93
V0020600263
p94
aVDEC 06, 2006
p95
aVORL @ IND
p96
aVL
p97
aI18
aI4
aI11
aF0.364
aI0
aI0
aF0.0
aI3
aI3
aF1.0
aI1
aI2
aI3
aI1
aI1
aI0
aI3
aI1
aI11
aI-13
aa(lp98
V0020600275
p99
aVDEC 08, 2006
p100
aVORL vs. DET
p101
aVL
p102
aI7
aI2
aI7
aF0.286
aI1
aI2
aF0.5
aI4
aI5
aF0.8
aI1
aI4
aI5
aI1
aI0
aI0
aI0
aI3
aI9
aI2
aa(lp103
V0020600287
p104
aVDEC 09, 2006
p105
aVORL vs. PHI
p106
aVW
p107
aI20
aI1
aI5
aF0.2
aI0
aI1
aF0.0
aI1
aI2
aF0.5
aI3
aI1
aI4
aI5
aI0
aI1
aI1
aI1
aI3
aI-3
aa(lp108
V0020600301
p109
aVDEC 11, 2006
p110
aVORL vs. PHX
p111
aVL
p112
aI24
aI4
aI12
aF0.333
aI0
aI2
aF0.0
aI4
aI6
aF0.667
aI0
aI0
aI0
aI3
aI2
aI0
aI1
aI0
aI12
aI5
aa(lp113
V0020600315
p114
aVDEC 13, 2006
p115
aVORL vs. TOR
p116
aVL
p117
aI28
aI9
aI17
aF0.529
aI0
aI3
aF0.0
aI4
aI4
aF1.0
aI2
aI4
aI6
aI2
aI0
aI0
aI2
aI3
aI22
aI-8
aa(lp118
V0020600326
p119
aVDEC 14, 2006
p120
aVORL @ CHA
p121
aVL
p122
aI24
aI5
aI12
aF0.417
aI0
aI1
aF0.0
aI3
aI3
aF1.0
aI1
aI2
aI3
aI1
aI0
aI0
aI3
aI5
aI13
aI-8
aa(lp123
V0020600343
p124
aVDEC 16, 2006
p125
aVORL vs. CLE
p126
aVW
p127
aI20
aI0
aI4
aF0.0
aI0
aI0
aF0.0
aI0
aI0
aF0.0
aI0
aI1
aI1
aI1
aI1
aI0
aI1
aI2
aI0
aI-13
aa(lp128
V0020600366
p129
aVDEC 20, 2006
p130
aVORL vs. NOK
p131
aVW
p132
aI24
aI4
aI8
aF0.5
aI0
aI0
aF0.0
aI0
aI1
aF0.0
aI0
aI2
aI2
aI6
aI0
aI0
aI1
aI4
aI8
aI8
aa(lp133
V0020600380
p134
aVDEC 22, 2006
p135
aVORL vs. GSW
p136
aVL
p137
aI18
aI2
aI5
aF0.4
aI0
aI1
aF0.0
aI0
aI0
aF0.0
aI3
aI1
aI4
aI4
aI0
aI0
aI3
aI3
aI4
aI-1
aa(lp138
V0020600396
p139
aVDEC 23, 2006
p140
aVORL @ CLE
p141
aVL
p142
aI21
aI4
aI9
aF0.444
aI0
aI0
aF0.0
aI2
aI2
aF1.0
aI0
aI2
aI2
aI5
aI0
aI0
aI1
aI1
aI10
aI10
aa(lp143
V0020600418
p144
aVDEC 27, 2006
p145
aVORL vs. LAL
p146
aVL
p147
aI15
aI2
aI6
aF0.333
aI0
aI0
aF0.0
aI2
aI3
aF0.667
aI2
aI1
aI3
aI4
aI1
aI0
aI3
aI1
aI6
aI-2
aa(lp148
V0020600430
p149
aVDEC 29, 2006
p150
aVORL @ WAS
p151
aVL
p152
aI13
aI0
aI2
aF0.0
aI0
aI0
aF0.0
aI3
aI4
aF0.75
aI0
aI0
aI0
aI3
aI0
aI0
aI1
aI0
aI3
aI0
aa(lp153
V0020600442
p154
aVDEC 30, 2006
p155
aVORL vs. MIA
p156
aVW
p157
aI20
aI1
aI6
aF0.167
aI0
aI0
aF0.0
aI2
aI2
aF1.0
aI0
aI1
aI1
aI2
aI0
aI0
aI1
aI3
aI4
aI11
aa(lp158
V0020600460
p159
aVJAN 02, 2007
p160
aVORL vs. LAC
p161
aVW
p162
aI13
aI0
aI3
aF0.0
aI0
aI0
aF0.0
aI1
aI1
aF1.0
aI0
aI0
aI0
aI4
aI0
aI0
aI1
aI0
aI1
aI-2
aa(lp163
V0020600481
p164
aVJAN 05, 2007
p165
aVORL vs. CHA
p166
aVW
p167
aI15
aI4
aI6
aF0.667
aI0
aI0
aF0.0
aI0
aI1
aF0.0
aI1
aI1
aI2
aI3
aI0
aI0
aI2
aI3
aI8
aI7
aa(lp168
V0020600501
p169
aVJAN 07, 2007
p170
aVORL vs. BOS
p171
aVW
p172
aI16
aI1
aI4
aF0.25
aI0
aI0
aF0.0
aI2
aI4
aF0.5
aI1
aI2
aI3
aI3
aI1
aI0
aI5
aI5
aI4
aI-2
aa(lp173
V0020600527
p174
aVJAN 10, 2007
p175
aVORL @ GSW
p176
aVW
p177
aI19
aI0
aI5
aF0.0
aI0
aI1
aF0.0
aI0
aI0
aF0.0
aI0
aI1
aI1
aI5
aI1
aI0
aI2
aI0
aI0
aI0
aa(lp178
V0020600539
p179
aVJAN 12, 2007
p180
aVORL @ LAL
p181
aVL
p182
aI21
aI4
aI9
aF0.444
aI0
aI0
aF0.0
aI3
aI4
aF0.75
aI2
aI1
aI3
aI2
aI0
aI0
aI0
aI6
aI11
aI-1
aa(lp183
V0020600549
p184
aVJAN 13, 2007
p185
aVORL @ PHX
p186
aVL
p187
aI21
aI0
aI5
aF0.0
aI0
aI1
aF0.0
aI2
aI2
aF1.0
aI0
aI2
aI2
aI4
aI0
aI0
aI2
aI2
aI2
aI-9
aa(lp188
V0020600565
p189
aVJAN 16, 2007
p190
aVORL @ NOK
p191
aVL
p192
aI14
aI0
aI6
aF0.0
aI0
aI0
aF0.0
aI0
aI0
aF0.0
aI0
aI3
aI3
aI2
aI0
aI0
aI1
aI1
aI0
aI2
aa(lp193
V0020600597
p194
aVJAN 20, 2007
p195
aVORL @ NJN
p196
aVL
p197
aI22
aI4
aI8
aF0.5
aI0
aI1
aF0.0
aI2
aI3
aF0.667
aI1
aI2
aI3
aI5
aI1
aI0
aI0
aI1
aI10
aI-2
aa(lp198
V0020600636
p199
aVJAN 26, 2007
p200
aVORL vs. ATL
p201
aVL
p202
aI17
aI2
aI4
aF0.5
aI0
aI0
aF0.0
aI3
aI4
aF0.75
aI0
aI1
aI1
aI4
aI0
aI0
aI2
aI0
aI7
aI11
aa(lp203
V0020600661
p204
aVJAN 29, 2007
p205
aVORL @ ATL
p206
aVL
p207
aI15
aI2
aI3
aF0.667
aI0
aI0
aF0.0
aI2
aI2
aF1.0
aI0
aI1
aI1
aI4
aI2
aI0
aI1
aI0
aI6
aI-3
aa(lp208
V0020600677
p209
aVJAN 31, 2007
p210
aVORL vs. MIL
p211
aVW
p212
aI24
aI2
aI5
aF0.4
aI0
aI2
aF0.0
aI2
aI4
aF0.5
aI1
aI1
aI2
aI3
aI3
aI0
aI1
aI3
aI6
aI17
aa(lp213
V0020600690
p214
aVFEB 02, 2007
p215
aVORL vs. NJN
p216
aVW
p217
aI16
aI4
aI6
aF0.667
aI0
aI0
aF0.0
aI2
aI2
aF1.0
aI0
aI0
aI0
aI1
aI0
aI0
aI1
aI0
aI10
aI5
aa(lp218
V0020600701
p219
aVFEB 03, 2007
p220
aVORL vs. NYK
p221
aVL
p222
aI23
aI2
aI9
aF0.222
aI0
aI0
aF0.0
aI3
aI4
aF0.75
aI1
aI1
aI2
aI2
aI1
aI0
aI1
aI2
aI7
aI-8
aa(lp223
V0020600722
p224
aVFEB 06, 2007
p225
aVORL @ MIL
p226
aVL
p227
aI31
aI5
aI7
aF0.714
aI0
aI1
aF0.0
aI4
aI4
aF1.0
aI0
aI3
aI3
aI7
aI0
aI0
aI1
aI3
aI14
aI-4
aa(lp228
V0020600725
p229
aVFEB 07, 2007
p230
aVORL @ TOR
p231
aVL
p232
aI20
aI5
aI8
aF0.625
aI1
aI2
aF0.5
aI0
aI0
aF0.0
aI1
aI3
aI4
aI2
aI0
aI0
aI3
aI2
aI11
aI-1
aa(lp233
V0020600741
p234
aVFEB 09, 2007
p235
aVORL vs. SAS
p236
aVW
p237
aI30
aI6
aI9
aF0.667
aI0
aI0
aF0.0
aI0
aI0
aF0.0
aI0
aI2
aI2
aI7
aI1
aI0
aI3
aI4
aI12
aI9
aa(lp238
V0020600749
p239
aVFEB 10, 2007
p240
aVORL @ NJN
p241
aVL
p242
aI23
aI3
aI10
aF0.3
aI0
aI2
aF0.0
aI3
aI5
aF0.6
aI0
aI3
aI3
aI4
aI1
aI0
aI1
aI1
aI9
aI-5
aa(lp243
V0020600778
p244
aVFEB 14, 2007
p245
aVORL vs. POR
p246
aVW
p247
aI32
aI7
aI10
aF0.7
aI0
aI1
aF0.0
aI1
aI1
aF1.0
aI0
aI5
aI5
aI7
aI0
aI0
aI1
aI3
aI15
aI18
aa(lp248
V0020600792
p249
aVFEB 20, 2007
p250
aVORL @ NYK
p251
aVL
p252
aI17
aI2
aI6
aF0.333
aI0
aI0
aF0.0
aI0
aI0
aF0.0
aI0
aI3
aI3
aI3
aI2
aI0
aI1
aI0
aI4
aI-3
aa(lp253
V0020600805
p254
aVFEB 21, 2007
p255
aVORL @ DET
p256
aVL
p257
aI15
aI4
aI8
aF0.5
aI0
aI0
aF0.0
aI1
aI1
aF1.0
aI0
aI0
aI0
aI2
aI1
aI0
aI2
aI2
aI9
aI-5
aa(lp258
V0020600816
p259
aVFEB 23, 2007
p260
aVORL vs. DET
p261
aVL
p262
aI15
aI2
aI5
aF0.4
aI0
aI0
aF0.0
aI4
aI4
aF1.0
aI1
aI1
aI2
aI0
aI0
aI0
aI0
aI1
aI8
aI-1
aa(lp263
V0020600834
p264
aVFEB 25, 2007
p265
aVORL vs. HOU
p266
aVL
p267
aI14
aI2
aI6
aF0.333
aI0
aI0
aF0.0
aI2
aI3
aF0.667
aI1
aI1
aI2
aI0
aI0
aI0
aI0
aI0
aI6
aI3
aa(lp268
V0020600844
p269
aVFEB 26, 2007
p270
aVORL @ CHI
p271
aVW
p272
aI12
aI0
aI4
aF0.0
aI0
aI0
aF0.0
aI1
aI1
aF1.0
aI0
aI0
aI0
aI2
aI2
aI0
aI2
aI2
aI1
aI2
aa(lp273
V0020600862
p274
aVFEB 28, 2007
p275
aVORL @ DEN
p276
aVL
p277
aI20
aI3
aI8
aF0.375
aI0
aI0
aF0.0
aI2
aI2
aF1.0
aI1
aI2
aI3
aI2
aI1
aI0
aI0
aI1
aI8
aI-1
aa(lp278
V0020600873
p279
aVMAR 02, 2007
p280
aVORL @ SAS
p281
aVL
p282
aI16
aI4
aI8
aF0.5
aI0
aI0
aF0.0
aI1
aI1
aF1.0
aI1
aI2
aI3
aI3
aI1
aI0
aI0
aI2
aI9
aI-19
aa(lp283
V0020600884
p284
aVMAR 03, 2007
p285
aVORL @ DAL
p286
aVL
p287
aI18
aI5
aI7
aF0.714
aI0
aI0
aF0.0
aI0
aI0
aF0.0
aI0
aI1
aI1
aI0
aI1
aI0
aI0
aI2
aI10
aI5
aa(lp288
V0020600894
p289
aVMAR 05, 2007
p290
aVORL vs. MIL
p291
aVW
p292
aI16
aI1
aI5
aF0.2
aI0
aI0
aF0.0
aI0
aI0
aF0.0
aI0
aI0
aI0
aI4
aI1
aI0
aI1
aI3
aI2
aI0
aa(lp293
V0020600917
p294
aVMAR 08, 2007
p295
aVORL vs. CHI
p296
aVL
p297
aI19
aI3
aI8
aF0.375
aI0
aI0
aF0.0
aI0
aI1
aF0.0
aI0
aI1
aI1
aI1
aI0
aI0
aI2
aI4
aI6
aI-5
aa(lp298
V0020600937
p299
aVMAR 11, 2007
p300
aVORL @ HOU
p301
aVL
p302
aI15
aI1
aI5
aF0.2
aI1
aI1
aF1.0
aI1
aI2
aF0.5
aI0
aI0
aI0
aI3
aI1
aI0
aI0
aI0
aI4
aI-2
aa(lp303
V0020600943
p304
aVMAR 12, 2007
p305
aVORL @ CHA
p306
aVL
p307
aI5
aI0
aI3
aF0.0
aI0
aI1
aF0.0
aI0
aI0
aF0.0
aI0
aI0
aI0
aI1
aI0
aI0
aI0
aI0
aI0
aI-3
aa(lp308
V0020600980
p309
aVMAR 17, 2007
p310
aVORL vs. SAC
p311
aVL
p312
aI1
aI0
aI0
aF0.0
aI0
aI0
aF0.0
aI0
aI0
aF0.0
aI0
aI0
aI0
aI0
aI0
aI0
aI0
aI1
aI0
aI1
aa(lp313
V0020601022
p314
aVMAR 23, 2007
p315
aVORL vs. NJN
p316
aVW
p317
aI8
aI3
aI4
aF0.75
aI0
aI0
aF0.0
aI3
aI4
aF0.75
aI0
aI2
aI2
aI1
aI0
aI0
aI1
aI3
aI9
aI-1
aa(lp318
V0020601061
p319
aVMAR 28, 2007
p320
aVORL @ BOS
p321
aVL
p322
aI11
aI1
aI2
aF0.5
aI0
aI0
aF0.0
aI4
aI4
aF1.0
aI0
aI1
aI1
aI0
aI0
aI1
aI0
aI0
aI6
aI8
aa(lp323
V0020601075
p324
aVMAR 30, 2007
p325
aVORL vs. IND
p326
aVW
p327
aI13
aI2
aI3
aF0.667
aI1
aI1
aF1.0
aI3
aI4
aF0.75
aI0
aI0
aI0
aI2
aI0
aI0
aI0
aI0
aI8
aI10
aa(lp328
V0020601109
p329
aVAPR 04, 2007
p330
aVORL vs. TOR
p331
aVL
p332
aI7
aI1
aI2
aF0.5
aI0
aI0
aF0.0
aI1
aI1
aF1.0
aI0
aI0
aI0
aI1
aI0
aI0
aI0
aI0
aI3
aI0
aa(lp333
V0020601134
p334
aVAPR 07, 2007
p335
aVORL vs. MEM
p336
aVW
p337
aI14
aI1
aI5
aF0.2
aI0
aI0
aF0.0
aI4
aI4
aF1.0
aI0
aI0
aI0
aI2
aI0
aI0
aI0
aI4
aI6
aI-10
aa(lp338
V0020601150
p339
aVAPR 09, 2007
p340
aVORL @ MIL
p341
aVW
p342
aI14
aI3
aI6
aF0.5
aI0
aI1
aF0.0
aI0
aI0
aF0.0
aI1
aI1
aI2
aI5
aI1
aI0
aI1
aI3
aI6
aI8
aa(lp343
V0020601187
p344
aVAPR 14, 2007
p345
aVORL @ PHI
p346
aVW
p347
aI10
aI1
aI3
aF0.333
aI0
aI0
aF0.0
aI0
aI0
aF0.0
aI0
aI2
aI2
aI0
aI0
aI0
aI0
aI1
aI2
aI-7
aa(lp348
V0020601200
p349
aVAPR 15, 2007
p350
aVORL vs. BOS
p351
aVW
p352
aI14
aI2
aI4
aF0.5
aI0
aI0
aF0.0
aI0
aI0
aF0.0
aI0
aI2
aI2
aI1
aI1
aI0
aI1
aI2
aI4
aI-5
aa(lp353
V0020601212
p354
aVAPR 17, 2007
p355
aVORL @ WAS
p356
aVW
p357
aI13
aI2
aI3
aF0.667
aI0
aI0
aF0.0
aI0
aI0
aF0.0
aI0
aI1
aI1
aI4
aI0
aI0
aI0
aI4
aI4
aI8
aa(lp358
V0020601219
p359
aVAPR 18, 2007
p360
aVORL vs. MIA
p361
aVW
p362
aI21
aI4
aI7
aF0.571
aI1
aI2
aF0.5
aI0
aI2
aF0.0
aI1
aI1
aI2
aI1
aI0
aI0
aI1
aI3
aI9
aI12
aasS'name'
p363
VCarlos Arroyo
p364
sS'weight'
p365
V200
p366
sS'age'
p367
I27
sS'experience'
p368
I5
sS'height'
p369
V6-2
p370
sS'position'
p371
VGuard
p372
s.