(dp0
S'age'
p1
I23
sS'stats'
p2
(lp3
(lp4
V0020600180
p5
aVNOV 24, 2006
p6
aVDEN vs. GSW
p7
aVW
p8
aI3
aI0
aI0
aF0.0
aI0
aI0
aF0.0
aI0
aI0
aF0.0
aI1
aI1
aI2
aI0
aI0
aI0
aI1
aI1
aI0
aI-5
aa(lp9
V0020600240
p10
aVDEC 02, 2006
p11
aVDEN vs. IND
p12
aVW
p13
aI2
aI1
aI1
aF1.0
aI0
aI0
aF0.0
aI1
aI2
aF0.5
aI0
aI0
aI0
aI0
aI0
aI0
aI0
aI0
aI3
aI-3
aa(lp14
V0020600283
p15
aVDEC 08, 2006
p16
aVDEN vs. MIA
p17
aVW
p18
aI2
aI0
aI0
aF0.0
aI0
aI0
aF0.0
aI0
aI0
aF0.0
aI0
aI0
aI0
aI0
aI0
aI0
aI0
aI0
aI0
aI-2
aa(lp19
V0020600314
p20
aVDEC 13, 2006
p21
aVDEN @ WAS
p22
aVL
p23
aI4
aI0
aI0
aF0.0
aI0
aI0
aF0.0
aI0
aI0
aF0.0
aI0
aI0
aI0
aI1
aI0
aI0
aI0
aI0
aI0
aI-4
aa(lp24
V0020600410
p25
aVDEC 26, 2006
p26
aVDEN vs. BOS
p27
aVW
p28
aI1
aI0
aI0
aF0.0
aI0
aI0
aF0.0
aI0
aI0
aF0.0
aI0
aI1
aI1
aI0
aI0
aI0
aI0
aI0
aI0
aI-1
aa(lp29
V0020600428
p30
aVDEC 28, 2006
p31
aVDEN vs. SEA
p32
aVW
p33
aI18
aI2
aI5
aF0.4
aI0
aI0
aF0.0
aI3
aI4
aF0.75
aI5
aI4
aI9
aI0
aI0
aI0
aI0
aI4
aI7
aI7
aa(lp34
V0020600435
p35
aVDEC 29, 2006
p36
aVDEN @ NOK
p37
aVL
p38
aI15
aI0
aI0
aF0.0
aI0
aI0
aF0.0
aI1
aI2
aF0.5
aI1
aI5
aI6
aI1
aI0
aI0
aI1
aI2
aI1
aI-3
aa(lp39
V0020600489
p40
aVJAN 05, 2007
p41
aVDEN @ LAL
p42
aVL
p43
aI5
aI1
aI1
aF1.0
aI0
aI0
aF0.0
aI0
aI0
aF0.0
aI1
aI1
aI2
aI0
aI0
aI0
aI1
aI0
aI2
aI5
aa(lp44
V0020600495
p45
aVJAN 06, 2007
p46
aVDEN vs. UTA
p47
aVL
p48
aI15
aI2
aI2
aF1.0
aI0
aI0
aF0.0
aI1
aI2
aF0.5
aI1
aI3
aI4
aI0
aI0
aI1
aI2
aI2
aI5
aI-4
aa(lp49
V0020600553
p50
aVJAN 14, 2007
p51
aVDEN @ POR
p52
aVW
p53
aI1
aI0
aI0
aF0.0
aI0
aI0
aF0.0
aI0
aI0
aF0.0
aI0
aI0
aI0
aI0
aI1
aI0
aI0
aI0
aI0
aI0
aa(lp54
V0020600611
p55
aVJAN 22, 2007
p56
aVDEN vs. MEM
p57
aVW
p58
aI0
aI0
aI0
aF0.0
aI0
aI0
aF0.0
aI0
aI0
aF0.0
aI1
aI0
aI1
aI1
aI0
aI0
aI0
aI0
aI0
aI1
aa(lp59
V0020600742
p60
aVFEB 09, 2007
p61
aVDEN @ IND
p62
aVW
p63
aI4
aI1
aI1
aF1.0
aI0
aI0
aF0.0
aI0
aI0
aF0.0
aI0
aI0
aI0
aI0
aI0
aI0
aI0
aI0
aI2
aI2
aa(lp64
V0020600752
p65
aVFEB 10, 2007
p66
aVDEN @ MIL
p67
aVW
p68
aI6
aI1
aI1
aF1.0
aI0
aI0
aF0.0
aI0
aI0
aF0.0
aI1
aI1
aI2
aI0
aI0
aI0
aI0
aI0
aI2
aI-6
aa(lp69
V0020600794
p70
aVFEB 20, 2007
p71
aVDEN @ SAS
p72
aVL
p73
aI3
aI0
aI0
aF0.0
aI0
aI0
aF0.0
aI0
aI0
aF0.0
aI0
aI1
aI1
aI0
aI0
aI1
aI0
aI1
aI0
aI5
aa(lp74
V0020600876
p75
aVMAR 02, 2007
p76
aVDEN vs. HOU
p77
aVL
p78
aI1
aI0
aI0
aF0.0
aI0
aI0
aF0.0
aI0
aI0
aF0.0
aI0
aI0
aI0
aI0
aI0
aI0
aI0
aI0
aI0
aI3
aa(lp79
V0020600904
p80
aVMAR 06, 2007
p81
aVDEN vs. NOK
p82
aVW
p83
aI1
aI0
aI0
aF0.0
aI0
aI0
aF0.0
aI0
aI0
aF0.0
aI0
aI1
aI1
aI0
aI0
aI0
aI0
aI1
aI0
aI2
aa(lp84
V0020600938
p85
aVMAR 11, 2007
p86
aVDEN @ SAC
p87
aVW
p88
aI1
aI0
aI0
aF0.0
aI0
aI0
aF0.0
aI0
aI0
aF0.0
aI0
aI1
aI1
aI0
aI0
aI0
aI0
aI1
aI0
aI-5
aa(lp89
V0020600969
p90
aVMAR 15, 2007
p91
aVDEN vs. LAL
p92
aVW
p93
aI1
aI0
aI0
aF0.0
aI0
aI0
aF0.0
aI0
aI0
aF0.0
aI0
aI0
aI0
aI0
aI0
aI0
aI0
aI0
aI0
aI3
aa(lp94
V0020600986
p95
aVMAR 17, 2007
p96
aVDEN vs. PHX
p97
aVW
p98
aI2
aI0
aI1
aF0.0
aI0
aI1
aF0.0
aI0
aI0
aF0.0
aI0
aI0
aI0
aI0
aI1
aI1
aI0
aI0
aI0
aI-7
aa(lp99
V0020601020
p100
aVMAR 23, 2007
p101
aVDEN @ TOR
p102
aVL
p103
aI7
aI1
aI1
aF1.0
aI0
aI0
aF0.0
aI0
aI2
aF0.0
aI0
aI2
aI2
aI0
aI0
aI0
aI0
aI0
aI2
aI1
aa(lp104
V0020601208
p105
aVAPR 16, 2007
p106
aVDEN vs. MIN
p107
aVW
p108
aI5
aI0
aI0
aF0.0
aI0
aI0
aF0.0
aI0
aI0
aF0.0
aI0
aI3
aI3
aI1
aI0
aI2
aI1
aI2
aI0
aI-10
aa(lp109
V0020601224
p110
aVAPR 18, 2007
p111
aVDEN @ SAS
p112
aVW
p113
aI27
aI0
aI1
aF0.0
aI0
aI0
aF0.0
aI0
aI2
aF0.0
aI4
aI9
aI13
aI1
aI0
aI2
aI4
aI3
aI0
aI8
aasS'name'
p114
VJamal Sampson
p115
sS'experience'
p116
I4
s.