(dp0
S'age'
p1
I33
sS'stats'
p2
(lp3
(lp4
V0020600088
p5
aVNOV 11, 2006
p6
aVPHX vs. MEM
p7
aVW
p8
aI8
aI0
aI3
aF0.0
aI0
aI1
aF0.0
aI0
aI0
aF0.0
aI1
aI2
aI3
aI0
aI0
aI0
aI0
aI2
aI0
aI-13
aa(lp9
V0020600197
p10
aVNOV 26, 2006
p11
aVPHX @ POR
p12
aVW
p13
aI3
aI0
aI1
aF0.0
aI0
aI1
aF0.0
aI0
aI0
aF0.0
aI0
aI1
aI1
aI0
aI0
aI0
aI0
aI1
aI0
aI-2
aa(lp14
V0020600258
p15
aVDEC 05, 2006
p16
aVPHX vs. SAC
p17
aVW
p18
aI4
aI3
aI5
aF0.6
aI3
aI4
aF0.75
aI0
aI0
aF0.0
aI0
aI2
aI2
aI0
aI0
aI0
aI0
aI0
aI9
aI3
aa(lp19
V0020600296
p20
aVDEC 10, 2006
p21
aVPHX @ CHA
p22
aVW
p23
aI3
aI0
aI1
aF0.0
aI0
aI1
aF0.0
aI0
aI0
aF0.0
aI0
aI0
aI0
aI2
aI0
aI0
aI0
aI0
aI0
aI0
aa(lp24
V0020600363
p25
aVDEC 19, 2006
p26
aVPHX vs. TOR
p27
aVW
p28
aI7
aI1
aI2
aF0.5
aI1
aI1
aF1.0
aI1
aI2
aF0.5
aI0
aI2
aI2
aI0
aI0
aI0
aI0
aI0
aI4
aI-7
aa(lp29
V0020600438
p30
aVDEC 29, 2006
p31
aVPHX vs. NYK
p32
aVW
p33
aI2
aI0
aI1
aF0.0
aI0
aI1
aF0.0
aI0
aI0
aF0.0
aI0
aI0
aI0
aI0
aI0
aI0
aI0
aI0
aI0
aI2
aa(lp34
V0020600488
p35
aVJAN 05, 2007
p36
aVPHX vs. MIA
p37
aVW
p38
aI3
aI1
aI2
aF0.5
aI1
aI2
aF0.5
aI0
aI0
aF0.0
aI0
aI3
aI3
aI0
aI0
aI0
aI0
aI0
aI3
aI8
aa(lp39
V0020600502
p40
aVJAN 07, 2007
p41
aVPHX vs. GSW
p42
aVW
p43
aI3
aI0
aI1
aF0.0
aI0
aI0
aF0.0
aI0
aI0
aF0.0
aI0
aI1
aI1
aI1
aI0
aI0
aI0
aI1
aI0
aI-1
aa(lp44
V0020600529
p45
aVJAN 11, 2007
p46
aVPHX vs. CLE
p47
aVW
p48
aI3
aI0
aI3
aF0.0
aI0
aI2
aF0.0
aI0
aI0
aF0.0
aI1
aI0
aI1
aI0
aI0
aI0
aI0
aI0
aI0
aI-7
aa(lp49
V0020600604
p50
aVJAN 21, 2007
p51
aVPHX vs. MIN
p52
aVW
p53
aI12
aI3
aI5
aF0.6
aI0
aI0
aF0.0
aI0
aI1
aF0.0
aI2
aI3
aI5
aI0
aI0
aI0
aI1
aI1
aI6
aI-4
aa(lp54
V0020600724
p55
aVFEB 06, 2007
p56
aVPHX @ POR
p57
aVW
p58
aI5
aI2
aI2
aF1.0
aI0
aI0
aF0.0
aI1
aI1
aF1.0
aI1
aI1
aI2
aI0
aI0
aI0
aI2
aI1
aI5
aI4
aa(lp59
V0020600747
p60
aVFEB 09, 2007
p61
aVPHX vs. ATL
p62
aVL
p63
aI9
aI0
aI1
aF0.0
aI0
aI1
aF0.0
aI0
aI0
aF0.0
aI0
aI0
aI0
aI0
aI0
aI0
aI0
aI0
aI0
aI-7
aa(lp64
V0020600762
p65
aVFEB 11, 2007
p66
aVPHX vs. CHI
p67
aVL
p68
aI13
aI1
aI6
aF0.167
aI0
aI2
aF0.0
aI0
aI0
aF0.0
aI0
aI0
aI0
aI1
aI1
aI0
aI1
aI1
aI2
aI-17
aa(lp69
V0020600785
p70
aVFEB 14, 2007
p71
aVPHX @ SEA
p72
aVL
p73
aI16
aI2
aI3
aF0.667
aI0
aI1
aF0.0
aI2
aI2
aF1.0
aI2
aI0
aI2
aI0
aI0
aI0
aI1
aI5
aI6
aI-5
aa(lp74
V0020600799
p75
aVFEB 20, 2007
p76
aVPHX @ LAC
p77
aVW
p78
aI18
aI3
aI5
aF0.6
aI0
aI0
aF0.0
aI1
aI2
aF0.5
aI1
aI9
aI10
aI1
aI1
aI0
aI1
aI2
aI7
aI4
aa(lp79
V0020600808
p80
aVFEB 21, 2007
p81
aVPHX vs. BOS
p82
aVW
p83
aI4
aI0
aI4
aF0.0
aI0
aI0
aF0.0
aI0
aI0
aF0.0
aI1
aI1
aI2
aI0
aI0
aI0
aI0
aI0
aI0
aI8
aa(lp84
V0020600822
p85
aVFEB 23, 2007
p86
aVPHX @ MIN
p87
aVW
p88
aI9
aI2
aI5
aF0.4
aI0
aI0
aF0.0
aI0
aI1
aF0.0
aI2
aI0
aI2
aI0
aI0
aI0
aI1
aI1
aI4
aI7
aa(lp89
V0020600833
p90
aVFEB 25, 2007
p91
aVPHX @ ATL
p92
aVW
p93
aI5
aI0
aI2
aF0.0
aI0
aI0
aF0.0
aI0
aI0
aF0.0
aI0
aI0
aI0
aI0
aI0
aI0
aI0
aI0
aI0
aI-12
aa(lp94
V0020600877
p95
aVMAR 02, 2007
p96
aVPHX vs. IND
p97
aVW
p98
aI24
aI3
aI5
aF0.6
aI1
aI1
aF1.0
aI3
aI4
aF0.75
aI0
aI4
aI4
aI0
aI1
aI1
aI0
aI3
aI10
aI11
aa(lp99
V0020600976
p100
aVMAR 16, 2007
p101
aVPHX vs. DET
p102
aVL
p103
aI5
aI1
aI3
aF0.333
aI0
aI1
aF0.0
aI0
aI0
aF0.0
aI0
aI2
aI2
aI0
aI0
aI0
aI0
aI1
aI2
aI-3
aa(lp104
V0020601005
p105
aVMAR 20, 2007
p106
aVPHX vs. MIN
p107
aVW
p108
aI3
aI1
aI2
aF0.5
aI0
aI1
aF0.0
aI0
aI0
aF0.0
aI1
aI1
aI2
aI0
aI0
aI1
aI0
aI0
aI2
aI-1
aa(lp109
V0020601171
p110
aVAPR 11, 2007
p111
aVPHX vs. SEA
p112
aVW
p113
aI2
aI0
aI1
aF0.0
aI0
aI1
aF0.0
aI0
aI0
aF0.0
aI0
aI0
aI0
aI0
aI0
aI0
aI0
aI0
aI0
aI1
aa(lp114
V0020601192
p115
aVAPR 14, 2007
p116
aVPHX @ UTA
p117
aVW
p118
aI3
aI0
aI2
aF0.0
aI0
aI1
aF0.0
aI0
aI0
aF0.0
aI0
aI3
aI3
aI0
aI0
aI0
aI0
aI0
aI0
aI1
aasS'name'
p119
VPat Burke
p120
sS'experience'
p121
I4
s.