(dp0
S'age'
p1
I22
sS'stats'
p2
(lp3
(lp4
V0020601217
p5
aVAPR 18, 2007
p6
aVTOR vs. PHI
p7
aVL
p8
aI36
aI9
aI16
aF0.563
aI1
aI2
aF0.5
aI4
aI4
aF1.0
aI2
aI7
aI9
aI5
aI1
aI2
aI3
aI5
aI23
aI2
aa(lp9
V0020601199
p10
aVAPR 15, 2007
p11
aVTOR vs. NYK
p12
aVW
p13
aI48
aI6
aI14
aF0.429
aI0
aI0
aF0.0
aI11
aI12
aF0.917
aI0
aI8
aI8
aI7
aI2
aI1
aI4
aI4
aI23
aI2
aa(lp14
V0020601175
p15
aVAPR 13, 2007
p16
aVTOR vs. DET
p17
aVW
p18
aI42
aI8
aI19
aF0.421
aI0
aI0
aF0.0
aI2
aI2
aF1.0
aI6
aI10
aI16
aI3
aI0
aI0
aI4
aI4
aI18
aI1
aa(lp19
V0020601152
p20
aVAPR 09, 2007
p21
aVTOR @ MIN
p22
aVW
p23
aI45
aI4
aI9
aF0.444
aI0
aI0
aF0.0
aI8
aI10
aF0.8
aI2
aI11
aI13
aI2
aI0
aI2
aI2
aI0
aI16
aI16
aa(lp24
V0020601145
p25
aVAPR 08, 2007
p26
aVTOR vs. CHI
p27
aVW
p28
aI39
aI5
aI14
aF0.357
aI0
aI0
aF0.0
aI12
aI14
aF0.857
aI1
aI10
aI11
aI1
aI1
aI1
aI1
aI2
aI22
aI5
aa(lp29
V0020601121
p30
aVAPR 06, 2007
p31
aVTOR @ PHI
p32
aVW
p33
aI42
aI8
aI17
aF0.471
aI0
aI0
aF0.0
aI7
aI8
aF0.875
aI0
aI13
aI13
aI1
aI4
aI0
aI2
aI3
aI23
aI9
aa(lp34
V0020601109
p35
aVAPR 04, 2007
p36
aVTOR @ ORL
p37
aVW
p38
aI46
aI7
aI15
aF0.467
aI0
aI0
aF0.0
aI14
aI15
aF0.933
aI2
aI8
aI10
aI2
aI2
aI1
aI3
aI4
aI28
aI1
aa(lp39
V0020601102
p40
aVAPR 03, 2007
p41
aVTOR @ MIA
p42
aVL
p43
aI44
aI7
aI17
aF0.412
aI0
aI0
aF0.0
aI10
aI11
aF0.909
aI4
aI7
aI11
aI2
aI0
aI2
aI0
aI2
aI24
aI-1
aa(lp44
V0020601095
p45
aVAPR 01, 2007
p46
aVTOR vs. CHA
p47
aVW
p48
aI32
aI9
aI16
aF0.563
aI0
aI0
aF0.0
aI6
aI6
aF1.0
aI5
aI11
aI16
aI5
aI0
aI0
aI2
aI4
aI24
aI14
aa(lp49
V0020601073
p50
aVMAR 30, 2007
p51
aVTOR @ WAS
p52
aVW
p53
aI47
aI15
aI24
aF0.625
aI0
aI0
aF0.0
aI7
aI10
aF0.7
aI2
aI12
aI14
aI5
aI0
aI1
aI5
aI3
aI37
aI2
aa(lp54
V0020601058
p55
aVMAR 28, 2007
p56
aVTOR vs. MIA
p57
aVW
p58
aI40
aI6
aI15
aF0.4
aI0
aI0
aF0.0
aI1
aI2
aF0.5
aI5
aI13
aI18
aI4
aI0
aI1
aI2
aI3
aI13
aI11
aa(lp59
V0020601045
p60
aVMAR 26, 2007
p61
aVTOR @ BOS
p62
aVL
p63
aI44
aI5
aI19
aF0.263
aI0
aI0
aF0.0
aI5
aI8
aF0.625
aI3
aI8
aI11
aI2
aI0
aI1
aI5
aI4
aI15
aI-2
aa(lp64
V0020601020
p65
aVMAR 23, 2007
p66
aVTOR vs. DEN
p67
aVW
p68
aI26
aI7
aI11
aF0.636
aI0
aI0
aF0.0
aI0
aI0
aF0.0
aI0
aI5
aI5
aI4
aI0
aI2
aI2
aI3
aI14
aI18
aa(lp69
V0020601007
p70
aVMAR 21, 2007
p71
aVTOR vs. ORL
p72
aVW
p73
aI46
aI10
aI21
aF0.476
aI0
aI0
aF0.0
aI14
aI16
aF0.875
aI4
aI12
aI16
aI1
aI1
aI2
aI4
aI3
aI34
aI12
aa(lp74
V0020600988
p75
aVMAR 18, 2007
p76
aVTOR @ NYK
p77
aVL
p78
aI40
aI7
aI12
aF0.583
aI0
aI0
aF0.0
aI7
aI8
aF0.875
aI2
aI5
aI7
aI0
aI0
aI1
aI1
aI3
aI21
aI-19
aa(lp79
V0020600970
p80
aVMAR 16, 2007
p81
aVTOR vs. HOU
p82
aVL
p83
aI39
aI7
aI19
aF0.368
aI0
aI0
aF0.0
aI2
aI3
aF0.667
aI2
aI17
aI19
aI0
aI1
aI0
aI0
aI1
aI16
aI-21
aa(lp84
V0020600957
p85
aVMAR 14, 2007
p86
aVTOR vs. NYK
p87
aVW
p88
aI40
aI7
aI13
aF0.538
aI0
aI0
aF0.0
aI8
aI9
aF0.889
aI2
aI6
aI8
aI4
aI1
aI1
aI1
aI4
aI22
aI18
aa(lp89
V0020600944
p90
aVMAR 12, 2007
p91
aVTOR @ MIL
p92
aVW
p93
aI38
aI9
aI18
aF0.5
aI0
aI0
aF0.0
aI7
aI9
aF0.778
aI5
aI5
aI10
aI5
aI0
aI2
aI2
aI2
aI25
aI18
aa(lp94
V0020600934
p95
aVMAR 11, 2007
p96
aVTOR vs. SEA
p97
aVW
p98
aI43
aI9
aI15
aF0.6
aI0
aI0
aF0.0
aI9
aI12
aF0.75
aI2
aI8
aI10
aI3
aI3
aI2
aI0
aI4
aI27
aI10
aa(lp99
V0020600907
p100
aVMAR 07, 2007
p101
aVTOR vs. MEM
p102
aVW
p103
aI31
aI9
aI17
aF0.529
aI0
aI0
aF0.0
aI1
aI2
aF0.5
aI3
aI6
aI9
aI0
aI2
aI3
aI3
aI1
aI19
aI11
aa(lp104
V0020600900
p105
aVMAR 06, 2007
p106
aVTOR @ WAS
p107
aVL
p108
aI35
aI8
aI14
aF0.571
aI0
aI0
aF0.0
aI9
aI10
aF0.9
aI1
aI0
aI1
aI0
aI1
aI3
aI4
aI4
aI25
aI-17
aa(lp109
V0020600881
p110
aVMAR 03, 2007
p111
aVTOR @ CLE
p112
aVL
p113
aI38
aI9
aI24
aF0.375
aI0
aI2
aF0.0
aI7
aI7
aF1.0
aI1
aI5
aI6
aI3
aI0
aI0
aI1
aI2
aI25
aI-21
aa(lp114
V0020600868
p115
aVMAR 02, 2007
p116
aVTOR vs. MIL
p117
aVL
p118
aI40
aI4
aI8
aF0.5
aI0
aI1
aF0.0
aI6
aI8
aF0.75
aI2
aI8
aI10
aI3
aI0
aI3
aI4
aI1
aI14
aI-8
aa(lp119
V0020600861
p120
aVFEB 28, 2007
p121
aVTOR @ HOU
p122
aVW
p123
aI32
aI5
aI9
aF0.556
aI0
aI0
aF0.0
aI3
aI5
aF0.6
aI2
aI7
aI9
aI6
aI1
aI1
aI1
aI1
aI13
aI0
aa(lp124
V0020600843
p125
aVFEB 26, 2007
p126
aVTOR @ SAS
p127
aVL
p128
aI39
aI6
aI16
aF0.375
aI0
aI0
aF0.0
aI2
aI4
aF0.5
aI2
aI7
aI9
aI4
aI0
aI2
aI0
aI2
aI14
aI-2
aa(lp129
V0020600827
p130
aVFEB 24, 2007
p131
aVTOR @ CHA
p132
aVW
p133
aI32
aI9
aI18
aF0.5
aI0
aI0
aF0.0
aI6
aI7
aF0.857
aI1
aI10
aI11
aI2
aI0
aI1
aI3
aI3
aI24
aI14
aa(lp134
V0020600814
p135
aVFEB 23, 2007
p136
aVTOR vs. IND
p137
aVW
p138
aI33
aI8
aI12
aF0.667
aI1
aI1
aF1.0
aI6
aI8
aF0.75
aI2
aI10
aI12
aI4
aI0
aI3
aI2
aI1
aI23
aI12
aa(lp139
V0020600800
p140
aVFEB 21, 2007
p141
aVTOR vs. CLE
p142
aVL
p143
aI40
aI9
aI17
aF0.529
aI0
aI0
aF0.0
aI6
aI6
aF1.0
aI2
aI8
aI10
aI0
aI1
aI3
aI4
aI2
aI24
aI-2
aa(lp144
V0020600775
p145
aVFEB 14, 2007
p146
aVTOR vs. NJN
p147
aVW
p148
aI41
aI8
aI15
aF0.533
aI0
aI0
aF0.0
aI9
aI11
aF0.818
aI1
aI8
aI9
aI6
aI0
aI0
aI3
aI2
aI25
aI13
aa(lp149
V0020600772
p150
aVFEB 13, 2007
p151
aVTOR @ CHI
p152
aVW
p153
aI40
aI8
aI15
aF0.533
aI0
aI0
aF0.0
aI9
aI10
aF0.9
aI3
aI11
aI14
aI1
aI0
aI2
aI4
aI3
aI25
aI-1
aa(lp154
V0020600750
p155
aVFEB 10, 2007
p156
aVTOR @ DET
p157
aVL
p158
aI42
aI5
aI15
aF0.333
aI0
aI2
aF0.0
aI4
aI4
aF1.0
aI4
aI7
aI11
aI2
aI0
aI0
aI5
aI2
aI14
aI-14
aa(lp159
V0020600738
p160
aVFEB 09, 2007
p161
aVTOR vs. LAL
p162
aVW
p163
aI42
aI12
aI16
aF0.75
aI0
aI0
aF0.0
aI5
aI10
aF0.5
aI3
aI8
aI11
aI1
aI2
aI2
aI4
aI2
aI29
aI2
aa(lp164
V0020600725
p165
aVFEB 07, 2007
p166
aVTOR vs. ORL
p167
aVW
p168
aI46
aI13
aI25
aF0.52
aI0
aI0
aF0.0
aI15
aI17
aF0.882
aI3
aI5
aI8
aI3
aI1
aI1
aI1
aI1
aI41
aI13
aa(lp169
V0020600709
p170
aVFEB 04, 2007
p171
aVTOR vs. LAC
p172
aVW
p173
aI42
aI10
aI20
aF0.5
aI0
aI1
aF0.0
aI7
aI8
aF0.875
aI2
aI5
aI7
aI4
aI0
aI0
aI1
aI3
aI27
aI13
aa(lp174
V0020600693
p175
aVFEB 02, 2007
p176
aVTOR @ ATL
p177
aVW
p178
aI38
aI6
aI11
aF0.545
aI0
aI0
aF0.0
aI12
aI14
aF0.857
aI3
aI7
aI10
aI5
aI0
aI0
aI2
aI0
aI24
aI9
aa(lp179
V0020600674
p180
aVJAN 31, 2007
p181
aVTOR vs. WAS
p182
aVW
p183
aI39
aI15
aI19
aF0.789
aI1
aI1
aF1.0
aI3
aI7
aF0.429
aI1
aI7
aI8
aI2
aI1
aI2
aI1
aI2
aI34
aI17
aa(lp184
V0020600647
p185
aVJAN 27, 2007
p186
aVTOR @ IND
p187
aVL
p188
aI41
aI8
aI19
aF0.421
aI0
aI0
aF0.0
aI10
aI15
aF0.667
aI4
aI8
aI12
aI3
aI0
aI0
aI0
aI2
aI26
aI-7
aa(lp189
V0020600634
p190
aVJAN 26, 2007
p191
aVTOR vs. BOS
p192
aVW
p193
aI38
aI8
aI16
aF0.5
aI1
aI1
aF1.0
aI9
aI11
aF0.818
aI2
aI6
aI8
aI3
aI0
aI2
aI3
aI0
aI26
aI12
aa(lp194
V0020600621
p195
aVJAN 24, 2007
p196
aVTOR vs. NOK
p197
aVW
p198
aI46
aI11
aI19
aF0.579
aI1
aI1
aF1.0
aI12
aI18
aF0.667
aI1
aI6
aI7
aI4
aI0
aI2
aI1
aI3
aI35
aI5
aa(lp199
V0020600606
p200
aVJAN 22, 2007
p201
aVTOR vs. CHA
p202
aVW
p203
aI24
aI10
aI16
aF0.625
aI0
aI1
aF0.0
aI0
aI0
aF0.0
aI2
aI3
aI5
aI2
aI0
aI0
aI2
aI3
aI20
aI25
aa(lp204
V0020600581
p205
aVJAN 19, 2007
p206
aVTOR vs. UTA
p207
aVL
p208
aI43
aI10
aI19
aF0.526
aI1
aI1
aF1.0
aI8
aI12
aF0.667
aI4
aI7
aI11
aI0
aI1
aI2
aI2
aI1
aI29
aI-9
aa(lp209
V0020600568
p210
aVJAN 17, 2007
p211
aVTOR vs. SAC
p212
aVW
p213
aI35
aI6
aI14
aF0.429
aI0
aI1
aF0.0
aI8
aI9
aF0.889
aI3
aI6
aI9
aI4
aI1
aI1
aI5
aI1
aI20
aI5
aa(lp214
V0020600557
p215
aVJAN 15, 2007
p216
aVTOR @ PHI
p217
aVW
p218
aI33
aI11
aI14
aF0.786
aI1
aI1
aF1.0
aI4
aI4
aF1.0
aI0
aI6
aI6
aI1
aI1
aI0
aI5
aI2
aI27
aI27
aa(lp219
V0020600552
p220
aVJAN 14, 2007
p221
aVTOR vs. DAL
p222
aVL
p223
aI40
aI7
aI16
aF0.438
aI0
aI0
aF0.0
aI10
aI12
aF0.833
aI2
aI13
aI15
aI2
aI1
aI1
aI6
aI1
aI24
aI-5
aa(lp224
V0020600532
p225
aVJAN 12, 2007
p226
aVTOR @ BOS
p227
aVW
p228
aI40
aI7
aI16
aF0.438
aI0
aI0
aF0.0
aI13
aI16
aF0.813
aI2
aI6
aI8
aI1
aI0
aI3
aI3
aI1
aI27
aI4
aa(lp229
V0020600521
p230
aVJAN 10, 2007
p231
aVTOR @ MIL
p232
aVW
p233
aI42
aI11
aI16
aF0.688
aI0
aI0
aF0.0
aI8
aI8
aF1.0
aI3
aI5
aI8
aI2
aI0
aI6
aI3
aI2
aI30
aI7
aa(lp234
V0020600510
p235
aVJAN 09, 2007
p236
aVTOR @ NJN
p237
aVL
p238
aI32
aI3
aI9
aF0.333
aI0
aI1
aF0.0
aI6
aI6
aF1.0
aI1
aI5
aI6
aI2
aI0
aI1
aI3
aI2
aI12
aI-21
aa(lp239
V0020600498
p240
aVJAN 07, 2007
p241
aVTOR vs. WAS
p242
aVW
p243
aI38
aI9
aI21
aF0.429
aI0
aI0
aF0.0
aI6
aI7
aF0.857
aI4
aI11
aI15
aI5
aI0
aI1
aI0
aI3
aI24
aI-4
aa(lp244
V0020600479
p245
aVJAN 05, 2007
p246
aVTOR vs. ATL
p247
aVW
p248
aI33
aI8
aI11
aF0.727
aI0
aI1
aF0.0
aI5
aI11
aF0.455
aI0
aI5
aI5
aI2
aI1
aI1
aI3
aI2
aI21
aI13
aa(lp249
V0020600467
p250
aVJAN 03, 2007
p251
aVTOR vs. PHX
p252
aVL
p253
aI41
aI11
aI22
aF0.5
aI0
aI2
aF0.0
aI4
aI5
aF0.8
aI4
aI10
aI14
aI4
aI1
aI2
aI6
aI2
aI26
aI3
aa(lp254
V0020600281
p255
aVDEC 08, 2006
p256
aVTOR @ CHI
p257
aVL
p258
aI34
aI5
aI14
aF0.357
aI0
aI0
aF0.0
aI3
aI4
aF0.75
aI2
aI10
aI12
aI2
aI0
aI0
aI2
aI2
aI13
aI2
aa(lp259
V0020600262
p260
aVDEC 06, 2006
p261
aVTOR @ CLE
p262
aVL
p263
aI42
aI8
aI22
aF0.364
aI0
aI3
aF0.0
aI2
aI4
aF0.5
aI1
aI11
aI12
aI3
aI0
aI2
aI1
aI1
aI18
aI-7
aa(lp264
V0020600235
p265
aVDEC 02, 2006
p266
aVTOR @ NYK
p267
aVW
p268
aI37
aI8
aI17
aF0.471
aI1
aI1
aF1.0
aI9
aI11
aF0.818
aI5
aI8
aI13
aI1
aI0
aI1
aI2
aI1
aI26
aI-3
aa(lp269
V0020600224
p270
aVDEC 01, 2006
p271
aVTOR vs. BOS
p272
aVW
p273
aI40
aI9
aI15
aF0.6
aI0
aI0
aF0.0
aI7
aI9
aF0.778
aI1
aI10
aI11
aI2
aI0
aI3
aI4
aI2
aI25
aI7
aa(lp274
V0020600216
p275
aVNOV 29, 2006
p276
aVTOR @ DAL
p277
aVL
p278
aI32
aI6
aI15
aF0.4
aI0
aI0
aF0.0
aI6
aI8
aF0.75
aI4
aI7
aI11
aI2
aI0
aI1
aI0
aI2
aI18
aI-16
aa(lp279
V0020600206
p280
aVNOV 28, 2006
p281
aVTOR @ NOK
p282
aVW
p283
aI31
aI6
aI13
aF0.462
aI0
aI1
aF0.0
aI7
aI9
aF0.778
aI5
aI9
aI14
aI3
aI0
aI0
aI1
aI2
aI19
aI11
aa(lp284
V0020600195
p285
aVNOV 26, 2006
p286
aVTOR vs. IND
p287
aVW
p288
aI30
aI6
aI18
aF0.333
aI0
aI0
aF0.0
aI5
aI6
aF0.833
aI3
aI8
aI11
aI1
aI1
aI0
aI3
aI3
aI17
aI-4
aa(lp289
V0020600173
p290
aVNOV 24, 2006
p291
aVTOR @ ATL
p292
aVL
p293
aI42
aI2
aI9
aF0.222
aI0
aI0
aF0.0
aI7
aI9
aF0.778
aI2
aI5
aI7
aI3
aI0
aI3
aI3
aI3
aI11
aI4
aa(lp294
V0020600158
p295
aVNOV 22, 2006
p296
aVTOR vs. CLE
p297
aVW
p298
aI43
aI7
aI13
aF0.538
aI1
aI2
aF0.5
aI10
aI14
aF0.714
aI4
aI10
aI14
aI6
aI0
aI0
aI5
aI3
aI25
aI12
aa(lp299
V0020600147
p300
aVNOV 20, 2006
p301
aVTOR @ UTA
p302
aVL
p303
aI34
aI5
aI14
aF0.357
aI0
aI2
aF0.0
aI7
aI12
aF0.583
aI4
aI7
aI11
aI2
aI1
aI0
aI4
aI3
aI17
aI7
aa(lp304
V0020600138
p305
aVNOV 18, 2006
p306
aVTOR @ DEN
p307
aVL
p308
aI41
aI11
aI22
aF0.5
aI0
aI0
aF0.0
aI9
aI13
aF0.692
aI2
aI7
aI9
aI1
aI2
aI0
aI2
aI3
aI31
aI7
aa(lp309
V0020600127
p310
aVNOV 17, 2006
p311
aVTOR @ LAL
p312
aVL
p313
aI34
aI6
aI10
aF0.6
aI1
aI1
aF1.0
aI7
aI9
aF0.778
aI2
aI8
aI10
aI2
aI0
aI2
aI4
aI5
aI20
aI-4
aa(lp314
V0020600107
p315
aVNOV 14, 2006
p316
aVTOR @ GSW
p317
aVL
p318
aI45
aI6
aI13
aF0.462
aI0
aI1
aF0.0
aI11
aI12
aF0.917
aI10
aI12
aI22
aI2
aI2
aI0
aI7
aI2
aI23
aI-11
aa(lp319
V0020600094
p320
aVNOV 12, 2006
p321
aVTOR @ SAC
p322
aVL
p323
aI44
aI8
aI15
aF0.533
aI0
aI1
aF0.0
aI3
aI5
aF0.6
aI1
aI6
aI7
aI0
aI0
aI1
aI3
aI3
aI19
aI-9
aa(lp324
V0020600072
p325
aVNOV 10, 2006
p326
aVTOR vs. ATL
p327
aVL
p328
aI39
aI7
aI16
aF0.438
aI0
aI0
aF0.0
aI5
aI9
aF0.556
aI6
aI11
aI17
aI6
aI0
aI2
aI2
aI2
aI19
aI-5
aa(lp329
V0020600058
p330
aVNOV 08, 2006
p331
aVTOR vs. PHI
p332
aVW
p333
aI37
aI9
aI18
aF0.5
aI2
aI2
aF1.0
aI9
aI10
aF0.9
aI4
aI10
aI14
aI0
aI0
aI2
aI1
aI1
aI29
aI4
aa(lp334
V0020600040
p335
aVNOV 05, 2006
p336
aVTOR vs. SAS
p337
aVL
p338
aI36
aI8
aI18
aF0.444
aI0
aI1
aF0.0
aI3
aI6
aF0.5
aI4
aI13
aI17
aI0
aI0
aI0
aI1
aI2
aI19
aI0
aa(lp339
V0020600018
p340
aVNOV 03, 2006
p341
aVTOR vs. MIL
p342
aVW
p343
aI34
aI12
aI16
aF0.75
aI0
aI0
aF0.0
aI2
aI3
aF0.667
aI6
aI9
aI15
aI1
aI2
aI2
aI3
aI3
aI26
aI5
aa(lp344
V0020600007
p345
aVNOV 01, 2006
p346
aVTOR @ NJN
p347
aVL
p348
aI26
aI5
aI13
aF0.385
aI0
aI0
aF0.0
aI4
aI6
aF0.667
aI3
aI2
aI5
aI1
aI0
aI1
aI3
aI5
aI14
aI-3
aasS'name'
p349
VChris Bosh
p350
sS'experience'
p351
I3
s.