(dp0
S'age'
p1
I26
sS'stats'
p2
(lp3
(lp4
V0020600005
p5
aVNOV 01, 2006
p6
aVORL vs. CHI
p7
aVW
p8
aI16
aI2
aI4
aF0.5
aI1
aI2
aF0.5
aI0
aI0
aF0.0
aI1
aI0
aI1
aI1
aI1
aI0
aI2
aI3
aI5
aI-7
aa(lp9
V0020600019
p10
aVNOV 03, 2006
p11
aVORL vs. PHI
p12
aVL
p13
aI18
aI1
aI3
aF0.333
aI0
aI1
aF0.0
aI0
aI0
aF0.0
aI1
aI2
aI3
aI2
aI1
aI0
aI1
aI4
aI2
aI-3
aa(lp14
V0020600042
p15
aVNOV 05, 2006
p16
aVORL @ ATL
p17
aVL
p18
aI15
aI0
aI1
aF0.0
aI0
aI1
aF0.0
aI2
aI2
aF1.0
aI0
aI2
aI2
aI0
aI1
aI0
aI1
aI3
aI2
aI-5
aa(lp19
V0020600045
p20
aVNOV 06, 2006
p21
aVORL vs. WAS
p22
aVW
p23
aI19
aI2
aI3
aF0.667
aI1
aI1
aF1.0
aI3
aI4
aF0.75
aI0
aI3
aI3
aI0
aI1
aI0
aI1
aI1
aI8
aI7
aa(lp24
V0020600060
p25
aVNOV 08, 2006
p26
aVORL vs. SEA
p27
aVW
p28
aI1
aI2
aI2
aF1.0
aI1
aI1
aF1.0
aI0
aI0
aF0.0
aI0
aI2
aI2
aI0
aI0
aI0
aI0
aI1
aI5
aI6
aa(lp29
V0020600085
p30
aVNOV 11, 2006
p31
aVORL @ MIN
p32
aVW
p33
aI28
aI2
aI6
aF0.333
aI1
aI2
aF0.5
aI0
aI0
aF0.0
aI0
aI2
aI2
aI3
aI0
aI0
aI1
aI3
aI5
aI4
aa(lp34
V0020600097
p35
aVNOV 13, 2006
p36
aVORL @ BOS
p37
aVW
p38
aI10
aI1
aI2
aF0.5
aI0
aI1
aF0.0
aI0
aI0
aF0.0
aI0
aI0
aI0
aI0
aI1
aI0
aI0
aI0
aI2
aI-4
aa(lp39
V0020600108
p40
aVNOV 15, 2006
p41
aVORL vs. DEN
p42
aVW
p43
aI8
aI1
aI1
aF1.0
aI1
aI1
aF1.0
aI2
aI2
aF1.0
aI0
aI1
aI1
aI0
aI0
aI0
aI1
aI0
aI5
aI-1
aa(lp44
V0020600131
p45
aVNOV 18, 2006
p46
aVORL vs. CHA
p47
aVW
p48
aI6
aI0
aI3
aF0.0
aI0
aI1
aF0.0
aI0
aI0
aF0.0
aI0
aI1
aI1
aI1
aI0
aI0
aI1
aI0
aI0
aI-4
aa(lp49
V0020600146
p50
aVNOV 20, 2006
p51
aVORL @ MEM
p52
aVL
p53
aI13
aI2
aI5
aF0.4
aI0
aI1
aF0.0
aI0
aI0
aF0.0
aI0
aI2
aI2
aI0
aI0
aI0
aI3
aI2
aI4
aI-7
aa(lp54
V0020600160
p55
aVNOV 22, 2006
p56
aVORL vs. IND
p57
aVW
p58
aI8
aI1
aI2
aF0.5
aI1
aI1
aF1.0
aI1
aI2
aF0.5
aI1
aI0
aI1
aI0
aI0
aI0
aI1
aI2
aI4
aI0
aa(lp59
V0020600174
p60
aVNOV 24, 2006
p61
aVORL @ MIA
p62
aVW
p63
aI14
aI1
aI2
aF0.5
aI0
aI0
aF0.0
aI2
aI2
aF1.0
aI0
aI0
aI0
aI1
aI0
aI0
aI0
aI2
aI4
aI4
aa(lp64
V0020600186
p65
aVNOV 25, 2006
p66
aVORL vs. ATL
p67
aVW
p68
aI23
aI4
aI8
aF0.5
aI1
aI4
aF0.25
aI4
aI4
aF1.0
aI0
aI2
aI2
aI1
aI2
aI0
aI2
aI0
aI13
aI17
aa(lp69
V0020600219
p70
aVNOV 29, 2006
p71
aVORL @ SEA
p72
aVW
p73
aI5
aI2
aI3
aF0.667
aI0
aI0
aF0.0
aI0
aI0
aF0.0
aI0
aI1
aI1
aI0
aI0
aI0
aI0
aI0
aI4
aI8
aa(lp74
V0020600247
p75
aVDEC 03, 2006
p76
aVORL @ LAC
p77
aVL
p78
aI12
aI2
aI4
aF0.5
aI0
aI1
aF0.0
aI0
aI0
aF0.0
aI0
aI4
aI4
aI0
aI1
aI0
aI1
aI2
aI4
aI-8
aa(lp79
V0020600253
p80
aVDEC 04, 2006
p81
aVORL @ SAC
p82
aVW
p83
aI8
aI1
aI2
aF0.5
aI1
aI1
aF1.0
aI0
aI0
aF0.0
aI0
aI0
aI0
aI0
aI0
aI0
aI2
aI2
aI3
aI-8
aa(lp84
V0020600263
p85
aVDEC 06, 2006
p86
aVORL @ IND
p87
aVL
p88
aI15
aI0
aI1
aF0.0
aI0
aI1
aF0.0
aI4
aI4
aF1.0
aI0
aI0
aI0
aI0
aI0
aI0
aI3
aI2
aI4
aI-5
aa(lp89
V0020600275
p90
aVDEC 08, 2006
p91
aVORL vs. DET
p92
aVL
p93
aI12
aI0
aI2
aF0.0
aI0
aI1
aF0.0
aI0
aI0
aF0.0
aI0
aI1
aI1
aI2
aI1
aI1
aI0
aI2
aI0
aI-4
aa(lp94
V0020600287
p95
aVDEC 09, 2006
p96
aVORL vs. PHI
p97
aVW
p98
aI6
aI0
aI1
aF0.0
aI0
aI1
aF0.0
aI0
aI0
aF0.0
aI0
aI0
aI0
aI3
aI1
aI0
aI0
aI0
aI0
aI4
aa(lp99
V0020600418
p100
aVDEC 27, 2006
p101
aVORL vs. LAL
p102
aVL
p103
aI5
aI0
aI1
aF0.0
aI0
aI0
aF0.0
aI0
aI0
aF0.0
aI0
aI0
aI0
aI0
aI0
aI0
aI0
aI2
aI0
aI-9
aa(lp104
V0020600430
p105
aVDEC 29, 2006
p106
aVORL @ WAS
p107
aVL
p108
aI9
aI0
aI1
aF0.0
aI0
aI0
aF0.0
aI0
aI0
aF0.0
aI0
aI0
aI0
aI1
aI0
aI0
aI0
aI2
aI0
aI5
aa(lp109
V0020600442
p110
aVDEC 30, 2006
p111
aVORL vs. MIA
p112
aVW
p113
aI19
aI3
aI6
aF0.5
aI2
aI4
aF0.5
aI1
aI1
aF1.0
aI0
aI2
aI2
aI0
aI0
aI0
aI0
aI2
aI9
aI16
aa(lp114
V0020600460
p115
aVJAN 02, 2007
p116
aVORL vs. LAC
p117
aVW
p118
aI20
aI1
aI4
aF0.25
aI1
aI2
aF0.5
aI0
aI2
aF0.0
aI1
aI0
aI1
aI1
aI2
aI0
aI1
aI2
aI3
aI8
aa(lp119
V0020600481
p120
aVJAN 05, 2007
p121
aVORL vs. CHA
p122
aVW
p123
aI19
aI1
aI4
aF0.25
aI1
aI3
aF0.333
aI3
aI4
aF0.75
aI0
aI2
aI2
aI1
aI0
aI0
aI1
aI2
aI6
aI7
aa(lp124
V0020600501
p125
aVJAN 07, 2007
p126
aVORL vs. BOS
p127
aVW
p128
aI10
aI0
aI2
aF0.0
aI0
aI0
aF0.0
aI1
aI1
aF1.0
aI1
aI1
aI2
aI2
aI0
aI0
aI0
aI1
aI1
aI-3
aa(lp129
V0020600527
p130
aVJAN 10, 2007
p131
aVORL @ GSW
p132
aVW
p133
aI27
aI6
aI9
aF0.667
aI3
aI5
aF0.6
aI1
aI2
aF0.5
aI0
aI2
aI2
aI0
aI2
aI0
aI0
aI1
aI16
aI12
aa(lp134
V0020600539
p135
aVJAN 12, 2007
p136
aVORL @ LAL
p137
aVL
p138
aI26
aI2
aI6
aF0.333
aI2
aI3
aF0.667
aI1
aI1
aF1.0
aI0
aI0
aI0
aI2
aI0
aI0
aI2
aI2
aI7
aI5
aa(lp139
V0020600549
p140
aVJAN 13, 2007
p141
aVORL @ PHX
p142
aVL
p143
aI20
aI4
aI4
aF1.0
aI2
aI2
aF1.0
aI0
aI0
aF0.0
aI0
aI0
aI0
aI1
aI0
aI0
aI0
aI1
aI10
aI3
aa(lp144
V0020600565
p145
aVJAN 16, 2007
p146
aVORL @ NOK
p147
aVL
p148
aI19
aI2
aI4
aF0.5
aI2
aI3
aF0.667
aI0
aI1
aF0.0
aI0
aI3
aI3
aI1
aI1
aI0
aI0
aI3
aI6
aI4
aa(lp149
V0020600583
p150
aVJAN 19, 2007
p151
aVORL vs. WAS
p152
aVL
p153
aI9
aI1
aI4
aF0.25
aI1
aI3
aF0.333
aI0
aI0
aF0.0
aI0
aI2
aI2
aI2
aI0
aI0
aI1
aI1
aI3
aI-4
aa(lp154
V0020600597
p155
aVJAN 20, 2007
p156
aVORL @ NJN
p157
aVL
p158
aI20
aI1
aI3
aF0.333
aI1
aI3
aF0.333
aI1
aI2
aF0.5
aI0
aI3
aI3
aI0
aI0
aI0
aI0
aI1
aI4
aI-8
aa(lp159
V0020600607
p160
aVJAN 22, 2007
p161
aVORL @ CLE
p162
aVW
p163
aI15
aI3
aI4
aF0.75
aI3
aI3
aF1.0
aI0
aI0
aF0.0
aI1
aI2
aI3
aI0
aI0
aI0
aI1
aI0
aI9
aI7
aa(lp164
V0020600617
p165
aVJAN 23, 2007
p166
aVORL vs. DAL
p167
aVL
p168
aI13
aI1
aI3
aF0.333
aI1
aI2
aF0.5
aI1
aI2
aF0.5
aI0
aI0
aI0
aI0
aI0
aI0
aI1
aI1
aI4
aI-8
aa(lp169
V0020600636
p170
aVJAN 26, 2007
p171
aVORL vs. ATL
p172
aVL
p173
aI22
aI2
aI2
aF1.0
aI1
aI1
aF1.0
aI1
aI2
aF0.5
aI1
aI1
aI2
aI2
aI2
aI0
aI0
aI0
aI6
aI8
aa(lp174
V0020600661
p175
aVJAN 29, 2007
p176
aVORL @ ATL
p177
aVL
p178
aI24
aI1
aI4
aF0.25
aI0
aI1
aF0.0
aI1
aI2
aF0.5
aI0
aI1
aI1
aI0
aI0
aI0
aI0
aI2
aI3
aI0
aa(lp179
V0020600677
p180
aVJAN 31, 2007
p181
aVORL vs. MIL
p182
aVW
p183
aI29
aI5
aI13
aF0.385
aI3
aI8
aF0.375
aI1
aI2
aF0.5
aI1
aI4
aI5
aI7
aI2
aI0
aI1
aI3
aI14
aI24
aa(lp184
V0020600690
p185
aVFEB 02, 2007
p186
aVORL vs. NJN
p187
aVW
p188
aI28
aI2
aI6
aF0.333
aI1
aI4
aF0.25
aI3
aI3
aF1.0
aI0
aI3
aI3
aI6
aI0
aI0
aI0
aI4
aI8
aI31
aa(lp189
V0020600701
p190
aVFEB 03, 2007
p191
aVORL vs. NYK
p192
aVL
p193
aI29
aI2
aI5
aF0.4
aI0
aI3
aF0.0
aI2
aI2
aF1.0
aI2
aI1
aI3
aI1
aI2
aI0
aI1
aI3
aI6
aI-9
aa(lp194
V0020600722
p195
aVFEB 06, 2007
p196
aVORL @ MIL
p197
aVL
p198
aI32
aI6
aI8
aF0.75
aI3
aI4
aF0.75
aI4
aI4
aF1.0
aI1
aI1
aI2
aI3
aI0
aI0
aI1
aI2
aI19
aI-9
aa(lp199
V0020600725
p200
aVFEB 07, 2007
p201
aVORL @ TOR
p202
aVL
p203
aI41
aI6
aI12
aF0.5
aI3
aI6
aF0.5
aI0
aI0
aF0.0
aI0
aI3
aI3
aI3
aI0
aI0
aI2
aI3
aI15
aI-12
aa(lp204
V0020600741
p205
aVFEB 09, 2007
p206
aVORL vs. SAS
p207
aVW
p208
aI17
aI1
aI4
aF0.25
aI1
aI3
aF0.333
aI0
aI0
aF0.0
aI0
aI0
aI0
aI0
aI0
aI0
aI1
aI2
aI3
aI-7
aa(lp209
V0020600749
p210
aVFEB 10, 2007
p211
aVORL @ NJN
p212
aVL
p213
aI34
aI2
aI8
aF0.25
aI2
aI5
aF0.4
aI1
aI2
aF0.5
aI0
aI2
aI2
aI2
aI2
aI0
aI0
aI3
aI7
aI-6
aa(lp214
V0020600778
p215
aVFEB 14, 2007
p216
aVORL vs. POR
p217
aVW
p218
aI23
aI2
aI6
aF0.333
aI2
aI3
aF0.667
aI0
aI0
aF0.0
aI0
aI1
aI1
aI0
aI0
aI0
aI0
aI1
aI6
aI21
aa(lp219
V0020600792
p220
aVFEB 20, 2007
p221
aVORL @ NYK
p222
aVL
p223
aI6
aI0
aI4
aF0.0
aI0
aI3
aF0.0
aI0
aI0
aF0.0
aI0
aI1
aI1
aI0
aI1
aI0
aI0
aI1
aI0
aI-5
aa(lp224
V0020600805
p225
aVFEB 21, 2007
p226
aVORL @ DET
p227
aVL
p228
aI7
aI0
aI1
aF0.0
aI0
aI0
aF0.0
aI0
aI0
aF0.0
aI0
aI0
aI0
aI0
aI0
aI0
aI0
aI0
aI0
aI-3
aa(lp229
V0020600816
p230
aVFEB 23, 2007
p231
aVORL vs. DET
p232
aVL
p233
aI9
aI0
aI1
aF0.0
aI0
aI1
aF0.0
aI0
aI0
aF0.0
aI0
aI1
aI1
aI0
aI0
aI0
aI0
aI3
aI0
aI-11
aa(lp234
V0020600834
p235
aVFEB 25, 2007
p236
aVORL vs. HOU
p237
aVL
p238
aI14
aI1
aI4
aF0.25
aI1
aI4
aF0.25
aI0
aI1
aF0.0
aI0
aI0
aI0
aI1
aI0
aI0
aI0
aI3
aI3
aI0
aa(lp239
V0020600862
p240
aVFEB 28, 2007
p241
aVORL @ DEN
p242
aVL
p243
aI22
aI2
aI7
aF0.286
aI2
aI5
aF0.4
aI0
aI0
aF0.0
aI0
aI2
aI2
aI2
aI0
aI1
aI1
aI1
aI6
aI-2
aa(lp244
V0020600873
p245
aVMAR 02, 2007
p246
aVORL @ SAS
p247
aVL
p248
aI25
aI1
aI3
aF0.333
aI0
aI2
aF0.0
aI2
aI2
aF1.0
aI0
aI3
aI3
aI0
aI0
aI0
aI3
aI1
aI4
aI2
aa(lp249
V0020600884
p250
aVMAR 03, 2007
p251
aVORL @ DAL
p252
aVL
p253
aI29
aI2
aI4
aF0.5
aI1
aI3
aF0.333
aI2
aI2
aF1.0
aI0
aI4
aI4
aI3
aI0
aI0
aI0
aI3
aI7
aI-15
aa(lp254
V0020600894
p255
aVMAR 05, 2007
p256
aVORL vs. MIL
p257
aVW
p258
aI29
aI2
aI7
aF0.286
aI1
aI5
aF0.2
aI2
aI2
aF1.0
aI2
aI1
aI3
aI0
aI1
aI0
aI2
aI2
aI7
aI20
aa(lp259
V0020600917
p260
aVMAR 08, 2007
p261
aVORL vs. CHI
p262
aVL
p263
aI18
aI2
aI5
aF0.4
aI1
aI4
aF0.25
aI1
aI1
aF1.0
aI0
aI1
aI1
aI0
aI1
aI0
aI2
aI2
aI6
aI-3
aa(lp264
V0020600937
p265
aVMAR 11, 2007
p266
aVORL @ HOU
p267
aVL
p268
aI22
aI4
aI9
aF0.444
aI0
aI3
aF0.0
aI0
aI2
aF0.0
aI1
aI3
aI4
aI1
aI0
aI0
aI0
aI3
aI8
aI-1
aa(lp269
V0020600943
p270
aVMAR 12, 2007
p271
aVORL @ CHA
p272
aVL
p273
aI12
aI1
aI5
aF0.2
aI1
aI3
aF0.333
aI0
aI0
aF0.0
aI0
aI0
aI0
aI2
aI0
aI0
aI1
aI0
aI3
aI-4
aa(lp274
V0020601134
p275
aVAPR 07, 2007
p276
aVORL vs. MEM
p277
aVW
p278
aI8
aI1
aI2
aF0.5
aI0
aI0
aF0.0
aI0
aI0
aF0.0
aI0
aI0
aI0
aI0
aI0
aI0
aI2
aI1
aI2
aI-1
aa(lp279
V0020601150
p280
aVAPR 09, 2007
p281
aVORL @ MIL
p282
aVW
p283
aI9
aI1
aI4
aF0.25
aI0
aI2
aF0.0
aI0
aI0
aF0.0
aI0
aI1
aI1
aI0
aI1
aI0
aI1
aI0
aI2
aI-4
aa(lp284
V0020601187
p285
aVAPR 14, 2007
p286
aVORL @ PHI
p287
aVW
p288
aI8
aI2
aI3
aF0.667
aI1
aI2
aF0.5
aI0
aI0
aF0.0
aI1
aI2
aI3
aI1
aI1
aI0
aI0
aI2
aI5
aI-2
aa(lp289
V0020601212
p290
aVAPR 17, 2007
p291
aVORL @ WAS
p292
aVW
p293
aI13
aI1
aI2
aF0.5
aI1
aI2
aF0.5
aI0
aI0
aF0.0
aI1
aI1
aI2
aI0
aI0
aI0
aI1
aI3
aI3
aI3
aa(lp294
V0020601219
p295
aVAPR 18, 2007
p296
aVORL vs. MIA
p297
aVW
p298
aI6
aI1
aI6
aF0.167
aI1
aI5
aF0.2
aI0
aI0
aF0.0
aI0
aI0
aI0
aI0
aI0
aI0
aI0
aI0
aI3
aI5
aasS'name'
p299
VKeith Bogans
p300
sS'experience'
p301
I3
s.