(dp0
S'age'
p1
I26
sS'stats'
p2
(lp3
(lp4
V0020600004
p5
aVNOV 01, 2006
p6
aVCHA vs. IND
p7
aVL
p8
aI19
aI2
aI6
aF0.333
aI2
aI5
aF0.4
aI2
aI2
aF1.0
aI0
aI2
aI2
aI2
aI1
aI0
aI1
aI4
aI8
aI-6
aa(lp9
V0020600024
p10
aVNOV 03, 2006
p11
aVCHA @ MEM
p12
aVL
p13
aI4
aI0
aI1
aF0.0
aI0
aI1
aF0.0
aI0
aI0
aF0.0
aI0
aI1
aI1
aI0
aI0
aI0
aI1
aI0
aI0
aI-1
aa(lp14
V0020600061
p15
aVNOV 08, 2006
p16
aVCHA @ BOS
p17
aVL
p18
aI5
aI0
aI1
aF0.0
aI0
aI1
aF0.0
aI0
aI0
aF0.0
aI0
aI0
aI0
aI1
aI0
aI0
aI0
aI1
aI0
aI-2
aa(lp19
V0020600075
p20
aVNOV 10, 2006
p21
aVCHA vs. SEA
p22
aVL
p23
aI8
aI0
aI3
aF0.0
aI0
aI0
aF0.0
aI0
aI0
aF0.0
aI0
aI0
aI0
aI1
aI0
aI0
aI0
aI1
aI0
aI-2
aa(lp24
V0020600092
p25
aVNOV 12, 2006
p26
aVCHA vs. DEN
p27
aVL
p28
aI12
aI3
aI6
aF0.5
aI0
aI3
aF0.0
aI2
aI2
aF1.0
aI1
aI1
aI2
aI1
aI0
aI0
aI1
aI5
aI8
aI-1
aa(lp29
V0020600102
p30
aVNOV 14, 2006
p31
aVCHA @ NOK
p32
aVL
p33
aI4
aI0
aI0
aF0.0
aI0
aI0
aF0.0
aI2
aI2
aF1.0
aI0
aI0
aI0
aI0
aI1
aI0
aI0
aI0
aI2
aI-4
aa(lp34
V0020600131
p35
aVNOV 18, 2006
p36
aVCHA @ ORL
p37
aVL
p38
aI14
aI2
aI6
aF0.333
aI0
aI2
aF0.0
aI2
aI2
aF1.0
aI1
aI0
aI1
aI0
aI0
aI0
aI0
aI3
aI6
aI-11
aa(lp39
V0020600159
p40
aVNOV 22, 2006
p41
aVCHA vs. BOS
p42
aVW
p43
aI16
aI4
aI6
aF0.667
aI0
aI1
aF0.0
aI3
aI3
aF1.0
aI0
aI1
aI1
aI2
aI1
aI0
aI1
aI4
aI11
aI4
aa(lp44
V0020600175
p45
aVNOV 24, 2006
p46
aVCHA @ DET
p47
aVL
p48
aI20
aI8
aI12
aF0.667
aI0
aI0
aF0.0
aI0
aI1
aF0.0
aI1
aI1
aI2
aI2
aI0
aI0
aI0
aI3
aI16
aI3
aa(lp49
V0020600185
p50
aVNOV 25, 2006
p51
aVCHA vs. MIA
p52
aVL
p53
aI20
aI5
aI10
aF0.5
aI1
aI3
aF0.333
aI3
aI4
aF0.75
aI1
aI3
aI4
aI1
aI2
aI0
aI1
aI4
aI14
aI4
aa(lp54
V0020600205
p55
aVNOV 28, 2006
p56
aVCHA @ NJN
p57
aVW
p58
aI13
aI0
aI2
aF0.0
aI0
aI0
aF0.0
aI2
aI2
aF1.0
aI0
aI0
aI0
aI1
aI0
aI0
aI0
aI1
aI2
aI11
aa(lp59
V0020600213
p60
aVNOV 29, 2006
p61
aVCHA @ ATL
p62
aVL
p63
aI17
aI3
aI5
aF0.6
aI0
aI2
aF0.0
aI1
aI1
aF1.0
aI1
aI0
aI1
aI1
aI1
aI0
aI0
aI2
aI7
aI2
aa(lp64
V0020600225
p65
aVDEC 01, 2006
p66
aVCHA @ WAS
p67
aVL
p68
aI8
aI1
aI3
aF0.333
aI1
aI2
aF0.5
aI1
aI1
aF1.0
aI0
aI1
aI1
aI0
aI0
aI0
aI1
aI1
aI4
aI-2
aa(lp69
V0020600245
p70
aVDEC 03, 2006
p71
aVCHA vs. DET
p72
aVW
p73
aI20
aI5
aI8
aF0.625
aI2
aI4
aF0.5
aI4
aI4
aF1.0
aI0
aI3
aI3
aI1
aI2
aI1
aI0
aI2
aI16
aI10
aa(lp74
V0020600296
p75
aVDEC 10, 2006
p76
aVCHA vs. PHX
p77
aVL
p78
aI28
aI5
aI12
aF0.417
aI2
aI5
aF0.4
aI0
aI0
aF0.0
aI0
aI0
aI0
aI2
aI2
aI1
aI2
aI0
aI12
aI-16
aa(lp79
V0020600317
p80
aVDEC 13, 2006
p81
aVCHA @ CLE
p82
aVL
p83
aI14
aI4
aI6
aF0.667
aI1
aI2
aF0.5
aI0
aI0
aF0.0
aI0
aI2
aI2
aI0
aI0
aI0
aI0
aI3
aI9
aI3
aa(lp84
V0020600326
p85
aVDEC 14, 2006
p86
aVCHA vs. ORL
p87
aVW
p88
aI9
aI0
aI4
aF0.0
aI0
aI1
aF0.0
aI0
aI0
aF0.0
aI0
aI0
aI0
aI1
aI0
aI0
aI0
aI1
aI0
aI7
aa(lp89
V0020600341
p90
aVDEC 16, 2006
p91
aVCHA vs. BOS
p92
aVL
p93
aI15
aI1
aI7
aF0.143
aI0
aI2
aF0.0
aI3
aI3
aF1.0
aI0
aI2
aI2
aI1
aI1
aI0
aI1
aI3
aI5
aI-2
aa(lp94
V0020600368
p95
aVDEC 20, 2006
p96
aVCHA @ NYK
p97
aVL
p98
aI26
aI6
aI12
aF0.5
aI1
aI5
aF0.2
aI2
aI2
aF1.0
aI0
aI0
aI0
aI0
aI1
aI0
aI2
aI4
aI15
aI8
aa(lp99
V0020600379
p100
aVDEC 22, 2006
p101
aVCHA vs. UTA
p102
aVW
p103
aI18
aI4
aI7
aF0.571
aI2
aI3
aF0.667
aI6
aI6
aF1.0
aI0
aI1
aI1
aI0
aI0
aI1
aI2
aI4
aI16
aI6
aa(lp104
V0020600399
p105
aVDEC 23, 2006
p106
aVCHA @ CHI
p107
aVL
p108
aI15
aI2
aI7
aF0.286
aI0
aI3
aF0.0
aI0
aI0
aF0.0
aI0
aI1
aI1
aI2
aI0
aI0
aI0
aI1
aI4
aI-19
aa(lp109
V0020600409
p110
aVDEC 26, 2006
p111
aVCHA @ DAL
p112
aVL
p113
aI24
aI5
aI10
aF0.5
aI2
aI3
aF0.667
aI2
aI2
aF1.0
aI0
aI1
aI1
aI0
aI2
aI0
aI2
aI3
aI14
aI-8
aa(lp114
V0020600416
p115
aVDEC 27, 2006
p116
aVCHA vs. WAS
p117
aVL
p118
aI26
aI2
aI11
aF0.182
aI1
aI6
aF0.167
aI1
aI1
aF1.0
aI1
aI4
aI5
aI2
aI0
aI0
aI1
aI2
aI6
aI-8
aa(lp119
V0020600431
p120
aVDEC 29, 2006
p121
aVCHA vs. LAL
p122
aVW
p123
aI40
aI8
aI16
aF0.5
aI4
aI7
aF0.571
aI7
aI7
aF1.0
aI1
aI7
aI8
aI1
aI0
aI0
aI2
aI4
aI27
aI19
aa(lp124
V0020600443
p125
aVDEC 30, 2006
p126
aVCHA @ IND
p127
aVW
p128
aI28
aI5
aI11
aF0.455
aI4
aI7
aF0.571
aI4
aI4
aF1.0
aI0
aI3
aI3
aI2
aI1
aI0
aI0
aI2
aI18
aI12
aa(lp129
V0020600458
p130
aVJAN 01, 2007
p131
aVCHA vs. MIN
p132
aVL
p133
aI32
aI7
aI13
aF0.538
aI5
aI8
aF0.625
aI4
aI4
aF1.0
aI0
aI0
aI0
aI1
aI2
aI0
aI2
aI5
aI23
aI6
aa(lp134
V0020600481
p135
aVJAN 05, 2007
p136
aVCHA @ ORL
p137
aVL
p138
aI32
aI7
aI15
aF0.467
aI4
aI7
aF0.571
aI1
aI2
aF0.5
aI1
aI1
aI2
aI1
aI1
aI1
aI1
aI2
aI19
aI-25
aa(lp139
V0020600520
p140
aVJAN 10, 2007
p141
aVCHA @ DET
p142
aVW
p143
aI31
aI3
aI7
aF0.429
aI2
aI3
aF0.667
aI9
aI10
aF0.9
aI0
aI7
aI7
aI2
aI2
aI1
aI3
aI2
aI17
aI12
aa(lp144
V0020600533
p145
aVJAN 12, 2007
p146
aVCHA @ NYK
p147
aVW
p148
aI38
aI8
aI12
aF0.667
aI3
aI4
aF0.75
aI4
aI5
aF0.8
aI0
aI6
aI6
aI4
aI2
aI0
aI1
aI2
aI23
aI17
aa(lp149
V0020600542
p150
aVJAN 13, 2007
p151
aVCHA vs. PHI
p152
aVW
p153
aI35
aI2
aI8
aF0.25
aI1
aI4
aF0.25
aI5
aI6
aF0.833
aI1
aI4
aI5
aI2
aI3
aI0
aI2
aI4
aI10
aI-5
aa(lp154
V0020600556
p155
aVJAN 15, 2007
p156
aVCHA vs. MIL
p157
aVL
p158
aI37
aI7
aI12
aF0.583
aI5
aI9
aF0.556
aI3
aI5
aF0.6
aI1
aI1
aI2
aI1
aI1
aI0
aI1
aI1
aI22
aI-17
aa(lp159
V0020600570
p160
aVJAN 17, 2007
p161
aVCHA vs. NJN
p162
aVL
p163
aI38
aI3
aI11
aF0.273
aI2
aI7
aF0.286
aI6
aI6
aF1.0
aI0
aI6
aI6
aI2
aI1
aI0
aI2
aI3
aI14
aI-4
aa(lp164
V0020600586
p165
aVJAN 19, 2007
p166
aVCHA @ ATL
p167
aVW
p168
aI35
aI5
aI11
aF0.455
aI1
aI6
aF0.167
aI1
aI1
aF1.0
aI0
aI3
aI3
aI4
aI0
aI0
aI0
aI2
aI12
aI11
aa(lp169
V0020600593
p170
aVJAN 20, 2007
p171
aVCHA vs. ATL
p172
aVW
p173
aI38
aI9
aI12
aF0.75
aI1
aI2
aF0.5
aI3
aI3
aF1.0
aI0
aI0
aI0
aI3
aI0
aI0
aI1
aI4
aI22
aI13
aa(lp174
V0020600606
p175
aVJAN 22, 2007
p176
aVCHA @ TOR
p177
aVL
p178
aI37
aI4
aI11
aF0.364
aI2
aI5
aF0.4
aI0
aI0
aF0.0
aI1
aI5
aI6
aI0
aI0
aI0
aI1
aI4
aI10
aI-16
aa(lp179
V0020600622
p180
aVJAN 24, 2007
p181
aVCHA vs. DET
p182
aVL
p183
aI20
aI1
aI4
aF0.25
aI1
aI2
aF0.5
aI1
aI3
aF0.333
aI0
aI1
aI1
aI0
aI0
aI0
aI0
aI1
aI4
aI-24
aa(lp184
V0020600644
p185
aVJAN 26, 2007
p186
aVCHA @ LAL
p187
aVW
p188
aI37
aI8
aI15
aF0.533
aI3
aI6
aF0.5
aI5
aI5
aF1.0
aI1
aI5
aI6
aI3
aI2
aI1
aI0
aI5
aI24
aI16
aa(lp189
V0020600654
p190
aVJAN 27, 2007
p191
aVCHA @ GSW
p192
aVL
p193
aI20
aI0
aI5
aF0.0
aI0
aI4
aF0.0
aI1
aI1
aF1.0
aI0
aI3
aI3
aI1
aI1
aI0
aI3
aI1
aI1
aI-26
aa(lp194
V0020600666
p195
aVJAN 29, 2007
p196
aVCHA @ DEN
p197
aVW
p198
aI29
aI4
aI11
aF0.364
aI3
aI5
aF0.6
aI3
aI3
aF1.0
aI0
aI5
aI5
aI1
aI2
aI0
aI0
aI3
aI14
aI5
aa(lp199
V0020600675
p200
aVJAN 31, 2007
p201
aVCHA vs. NYK
p202
aVW
p203
aI31
aI3
aI9
aF0.333
aI2
aI4
aF0.5
aI1
aI1
aF1.0
aI0
aI0
aI0
aI0
aI1
aI0
aI1
aI4
aI9
aI4
aa(lp204
V0020600694
p205
aVFEB 02, 2007
p206
aVCHA @ CLE
p207
aVL
p208
aI16
aI1
aI5
aF0.2
aI1
aI2
aF0.5
aI4
aI4
aF1.0
aI0
aI0
aI0
aI0
aI0
aI0
aI1
aI3
aI7
aI-5
aa(lp209
V0020600700
p210
aVFEB 03, 2007
p211
aVCHA vs. GSW
p212
aVW
p213
aI34
aI6
aI13
aF0.462
aI3
aI7
aF0.429
aI1
aI1
aF1.0
aI1
aI3
aI4
aI2
aI1
aI1
aI0
aI3
aI16
aI5
aa(lp214
V0020600716
p215
aVFEB 05, 2007
p216
aVCHA @ MIA
p217
aVL
p218
aI32
aI3
aI11
aF0.273
aI1
aI5
aF0.2
aI6
aI6
aF1.0
aI0
aI2
aI2
aI2
aI0
aI0
aI2
aI2
aI13
aI-17
aa(lp219
V0020600726
p220
aVFEB 07, 2007
p221
aVCHA @ PHI
p222
aVL
p223
aI36
aI3
aI14
aF0.214
aI1
aI2
aF0.5
aI4
aI4
aF1.0
aI3
aI5
aI8
aI1
aI0
aI0
aI1
aI2
aI11
aI-1
aa(lp224
V0020600740
p225
aVFEB 09, 2007
p226
aVCHA vs. POR
p227
aVL
p228
aI37
aI5
aI15
aF0.333
aI2
aI5
aF0.4
aI1
aI2
aF0.5
aI1
aI6
aI7
aI3
aI2
aI0
aI0
aI6
aI13
aI0
aa(lp229
V0020600753
p230
aVFEB 10, 2007
p231
aVCHA @ HOU
p232
aVL
p233
aI25
aI5
aI8
aF0.625
aI1
aI2
aF0.5
aI1
aI1
aF1.0
aI0
aI4
aI4
aI2
aI0
aI0
aI3
aI1
aI12
aI-2
aa(lp234
V0020600777
p235
aVFEB 14, 2007
p236
aVCHA vs. CHI
p237
aVW
p238
aI31
aI6
aI10
aF0.6
aI3
aI5
aF0.6
aI2
aI2
aF1.0
aI1
aI3
aI4
aI3
aI3
aI0
aI2
aI5
aI17
aI11
aa(lp239
V0020600791
p240
aVFEB 20, 2007
p241
aVCHA vs. NOK
p242
aVW
p243
aI20
aI3
aI7
aF0.429
aI2
aI2
aF1.0
aI0
aI0
aF0.0
aI0
aI1
aI1
aI1
aI0
aI0
aI0
aI1
aI8
aI-8
aa(lp244
V0020600806
p245
aVFEB 21, 2007
p246
aVCHA @ MIN
p247
aVW
p248
aI30
aI5
aI11
aF0.455
aI2
aI7
aF0.286
aI8
aI8
aF1.0
aI2
aI5
aI7
aI0
aI0
aI0
aI0
aI1
aI20
aI8
aa(lp249
V0020600815
p250
aVFEB 23, 2007
p251
aVCHA vs. PHI
p252
aVW
p253
aI30
aI7
aI11
aF0.636
aI2
aI5
aF0.4
aI3
aI3
aF1.0
aI1
aI2
aI3
aI1
aI0
aI0
aI2
aI4
aI19
aI7
aa(lp254
V0020600827
p255
aVFEB 24, 2007
p256
aVCHA vs. TOR
p257
aVL
p258
aI38
aI4
aI14
aF0.286
aI2
aI7
aF0.286
aI3
aI4
aF0.75
aI2
aI7
aI9
aI0
aI2
aI0
aI0
aI2
aI13
aI-16
aa(lp259
V0020600849
p260
aVFEB 26, 2007
p261
aVCHA @ LAC
p262
aVL
p263
aI38
aI6
aI12
aF0.5
aI2
aI5
aF0.4
aI5
aI5
aF1.0
aI2
aI7
aI9
aI1
aI0
aI0
aI2
aI4
aI19
aI4
aa(lp264
V0020600863
p265
aVFEB 28, 2007
p266
aVCHA @ SAC
p267
aVL
p268
aI29
aI5
aI11
aF0.455
aI2
aI3
aF0.667
aI7
aI8
aF0.875
aI1
aI1
aI2
aI1
aI1
aI1
aI2
aI3
aI19
aI-20
aa(lp269
V0020600866
p270
aVMAR 01, 2007
p271
aVCHA @ POR
p272
aVL
p273
aI27
aI7
aI10
aF0.7
aI4
aI4
aF1.0
aI2
aI2
aF1.0
aI0
aI2
aI2
aI2
aI2
aI0
aI0
aI2
aI20
aI-27
aa(lp274
V0020600893
p275
aVMAR 04, 2007
p276
aVCHA @ SEA
p277
aVL
p278
aI32
aI4
aI11
aF0.364
aI1
aI4
aF0.25
aI3
aI4
aF0.75
aI0
aI6
aI6
aI3
aI0
aI0
aI3
aI3
aI12
aI2
aa(lp279
V0020600898
p280
aVMAR 05, 2007
p281
aVCHA @ UTA
p282
aVL
p283
aI21
aI1
aI6
aF0.167
aI0
aI3
aF0.0
aI3
aI3
aF1.0
aI0
aI1
aI1
aI1
aI1
aI0
aI1
aI2
aI5
aI-16
aa(lp284
V0020600915
p285
aVMAR 07, 2007
p286
aVCHA @ PHX
p287
aVL
p288
aI42
aI4
aI7
aF0.571
aI3
aI4
aF0.75
aI5
aI5
aF1.0
aI1
aI5
aI6
aI0
aI0
aI0
aI2
aI2
aI16
aI0
aa(lp289
V0020600928
p290
aVMAR 10, 2007
p291
aVCHA vs. MEM
p292
aVL
p293
aI23
aI4
aI11
aF0.364
aI0
aI4
aF0.0
aI2
aI2
aF1.0
aI0
aI1
aI1
aI0
aI0
aI0
aI2
aI0
aI10
aI-14
aa(lp294
V0020600943
p295
aVMAR 12, 2007
p296
aVCHA vs. ORL
p297
aVW
p298
aI19
aI2
aI4
aF0.5
aI2
aI3
aF0.667
aI3
aI4
aF0.75
aI0
aI2
aI2
aI1
aI1
aI0
aI0
aI3
aI9
aI4
aa(lp299
V0020600959
p300
aVMAR 14, 2007
p301
aVCHA vs. SAC
p302
aVW
p303
aI29
aI9
aI14
aF0.643
aI4
aI5
aF0.8
aI0
aI0
aF0.0
aI0
aI1
aI1
aI5
aI2
aI0
aI2
aI2
aI22
aI11
aa(lp304
V0020600972
p305
aVMAR 16, 2007
p306
aVCHA vs. LAC
p307
aVL
p308
aI36
aI3
aI7
aF0.429
aI1
aI3
aF0.333
aI6
aI7
aF0.857
aI0
aI7
aI7
aI2
aI0
aI0
aI2
aI1
aI13
aI-4
aa(lp309
V0020600985
p310
aVMAR 17, 2007
p311
aVCHA @ MIL
p312
aVL
p313
aI21
aI2
aI4
aF0.5
aI0
aI1
aF0.0
aI4
aI5
aF0.8
aI0
aI2
aI2
aI0
aI0
aI0
aI0
aI3
aI8
aI-23
aa(lp314
V0020600998
p315
aVMAR 20, 2007
p316
aVCHA vs. CLE
p317
aVW
p318
aI36
aI4
aI11
aF0.364
aI2
aI2
aF1.0
aI10
aI10
aF1.0
aI0
aI5
aI5
aI2
aI1
aI0
aI1
aI1
aI20
aI9
aa(lp319
V0020601009
p320
aVMAR 21, 2007
p321
aVCHA @ BOS
p322
aVW
p323
aI36
aI5
aI13
aF0.385
aI2
aI4
aF0.5
aI3
aI4
aF0.75
aI1
aI1
aI2
aI1
aI0
aI0
aI1
aI1
aI15
aI0
aa(lp324
V0020601021
p325
aVMAR 23, 2007
p326
aVCHA @ PHI
p327
aVL
p328
aI34
aI4
aI12
aF0.333
aI0
aI4
aF0.0
aI1
aI2
aF0.5
aI3
aI1
aI4
aI0
aI0
aI0
aI1
aI0
aI9
aI-17
aa(lp329
V0020601032
p330
aVMAR 24, 2007
p331
aVCHA vs. NJN
p332
aVL
p333
aI48
aI11
aI19
aF0.579
aI3
aI5
aF0.6
aI2
aI2
aF1.0
aI2
aI0
aI2
aI2
aI3
aI0
aI2
aI5
aI27
aI-16
aa(lp334
V0020601060
p335
aVMAR 28, 2007
p336
aVCHA vs. ATL
p337
aVW
p338
aI35
aI7
aI12
aF0.583
aI4
aI4
aF1.0
aI1
aI1
aF1.0
aI0
aI2
aI2
aI0
aI0
aI0
aI1
aI2
aI19
aI21
aa(lp339
V0020601074
p340
aVMAR 30, 2007
p341
aVCHA vs. MIL
p342
aVW
p343
aI33
aI5
aI13
aF0.385
aI0
aI3
aF0.0
aI3
aI3
aF1.0
aI0
aI1
aI1
aI1
aI1
aI0
aI0
aI4
aI13
aI15
aa(lp344
V0020601095
p345
aVAPR 01, 2007
p346
aVCHA @ TOR
p347
aVL
p348
aI24
aI1
aI9
aF0.111
aI1
aI5
aF0.2
aI0
aI1
aF0.0
aI0
aI2
aI2
aI0
aI0
aI1
aI2
aI0
aI3
aI-7
aa(lp349
V0020601100
p350
aVAPR 03, 2007
p351
aVCHA vs. WAS
p352
aVW
p353
aI29
aI5
aI12
aF0.417
aI1
aI3
aF0.333
aI0
aI0
aF0.0
aI0
aI5
aI5
aI4
aI0
aI0
aI0
aI3
aI11
aI15
aa(lp354
V0020601108
p355
aVAPR 04, 2007
p356
aVCHA @ WAS
p357
aVW
p358
aI19
aI0
aI3
aF0.0
aI0
aI2
aF0.0
aI0
aI0
aF0.0
aI0
aI0
aI0
aI0
aI0
aI0
aI1
aI1
aI0
aI2
aa(lp359
V0020601122
p360
aVAPR 06, 2007
p361
aVCHA vs. IND
p362
aVL
p363
aI22
aI2
aI10
aF0.2
aI1
aI3
aF0.333
aI1
aI1
aF1.0
aI2
aI1
aI3
aI1
aI0
aI0
aI1
aI3
aI6
aI-14
aasS'name'
p364
VMatt Carroll
p365
sS'experience'
p366
I3
s.