(dp0
S'age'
p1
I21
sS'stats'
p2
(lp3
(lp4
V0020601219
p5
aVAPR 18, 2007
p6
aVORL vs. MIA
p7
aVW
p8
aI27
aI5
aI8
aF0.625
aI0
aI0
aF0.0
aI2
aI4
aF0.5
aI3
aI11
aI14
aI1
aI0
aI1
aI3
aI2
aI12
aI26
aa(lp9
V0020601212
p10
aVAPR 17, 2007
p11
aVORL @ WAS
p12
aVW
p13
aI41
aI7
aI11
aF0.636
aI0
aI0
aF0.0
aI3
aI6
aF0.5
aI3
aI9
aI12
aI2
aI0
aI3
aI6
aI3
aI17
aI10
aa(lp14
V0020601200
p15
aVAPR 15, 2007
p16
aVORL vs. BOS
p17
aVW
p18
aI41
aI3
aI8
aF0.375
aI0
aI0
aF0.0
aI4
aI12
aF0.333
aI4
aI10
aI14
aI3
aI2
aI2
aI5
aI3
aI10
aI13
aa(lp19
V0020601187
p20
aVAPR 14, 2007
p21
aVORL @ PHI
p22
aVW
p23
aI43
aI14
aI15
aF0.933
aI0
aI0
aF0.0
aI7
aI10
aF0.7
aI5
aI6
aI11
aI5
aI3
aI0
aI5
aI3
aI35
aI23
aa(lp24
V0020601166
p25
aVAPR 11, 2007
p26
aVORL @ DET
p27
aVL
p28
aI42
aI3
aI12
aF0.25
aI0
aI0
aF0.0
aI6
aI16
aF0.375
aI8
aI8
aI16
aI1
aI0
aI2
aI2
aI1
aI12
aI-10
aa(lp29
V0020601150
p30
aVAPR 09, 2007
p31
aVORL @ MIL
p32
aVW
p33
aI29
aI7
aI10
aF0.7
aI0
aI0
aF0.0
aI1
aI4
aF0.25
aI2
aI9
aI11
aI2
aI2
aI1
aI1
aI0
aI15
aI24
aa(lp34
V0020601134
p35
aVAPR 07, 2007
p36
aVORL vs. MEM
p37
aVW
p38
aI32
aI10
aI13
aF0.769
aI0
aI0
aF0.0
aI11
aI17
aF0.647
aI3
aI8
aI11
aI2
aI1
aI0
aI2
aI3
aI31
aI39
aa(lp39
V0020601109
p40
aVAPR 04, 2007
p41
aVORL vs. TOR
p42
aVL
p43
aI45
aI7
aI12
aF0.583
aI0
aI0
aF0.0
aI4
aI6
aF0.667
aI5
aI10
aI15
aI5
aI0
aI2
aI7
aI3
aI18
aI-2
aa(lp44
V0020601096
p45
aVAPR 01, 2007
p46
aVORL vs. MIN
p47
aVL
p48
aI39
aI3
aI5
aF0.6
aI0
aI0
aF0.0
aI2
aI4
aF0.5
aI5
aI14
aI19
aI1
aI0
aI1
aI5
aI3
aI8
aI-9
aa(lp49
V0020601075
p50
aVMAR 30, 2007
p51
aVORL vs. IND
p52
aVW
p53
aI43
aI4
aI10
aF0.4
aI0
aI0
aF0.0
aI2
aI4
aF0.5
aI1
aI7
aI8
aI2
aI1
aI5
aI7
aI4
aI10
aI11
aa(lp54
V0020601061
p55
aVMAR 28, 2007
p56
aVORL @ BOS
p57
aVL
p58
aI51
aI4
aI9
aF0.444
aI0
aI0
aF0.0
aI4
aI12
aF0.333
aI3
aI11
aI14
aI3
aI2
aI6
aI6
aI3
aI12
aI3
aa(lp59
V0020601046
p60
aVMAR 26, 2007
p61
aVORL @ NYK
p62
aVW
p63
aI42
aI5
aI7
aF0.714
aI0
aI0
aF0.0
aI0
aI4
aF0.0
aI1
aI13
aI14
aI5
aI3
aI4
aI6
aI0
aI10
aI3
aa(lp64
V0020601022
p65
aVMAR 23, 2007
p66
aVORL vs. NJN
p67
aVW
p68
aI38
aI3
aI6
aF0.5
aI0
aI0
aF0.0
aI4
aI8
aF0.5
aI3
aI13
aI16
aI2
aI0
aI0
aI3
aI4
aI10
aI12
aa(lp69
V0020601007
p70
aVMAR 21, 2007
p71
aVORL @ TOR
p72
aVL
p73
aI44
aI6
aI8
aF0.75
aI0
aI0
aF0.0
aI5
aI13
aF0.385
aI1
aI11
aI12
aI3
aI0
aI3
aI3
aI3
aI17
aI-8
aa(lp74
V0020600991
p75
aVMAR 18, 2007
p76
aVORL @ MIA
p77
aVW
p78
aI34
aI6
aI6
aF1.0
aI0
aI0
aF0.0
aI5
aI10
aF0.5
aI4
aI7
aI11
aI0
aI0
aI1
aI5
aI4
aI17
aI9
aa(lp79
V0020600980
p80
aVMAR 17, 2007
p81
aVORL vs. SAC
p82
aVL
p83
aI40
aI2
aI10
aF0.2
aI0
aI0
aF0.0
aI2
aI4
aF0.5
aI2
aI10
aI12
aI3
aI0
aI2
aI5
aI2
aI6
aI-12
aa(lp84
V0020600960
p85
aVMAR 14, 2007
p86
aVORL vs. UTA
p87
aVW
p88
aI44
aI13
aI16
aF0.813
aI0
aI0
aF0.0
aI5
aI7
aF0.714
aI5
aI10
aI15
aI2
aI0
aI2
aI3
aI3
aI31
aI10
aa(lp89
V0020600943
p90
aVMAR 12, 2007
p91
aVORL @ CHA
p92
aVL
p93
aI47
aI8
aI11
aF0.727
aI0
aI0
aF0.0
aI10
aI19
aF0.526
aI4
aI7
aI11
aI4
aI1
aI2
aI1
aI1
aI26
aI-11
aa(lp94
V0020600937
p95
aVMAR 11, 2007
p96
aVORL @ HOU
p97
aVL
p98
aI32
aI6
aI12
aF0.5
aI0
aI0
aF0.0
aI4
aI5
aF0.8
aI3
aI9
aI12
aI3
aI2
aI1
aI2
aI2
aI16
aI-13
aa(lp99
V0020600917
p100
aVMAR 08, 2007
p101
aVORL vs. CHI
p102
aVL
p103
aI37
aI6
aI11
aF0.545
aI0
aI0
aF0.0
aI5
aI14
aF0.357
aI7
aI7
aI14
aI2
aI1
aI2
aI4
aI5
aI17
aI-14
aa(lp104
V0020600894
p105
aVMAR 05, 2007
p106
aVORL vs. MIL
p107
aVW
p108
aI26
aI4
aI5
aF0.8
aI0
aI0
aF0.0
aI2
aI2
aF1.0
aI0
aI9
aI9
aI2
aI1
aI2
aI5
aI4
aI10
aI19
aa(lp109
V0020600884
p110
aVMAR 03, 2007
p111
aVORL @ DAL
p112
aVL
p113
aI41
aI9
aI14
aF0.643
aI0
aI0
aF0.0
aI7
aI11
aF0.636
aI4
aI6
aI10
aI4
aI0
aI4
aI1
aI3
aI25
aI-11
aa(lp114
V0020600873
p115
aVMAR 02, 2007
p116
aVORL @ SAS
p117
aVL
p118
aI34
aI4
aI8
aF0.5
aI0
aI0
aF0.0
aI1
aI4
aF0.25
aI3
aI6
aI9
aI0
aI1
aI1
aI2
aI4
aI9
aI-8
aa(lp119
V0020600862
p120
aVFEB 28, 2007
p121
aVORL @ DEN
p122
aVL
p123
aI33
aI9
aI14
aF0.643
aI0
aI1
aF0.0
aI5
aI7
aF0.714
aI4
aI8
aI12
aI3
aI2
aI1
aI4
aI4
aI23
aI-2
aa(lp124
V0020600844
p125
aVFEB 26, 2007
p126
aVORL @ CHI
p127
aVW
p128
aI38
aI7
aI10
aF0.7
aI0
aI0
aF0.0
aI7
aI9
aF0.778
aI8
aI8
aI16
aI1
aI1
aI2
aI11
aI4
aI21
aI16
aa(lp129
V0020600834
p130
aVFEB 25, 2007
p131
aVORL vs. HOU
p132
aVL
p133
aI41
aI7
aI14
aF0.5
aI0
aI0
aF0.0
aI4
aI8
aF0.5
aI7
aI9
aI16
aI3
aI2
aI4
aI4
aI3
aI18
aI-6
aa(lp134
V0020600816
p135
aVFEB 23, 2007
p136
aVORL vs. DET
p137
aVL
p138
aI44
aI7
aI12
aF0.583
aI0
aI0
aF0.0
aI6
aI9
aF0.667
aI3
aI10
aI13
aI3
aI0
aI1
aI4
aI4
aI20
aI-8
aa(lp139
V0020600805
p140
aVFEB 21, 2007
p141
aVORL @ DET
p142
aVL
p143
aI35
aI11
aI15
aF0.733
aI0
aI0
aF0.0
aI4
aI9
aF0.444
aI7
aI8
aI15
aI1
aI2
aI1
aI6
aI2
aI26
aI-8
aa(lp144
V0020600792
p145
aVFEB 20, 2007
p146
aVORL @ NYK
p147
aVL
p148
aI42
aI9
aI13
aF0.692
aI0
aI0
aF0.0
aI9
aI13
aF0.692
aI5
aI9
aI14
aI0
aI3
aI3
aI4
aI2
aI27
aI-4
aa(lp149
V0020600778
p150
aVFEB 14, 2007
p151
aVORL vs. POR
p152
aVW
p153
aI36
aI8
aI12
aF0.667
aI0
aI0
aF0.0
aI4
aI4
aF1.0
aI2
aI14
aI16
aI2
aI1
aI2
aI4
aI1
aI20
aI17
aa(lp154
V0020600749
p155
aVFEB 10, 2007
p156
aVORL @ NJN
p157
aVL
p158
aI41
aI11
aI15
aF0.733
aI0
aI0
aF0.0
aI3
aI5
aF0.6
aI3
aI9
aI12
aI1
aI0
aI4
aI7
aI2
aI25
aI-4
aa(lp159
V0020600741
p160
aVFEB 09, 2007
p161
aVORL vs. SAS
p162
aVW
p163
aI43
aI11
aI14
aF0.786
aI0
aI0
aF0.0
aI8
aI12
aF0.667
aI1
aI7
aI8
aI3
aI4
aI3
aI4
aI3
aI30
aI4
aa(lp164
V0020600725
p165
aVFEB 07, 2007
p166
aVORL @ TOR
p167
aVL
p168
aI42
aI13
aI14
aF0.929
aI0
aI0
aF0.0
aI6
aI8
aF0.75
aI3
aI6
aI9
aI4
aI0
aI2
aI5
aI5
aI32
aI-4
aa(lp169
V0020600722
p170
aVFEB 06, 2007
p171
aVORL @ MIL
p172
aVL
p173
aI35
aI9
aI9
aF1.0
aI0
aI0
aF0.0
aI3
aI7
aF0.429
aI1
aI10
aI11
aI2
aI1
aI1
aI4
aI4
aI21
aI-1
aa(lp174
V0020600701
p175
aVFEB 03, 2007
p176
aVORL vs. NYK
p177
aVL
p178
aI34
aI6
aI11
aF0.545
aI0
aI0
aF0.0
aI3
aI4
aF0.75
aI5
aI6
aI11
aI0
aI0
aI0
aI2
aI5
aI15
aI-6
aa(lp179
V0020600690
p180
aVFEB 02, 2007
p181
aVORL vs. NJN
p182
aVW
p183
aI29
aI8
aI11
aF0.727
aI0
aI0
aF0.0
aI3
aI4
aF0.75
aI2
aI7
aI9
aI0
aI0
aI0
aI2
aI3
aI19
aI26
aa(lp184
V0020600677
p185
aVJAN 31, 2007
p186
aVORL vs. MIL
p187
aVW
p188
aI21
aI2
aI2
aF1.0
aI0
aI0
aF0.0
aI2
aI8
aF0.25
aI2
aI5
aI7
aI1
aI1
aI2
aI5
aI5
aI6
aI3
aa(lp189
V0020600661
p190
aVJAN 29, 2007
p191
aVORL @ ATL
p192
aVL
p193
aI37
aI5
aI11
aF0.455
aI0
aI0
aF0.0
aI5
aI6
aF0.833
aI1
aI6
aI7
aI1
aI0
aI1
aI3
aI1
aI15
aI-7
aa(lp194
V0020600636
p195
aVJAN 26, 2007
p196
aVORL vs. ATL
p197
aVL
p198
aI39
aI5
aI10
aF0.5
aI0
aI0
aF0.0
aI9
aI18
aF0.5
aI0
aI4
aI4
aI2
aI0
aI1
aI3
aI4
aI19
aI-9
aa(lp199
V0020600617
p200
aVJAN 23, 2007
p201
aVORL vs. DAL
p202
aVL
p203
aI35
aI4
aI10
aF0.4
aI0
aI0
aF0.0
aI7
aI14
aF0.5
aI4
aI10
aI14
aI1
aI0
aI1
aI3
aI3
aI15
aI-16
aa(lp204
V0020600607
p205
aVJAN 22, 2007
p206
aVORL @ CLE
p207
aVW
p208
aI34
aI7
aI10
aF0.7
aI0
aI0
aF0.0
aI4
aI8
aF0.5
aI3
aI10
aI13
aI2
aI0
aI2
aI5
aI4
aI18
aI2
aa(lp209
V0020600597
p210
aVJAN 20, 2007
p211
aVORL @ NJN
p212
aVL
p213
aI25
aI0
aI6
aF0.0
aI0
aI0
aF0.0
aI1
aI2
aF0.5
aI1
aI5
aI6
aI1
aI0
aI2
aI5
aI6
aI1
aI-14
aa(lp214
V0020600583
p215
aVJAN 19, 2007
p216
aVORL vs. WAS
p217
aVL
p218
aI39
aI8
aI9
aF0.889
aI0
aI0
aF0.0
aI4
aI6
aF0.667
aI3
aI10
aI13
aI3
aI0
aI1
aI4
aI2
aI20
aI-15
aa(lp219
V0020600565
p220
aVJAN 16, 2007
p221
aVORL @ NOK
p222
aVL
p223
aI38
aI6
aI13
aF0.462
aI0
aI0
aF0.0
aI5
aI9
aF0.556
aI4
aI11
aI15
aI3
aI1
aI1
aI2
aI2
aI17
aI-9
aa(lp224
V0020600549
p225
aVJAN 13, 2007
p226
aVORL @ PHX
p227
aVL
p228
aI29
aI5
aI12
aF0.417
aI0
aI0
aF0.0
aI0
aI2
aF0.0
aI3
aI2
aI5
aI1
aI0
aI4
aI3
aI3
aI10
aI-17
aa(lp229
V0020600539
p230
aVJAN 12, 2007
p231
aVORL @ LAL
p232
aVL
p233
aI36
aI9
aI14
aF0.643
aI0
aI0
aF0.0
aI7
aI16
aF0.438
aI3
aI7
aI10
aI3
aI0
aI2
aI5
aI5
aI25
aI-7
aa(lp234
V0020600527
p235
aVJAN 10, 2007
p236
aVORL @ GSW
p237
aVW
p238
aI45
aI11
aI18
aF0.611
aI0
aI0
aF0.0
aI8
aI15
aF0.533
aI9
aI16
aI25
aI0
aI2
aI1
aI5
aI4
aI30
aI14
aa(lp239
V0020600501
p240
aVJAN 07, 2007
p241
aVORL vs. BOS
p242
aVW
p243
aI37
aI5
aI13
aF0.385
aI0
aI0
aF0.0
aI8
aI12
aF0.667
aI0
aI12
aI12
aI0
aI1
aI0
aI5
aI4
aI18
aI5
aa(lp244
V0020600481
p245
aVJAN 05, 2007
p246
aVORL vs. CHA
p247
aVW
p248
aI34
aI8
aI10
aF0.8
aI1
aI1
aF1.0
aI5
aI9
aF0.556
aI1
aI11
aI12
aI0
aI3
aI4
aI4
aI2
aI22
aI20
aa(lp249
V0020600460
p250
aVJAN 02, 2007
p251
aVORL vs. LAC
p252
aVW
p253
aI37
aI6
aI10
aF0.6
aI0
aI0
aF0.0
aI2
aI3
aF0.667
aI7
aI7
aI14
aI5
aI1
aI2
aI6
aI1
aI14
aI6
aa(lp254
V0020600442
p255
aVDEC 30, 2006
p256
aVORL vs. MIA
p257
aVW
p258
aI30
aI5
aI8
aF0.625
aI0
aI0
aF0.0
aI8
aI9
aF0.889
aI3
aI7
aI10
aI2
aI0
aI2
aI1
aI2
aI18
aI12
aa(lp259
V0020600430
p260
aVDEC 29, 2006
p261
aVORL @ WAS
p262
aVL
p263
aI40
aI9
aI17
aF0.529
aI0
aI0
aF0.0
aI2
aI4
aF0.5
aI2
aI10
aI12
aI4
aI1
aI0
aI5
aI5
aI20
aI-6
aa(lp264
V0020600418
p265
aVDEC 27, 2006
p266
aVORL vs. LAL
p267
aVL
p268
aI37
aI4
aI10
aF0.4
aI0
aI0
aF0.0
aI4
aI5
aF0.8
aI2
aI6
aI8
aI1
aI1
aI1
aI3
aI3
aI12
aI-10
aa(lp269
V0020600396
p270
aVDEC 23, 2006
p271
aVORL @ CLE
p272
aVL
p273
aI31
aI6
aI15
aF0.4
aI0
aI0
aF0.0
aI5
aI7
aF0.714
aI4
aI9
aI13
aI1
aI1
aI1
aI3
aI2
aI17
aI0
aa(lp274
V0020600380
p275
aVDEC 22, 2006
p276
aVORL vs. GSW
p277
aVL
p278
aI40
aI4
aI8
aF0.5
aI0
aI0
aF0.0
aI7
aI8
aF0.875
aI3
aI10
aI13
aI2
aI1
aI5
aI1
aI3
aI15
aI-3
aa(lp279
V0020600366
p280
aVDEC 20, 2006
p281
aVORL vs. NOK
p282
aVW
p283
aI34
aI6
aI7
aF0.857
aI0
aI0
aF0.0
aI4
aI5
aF0.8
aI3
aI10
aI13
aI3
aI1
aI2
aI4
aI4
aI16
aI5
aa(lp284
V0020600343
p285
aVDEC 16, 2006
p286
aVORL vs. CLE
p287
aVW
p288
aI39
aI5
aI11
aF0.455
aI0
aI0
aF0.0
aI4
aI6
aF0.667
aI4
aI12
aI16
aI1
aI2
aI5
aI6
aI4
aI14
aI3
aa(lp289
V0020600326
p290
aVDEC 14, 2006
p291
aVORL @ CHA
p292
aVL
p293
aI37
aI4
aI7
aF0.571
aI0
aI0
aF0.0
aI2
aI8
aF0.25
aI3
aI9
aI12
aI3
aI1
aI3
aI6
aI3
aI10
aI-4
aa(lp294
V0020600315
p295
aVDEC 13, 2006
p296
aVORL vs. TOR
p297
aVL
p298
aI35
aI6
aI17
aF0.353
aI0
aI0
aF0.0
aI5
aI8
aF0.625
aI8
aI5
aI13
aI3
aI2
aI0
aI2
aI4
aI17
aI-20
aa(lp299
V0020600301
p300
aVDEC 11, 2006
p301
aVORL vs. PHX
p302
aVL
p303
aI19
aI2
aI6
aF0.333
aI0
aI0
aF0.0
aI0
aI0
aF0.0
aI0
aI3
aI3
aI2
aI0
aI0
aI5
aI6
aI4
aI-5
aa(lp304
V0020600287
p305
aVDEC 09, 2006
p306
aVORL vs. PHI
p307
aVW
p308
aI43
aI12
aI17
aF0.706
aI0
aI0
aF0.0
aI4
aI6
aF0.667
aI5
aI7
aI12
aI0
aI2
aI0
aI1
aI3
aI28
aI6
aa(lp309
V0020600275
p310
aVDEC 08, 2006
p311
aVORL vs. DET
p312
aVL
p313
aI9
aI7
aI13
aF0.538
aI0
aI0
aF0.0
aI11
aI13
aF0.846
aI3
aI7
aI10
aI0
aI3
aI1
aI5
aI2
aI25
aI-11
aa(lp314
V0020600263
p315
aVDEC 06, 2006
p316
aVORL @ IND
p317
aVL
p318
aI40
aI9
aI13
aF0.692
aI0
aI0
aF0.0
aI2
aI5
aF0.4
aI1
aI7
aI8
aI3
aI0
aI3
aI4
aI2
aI20
aI-13
aa(lp319
V0020600253
p320
aVDEC 04, 2006
p321
aVORL @ SAC
p322
aVW
p323
aI39
aI7
aI9
aF0.778
aI0
aI0
aF0.0
aI4
aI8
aF0.5
aI2
aI14
aI16
aI0
aI1
aI1
aI4
aI2
aI18
aI3
aa(lp324
V0020600247
p325
aVDEC 03, 2006
p326
aVORL @ LAC
p327
aVL
p328
aI36
aI5
aI7
aF0.714
aI0
aI0
aF0.0
aI6
aI10
aF0.6
aI1
aI6
aI7
aI2
aI0
aI2
aI1
aI4
aI16
aI-10
aa(lp329
V0020600232
p330
aVDEC 01, 2006
p331
aVORL @ POR
p332
aVW
p333
aI41
aI8
aI11
aF0.727
aI0
aI0
aF0.0
aI2
aI3
aF0.667
aI4
aI12
aI16
aI1
aI0
aI4
aI1
aI0
aI18
aI2
aa(lp334
V0020600219
p335
aVNOV 29, 2006
p336
aVORL @ SEA
p337
aVW
p338
aI31
aI8
aI8
aF1.0
aI0
aI0
aF0.0
aI8
aI12
aF0.667
aI4
aI8
aI12
aI0
aI0
aI4
aI4
aI3
aI24
aI2
aa(lp339
V0020600202
p340
aVNOV 27, 2006
p341
aVORL @ UTA
p342
aVW
p343
aI39
aI4
aI11
aF0.364
aI0
aI0
aF0.0
aI13
aI16
aF0.813
aI3
aI13
aI16
aI2
aI0
aI1
aI2
aI2
aI21
aI2
aa(lp344
V0020600186
p345
aVNOV 25, 2006
p346
aVORL vs. ATL
p347
aVW
p348
aI33
aI4
aI6
aF0.667
aI0
aI0
aF0.0
aI3
aI5
aF0.6
aI2
aI9
aI11
aI3
aI1
aI3
aI5
aI6
aI11
aI19
aa(lp349
V0020600174
p350
aVNOV 24, 2006
p351
aVORL @ MIA
p352
aVW
p353
aI38
aI6
aI19
aF0.316
aI0
aI0
aF0.0
aI11
aI15
aF0.733
aI4
aI8
aI12
aI2
aI0
aI1
aI2
aI3
aI23
aI2
aa(lp354
V0020600160
p355
aVNOV 22, 2006
p356
aVORL vs. IND
p357
aVW
p358
aI38
aI7
aI12
aF0.583
aI0
aI0
aF0.0
aI2
aI6
aF0.333
aI4
aI7
aI11
aI1
aI0
aI1
aI5
aI5
aI16
aI9
aa(lp359
V0020600146
p360
aVNOV 20, 2006
p361
aVORL @ MEM
p362
aVL
p363
aI41
aI9
aI12
aF0.75
aI0
aI0
aF0.0
aI6
aI8
aF0.75
aI8
aI15
aI23
aI1
aI1
aI1
aI3
aI0
aI24
aI-3
aa(lp364
V0020600131
p365
aVNOV 18, 2006
p366
aVORL vs. CHA
p367
aVW
p368
aI30
aI7
aI12
aF0.583
aI0
aI0
aF0.0
aI10
aI13
aF0.769
aI6
aI15
aI21
aI2
aI1
aI0
aI1
aI2
aI24
aI6
aa(lp369
V0020600108
p370
aVNOV 15, 2006
p371
aVORL vs. DEN
p372
aVW
p373
aI40
aI2
aI5
aF0.4
aI0
aI0
aF0.0
aI5
aI8
aF0.625
aI4
aI4
aI8
aI0
aI1
aI2
aI2
aI1
aI9
aI4
aa(lp374
V0020600097
p375
aVNOV 13, 2006
p376
aVORL @ BOS
p377
aVW
p378
aI39
aI5
aI8
aF0.625
aI0
aI0
aF0.0
aI7
aI11
aF0.636
aI2
aI13
aI15
aI4
aI0
aI3
aI3
aI2
aI17
aI8
aa(lp379
V0020600085
p380
aVNOV 11, 2006
p381
aVORL @ MIN
p382
aVW
p383
aI38
aI10
aI16
aF0.625
aI0
aI0
aF0.0
aI1
aI3
aF0.333
aI7
aI15
aI22
aI1
aI0
aI1
aI0
aI1
aI21
aI6
aa(lp384
V0020600076
p385
aVNOV 10, 2006
p386
aVORL @ IND
p387
aVL
p388
aI42
aI7
aI12
aF0.583
aI0
aI0
aF0.0
aI3
aI7
aF0.429
aI4
aI10
aI14
aI1
aI1
aI3
aI8
aI4
aI17
aI-4
aa(lp389
V0020600060
p390
aVNOV 08, 2006
p391
aVORL vs. SEA
p392
aVW
p393
aI8
aI3
aI5
aF0.6
aI0
aI0
aF0.0
aI2
aI2
aF1.0
aI2
aI8
aI10
aI4
aI2
aI0
aI5
aI4
aI8
aI6
aa(lp394
V0020600045
p395
aVNOV 06, 2006
p396
aVORL vs. WAS
p397
aVW
p398
aI35
aI2
aI6
aF0.333
aI0
aI0
aF0.0
aI3
aI5
aF0.6
aI6
aI8
aI14
aI1
aI0
aI5
aI2
aI1
aI7
aI1
aa(lp399
V0020600042
p400
aVNOV 05, 2006
p401
aVORL @ ATL
p402
aVL
p403
aI25
aI3
aI5
aF0.6
aI0
aI0
aF0.0
aI5
aI8
aF0.625
aI3
aI5
aI8
aI0
aI1
aI2
aI5
aI5
aI11
aI2
aa(lp404
V0020600019
p405
aVNOV 03, 2006
p406
aVORL vs. PHI
p407
aVL
p408
aI35
aI5
aI9
aF0.556
aI0
aI0
aF0.0
aI4
aI9
aF0.444
aI3
aI6
aI9
aI2
aI0
aI2
aI6
aI3
aI14
aI-6
aa(lp409
V0020600005
p410
aVNOV 01, 2006
p411
aVORL vs. CHI
p412
aVW
p413
aI33
aI9
aI12
aF0.75
aI0
aI0
aF0.0
aI9
aI10
aF0.9
aI2
aI9
aI11
aI3
aI1
aI2
aI4
aI3
aI27
aI14
aasS'name'
p414
VDwight Howard
p415
sS'experience'
p416
I2
s.