(dp0
S'age'
p1
I21
sS'stats'
p2
(lp3
(lp4
V0020600001
p5
aVOCT 31, 2006
p6
aVMIA vs. CHI
p7
aVL
p8
aI8
aI1
aI4
aF0.25
aI0
aI0
aF0.0
aI0
aI0
aF0.0
aI0
aI2
aI2
aI0
aI0
aI0
aI1
aI1
aI2
aI-12
aa(lp9
V0020600023
p10
aVNOV 03, 2006
p11
aVMIA vs. NJN
p12
aVW
p13
aI16
aI1
aI5
aF0.2
aI0
aI2
aF0.0
aI0
aI0
aF0.0
aI0
aI5
aI5
aI1
aI1
aI0
aI2
aI3
aI2
aI-5
aa(lp14
V0020600041
p15
aVNOV 05, 2006
p16
aVMIA @ PHI
p17
aVL
p18
aI30
aI5
aI7
aF0.714
aI2
aI3
aF0.667
aI3
aI4
aF0.75
aI0
aI9
aI9
aI3
aI2
aI1
aI0
aI5
aI15
aI-6
aa(lp19
V0020600054
p20
aVNOV 07, 2006
p21
aVMIA vs. SEA
p22
aVW
p23
aI27
aI3
aI6
aF0.5
aI0
aI2
aF0.0
aI3
aI3
aF1.0
aI0
aI5
aI5
aI6
aI1
aI2
aI1
aI3
aI9
aI12
aa(lp24
V0020600078
p25
aVNOV 10, 2006
p26
aVMIA @ NJN
p27
aVW
p28
aI14
aI0
aI5
aF0.0
aI0
aI1
aF0.0
aI0
aI0
aF0.0
aI0
aI1
aI1
aI0
aI0
aI1
aI0
aI0
aI0
aI-18
aa(lp29
V0020600093
p30
aVNOV 12, 2006
p31
aVMIA vs. HOU
p32
aVL
p33
aI9
aI0
aI1
aF0.0
aI0
aI1
aF0.0
aI0
aI0
aF0.0
aI0
aI0
aI0
aI1
aI1
aI0
aI0
aI1
aI0
aI0
aa(lp34
V0020600101
p35
aVNOV 14, 2006
p36
aVMIA vs. DEN
p37
aVL
p38
aI36
aI5
aI11
aF0.455
aI2
aI5
aF0.4
aI1
aI1
aF1.0
aI0
aI0
aI0
aI3
aI0
aI4
aI2
aI2
aI13
aI3
aa(lp39
V0020600121
p40
aVNOV 17, 2006
p41
aVMIA vs. NYK
p42
aVL
p43
aI22
aI1
aI8
aF0.125
aI0
aI1
aF0.0
aI0
aI0
aF0.0
aI0
aI5
aI5
aI0
aI1
aI0
aI1
aI0
aI2
aI-5
aa(lp44
V0020600130
p45
aVNOV 18, 2006
p46
aVMIA @ ATL
p47
aVW
p48
aI19
aI1
aI5
aF0.2
aI0
aI1
aF0.0
aI0
aI0
aF0.0
aI0
aI10
aI10
aI0
aI1
aI0
aI0
aI4
aI2
aI4
aa(lp49
V0020600154
p50
aVNOV 21, 2006
p51
aVMIA @ NOK
p52
aVL
p53
aI38
aI5
aI12
aF0.417
aI0
aI4
aF0.0
aI0
aI1
aF0.0
aI2
aI10
aI12
aI3
aI0
aI0
aI2
aI2
aI10
aI-10
aa(lp54
V0020600162
p55
aVNOV 22, 2006
p56
aVMIA @ SAS
p57
aVL
p58
aI26
aI2
aI5
aF0.4
aI0
aI0
aF0.0
aI0
aI0
aF0.0
aI0
aI7
aI7
aI0
aI0
aI1
aI2
aI1
aI4
aI-8
aa(lp59
V0020600174
p60
aVNOV 24, 2006
p61
aVMIA vs. ORL
p62
aVL
p63
aI37
aI5
aI12
aF0.417
aI0
aI0
aF0.0
aI2
aI2
aF1.0
aI2
aI11
aI13
aI3
aI0
aI0
aI0
aI3
aI12
aI6
aa(lp64
V0020600185
p65
aVNOV 25, 2006
p66
aVMIA @ CHA
p67
aVW
p68
aI41
aI2
aI4
aF0.5
aI0
aI1
aF0.0
aI2
aI2
aF1.0
aI1
aI13
aI14
aI2
aI1
aI0
aI1
aI5
aI6
aI15
aa(lp69
V0020600200
p70
aVNOV 27, 2006
p71
aVMIA vs. PHI
p72
aVW
p73
aI31
aI4
aI6
aF0.667
aI0
aI1
aF0.0
aI0
aI0
aF0.0
aI1
aI6
aI7
aI2
aI3
aI1
aI2
aI1
aI8
aI-2
aa(lp74
V0020600222
p75
aVNOV 30, 2006
p76
aVMIA vs. DET
p77
aVL
p78
aI31
aI5
aI8
aF0.625
aI0
aI0
aF0.0
aI1
aI2
aF0.5
aI3
aI4
aI7
aI3
aI2
aI0
aI0
aI2
aI11
aI4
aa(lp79
V0020600236
p80
aVDEC 02, 2006
p81
aVMIA @ MEM
p82
aVW
p83
aI32
aI6
aI9
aF0.667
aI0
aI0
aF0.0
aI2
aI2
aF1.0
aI1
aI3
aI4
aI2
aI0
aI1
aI1
aI3
aI14
aI-10
aa(lp84
V0020600260
p85
aVDEC 05, 2006
p86
aVMIA @ LAC
p87
aVL
p88
aI20
aI2
aI8
aF0.25
aI0
aI1
aF0.0
aI0
aI0
aF0.0
aI0
aI3
aI3
aI0
aI2
aI0
aI1
aI4
aI4
aI-5
aa(lp89
V0020600273
p90
aVDEC 07, 2006
p91
aVMIA @ SAC
p92
aVW
p93
aI15
aI0
aI1
aF0.0
aI0
aI0
aF0.0
aI0
aI0
aF0.0
aI0
aI1
aI1
aI2
aI0
aI0
aI1
aI2
aI0
aI3
aa(lp94
V0020600283
p95
aVDEC 08, 2006
p96
aVMIA @ DEN
p97
aVL
p98
aI39
aI5
aI12
aF0.417
aI0
aI0
aF0.0
aI1
aI1
aF1.0
aI3
aI2
aI5
aI2
aI0
aI1
aI0
aI3
aI11
aI-5
aa(lp99
V0020600304
p100
aVDEC 11, 2006
p101
aVMIA vs. TOR
p102
aVW
p103
aI13
aI1
aI5
aF0.2
aI0
aI0
aF0.0
aI0
aI0
aF0.0
aI0
aI1
aI1
aI0
aI0
aI0
aI0
aI1
aI2
aI-14
aa(lp104
V0020600316
p105
aVDEC 13, 2006
p106
aVMIA vs. PHX
p107
aVL
p108
aI33
aI5
aI12
aF0.417
aI0
aI1
aF0.0
aI0
aI0
aF0.0
aI1
aI5
aI6
aI3
aI0
aI0
aI3
aI2
aI10
aI-25
aa(lp109
V0020600330
p110
aVDEC 15, 2006
p111
aVMIA @ WAS
p112
aVL
p113
aI31
aI1
aI9
aF0.111
aI0
aI0
aF0.0
aI0
aI0
aF0.0
aI3
aI4
aI7
aI2
aI1
aI0
aI2
aI0
aI2
aI-10
aa(lp114
V0020600345
p115
aVDEC 16, 2006
p116
aVMIA vs. MEM
p117
aVW
p118
aI39
aI5
aI8
aF0.625
aI0
aI1
aF0.0
aI0
aI0
aF0.0
aI5
aI11
aI16
aI3
aI1
aI2
aI1
aI4
aI10
aI8
aa(lp119
V0020600358
p120
aVDEC 18, 2006
p121
aVMIA vs. NOK
p122
aVW
p123
aI15
aI3
aI7
aF0.429
aI0
aI1
aF0.0
aI0
aI0
aF0.0
aI0
aI2
aI2
aI3
aI0
aI2
aI0
aI2
aI6
aI-2
aa(lp124
V0020600370
p125
aVDEC 20, 2006
p126
aVMIA @ MIL
p127
aVL
p128
aI22
aI5
aI8
aF0.625
aI0
aI0
aF0.0
aI4
aI4
aF1.0
aI0
aI5
aI5
aI0
aI0
aI1
aI2
aI0
aI14
aI-19
aa(lp129
V0020600394
p130
aVDEC 23, 2006
p131
aVMIA vs. GSW
p132
aVW
p133
aI18
aI0
aI7
aF0.0
aI0
aI0
aF0.0
aI2
aI2
aF1.0
aI0
aI8
aI8
aI1
aI1
aI0
aI2
aI0
aI2
aI-7
aa(lp134
V0020600403
p135
aVDEC 25, 2006
p136
aVMIA vs. LAL
p137
aVW
p138
aI20
aI5
aI9
aF0.556
aI0
aI0
aF0.0
aI0
aI0
aF0.0
aI0
aI3
aI3
aI2
aI0
aI2
aI0
aI4
aI10
aI4
aa(lp139
V0020600422
p140
aVDEC 27, 2006
p141
aVMIA @ CHI
p142
aVL
p143
aI43
aI6
aI12
aF0.5
aI0
aI0
aF0.0
aI5
aI10
aF0.5
aI2
aI12
aI14
aI4
aI1
aI1
aI2
aI2
aI17
aI3
aa(lp144
V0020600432
p145
aVDEC 29, 2006
p146
aVMIA vs. NJN
p147
aVL
p148
aI42
aI7
aI15
aF0.467
aI0
aI0
aF0.0
aI7
aI9
aF0.778
aI3
aI4
aI7
aI4
aI4
aI6
aI1
aI1
aI21
aI-8
aa(lp149
V0020600442
p150
aVDEC 30, 2006
p151
aVMIA @ ORL
p152
aVL
p153
aI32
aI5
aI9
aF0.556
aI0
aI0
aF0.0
aI2
aI2
aF1.0
aI1
aI4
aI5
aI2
aI2
aI2
aI2
aI4
aI12
aI-19
aa(lp154
V0020600470
p155
aVJAN 03, 2007
p156
aVMIA vs. LAC
p157
aVL
p158
aI21
aI3
aI3
aF1.0
aI0
aI0
aF0.0
aI0
aI0
aF0.0
aI1
aI4
aI5
aI0
aI2
aI0
aI1
aI1
aI6
aI-21
aa(lp159
V0020600488
p160
aVJAN 05, 2007
p161
aVMIA @ PHX
p162
aVL
p163
aI22
aI4
aI8
aF0.5
aI0
aI1
aF0.0
aI2
aI2
aF1.0
aI0
aI4
aI4
aI0
aI0
aI0
aI4
aI1
aI10
aI-18
aa(lp164
V0020600503
p165
aVJAN 07, 2007
p166
aVMIA @ POR
p167
aVW
p168
aI30
aI4
aI6
aF0.667
aI0
aI0
aF0.0
aI4
aI6
aF0.667
aI0
aI2
aI2
aI2
aI0
aI1
aI0
aI3
aI12
aI9
aa(lp169
V0020600526
p170
aVJAN 10, 2007
p171
aVMIA @ SEA
p172
aVW
p173
aI8
aI0
aI2
aF0.0
aI0
aI0
aF0.0
aI0
aI0
aF0.0
aI0
aI3
aI3
aI2
aI1
aI0
aI0
aI0
aI0
aI5
aa(lp174
V0020600540
p175
aVJAN 12, 2007
p176
aVMIA @ GSW
p177
aVW
p178
aI14
aI2
aI4
aF0.5
aI0
aI1
aF0.0
aI0
aI0
aF0.0
aI0
aI1
aI1
aI2
aI0
aI0
aI1
aI1
aI4
aI0
aa(lp179
V0020600548
p180
aVJAN 13, 2007
p181
aVMIA @ UTA
p182
aVW
p183
aI12
aI1
aI2
aF0.5
aI0
aI0
aF0.0
aI1
aI2
aF0.5
aI0
aI0
aI0
aI1
aI0
aI0
aI4
aI1
aI3
aI-6
aa(lp184
V0020600564
p185
aVJAN 15, 2007
p186
aVMIA @ LAL
p187
aVL
p188
aI4
aI1
aI1
aF1.0
aI0
aI0
aF0.0
aI0
aI0
aF0.0
aI0
aI0
aI0
aI0
aI0
aI0
aI0
aI0
aI2
aI-5
aa(lp189
V0020600579
p190
aVJAN 18, 2007
p191
aVMIA vs. IND
p192
aVW
p193
aI7
aI3
aI3
aF1.0
aI0
aI0
aF0.0
aI0
aI0
aF0.0
aI0
aI1
aI1
aI0
aI0
aI0
aI0
aI1
aI6
aI3
aa(lp194
V0020600582
p195
aVJAN 19, 2007
p196
aVMIA @ PHI
p197
aVL
p198
aI32
aI5
aI11
aF0.455
aI0
aI1
aF0.0
aI1
aI3
aF0.333
aI3
aI2
aI5
aI5
aI0
aI1
aI1
aI2
aI11
aI10
aa(lp199
V0020600602
p200
aVJAN 21, 2007
p201
aVMIA vs. DAL
p202
aVL
p203
aI3
aI0
aI0
aF0.0
aI0
aI0
aF0.0
aI0
aI0
aF0.0
aI0
aI2
aI2
aI0
aI0
aI0
aI2
aI0
aI0
aI-7
aa(lp204
V0020600610
p205
aVJAN 22, 2007
p206
aVMIA vs. NYK
p207
aVW
p208
aI8
aI1
aI2
aF0.5
aI0
aI0
aF0.0
aI0
aI0
aF0.0
aI0
aI2
aI2
aI0
aI1
aI0
aI0
aI1
aI2
aI-1
aa(lp209
V0020600637
p210
aVJAN 26, 2007
p211
aVMIA @ NYK
p212
aVL
p213
aI14
aI3
aI5
aF0.6
aI0
aI0
aF0.0
aI0
aI0
aF0.0
aI0
aI4
aI4
aI2
aI0
aI1
aI0
aI0
aI6
aI-2
aa(lp214
V0020600650
p215
aVJAN 27, 2007
p216
aVMIA @ CHI
p217
aVL
p218
aI11
aI3
aI7
aF0.429
aI0
aI0
aF0.0
aI0
aI0
aF0.0
aI1
aI0
aI1
aI0
aI0
aI0
aI1
aI4
aI6
aI-5
aa(lp219
V0020600672
p220
aVJAN 30, 2007
p221
aVMIA vs. MIL
p222
aVW
p223
aI18
aI3
aI5
aF0.6
aI0
aI1
aF0.0
aI1
aI2
aF0.5
aI0
aI2
aI2
aI1
aI2
aI2
aI1
aI2
aI7
aI9
aa(lp224
V0020600703
p225
aVFEB 03, 2007
p226
aVMIA @ MIL
p227
aVW
p228
aI2
aI0
aI1
aF0.0
aI0
aI0
aF0.0
aI0
aI0
aF0.0
aI0
aI1
aI1
aI0
aI0
aI0
aI0
aI0
aI0
aI0
aa(lp229
V0020600731
p230
aVFEB 07, 2007
p231
aVMIA @ BOS
p232
aVW
p233
aI2
aI0
aI0
aF0.0
aI0
aI0
aF0.0
aI0
aI0
aF0.0
aI0
aI0
aI0
aI0
aI0
aI0
aI0
aI0
aI0
aI-4
aa(lp234
V0020600744
p235
aVFEB 09, 2007
p236
aVMIA @ CLE
p237
aVL
p238
aI4
aI1
aI2
aF0.5
aI0
aI0
aF0.0
aI0
aI0
aF0.0
aI0
aI0
aI0
aI0
aI0
aI0
aI0
aI0
aI2
aI-5
aa(lp239
V0020600769
p240
aVFEB 13, 2007
p241
aVMIA vs. POR
p242
aVW
p243
aI1
aI0
aI0
aF0.0
aI0
aI0
aF0.0
aI0
aI0
aF0.0
aI0
aI0
aI0
aI0
aI0
aI0
aI0
aI0
aI0
aI0
aa(lp244
V0020600813
p245
aVFEB 22, 2007
p246
aVMIA @ DAL
p247
aVL
p248
aI13
aI4
aI6
aF0.667
aI0
aI0
aF0.0
aI5
aI6
aF0.833
aI0
aI2
aI2
aI1
aI1
aI1
aI0
aI2
aI13
aI16
aa(lp249
V0020600835
p250
aVFEB 25, 2007
p251
aVMIA vs. CLE
p252
aVW
p253
aI6
aI1
aI2
aF0.5
aI0
aI0
aF0.0
aI0
aI0
aF0.0
aI0
aI1
aI1
aI0
aI0
aI0
aI0
aI1
aI2
aI8
aa(lp254
V0020600841
p255
aVFEB 26, 2007
p256
aVMIA @ NYK
p257
aVL
p258
aI3
aI0
aI1
aF0.0
aI0
aI0
aF0.0
aI0
aI0
aF0.0
aI0
aI1
aI1
aI0
aI0
aI0
aI0
aI0
aI0
aI2
aa(lp259
V0020600911
p260
aVMAR 07, 2007
p261
aVMIA vs. CHI
p262
aVW
p263
aI4
aI1
aI2
aF0.5
aI0
aI0
aF0.0
aI0
aI0
aF0.0
aI0
aI0
aI0
aI0
aI0
aI0
aI0
aI1
aI2
aI1
aa(lp264
V0020600939
p265
aVMAR 11, 2007
p266
aVMIA vs. WAS
p267
aVW
p268
aI0
aI0
aI0
aF0.0
aI0
aI0
aF0.0
aI0
aI0
aF0.0
aI0
aI0
aI0
aI0
aI0
aI0
aI0
aI0
aI0
aI-3
aa(lp269
V0020600950
p270
aVMAR 13, 2007
p271
aVMIA vs. UTA
p272
aVW
p273
aI21
aI3
aI7
aF0.429
aI0
aI0
aF0.0
aI0
aI0
aF0.0
aI1
aI3
aI4
aI0
aI1
aI0
aI1
aI1
aI6
aI8
aa(lp274
V0020600974
p275
aVMAR 16, 2007
p276
aVMIA vs. SAC
p277
aVW
p278
aI16
aI2
aI3
aF0.667
aI0
aI0
aF0.0
aI0
aI0
aF0.0
aI0
aI4
aI4
aI2
aI0
aI3
aI2
aI4
aI4
aI-4
aa(lp279
V0020600991
p280
aVMAR 18, 2007
p281
aVMIA vs. ORL
p282
aVL
p283
aI29
aI4
aI11
aF0.364
aI0
aI1
aF0.0
aI0
aI0
aF0.0
aI2
aI6
aI8
aI1
aI2
aI2
aI1
aI2
aI8
aI-4
aa(lp284
V0020601008
p285
aVMAR 21, 2007
p286
aVMIA @ ATL
p287
aVW
p288
aI22
aI2
aI3
aF0.667
aI0
aI0
aF0.0
aI0
aI0
aF0.0
aI2
aI5
aI7
aI3
aI1
aI0
aI1
aI1
aI4
aI6
aa(lp289
V0020601023
p290
aVMAR 23, 2007
p291
aVMIA @ IND
p292
aVL
p293
aI29
aI3
aI9
aF0.333
aI0
aI1
aF0.0
aI2
aI3
aF0.667
aI1
aI4
aI5
aI3
aI2
aI0
aI0
aI2
aI8
aI-4
aa(lp294
V0020601033
p295
aVMAR 24, 2007
p296
aVMIA vs. PHI
p297
aVL
p298
aI18
aI1
aI2
aF0.5
aI0
aI0
aF0.0
aI0
aI0
aF0.0
aI0
aI2
aI2
aI2
aI0
aI2
aI1
aI3
aI2
aI-7
aa(lp299
V0020601047
p300
aVMAR 26, 2007
p301
aVMIA vs. ATL
p302
aVW
p303
aI20
aI1
aI3
aF0.333
aI0
aI0
aF0.0
aI5
aI6
aF0.833
aI0
aI2
aI2
aI4
aI1
aI1
aI2
aI3
aI7
aI5
aa(lp304
V0020601058
p305
aVMAR 28, 2007
p306
aVMIA @ TOR
p307
aVL
p308
aI19
aI1
aI6
aF0.167
aI0
aI1
aF0.0
aI0
aI0
aF0.0
aI0
aI3
aI3
aI0
aI0
aI2
aI1
aI4
aI2
aI-13
aa(lp309
V0020601078
p310
aVMAR 30, 2007
p311
aVMIA @ MIN
p312
aVW
p313
aI1
aI0
aI0
aF0.0
aI0
aI0
aF0.0
aI0
aI0
aF0.0
aI0
aI0
aI0
aI1
aI0
aI0
aI1
aI0
aI0
aI2
aa(lp314
V0020601159
p315
aVAPR 10, 2007
p316
aVMIA @ CHA
p317
aVL
p318
aI17
aI3
aI7
aF0.429
aI0
aI0
aF0.0
aI1
aI2
aF0.5
aI0
aI4
aI4
aI1
aI0
aI1
aI0
aI0
aI7
aI9
aa(lp319
V0020601165
p320
aVAPR 11, 2007
p321
aVMIA vs. WAS
p322
aVW
p323
aI15
aI0
aI1
aF0.0
aI0
aI0
aF0.0
aI2
aI2
aF1.0
aI0
aI2
aI2
aI0
aI1
aI0
aI3
aI1
aI2
aI-7
aa(lp324
V0020601204
p325
aVAPR 16, 2007
p326
aVMIA vs. BOS
p327
aVL
p328
aI7
aI0
aI0
aF0.0
aI0
aI0
aF0.0
aI1
aI2
aF0.5
aI0
aI2
aI2
aI1
aI1
aI0
aI0
aI1
aI1
aI0
aa(lp329
V0020601219
p330
aVAPR 18, 2007
p331
aVMIA @ ORL
p332
aVL
p333
aI35
aI6
aI9
aF0.667
aI1
aI1
aF1.0
aI4
aI5
aF0.8
aI1
aI7
aI8
aI4
aI0
aI1
aI5
aI4
aI17
aI-9
aasS'name'
p334
VDorell Wright
p335
sS'experience'
p336
I2
s.