(dp0
S'age'
p1
I25
sS'stats'
p2
(lp3
(lp4
V0020600154
p5
aVNOV 21, 2006
p6
aVMIA @ NOK
p7
aVL
p8
aI3
aI1
aI7
aF0.143
aI0
aI0
aF0.0
aI2
aI2
aF1.0
aI3
aI0
aI3
aI0
aI0
aI0
aI0
aI0
aI4
aI1
aa(lp9
V0020600162
p10
aVNOV 22, 2006
p11
aVMIA @ SAS
p12
aVL
p13
aI20
aI6
aI9
aF0.667
aI0
aI0
aF0.0
aI3
aI3
aF1.0
aI2
aI4
aI6
aI1
aI0
aI0
aI1
aI2
aI15
aI0
aa(lp14
V0020600174
p15
aVNOV 24, 2006
p16
aVMIA vs. ORL
p17
aVL
p18
aI11
aI1
aI4
aF0.25
aI0
aI0
aF0.0
aI0
aI0
aF0.0
aI2
aI3
aI5
aI0
aI0
aI0
aI0
aI0
aI2
aI-17
aa(lp19
V0020600283
p20
aVDEC 08, 2006
p21
aVMIA @ DEN
p22
aVL
p23
aI14
aI3
aI7
aF0.429
aI0
aI0
aF0.0
aI1
aI2
aF0.5
aI3
aI0
aI3
aI0
aI0
aI0
aI2
aI2
aI7
aI8
aa(lp24
V0020600304
p25
aVDEC 11, 2006
p26
aVMIA vs. TOR
p27
aVW
p28
aI2
aI0
aI1
aF0.0
aI0
aI0
aF0.0
aI0
aI0
aF0.0
aI0
aI0
aI0
aI0
aI0
aI0
aI0
aI0
aI0
aI2
aa(lp29
V0020600316
p30
aVDEC 13, 2006
p31
aVMIA vs. PHX
p32
aVL
p33
aI3
aI0
aI1
aF0.0
aI0
aI0
aF0.0
aI0
aI0
aF0.0
aI0
aI0
aI0
aI0
aI0
aI1
aI0
aI0
aI0
aI1
aa(lp34
V0020600330
p35
aVDEC 15, 2006
p36
aVMIA @ WAS
p37
aVL
p38
aI1
aI0
aI0
aF0.0
aI0
aI0
aF0.0
aI0
aI0
aF0.0
aI0
aI1
aI1
aI0
aI0
aI0
aI0
aI0
aI0
aI3
aa(lp39
V0020600370
p40
aVDEC 20, 2006
p41
aVMIA @ MIL
p42
aVL
p43
aI4
aI1
aI1
aF1.0
aI0
aI0
aF0.0
aI2
aI2
aF1.0
aI0
aI1
aI1
aI0
aI0
aI0
aI0
aI0
aI4
aI2
aa(lp44
V0020600394
p45
aVDEC 23, 2006
p46
aVMIA vs. GSW
p47
aVW
p48
aI3
aI0
aI1
aF0.0
aI0
aI0
aF0.0
aI0
aI0
aF0.0
aI0
aI1
aI1
aI0
aI0
aI0
aI0
aI0
aI0
aI-6
aa(lp49
V0020600422
p50
aVDEC 27, 2006
p51
aVMIA @ CHI
p52
aVL
p53
aI1
aI0
aI0
aF0.0
aI0
aI0
aF0.0
aI0
aI0
aF0.0
aI0
aI0
aI0
aI0
aI1
aI0
aI0
aI0
aI0
aI3
aa(lp54
V0020600442
p55
aVDEC 30, 2006
p56
aVMIA @ ORL
p57
aVL
p58
aI12
aI0
aI5
aF0.0
aI0
aI0
aF0.0
aI2
aI2
aF1.0
aI0
aI1
aI1
aI1
aI0
aI1
aI0
aI2
aI2
aI-12
aa(lp59
V0020600470
p60
aVJAN 03, 2007
p61
aVMIA vs. LAC
p62
aVL
p63
aI19
aI3
aI12
aF0.25
aI0
aI0
aF0.0
aI0
aI0
aF0.0
aI3
aI1
aI4
aI0
aI0
aI0
aI1
aI2
aI6
aI-2
aa(lp64
V0020600488
p65
aVJAN 05, 2007
p66
aVMIA @ PHX
p67
aVL
p68
aI7
aI0
aI0
aF0.0
aI0
aI0
aF0.0
aI0
aI0
aF0.0
aI0
aI1
aI1
aI0
aI0
aI0
aI1
aI0
aI0
aI-10
aa(lp69
V0020600503
p70
aVJAN 07, 2007
p71
aVMIA @ POR
p72
aVW
p73
aI4
aI0
aI0
aF0.0
aI0
aI0
aF0.0
aI0
aI0
aF0.0
aI1
aI0
aI1
aI1
aI0
aI0
aI0
aI0
aI0
aI0
aa(lp74
V0020600526
p75
aVJAN 10, 2007
p76
aVMIA @ SEA
p77
aVW
p78
aI9
aI0
aI2
aF0.0
aI0
aI0
aF0.0
aI0
aI0
aF0.0
aI0
aI1
aI1
aI0
aI0
aI0
aI0
aI1
aI0
aI4
aa(lp79
V0020600540
p80
aVJAN 12, 2007
p81
aVMIA @ GSW
p82
aVW
p83
aI1
aI0
aI1
aF0.0
aI0
aI0
aF0.0
aI0
aI0
aF0.0
aI0
aI0
aI0
aI0
aI0
aI0
aI0
aI0
aI0
aI2
aa(lp84
V0020600548
p85
aVJAN 13, 2007
p86
aVMIA @ UTA
p87
aVW
p88
aI1
aI0
aI0
aF0.0
aI0
aI0
aF0.0
aI0
aI0
aF0.0
aI0
aI0
aI0
aI0
aI0
aI0
aI1
aI0
aI0
aI-5
aa(lp89
V0020600610
p90
aVJAN 22, 2007
p91
aVMIA vs. NYK
p92
aVW
p93
aI0
aI1
aI1
aF1.0
aI0
aI0
aF0.0
aI0
aI0
aF0.0
aI0
aI0
aI0
aI0
aI0
aI0
aI0
aI0
aI2
aI0
aa(lp94
V0020600637
p95
aVJAN 26, 2007
p96
aVMIA @ NYK
p97
aVL
p98
aI6
aI1
aI4
aF0.25
aI0
aI1
aF0.0
aI2
aI2
aF1.0
aI1
aI2
aI3
aI0
aI1
aI0
aI0
aI1
aI4
aI3
aa(lp99
V0020600672
p100
aVJAN 30, 2007
p101
aVMIA vs. MIL
p102
aVW
p103
aI7
aI1
aI4
aF0.25
aI0
aI0
aF0.0
aI0
aI0
aF0.0
aI0
aI0
aI0
aI1
aI2
aI0
aI0
aI0
aI2
aI1
aa(lp104
V0020600911
p105
aVMAR 07, 2007
p106
aVMIA vs. CHI
p107
aVW
p108
aI4
aI0
aI0
aF0.0
aI0
aI0
aF0.0
aI2
aI2
aF1.0
aI0
aI0
aI0
aI1
aI0
aI0
aI0
aI0
aI2
aI1
aa(lp109
V0020600991
p110
aVMAR 18, 2007
p111
aVMIA vs. ORL
p112
aVL
p113
aI3
aI0
aI1
aF0.0
aI0
aI0
aF0.0
aI0
aI0
aF0.0
aI0
aI0
aI0
aI0
aI0
aI0
aI0
aI0
aI0
aI5
aa(lp114
V0020601023
p115
aVMAR 23, 2007
p116
aVMIA @ IND
p117
aVL
p118
aI10
aI1
aI4
aF0.25
aI0
aI0
aF0.0
aI0
aI0
aF0.0
aI1
aI3
aI4
aI0
aI1
aI0
aI0
aI1
aI2
aI1
aa(lp119
V0020601047
p120
aVMAR 26, 2007
p121
aVMIA vs. ATL
p122
aVW
p123
aI3
aI0
aI1
aF0.0
aI0
aI0
aF0.0
aI0
aI0
aF0.0
aI0
aI0
aI0
aI0
aI0
aI0
aI0
aI1
aI0
aI0
aa(lp124
V0020601159
p125
aVAPR 10, 2007
p126
aVMIA @ CHA
p127
aVL
p128
aI9
aI0
aI2
aF0.0
aI0
aI0
aF0.0
aI2
aI2
aF1.0
aI0
aI1
aI1
aI0
aI0
aI0
aI3
aI2
aI2
aI8
aa(lp129
V0020601165
p130
aVAPR 11, 2007
p131
aVMIA vs. WAS
p132
aVW
p133
aI6
aI1
aI2
aF0.5
aI0
aI0
aF0.0
aI0
aI0
aF0.0
aI0
aI0
aI0
aI0
aI0
aI1
aI1
aI0
aI2
aI-3
aa(lp134
V0020601204
p135
aVAPR 16, 2007
p136
aVMIA vs. BOS
p137
aVL
p138
aI26
aI3
aI8
aF0.375
aI0
aI0
aF0.0
aI1
aI1
aF1.0
aI1
aI2
aI3
aI0
aI1
aI1
aI0
aI4
aI7
aI-6
aa(lp139
V0020601219
p140
aVAPR 18, 2007
p141
aVMIA @ ORL
p142
aVL
p143
aI11
aI1
aI5
aF0.2
aI0
aI0
aF0.0
aI0
aI0
aF0.0
aI2
aI0
aI2
aI0
aI0
aI0
aI1
aI3
aI2
aI-5
aasS'name'
p144
VEarl Barron
p145
sS'experience'
p146
I1
s.