(dp0
S'age'
p1
I33
sS'stats'
p2
(lp3
(lp4
V0020600009
p5
aVNOV 01, 2006
p6
aVCLE vs. WAS
p7
aVW
p8
aI21
aI2
aI2
aF1.0
aI0
aI0
aF0.0
aI1
aI2
aF0.5
aI2
aI0
aI2
aI4
aI1
aI0
aI2
aI0
aI5
aI5
aa(lp9
V0020600025
p10
aVNOV 03, 2006
p11
aVCLE @ SAS
p12
aVW
p13
aI24
aI0
aI3
aF0.0
aI0
aI0
aF0.0
aI0
aI0
aF0.0
aI0
aI2
aI2
aI6
aI0
aI0
aI1
aI3
aI0
aI1
aa(lp14
V0020600032
p15
aVNOV 04, 2006
p16
aVCLE @ CHA
p17
aVL
p18
aI22
aI2
aI3
aF0.667
aI0
aI0
aF0.0
aI0
aI2
aF0.0
aI0
aI1
aI1
aI2
aI0
aI0
aI2
aI2
aI4
aI-9
aa(lp19
V0020600052
p20
aVNOV 07, 2006
p21
aVCLE vs. ATL
p22
aVL
p23
aI29
aI0
aI2
aF0.0
aI0
aI0
aF0.0
aI0
aI0
aF0.0
aI0
aI3
aI3
aI6
aI0
aI0
aI0
aI4
aI0
aI-12
aa(lp24
V0020600069
p25
aVNOV 09, 2006
p26
aVCLE vs. CHI
p27
aVW
p28
aI24
aI1
aI4
aF0.25
aI0
aI0
aF0.0
aI0
aI0
aF0.0
aI1
aI2
aI3
aI5
aI0
aI1
aI2
aI1
aI2
aI10
aa(lp29
V0020600083
p30
aVNOV 11, 2006
p31
aVCLE vs. BOS
p32
aVW
p33
aI14
aI3
aI6
aF0.5
aI0
aI0
aF0.0
aI0
aI0
aF0.0
aI0
aI1
aI1
aI0
aI1
aI0
aI1
aI1
aI6
aI-16
aa(lp34
V0020600099
p35
aVNOV 13, 2006
p36
aVCLE @ NYK
p37
aVW
p38
aI16
aI0
aI3
aF0.0
aI0
aI0
aF0.0
aI0
aI2
aF0.0
aI1
aI0
aI1
aI2
aI0
aI0
aI0
aI2
aI0
aI-2
aa(lp39
V0020600109
p40
aVNOV 15, 2006
p41
aVCLE vs. POR
p42
aVW
p43
aI30
aI6
aI6
aF1.0
aI0
aI0
aF0.0
aI1
aI2
aF0.5
aI1
aI3
aI4
aI0
aI0
aI0
aI0
aI4
aI13
aI20
aa(lp44
V0020600122
p45
aVNOV 17, 2006
p46
aVCLE vs. MIN
p47
aVW
p48
aI22
aI0
aI0
aF0.0
aI0
aI0
aF0.0
aI1
aI2
aF0.5
aI0
aI1
aI1
aI3
aI0
aI0
aI1
aI1
aI1
aI0
aa(lp49
V0020600129
p50
aVNOV 18, 2006
p51
aVCLE @ WAS
p52
aVL
p53
aI17
aI2
aI3
aF0.667
aI0
aI0
aF0.0
aI0
aI0
aF0.0
aI0
aI1
aI1
aI8
aI0
aI0
aI0
aI4
aI4
aI-4
aa(lp54
V0020600152
p55
aVNOV 21, 2006
p56
aVCLE vs. MEM
p57
aVW
p58
aI32
aI3
aI5
aF0.6
aI0
aI0
aF0.0
aI0
aI0
aF0.0
aI0
aI1
aI1
aI8
aI1
aI0
aI1
aI3
aI6
aI2
aa(lp59
V0020600158
p60
aVNOV 22, 2006
p61
aVCLE @ TOR
p62
aVL
p63
aI22
aI1
aI5
aF0.2
aI0
aI0
aF0.0
aI1
aI2
aF0.5
aI0
aI2
aI2
aI3
aI1
aI0
aI0
aI2
aI3
aI-14
aa(lp64
V0020600176
p65
aVNOV 24, 2006
p66
aVCLE @ IND
p67
aVL
p68
aI29
aI2
aI7
aF0.286
aI0
aI0
aF0.0
aI2
aI2
aF1.0
aI0
aI2
aI2
aI4
aI0
aI0
aI3
aI0
aI6
aI-4
aa(lp69
V0020600188
p70
aVNOV 25, 2006
p71
aVCLE vs. PHI
p72
aVW
p73
aI32
aI4
aI7
aF0.571
aI0
aI0
aF0.0
aI3
aI4
aF0.75
aI0
aI3
aI3
aI8
aI3
aI0
aI5
aI3
aI11
aI1
aa(lp74
V0020600214
p75
aVNOV 29, 2006
p76
aVCLE vs. NYK
p77
aVL
p78
aI42
aI5
aI12
aF0.417
aI0
aI0
aF0.0
aI2
aI4
aF0.5
aI2
aI4
aI6
aI9
aI0
aI0
aI2
aI2
aI12
aI-8
aa(lp79
V0020600226
p80
aVDEC 01, 2006
p81
aVCLE @ ATL
p82
aVW
p83
aI29
aI5
aI11
aF0.455
aI0
aI0
aF0.0
aI3
aI4
aF0.75
aI0
aI3
aI3
aI8
aI0
aI0
aI2
aI2
aI13
aI13
aa(lp84
V0020600239
p85
aVDEC 02, 2006
p86
aVCLE @ HOU
p87
aVL
p88
aI27
aI3
aI5
aF0.6
aI0
aI1
aF0.0
aI0
aI2
aF0.0
aI1
aI2
aI3
aI3
aI0
aI0
aI1
aI2
aI6
aI-26
aa(lp89
V0020600262
p90
aVDEC 06, 2006
p91
aVCLE vs. TOR
p92
aVW
p93
aI33
aI6
aI9
aF0.667
aI0
aI0
aF0.0
aI0
aI2
aF0.0
aI0
aI6
aI6
aI6
aI0
aI1
aI3
aI3
aI12
aI-6
aa(lp94
V0020600290
p95
aVDEC 09, 2006
p96
aVCLE vs. IND
p97
aVW
p98
aI24
aI2
aI6
aF0.333
aI0
aI0
aF0.0
aI3
aI4
aF0.75
aI0
aI5
aI5
aI5
aI1
aI3
aI4
aI3
aI7
aI16
aa(lp99
V0020600305
p100
aVDEC 11, 2006
p101
aVCLE @ NOK
p102
aVL
p103
aI25
aI2
aI6
aF0.333
aI0
aI0
aF0.0
aI0
aI0
aF0.0
aI2
aI2
aI4
aI7
aI0
aI0
aI1
aI3
aI4
aI1
aa(lp104
V0020600317
p105
aVDEC 13, 2006
p106
aVCLE vs. CHA
p107
aVW
p108
aI33
aI2
aI3
aF0.667
aI0
aI0
aF0.0
aI1
aI2
aF0.5
aI0
aI4
aI4
aI7
aI1
aI0
aI0
aI2
aI5
aI-1
aa(lp109
V0020600333
p110
aVDEC 15, 2006
p111
aVCLE vs. SEA
p112
aVW
p113
aI31
aI2
aI4
aF0.5
aI0
aI0
aF0.0
aI0
aI0
aF0.0
aI1
aI3
aI4
aI5
aI0
aI2
aI1
aI2
aI4
aI20
aa(lp114
V0020600343
p115
aVDEC 16, 2006
p116
aVCLE @ ORL
p117
aVL
p118
aI26
aI0
aI5
aF0.0
aI0
aI1
aF0.0
aI0
aI4
aF0.0
aI0
aI2
aI2
aI2
aI0
aI1
aI4
aI2
aI0
aI4
aa(lp119
V0020600369
p120
aVDEC 20, 2006
p121
aVCLE @ NJN
p122
aVL
p123
aI26
aI1
aI5
aF0.2
aI0
aI0
aF0.0
aI2
aI2
aF1.0
aI0
aI4
aI4
aI6
aI1
aI0
aI2
aI1
aI4
aI-10
aa(lp124
V0020600377
p125
aVDEC 21, 2006
p126
aVCLE vs. DET
p127
aVL
p128
aI23
aI0
aI0
aF0.0
aI0
aI0
aF0.0
aI0
aI0
aF0.0
aI0
aI1
aI1
aI4
aI0
aI0
aI1
aI0
aI0
aI-4
aa(lp129
V0020600396
p130
aVDEC 23, 2006
p131
aVCLE vs. ORL
p132
aVW
p133
aI22
aI1
aI6
aF0.167
aI0
aI0
aF0.0
aI0
aI0
aF0.0
aI2
aI3
aI5
aI4
aI1
aI0
aI1
aI3
aI2
aI-2
aa(lp134
V0020600417
p135
aVDEC 27, 2006
p136
aVCLE @ ATL
p137
aVW
p138
aI34
aI0
aI1
aF0.0
aI0
aI0
aF0.0
aI2
aI2
aF1.0
aI0
aI2
aI2
aI3
aI2
aI0
aI2
aI2
aI2
aI11
aa(lp139
V0020600433
p140
aVDEC 29, 2006
p141
aVCLE vs. MIL
p142
aVW
p143
aI39
aI0
aI2
aF0.0
aI0
aI0
aF0.0
aI0
aI0
aF0.0
aI1
aI2
aI3
aI10
aI1
aI2
aI3
aI4
aI0
aI15
aa(lp144
V0020600446
p145
aVDEC 30, 2006
p146
aVCLE @ CHI
p147
aVL
p148
aI20
aI0
aI2
aF0.0
aI0
aI0
aF0.0
aI2
aI2
aF1.0
aI0
aI1
aI1
aI3
aI0
aI1
aI2
aI3
aI2
aI-3
aa(lp149
V0020600461
p150
aVJAN 02, 2007
p151
aVCLE vs. SAS
p152
aVW
p153
aI33
aI0
aI3
aF0.0
aI0
aI0
aF0.0
aI1
aI2
aF0.5
aI0
aI4
aI4
aI3
aI4
aI0
aI1
aI0
aI1
aI-5
aa(lp154
V0020600469
p155
aVJAN 03, 2007
p156
aVCLE @ BOS
p157
aVW
p158
aI29
aI4
aI11
aF0.364
aI0
aI0
aF0.0
aI0
aI1
aF0.0
aI1
aI1
aI2
aI6
aI2
aI0
aI3
aI2
aI8
aI-3
aa(lp159
V0020600486
p160
aVJAN 05, 2007
p161
aVCLE @ MIL
p162
aVW
p163
aI38
aI2
aI4
aF0.5
aI0
aI0
aF0.0
aI0
aI2
aF0.0
aI2
aI6
aI8
aI6
aI1
aI0
aI2
aI4
aI4
aI14
aa(lp164
V0020600492
p165
aVJAN 06, 2007
p166
aVCLE vs. NJN
p167
aVW
p168
aI34
aI2
aI7
aF0.286
aI0
aI0
aF0.0
aI2
aI2
aF1.0
aI3
aI0
aI3
aI7
aI0
aI0
aI1
aI3
aI6
aI7
aa(lp169
V0020600515
p170
aVJAN 09, 2007
p171
aVCLE @ SAC
p172
aVW
p173
aI25
aI2
aI6
aF0.333
aI0
aI0
aF0.0
aI0
aI0
aF0.0
aI1
aI2
aI3
aI4
aI0
aI0
aI1
aI2
aI4
aI-7
aa(lp174
V0020600529
p175
aVJAN 11, 2007
p176
aVCLE @ PHX
p177
aVL
p178
aI20
aI1
aI4
aF0.25
aI0
aI0
aF0.0
aI0
aI2
aF0.0
aI1
aI0
aI1
aI1
aI1
aI0
aI2
aI1
aI2
aI-19
aa(lp179
V0020600551
p180
aVJAN 13, 2007
p181
aVCLE @ LAC
p182
aVW
p183
aI39
aI7
aI14
aF0.5
aI0
aI0
aF0.0
aI4
aI6
aF0.667
aI0
aI0
aI0
aI3
aI0
aI0
aI2
aI3
aI18
aI15
aa(lp184
V0020600567
p185
aVJAN 16, 2007
p186
aVCLE @ SEA
p187
aVL
p188
aI33
aI1
aI2
aF0.5
aI0
aI0
aF0.0
aI1
aI2
aF0.5
aI0
aI1
aI1
aI1
aI1
aI0
aI3
aI3
aI3
aI-3
aa(lp189
V0020600577
p190
aVJAN 17, 2007
p191
aVCLE @ POR
p192
aVL
p193
aI15
aI0
aI0
aF0.0
aI0
aI0
aF0.0
aI0
aI0
aF0.0
aI0
aI1
aI1
aI0
aI1
aI0
aI2
aI2
aI0
aI-19
aa(lp194
V0020600590
p195
aVJAN 19, 2007
p196
aVCLE @ DEN
p197
aVL
p198
aI22
aI2
aI4
aF0.5
aI0
aI0
aF0.0
aI0
aI0
aF0.0
aI0
aI0
aI0
aI3
aI0
aI0
aI2
aI3
aI4
aI-18
aa(lp199
V0020600601
p200
aVJAN 20, 2007
p201
aVCLE @ GSW
p202
aVW
p203
aI37
aI5
aI8
aF0.625
aI0
aI0
aF0.0
aI2
aI2
aF1.0
aI0
aI1
aI1
aI11
aI0
aI0
aI2
aI5
aI12
aI20
aa(lp204
V0020600607
p205
aVJAN 22, 2007
p206
aVCLE vs. ORL
p207
aVL
p208
aI24
aI2
aI5
aF0.4
aI0
aI0
aF0.0
aI0
aI0
aF0.0
aI0
aI0
aI0
aI2
aI0
aI0
aI0
aI2
aI4
aI-4
aa(lp209
V0020600623
p210
aVJAN 24, 2007
p211
aVCLE vs. PHI
p212
aVL
p213
aI38
aI4
aI9
aF0.444
aI0
aI0
aF0.0
aI0
aI0
aF0.0
aI1
aI2
aI3
aI5
aI0
aI0
aI1
aI2
aI8
aI0
aa(lp214
V0020600635
p215
aVJAN 26, 2007
p216
aVCLE @ PHI
p217
aVW
p218
aI12
aI1
aI4
aF0.25
aI0
aI0
aF0.0
aI0
aI0
aF0.0
aI0
aI1
aI1
aI2
aI1
aI0
aI1
aI3
aI2
aI-10
aa(lp219
V0020600655
p220
aVJAN 28, 2007
p221
aVCLE vs. PHX
p222
aVL
p223
aI12
aI3
aI4
aF0.75
aI0
aI0
aF0.0
aI2
aI2
aF1.0
aI0
aI0
aI0
aI1
aI0
aI0
aI1
aI3
aI8
aI-8
aa(lp224
V0020600669
p225
aVJAN 30, 2007
p226
aVCLE vs. GSW
p227
aVW
p228
aI16
aI0
aI4
aF0.0
aI0
aI0
aF0.0
aI1
aI2
aF0.5
aI0
aI1
aI1
aI6
aI2
aI1
aI2
aI3
aI1
aI18
aa(lp229
V0020600687
p230
aVFEB 01, 2007
p231
aVCLE @ MIA
p232
aVL
p233
aI13
aI2
aI5
aF0.4
aI0
aI0
aF0.0
aI0
aI0
aF0.0
aI0
aI0
aI0
aI4
aI0
aI0
aI0
aI1
aI4
aI6
aa(lp234
V0020600694
p235
aVFEB 02, 2007
p236
aVCLE vs. CHA
p237
aVW
p238
aI20
aI0
aI2
aF0.0
aI0
aI0
aF0.0
aI3
aI4
aF0.75
aI0
aI2
aI2
aI3
aI1
aI0
aI0
aI2
aI3
aI11
aa(lp239
V0020600711
p240
aVFEB 04, 2007
p241
aVCLE vs. DET
p242
aVL
p243
aI13
aI1
aI2
aF0.5
aI0
aI0
aF0.0
aI0
aI0
aF0.0
aI0
aI0
aI0
aI2
aI0
aI0
aI1
aI2
aI2
aI-8
aa(lp244
V0020600729
p245
aVFEB 07, 2007
p246
aVCLE vs. LAC
p247
aVW
p248
aI14
aI0
aI1
aF0.0
aI0
aI0
aF0.0
aI1
aI2
aF0.5
aI0
aI1
aI1
aI3
aI2
aI1
aI1
aI1
aI1
aI5
aa(lp249
V0020600744
p250
aVFEB 09, 2007
p251
aVCLE vs. MIA
p252
aVW
p253
aI18
aI1
aI3
aF0.333
aI0
aI0
aF0.0
aI0
aI0
aF0.0
aI1
aI0
aI1
aI7
aI0
aI0
aI1
aI3
aI2
aI6
aa(lp254
V0020600759
p255
aVFEB 11, 2007
p256
aVCLE vs. LAL
p257
aVW
p258
aI23
aI2
aI4
aF0.5
aI0
aI0
aF0.0
aI0
aI0
aF0.0
aI1
aI3
aI4
aI6
aI2
aI1
aI0
aI1
aI4
aI15
aa(lp259
V0020600784
p260
aVFEB 14, 2007
p261
aVCLE @ UTA
p262
aVL
p263
aI28
aI0
aI3
aF0.0
aI0
aI0
aF0.0
aI0
aI0
aF0.0
aI4
aI2
aI6
aI2
aI0
aI0
aI2
aI4
aI0
aI-15
aa(lp264
V0020600789
p265
aVFEB 15, 2007
p266
aVCLE @ LAL
p267
aVW
p268
aI35
aI2
aI2
aF1.0
aI0
aI0
aF0.0
aI9
aI10
aF0.9
aI0
aI8
aI8
aI5
aI1
aI1
aI2
aI4
aI13
aI9
aa(lp269
V0020600800
p270
aVFEB 21, 2007
p271
aVCLE @ TOR
p272
aVW
p273
aI18
aI0
aI2
aF0.0
aI0
aI0
aF0.0
aI2
aI2
aF1.0
aI0
aI1
aI1
aI3
aI2
aI0
aI3
aI3
aI2
aI-7
aa(lp274
V0020600812
p275
aVFEB 22, 2007
p276
aVCLE vs. CHI
p277
aVL
p278
aI32
aI3
aI5
aF0.6
aI0
aI0
aF0.0
aI3
aI3
aF1.0
aI1
aI2
aI3
aI5
aI1
aI0
aI3
aI4
aI9
aI1
aa(lp279
V0020600835
p280
aVFEB 25, 2007
p281
aVCLE @ MIA
p282
aVL
p283
aI15
aI1
aI3
aF0.333
aI0
aI1
aF0.0
aI2
aI4
aF0.5
aI0
aI1
aI1
aI1
aI1
aI0
aI1
aI0
aI4
aI-24
aa(lp284
V0020600850
p285
aVFEB 27, 2007
p286
aVCLE vs. NOK
p287
aVW
p288
aI14
aI0
aI0
aF0.0
aI0
aI0
aF0.0
aI0
aI0
aF0.0
aI0
aI0
aI0
aI2
aI0
aI0
aI0
aI1
aI0
aI-3
aa(lp289
V0020600865
p290
aVMAR 01, 2007
p291
aVCLE @ DAL
p292
aVL
p293
aI21
aI0
aI3
aF0.0
aI0
aI0
aF0.0
aI0
aI0
aF0.0
aI0
aI2
aI2
aI3
aI2
aI0
aI1
aI1
aI0
aI-11
aa(lp294
V0020600881
p295
aVMAR 03, 2007
p296
aVCLE vs. TOR
p297
aVW
p298
aI21
aI2
aI4
aF0.5
aI0
aI0
aF0.0
aI0
aI0
aF0.0
aI0
aI2
aI2
aI4
aI1
aI0
aI0
aI2
aI4
aI8
aa(lp299
V0020600895
p300
aVMAR 05, 2007
p301
aVCLE vs. HOU
p302
aVW
p303
aI23
aI2
aI2
aF1.0
aI0
aI0
aF0.0
aI0
aI0
aF0.0
aI1
aI3
aI4
aI1
aI1
aI0
aI2
aI1
aI4
aI3
aa(lp304
V0020600912
p305
aVMAR 07, 2007
p306
aVCLE @ DET
p307
aVW
p308
aI17
aI1
aI3
aF0.333
aI0
aI0
aF0.0
aI0
aI0
aF0.0
aI0
aI0
aI0
aI0
aI0
aI0
aI0
aI4
aI2
aI-19
aa(lp309
V0020600932
p310
aVMAR 10, 2007
p311
aVCLE @ MIL
p312
aVW
p313
aI26
aI1
aI4
aF0.25
aI0
aI0
aF0.0
aI0
aI0
aF0.0
aI0
aI0
aI0
aI4
aI1
aI0
aI0
aI0
aI2
aI-9
aa(lp314
V0020600940
p315
aVMAR 11, 2007
p316
aVCLE vs. IND
p317
aVW
p318
aI23
aI1
aI2
aF0.5
aI0
aI0
aF0.0
aI0
aI0
aF0.0
aI0
aI2
aI2
aI2
aI0
aI0
aI0
aI3
aI2
aI-8
aa(lp319
V0020600949
p320
aVMAR 13, 2007
p321
aVCLE vs. SAC
p322
aVW
p323
aI23
aI2
aI3
aF0.667
aI0
aI0
aF0.0
aI0
aI0
aF0.0
aI0
aI2
aI2
aI4
aI2
aI0
aI4
aI3
aI4
aI9
aa(lp324
V0020600963
p325
aVMAR 14, 2007
p326
aVCLE @ MEM
p327
aVW
p328
aI16
aI0
aI2
aF0.0
aI0
aI0
aF0.0
aI0
aI0
aF0.0
aI0
aI1
aI1
aI4
aI0
aI0
aI0
aI4
aI0
aI12
aa(lp329
V0020600982
p330
aVMAR 17, 2007
p331
aVCLE vs. UTA
p332
aVW
p333
aI9
aI0
aI2
aF0.0
aI0
aI0
aF0.0
aI0
aI0
aF0.0
aI0
aI0
aI0
aI2
aI0
aI0
aI1
aI1
aI0
aI4
aa(lp334
V0020600998
p335
aVMAR 20, 2007
p336
aVCLE @ CHA
p337
aVL
p338
aI31
aI0
aI2
aF0.0
aI0
aI0
aF0.0
aI2
aI2
aF1.0
aI2
aI2
aI4
aI7
aI2
aI0
aI1
aI5
aI2
aI-7
aa(lp339
V0020601010
p340
aVMAR 21, 2007
p341
aVCLE vs. DAL
p342
aVL
p343
aI5
aI0
aI0
aF0.0
aI0
aI0
aF0.0
aI0
aI0
aF0.0
aI0
aI0
aI0
aI0
aI0
aI1
aI0
aI0
aI0
aI-14
aa(lp344
V0020601026
p345
aVMAR 23, 2007
p346
aVCLE vs. NYK
p347
aVW
p348
aI19
aI0
aI0
aF0.0
aI0
aI0
aF0.0
aI1
aI2
aF0.5
aI0
aI1
aI1
aI1
aI1
aI0
aI2
aI2
aI1
aI10
aa(lp349
V0020601042
p350
aVMAR 25, 2007
p351
aVCLE vs. DEN
p352
aVL
p353
aI17
aI3
aI6
aF0.5
aI0
aI0
aF0.0
aI0
aI0
aF0.0
aI0
aI1
aI1
aI4
aI0
aI0
aI0
aI3
aI6
aI-4
aa(lp354
V0020601054
p355
aVMAR 27, 2007
p356
aVCLE @ IND
p357
aVW
p358
aI26
aI5
aI7
aF0.714
aI0
aI0
aF0.0
aI4
aI5
aF0.8
aI1
aI6
aI7
aI4
aI0
aI0
aI1
aI3
aI14
aI9
aa(lp359
V0020601063
p360
aVMAR 28, 2007
p361
aVCLE @ NYK
p362
aVL
p363
aI28
aI3
aI6
aF0.5
aI0
aI0
aF0.0
aI0
aI0
aF0.0
aI0
aI4
aI4
aI5
aI1
aI0
aI0
aI1
aI6
aI-5
aa(lp364
V0020601084
p365
aVMAR 31, 2007
p366
aVCLE @ CHI
p367
aVW
p368
aI14
aI0
aI0
aF0.0
aI0
aI0
aF0.0
aI0
aI0
aF0.0
aI0
aI1
aI1
aI5
aI0
aI0
aI2
aI2
aI0
aI4
aa(lp369
V0020601094
p370
aVAPR 01, 2007
p371
aVCLE @ BOS
p372
aVL
p373
aI27
aI3
aI5
aF0.6
aI0
aI1
aF0.0
aI1
aI2
aF0.5
aI0
aI5
aI5
aI8
aI1
aI0
aI1
aI3
aI7
aI9
aa(lp374
V0020601105
p375
aVAPR 03, 2007
p376
aVCLE @ MIN
p377
aVW
p378
aI12
aI0
aI1
aF0.0
aI0
aI0
aF0.0
aI0
aI0
aF0.0
aI0
aI2
aI2
aI2
aI0
aI0
aI2
aI2
aI0
aI-12
aa(lp379
V0020601119
p380
aVAPR 05, 2007
p381
aVCLE vs. MIA
p382
aVL
p383
aI11
aI0
aI1
aF0.0
aI0
aI0
aF0.0
aI0
aI0
aF0.0
aI0
aI0
aI0
aI1
aI0
aI0
aI2
aI2
aI0
aI-2
aa(lp384
V0020601126
p385
aVAPR 06, 2007
p386
aVCLE @ WAS
p387
aVW
p388
aI17
aI1
aI1
aF1.0
aI0
aI0
aF0.0
aI2
aI2
aF1.0
aI0
aI2
aI2
aI4
aI1
aI0
aI0
aI1
aI4
aI0
aa(lp389
V0020601143
p390
aVAPR 08, 2007
p391
aVCLE @ DET
p392
aVL
p393
aI19
aI2
aI3
aF0.667
aI0
aI0
aF0.0
aI1
aI1
aF1.0
aI0
aI1
aI1
aI3
aI0
aI0
aI1
aI2
aI5
aI3
aa(lp394
V0020601173
p395
aVAPR 12, 2007
p396
aVCLE vs. NJN
p397
aVW
p398
aI8
aI0
aI2
aF0.0
aI0
aI0
aF0.0
aI0
aI0
aF0.0
aI0
aI0
aI0
aI2
aI1
aI0
aI1
aI1
aI0
aI5
aa(lp399
V0020601188
p400
aVAPR 14, 2007
p401
aVCLE vs. ATL
p402
aVW
p403
aI21
aI2
aI2
aF1.0
aI0
aI0
aF0.0
aI0
aI0
aF0.0
aI0
aI2
aI2
aI4
aI3
aI0
aI3
aI3
aI4
aI14
aa(lp404
V0020601211
p405
aVAPR 17, 2007
p406
aVCLE @ PHI
p407
aVW
p408
aI25
aI1
aI3
aF0.333
aI0
aI0
aF0.0
aI3
aI4
aF0.75
aI0
aI5
aI5
aI8
aI1
aI0
aI0
aI3
aI5
aI6
aa(lp409
V0020601220
p410
aVAPR 18, 2007
p411
aVCLE vs. MIL
p412
aVW
p413
aI22
aI3
aI6
aF0.5
aI0
aI0
aF0.0
aI1
aI1
aF1.0
aI1
aI3
aI4
aI3
aI0
aI0
aI0
aI2
aI7
aI-3
aasS'name'
p414
VEric Snow
p415
sS'experience'
p416
I11
s.