(dp0
S'age'
p1
I31
sS'stats'
p2
(lp3
(lp4
V0020600003
p5
aVNOV 01, 2006
p6
aVPHI vs. ATL
p7
aVW
p8
aI43
aI9
aI21
aF0.429
aI1
aI2
aF0.5
aI13
aI14
aF0.929
aI2
aI2
aI4
aI6
aI0
aI0
aI7
aI0
aI32
aI10
aa(lp9
V0020600019
p10
aVNOV 03, 2006
p11
aVPHI @ ORL
p12
aVW
p13
aI46
aI15
aI25
aF0.6
aI3
aI4
aF0.75
aI6
aI9
aF0.667
aI0
aI3
aI3
aI10
aI0
aI0
aI5
aI2
aI39
aI5
aa(lp14
V0020600041
p15
aVNOV 05, 2006
p16
aVPHI vs. MIA
p17
aVW
p18
aI46
aI9
aI21
aF0.429
aI2
aI5
aF0.4
aI11
aI14
aF0.786
aI1
aI3
aI4
aI13
aI2
aI0
aI4
aI1
aI31
aI7
aa(lp19
V0020600053
p20
aVNOV 07, 2006
p21
aVPHI @ IND
p22
aVL
p23
aI39
aI8
aI22
aF0.364
aI0
aI2
aF0.0
aI4
aI5
aF0.8
aI0
aI0
aI0
aI3
aI2
aI0
aI3
aI1
aI20
aI-14
aa(lp24
V0020600058
p25
aVNOV 08, 2006
p26
aVPHI @ TOR
p27
aVL
p28
aI46
aI12
aI26
aF0.462
aI1
aI7
aF0.143
aI10
aI12
aF0.833
aI0
aI3
aI3
aI10
aI1
aI0
aI7
aI2
aI35
aI-4
aa(lp29
V0020600073
p30
aVNOV 10, 2006
p31
aVPHI vs. DEN
p32
aVL
p33
aI40
aI6
aI20
aF0.3
aI0
aI2
aF0.0
aI9
aI9
aF1.0
aI1
aI3
aI4
aI9
aI0
aI0
aI5
aI3
aI21
aI-5
aa(lp34
V0020600116
p35
aVNOV 15, 2006
p36
aVPHI @ SEA
p37
aVW
p38
aI41
aI6
aI22
aF0.273
aI2
aI4
aF0.5
aI14
aI16
aF0.875
aI0
aI3
aI3
aI1
aI2
aI0
aI2
aI1
aI28
aI0
aa(lp39
V0020600126
p40
aVNOV 17, 2006
p41
aVPHI @ PHX
p42
aVL
p43
aI39
aI8
aI22
aF0.364
aI0
aI5
aF0.0
aI7
aI7
aF1.0
aI1
aI1
aI2
aI8
aI5
aI0
aI1
aI1
aI23
aI-16
aa(lp44
V0020600140
p45
aVNOV 18, 2006
p46
aVPHI @ LAC
p47
aVL
p48
aI49
aI12
aI31
aF0.387
aI1
aI4
aF0.25
aI4
aI4
aF1.0
aI1
aI2
aI3
aI9
aI4
aI0
aI6
aI1
aI29
aI1
aa(lp49
V0020600172
p50
aVNOV 24, 2006
p51
aVPHI vs. CHI
p52
aVW
p53
aI45
aI15
aI30
aF0.5
aI0
aI6
aF0.0
aI16
aI17
aF0.941
aI0
aI5
aI5
aI10
aI2
aI1
aI2
aI2
aI46
aI12
aa(lp54
V0020600188
p55
aVNOV 25, 2006
p56
aVPHI @ CLE
p57
aVL
p58
aI43
aI10
aI28
aF0.357
aI1
aI3
aF0.333
aI10
aI12
aF0.833
aI1
aI3
aI4
aI2
aI3
aI0
aI6
aI0
aI31
aI-10
aa(lp59
V0020600200
p60
aVNOV 27, 2006
p61
aVPHI @ MIA
p62
aVL
p63
aI47
aI17
aI37
aF0.459
aI0
aI3
aF0.0
aI11
aI12
aF0.917
aI0
aI1
aI1
aI4
aI3
aI0
aI3
aI2
aI45
aI-12
aa(lp64
V0020600234
p65
aVDEC 02, 2006
p66
aVPHI @ NJN
p67
aVL
p68
aI40
aI11
aI25
aF0.44
aI0
aI2
aF0.0
aI15
aI15
aF1.0
aI0
aI3
aI3
aI10
aI5
aI0
aI3
aI3
aI37
aI-14
aa(lp69
V0020600244
p70
aVDEC 03, 2006
p71
aVPHI vs. MIN
p72
aVL
p73
aI42
aI6
aI19
aF0.316
aI0
aI3
aF0.0
aI14
aI17
aF0.824
aI0
aI2
aI2
aI7
aI3
aI0
aI5
aI0
aI26
aI1
aa(lp74
V0020600268
p75
aVDEC 06, 2006
p76
aVPHI @ CHI
p77
aVL
p78
aI32
aI7
aI17
aF0.412
aI1
aI1
aF1.0
aI10
aI11
aF0.909
aI0
aI0
aI0
aI7
aI1
aI0
aI7
aI2
aI25
aI-10
aa(lp79
V0020600389
p80
aVDEC 22, 2006
p81
aVDEN vs. SAC
p82
aVL
p83
aI39
aI9
aI15
aF0.6
aI2
aI3
aF0.667
aI2
aI6
aF0.333
aI0
aI2
aI2
aI10
aI0
aI0
aI2
aI3
aI22
aI-4
aa(lp84
V0020600410
p85
aVDEC 26, 2006
p86
aVDEN vs. BOS
p87
aVW
p88
aI44
aI9
aI22
aF0.409
aI1
aI2
aF0.5
aI9
aI13
aF0.692
aI0
aI2
aI2
aI13
aI4
aI0
aI6
aI2
aI28
aI11
aa(lp89
V0020600428
p90
aVDEC 28, 2006
p91
aVDEN vs. SEA
p92
aVW
p93
aI43
aI17
aI29
aF0.586
aI1
aI2
aF0.5
aI9
aI12
aF0.75
aI0
aI3
aI3
aI10
aI2
aI0
aI9
aI4
aI44
aI22
aa(lp94
V0020600435
p95
aVDEC 29, 2006
p96
aVDEN @ NOK
p97
aVL
p98
aI45
aI6
aI22
aF0.273
aI0
aI2
aF0.0
aI9
aI10
aF0.9
aI1
aI1
aI2
aI3
aI2
aI1
aI5
aI3
aI21
aI-7
aa(lp99
V0020600455
p100
aVDEC 31, 2006
p101
aVDEN vs. DAL
p102
aVL
p103
aI42
aI10
aI17
aF0.588
aI0
aI0
aF0.0
aI8
aI8
aF1.0
aI0
aI2
aI2
aI8
aI7
aI1
aI5
aI3
aI28
aI-2
aa(lp104
V0020600465
p105
aVJAN 02, 2007
p106
aVDEN vs. PHI
p107
aVL
p108
aI44
aI10
aI24
aF0.417
aI2
aI6
aF0.333
aI8
aI10
aF0.8
aI1
aI4
aI5
aI9
aI0
aI0
aI7
aI1
aI30
aI-17
aa(lp109
V0020600489
p110
aVJAN 05, 2007
p111
aVDEN @ LAL
p112
aVL
p113
aI36
aI5
aI17
aF0.294
aI0
aI1
aF0.0
aI6
aI8
aF0.75
aI0
aI1
aI1
aI5
aI1
aI0
aI3
aI2
aI16
aI-27
aa(lp114
V0020600495
p115
aVJAN 06, 2007
p116
aVDEN vs. UTA
p117
aVL
p118
aI44
aI5
aI19
aF0.263
aI1
aI7
aF0.143
aI11
aI12
aF0.917
aI0
aI5
aI5
aI8
aI2
aI0
aI5
aI2
aI22
aI-14
aa(lp119
V0020600507
p120
aVJAN 08, 2007
p121
aVDEN vs. MIL
p122
aVW
p123
aI43
aI9
aI21
aF0.429
aI2
aI4
aF0.5
aI3
aI4
aF0.75
aI1
aI1
aI2
aI3
aI2
aI0
aI4
aI0
aI23
aI6
aa(lp124
V0020600525
p125
aVJAN 10, 2007
p126
aVDEN vs. SAS
p127
aVL
p128
aI44
aI15
aI25
aF0.6
aI0
aI0
aF0.0
aI3
aI3
aF1.0
aI0
aI0
aI0
aI6
aI0
aI0
aI3
aI0
aI33
aI-13
aa(lp129
V0020600538
p130
aVJAN 12, 2007
p131
aVDEN vs. HOU
p132
aVL
p133
aI44
aI10
aI21
aF0.476
aI1
aI2
aF0.5
aI7
aI7
aF1.0
aI0
aI4
aI4
aI5
aI3
aI1
aI3
aI1
aI28
aI-1
aa(lp134
V0020600553
p135
aVJAN 14, 2007
p136
aVDEN @ POR
p137
aVW
p138
aI43
aI11
aI21
aF0.524
aI1
aI2
aF0.5
aI9
aI10
aF0.9
aI0
aI3
aI3
aI9
aI1
aI0
aI6
aI1
aI32
aI22
aa(lp139
V0020600590
p140
aVJAN 19, 2007
p141
aVDEN vs. CLE
p142
aVW
p143
aI43
aI8
aI17
aF0.471
aI0
aI1
aF0.0
aI9
aI10
aF0.9
aI0
aI3
aI3
aI9
aI1
aI0
aI6
aI1
aI25
aI7
aa(lp144
V0020600600
p145
aVJAN 20, 2007
p146
aVDEN @ HOU
p147
aVW
p148
aI50
aI12
aI30
aF0.4
aI2
aI4
aF0.5
aI10
aI13
aF0.769
aI0
aI3
aI3
aI10
aI4
aI0
aI3
aI1
aI36
aI12
aa(lp149
V0020600611
p150
aVJAN 22, 2007
p151
aVDEN vs. MEM
p152
aVW
p153
aI38
aI9
aI16
aF0.563
aI2
aI3
aF0.667
aI3
aI5
aF0.6
aI0
aI4
aI4
aI7
aI2
aI0
aI6
aI0
aI23
aI24
aa(lp154
V0020600619
p155
aVJAN 23, 2007
p156
aVDEN @ SEA
p157
aVW
p158
aI44
aI7
aI19
aF0.368
aI2
aI5
aF0.4
aI5
aI6
aF0.833
aI0
aI3
aI3
aI10
aI1
aI0
aI4
aI0
aI21
aI8
aa(lp159
V0020600643
p160
aVJAN 26, 2007
p161
aVDEN @ UTA
p162
aVL
p163
aI44
aI10
aI21
aF0.476
aI1
aI1
aF1.0
aI12
aI15
aF0.8
aI0
aI3
aI3
aI6
aI1
aI0
aI2
aI2
aI33
aI0
aa(lp164
V0020600652
p165
aVJAN 27, 2007
p166
aVDEN vs. NJN
p167
aVL
p168
aI43
aI6
aI19
aF0.316
aI1
aI3
aF0.333
aI5
aI5
aF1.0
aI0
aI2
aI2
aI8
aI1
aI1
aI3
aI1
aI18
aI-12
aa(lp169
V0020600666
p170
aVJAN 29, 2007
p171
aVDEN vs. CHA
p172
aVL
p173
aI43
aI10
aI15
aF0.667
aI1
aI2
aF0.5
aI10
aI12
aF0.833
aI0
aI3
aI3
aI8
aI4
aI1
aI0
aI1
aI31
aI-7
aa(lp174
V0020600734
p175
aVFEB 07, 2007
p176
aVDEN vs. NOK
p177
aVL
p178
aI49
aI9
aI21
aF0.429
aI1
aI4
aF0.25
aI3
aI5
aF0.6
aI1
aI3
aI4
aI9
aI2
aI0
aI2
aI1
aI22
aI-3
aa(lp179
V0020600794
p180
aVFEB 20, 2007
p181
aVDEN @ SAS
p182
aVL
p183
aI35
aI3
aI11
aF0.273
aI0
aI2
aF0.0
aI3
aI4
aF0.75
aI1
aI2
aI3
aI5
aI1
aI0
aI3
aI2
aI9
aI-23
aa(lp184
V0020600824
p185
aVFEB 23, 2007
p186
aVDEN vs. UTA
p187
aVL
p188
aI44
aI11
aI18
aF0.611
aI1
aI2
aF0.5
aI10
aI15
aF0.667
aI1
aI2
aI3
aI5
aI2
aI0
aI3
aI2
aI33
aI-4
aa(lp189
V0020600830
p190
aVFEB 24, 2007
p191
aVDEN @ DAL
p192
aVL
p193
aI44
aI8
aI18
aF0.444
aI2
aI4
aF0.5
aI8
aI9
aF0.889
aI1
aI4
aI5
aI4
aI2
aI1
aI9
aI2
aI26
aI-13
aa(lp194
V0020600842
p195
aVFEB 26, 2007
p196
aVDEN @ MEM
p197
aVW
p198
aI40
aI7
aI18
aF0.389
aI3
aI6
aF0.5
aI8
aI9
aF0.889
aI1
aI4
aI5
aI9
aI2
aI0
aI4
aI2
aI25
aI4
aa(lp199
V0020600862
p200
aVFEB 28, 2007
p201
aVDEN vs. ORL
p202
aVW
p203
aI46
aI13
aI25
aF0.52
aI1
aI4
aF0.25
aI7
aI9
aF0.778
aI0
aI4
aI4
aI7
aI5
aI0
aI5
aI1
aI34
aI8
aa(lp204
V0020600876
p205
aVMAR 02, 2007
p206
aVDEN vs. HOU
p207
aVL
p208
aI39
aI7
aI19
aF0.368
aI0
aI1
aF0.0
aI5
aI8
aF0.625
aI0
aI4
aI4
aI5
aI0
aI0
aI3
aI0
aI19
aI-18
aa(lp209
V0020600904
p210
aVMAR 06, 2007
p211
aVDEN vs. NOK
p212
aVW
p213
aI40
aI8
aI17
aF0.471
aI2
aI3
aF0.667
aI7
aI7
aF1.0
aI1
aI2
aI3
aI5
aI0
aI0
aI6
aI2
aI25
aI8
aa(lp214
V0020600916
p215
aVMAR 07, 2007
p216
aVDEN @ GSW
p217
aVL
p218
aI47
aI12
aI25
aF0.48
aI1
aI2
aF0.5
aI10
aI14
aF0.714
aI1
aI5
aI6
aI3
aI2
aI0
aI5
aI0
aI35
aI-16
aa(lp219
V0020600924
p220
aVMAR 09, 2007
p221
aVDEN vs. DET
p222
aVL
p223
aI43
aI5
aI13
aF0.385
aI1
aI4
aF0.25
aI8
aI13
aF0.615
aI0
aI2
aI2
aI4
aI2
aI1
aI2
aI1
aI19
aI-12
aa(lp224
V0020600938
p225
aVMAR 11, 2007
p226
aVDEN @ SAC
p227
aVW
p228
aI37
aI8
aI17
aF0.471
aI1
aI3
aF0.333
aI7
aI9
aF0.778
aI1
aI5
aI6
aI7
aI4
aI0
aI6
aI3
aI24
aI14
aa(lp229
V0020600955
p230
aVMAR 13, 2007
p231
aVDEN vs. POR
p232
aVW
p233
aI44
aI8
aI20
aF0.4
aI1
aI1
aF1.0
aI14
aI16
aF0.875
aI1
aI5
aI6
aI10
aI5
aI1
aI2
aI0
aI31
aI11
aa(lp234
V0020600969
p235
aVMAR 15, 2007
p236
aVDEN vs. LAL
p237
aVW
p238
aI41
aI4
aI15
aF0.267
aI0
aI0
aF0.0
aI6
aI6
aF1.0
aI0
aI1
aI1
aI13
aI1
aI0
aI3
aI3
aI14
aI29
aa(lp239
V0020600986
p240
aVMAR 17, 2007
p241
aVDEN vs. PHX
p242
aVW
p243
aI43
aI16
aI22
aF0.727
aI2
aI3
aF0.667
aI10
aI12
aF0.833
aI0
aI5
aI5
aI15
aI0
aI1
aI1
aI2
aI44
aI31
aa(lp244
V0020600997
p245
aVMAR 20, 2007
p246
aVDEN @ NJN
p247
aVW
p248
aI44
aI8
aI23
aF0.348
aI1
aI6
aF0.167
aI3
aI6
aF0.5
aI0
aI5
aI5
aI5
aI4
aI0
aI4
aI0
aI20
aI3
aa(lp249
V0020601017
p250
aVMAR 22, 2007
p251
aVDEN @ CHI
p252
aVL
p253
aI41
aI11
aI18
aF0.611
aI1
aI2
aF0.5
aI8
aI9
aF0.889
aI0
aI2
aI2
aI6
aI1
aI0
aI5
aI2
aI31
aI2
aa(lp254
V0020601020
p255
aVMAR 23, 2007
p256
aVDEN @ TOR
p257
aVL
p258
aI33
aI3
aI12
aF0.25
aI0
aI3
aF0.0
aI8
aI8
aF1.0
aI1
aI0
aI1
aI3
aI0
aI0
aI3
aI1
aI14
aI-26
aa(lp259
V0020601042
p260
aVMAR 25, 2007
p261
aVDEN @ CLE
p262
aVW
p263
aI46
aI7
aI13
aF0.538
aI0
aI2
aF0.0
aI4
aI6
aF0.667
aI0
aI4
aI4
aI12
aI0
aI0
aI2
aI1
aI18
aI14
aa(lp264
V0020601048
p265
aVMAR 26, 2007
p266
aVDEN @ DET
p267
aVL
p268
aI44
aI5
aI14
aF0.357
aI1
aI5
aF0.2
aI5
aI9
aF0.556
aI0
aI0
aI0
aI8
aI2
aI1
aI5
aI0
aI16
aI-11
aa(lp269
V0020601066
p270
aVMAR 28, 2007
p271
aVDEN vs. SEA
p272
aVL
p273
aI38
aI4
aI13
aF0.308
aI1
aI3
aF0.333
aI5
aI8
aF0.625
aI0
aI1
aI1
aI8
aI1
aI0
aI5
aI2
aI14
aI-4
aa(lp274
V0020601080
p275
aVMAR 30, 2007
p276
aVDEN @ PHX
p277
aVL
p278
aI44
aI8
aI16
aF0.5
aI0
aI2
aF0.0
aI10
aI13
aF0.769
aI0
aI0
aI0
aI1
aI1
aI1
aI5
aI2
aI26
aI-10
aa(lp279
V0020601098
p280
aVAPR 01, 2007
p281
aVDEN @ SEA
p282
aVW
p283
aI44
aI9
aI19
aF0.474
aI0
aI3
aF0.0
aI8
aI15
aF0.533
aI1
aI3
aI4
aI7
aI3
aI0
aI5
aI2
aI26
aI7
aa(lp284
V0020601107
p285
aVAPR 03, 2007
p286
aVDEN @ LAL
p287
aVW
p288
aI46
aI10
aI24
aF0.417
aI0
aI1
aF0.0
aI0
aI4
aF0.0
aI0
aI4
aI4
aI10
aI1
aI0
aI2
aI2
aI20
aI6
aa(lp289
V0020601116
p290
aVAPR 04, 2007
p291
aVDEN vs. SAC
p292
aVW
p293
aI42
aI6
aI13
aF0.462
aI0
aI2
aF0.0
aI4
aI7
aF0.571
aI1
aI4
aI5
aI10
aI1
aI0
aI4
aI0
aI16
aI8
aa(lp294
V0020601132
p295
aVAPR 06, 2007
p296
aVDEN vs. DAL
p297
aVW
p298
aI39
aI9
aI23
aF0.391
aI0
aI2
aF0.0
aI4
aI6
aF0.667
aI0
aI3
aI3
aI5
aI2
aI0
aI3
aI4
aI22
aI9
aa(lp299
V0020601142
p300
aVAPR 07, 2007
p301
aVDEN @ LAC
p302
aVW
p303
aI43
aI12
aI19
aF0.632
aI3
aI4
aF0.75
aI7
aI10
aF0.7
aI1
aI3
aI4
aI4
aI1
aI0
aI5
aI0
aI34
aI-6
aa(lp304
V0020601154
p305
aVAPR 09, 2007
p306
aVDEN vs. LAL
p307
aVW
p308
aI46
aI8
aI22
aF0.364
aI1
aI5
aF0.2
aI7
aI9
aF0.778
aI0
aI2
aI2
aI5
aI0
aI0
aI5
aI1
aI24
aI8
aa(lp309
V0020601170
p310
aVAPR 11, 2007
p311
aVDEN @ UTA
p312
aVW
p313
aI45
aI7
aI16
aF0.438
aI2
aI6
aF0.333
aI6
aI8
aF0.75
aI0
aI5
aI5
aI12
aI1
aI0
aI3
aI0
aI22
aI7
aa(lp314
V0020601180
p315
aVAPR 13, 2007
p316
aVDEN @ NOK
p317
aVW
p318
aI42
aI9
aI21
aF0.429
aI1
aI3
aF0.333
aI4
aI7
aF0.571
aI0
aI0
aI0
aI7
aI1
aI0
aI1
aI3
aI23
aI-7
aa(lp319
V0020601189
p320
aVAPR 14, 2007
p321
aVDEN @ MEM
p322
aVL
p323
aI40
aI7
aI15
aF0.467
aI2
aI4
aF0.5
aI0
aI0
aF0.0
aI0
aI2
aI2
aI5
aI2
aI0
aI6
aI3
aI16
aI-10
aa(lp324
V0020601208
p325
aVAPR 16, 2007
p326
aVDEN vs. MIN
p327
aVW
p328
aI33
aI10
aI17
aF0.588
aI1
aI2
aF0.5
aI4
aI6
aF0.667
aI0
aI1
aI1
aI3
aI3
aI1
aI3
aI2
aI25
aI24
aasS'name'
p329
VAllen Iverson
p330
sS'experience'
p331
I10
s.