(dp0
S'age'
p1
I31
sS'stats'
p2
(lp3
(lp4
V0020600022
p5
aVNOV 03, 2006
p6
aVATL vs. NYK
p7
aVW
p8
aI15
aI1
aI4
aF0.25
aI0
aI0
aF0.0
aI1
aI2
aF0.5
aI0
aI3
aI3
aI0
aI0
aI0
aI0
aI3
aI3
aI8
aa(lp9
V0020600042
p10
aVNOV 05, 2006
p11
aVATL vs. ORL
p12
aVW
p13
aI21
aI4
aI7
aF0.571
aI0
aI0
aF0.0
aI0
aI0
aF0.0
aI1
aI3
aI4
aI0
aI0
aI0
aI0
aI3
aI8
aI4
aa(lp14
V0020600052
p15
aVNOV 07, 2006
p16
aVATL @ CLE
p17
aVW
p18
aI15
aI2
aI4
aF0.5
aI0
aI0
aF0.0
aI0
aI0
aF0.0
aI1
aI2
aI3
aI0
aI0
aI0
aI2
aI3
aI4
aI-1
aa(lp19
V0020600072
p20
aVNOV 10, 2006
p21
aVATL @ TOR
p22
aVW
p23
aI18
aI1
aI2
aF0.5
aI0
aI0
aF0.0
aI0
aI0
aF0.0
aI1
aI3
aI4
aI0
aI0
aI0
aI0
aI1
aI2
aI-10
aa(lp24
V0020600082
p25
aVNOV 11, 2006
p26
aVATL vs. SEA
p27
aVL
p28
aI8
aI1
aI1
aF1.0
aI0
aI0
aF0.0
aI1
aI2
aF0.5
aI0
aI2
aI2
aI0
aI0
aI0
aI0
aI4
aI3
aI10
aa(lp29
V0020600100
p30
aVNOV 14, 2006
p31
aVATL vs. MIL
p32
aVL
p33
aI21
aI2
aI4
aF0.5
aI0
aI0
aF0.0
aI0
aI2
aF0.0
aI3
aI5
aI8
aI0
aI1
aI1
aI1
aI3
aI4
aI11
aa(lp34
V0020600130
p35
aVNOV 18, 2006
p36
aVATL vs. MIA
p37
aVL
p38
aI26
aI3
aI6
aF0.5
aI0
aI0
aF0.0
aI0
aI1
aF0.0
aI2
aI4
aI6
aI1
aI1
aI0
aI1
aI6
aI6
aI5
aa(lp39
V0020600161
p40
aVNOV 22, 2006
p41
aVATL @ DET
p42
aVL
p43
aI8
aI0
aI2
aF0.0
aI0
aI0
aF0.0
aI0
aI0
aF0.0
aI0
aI1
aI1
aI1
aI0
aI0
aI0
aI3
aI0
aI2
aa(lp44
V0020600173
p45
aVNOV 24, 2006
p46
aVATL vs. TOR
p47
aVW
p48
aI15
aI1
aI1
aF1.0
aI0
aI0
aF0.0
aI0
aI0
aF0.0
aI2
aI5
aI7
aI1
aI0
aI0
aI0
aI3
aI2
aI5
aa(lp49
V0020600204
p50
aVNOV 28, 2006
p51
aVATL @ WAS
p52
aVL
p53
aI14
aI1
aI2
aF0.5
aI0
aI0
aF0.0
aI0
aI0
aF0.0
aI0
aI1
aI1
aI1
aI0
aI0
aI1
aI3
aI2
aI0
aa(lp54
V0020600226
p55
aVDEC 01, 2006
p56
aVATL vs. CLE
p57
aVL
p58
aI1
aI1
aI1
aF1.0
aI0
aI0
aF0.0
aI0
aI0
aF0.0
aI0
aI1
aI1
aI0
aI1
aI0
aI1
aI4
aI2
aI-2
aa(lp59
V0020600246
p60
aVDEC 03, 2006
p61
aVATL @ POR
p62
aVW
p63
aI16
aI1
aI4
aF0.25
aI0
aI0
aF0.0
aI0
aI0
aF0.0
aI1
aI1
aI2
aI0
aI0
aI0
aI0
aI3
aI2
aI-12
aa(lp64
V0020600259
p65
aVDEC 05, 2006
p66
aVATL @ SEA
p67
aVL
p68
aI22
aI2
aI4
aF0.5
aI0
aI0
aF0.0
aI0
aI0
aF0.0
aI3
aI0
aI3
aI2
aI3
aI0
aI2
aI2
aI4
aI-6
aa(lp69
V0020600269
p70
aVDEC 06, 2006
p71
aVATL @ DEN
p72
aVW
p73
aI20
aI2
aI6
aF0.333
aI0
aI0
aF0.0
aI0
aI0
aF0.0
aI2
aI4
aI6
aI0
aI0
aI0
aI1
aI2
aI4
aI-4
aa(lp74
V0020600284
p75
aVDEC 08, 2006
p76
aVATL @ LAL
p77
aVL
p78
aI12
aI1
aI1
aF1.0
aI0
aI0
aF0.0
aI0
aI2
aF0.0
aI0
aI2
aI2
aI1
aI1
aI0
aI1
aI3
aI2
aI-10
aa(lp79
V0020600297
p80
aVDEC 10, 2006
p81
aVATL @ SAC
p82
aVL
p83
aI36
aI1
aI2
aF0.5
aI0
aI0
aF0.0
aI0
aI0
aF0.0
aI0
aI1
aI1
aI0
aI0
aI0
aI0
aI2
aI2
aI-12
aa(lp84
V0020600309
p85
aVDEC 12, 2006
p86
aVATL vs. DEN
p87
aVL
p88
aI18
aI1
aI2
aF0.5
aI0
aI0
aF0.0
aI2
aI4
aF0.5
aI1
aI4
aI5
aI0
aI1
aI0
aI1
aI5
aI4
aI-13
aa(lp89
V0020600320
p90
aVDEC 13, 2006
p91
aVATL @ NYK
p92
aVL
p93
aI13
aI1
aI3
aF0.333
aI0
aI0
aF0.0
aI0
aI0
aF0.0
aI1
aI1
aI2
aI0
aI0
aI0
aI1
aI5
aI2
aI-9
aa(lp94
V0020600334
p95
aVDEC 15, 2006
p96
aVATL @ MEM
p97
aVW
p98
aI9
aI0
aI1
aF0.0
aI0
aI0
aF0.0
aI0
aI2
aF0.0
aI1
aI1
aI2
aI0
aI0
aI1
aI1
aI4
aI0
aI-4
aa(lp99
V0020600342
p100
aVDEC 16, 2006
p101
aVATL vs. CHI
p102
aVL
p103
aI16
aI2
aI3
aF0.667
aI0
aI0
aF0.0
aI0
aI0
aF0.0
aI4
aI1
aI5
aI1
aI0
aI1
aI1
aI4
aI4
aI3
aa(lp104
V0020600365
p105
aVDEC 20, 2006
p106
aVATL vs. UTA
p107
aVL
p108
aI7
aI2
aI3
aF0.667
aI0
aI0
aF0.0
aI0
aI0
aF0.0
aI1
aI0
aI1
aI0
aI0
aI1
aI2
aI5
aI4
aI-9
aa(lp109
V0020600383
p110
aVDEC 22, 2006
p111
aVATL vs. IND
p112
aVL
p113
aI24
aI2
aI3
aF0.667
aI0
aI0
aF0.0
aI0
aI0
aF0.0
aI1
aI3
aI4
aI0
aI1
aI1
aI1
aI2
aI4
aI-7
aa(lp114
V0020600395
p115
aVDEC 23, 2006
p116
aVATL @ DET
p117
aVL
p118
aI25
aI2
aI8
aF0.25
aI0
aI0
aF0.0
aI0
aI0
aF0.0
aI2
aI0
aI2
aI1
aI0
aI2
aI0
aI5
aI4
aI-7
aa(lp119
V0020600417
p120
aVDEC 27, 2006
p121
aVATL vs. CLE
p122
aVL
p123
aI17
aI3
aI5
aF0.6
aI0
aI0
aF0.0
aI2
aI2
aF1.0
aI3
aI3
aI6
aI0
aI1
aI2
aI0
aI1
aI8
aI-2
aa(lp124
V0020600479
p125
aVJAN 05, 2007
p126
aVATL @ TOR
p127
aVL
p128
aI10
aI0
aI3
aF0.0
aI0
aI0
aF0.0
aI0
aI0
aF0.0
aI1
aI2
aI3
aI1
aI0
aI0
aI1
aI4
aI0
aI0
aa(lp129
V0020600491
p130
aVJAN 06, 2007
p131
aVATL vs. LAC
p132
aVW
p133
aI27
aI0
aI6
aF0.0
aI0
aI0
aF0.0
aI0
aI2
aF0.0
aI1
aI7
aI8
aI1
aI0
aI0
aI1
aI4
aI0
aI3
aa(lp134
V0020600509
p135
aVJAN 09, 2007
p136
aVATL @ IND
p137
aVL
p138
aI28
aI1
aI5
aF0.2
aI0
aI0
aF0.0
aI1
aI2
aF0.5
aI3
aI5
aI8
aI1
aI1
aI2
aI1
aI5
aI3
aI-14
aa(lp139
V0020600517
p140
aVJAN 10, 2007
p141
aVATL vs. NOK
p142
aVL
p143
aI17
aI0
aI4
aF0.0
aI0
aI0
aF0.0
aI0
aI0
aF0.0
aI1
aI2
aI3
aI1
aI1
aI0
aI0
aI1
aI0
aI-1
aa(lp144
V0020600534
p145
aVJAN 12, 2007
p146
aVATL vs. DET
p147
aVW
p148
aI21
aI2
aI7
aF0.286
aI0
aI0
aF0.0
aI0
aI0
aF0.0
aI4
aI2
aI6
aI3
aI1
aI0
aI0
aI1
aI4
aI1
aa(lp149
V0020600558
p150
aVJAN 15, 2007
p151
aVATL vs. BOS
p152
aVW
p153
aI19
aI2
aI4
aF0.5
aI0
aI0
aF0.0
aI1
aI2
aF0.5
aI2
aI4
aI6
aI0
aI0
aI0
aI0
aI1
aI5
aI2
aa(lp154
V0020600574
p155
aVJAN 17, 2007
p156
aVATL @ MIN
p157
aVW
p158
aI26
aI3
aI3
aF1.0
aI0
aI0
aF0.0
aI0
aI2
aF0.0
aI3
aI3
aI6
aI2
aI0
aI0
aI0
aI5
aI6
aI17
aa(lp159
V0020600586
p160
aVJAN 19, 2007
p161
aVATL vs. CHA
p162
aVL
p163
aI15
aI1
aI1
aF1.0
aI0
aI0
aF0.0
aI0
aI0
aF0.0
aI1
aI1
aI2
aI0
aI0
aI0
aI2
aI3
aI2
aI-10
aa(lp164
V0020600593
p165
aVJAN 20, 2007
p166
aVATL @ CHA
p167
aVL
p168
aI14
aI3
aI4
aF0.75
aI0
aI0
aF0.0
aI0
aI0
aF0.0
aI2
aI0
aI2
aI1
aI0
aI1
aI1
aI5
aI6
aI-7
aa(lp169
V0020600618
p170
aVJAN 23, 2007
p171
aVATL @ CHI
p172
aVL
p173
aI18
aI1
aI4
aF0.25
aI0
aI0
aF0.0
aI0
aI1
aF0.0
aI1
aI1
aI2
aI0
aI2
aI1
aI0
aI3
aI2
aI-3
aa(lp174
V0020600625
p175
aVJAN 24, 2007
p176
aVATL @ BOS
p177
aVW
p178
aI14
aI0
aI3
aF0.0
aI0
aI0
aF0.0
aI0
aI0
aF0.0
aI1
aI2
aI3
aI2
aI0
aI3
aI0
aI3
aI0
aI-2
aa(lp179
V0020600636
p180
aVJAN 26, 2007
p181
aVATL @ ORL
p182
aVW
p183
aI25
aI1
aI1
aF1.0
aI0
aI0
aF0.0
aI0
aI0
aF0.0
aI1
aI0
aI1
aI1
aI0
aI1
aI1
aI6
aI2
aI1
aa(lp184
V0020600646
p185
aVJAN 27, 2007
p186
aVATL vs. PHI
p187
aVL
p188
aI19
aI1
aI5
aF0.2
aI0
aI0
aF0.0
aI0
aI0
aF0.0
aI1
aI2
aI3
aI1
aI0
aI0
aI1
aI2
aI2
aI-4
aa(lp189
V0020600661
p190
aVJAN 29, 2007
p191
aVATL vs. ORL
p192
aVW
p193
aI25
aI1
aI3
aF0.333
aI0
aI0
aF0.0
aI0
aI0
aF0.0
aI0
aI4
aI4
aI1
aI0
aI0
aI0
aI6
aI2
aI16
aa(lp194
V0020600676
p195
aVJAN 31, 2007
p196
aVATL vs. GSW
p197
aVW
p198
aI17
aI1
aI3
aF0.333
aI0
aI0
aF0.0
aI0
aI0
aF0.0
aI2
aI5
aI7
aI1
aI0
aI1
aI3
aI3
aI2
aI9
aa(lp199
V0020600693
p200
aVFEB 02, 2007
p201
aVATL vs. TOR
p202
aVL
p203
aI16
aI0
aI0
aF0.0
aI0
aI0
aF0.0
aI0
aI0
aF0.0
aI1
aI1
aI2
aI0
aI1
aI0
aI0
aI4
aI0
aI-3
aa(lp204
V0020600710
p205
aVFEB 04, 2007
p206
aVATL @ NJN
p207
aVW
p208
aI18
aI1
aI3
aF0.333
aI0
aI0
aF0.0
aI0
aI0
aF0.0
aI2
aI2
aI4
aI1
aI0
aI0
aI1
aI1
aI2
aI-12
aa(lp209
V0020600714
p210
aVFEB 05, 2007
p211
aVATL vs. LAL
p212
aVL
p213
aI15
aI1
aI1
aF1.0
aI0
aI0
aF0.0
aI0
aI0
aF0.0
aI3
aI2
aI5
aI0
aI0
aI1
aI0
aI3
aI2
aI-7
aa(lp214
V0020600728
p215
aVFEB 07, 2007
p216
aVATL vs. NJN
p217
aVL
p218
aI14
aI0
aI0
aF0.0
aI0
aI0
aF0.0
aI0
aI0
aF0.0
aI2
aI1
aI3
aI0
aI0
aI1
aI0
aI1
aI0
aI-2
aa(lp219
V0020600747
p220
aVFEB 09, 2007
p221
aVATL @ PHX
p222
aVW
p223
aI19
aI2
aI2
aF1.0
aI0
aI0
aF0.0
aI0
aI0
aF0.0
aI3
aI1
aI4
aI1
aI0
aI0
aI0
aI6
aI4
aI9
aa(lp224
V0020600763
p225
aVFEB 11, 2007
p226
aVATL @ GSW
p227
aVW
p228
aI18
aI4
aI5
aF0.8
aI0
aI0
aF0.0
aI0
aI0
aF0.0
aI2
aI2
aI4
aI1
aI2
aI2
aI2
aI3
aI8
aI11
aa(lp229
V0020600767
p230
aVFEB 12, 2007
p231
aVATL @ UTA
p232
aVL
p233
aI19
aI0
aI1
aF0.0
aI0
aI0
aF0.0
aI0
aI0
aF0.0
aI1
aI1
aI2
aI0
aI0
aI0
aI2
aI3
aI0
aI-20
aa(lp234
V0020600786
p235
aVFEB 14, 2007
p236
aVATL @ LAC
p237
aVW
p238
aI18
aI2
aI5
aF0.4
aI0
aI0
aF0.0
aI0
aI0
aF0.0
aI2
aI5
aI7
aI1
aI3
aI0
aI0
aI3
aI4
aI-4
aa(lp239
V0020600795
p240
aVFEB 20, 2007
p241
aVATL @ CHI
p242
aVL
p243
aI16
aI2
aI2
aF1.0
aI0
aI0
aF0.0
aI0
aI2
aF0.0
aI0
aI1
aI1
aI1
aI1
aI0
aI1
aI3
aI4
aI-11
aa(lp244
V0020600802
p245
aVFEB 21, 2007
p246
aVATL vs. SAS
p247
aVL
p248
aI15
aI0
aI0
aF0.0
aI0
aI0
aF0.0
aI0
aI0
aF0.0
aI2
aI2
aI4
aI0
aI1
aI0
aI0
aI3
aI0
aI-4
aa(lp249
V0020600819
p250
aVFEB 23, 2007
p251
aVATL vs. HOU
p252
aVW
p253
aI13
aI0
aI1
aF0.0
aI0
aI0
aF0.0
aI0
aI0
aF0.0
aI1
aI2
aI3
aI1
aI0
aI0
aI0
aI1
aI0
aI-7
aa(lp254
V0020600833
p255
aVFEB 25, 2007
p256
aVATL vs. PHX
p257
aVL
p258
aI12
aI3
aI4
aF0.75
aI0
aI0
aF0.0
aI0
aI0
aF0.0
aI2
aI2
aI4
aI1
aI0
aI1
aI1
aI4
aI6
aI11
aa(lp259
V0020600846
p260
aVFEB 26, 2007
p261
aVATL @ DAL
p262
aVL
p263
aI7
aI0
aI0
aF0.0
aI0
aI0
aF0.0
aI0
aI0
aF0.0
aI0
aI3
aI3
aI0
aI0
aI0
aI0
aI3
aI0
aI-2
aa(lp264
V0020600859
p265
aVFEB 28, 2007
p266
aVATL @ NOK
p267
aVL
p268
aI13
aI0
aI0
aF0.0
aI0
aI0
aF0.0
aI0
aI0
aF0.0
aI0
aI4
aI4
aI1
aI0
aI1
aI0
aI4
aI0
aI7
aa(lp269
V0020600870
p270
aVMAR 02, 2007
p271
aVATL @ WAS
p272
aVL
p273
aI9
aI0
aI0
aF0.0
aI0
aI0
aF0.0
aI0
aI0
aF0.0
aI0
aI0
aI0
aI0
aI1
aI0
aI1
aI1
aI0
aI0
aa(lp274
V0020600896
p275
aVMAR 05, 2007
p276
aVATL @ MIA
p277
aVL
p278
aI11
aI0
aI1
aF0.0
aI0
aI0
aF0.0
aI0
aI0
aF0.0
aI0
aI0
aI0
aI0
aI0
aI0
aI0
aI4
aI0
aI-8
aa(lp279
V0020600921
p280
aVMAR 09, 2007
p281
aVATL vs. MEM
p282
aVW
p283
aI6
aI0
aI0
aF0.0
aI0
aI0
aF0.0
aI0
aI0
aF0.0
aI1
aI1
aI2
aI0
aI0
aI0
aI0
aI0
aI0
aI6
aa(lp284
V0020600962
p285
aVMAR 14, 2007
p286
aVATL @ BOS
p287
aVL
p288
aI7
aI0
aI2
aF0.0
aI0
aI0
aF0.0
aI0
aI0
aF0.0
aI1
aI1
aI2
aI0
aI0
aI0
aI0
aI1
aI0
aI-4
aa(lp289
V0020601008
p290
aVMAR 21, 2007
p291
aVATL vs. MIA
p292
aVL
p293
aI14
aI0
aI0
aF0.0
aI0
aI0
aF0.0
aI0
aI0
aF0.0
aI3
aI2
aI5
aI2
aI0
aI0
aI2
aI4
aI0
aI0
aa(lp294
V0020601036
p295
aVMAR 25, 2007
p296
aVATL vs. DAL
p297
aVL
p298
aI6
aI1
aI1
aF1.0
aI0
aI0
aF0.0
aI0
aI0
aF0.0
aI0
aI0
aI0
aI1
aI0
aI0
aI0
aI3
aI2
aI-7
aa(lp299
V0020601047
p300
aVMAR 26, 2007
p301
aVATL @ MIA
p302
aVL
p303
aI6
aI1
aI2
aF0.5
aI0
aI0
aF0.0
aI0
aI0
aF0.0
aI0
aI1
aI1
aI0
aI0
aI0
aI0
aI4
aI2
aI-13
aa(lp304
V0020601060
p305
aVMAR 28, 2007
p306
aVATL @ CHA
p307
aVL
p308
aI17
aI5
aI6
aF0.833
aI0
aI0
aF0.0
aI0
aI1
aF0.0
aI3
aI2
aI5
aI1
aI1
aI0
aI0
aI4
aI10
aI3
aa(lp309
V0020601110
p310
aVAPR 04, 2007
p311
aVATL @ NJN
p312
aVL
p313
aI6
aI2
aI2
aF1.0
aI0
aI0
aF0.0
aI0
aI0
aF0.0
aI1
aI1
aI2
aI0
aI0
aI0
aI1
aI2
aI4
aI1
aa(lp314
V0020601125
p315
aVAPR 06, 2007
p316
aVATL vs. MIL
p317
aVW
p318
aI19
aI3
aI5
aF0.6
aI0
aI0
aF0.0
aI0
aI1
aF0.0
aI0
aI2
aI2
aI1
aI1
aI2
aI0
aI2
aI6
aI-14
aa(lp319
V0020601147
p320
aVAPR 08, 2007
p321
aVATL @ PHI
p322
aVL
p323
aI12
aI1
aI3
aF0.333
aI0
aI0
aF0.0
aI1
aI2
aF0.5
aI0
aI1
aI1
aI1
aI2
aI1
aI0
aI2
aI3
aI1
aa(lp324
V0020601178
p325
aVAPR 13, 2007
p326
aVATL vs. WAS
p327
aVL
p328
aI13
aI0
aI1
aF0.0
aI0
aI0
aF0.0
aI0
aI0
aF0.0
aI1
aI0
aI1
aI1
aI0
aI0
aI0
aI2
aI0
aI-3
aa(lp329
V0020601188
p330
aVAPR 14, 2007
p331
aVATL @ CLE
p332
aVL
p333
aI10
aI0
aI0
aF0.0
aI0
aI0
aF0.0
aI0
aI0
aF0.0
aI0
aI0
aI0
aI0
aI0
aI1
aI0
aI1
aI0
aI-10
aa(lp334
V0020601205
p335
aVAPR 16, 2007
p336
aVATL @ MIL
p337
aVL
p338
aI3
aI0
aI1
aF0.0
aI0
aI0
aF0.0
aI0
aI0
aF0.0
aI0
aI0
aI0
aI0
aI0
aI0
aI0
aI1
aI0
aI-4
aasS'name'
p339
VLorenzen Wright
p340
sS'experience'
p341
I10
s.