(dp0
S'age'
p1
I31
sS'stats'
p2
(lp3
(lp4
V0020601205
p5
aVAPR 16, 2007
p6
aVATL @ MIL
p7
aVL
p8
aI3
aI0
aI1
aF0.0
aI0
aI0
aF0.0
aI0
aI0
aF0.0
aI0
aI0
aI0
aI0
aI0
aI0
aI0
aI1
aI0
aI-4
aa(lp9
V0020601188
p10
aVAPR 14, 2007
p11
aVATL @ CLE
p12
aVL
p13
aI10
aI0
aI0
aF0.0
aI0
aI0
aF0.0
aI0
aI0
aF0.0
aI0
aI0
aI0
aI0
aI0
aI1
aI0
aI1
aI0
aI-10
aa(lp14
V0020601178
p15
aVAPR 13, 2007
p16
aVATL vs. WAS
p17
aVL
p18
aI13
aI0
aI1
aF0.0
aI0
aI0
aF0.0
aI0
aI0
aF0.0
aI1
aI0
aI1
aI1
aI0
aI0
aI0
aI2
aI0
aI-3
aa(lp19
V0020601147
p20
aVAPR 08, 2007
p21
aVATL @ PHI
p22
aVL
p23
aI12
aI1
aI3
aF0.333
aI0
aI0
aF0.0
aI1
aI2
aF0.5
aI0
aI1
aI1
aI1
aI2
aI1
aI0
aI2
aI3
aI1
aa(lp24
V0020601125
p25
aVAPR 06, 2007
p26
aVATL vs. MIL
p27
aVW
p28
aI19
aI3
aI5
aF0.6
aI0
aI0
aF0.0
aI0
aI1
aF0.0
aI0
aI2
aI2
aI1
aI1
aI2
aI0
aI2
aI6
aI-14
aa(lp29
V0020601110
p30
aVAPR 04, 2007
p31
aVATL @ NJN
p32
aVL
p33
aI6
aI2
aI2
aF1.0
aI0
aI0
aF0.0
aI0
aI0
aF0.0
aI1
aI1
aI2
aI0
aI0
aI0
aI1
aI2
aI4
aI1
aa(lp34
V0020601060
p35
aVMAR 28, 2007
p36
aVATL @ CHA
p37
aVL
p38
aI17
aI5
aI6
aF0.833
aI0
aI0
aF0.0
aI0
aI1
aF0.0
aI3
aI2
aI5
aI1
aI1
aI0
aI0
aI4
aI10
aI3
aa(lp39
V0020601047
p40
aVMAR 26, 2007
p41
aVATL @ MIA
p42
aVL
p43
aI6
aI1
aI2
aF0.5
aI0
aI0
aF0.0
aI0
aI0
aF0.0
aI0
aI1
aI1
aI0
aI0
aI0
aI0
aI4
aI2
aI-13
aa(lp44
V0020601036
p45
aVMAR 25, 2007
p46
aVATL vs. DAL
p47
aVL
p48
aI6
aI1
aI1
aF1.0
aI0
aI0
aF0.0
aI0
aI0
aF0.0
aI0
aI0
aI0
aI1
aI0
aI0
aI0
aI3
aI2
aI-7
aa(lp49
V0020601008
p50
aVMAR 21, 2007
p51
aVATL vs. MIA
p52
aVL
p53
aI14
aI0
aI0
aF0.0
aI0
aI0
aF0.0
aI0
aI0
aF0.0
aI3
aI2
aI5
aI2
aI0
aI0
aI2
aI4
aI0
aI0
aa(lp54
V0020600962
p55
aVMAR 14, 2007
p56
aVATL @ BOS
p57
aVL
p58
aI7
aI0
aI2
aF0.0
aI0
aI0
aF0.0
aI0
aI0
aF0.0
aI1
aI1
aI2
aI0
aI0
aI0
aI0
aI1
aI0
aI-4
aa(lp59
V0020600921
p60
aVMAR 09, 2007
p61
aVATL vs. MEM
p62
aVW
p63
aI6
aI0
aI0
aF0.0
aI0
aI0
aF0.0
aI0
aI0
aF0.0
aI1
aI1
aI2
aI0
aI0
aI0
aI0
aI0
aI0
aI6
aa(lp64
V0020600896
p65
aVMAR 05, 2007
p66
aVATL @ MIA
p67
aVL
p68
aI11
aI0
aI1
aF0.0
aI0
aI0
aF0.0
aI0
aI0
aF0.0
aI0
aI0
aI0
aI0
aI0
aI0
aI0
aI4
aI0
aI-8
aa(lp69
V0020600870
p70
aVMAR 02, 2007
p71
aVATL @ WAS
p72
aVL
p73
aI9
aI0
aI0
aF0.0
aI0
aI0
aF0.0
aI0
aI0
aF0.0
aI0
aI0
aI0
aI0
aI1
aI0
aI1
aI1
aI0
aI0
aa(lp74
V0020600859
p75
aVFEB 28, 2007
p76
aVATL @ NOK
p77
aVL
p78
aI13
aI0
aI0
aF0.0
aI0
aI0
aF0.0
aI0
aI0
aF0.0
aI0
aI4
aI4
aI1
aI0
aI1
aI0
aI4
aI0
aI7
aa(lp79
V0020600846
p80
aVFEB 26, 2007
p81
aVATL @ DAL
p82
aVL
p83
aI7
aI0
aI0
aF0.0
aI0
aI0
aF0.0
aI0
aI0
aF0.0
aI0
aI3
aI3
aI0
aI0
aI0
aI0
aI3
aI0
aI-2
aa(lp84
V0020600833
p85
aVFEB 25, 2007
p86
aVATL vs. PHX
p87
aVL
p88
aI12
aI3
aI4
aF0.75
aI0
aI0
aF0.0
aI0
aI0
aF0.0
aI2
aI2
aI4
aI1
aI0
aI1
aI1
aI4
aI6
aI11
aa(lp89
V0020600819
p90
aVFEB 23, 2007
p91
aVATL vs. HOU
p92
aVW
p93
aI13
aI0
aI1
aF0.0
aI0
aI0
aF0.0
aI0
aI0
aF0.0
aI1
aI2
aI3
aI1
aI0
aI0
aI0
aI1
aI0
aI-7
aa(lp94
V0020600802
p95
aVFEB 21, 2007
p96
aVATL vs. SAS
p97
aVL
p98
aI15
aI0
aI0
aF0.0
aI0
aI0
aF0.0
aI0
aI0
aF0.0
aI2
aI2
aI4
aI0
aI1
aI0
aI0
aI3
aI0
aI-4
aa(lp99
V0020600795
p100
aVFEB 20, 2007
p101
aVATL @ CHI
p102
aVL
p103
aI16
aI2
aI2
aF1.0
aI0
aI0
aF0.0
aI0
aI2
aF0.0
aI0
aI1
aI1
aI1
aI1
aI0
aI1
aI3
aI4
aI-11
aa(lp104
V0020600786
p105
aVFEB 14, 2007
p106
aVATL @ LAC
p107
aVW
p108
aI18
aI2
aI5
aF0.4
aI0
aI0
aF0.0
aI0
aI0
aF0.0
aI2
aI5
aI7
aI1
aI3
aI0
aI0
aI3
aI4
aI-4
aa(lp109
V0020600767
p110
aVFEB 12, 2007
p111
aVATL @ UTA
p112
aVL
p113
aI19
aI0
aI1
aF0.0
aI0
aI0
aF0.0
aI0
aI0
aF0.0
aI1
aI1
aI2
aI0
aI0
aI0
aI2
aI3
aI0
aI-20
aa(lp114
V0020600763
p115
aVFEB 11, 2007
p116
aVATL @ GSW
p117
aVW
p118
aI18
aI4
aI5
aF0.8
aI0
aI0
aF0.0
aI0
aI0
aF0.0
aI2
aI2
aI4
aI1
aI2
aI2
aI2
aI3
aI8
aI11
aa(lp119
V0020600747
p120
aVFEB 09, 2007
p121
aVATL @ PHX
p122
aVW
p123
aI19
aI2
aI2
aF1.0
aI0
aI0
aF0.0
aI0
aI0
aF0.0
aI3
aI1
aI4
aI1
aI0
aI0
aI0
aI6
aI4
aI9
aa(lp124
V0020600728
p125
aVFEB 07, 2007
p126
aVATL vs. NJN
p127
aVL
p128
aI14
aI0
aI0
aF0.0
aI0
aI0
aF0.0
aI0
aI0
aF0.0
aI2
aI1
aI3
aI0
aI0
aI1
aI0
aI1
aI0
aI-2
aa(lp129
V0020600714
p130
aVFEB 05, 2007
p131
aVATL vs. LAL
p132
aVL
p133
aI15
aI1
aI1
aF1.0
aI0
aI0
aF0.0
aI0
aI0
aF0.0
aI3
aI2
aI5
aI0
aI0
aI1
aI0
aI3
aI2
aI-7
aa(lp134
V0020600710
p135
aVFEB 04, 2007
p136
aVATL @ NJN
p137
aVW
p138
aI18
aI1
aI3
aF0.333
aI0
aI0
aF0.0
aI0
aI0
aF0.0
aI2
aI2
aI4
aI1
aI0
aI0
aI1
aI1
aI2
aI-12
aa(lp139
V0020600693
p140
aVFEB 02, 2007
p141
aVATL vs. TOR
p142
aVL
p143
aI16
aI0
aI0
aF0.0
aI0
aI0
aF0.0
aI0
aI0
aF0.0
aI1
aI1
aI2
aI0
aI1
aI0
aI0
aI4
aI0
aI-3
aa(lp144
V0020600676
p145
aVJAN 31, 2007
p146
aVATL vs. GSW
p147
aVW
p148
aI17
aI1
aI3
aF0.333
aI0
aI0
aF0.0
aI0
aI0
aF0.0
aI2
aI5
aI7
aI1
aI0
aI1
aI3
aI3
aI2
aI9
aa(lp149
V0020600661
p150
aVJAN 29, 2007
p151
aVATL vs. ORL
p152
aVW
p153
aI25
aI1
aI3
aF0.333
aI0
aI0
aF0.0
aI0
aI0
aF0.0
aI0
aI4
aI4
aI1
aI0
aI0
aI0
aI6
aI2
aI16
aa(lp154
V0020600646
p155
aVJAN 27, 2007
p156
aVATL vs. PHI
p157
aVL
p158
aI19
aI1
aI5
aF0.2
aI0
aI0
aF0.0
aI0
aI0
aF0.0
aI1
aI2
aI3
aI1
aI0
aI0
aI1
aI2
aI2
aI-4
aa(lp159
V0020600636
p160
aVJAN 26, 2007
p161
aVATL @ ORL
p162
aVW
p163
aI25
aI1
aI1
aF1.0
aI0
aI0
aF0.0
aI0
aI0
aF0.0
aI1
aI0
aI1
aI1
aI0
aI1
aI1
aI6
aI2
aI1
aa(lp164
V0020600625
p165
aVJAN 24, 2007
p166
aVATL @ BOS
p167
aVW
p168
aI14
aI0
aI3
aF0.0
aI0
aI0
aF0.0
aI0
aI0
aF0.0
aI1
aI2
aI3
aI2
aI0
aI3
aI0
aI3
aI0
aI-2
aa(lp169
V0020600618
p170
aVJAN 23, 2007
p171
aVATL @ CHI
p172
aVL
p173
aI18
aI1
aI4
aF0.25
aI0
aI0
aF0.0
aI0
aI1
aF0.0
aI1
aI1
aI2
aI0
aI2
aI1
aI0
aI3
aI2
aI-3
aa(lp174
V0020600593
p175
aVJAN 20, 2007
p176
aVATL @ CHA
p177
aVL
p178
aI14
aI3
aI4
aF0.75
aI0
aI0
aF0.0
aI0
aI0
aF0.0
aI2
aI0
aI2
aI1
aI0
aI1
aI1
aI5
aI6
aI-7
aa(lp179
V0020600586
p180
aVJAN 19, 2007
p181
aVATL vs. CHA
p182
aVL
p183
aI15
aI1
aI1
aF1.0
aI0
aI0
aF0.0
aI0
aI0
aF0.0
aI1
aI1
aI2
aI0
aI0
aI0
aI2
aI3
aI2
aI-10
aa(lp184
V0020600574
p185
aVJAN 17, 2007
p186
aVATL @ MIN
p187
aVW
p188
aI26
aI3
aI3
aF1.0
aI0
aI0
aF0.0
aI0
aI2
aF0.0
aI3
aI3
aI6
aI2
aI0
aI0
aI0
aI5
aI6
aI17
aa(lp189
V0020600558
p190
aVJAN 15, 2007
p191
aVATL vs. BOS
p192
aVW
p193
aI19
aI2
aI4
aF0.5
aI0
aI0
aF0.0
aI1
aI2
aF0.5
aI2
aI4
aI6
aI0
aI0
aI0
aI0
aI1
aI5
aI2
aa(lp194
V0020600534
p195
aVJAN 12, 2007
p196
aVATL vs. DET
p197
aVW
p198
aI21
aI2
aI7
aF0.286
aI0
aI0
aF0.0
aI0
aI0
aF0.0
aI4
aI2
aI6
aI3
aI1
aI0
aI0
aI1
aI4
aI1
aa(lp199
V0020600517
p200
aVJAN 10, 2007
p201
aVATL vs. NOK
p202
aVL
p203
aI17
aI0
aI4
aF0.0
aI0
aI0
aF0.0
aI0
aI0
aF0.0
aI1
aI2
aI3
aI1
aI1
aI0
aI0
aI1
aI0
aI-1
aa(lp204
V0020600509
p205
aVJAN 09, 2007
p206
aVATL @ IND
p207
aVL
p208
aI28
aI1
aI5
aF0.2
aI0
aI0
aF0.0
aI1
aI2
aF0.5
aI3
aI5
aI8
aI1
aI1
aI2
aI1
aI5
aI3
aI-14
aa(lp209
V0020600491
p210
aVJAN 06, 2007
p211
aVATL vs. LAC
p212
aVW
p213
aI27
aI0
aI6
aF0.0
aI0
aI0
aF0.0
aI0
aI2
aF0.0
aI1
aI7
aI8
aI1
aI0
aI0
aI1
aI4
aI0
aI3
aa(lp214
V0020600479
p215
aVJAN 05, 2007
p216
aVATL @ TOR
p217
aVL
p218
aI10
aI0
aI3
aF0.0
aI0
aI0
aF0.0
aI0
aI0
aF0.0
aI1
aI2
aI3
aI1
aI0
aI0
aI1
aI4
aI0
aI0
aa(lp219
V0020600417
p220
aVDEC 27, 2006
p221
aVATL vs. CLE
p222
aVL
p223
aI17
aI3
aI5
aF0.6
aI0
aI0
aF0.0
aI2
aI2
aF1.0
aI3
aI3
aI6
aI0
aI1
aI2
aI0
aI1
aI8
aI-2
aa(lp224
V0020600395
p225
aVDEC 23, 2006
p226
aVATL @ DET
p227
aVL
p228
aI25
aI2
aI8
aF0.25
aI0
aI0
aF0.0
aI0
aI0
aF0.0
aI2
aI0
aI2
aI1
aI0
aI2
aI0
aI5
aI4
aI-7
aa(lp229
V0020600383
p230
aVDEC 22, 2006
p231
aVATL vs. IND
p232
aVL
p233
aI24
aI2
aI3
aF0.667
aI0
aI0
aF0.0
aI0
aI0
aF0.0
aI1
aI3
aI4
aI0
aI1
aI1
aI1
aI2
aI4
aI-7
aa(lp234
V0020600365
p235
aVDEC 20, 2006
p236
aVATL vs. UTA
p237
aVL
p238
aI7
aI2
aI3
aF0.667
aI0
aI0
aF0.0
aI0
aI0
aF0.0
aI1
aI0
aI1
aI0
aI0
aI1
aI2
aI5
aI4
aI-9
aa(lp239
V0020600342
p240
aVDEC 16, 2006
p241
aVATL vs. CHI
p242
aVL
p243
aI16
aI2
aI3
aF0.667
aI0
aI0
aF0.0
aI0
aI0
aF0.0
aI4
aI1
aI5
aI1
aI0
aI1
aI1
aI4
aI4
aI3
aa(lp244
V0020600334
p245
aVDEC 15, 2006
p246
aVATL @ MEM
p247
aVW
p248
aI9
aI0
aI1
aF0.0
aI0
aI0
aF0.0
aI0
aI2
aF0.0
aI1
aI1
aI2
aI0
aI0
aI1
aI1
aI4
aI0
aI-4
aa(lp249
V0020600320
p250
aVDEC 13, 2006
p251
aVATL @ NYK
p252
aVL
p253
aI13
aI1
aI3
aF0.333
aI0
aI0
aF0.0
aI0
aI0
aF0.0
aI1
aI1
aI2
aI0
aI0
aI0
aI1
aI5
aI2
aI-9
aa(lp254
V0020600309
p255
aVDEC 12, 2006
p256
aVATL vs. DEN
p257
aVL
p258
aI18
aI1
aI2
aF0.5
aI0
aI0
aF0.0
aI2
aI4
aF0.5
aI1
aI4
aI5
aI0
aI1
aI0
aI1
aI5
aI4
aI-13
aa(lp259
V0020600297
p260
aVDEC 10, 2006
p261
aVATL @ SAC
p262
aVL
p263
aI36
aI1
aI2
aF0.5
aI0
aI0
aF0.0
aI0
aI0
aF0.0
aI0
aI1
aI1
aI0
aI0
aI0
aI0
aI2
aI2
aI-12
aa(lp264
V0020600284
p265
aVDEC 08, 2006
p266
aVATL @ LAL
p267
aVL
p268
aI12
aI1
aI1
aF1.0
aI0
aI0
aF0.0
aI0
aI2
aF0.0
aI0
aI2
aI2
aI1
aI1
aI0
aI1
aI3
aI2
aI-10
aa(lp269
V0020600269
p270
aVDEC 06, 2006
p271
aVATL @ DEN
p272
aVW
p273
aI20
aI2
aI6
aF0.333
aI0
aI0
aF0.0
aI0
aI0
aF0.0
aI2
aI4
aI6
aI0
aI0
aI0
aI1
aI2
aI4
aI-4
aa(lp274
V0020600259
p275
aVDEC 05, 2006
p276
aVATL @ SEA
p277
aVL
p278
aI22
aI2
aI4
aF0.5
aI0
aI0
aF0.0
aI0
aI0
aF0.0
aI3
aI0
aI3
aI2
aI3
aI0
aI2
aI2
aI4
aI-6
aa(lp279
V0020600246
p280
aVDEC 03, 2006
p281
aVATL @ POR
p282
aVW
p283
aI16
aI1
aI4
aF0.25
aI0
aI0
aF0.0
aI0
aI0
aF0.0
aI1
aI1
aI2
aI0
aI0
aI0
aI0
aI3
aI2
aI-12
aa(lp284
V0020600226
p285
aVDEC 01, 2006
p286
aVATL vs. CLE
p287
aVL
p288
aI1
aI1
aI1
aF1.0
aI0
aI0
aF0.0
aI0
aI0
aF0.0
aI0
aI1
aI1
aI0
aI1
aI0
aI1
aI4
aI2
aI-2
aa(lp289
V0020600204
p290
aVNOV 28, 2006
p291
aVATL @ WAS
p292
aVL
p293
aI14
aI1
aI2
aF0.5
aI0
aI0
aF0.0
aI0
aI0
aF0.0
aI0
aI1
aI1
aI1
aI0
aI0
aI1
aI3
aI2
aI0
aa(lp294
V0020600173
p295
aVNOV 24, 2006
p296
aVATL vs. TOR
p297
aVW
p298
aI15
aI1
aI1
aF1.0
aI0
aI0
aF0.0
aI0
aI0
aF0.0
aI2
aI5
aI7
aI1
aI0
aI0
aI0
aI3
aI2
aI5
aa(lp299
V0020600161
p300
aVNOV 22, 2006
p301
aVATL @ DET
p302
aVL
p303
aI8
aI0
aI2
aF0.0
aI0
aI0
aF0.0
aI0
aI0
aF0.0
aI0
aI1
aI1
aI1
aI0
aI0
aI0
aI3
aI0
aI2
aa(lp304
V0020600130
p305
aVNOV 18, 2006
p306
aVATL vs. MIA
p307
aVL
p308
aI26
aI3
aI6
aF0.5
aI0
aI0
aF0.0
aI0
aI1
aF0.0
aI2
aI4
aI6
aI1
aI1
aI0
aI1
aI6
aI6
aI5
aa(lp309
V0020600100
p310
aVNOV 14, 2006
p311
aVATL vs. MIL
p312
aVL
p313
aI21
aI2
aI4
aF0.5
aI0
aI0
aF0.0
aI0
aI2
aF0.0
aI3
aI5
aI8
aI0
aI1
aI1
aI1
aI3
aI4
aI11
aa(lp314
V0020600082
p315
aVNOV 11, 2006
p316
aVATL vs. SEA
p317
aVL
p318
aI8
aI1
aI1
aF1.0
aI0
aI0
aF0.0
aI1
aI2
aF0.5
aI0
aI2
aI2
aI0
aI0
aI0
aI0
aI4
aI3
aI10
aa(lp319
V0020600072
p320
aVNOV 10, 2006
p321
aVATL @ TOR
p322
aVW
p323
aI18
aI1
aI2
aF0.5
aI0
aI0
aF0.0
aI0
aI0
aF0.0
aI1
aI3
aI4
aI0
aI0
aI0
aI0
aI1
aI2
aI-10
aa(lp324
V0020600052
p325
aVNOV 07, 2006
p326
aVATL @ CLE
p327
aVW
p328
aI15
aI2
aI4
aF0.5
aI0
aI0
aF0.0
aI0
aI0
aF0.0
aI1
aI2
aI3
aI0
aI0
aI0
aI2
aI3
aI4
aI-1
aa(lp329
V0020600042
p330
aVNOV 05, 2006
p331
aVATL vs. ORL
p332
aVW
p333
aI21
aI4
aI7
aF0.571
aI0
aI0
aF0.0
aI0
aI0
aF0.0
aI1
aI3
aI4
aI0
aI0
aI0
aI0
aI3
aI8
aI4
aa(lp334
V0020600022
p335
aVNOV 03, 2006
p336
aVATL vs. NYK
p337
aVW
p338
aI15
aI1
aI4
aF0.25
aI0
aI0
aF0.0
aI1
aI2
aF0.5
aI0
aI3
aI3
aI0
aI0
aI0
aI0
aI3
aI3
aI8
aasS'name'
p339
VLorenzen Wright
p340
sS'experience'
p341
I10
s.