(dp0
S'age'
p1
I28
sS'stats'
p2
(lp3
(lp4
V0020601227
p5
aVAPR 18, 2007
p6
aVLAL @ SAC
p7
aVW
p8
aI34
aI12
aI19
aF0.632
aI0
aI2
aF0.0
aI10
aI12
aF0.833
aI1
aI6
aI7
aI6
aI1
aI0
aI1
aI4
aI34
aI8
aa(lp9
V0020601202
p10
aVAPR 15, 2007
p11
aVLAL vs. SEA
p12
aVW
p13
aI42
aI18
aI25
aF0.72
aI3
aI6
aF0.5
aI11
aI13
aF0.846
aI2
aI6
aI8
aI3
aI2
aI0
aI1
aI2
aI50
aI6
aa(lp14
V0020601185
p15
aVAPR 13, 2007
p16
aVLAL @ PHX
p17
aVL
p18
aI42
aI7
aI26
aF0.269
aI1
aI6
aF0.167
aI2
aI2
aF1.0
aI1
aI5
aI6
aI4
aI1
aI1
aI2
aI2
aI17
aI-19
aa(lp19
V0020601174
p20
aVAPR 12, 2007
p21
aVLAL vs. LAC
p22
aVL
p23
aI48
aI17
aI33
aF0.515
aI1
aI4
aF0.25
aI15
aI15
aF1.0
aI0
aI9
aI9
aI1
aI2
aI0
aI3
aI3
aI50
aI-8
aa(lp24
V0020601154
p25
aVAPR 09, 2007
p26
aVLAL @ DEN
p27
aVL
p28
aI46
aI9
aI30
aF0.3
aI1
aI5
aF0.2
aI4
aI5
aF0.8
aI0
aI5
aI5
aI10
aI1
aI0
aI4
aI1
aI23
aI0
aa(lp29
V0020601144
p30
aVAPR 08, 2007
p31
aVLAL vs. PHX
p32
aVL
p33
aI44
aI14
aI25
aF0.56
aI1
aI5
aF0.2
aI5
aI5
aF1.0
aI0
aI3
aI3
aI7
aI1
aI1
aI5
aI2
aI34
aI-10
aa(lp34
V0020601133
p35
aVAPR 06, 2007
p36
aVLAL @ SEA
p37
aVW
p38
aI41
aI13
aI27
aF0.481
aI1
aI4
aF0.25
aI19
aI24
aF0.792
aI1
aI4
aI5
aI6
aI3
aI1
aI1
aI2
aI46
aI-1
aa(lp39
V0020601118
p40
aVAPR 04, 2007
p41
aVLAL @ LAC
p42
aVL
p43
aI45
aI13
aI34
aF0.382
aI0
aI3
aF0.0
aI3
aI4
aF0.75
aI0
aI7
aI7
aI3
aI2
aI2
aI4
aI3
aI29
aI3
aa(lp44
V0020601107
p45
aVAPR 03, 2007
p46
aVLAL vs. DEN
p47
aVL
p48
aI45
aI14
aI31
aF0.452
aI0
aI5
aF0.0
aI11
aI11
aF1.0
aI0
aI3
aI3
aI4
aI0
aI3
aI3
aI3
aI39
aI-6
aa(lp49
V0020601099
p50
aVAPR 01, 2007
p51
aVLAL vs. SAC
p52
aVW
p53
aI38
aI6
aI14
aF0.429
aI1
aI2
aF0.5
aI6
aI6
aF1.0
aI0
aI2
aI2
aI13
aI3
aI1
aI4
aI1
aI19
aI13
aa(lp54
V0020601081
p55
aVMAR 30, 2007
p56
aVLAL vs. HOU
p57
aVL
p58
aI48
aI19
aI44
aF0.432
aI3
aI9
aF0.333
aI12
aI14
aF0.857
aI1
aI1
aI2
aI2
aI0
aI0
aI3
aI2
aI53
aI1
aa(lp59
V0020601057
p60
aVMAR 27, 2007
p61
aVLAL vs. MEM
p62
aVL
p63
aI44
aI7
aI26
aF0.269
aI3
aI7
aF0.429
aI6
aI9
aF0.667
aI3
aI2
aI5
aI5
aI3
aI0
aI1
aI0
aI23
aI-1
aa(lp64
V0020601044
p65
aVMAR 25, 2007
p66
aVLAL vs. GSW
p67
aVW
p68
aI46
aI15
aI33
aF0.455
aI4
aI11
aF0.364
aI9
aI11
aF0.818
aI4
aI5
aI9
aI0
aI1
aI1
aI7
aI2
aI43
aI7
aa(lp69
V0020601027
p70
aVMAR 23, 2007
p71
aVLAL @ NOK
p72
aVW
p73
aI47
aI16
aI29
aF0.552
aI2
aI5
aF0.4
aI16
aI16
aF1.0
aI1
aI6
aI7
aI1
aI0
aI1
aI1
aI2
aI50
aI12
aa(lp74
V0020601016
p75
aVMAR 22, 2007
p76
aVLAL @ MEM
p77
aVW
p78
aI45
aI20
aI37
aF0.541
aI3
aI7
aF0.429
aI17
aI18
aF0.944
aI2
aI3
aI5
aI4
aI0
aI0
aI2
aI4
aI60
aI2
aa(lp79
V0020600994
p80
aVMAR 18, 2007
p81
aVLAL vs. MIN
p82
aVW
p83
aI45
aI17
aI35
aF0.486
aI4
aI9
aF0.444
aI12
aI14
aF0.857
aI1
aI5
aI6
aI3
aI3
aI0
aI3
aI1
aI50
aI12
aa(lp84
V0020600977
p85
aVMAR 16, 2007
p86
aVLAL vs. POR
p87
aVW
p88
aI50
aI23
aI39
aF0.59
aI8
aI12
aF0.667
aI11
aI12
aF0.917
aI1
aI6
aI7
aI3
aI3
aI0
aI2
aI3
aI65
aI4
aa(lp89
V0020600969
p90
aVMAR 15, 2007
p91
aVLAL @ DEN
p92
aVL
p93
aI38
aI9
aI19
aF0.474
aI0
aI5
aF0.0
aI7
aI8
aF0.875
aI2
aI3
aI5
aI9
aI0
aI0
aI1
aI4
aI25
aI-22
aa(lp94
V0020600941
p95
aVMAR 11, 2007
p96
aVLAL vs. DAL
p97
aVL
p98
aI37
aI6
aI19
aF0.316
aI0
aI2
aF0.0
aI13
aI18
aF0.722
aI2
aI7
aI9
aI3
aI0
aI0
aI5
aI1
aI25
aI-12
aa(lp99
V0020600919
p100
aVMAR 09, 2007
p101
aVLAL @ PHI
p102
aVL
p103
aI44
aI12
aI27
aF0.444
aI3
aI7
aF0.429
aI3
aI3
aF1.0
aI0
aI4
aI4
aI4
aI1
aI0
aI3
aI4
aI30
aI-21
aa(lp104
V0020600902
p105
aVMAR 06, 2007
p106
aVLAL @ MIN
p107
aVL
p108
aI53
aI13
aI30
aF0.433
aI3
aI10
aF0.3
aI11
aI13
aF0.846
aI3
aI10
aI13
aI8
aI2
aI3
aI4
aI3
aI40
aI-1
aa(lp109
V0020600890
p110
aVMAR 04, 2007
p111
aVLAL @ PHX
p112
aVL
p113
aI45
aI11
aI28
aF0.393
aI1
aI5
aF0.2
aI8
aI10
aF0.8
aI1
aI3
aI4
aI6
aI1
aI1
aI3
aI1
aI31
aI-3
aa(lp114
V0020600878
p115
aVMAR 02, 2007
p116
aVLAL vs. SAC
p117
aVL
p118
aI41
aI10
aI22
aF0.455
aI1
aI5
aF0.2
aI9
aI9
aF1.0
aI0
aI4
aI4
aI10
aI0
aI0
aI1
aI3
aI30
aI-14
aa(lp119
V0020600847
p120
aVFEB 26, 2007
p121
aVLAL @ UTA
p122
aVW
p123
aI44
aI7
aI21
aF0.333
aI0
aI4
aF0.0
aI21
aI24
aF0.875
aI2
aI6
aI8
aI4
aI2
aI0
aI4
aI3
aI35
aI6
aa(lp124
V0020600838
p125
aVFEB 25, 2007
p126
aVLAL @ GSW
p127
aVW
p128
aI36
aI9
aI23
aF0.391
aI2
aI8
aF0.25
aI6
aI7
aF0.857
aI1
aI5
aI6
aI6
aI3
aI0
aI4
aI2
aI26
aI17
aa(lp129
V0020600825
p130
aVFEB 23, 2007
p131
aVLAL vs. BOS
p132
aVW
p133
aI31
aI13
aI23
aF0.565
aI5
aI7
aF0.714
aI7
aI9
aF0.778
aI0
aI2
aI2
aI9
aI5
aI0
aI3
aI1
aI38
aI16
aa(lp134
V0020600809
p135
aVFEB 21, 2007
p136
aVLAL vs. POR
p137
aVL
p138
aI40
aI8
aI22
aF0.364
aI0
aI3
aF0.0
aI9
aI11
aF0.818
aI3
aI5
aI8
aI6
aI2
aI1
aI1
aI3
aI25
aI10
aa(lp139
V0020600789
p140
aVFEB 15, 2007
p141
aVLAL vs. CLE
p142
aVL
p143
aI41
aI9
aI22
aF0.409
aI2
aI7
aF0.286
aI14
aI15
aF0.933
aI1
aI5
aI6
aI5
aI2
aI0
aI6
aI3
aI34
aI-3
aa(lp144
V0020600774
p145
aVFEB 13, 2007
p146
aVLAL vs. NYK
p147
aVL
p148
aI38
aI9
aI20
aF0.45
aI2
aI4
aF0.5
aI11
aI11
aF1.0
aI3
aI4
aI7
aI4
aI2
aI0
aI1
aI1
aI31
aI0
aa(lp149
V0020600759
p150
aVFEB 11, 2007
p151
aVLAL @ CLE
p152
aVL
p153
aI44
aI12
aI24
aF0.5
aI1
aI5
aF0.2
aI11
aI11
aF1.0
aI0
aI7
aI7
aI6
aI1
aI0
aI4
aI5
aI36
aI-4
aa(lp154
V0020600738
p155
aVFEB 09, 2007
p156
aVLAL @ TOR
p157
aVL
p158
aI43
aI10
aI23
aF0.435
aI1
aI4
aF0.25
aI4
aI4
aF1.0
aI1
aI8
aI9
aI5
aI3
aI1
aI3
aI1
aI25
aI9
aa(lp159
V0020600735
p160
aVFEB 08, 2007
p161
aVLAL @ DET
p162
aVL
p163
aI38
aI5
aI13
aF0.385
aI2
aI5
aF0.4
aI6
aI6
aF1.0
aI1
aI4
aI5
aI5
aI2
aI0
aI8
aI1
aI18
aI-25
aa(lp164
V0020600714
p165
aVFEB 05, 2007
p166
aVLAL @ ATL
p167
aVW
p168
aI41
aI10
aI18
aF0.556
aI2
aI5
aF0.4
aI5
aI6
aF0.833
aI1
aI5
aI6
aI4
aI3
aI0
aI3
aI3
aI27
aI4
aa(lp169
V0020600699
p170
aVFEB 03, 2007
p171
aVLAL @ WAS
p172
aVW
p173
aI44
aI14
aI26
aF0.538
aI2
aI5
aF0.4
aI9
aI10
aF0.9
aI2
aI4
aI6
aI6
aI2
aI0
aI4
aI3
aI39
aI14
aa(lp174
V0020600691
p175
aVFEB 02, 2007
p176
aVLAL @ IND
p177
aVL
p178
aI40
aI7
aI25
aF0.28
aI2
aI8
aF0.25
aI6
aI6
aF1.0
aI0
aI5
aI5
aI4
aI5
aI0
aI4
aI1
aI22
aI-1
aa(lp179
V0020600678
p180
aVJAN 31, 2007
p181
aVLAL @ BOS
p182
aVW
p183
aI41
aI13
aI25
aF0.52
aI7
aI9
aF0.778
aI10
aI13
aF0.769
aI1
aI7
aI8
aI8
aI0
aI2
aI2
aI2
aI43
aI20
aa(lp184
V0020600657
p185
aVJAN 28, 2007
p186
aVLAL vs. SAS
p187
aVL
p188
aI46
aI13
aI25
aF0.52
aI1
aI2
aF0.5
aI4
aI5
aF0.8
aI0
aI6
aI6
aI7
aI1
aI1
aI3
aI2
aI31
aI2
aa(lp189
V0020600644
p190
aVJAN 26, 2007
p191
aVLAL vs. CHA
p192
aVL
p193
aI50
aI10
aI24
aF0.417
aI2
aI5
aF0.4
aI10
aI12
aF0.833
aI2
aI4
aI6
aI5
aI0
aI0
aI9
aI3
aI32
aI-7
aa(lp194
V0020600614
p195
aVJAN 22, 2007
p196
aVLAL vs. GSW
p197
aVW
p198
aI39
aI11
aI22
aF0.5
aI4
aI7
aF0.571
aI16
aI19
aF0.842
aI1
aI7
aI8
aI1
aI2
aI1
aI5
aI1
aI42
aI7
aa(lp199
V0020600598
p200
aVJAN 20, 2007
p201
aVLAL @ NOK
p202
aVL
p203
aI38
aI7
aI22
aF0.318
aI3
aI7
aF0.429
aI6
aI8
aF0.75
aI2
aI4
aI6
aI7
aI2
aI1
aI1
aI2
aI23
aI-10
aa(lp204
V0020600580
p205
aVJAN 18, 2007
p206
aVLAL @ DAL
p207
aVL
p208
aI34
aI8
aI18
aF0.444
aI0
aI3
aF0.0
aI10
aI11
aF0.909
aI1
aI2
aI3
aI5
aI0
aI0
aI6
aI3
aI26
aI-17
aa(lp209
V0020600576
p210
aVJAN 17, 2007
p211
aVLAL @ SAS
p212
aVW
p213
aI36
aI12
aI19
aF0.632
aI0
aI2
aF0.0
aI10
aI11
aF0.909
aI0
aI6
aI6
aI8
aI1
aI0
aI7
aI2
aI34
aI10
aa(lp214
V0020600564
p215
aVJAN 15, 2007
p216
aVLAL vs. MIA
p217
aVW
p218
aI44
aI11
aI24
aF0.458
aI0
aI2
aF0.0
aI3
aI3
aF1.0
aI1
aI3
aI4
aI8
aI0
aI1
aI1
aI2
aI25
aI2
aa(lp219
V0020600539
p220
aVJAN 12, 2007
p221
aVLAL vs. ORL
p222
aVW
p223
aI39
aI9
aI15
aF0.6
aI0
aI2
aF0.0
aI10
aI11
aF0.909
aI2
aI6
aI8
aI7
aI1
aI0
aI2
aI3
aI28
aI4
aa(lp224
V0020600523
p225
aVJAN 10, 2007
p226
aVLAL @ HOU
p227
aVL
p228
aI34
aI6
aI18
aF0.333
aI0
aI3
aF0.0
aI8
aI9
aF0.889
aI1
aI5
aI6
aI1
aI1
aI0
aI2
aI2
aI20
aI-17
aa(lp229
V0020600511
p230
aVJAN 09, 2007
p231
aVLAL @ MEM
p232
aVL
p233
aI30
aI7
aI15
aF0.467
aI2
aI6
aF0.333
aI9
aI9
aF1.0
aI0
aI3
aI3
aI6
aI3
aI2
aI3
aI2
aI25
aI-16
aa(lp234
V0020600504
p235
aVJAN 07, 2007
p236
aVLAL vs. DAL
p237
aVW
p238
aI41
aI9
aI20
aF0.45
aI0
aI2
aF0.0
aI8
aI9
aF0.889
aI0
aI8
aI8
aI6
aI1
aI1
aI3
aI3
aI26
aI13
aa(lp239
V0020600489
p240
aVJAN 05, 2007
p241
aVLAL vs. DEN
p242
aVW
p243
aI27
aI2
aI9
aF0.222
aI1
aI4
aF0.25
aI3
aI4
aF0.75
aI1
aI4
aI5
aI10
aI0
aI0
aI3
aI3
aI8
aI19
aa(lp244
V0020600478
p245
aVJAN 04, 2007
p246
aVLAL @ SAC
p247
aVW
p248
aI48
aI11
aI21
aF0.524
aI3
aI5
aF0.6
aI17
aI20
aF0.85
aI3
aI7
aI10
aI9
aI0
aI0
aI4
aI5
aI42
aI6
aa(lp249
V0020600456
p250
aVDEC 31, 2006
p251
aVLAL vs. PHI
p252
aVW
p253
aI39
aI15
aI22
aF0.682
aI3
aI6
aF0.5
aI2
aI2
aF1.0
aI1
aI7
aI8
aI6
aI1
aI0
aI2
aI1
aI35
aI13
aa(lp254
V0020600431
p255
aVDEC 29, 2006
p256
aVLAL @ CHA
p257
aVL
p258
aI54
aI22
aI45
aF0.489
aI4
aI11
aF0.364
aI10
aI12
aF0.833
aI0
aI5
aI5
aI4
aI0
aI0
aI4
aI6
aI58
aI5
aa(lp259
V0020600418
p260
aVDEC 27, 2006
p261
aVLAL @ ORL
p262
aVW
p263
aI36
aI8
aI22
aF0.364
aI0
aI3
aF0.0
aI11
aI12
aF0.917
aI0
aI3
aI3
aI7
aI2
aI1
aI3
aI4
aI27
aI11
aa(lp264
V0020600403
p265
aVDEC 25, 2006
p266
aVLAL @ MIA
p267
aVL
p268
aI38
aI4
aI17
aF0.235
aI0
aI4
aF0.0
aI8
aI9
aF0.889
aI0
aI2
aI2
aI4
aI1
aI0
aI3
aI4
aI16
aI-19
aa(lp269
V0020600381
p270
aVDEC 22, 2006
p271
aVLAL @ NJN
p272
aVW
p273
aI40
aI4
aI13
aF0.308
aI2
aI5
aF0.4
aI11
aI12
aF0.917
aI0
aI6
aI6
aI11
aI0
aI0
aI3
aI4
aI21
aI2
aa(lp274
V0020600372
p275
aVDEC 20, 2006
p276
aVLAL @ MIN
p277
aVW
p278
aI30
aI10
aI17
aF0.588
aI0
aI1
aF0.0
aI4
aI6
aF0.667
aI0
aI3
aI3
aI6
aI2
aI1
aI2
aI2
aI24
aI-10
aa(lp279
V0020600362
p280
aVDEC 19, 2006
p281
aVLAL @ CHI
p282
aVL
p283
aI38
aI6
aI19
aF0.316
aI0
aI5
aF0.0
aI7
aI8
aF0.875
aI0
aI3
aI3
aI4
aI0
aI1
aI4
aI6
aI19
aI-6
aa(lp284
V0020600355
p285
aVDEC 17, 2006
p286
aVLAL vs. WAS
p287
aVL
p288
aI46
aI15
aI24
aF0.625
aI7
aI11
aF0.636
aI8
aI10
aF0.8
aI2
aI6
aI8
aI10
aI1
aI1
aI4
aI5
aI45
aI6
aa(lp289
V0020600340
p290
aVDEC 15, 2006
p291
aVLAL vs. HOU
p292
aVW
p293
aI54
aI17
aI38
aF0.447
aI5
aI8
aF0.625
aI14
aI16
aF0.875
aI0
aI10
aI10
aI8
aI2
aI1
aI5
aI1
aI53
aI20
aa(lp294
V0020600324
p295
aVDEC 13, 2006
p296
aVLAL @ DAL
p297
aVL
p298
aI43
aI9
aI18
aF0.5
aI1
aI6
aF0.167
aI14
aI17
aF0.824
aI2
aI5
aI7
aI4
aI2
aI1
aI4
aI3
aI33
aI-4
aa(lp299
V0020600311
p300
aVDEC 12, 2006
p301
aVLAL @ HOU
p302
aVW
p303
aI42
aI8
aI26
aF0.308
aI2
aI8
aF0.25
aI5
aI6
aF0.833
aI0
aI8
aI8
aI7
aI1
aI0
aI4
aI3
aI23
aI18
aa(lp304
V0020600299
p305
aVDEC 10, 2006
p306
aVLAL vs. SAS
p307
aVW
p308
aI40
aI13
aI25
aF0.52
aI4
aI5
aF0.8
aI4
aI4
aF1.0
aI2
aI6
aI8
aI1
aI3
aI0
aI4
aI2
aI34
aI2
aa(lp309
V0020600270
p310
aVDEC 06, 2006
p311
aVLAL vs. NOK
p312
aVL
p313
aI36
aI10
aI17
aF0.588
aI2
aI6
aF0.333
aI2
aI2
aF1.0
aI0
aI2
aI2
aI4
aI2
aI0
aI1
aI3
aI24
aI-8
aa(lp314
V0020600254
p315
aVDEC 04, 2006
p316
aVLAL vs. IND
p317
aVW
p318
aI21
aI7
aI16
aF0.438
aI3
aI8
aF0.375
aI4
aI4
aF1.0
aI2
aI1
aI3
aI2
aI3
aI1
aI2
aI1
aI21
aI22
aa(lp319
V0020600242
p320
aVDEC 02, 2006
p321
aVLAL @ LAC
p322
aVW
p323
aI40
aI11
aI23
aF0.478
aI0
aI4
aF0.0
aI7
aI8
aF0.875
aI1
aI4
aI5
aI3
aI1
aI0
aI7
aI3
aI29
aI2
aa(lp324
V0020600223
p325
aVNOV 30, 2006
p326
aVLAL vs. UTA
p327
aVW
p328
aI34
aI19
aI26
aF0.731
aI2
aI3
aF0.667
aI12
aI15
aF0.8
aI0
aI4
aI4
aI3
aI0
aI1
aI1
aI5
aI52
aI22
aa(lp329
V0020600212
p330
aVNOV 28, 2006
p331
aVLAL vs. MIL
p332
aVL
p333
aI41
aI7
aI23
aF0.304
aI6
aI14
aF0.429
aI7
aI7
aF1.0
aI1
aI1
aI2
aI4
aI1
aI1
aI1
aI5
aI27
aI10
aa(lp334
V0020600199
p335
aVNOV 26, 2006
p336
aVLAL vs. NJN
p337
aVW
p338
aI42
aI8
aI24
aF0.333
aI1
aI4
aF0.25
aI2
aI4
aF0.5
aI2
aI4
aI6
aI10
aI0
aI0
aI2
aI3
aI19
aI3
aa(lp339
V0020600181
p340
aVNOV 24, 2006
p341
aVLAL @ UTA
p342
aVL
p343
aI41
aI9
aI18
aF0.5
aI2
aI6
aF0.333
aI7
aI10
aF0.7
aI0
aI5
aI5
aI2
aI1
aI1
aI0
aI1
aI27
aI-12
aa(lp344
V0020600157
p345
aVNOV 21, 2006
p346
aVLAL vs. LAC
p347
aVW
p348
aI38
aI12
aI23
aF0.522
aI1
aI1
aF1.0
aI15
aI18
aF0.833
aI2
aI3
aI5
aI5
aI3
aI0
aI1
aI4
aI40
aI13
aa(lp349
V0020600142
p350
aVNOV 19, 2006
p351
aVLAL vs. CHI
p352
aVW
p353
aI40
aI5
aI14
aF0.357
aI1
aI1
aF1.0
aI7
aI8
aF0.875
aI0
aI4
aI4
aI4
aI2
aI0
aI4
aI3
aI18
aI3
aa(lp354
V0020600127
p355
aVNOV 17, 2006
p356
aVLAL vs. TOR
p357
aVW
p358
aI40
aI10
aI19
aF0.526
aI0
aI2
aF0.0
aI11
aI12
aF0.917
aI1
aI10
aI11
aI7
aI0
aI0
aI6
aI2
aI31
aI4
aa(lp359
V0020600096
p360
aVNOV 12, 2006
p361
aVLAL vs. MEM
p362
aVW
p363
aI38
aI7
aI17
aF0.412
aI1
aI3
aF0.333
aI6
aI7
aF0.857
aI1
aI5
aI6
aI6
aI0
aI0
aI5
aI2
aI21
aI9
aa(lp364
V0020600081
p365
aVNOV 10, 2006
p366
aVLAL vs. DET
p367
aVL
p368
aI36
aI5
aI11
aF0.455
aI1
aI4
aF0.25
aI8
aI9
aF0.889
aI0
aI3
aI3
aI2
aI4
aI0
aI3
aI2
aI19
aI-21
aa(lp369
V0020600066
p370
aVNOV 08, 2006
p371
aVLAL @ POR
p372
aVL
p373
aI36
aI12
aI19
aF0.632
aI1
aI5
aF0.2
aI7
aI9
aF0.778
aI1
aI2
aI3
aI1
aI1
aI0
aI6
aI4
aI32
aI-12
aa(lp374
V0020600057
p375
aVNOV 07, 2006
p376
aVLAL vs. MIN
p377
aVW
p378
aI36
aI5
aI7
aF0.714
aI0
aI0
aF0.0
aI7
aI7
aF1.0
aI1
aI3
aI4
aI6
aI2
aI0
aI5
aI3
aI17
aI9
aa(lp379
V0020600044
p380
aVNOV 05, 2006
p381
aVLAL @ SEA
p382
aVL
p383
aI39
aI4
aI10
aF0.4
aI0
aI4
aF0.0
aI7
aI8
aF0.875
aI0
aI4
aI4
aI9
aI1
aI0
aI3
aI5
aI15
aI-2
aa(lp384
V0020600029
p385
aVNOV 03, 2006
p386
aVLAL vs. SEA
p387
aVW
p388
aI40
aI8
aI15
aF0.533
aI0
aI0
aF0.0
aI7
aI10
aF0.7
aI0
aI4
aI4
aI6
aI1
aI0
aI6
aI3
aI23
aI13
aasS'name'
p389
VKobe Bryant
p390
sS'experience'
p391
I10
s.