(dp0
S'stats'
p1
(lp2
(lp3
V0020600004
p4
aVNOV 01, 2006
p5
aVIND @ CHA
p6
aVW
p7
aI32
aI7
aI16
aF0.438
aI0
aI0
aF0.0
aI6
aI8
aF0.75
aI0
aI4
aI4
aI1
aI2
aI1
aI2
aI5
aI20
aI10
aa(lp8
V0020600020
p9
aVNOV 03, 2006
p10
aVIND vs. NOK
p11
aVL
p12
aI20
aI11
aI19
aF0.579
aI0
aI0
aF0.0
aI3
aI3
aF1.0
aI3
aI3
aI6
aI0
aI0
aI5
aI2
aI2
aI25
aI-8
aa(lp13
V0020600033
p14
aVNOV 04, 2006
p15
aVIND @ NYK
p16
aVW
p17
aI36
aI8
aI15
aF0.533
aI0
aI0
aF0.0
aI1
aI2
aF0.5
aI0
aI7
aI7
aI2
aI1
aI5
aI2
aI4
aI17
aI8
aa(lp18
V0020600053
p19
aVNOV 07, 2006
p20
aVIND vs. PHI
p21
aVW
p22
aI28
aI7
aI13
aF0.538
aI0
aI0
aF0.0
aI2
aI2
aF1.0
aI5
aI6
aI11
aI3
aI0
aI4
aI3
aI2
aI16
aI17
aa(lp23
V0020600076
p24
aVNOV 10, 2006
p25
aVIND vs. ORL
p26
aVW
p27
aI32
aI4
aI15
aF0.267
aI0
aI0
aF0.0
aI1
aI2
aF0.5
aI2
aI9
aI11
aI1
aI0
aI1
aI2
aI3
aI9
aI4
aa(lp28
V0020600086
p29
aVNOV 11, 2006
p30
aVIND @ CHI
p31
aVL
p32
aI38
aI6
aI16
aF0.375
aI0
aI0
aF0.0
aI0
aI0
aF0.0
aI0
aI8
aI8
aI4
aI1
aI3
aI5
aI2
aI12
aI15
aa(lp33
V0020600110
p34
aVNOV 15, 2006
p35
aVIND @ BOS
p36
aVL
p37
aI32
aI3
aI14
aF0.214
aI0
aI1
aF0.0
aI2
aI2
aF1.0
aI1
aI11
aI12
aI4
aI0
aI5
aI3
aI1
aI8
aI-32
aa(lp38
V0020600119
p39
aVNOV 17, 2006
p40
aVIND vs. NJN
p41
aVL
p42
aI34
aI7
aI16
aF0.438
aI0
aI0
aF0.0
aI3
aI5
aF0.6
aI1
aI8
aI9
aI3
aI0
aI1
aI3
aI4
aI17
aI-5
aa(lp43
V0020600136
p44
aVNOV 18, 2006
p45
aVIND @ MIL
p46
aVW
p47
aI40
aI8
aI17
aF0.471
aI0
aI0
aF0.0
aI4
aI9
aF0.444
aI4
aI8
aI12
aI4
aI0
aI8
aI2
aI3
aI20
aI-2
aa(lp48
V0020600153
p49
aVNOV 21, 2006
p50
aVIND vs. MIL
p51
aVW
p52
aI39
aI10
aI14
aF0.714
aI0
aI0
aF0.0
aI6
aI7
aF0.857
aI2
aI11
aI13
aI1
aI2
aI2
aI3
aI0
aI26
aI5
aa(lp53
V0020600160
p54
aVNOV 22, 2006
p55
aVIND @ ORL
p56
aVL
p57
aI32
aI7
aI17
aF0.412
aI0
aI0
aF0.0
aI9
aI10
aF0.9
aI4
aI7
aI11
aI3
aI3
aI1
aI2
aI5
aI23
aI-9
aa(lp58
V0020600176
p59
aVNOV 24, 2006
p60
aVIND vs. CLE
p61
aVW
p62
aI41
aI8
aI15
aF0.533
aI0
aI0
aF0.0
aI13
aI15
aF0.867
aI2
aI4
aI6
aI5
aI0
aI4
aI3
aI2
aI29
aI12
aa(lp63
V0020600195
p64
aVNOV 26, 2006
p65
aVIND @ TOR
p66
aVL
p67
aI37
aI5
aI12
aF0.417
aI0
aI0
aF0.0
aI5
aI6
aF0.833
aI2
aI9
aI11
aI3
aI1
aI3
aI3
aI4
aI15
aI9
aa(lp68
V0020600211
p69
aVNOV 28, 2006
p70
aVIND @ POR
p71
aVW
p72
aI25
aI8
aI13
aF0.615
aI0
aI0
aF0.0
aI4
aI6
aF0.667
aI2
aI6
aI8
aI6
aI1
aI5
aI1
aI3
aI20
aI4
aa(lp73
V0020600221
p74
aVNOV 29, 2006
p75
aVIND @ GSW
p76
aVW
p77
aI39
aI8
aI19
aF0.421
aI0
aI0
aF0.0
aI4
aI6
aF0.667
aI2
aI9
aI11
aI5
aI1
aI2
aI5
aI5
aI20
aI9
aa(lp78
V0020600233
p79
aVDEC 01, 2006
p80
aVIND @ SEA
p81
aVL
p82
aI28
aI5
aI14
aF0.357
aI0
aI0
aF0.0
aI3
aI6
aF0.5
aI2
aI8
aI10
aI3
aI1
aI2
aI3
aI1
aI13
aI-4
aa(lp83
V0020600240
p84
aVDEC 02, 2006
p85
aVIND @ DEN
p86
aVL
p87
aI36
aI9
aI13
aF0.692
aI0
aI0
aF0.0
aI2
aI7
aF0.286
aI2
aI14
aI16
aI4
aI2
aI2
aI4
aI3
aI20
aI-12
aa(lp88
V0020600254
p89
aVDEC 04, 2006
p90
aVIND @ LAL
p91
aVL
p92
aI31
aI8
aI16
aF0.5
aI0
aI0
aF0.0
aI2
aI4
aF0.5
aI1
aI10
aI11
aI2
aI0
aI2
aI5
aI6
aI18
aI-28
aa(lp93
V0020600263
p94
aVDEC 06, 2006
p95
aVIND vs. ORL
p96
aVW
p97
aI37
aI3
aI14
aF0.214
aI0
aI0
aF0.0
aI5
aI5
aF1.0
aI1
aI10
aI11
aI2
aI0
aI2
aI4
aI5
aI11
aI3
aa(lp98
V0020600318
p99
aVDEC 13, 2006
p100
aVIND vs. DET
p101
aVW
p102
aI38
aI8
aI17
aF0.471
aI0
aI0
aF0.0
aI10
aI10
aF1.0
aI3
aI11
aI14
aI2
aI2
aI1
aI3
aI3
aI26
aI22
aa(lp103
V0020600331
p104
aVDEC 15, 2006
p105
aVIND vs. NYK
p106
aVW
p107
aI32
aI3
aI9
aF0.333
aI0
aI0
aF0.0
aI5
aI7
aF0.714
aI2
aI9
aI11
aI3
aI0
aI4
aI2
aI3
aI11
aI17
aa(lp108
V0020600352
p109
aVDEC 17, 2006
p110
aVIND vs. UTA
p111
aVL
p112
aI41
aI10
aI19
aF0.526
aI0
aI0
aF0.0
aI11
aI13
aF0.846
aI3
aI6
aI9
aI4
aI0
aI3
aI2
aI4
aI31
aI-7
aa(lp113
V0020600364
p114
aVDEC 20, 2006
p115
aVIND @ PHI
p116
aVW
p117
aI38
aI13
aI21
aF0.619
aI0
aI0
aF0.0
aI8
aI9
aF0.889
aI2
aI9
aI11
aI4
aI0
aI3
aI4
aI4
aI34
aI15
aa(lp118
V0020600383
p119
aVDEC 22, 2006
p120
aVIND @ ATL
p121
aVW
p122
aI31
aI8
aI18
aF0.444
aI0
aI0
aF0.0
aI0
aI0
aF0.0
aI6
aI5
aI11
aI4
aI1
aI2
aI5
aI2
aI16
aI15
aa(lp123
V0020600392
p124
aVDEC 23, 2006
p125
aVIND vs. MIN
p126
aVL
p127
aI35
aI5
aI11
aF0.455
aI0
aI0
aF0.0
aI1
aI7
aF0.143
aI1
aI10
aI11
aI2
aI1
aI5
aI1
aI4
aI11
aI-10
aa(lp128
V0020600434
p129
aVDEC 29, 2006
p130
aVIND @ DET
p131
aVW
p132
aI37
aI9
aI22
aF0.409
aI0
aI1
aF0.0
aI7
aI10
aF0.7
aI4
aI9
aI13
aI2
aI1
aI4
aI1
aI1
aI25
aI9
aa(lp133
V0020600443
p134
aVDEC 30, 2006
p135
aVIND vs. CHA
p136
aVL
p137
aI40
aI8
aI17
aF0.471
aI0
aI0
aF0.0
aI11
aI14
aF0.786
aI3
aI9
aI12
aI3
aI0
aI4
aI0
aI4
aI27
aI-11
aa(lp138
V0020600477
p139
aVJAN 04, 2007
p140
aVIND @ DAL
p141
aVL
p142
aI39
aI7
aI18
aF0.389
aI0
aI0
aF0.0
aI6
aI8
aF0.75
aI4
aI12
aI16
aI5
aI0
aI5
aI1
aI2
aI20
aI-8
aa(lp143
V0020600493
p144
aVJAN 06, 2007
p145
aVIND @ NOK
p146
aVW
p147
aI38
aI8
aI15
aF0.533
aI0
aI0
aF0.0
aI6
aI7
aF0.857
aI1
aI6
aI7
aI3
aI2
aI2
aI4
aI5
aI22
aI14
aa(lp148
V0020600509
p149
aVJAN 09, 2007
p150
aVIND vs. ATL
p151
aVW
p152
aI30
aI4
aI12
aF0.333
aI0
aI0
aF0.0
aI2
aI2
aF1.0
aI3
aI5
aI8
aI1
aI0
aI4
aI5
aI3
aI10
aI9
aa(lp153
V0020600518
p154
aVJAN 10, 2007
p155
aVIND @ BOS
p156
aVW
p157
aI37
aI10
aI21
aF0.476
aI0
aI0
aF0.0
aI3
aI3
aF1.0
aI3
aI12
aI15
aI3
aI1
aI3
aI2
aI3
aI23
aI24
aa(lp158
V0020600531
p159
aVJAN 12, 2007
p160
aVIND vs. DAL
p161
aVL
p162
aI38
aI10
aI22
aF0.455
aI0
aI0
aF0.0
aI6
aI6
aF1.0
aI2
aI7
aI9
aI5
aI1
aI3
aI2
aI6
aI26
aI4
aa(lp163
V0020600560
p164
aVJAN 15, 2007
p165
aVIND @ NJN
p166
aVL
p167
aI28
aI5
aI13
aF0.385
aI0
aI0
aF0.0
aI4
aI8
aF0.5
aI3
aI7
aI10
aI0
aI0
aI2
aI1
aI4
aI14
aI-17
aa(lp168
V0020600579
p169
aVJAN 18, 2007
p170
aVIND @ MIA
p171
aVL
p172
aI40
aI6
aI16
aF0.375
aI0
aI0
aF0.0
aI5
aI6
aF0.833
aI2
aI8
aI10
aI1
aI1
aI1
aI4
aI5
aI17
aI4
aa(lp173
V0020600594
p174
aVJAN 20, 2007
p175
aVIND vs. NYK
p176
aVL
p177
aI39
aI11
aI17
aF0.647
aI0
aI0
aF0.0
aI3
aI4
aF0.75
aI3
aI7
aI10
aI2
aI0
aI3
aI4
aI4
aI25
aI5
aa(lp178
V0020600608
p179
aVJAN 22, 2007
p180
aVIND vs. CHI
p181
aVW
p182
aI41
aI8
aI22
aF0.364
aI0
aI1
aF0.0
aI6
aI7
aF0.857
aI5
aI5
aI10
aI0
aI1
aI1
aI4
aI4
aI22
aI15
aa(lp183
V0020600624
p184
aVJAN 24, 2007
p185
aVIND vs. MIA
p186
aVW
p187
aI43
aI4
aI20
aF0.2
aI0
aI0
aF0.0
aI2
aI3
aF0.667
aI4
aI9
aI13
aI0
aI1
aI4
aI4
aI4
aI10
aI-13
aa(lp188
V0020600647
p189
aVJAN 27, 2007
p190
aVIND vs. TOR
p191
aVW
p192
aI36
aI6
aI14
aF0.429
aI0
aI0
aF0.0
aI9
aI9
aF1.0
aI2
aI4
aI6
aI7
aI1
aI1
aI1
aI4
aI21
aI5
aa(lp193
V0020600659
p194
aVJAN 28, 2007
p195
aVIND @ DET
p196
aVL
p197
aI41
aI7
aI17
aF0.412
aI0
aI0
aF0.0
aI12
aI16
aF0.75
aI2
aI10
aI12
aI0
aI1
aI5
aI2
aI5
aI26
aI-2
aa(lp198
V0020600670
p199
aVJAN 30, 2007
p200
aVIND vs. BOS
p201
aVW
p202
aI38
aI9
aI17
aF0.529
aI0
aI1
aF0.0
aI7
aI10
aF0.7
aI1
aI7
aI8
aI4
aI0
aI3
aI4
aI5
aI25
aI8
aa(lp203
V0020600691
p204
aVFEB 02, 2007
p205
aVIND vs. LAL
p206
aVW
p207
aI35
aI7
aI21
aF0.333
aI0
aI0
aF0.0
aI8
aI9
aF0.889
aI4
aI5
aI9
aI3
aI1
aI4
aI3
aI0
aI22
aI5
aa(lp208
V0020600702
p209
aVFEB 03, 2007
p210
aVIND @ MEM
p211
aVW
p212
aI35
aI11
aI23
aF0.478
aI0
aI1
aF0.0
aI3
aI4
aF0.75
aI2
aI15
aI17
aI0
aI0
aI2
aI4
aI4
aI25
aI0
aa(lp213
V0020600715
p214
aVFEB 05, 2007
p215
aVIND vs. GSW
p216
aVL
p217
aI38
aI7
aI20
aF0.35
aI0
aI0
aF0.0
aI10
aI11
aF0.909
aI3
aI8
aI11
aI1
aI1
aI4
aI3
aI5
aI24
aI-6
aa(lp218
V0020600742
p219
aVFEB 09, 2007
p220
aVIND vs. DEN
p221
aVL
p222
aI37
aI6
aI15
aF0.4
aI0
aI0
aF0.0
aI4
aI6
aF0.667
aI2
aI2
aI4
aI2
aI2
aI2
aI3
aI3
aI16
aI-19
aa(lp223
V0020600758
p224
aVFEB 11, 2007
p225
aVIND vs. LAC
p226
aVW
p227
aI35
aI9
aI18
aF0.5
aI0
aI0
aF0.0
aI3
aI4
aF0.75
aI2
aI6
aI8
aI3
aI0
aI4
aI2
aI2
aI21
aI13
aa(lp228
V0020600779
p229
aVFEB 14, 2007
p230
aVIND vs. MEM
p231
aVW
p232
aI32
aI8
aI17
aF0.471
aI0
aI0
aF0.0
aI7
aI10
aF0.7
aI2
aI7
aI9
aI0
aI0
aI3
aI1
aI5
aI23
aI-9
aa(lp233
V0020600803
p234
aVFEB 21, 2007
p235
aVIND vs. MIL
p236
aVW
p237
aI45
aI9
aI16
aF0.563
aI0
aI0
aF0.0
aI11
aI16
aF0.688
aI4
aI11
aI15
aI2
aI2
aI2
aI5
aI4
aI29
aI5
aa(lp238
V0020600814
p239
aVFEB 23, 2007
p240
aVIND @ TOR
p241
aVL
p242
aI34
aI7
aI18
aF0.389
aI0
aI0
aF0.0
aI3
aI5
aF0.6
aI0
aI8
aI8
aI4
aI0
aI1
aI0
aI3
aI17
aI-26
aa(lp243
V0020600839
p244
aVFEB 25, 2007
p245
aVIND vs. SAC
p246
aVL
p247
aI39
aI7
aI16
aF0.438
aI0
aI0
aF0.0
aI5
aI6
aF0.833
aI2
aI7
aI9
aI1
aI1
aI6
aI3
aI4
aI19
aI-11
aa(lp248
V0020600851
p249
aVFEB 27, 2007
p250
aVIND vs. PHX
p251
aVL
p252
aI40
aI13
aI24
aF0.542
aI0
aI0
aF0.0
aI2
aI2
aF1.0
aI4
aI9
aI13
aI7
aI2
aI6
aI7
aI1
aI28
aI3
aa(lp253
V0020600877
p254
aVMAR 02, 2007
p255
aVIND @ PHX
p256
aVL
p257
aI29
aI8
aI18
aF0.444
aI0
aI0
aF0.0
aI0
aI0
aF0.0
aI1
aI6
aI7
aI0
aI0
aI2
aI3
aI5
aI16
aI-9
aa(lp258
V0020600886
p259
aVMAR 03, 2007
p260
aVIND @ LAC
p261
aVL
p262
aI30
aI3
aI13
aF0.231
aI0
aI0
aF0.0
aI3
aI5
aF0.6
aI1
aI3
aI4
aI2
aI1
aI1
aI2
aI5
aI9
aI-12
aa(lp263
V0020600905
p264
aVMAR 06, 2007
p265
aVIND @ SAC
p266
aVL
p267
aI38
aI8
aI16
aF0.5
aI0
aI1
aF0.0
aI6
aI6
aF1.0
aI3
aI9
aI12
aI0
aI1
aI0
aI2
aI5
aI22
aI-1
aa(lp268
V0020600914
p269
aVMAR 07, 2007
p270
aVIND @ UTA
p271
aVL
p272
aI19
aI4
aI10
aF0.4
aI0
aI0
aF0.0
aI3
aI4
aF0.75
aI0
aI2
aI2
aI0
aI0
aI0
aI1
aI1
aI11
aI-14
aa(lp273
V0020600961
p274
aVMAR 14, 2007
p275
aVIND vs. WAS
p276
aVL
p277
aI30
aI7
aI14
aF0.5
aI0
aI0
aF0.0
aI10
aI15
aF0.667
aI2
aI5
aI7
aI3
aI0
aI2
aI2
aI5
aI24
aI-12
aa(lp278
V0020600981
p279
aVMAR 17, 2007
p280
aVIND vs. ATL
p281
aVW
p282
aI26
aI2
aI12
aF0.167
aI0
aI0
aF0.0
aI6
aI6
aF1.0
aI2
aI5
aI7
aI1
aI1
aI2
aI0
aI2
aI10
aI14
aa(lp283
V0020601004
p284
aVMAR 20, 2007
p285
aVIND @ HOU
p286
aVL
p287
aI39
aI9
aI24
aF0.375
aI0
aI0
aF0.0
aI7
aI11
aF0.636
aI1
aI8
aI9
aI0
aI1
aI0
aI3
aI1
aI25
aI-12
aa(lp288
V0020601012
p289
aVMAR 21, 2007
p290
aVIND @ SAS
p291
aVL
p292
aI26
aI5
aI15
aF0.333
aI0
aI0
aF0.0
aI0
aI0
aF0.0
aI2
aI4
aI6
aI1
aI1
aI2
aI6
aI3
aI10
aI-9
aa(lp293
V0020601023
p294
aVMAR 23, 2007
p295
aVIND vs. MIA
p296
aVW
p297
aI27
aI5
aI12
aF0.417
aI0
aI0
aF0.0
aI5
aI5
aF1.0
aI2
aI10
aI12
aI4
aI0
aI0
aI3
aI3
aI15
aI25
aa(lp298
V0020601037
p299
aVMAR 25, 2007
p300
aVIND vs. CHI
p301
aVL
p302
aI40
aI15
aI24
aF0.625
aI0
aI0
aF0.0
aI9
aI12
aF0.75
aI5
aI9
aI14
aI0
aI2
aI0
aI5
aI2
aI39
aI4
aa(lp303
V0020601054
p304
aVMAR 27, 2007
p305
aVIND vs. CLE
p306
aVL
p307
aI42
aI11
aI18
aF0.611
aI0
aI0
aF0.0
aI10
aI10
aF1.0
aI3
aI2
aI5
aI1
aI0
aI1
aI3
aI3
aI32
aI2
aa(lp308
V0020601075
p309
aVMAR 30, 2007
p310
aVIND @ ORL
p311
aVL
p312
aI34
aI4
aI18
aF0.222
aI0
aI1
aF0.0
aI2
aI4
aF0.5
aI1
aI2
aI3
aI2
aI0
aI2
aI8
aI5
aI10
aI-5
aa(lp313
V0020601101
p314
aVAPR 03, 2007
p315
aVIND vs. DET
p316
aVL
p317
aI39
aI10
aI16
aF0.625
aI0
aI0
aF0.0
aI0
aI0
aF0.0
aI1
aI6
aI7
aI3
aI1
aI2
aI2
aI1
aI20
aI-17
aa(lp318
V0020601122
p319
aVAPR 06, 2007
p320
aVIND @ CHA
p321
aVW
p322
aI40
aI4
aI18
aF0.222
aI0
aI0
aF0.0
aI6
aI6
aF1.0
aI1
aI8
aI9
aI2
aI1
aI3
aI4
aI3
aI14
aI10
aa(lp323
V0020601135
p324
aVAPR 07, 2007
p325
aVIND vs. BOS
p326
aVW
p327
aI35
aI5
aI12
aF0.417
aI0
aI0
aF0.0
aI4
aI5
aF0.8
aI1
aI13
aI14
aI1
aI0
aI2
aI6
aI6
aI14
aI8
aa(lp328
V0020601157
p329
aVAPR 10, 2007
p330
aVIND @ PHI
p331
aVL
p332
aI42
aI7
aI22
aF0.318
aI0
aI0
aF0.0
aI7
aI8
aF0.875
aI3
aI7
aI10
aI3
aI1
aI1
aI2
aI3
aI21
aI-1
aa(lp333
V0020601167
p334
aVAPR 11, 2007
p335
aVIND @ MIL
p336
aVW
p337
aI36
aI7
aI17
aF0.412
aI0
aI0
aF0.0
aI2
aI2
aF1.0
aI3
aI6
aI9
aI4
aI2
aI4
aI2
aI2
aI16
aI0
aa(lp338
V0020601179
p339
aVAPR 13, 2007
p340
aVIND @ MIA
p341
aVL
p342
aI28
aI2
aI13
aF0.154
aI0
aI0
aF0.0
aI2
aI4
aF0.5
aI0
aI2
aI2
aI2
aI0
aI0
aI2
aI4
aI6
aI-11
aa(lp343
V0020601196
p344
aVAPR 15, 2007
p345
aVIND vs. NJN
p346
aVL
p347
aI35
aI7
aI15
aF0.467
aI0
aI0
aF0.0
aI6
aI7
aF0.857
aI1
aI4
aI5
aI4
aI0
aI3
aI3
aI3
aI20
aI2
aasS'name'
p348
VJermaine O'Neal
p349
sS'weight'
p350
V255
p351
sS'age'
p352
I28
sS'experience'
p353
I10
sS'height'
p354
V6-11
p355
sS'position'
p356
VCenter-Forward
p357
s.