(dp0
S'age'
p1
I31
sS'stats'
p2
(lp3
(lp4
V0020601171
p5
aVAPR 11, 2007
p6
aVSEA @ PHX
p7
aVL
p8
aI6
aI0
aI1
aF0.0
aI0
aI0
aF0.0
aI0
aI0
aF0.0
aI0
aI0
aI0
aI0
aI0
aI0
aI0
aI1
aI0
aI-16
aa(lp9
V0020601193
p10
aVAPR 14, 2007
p11
aVSEA @ POR
p12
aVL
p13
aI7
aI0
aI1
aF0.0
aI0
aI0
aF0.0
aI0
aI0
aF0.0
aI1
aI0
aI1
aI0
aI0
aI0
aI0
aI1
aI0
aI-13
aa(lp14
V0020601202
p15
aVAPR 15, 2007
p16
aVSEA @ LAL
p17
aVL
p18
aI2
aI0
aI0
aF0.0
aI0
aI0
aF0.0
aI0
aI0
aF0.0
aI0
aI0
aI0
aI0
aI0
aI0
aI1
aI0
aI0
aI-6
aa(lp19
V0020601229
p20
aVAPR 18, 2007
p21
aVSEA vs. DAL
p22
aVL
p23
aI10
aI0
aI1
aF0.0
aI0
aI0
aF0.0
aI0
aI0
aF0.0
aI0
aI0
aI0
aI4
aI0
aI0
aI0
aI0
aI0
aI-7
aasS'name'
p24
VRandy Livingston
p25
sS'experience'
p26
I10
s.