(dp0
Vresource
p1
Vleaguedashplayerstats
p2
sVresultSets
p3
(lp4
(dp5
Vheaders
p6
(lp7
VPLAYER_ID
p8
aVPLAYER_NAME
p9
aVTEAM_ID
p10
aVTEAM_ABBREVIATION
p11
aVAGE
p12
aVGP
p13
aVW
p14
aVL
p15
aVW_PCT
p16
aVMIN
p17
aVFGM
p18
aVFGA
p19
aVFG_PCT
p20
aVFG3M
p21
aVFG3A
p22
aVFG3_PCT
p23
aVFTM
p24
aVFTA
p25
aVFT_PCT
p26
aVOREB
p27
aVDREB
p28
aVREB
p29
aVAST
p30
aVTOV
p31
aVSTL
p32
aVBLK
p33
aVBLKA
p34
aVPF
p35
aVPFD
p36
aVPTS
p37
aVPLUS_MINUS
p38
aVDD2
p39
aVTD3
p40
aVCFID
p41
aVCFPARAMS
p42
asVrowSet
p43
(lp44
(lp45
I201985
aVA.J. Price
p46
aI1610612754
aVIND
p47
aF23.0
aI56
aI23
aI33
aF0.411
aF15.5
aF2.6
aF6.3
aF0.41
aF1.1
aF3.1
aF0.345
aF1.1
aF1.3
aF0.8
aF0.2
aF1.4
aF1.6
aF1.9
aF1.1
aF0.6
aF0.1
aF0.3
aF0.9
aF1.4
aF7.3
aF0.9
aI0
aI0
aI5
aV201985,1610612754
p48
aa(lp49
I201166
aVAaron Brooks
p50
aI1610612745
aVHOU
p51
aF25.0
aI82
aI42
aI40
aF0.512
aF35.6
aF7.0
aF16.2
aF0.432
aF2.5
aF6.4
aF0.398
aF3.0
aF3.6
aF0.822
aF0.7
aF2.0
aF2.6
aF5.3
aF2.8
aF0.8
aF0.2
aF1.0
aF2.4
aF3.0
aF19.6
aF-0.3
aI6
aI0
aI5
aV201166,1610612745
p52
aa(lp53
I201189
aVAaron Gray
p54
aI1610612740
aVNOH
p55
aF25.0
aI32
aI11
aI21
aF0.344
aF9.7
aF1.3
aF2.6
aF0.512
aF0.0
aF0.0
aF0.0
aF0.6
aF0.9
aF0.714
aF1.4
aF1.9
aF3.3
aF0.7
aF0.6
aF0.3
aF0.3
aF0.3
aF1.7
aF0.6
aF3.3
aF-0.5
aI0
aI0
aI5
aV201189,1610612740
p56
aa(lp57
I201151
aVAcie Law
p58
aI1610612741
aVCHI
p59
aF25.0
aI26
aI11
aI15
aF0.423
aF9.0
aF1.3
aF2.9
aF0.467
aF0.2
aF0.6
aF0.313
aF1.5
aF1.9
aF0.776
aF0.1
aF0.5
aF0.7
aF1.0
aF0.7
aF0.4
aF0.0
aF0.5
aF0.6
aF1.2
aF4.3
aF0.9
aI0
aI0
aI5
aV201151,1610612741
p60
aa(lp61
I200747
aVAdam Morrison
p62
aI1610612747
aVLAL
p63
aF25.0
aI31
aI23
aI8
aF0.742
aF7.8
aF1.0
aF2.7
aF0.376
aF0.2
aF0.7
aF0.238
aF0.2
aF0.3
aF0.625
aF0.3
aF0.7
aF1.0
aF0.6
aF0.3
aF0.1
aF0.1
aF0.2
aF0.5
aF0.2
aF2.4
aF-1.3
aI0
aI0
aI5
aV200747,1610612747
p64
aa(lp65
I1733
aVAl Harrington
p66
aI1610612752
aVNYK
p67
aF30.0
aI72
aI26
aI46
aF0.361
aF30.5
aF6.2
aF14.3
aF0.435
aF1.9
aF5.7
aF0.342
aF3.3
aF4.4
aF0.757
aF1.2
aF4.4
aF5.6
aF1.5
aF1.8
aF0.9
aF0.4
aF0.7
aF2.9
aF3.7
aF17.7
aF-3.1
aI6
aI0
aI5
aV1733,1610612752
p68
aa(lp69
I201143
aVAl Horford
p70
aI1610612737
aVATL
p71
aF24.0
aI81
aI52
aI29
aF0.642
aF35.1
aF5.8
aF10.5
aF0.551
aF0.0
aF0.0
aF1.0
aF2.6
aF3.3
aF0.789
aF2.9
aF7.0
aF9.9
aF2.3
aF1.5
aF0.7
aF1.1
aF0.7
aF2.8
aF3.0
aF14.2
aF5.7
aI39
aI0
aI5
aV201143,1610612737
p72
aa(lp73
I2744
aVAl Jefferson
p74
aI1610612750
aVMIN
p75
aF25.0
aI76
aI15
aI61
aF0.197
aF32.4
aF7.4
aF14.8
aF0.498
aF0.0
aF0.1
aF0.0
aF2.4
aF3.5
aF0.68
aF2.4
aF6.9
aF9.3
aF1.8
aF1.8
aF0.8
aF1.3
aF0.8
aF2.7
aF2.9
aF17.1
aF-6.8
aI35
aI0
aI5
aV2744,1610612750
p76
aa(lp77
I201154
aVAl Thornton
p78
aI1610612764
aVWAS
p79
aF26.0
aI75
aI25
aI50
aF0.333
aF27.7
aF4.3
aF9.0
aF0.473
aF0.1
aF0.4
aF0.355
aF2.0
aF2.8
aF0.725
aF1.5
aF2.4
aF3.9
aF1.2
aF1.4
aF0.6
aF0.5
aF0.6
aF2.7
aF2.9
aF10.7
aF-4.0
aI3
aI0
aI5
aV201154,1610612764
p80
aa(lp81
I201169
aVAlando Tucker
p82
aI1610612750
aVMIN
p83
aF26.0
aI15
aI5
aI10
aF0.333
aF6.4
aF1.1
aF2.6
aF0.436
aF0.1
aF0.5
aF0.143
aF1.1
aF1.4
aF0.762
aF0.4
aF0.3
aF0.7
aF0.3
aF0.3
aF0.0
aF0.0
aF0.2
aF0.4
aF0.9
aF3.4
aF-2.9
aI0
aI0
aI5
aV201169,1610612750
p84
aa(lp85
I201582
aVAlexis Ajinca
p86
aI1610612766
aVCHA
p87
aF22.0
aI6
aI1
aI5
aF0.167
aF4.9
aF0.8
aF1.7
aF0.5
aF0.0
aF0.0
aF0.0
aF0.0
aF0.2
aF0.0
aF0.2
aF0.5
aF0.7
aF0.0
aF0.3
aF0.2
aF0.2
aF0.2
aF0.8
aF0.8
aF1.7
aF0.7
aI0
aI0
aI5
aV201582,1610612766
p88
aa(lp89
I947
aVAllen Iverson
p90
aI1610612755
aVPHI
p91
aF35.0
aI28
aI10
aI18
aF0.357
aF30.9
aF4.9
aF11.3
aF0.43
aF0.3
aF0.9
aF0.36
aF3.7
aF4.7
aF0.794
aF0.6
aF2.3
aF2.8
aF4.0
aF2.3
aF0.7
aF0.1
aF0.8
aF1.7
aF3.7
aF13.8
aF-1.5
aI0
aI0
aI5
aV947,1610612755
p92
aa(lp93
I202087
aVAlonzo Gee
p94
aI1610612764
aVWAS
p95
aF23.0
aI11
aI0
aI11
aF0.0
aF16.5
aF2.5
aF5.4
aF0.475
aF0.6
aF0.8
aF0.778
aF1.6
aF2.6
aF0.621
aF1.4
aF1.6
aF3.0
aF0.6
aF0.9
aF0.6
aF0.1
aF1.1
aF1.2
aF2.1
aF7.4
aF-0.5
aI1
aI0
aI5
aV202087,1610612764
p96
aa(lp97
I2405
aVAmar'e Stoudemire
p98
aI1610612756
aVPHX
p99
aF27.0
aI82
aI54
aI28
aF0.659
aF34.6
aF8.6
aF15.4
aF0.557
aF0.0
aF0.1
aF0.167
aF5.9
aF7.7
aF0.771
aF2.8
aF6.1
aF8.9
aF1.0
aF2.6
aF0.6
aF1.0
aF1.3
aF3.4
aF5.8
aF23.1
aF3.9
aI31
aI0
aI5
aV2405,1610612756
p100
aa(lp101
I101161
aVAmir Johnson
p102
aI1610612761
aVTOR
p103
aF23.0
aI82
aI40
aI42
aF0.488
aF17.7
aF2.5
aF4.1
aF0.623
aF0.0
aF0.0
aF0.0
aF1.2
aF1.8
aF0.638
aF1.9
aF2.9
aF4.8
aF0.6
aF0.8
aF0.5
aF0.8
aF0.3
aF3.1
aF1.8
aF6.2
aF0.6
aI2
aI0
aI5
aV101161,1610612761
p104
aa(lp105
I2760
aVAnderson Varejao
p106
aI1610612739
aVCLE
p107
aF27.0
aI76
aI57
aI19
aF0.75
aF28.5
aF3.5
aF6.1
aF0.572
aF0.0
aF0.1
aF0.2
aF1.5
aF2.3
aF0.663
aF2.5
aF5.1
aF7.6
aF1.1
aF0.9
aF0.9
aF0.9
aF0.5
aF2.9
aF2.3
aF8.6
aF6.8
aI11
aI0
aI5
aV2760,1610612739
p108
aa(lp109
I101154
aVAndray Blatche
p110
aI1610612764
aVWAS
p111
aF23.0
aI81
aI26
aI55
aF0.321
aF27.9
aF5.9
aF12.3
aF0.478
aF0.2
aF0.5
aF0.295
aF2.1
aF2.9
aF0.744
aF2.0
aF4.3
aF6.3
aF2.1
aF2.2
aF1.0
aF0.9
aF1.1
aF2.7
aF2.7
aF14.1
aF-3.5
aI16
aI0
aI5
aV101154,1610612764
p112
aa(lp113
I2738
aVAndre Iguodala
p114
aI1610612755
aVPHI
p115
aF26.0
aI82
aI27
aI55
aF0.329
aF38.9
aF6.0
aF13.7
aF0.443
aF1.1
aF3.7
aF0.31
aF3.8
aF5.2
aF0.733
aF1.0
aF5.5
aF6.5
aF5.8
aF2.7
aF1.7
aF0.7
aF0.4
aF1.8
aF4.1
aF17.1
aF-3.1
aI11
aI0
aI5
aV2738,1610612755
p116
aa(lp117
I1889
aVAndre Miller
p118
aI1610612757
aVPOR
p119
aF34.0
aI82
aI50
aI32
aF0.61
aF30.5
aF4.9
aF11.1
aF0.445
aF0.2
aF1.0
aF0.2
aF3.9
aF4.8
aF0.821
aF1.0
aF2.3
aF3.2
aF5.4
aF2.1
aF1.1
aF0.1
aF0.9
aF2.1
aF3.5
aF14.0
aF3.6
aI9
aI0
aI5
aV1889,1610612757
p120
aa(lp121
I200745
aVAndrea Bargnani
p122
aI1610612761
aVTOR
p123
aF24.0
aI80
aI39
aI41
aF0.488
aF35.0
aF6.7
aF14.3
aF0.47
aF1.5
aF4.1
aF0.372
aF2.3
aF2.9
aF0.774
aF1.3
aF4.9
aF6.2
aF1.2
aF1.5
aF0.3
aF1.4
aF0.5
aF2.7
aF2.7
aF17.2
aF-1.9
aI10
aI0
aI5
aV200745,1610612761
p124
aa(lp125
I1905
aVAndrei Kirilenko
p126
aI1610612762
aVUTA
p127
aF29.0
aI58
aI37
aI21
aF0.638
aF29.0
aF4.2
aF8.3
aF0.506
aF0.4
aF1.5
aF0.292
aF3.0
aF4.0
aF0.744
aF1.3
aF3.2
aF4.6
aF2.7
aF1.4
aF1.4
aF1.2
aF0.3
aF1.8
aF3.0
aF11.9
aF4.1
aI1
aI0
aI5
aV1905,1610612762
p128
aa(lp129
I2804
aVAndres Nocioni
p130
aI1610612758
aVSAC
p131
aF30.0
aI75
aI22
aI53
aF0.293
aF19.7
aF3.1
aF7.8
aF0.399
aF1.3
aF3.3
aF0.386
aF0.9
aF1.3
aF0.717
aF0.4
aF2.5
aF3.0
aF1.0
aF0.9
aF0.4
aF0.3
aF0.5
aF2.1
aF1.3
aF8.5
aF-2.1
aI0
aI0
aI5
aV2804,1610612758
p132
aa(lp133
I101106
aVAndrew Bogut
p134
aI1610612749
aVMIL
p135
aF25.0
aI69
aI40
aI29
aF0.58
aF32.3
aF6.9
aF13.2
aF0.52
aF0.0
aF0.0
aF0.0
aF2.2
aF3.4
aF0.629
aF3.0
aF7.1
aF10.2
aF1.8
aF1.9
aF0.6
aF2.5
aF0.9
aF3.2
aF4.3
aF15.9
aF3.2
aI37
aI0
aI5
aV101106,1610612749
p136
aa(lp137
I101115
aVAndrew Bynum
p138
aI1610612747
aVLAL
p139
aF22.0
aI65
aI47
aI18
aF0.723
aF30.4
aF6.0
aF10.6
aF0.57
aF0.0
aF0.0
aF0.0
aF3.0
aF4.0
aF0.739
aF2.7
aF5.6
aF8.3
aF1.0
aF1.8
aF0.5
aF1.4
aF0.8
aF3.0
aF3.1
aF15.0
aF4.2
aI21
aI0
aI5
aV101115,1610612747
p140
aa(lp141
I2740
aVAndris Biedrins
p142
aI1610612744
aVGSW
p143
aF24.0
aI33
aI10
aI23
aF0.303
aF23.1
aF2.5
aF4.2
aF0.591
aF0.0
aF0.0
aF0.0
aF0.1
aF0.8
aF0.16
aF1.9
aF5.9
aF7.8
aF1.7
aF1.0
aF0.6
aF1.3
aF0.2
aF3.5
aF1.2
aF5.0
aF-3.8
aI1
aI0
aI5
aV2740,1610612744
p144
aa(lp145
I1712
aVAntawn Jamison
p146
aI1610612739
aVCLE
p147
aF34.0
aI66
aI32
aI34
aF0.485
aF36.5
aF7.2
aF15.7
aF0.461
aF1.3
aF3.7
aF0.344
aF2.9
aF4.5
aF0.647
aF2.1
aF6.3
aF8.4
aF1.3
aF1.4
aF1.1
aF0.3
aF0.7
aF2.7
aF4.2
aF18.7
aF0.9
aI25
aI0
aI5
aV1712,1610612739
p148
aa(lp149
I1853
aVAnthony Carter
p150
aI1610612743
aVDEN
p151
aF35.0
aI54
aI32
aI22
aF0.593
aF15.9
aF1.4
aF3.4
aF0.42
aF0.3
aF1.2
aF0.27
aF0.2
aF0.2
aF0.846
aF0.3
aF1.3
aF1.6
aF3.0
aF1.1
aF0.7
aF0.2
aF0.1
aF1.3
aF0.5
aF3.3
aF-0.6
aI0
aI0
aI5
aV1853,1610612743
p152
aa(lp153
I1533
aVAnthony Johnson
p154
aI1610612753
aVORL
p155
aF35.0
aI31
aI25
aI6
aF0.806
aF13.1
aF1.6
aF3.6
aF0.441
aF0.4
aF1.3
aF0.333
aF0.6
aF0.6
aF0.95
aF0.3
aF1.3
aF1.5
aF2.0
aF0.8
aF0.4
aF0.0
aF0.0
aF1.0
aF0.8
aF4.2
aF0.9
aI0
aI0
aI5
aV1533,1610612753
p156
aa(lp157
I201627
aVAnthony Morrow
p158
aI1610612744
aVGSW
p159
aF24.0
aI69
aI24
aI45
aF0.348
aF29.2
aF4.8
aF10.2
aF0.468
aF2.0
aF4.4
aF0.456
aF1.5
aF1.7
aF0.886
aF0.9
aF2.9
aF3.8
aF1.5
aF1.2
aF0.9
aF0.2
aF0.5
aF2.3
aF1.5
aF13.0
aF-0.9
aI3
aI0
aI5
aV201627,1610612744
p160
aa(lp161
I1515
aVAnthony Parker
p162
aI1610612739
aVCLE
p163
aF35.0
aI81
aI61
aI20
aF0.753
aF28.3
aF2.5
aF5.9
aF0.434
aF1.3
aF3.2
aF0.414
aF0.9
aF1.2
aF0.789
aF0.4
aF2.5
aF2.9
aF1.9
aF0.9
aF0.8
aF0.2
aF0.1
aF1.9
aF1.3
aF7.3
aF5.0
aI0
aI0
aI5
aV1515,1610612739
p164
aa(lp165
I201576
aVAnthony Randolph
p166
aI1610612744
aVGSW
p167
aF20.0
aI33
aI11
aI22
aF0.333
aF22.7
aF4.2
aF9.4
aF0.443
aF0.0
aF0.2
aF0.2
aF3.3
aF4.1
aF0.801
aF2.2
aF4.3
aF6.5
aF1.3
aF1.5
aF0.8
aF1.5
aF0.8
aF2.8
aF3.0
aF11.6
aF-2.3
aI5
aI0
aI5
aV201576,1610612744
p168
aa(lp169
I201229
aVAnthony Tolliver
p170
aI1610612744
aVGSW
p171
aF25.0
aI46
aI17
aI29
aF0.37
aF31.0
aF4.2
aF9.8
aF0.43
aF1.1
aF3.3
aF0.329
aF2.2
aF2.9
aF0.769
aF1.8
aF5.1
aF7.0
aF1.9
aF1.0
aF0.7
aF0.7
aF0.4
aF2.8
aF2.4
aF11.7
aF-0.2
aI12
aI0
aI5
aV201229,1610612744
p172
aa(lp173
I101120
aVAntoine Wright
p174
aI1610612761
aVTOR
p175
aF26.0
aI67
aI32
aI35
aF0.478
aF20.8
aF2.4
aF6.0
aF0.406
aF0.9
aF2.6
aF0.335
aF0.8
aF1.1
aF0.688
aF0.6
aF2.3
aF2.8
aF1.1
aF0.9
aF0.4
aF0.2
aF0.3
aF2.0
aF0.9
aF6.5
aF0.0
aI0
aI0
aI5
aV101120,1610612761
p176
aa(lp177
I202079
aVAntonio Anderson
p178
aI1610612760
aVOKC
p179
aF25.0
aI1
aI0
aI1
aF0.0
aF14.6
aF1.0
aF3.0
aF0.333
aF0.0
aF0.0
aF0.0
aF0.0
aF0.0
aF0.0
aF1.0
aF0.0
aF1.0
aF0.0
aF1.0
aF0.0
aF0.0
aF0.0
aF1.0
aF0.0
aF2.0
aF-2.0
aI0
aI0
aI5
aV202079,1610612760
p180
aa(lp181
I686
aVAntonio McDyess
p182
aI1610612759
aVSAS
p183
aF35.0
aI77
aI46
aI31
aF0.597
aF21.0
aF2.7
aF5.6
aF0.479
aF0.0
aF0.0
aF0.0
aF0.5
aF0.7
aF0.632
aF1.9
aF4.0
aF5.9
aF1.1
aF1.0
aF0.6
aF0.4
aF0.1
aF1.9
aF1.0
aF5.8
aF2.8
aI3
aI0
aI5
aV686,1610612759
p184
aa(lp185
I201167
aVArron Afflalo
p186
aI1610612743
aVDEN
p187
aF24.0
aI82
aI53
aI29
aF0.646
aF27.1
aF3.3
aF7.1
aF0.465
aF1.3
aF3.0
aF0.434
aF0.9
aF1.2
aF0.735
aF0.7
aF2.4
aF3.1
aF1.7
aF0.9
aF0.6
aF0.4
aF0.6
aF2.7
aF1.0
aF8.8
aF2.2
aI1
aI0
aI5
aV201167,1610612743
p188
aa(lp189
I201948
aVAustin Daye
p190
aI1610612765
aVDET
p191
aF22.0
aI69
aI22
aI47
aF0.319
aF13.3
aF2.0
aF4.3
aF0.464
aF0.4
aF1.4
aF0.305
aF0.7
aF0.8
aF0.821
aF0.5
aF2.0
aF2.5
aF0.5
aF0.7
aF0.4
aF0.4
aF0.2
aF1.7
aF0.7
aF5.1
aF-1.7
aI1
aI0
aI5
aV201948,1610612765
p192
aa(lp193
I1884
aVBaron Davis
p194
aI1610612746
aVLAC
p195
aF31.0
aI75
aI27
aI48
aF0.36
aF33.6
aF5.5
aF13.5
aF0.406
aF1.1
aF3.9
aF0.277
aF3.2
aF3.9
aF0.821
aF0.7
aF2.9
aF3.5
aF8.0
aF2.8
aF1.7
aF0.6
aF0.8
aF2.8
aF3.3
aF15.3
aF-2.6
aI18
aI1
aI5
aV1884,1610612746
p196
aa(lp197
I2732
aVBen Gordon
p198
aI1610612765
aVDET
p199
aF27.0
aI62
aI18
aI44
aF0.29
aF27.9
aF4.7
aF11.3
aF0.416
aF1.2
aF3.8
aF0.321
aF3.2
aF3.7
aF0.861
aF0.4
aF1.5
aF1.9
aF2.7
aF1.9
aF0.8
aF0.1
aF0.4
aF2.4
aF3.1
aF13.8
aF-3.1
aI0
aI0
aI5
aV2732,1610612765
p200
aa(lp201
I1112
aVBen Wallace
p202
aI1610612765
aVDET
p203
aF35.0
aI69
aI25
aI44
aF0.362
aF28.6
aF2.3
aF4.2
aF0.541
aF0.0
aF0.0
aF0.0
aF0.9
aF2.3
aF0.406
aF3.6
aF5.1
aF8.7
aF1.5
aF0.9
aF1.2
aF1.2
aF0.3
aF1.9
aF2.2
aF5.5
aF-0.7
aI4
aI0
aI5
aV1112,1610612765
p204
aa(lp205
I2757
aVBeno Udrih
p206
aI1610612758
aVSAC
p207
aF27.0
aI79
aI24
aI55
aF0.304
aF31.4
aF5.3
aF10.6
aF0.493
aF0.9
aF2.5
aF0.377
aF1.5
aF1.8
aF0.837
aF0.5
aF2.3
aF2.8
aF4.7
aF1.7
aF1.1
aF0.1
aF0.3
aF2.1
aF1.6
aF12.9
aF-2.2
aI6
aI1
aI5
aV2757,1610612758
p208
aa(lp209
I201628
aVBobby Brown
p210
aI1610612746
aVLAC
p211
aF25.0
aI45
aI14
aI31
aF0.311
aF11.5
aF2.0
aF5.3
aF0.371
aF0.6
aF2.2
aF0.265
aF0.3
aF0.3
aF0.867
aF0.2
aF0.6
aF0.8
aF2.0
aF1.0
aF0.3
aF0.0
aF0.2
aF0.9
aF0.6
aF4.8
aF-2.0
aI0
aI0
aI5
aV201628,1610612746
p212
aa(lp213
I2250
aVBobby Simmons
p214
aI1610612751
aVNJN
p215
aF30.0
aI23
aI2
aI21
aF0.087
aF17.2
aF1.8
aF5.1
aF0.359
aF0.9
aF2.7
aF0.317
aF0.8
aF0.9
aF0.9
aF0.5
aF2.3
aF2.7
aF0.7
aF0.8
aF0.7
aF0.1
aF0.2
aF2.3
aF1.0
aF5.3
aF-1.9
aI0
aI0
aI5
aV2250,1610612751
p216
aa(lp217
I2564
aVBoris Diaw
p218
aI1610612766
aVCHA
p219
aF28.0
aI82
aI44
aI38
aF0.537
aF35.4
aF4.5
aF9.4
aF0.483
aF0.8
aF2.5
aF0.32
aF1.4
aF1.8
aF0.769
aF1.6
aF3.6
aF5.2
aF4.0
aF2.2
aF0.7
aF0.7
aF0.4
aF2.7
aF1.9
aF11.3
aF1.9
aI5
aI0
aI5
aV2564,1610612766
p220
aa(lp221
I1802
aVBrad Miller
p222
aI1610612741
aVCHI
p223
aF34.0
aI82
aI41
aI41
aF0.5
aF23.8
aF3.0
aF7.1
aF0.43
aF0.5
aF1.6
aF0.28
aF2.2
aF2.7
aF0.827
aF1.0
aF3.9
aF4.9
aF1.9
aF1.3
aF0.5
aF0.4
aF0.4
aF2.3
aF2.5
aF8.8
aF-0.3
aI7
aI0
aI5
aV1802,1610612741
p224
aa(lp225
I101138
aVBrandon Bass
p226
aI1610612753
aVORL
p227
aF25.0
aI50
aI38
aI12
aF0.76
aF13.0
aF2.4
aF4.7
aF0.511
aF0.0
aF0.0
aF0.0
aF1.0
aF1.3
aF0.825
aF1.1
aF1.5
aF2.5
aF0.4
aF0.6
aF0.2
aF0.5
aF0.3
aF1.4
aF1.0
aF5.8
aF0.9
aI0
aI0
aI5
aV101138,1610612753
p228
aa(lp229
I201943
aVBrandon Jennings
p230
aI1610612749
aVMIL
p231
aF20.0
aI82
aI46
aI36
aF0.561
aF32.6
aF5.5
aF14.8
aF0.371
aF1.8
aF4.7
aF0.374
aF2.7
aF3.3
aF0.817
aF0.6
aF2.8
aF3.4
aF5.7
aF2.4
aF1.3
aF0.2
aF0.9
aF2.3
aF2.6
aF15.5
aF1.4
aI2
aI0
aI5
aV201943,1610612749
p232
aa(lp233
I200750
aVBrandon Roy
p234
aI1610612757
aVPOR
p235
aF25.0
aI65
aI42
aI23
aF0.646
aF37.2
aF7.6
aF16.0
aF0.473
aF1.1
aF3.4
aF0.33
aF5.3
aF6.8
aF0.78
aF1.1
aF3.3
aF4.4
aF4.7
aF2.0
aF0.9
aF0.2
aF0.7
aF2.1
aF5.3
aF21.5
aF3.8
aI1
aI0
aI5
aV200750,1610612757
p236
aa(lp237
I201575
aVBrandon Rush
p238
aI1610612754
aVIND
p239
aF24.0
aI82
aI32
aI50
aF0.39
aF30.4
aF3.6
aF8.6
aF0.423
aF1.5
aF3.7
aF0.411
aF0.7
aF1.1
aF0.629
aF0.5
aF3.7
aF4.2
aF1.4
aF1.1
aF0.7
aF0.8
aF0.4
aF1.9
aF1.1
aF9.4
aF-2.4
aI4
aI0
aI5
aV201575,1610612754
p240
aa(lp241
I2217
aVBrendan Haywood
p242
aI1610612742
aVDAL
p243
aF30.0
aI77
aI37
aI40
aF0.481
aF30.6
aF3.6
aF6.4
aF0.562
aF0.0
aF0.0
aF0.0
aF2.0
aF3.2
aF0.62
aF3.6
aF5.7
aF9.3
aF0.6
aF1.3
aF0.3
aF2.1
aF0.8
aF2.7
aF2.8
aF9.1
aF0.6
aI19
aI0
aI5
aV2217,1610612742
p244
aa(lp245
I2073
aVBrian Cardinal
p246
aI1610612750
aVMIN
p247
aF33.0
aI29
aI4
aI25
aF0.138
aF9.2
aF0.5
aF1.2
aF0.389
aF0.1
aF0.3
aF0.333
aF0.6
aF0.6
aF0.944
aF0.2
aF0.8
aF1.0
aF0.8
aF0.2
aF0.3
aF0.1
aF0.0
aF1.9
aF0.8
aF1.7
aF-2.0
aI0
aI0
aI5
aV2073,1610612750
p248
aa(lp249
I2567
aVBrian Cook
p250
aI1610612745
aVHOU
p251
aF29.0
aI14
aI6
aI8
aF0.429
aF3.2
aF0.5
aF1.6
aF0.304
aF0.1
aF0.6
aF0.222
aF0.4
aF0.5
aF0.714
aF0.1
aF0.6
aF0.6
aF0.1
aF0.4
aF0.0
aF0.1
aF0.0
aF0.4
aF0.4
aF1.5
aF-2.1
aI0
aI0
aI5
aV2567,1610612745
p252
aa(lp253
I2243
aVBrian Scalabrine
p254
aI1610612738
aVBOS
p255
aF32.0
aI52
aI32
aI20
aF0.615
aF9.1
aF0.6
aF1.6
aF0.341
aF0.3
aF0.9
aF0.327
aF0.1
aF0.1
aF0.667
aF0.2
aF0.8
aF0.9
aF0.5
aF0.3
aF0.2
aF0.1
aF0.0
aF1.1
aF0.3
aF1.5
aF-1.2
aI0
aI0
aI5
aV2243,1610612738
p256
aa(lp257
I1730
aVBrian Skinner
p258
aI1610612746
aVLAC
p259
aF34.0
aI16
aI5
aI11
aF0.313
aF7.7
aF0.6
aF1.6
aF0.4
aF0.0
aF0.0
aF0.0
aF0.4
aF0.5
aF0.75
aF0.6
aF1.1
aF1.7
aF0.0
aF0.4
aF0.2
aF0.3
aF0.1
aF1.3
aF0.6
aF1.6
aF-2.6
aI0
aI0
aI5
aV1730,1610612746
p260
aa(lp261
I201572
aVBrook Lopez
p262
aI1610612751
aVNJN
p263
aF22.0
aI82
aI12
aI70
aF0.146
aF36.9
aF6.9
aF13.8
aF0.499
aF0.0
aF0.0
aF0.0
aF5.1
aF6.2
aF0.817
aF3.3
aF5.4
aF8.6
aF2.3
aF2.5
aF0.7
aF1.7
aF1.0
aF3.1
aF4.8
aF18.8
aF-7.3
aI33
aI0
aI5
aV201572,1610612751
p264
aa(lp265
I201957
aVByron Mullens
p266
aI1610612760
aVOKC
p267
aF21.0
aI13
aI10
aI3
aF0.769
aF4.2
aF0.5
aF1.5
aF0.368
aF0.0
aF0.0
aF0.0
aF0.0
aF0.0
aF0.0
aF0.2
aF0.5
aF0.8
aF0.1
aF0.3
aF0.2
aF0.0
aF0.1
aF1.0
aF0.0
aF1.1
aF-2.5
aI0
aI0
aI5
aV201957,1610612760
p268
aa(lp269
I101139
aVCJ Miles
p270
aI1610612762
aVUTA
p271
aF23.0
aI63
aI42
aI21
aF0.667
aF23.8
aF3.8
aF8.9
aF0.429
aF1.2
aF3.4
aF0.341
aF1.0
aF1.5
aF0.695
aF0.7
aF2.0
aF2.7
aF1.7
aF1.3
aF0.9
aF0.3
aF0.4
aF3.0
aF1.4
aF9.9
aF2.6
aI0
aI0
aI5
aV101139,1610612762
p272
aa(lp273
I201228
aVCJ Watson
p274
aI1610612744
aVGSW
p275
aF26.0
aI65
aI18
aI47
aF0.277
aF27.5
aF3.8
aF8.1
aF0.468
aF0.7
aF2.2
aF0.31
aF2.0
aF2.6
aF0.771
aF0.4
aF2.2
aF2.6
aF2.8
aF1.1
aF1.6
aF0.1
aF0.3
aF1.9
aF2.3
aF10.3
aF0.0
aI0
aI0
aI5
aV201228,1610612744
p276
aa(lp277
I201171
aVCarl Landry
p278
aI1610612758
aVSAC
p279
aF26.0
aI80
aI34
aI46
aF0.425
aF30.9
aF6.2
aF11.6
aF0.536
aF0.0
aF0.0
aF0.333
aF4.3
aF5.3
aF0.806
aF2.4
aF3.5
aF5.9
aF0.8
aF1.7
aF0.7
aF0.8
aF1.4
aF2.9
aF4.4
aF16.8
aF-1.2
aI7
aI0
aI5
aV201171,1610612758
p280
aa(lp281
I2306
aVCarlos Arroyo
p282
aI1610612748
aVMIA
p283
aF30.0
aI72
aI43
aI29
aF0.597
aF22.0
aF2.5
aF5.2
aF0.475
aF0.1
aF0.3
aF0.28
aF1.1
aF1.3
aF0.844
aF0.4
aF1.4
aF1.8
aF3.1
aF0.8
aF0.5
aF0.1
aF0.2
aF1.4
aF1.3
aF6.1
aF0.8
aI1
aI0
aI5
aV2306,1610612748
p284
aa(lp285
I2430
aVCarlos Boozer
p286
aI1610612762
aVUTA
p287
aF28.0
aI78
aI50
aI28
aF0.641
aF34.3
aF7.9
aF14.1
aF0.562
aF0.0
aF0.0
aF0.0
aF3.7
aF4.9
aF0.742
aF2.3
aF8.9
aF11.2
aF3.2
aF2.7
aF1.1
aF0.5
aF1.2
aF3.5
aF3.6
aF19.5
aF3.3
aI55
aI0
aI5
aV2430,1610612762
p288
aa(lp289
I2568
aVCarlos Delfino
p290
aI1610612749
aVMIL
p291
aF27.0
aI75
aI42
aI33
aF0.56
aF30.4
aF4.0
aF9.8
aF0.408
aF1.8
aF4.9
aF0.367
aF1.2
aF1.6
aF0.782
aF0.7
aF4.6
aF5.3
aF2.7
aF1.6
aF1.1
aF0.3
aF0.5
aF1.8
aF1.3
aF11.0
aF1.5
aI4
aI0
aI5
aV2568,1610612749
p292
aa(lp293
I2546
aVCarmelo Anthony
p294
aI1610612743
aVDEN
p295
aF26.0
aI69
aI45
aI24
aF0.652
aF38.2
aF10.0
aF21.8
aF0.458
aF0.9
aF2.7
aF0.316
aF7.4
aF8.9
aF0.83
aF2.2
aF4.4
aF6.6
aF3.2
aF3.0
aF1.3
aF0.4
aF1.6
aF3.3
aF6.6
aF28.2
aF4.1
aI10
aI0
aI5
aV2546,1610612743
p296
aa(lp297
I2406
aVCaron Butler
p298
aI1610612742
aVDAL
p299
aF30.0
aI74
aI35
aI39
aF0.473
aF37.6
aF6.1
aF14.2
aF0.428
aF0.6
aF2.0
aF0.29
aF3.6
aF4.3
aF0.838
aF1.4
aF4.8
aF6.2
aF2.1
aF2.2
aF1.6
aF0.3
aF0.9
aF2.6
aF2.9
aF16.3
aF-0.3
aI9
aI0
aI5
aV2406,1610612742
p300
aa(lp301
I201858
aVCartier Martin
p302
aI1610612764
aVWAS
p303
aF25.0
aI18
aI5
aI13
aF0.278
aF21.7
aF2.8
aF7.6
aF0.368
aF0.9
aF2.7
aF0.347
aF1.3
aF1.7
aF0.8
aF1.4
aF2.4
aF3.8
aF0.9
aF1.1
aF0.6
aF0.1
aF0.3
aF2.7
aF1.8
aF7.8
aF-0.1
aI0
aI0
aI5
aV201858,1610612764
p304
aa(lp305
I202132
aVCedric Jackson
p306
aI1610612764
aVWAS
p307
aF24.0
aI12
aI11
aI1
aF0.917
aF6.2
aF0.5
aF1.7
aF0.3
aF0.1
aF0.5
aF0.167
aF0.6
aF1.0
aF0.583
aF0.2
aF0.5
aF0.7
aF1.2
aF0.9
aF0.3
aF0.2
aF0.3
aF0.6
aF0.7
aF1.7
aF-0.8
aI0
aI0
aI5
aV202132,1610612764
p308
aa(lp309
I101112
aVChanning Frye
p310
aI1610612756
aVPHX
p311
aF27.0
aI81
aI54
aI27
aF0.667
aF27.0
aF3.9
aF8.7
aF0.451
aF2.1
aF4.8
aF0.439
aF1.2
aF1.5
aF0.81
aF0.8
aF4.5
aF5.3
aF1.4
aF0.9
aF0.8
aF0.9
aF0.2
aF3.2
aF1.4
aF11.2
aF4.5
aI4
aI0
aI5
aV101112,1610612756
p312
aa(lp313
I101236
aVCharles Hayes
p314
aI1610612745
aVHOU
p315
aF27.0
aI82
aI42
aI40
aF0.512
aF21.6
aF2.0
aF4.0
aF0.489
aF0.0
aF0.0
aF0.0
aF0.4
aF0.8
aF0.545
aF1.8
aF3.8
aF5.7
aF1.7
aF0.9
aF0.9
aF0.5
aF0.7
aF2.7
aF1.1
aF4.4
aF0.0
aI4
aI0
aI5
aV101236,1610612745
p316
aa(lp317
I2294
aVCharlie Bell
p318
aI1610612749
aVMIL
p319
aF31.0
aI71
aI37
aI34
aF0.521
aF22.7
aF2.4
aF6.2
aF0.381
aF1.0
aF2.8
aF0.365
aF0.7
aF0.9
aF0.716
aF0.4
aF1.4
aF1.9
aF1.5
aF0.8
aF0.5
aF0.2
aF0.4
aF1.9
aF1.1
aF6.5
aF0.4
aI0
aI0
aI5
aV2294,1610612749
p320
aa(lp321
I101111
aVCharlie Villanueva
p322
aI1610612765
aVDET
p323
aF25.0
aI78
aI27
aI51
aF0.346
aF23.7
aF4.7
aF10.6
aF0.439
aF1.3
aF3.6
aF0.351
aF1.4
aF1.7
aF0.815
aF1.1
aF3.6
aF4.7
aF0.7
aF0.9
aF0.6
aF0.7
aF0.3
aF2.9
aF1.3
aF11.9
aF-3.6
aI2
aI0
aI5
aV101111,1610612765
p324
aa(lp325
I201978
aVChase Budinger
p326
aI1610612745
aVHOU
p327
aF22.0
aI74
aI38
aI36
aF0.514
aF20.1
aF3.4
aF7.6
aF0.441
aF1.2
aF3.4
aF0.369
aF0.9
aF1.2
aF0.77
aF0.5
aF2.5
aF3.0
aF1.2
aF0.6
aF0.5
aF0.1
aF0.4
aF1.1
aF1.0
aF8.9
aF0.0
aI2
aI0
aI5
aV201978,1610612745
p328
aa(lp329
I1497
aVChauncey Billups
p330
aI1610612743
aVDEN
p331
aF33.0
aI73
aI50
aI23
aF0.685
aF34.1
aF5.5
aF13.2
aF0.418
aF2.2
aF5.6
aF0.386
aF6.4
aF7.0
aF0.91
aF0.3
aF2.8
aF3.1
aF5.6
aF2.4
aF1.1
aF0.1
aF0.8
aF2.1
aF4.5
aF19.5
aF2.9
aI4
aI0
aI5
aV1497,1610612743
p332
aa(lp333
I2365
aVChris Andersen
p334
aI1610612743
aVDEN
p335
aF31.0
aI76
aI49
aI27
aF0.645
aF22.3
aF1.9
aF3.3
aF0.566
aF0.0
aF0.0
aF0.0
aF2.2
aF3.1
aF0.695
aF1.9
aF4.4
aF6.4
aF0.4
aF0.8
aF0.6
aF1.9
aF0.2
aF2.3
aF2.4
aF5.9
aF4.4
aI4
aI0
aI5
aV2365,1610612743
p336
aa(lp337
I2547
aVChris Bosh
p338
aI1610612761
aVTOR
p339
aF26.0
aI70
aI35
aI35
aF0.5
aF36.1
aF8.6
aF16.5
aF0.518
aF0.1
aF0.3
aF0.364
aF6.7
aF8.4
aF0.797
aF2.9
aF7.9
aF10.8
aF2.4
aF2.4
aF0.6
aF1.0
aF1.1
aF2.4
aF6.5
aF24.0
aF0.1
aI49
aI0
aI5
aV2547,1610612761
p340
aa(lp341
I201604
aVChris Douglas-Roberts
p342
aI1610612751
aVNJN
p343
aF23.0
aI67
aI12
aI55
aF0.179
aF25.8
aF3.8
aF8.6
aF0.445
aF0.2
aF0.8
aF0.259
aF2.0
aF2.3
aF0.847
aF0.7
aF2.3
aF3.0
aF1.4
aF1.4
aF0.8
aF0.3
aF0.9
aF1.5
aF1.7
aF9.8
aF-5.4
aI2
aI0
aI5
aV201604,1610612751
p344
aa(lp345
I2768
aVChris Duhon
p346
aI1610612752
aVNYK
p347
aF27.0
aI67
aI25
aI42
aF0.373
aF30.9
aF2.5
aF6.7
aF0.373
aF1.3
aF3.9
aF0.349
aF1.0
aF1.4
aF0.716
aF0.4
aF2.2
aF2.7
aF5.6
aF1.6
aF0.9
aF0.0
aF0.2
aF1.2
aF1.3
aF7.4
aF-2.1
aI2
aI0
aI5
aV2768,1610612752
p348
aa(lp349
I201805
aVChris Hunter
p350
aI1610612744
aVGSW
p351
aF25.0
aI60
aI19
aI41
aF0.317
aF13.0
aF1.8
aF3.6
aF0.502
aF0.0
aF0.1
aF0.0
aF0.9
aF1.2
aF0.754
aF0.9
aF1.9
aF2.8
aF0.6
aF0.5
aF0.2
aF0.6
aF0.4
aF2.2
aF1.1
aF4.5
aF0.0
aI1
aI0
aI5
aV201805,1610612744
p352
aa(lp353
I2549
aVChris Kaman
p354
aI1610612746
aVLAC
p355
aF28.0
aI76
aI29
aI47
aF0.382
aF34.3
aF7.8
aF15.8
aF0.49
aF0.0
aF0.1
aF0.0
aF3.0
aF4.0
aF0.749
aF2.4
aF6.8
aF9.3
aF1.6
aF2.9
aF0.5
aF1.2
aF0.9
aF2.8
aF3.3
aF18.5
aF-3.8
aI33
aI0
aI5
aV2549,1610612746
p356
aa(lp357
I101108
aVChris Paul
p358
aI1610612740
aVNOH
p359
aF25.0
aI45
aI23
aI22
aF0.511
aF38.1
aF7.0
aF14.2
aF0.493
aF1.2
aF2.8
aF0.409
aF3.6
aF4.2
aF0.847
aF0.4
aF3.8
aF4.2
aF10.7
aF2.5
aF2.1
aF0.2
aF0.4
aF2.6
aF5.5
aF18.7
aF0.2
aI23
aI1
aI5
aV101108,1610612740
p360
aa(lp361
I200809
aVChris Quinn
p362
aI1610612751
aVNJN
p363
aF26.0
aI25
aI4
aI21
aF0.16
aF8.9
aF0.8
aF2.2
aF0.357
aF0.4
aF1.3
aF0.313
aF0.2
aF0.2
aF1.0
aF0.0
aF0.6
aF0.6
aF1.2
aF0.4
aF0.4
aF0.0
aF0.1
aF0.6
aF0.6
aF2.2
aF-1.8
aI0
aI0
aI5
aV200809,1610612751
p364
aa(lp365
I201181
aVChris Richard
p366
aI1610612741
aVCHI
p367
aF25.0
aI18
aI7
aI11
aF0.389
aF12.4
aF0.8
aF1.6
aF0.517
aF0.0
aF0.0
aF0.0
aF0.4
aF0.6
aF0.636
aF1.1
aF2.2
aF3.3
aF0.4
aF0.8
aF0.4
aF0.2
aF0.2
aF2.8
aF0.4
aF2.1
aF-1.6
aI0
aI0
aI5
aV201181,1610612741
p368
aa(lp369
I2404
aVChris Wilcox
p370
aI1610612765
aVDET
p371
aF27.0
aI34
aI9
aI25
aF0.265
aF13.0
aF1.9
aF3.5
aF0.525
aF0.0
aF0.0
aF0.0
aF0.8
aF1.5
aF0.5
aF1.3
aF2.1
aF3.4
aF0.4
aF1.1
aF0.4
aF0.4
aF0.1
aF1.9
aF1.4
aF4.5
aF-4.3
aI1
aI0
aI5
aV2404,1610612765
p372
aa(lp373
I1088
aVChucky Atkins
p374
aI1610612765
aVDET
p375
aF35.0
aI40
aI15
aI25
aF0.375
aF16.1
aF1.4
aF3.9
aF0.363
aF0.6
aF1.8
aF0.301
aF0.6
aF0.7
aF0.926
aF0.1
aF0.6
aF0.7
aF2.3
aF0.8
aF0.4
aF0.0
aF0.1
aF1.3
aF0.9
aF4.0
aF-1.4
aI0
aI0
aI5
aV1088,1610612765
p376
aa(lp377
I201207
aVCoby Karl
p378
aI1610612744
aVGSW
p379
aF27.0
aI7
aI2
aI5
aF0.286
aF16.2
aF1.6
aF4.6
aF0.344
aF0.3
aF1.6
aF0.182
aF0.6
aF0.9
aF0.667
aF0.6
aF2.0
aF2.6
aF2.1
aF1.4
aF0.4
aF0.1
aF0.3
aF2.0
aF0.9
aF4.0
aF-4.1
aI0
aI0
aI5
aV201207,1610612744
p380
aa(lp381
I201147
aVCorey Brewer
p382
aI1610612750
aVMIN
p383
aF24.0
aI82
aI15
aI67
aF0.183
aF30.3
aF5.0
aF11.6
aF0.431
aF1.0
aF2.9
aF0.346
aF2.0
aF3.1
aF0.648
aF0.9
aF2.5
aF3.4
aF2.4
aF2.0
aF1.4
aF0.4
aF0.7
aF2.7
aF2.6
aF13.0
aF-6.2
aI1
aI0
aI5
aV201147,1610612750
p384
aa(lp385
I1894
aVCorey Maggette
p386
aI1610612744
aVGSW
p387
aF30.0
aI70
aI21
aI49
aF0.3
aF29.7
aF6.5
aF12.7
aF0.516
aF0.2
aF0.7
aF0.26
aF6.6
aF7.9
aF0.835
aF1.3
aF4.0
aF5.3
aF2.5
aF2.4
aF0.7
aF0.1
aF1.2
aF3.3
aF5.5
aF19.8
aF-4.1
aI5
aI0
aI5
aV1894,1610612744
p388
aa(lp389
I201584
aVCourtney Lee
p390
aI1610612751
aVNJN
p391
aF24.0
aI71
aI11
aI60
aF0.155
aF33.5
aF4.8
aF10.9
aF0.436
aF1.1
aF3.2
aF0.338
aF1.9
aF2.2
aF0.869
aF0.8
aF2.7
aF3.5
aF1.7
aF1.1
aF1.3
aF0.3
aF0.6
aF1.8
aF1.6
aF12.5
aF-5.9
aI0
aI0
aI5
aV201584,1610612751
p392
aa(lp393
I200783
aVCraig Smith
p394
aI1610612746
aVLAC
p395
aF26.0
aI75
aI25
aI50
aF0.333
aF16.4
aF3.0
aF5.3
aF0.569
aF0.0
aF0.1
aF0.2
aF1.8
aF2.8
aF0.635
aF1.3
aF2.5
aF3.8
aF1.1
aF1.2
aF0.4
aF0.3
aF0.6
aF2.6
aF2.1
aF7.8
aF-1.2
aI1
aI0
aI5
aV200783,1610612746
p396
aa(lp397
I201571
aVD.J. Augustin
p398
aI1610612766
aVCHA
p399
aF22.0
aI80
aI43
aI37
aF0.538
aF18.4
aF2.1
aF5.4
aF0.386
aF0.9
aF2.2
aF0.393
aF1.3
aF1.6
aF0.779
aF0.1
aF1.1
aF1.2
aF2.4
aF0.9
aF0.6
aF0.1
aF0.6
aF1.6
aF1.5
aF6.4
aF0.2
aI0
aI0
aI5
aV201571,1610612766
p400
aa(lp401
I2788
aVDJ Mbenga
p402
aI1610612747
aVLAL
p403
aF29.0
aI49
aI33
aI16
aF0.673
aF7.2
aF1.0
aF2.1
aF0.466
aF0.0
aF0.0
aF0.0
aF0.2
aF0.4
aF0.474
aF0.7
aF1.1
aF1.8
aF0.2
aF0.3
aF0.1
aF0.6
aF0.1
aF1.1
aF0.4
aF2.1
aF-0.7
aI1
aI0
aI5
aV2788,1610612747
p404
aa(lp405
I201591
aVDJ White
p406
aI1610612760
aVOKC
p407
aF23.0
aI12
aI5
aI7
aF0.417
aF8.5
aF2.1
aF3.4
aF0.61
aF0.0
aF0.0
aF0.0
aF0.8
aF0.8
aF0.9
aF0.8
aF1.1
aF1.9
aF0.3
aF0.3
aF0.4
aF0.3
aF0.1
aF1.0
aF0.6
aF4.9
aF0.7
aI0
aI0
aI5
aV201591,1610612760
p408
aa(lp409
I201969
aVDaJuan Summers
p410
aI1610612765
aVDET
p411
aF22.0
aI44
aI13
aI31
aF0.295
aF9.2
aF1.0
aF3.0
aF0.354
aF0.3
aF1.0
aF0.357
aF0.6
aF0.9
aF0.711
aF0.3
aF0.7
aF1.0
aF0.4
aF0.4
aF0.2
aF0.2
aF0.3
aF1.2
aF0.5
aF3.0
aF-2.4
aI0
aI0
aI5
aV201969,1610612765
p412
aa(lp413
I201161
aVDaequan Cook
p414
aI1610612748
aVMIA
p415
aF23.0
aI45
aI23
aI22
aF0.511
aF15.4
aF1.8
aF5.6
aF0.32
aF0.9
aF2.8
aF0.317
aF0.5
aF0.6
aF0.84
aF0.2
aF1.6
aF1.8
aF1.0
aF0.5
aF0.3
aF0.2
aF0.2
aF1.1
aF0.4
aF5.0
aF-0.3
aI0
aI0
aI5
aV201161,1610612748
p416
aa(lp417
I2563
aVDahntay Jones
p418
aI1610612754
aVIND
p419
aF29.0
aI76
aI28
aI48
aF0.368
aF24.9
aF3.8
aF8.2
aF0.461
aF0.1
aF0.4
aF0.125
aF2.6
aF3.4
aF0.77
aF0.6
aF2.4
aF3.0
aF2.0
aF1.7
aF0.5
aF0.5
aF0.6
aF3.1
aF2.8
aF10.2
aF-3.0
aI1
aI0
aI5
aV2563,1610612754
p420
aa(lp421
I2863
aVDamien Wilkins
p422
aI1610612750
aVMIN
p423
aF30.0
aI80
aI14
aI66
aF0.175
aF19.8
aF2.1
aF4.8
aF0.433
aF0.2
aF0.8
aF0.295
aF1.3
aF1.6
aF0.798
aF0.9
aF2.2
aF3.1
aF1.7
aF1.0
aF0.8
aF0.3
aF0.2
aF1.8
aF1.3
aF5.6
aF-3.5
aI3
aI0
aI5
aV2863,1610612750
p424
aa(lp425
I2429
aVDan Gadzuric
p426
aI1610612749
aVMIL
p427
aF32.0
aI32
aI16
aI16
aF0.5
aF9.8
aF1.2
aF2.8
aF0.438
aF0.0
aF0.0
aF0.0
aF0.3
aF0.8
aF0.4
aF1.2
aF1.7
aF2.9
aF0.4
aF0.5
aF0.3
aF0.4
aF0.3
aF2.0
aF1.0
aF2.8
aF1.1
aI0
aI0
aI5
aV2429,1610612749
p428
aa(lp429
I200789
aVDaniel Gibson
p430
aI1610612739
aVCLE
p431
aF24.0
aI56
aI42
aI14
aF0.75
aF19.1
aF2.2
aF4.8
aF0.466
aF1.3
aF2.7
aF0.477
aF0.6
aF0.9
aF0.694
aF0.2
aF1.1
aF1.3
aF1.3
aF0.6
aF0.4
aF0.1
aF0.2
aF1.4
aF0.8
aF6.3
aF2.8
aI0
aI0
aI5
aV200789,1610612739
p432
aa(lp433
I201568
aVDanilo Gallinari
p434
aI1610612752
aVNYK
p435
aF21.0
aI81
aI28
aI53
aF0.346
aF33.9
aF4.8
aF11.4
aF0.423
aF2.3
aF6.0
aF0.381
aF3.1
aF3.8
aF0.818
aF0.8
aF4.1
aF4.9
aF1.7
aF1.4
aF0.9
aF0.7
aF0.3
aF2.4
aF3.5
aF15.1
aF-1.6
aI5
aI0
aI5
aV201568,1610612752
p436
aa(lp437
I101122
aVDanny Granger
p438
aI1610612754
aVIND
p439
aF27.0
aI62
aI25
aI37
aF0.403
aF36.7
aF7.9
aF18.4
aF0.428
aF2.5
aF7.1
aF0.361
aF5.9
aF6.9
aF0.848
aF1.1
aF4.4
aF5.5
aF2.8
aF2.5
aF1.5
aF0.8
aF1.0
aF3.0
aF4.6
aF24.1
aF-0.6
aI3
aI0
aI5
aV101122,1610612754
p440
aa(lp441
I201980
aVDanny Green
p442
aI1610612739
aVCLE
p443
aF23.0
aI20
aI14
aI6
aF0.7
aF5.7
aF0.8
aF2.0
aF0.385
aF0.3
aF1.1
aF0.273
aF0.2
aF0.3
aF0.667
aF0.4
aF0.5
aF0.9
aF0.3
aF0.3
aF0.3
aF0.2
aF0.3
aF0.5
aF0.4
aF2.0
aF-1.1
aI0
aI0
aI5
aV201980,1610612739
p444
aa(lp445
I201967
aVDante Cunningham
p446
aI1610612757
aVPOR
p447
aF23.0
aI63
aI37
aI26
aF0.587
aF11.2
aF1.7
aF3.4
aF0.495
aF0.0
aF0.0
aF0.0
aF0.5
aF0.8
aF0.646
aF0.9
aF1.7
aF2.5
aF0.2
aF0.2
aF0.4
aF0.3
aF0.1
aF1.5
aF0.7
aF3.9
aF0.7
aI1
aI0
aI5
aV201967,1610612757
p448
aa(lp449
I2443
aVDarius Songaila
p450
aI1610612740
aVNOH
p451
aF32.0
aI75
aI34
aI41
aF0.453
aF18.8
aF3.2
aF6.5
aF0.494
aF0.0
aF0.1
aF0.167
aF0.8
aF1.0
aF0.811
aF0.8
aF2.3
aF3.1
aF0.9
aF1.1
aF0.8
aF0.2
aF0.3
aF2.7
aF1.1
aF7.2
aF-1.3
aI0
aI0
aI5
aV2443,1610612740
p452
aa(lp453
I2545
aVDarko Milicic
p454
aI1610612750
aVMIN
p455
aF25.0
aI32
aI3
aI29
aF0.094
aF21.4
aF3.1
aF6.4
aF0.49
aF0.0
aF0.0
aF0.0
aF0.5
aF0.9
aF0.536
aF1.5
aF3.3
aF4.7
aF1.5
aF1.1
aF0.7
aF1.1
aF0.3
aF2.6
aF0.9
aF6.7
aF-3.4
aI2
aI0
aI5
aV2545,1610612750
p456
aa(lp457
I201616
aVDarnell Jackson
p458
aI1610612749
aVMIL
p459
aF24.0
aI28
aI25
aI3
aF0.893
aF4.4
aF0.3
aF1.1
aF0.3
aF0.0
aF0.1
aF0.25
aF0.1
aF0.2
aF0.667
aF0.3
aF0.5
aF0.8
aF0.1
aF0.5
aF0.1
aF0.1
aF0.1
aF0.8
aF0.2
aF0.8
aF-1.6
aI0
aI0
aI5
aV201616,1610612749
p460
aa(lp461
I201589
aVDarrell Arthur
p462
aI1610612763
aVMEM
p463
aF22.0
aI32
aI14
aI18
aF0.438
aF14.3
aF2.0
aF4.6
aF0.432
aF0.0
aF0.0
aF0.0
aF0.5
aF0.9
aF0.567
aF1.2
aF2.3
aF3.4
aF0.5
aF0.7
aF0.4
aF0.4
aF0.6
aF1.9
aF0.9
aF4.5
aF-3.4
aI1
aI0
aI5
aV201589,1610612763
p464
aa(lp465
I201954
aVDarren Collison
p466
aI1610612740
aVNOH
p467
aF22.0
aI76
aI34
aI42
aF0.447
aF27.7
aF4.9
aF10.4
aF0.477
aF0.6
aF1.5
aF0.4
aF1.9
aF2.3
aF0.851
aF0.5
aF2.0
aF2.5
aF5.7
aF2.7
aF1.0
aF0.1
aF0.8
aF1.2
aF2.0
aF12.4
aF-2.3
aI14
aI1
aI5
aV201954,1610612740
p468
aa(lp469
I2431
aVDavid Andersen
p470
aI1610612745
aVHOU
p471
aF30.0
aI63
aI33
aI30
aF0.524
aF14.1
aF2.3
aF5.4
aF0.432
aF0.4
aF1.2
aF0.346
aF0.7
aF1.1
aF0.687
aF0.9
aF2.4
aF3.3
aF0.7
aF0.6
aF0.2
aF0.2
aF0.3
aF1.9
aF1.2
aF5.8
aF0.5
aI0
aI0
aI5
aV2431,1610612745
p472
aa(lp473
I101135
aVDavid Lee
p474
aI1610612752
aVNYK
p475
aF27.0
aI81
aI28
aI53
aF0.346
aF37.3
aF8.5
aF15.5
aF0.545
aF0.0
aF0.1
aF0.0
aF3.3
aF4.1
aF0.812
aF2.8
aF8.9
aF11.7
aF3.6
aF2.3
aF1.0
aF0.5
aF1.3
aF3.2
aF3.2
aF20.2
aF-3.2
aI53
aI1
aI5
aV101135,1610612752
p476
aa(lp477
I2561
aVDavid West
p478
aI1610612740
aVNOH
p479
aF29.0
aI81
aI37
aI44
aF0.457
aF36.4
aF7.6
aF15.1
aF0.505
aF0.1
aF0.3
aF0.259
aF3.7
aF4.2
aF0.865
aF2.0
aF5.4
aF7.5
aF3.0
aF2.1
aF0.9
aF0.7
aF0.9
aF2.9
aF3.8
aF19.0
aF-2.1
aI21
aI0
aI5
aV2561,1610612740
p480
aa(lp481
I201599
aVDeAndre Jordan
p482
aI1610612746
aVLAC
p483
aF21.0
aI70
aI23
aI47
aF0.329
aF16.2
aF2.1
aF3.4
aF0.605
aF0.0
aF0.0
aF0.0
aF0.7
aF1.8
aF0.375
aF1.7
aF3.3
aF5.0
aF0.3
aF1.1
aF0.2
aF0.9
aF0.3
aF2.2
aF1.6
aF4.8
aF-3.6
aI8
aI0
aI5
aV201599,1610612746
p484
aa(lp485
I201971
aVDeJuan Blair
p486
aI1610612759
aVSAS
p487
aF21.0
aI82
aI50
aI32
aF0.61
aF18.2
aF3.4
aF6.0
aF0.556
aF0.0
aF0.0
aF0.0
aF1.1
aF2.0
aF0.547
aF2.4
aF4.0
aF6.4
aF0.8
aF1.4
aF0.6
aF0.5
aF0.7
aF2.7
aF1.5
aF7.8
aF1.2
aI8
aI0
aI5
aV201971,1610612759
p488
aa(lp489
I201942
aVDeMar DeRozan
p490
aI1610612761
aVTOR
p491
aF20.0
aI77
aI36
aI41
aF0.468
aF21.6
aF3.3
aF6.6
aF0.498
aF0.1
aF0.2
aF0.25
aF1.9
aF2.5
aF0.763
aF0.9
aF2.0
aF2.9
aF0.7
aF0.8
aF0.6
aF0.2
aF0.5
aF2.3
aF1.9
aF8.6
aF-3.0
aI0
aI0
aI5
aV201942,1610612761
p492
aa(lp493
I201960
aVDeMarre Carroll
p494
aI1610612763
aVMEM
p495
aF23.0
aI71
aI34
aI37
aF0.479
aF11.2
aF1.2
aF3.1
aF0.396
aF0.0
aF0.1
aF0.0
aF0.5
aF0.7
aF0.623
aF0.7
aF1.4
aF2.1
aF0.5
aF0.3
aF0.4
aF0.1
aF0.3
aF1.5
aF0.7
aF2.9
aF-0.7
aI0
aI0
aI5
aV201960,1610612763
p496
aa(lp497
I2205
aVDeSagana Diop
p498
aI1610612766
aVCHA
p499
aF28.0
aI27
aI14
aI13
aF0.519
aF9.7
aF0.6
aF1.1
aF0.517
aF0.0
aF0.0
aF0.0
aF0.1
aF0.3
aF0.222
aF0.9
aF1.5
aF2.4
aF0.2
aF0.4
aF0.2
aF0.5
aF0.0
aF1.1
aF0.3
aF1.2
aF0.3
aI0
aI0
aI5
aV2205,1610612766
p500
aa(lp501
I2052
aVDeShawn Stevenson
p502
aI1610612742
aVDAL
p503
aF29.0
aI64
aI31
aI33
aF0.484
aF13.8
aF0.7
aF2.5
aF0.282
aF0.3
aF1.4
aF0.218
aF0.4
aF0.5
aF0.714
aF0.2
aF1.3
aF1.4
aF0.9
aF0.5
aF0.3
aF0.1
aF0.1
aF1.2
aF0.6
aF2.1
aF-1.6
aI0
aI0
aI5
aV2052,1610612742
p504
aa(lp505
I2753
aVDelonte West
p506
aI1610612739
aVCLE
p507
aF26.0
aI60
aI42
aI18
aF0.7
aF25.0
aF3.2
aF7.3
aF0.445
aF0.4
aF1.3
aF0.325
aF1.9
aF2.4
aF0.81
aF0.5
aF2.3
aF2.8
aF3.3
aF1.5
aF0.9
aF0.5
aF0.6
aF1.4
aF1.9
aF8.8
aF3.4
aI1
aI0
aI5
aV2753,1610612739
p508
aa(lp509
I965
aVDerek Fisher
p510
aI1610612747
aVLAL
p511
aF35.0
aI82
aI57
aI25
aF0.695
aF27.2
aF2.6
aF6.8
aF0.38
aF1.0
aF2.7
aF0.348
aF1.4
aF1.6
aF0.856
aF0.3
aF1.8
aF2.1
aF2.5
aF1.0
aF1.1
aF0.1
aF0.2
aF2.5
aF1.8
aF7.5
aF4.3
aI0
aI0
aI5
aV965,1610612747
p512
aa(lp513
I101114
aVDeron Williams
p514
aI1610612762
aVUTA
p515
aF26.0
aI76
aI50
aI26
aF0.658
aF36.9
aF6.5
aF13.9
aF0.469
aF1.3
aF3.4
aF0.371
aF4.4
aF5.5
aF0.801
aF0.7
aF3.3
aF4.0
aF10.5
aF3.3
aF1.3
aF0.2
aF0.8
aF2.7
aF5.0
aF18.7
aF5.7
aI44
aI0
aI5
aV101114,1610612762
p516
aa(lp517
I201974
aVDerrick Brown
p518
aI1610612766
aVCHA
p519
aF22.0
aI57
aI34
aI23
aF0.596
aF9.4
aF1.2
aF2.6
aF0.463
aF0.0
aF0.1
aF0.286
aF0.8
aF1.3
aF0.667
aF0.5
aF0.8
aF1.4
aF0.3
aF0.3
aF0.4
aF0.2
aF0.4
aF0.9
aF0.9
aF3.3
aF-0.2
aI0
aI0
aI5
aV201974,1610612766
p520
aa(lp521
I201565
aVDerrick Rose
p522
aI1610612741
aVCHI
p523
aF21.0
aI78
aI41
aI37
aF0.526
aF36.8
aF8.6
aF17.6
aF0.489
aF0.2
aF0.8
aF0.267
aF3.3
aF4.3
aF0.766
aF0.8
aF2.9
aF3.8
aF6.0
aF2.8
aF0.7
aF0.3
aF1.2
aF1.2
aF3.3
aF20.8
aF-0.5
aI6
aI0
aI5
aV201565,1610612741
p524
aa(lp525
I2046
aVDesmond Mason
p526
aI1610612758
aVSAC
p527
aF32.0
aI5
aI1
aI4
aF0.2
aF13.1
aF1.0
aF2.4
aF0.417
aF0.0
aF0.0
aF0.0
aF0.6
aF0.8
aF0.75
aF0.8
aF1.8
aF2.6
aF0.4
aF0.8
aF0.2
aF0.2
aF0.0
aF1.0
aF0.6
aF2.6
aF-8.0
aI0
aI0
aI5
aV2046,1610612758
p528
aa(lp529
I1904
aVDevean George
p530
aI1610612744
aVGSW
p531
aF32.0
aI45
aI13
aI32
aF0.289
aF16.9
aF2.0
aF4.6
aF0.432
aF1.1
aF2.7
aF0.39
aF0.4
aF0.5
aF0.696
aF0.5
aF2.1
aF2.5
aF0.7
aF0.3
aF0.9
aF0.2
aF0.0
aF2.0
aF0.5
aF5.4
aF0.2
aI0
aI0
aI5
aV1904,1610612744
p532
aa(lp533
I2484
aVDevin Brown
p534
aI1610612741
aVCHI
p535
aF31.0
aI50
aI26
aI24
aF0.52
aF21.2
aF2.7
aF7.2
aF0.377
aF1.2
aF3.3
aF0.354
aF1.4
aF1.7
aF0.802
aF0.6
aF1.9
aF2.5
aF1.3
aF1.2
aF0.7
aF0.1
aF0.5
aF1.4
aF1.4
aF8.0
aF-0.5
aI0
aI0
aI5
aV2484,1610612741
p536
aa(lp537
I2734
aVDevin Harris
p538
aI1610612751
aVNJN
p539
aF27.0
aI64
aI11
aI53
aF0.172
aF34.7
aF5.6
aF13.8
aF0.403
aF0.9
aF3.4
aF0.276
aF4.8
aF6.0
aF0.798
aF0.4
aF2.8
aF3.2
aF6.6
aF2.8
aF1.2
aF0.3
aF0.9
aF2.8
aF5.3
aF16.9
aF-7.5
aI6
aI0
aI5
aV2734,1610612751
p540
aa(lp541
I1717
aVDirk Nowitzki
p542
aI1610612742
aVDAL
p543
aF32.0
aI81
aI54
aI27
aF0.667
aF37.5
aF8.9
aF18.5
aF0.481
aF0.6
aF1.5
aF0.421
aF6.6
aF7.2
aF0.915
aF1.0
aF6.7
aF7.7
aF2.7
aF1.8
aF0.9
aF1.0
aF0.6
aF2.6
aF6.1
aF25.0
aF4.3
aI19
aI1
aI5
aV1717,1610612742
p544
aa(lp545
I201187
aVDominic McGuire
p546
aI1610612758
aVSAC
p547
aF24.0
aI51
aI12
aI39
aF0.235
aF6.0
aF0.4
aF1.0
aF0.365
aF0.0
aF0.0
aF0.0
aF0.0
aF0.1
aF0.0
aF0.5
aF1.1
aF1.5
aF0.2
aF0.3
aF0.1
aF0.1
aF0.2
aF0.7
aF0.2
aF0.7
aF-2.6
aI0
aI0
aI5
aV201187,1610612758
p548
aa(lp549
I201590
aVDonte Greene
p550
aI1610612758
aVSAC
p551
aF22.0
aI76
aI22
aI54
aF0.289
aF21.4
aF3.2
aF7.3
aF0.441
aF0.9
aF2.4
aF0.377
aF1.2
aF1.8
aF0.643
aF0.7
aF2.4
aF3.1
aF0.9
aF1.2
aF0.5
aF0.7
aF0.6
aF2.0
aF1.6
aF8.5
aF-2.2
aI1
aI0
aI5
aV201590,1610612758
p552
aa(lp553
I2748
aVDorell Wright
p554
aI1610612748
aVMIA
p555
aF24.0
aI72
aI40
aI32
aF0.556
aF20.8
aF2.7
aF5.8
aF0.463
aF0.8
aF2.2
aF0.389
aF0.8
aF1.0
aF0.884
aF0.7
aF2.6
aF3.3
aF1.3
aF0.7
aF0.7
aF0.4
aF0.1
aF1.3
aF0.8
aF7.1
aF0.3
aI0
aI0
aI5
aV2748,1610612748
p556
aa(lp557
I2400
aVDrew Gooden
p558
aI1610612746
aVLAC
p559
aF28.0
aI70
aI33
aI37
aF0.471
aF25.1
aF4.1
aF8.6
aF0.478
aF0.0
aF0.1
aF0.125
aF2.7
aF3.1
aF0.861
aF3.0
aF4.8
aF7.7
aF0.7
aF1.5
aF0.6
aF0.8
aF0.6
aF2.8
aF2.5
aF10.9
aF-4.0
aI19
aI0
aI5
aV2400,1610612746
p560
aa(lp561
I101204
aVDwayne Jones
p562
aI1610612756
aVPHX
p563
aF27.0
aI2
aI2
aI0
aF1.0
aF3.5
aF0.0
aF0.0
aF0.0
aF0.0
aF0.0
aF0.0
aF0.0
aF0.0
aF0.0
aF0.0
aF1.0
aF1.0
aF0.0
aF0.0
aF0.0
aF0.0
aF0.0
aF0.5
aF0.0
aF0.0
aF-1.5
aI0
aI0
aI5
aV101204,1610612756
p564
aa(lp565
I2730
aVDwight Howard
p566
aI1610612753
aVORL
p567
aF24.0
aI82
aI59
aI23
aF0.72
aF34.7
aF6.2
aF10.2
aF0.612
aF0.0
aF0.1
aF0.0
aF5.9
aF10.0
aF0.592
aF3.5
aF9.7
aF13.2
aF1.8
aF3.3
aF0.9
aF2.8
aF0.8
aF3.5
aF8.2
aF18.3
aF7.5
aI64
aI0
aI5
aV2730,1610612753
p568
aa(lp569
I2548
aVDwyane Wade
p570
aI1610612748
aVMIA
p571
aF28.0
aI77
aI45
aI32
aF0.584
aF36.3
aF9.3
aF19.6
aF0.476
aF0.9
aF3.2
aF0.3
aF6.9
aF9.1
aF0.761
aF1.4
aF3.5
aF4.8
aF6.5
aF3.3
aF1.8
aF1.1
aF0.8
aF2.4
aF6.5
aF26.6
aF4.6
aI17
aI0
aI5
aV2548,1610612748
p572
aa(lp573
I2853
aVEarl Barron
p574
aI1610612752
aVNYK
p575
aF28.0
aI7
aI3
aI4
aF0.429
aF33.2
aF4.3
aF9.7
aF0.441
aF0.0
aF0.0
aF0.0
aF3.1
aF4.1
aF0.759
aF4.4
aF6.6
aF11.0
aF1.1
aF1.6
aF0.6
aF0.6
aF1.0
aF3.4
aF3.6
aF11.7
aF0.7
aI2
aI0
aI5
aV2853,1610612752
p576
aa(lp577
I1863
aVEarl Boykins
p578
aI1610612764
aVWAS
p579
aF34.0
aI67
aI22
aI45
aF0.328
aF16.7
aF2.6
aF6.0
aF0.427
aF0.3
aF0.9
aF0.317
aF1.1
aF1.3
aF0.865
aF0.3
aF0.9
aF1.1
aF2.6
aF1.0
aF0.4
aF0.0
aF0.4
aF0.7
aF1.1
aF6.6
aF-3.4
aI0
aI0
aI5
aV1863,1610612764
p580
aa(lp581
I201947
aVEarl Clark
p582
aI1610612756
aVPHX
p583
aF22.0
aI51
aI36
aI15
aF0.706
aF7.5
aF1.1
aF3.0
aF0.371
aF0.0
aF0.1
aF0.4
aF0.5
aF0.7
aF0.722
aF0.4
aF0.9
aF1.2
aF0.4
aF0.5
aF0.1
aF0.3
aF0.3
aF0.5
aF0.5
aF2.7
aF-0.7
aI0
aI0
aI5
aV201947,1610612756
p584
aa(lp585
I2248
aVEarl Watson
p586
aI1610612754
aVIND
p587
aF31.0
aI79
aI31
aI48
aF0.392
aF29.4
aF2.8
aF6.6
aF0.426
aF0.7
aF2.3
aF0.288
aF1.5
aF2.1
aF0.71
aF0.7
aF2.4
aF3.0
aF5.1
aF2.2
aF1.3
aF0.2
aF0.4
aF2.3
aF2.1
aF7.8
aF-1.4
aI2
aI0
aI5
aV2248,1610612754
p588
aa(lp589
I2067
aVEddie House
p590
aI1610612752
aVNYK
p591
aF32.0
aI68
aI37
aI31
aF0.544
aF17.9
aF2.5
aF6.7
aF0.38
aF1.2
aF3.3
aF0.348
aF0.7
aF0.8
aF0.923
aF0.2
aF1.4
aF1.6
aF1.3
aF0.7
aF0.6
aF0.1
aF0.1
aF1.2
aF0.6
aF7.0
aF0.5
aI0
aI0
aI5
aV2067,1610612752
p592
aa(lp593
I2201
aVEddy Curry
p594
aI1610612752
aVNYK
p595
aF27.0
aI7
aI3
aI4
aF0.429
aF8.9
aF1.1
aF3.0
aF0.381
aF0.0
aF0.0
aF0.0
aF1.4
aF2.4
aF0.588
aF0.6
aF1.3
aF1.9
aF0.0
aF1.9
aF0.0
aF0.1
aF0.3
aF1.9
aF2.3
aF3.7
aF-3.0
aI0
aI0
aI5
aV2201,1610612752
p596
aa(lp597
I2059
aVEduardo Najera
p598
aI1610612742
aVDAL
p599
aF33.0
aI46
aI24
aI22
aF0.522
aF14.9
aF1.3
aF3.2
aF0.425
aF0.4
aF1.4
aF0.297
aF0.3
aF0.5
aF0.583
aF0.7
aF1.8
aF2.5
aF0.6
aF0.5
aF0.6
aF0.3
aF0.2
aF2.0
aF0.7
aF3.4
aF-0.8
aI0
aI0
aI5
aV2059,1610612742
p600
aa(lp601
I1882
aVElton Brand
p602
aI1610612755
aVPHI
p603
aF31.0
aI76
aI27
aI49
aF0.355
aF30.2
aF5.4
aF11.3
aF0.48
aF0.0
aF0.0
aF0.0
aF2.3
aF3.1
aF0.738
aF2.4
aF3.7
aF6.1
aF1.4
aF1.7
aF1.1
aF1.1
aF0.7
aF3.1
aF2.5
aF13.1
aF-0.9
aI7
aI0
aI5
aV1882,1610612755
p604
aa(lp605
I2731
aVEmeka Okafor
p606
aI1610612740
aVNOH
p607
aF27.0
aI82
aI37
aI45
aF0.451
aF28.9
aF4.2
aF8.0
aF0.53
aF0.0
aF0.0
aF0.0
aF1.9
aF3.3
aF0.562
aF3.1
aF6.0
aF9.0
aF0.7
aF1.4
aF0.7
aF1.5
aF0.7
aF2.7
aF2.9
aF10.4
aF-1.6
aI27
aI0
aI5
aV2731,1610612740
p608
aa(lp609
I201569
aVEric Gordon
p610
aI1610612746
aVLAC
p611
aF21.0
aI62
aI23
aI39
aF0.371
aF36.0
aF5.7
aF12.6
aF0.449
aF1.9
aF5.2
aF0.371
aF3.6
aF4.8
aF0.742
aF0.4
aF2.2
aF2.6
aF3.0
aF2.3
aF1.1
aF0.2
aF0.8
aF1.5
aF3.8
aF16.9
aF-3.7
aI0
aI0
aI5
aV201569,1610612746
p612
aa(lp613
I201953
aVEric Maynor
p614
aI1610612760
aVOKC
p615
aF23.0
aI81
aI53
aI28
aF0.654
aF15.7
aF1.9
aF4.5
aF0.418
aF0.3
aF0.9
aF0.31
aF0.6
aF0.9
aF0.722
aF0.3
aF1.3
aF1.6
aF3.3
aF1.0
aF0.5
aF0.1
aF0.3
aF1.4
aF0.8
aF4.7
aF0.5
aI3
aI0
aI5
aV201953,1610612760
p616
aa(lp617
I956
aVErick Dampier
p618
aI1610612742
aVDAL
p619
aF34.0
aI55
aI32
aI23
aF0.582
aF23.3
aF2.4
aF3.9
aF0.624
aF0.0
aF0.1
aF0.333
aF1.1
aF1.8
aF0.604
aF2.3
aF4.9
aF7.3
aF0.6
aF1.1
aF0.3
aF1.4
aF0.5
aF2.8
aF1.7
aF6.0
aF2.8
aI7
aI0
aI5
aV956,1610612742
p620
aa(lp621
I101141
aVErsan Ilyasova
p622
aI1610612749
aVMIL
p623
aF23.0
aI81
aI46
aI35
aF0.568
aF23.4
aF4.0
aF9.0
aF0.443
aF1.0
aF3.0
aF0.336
aF1.4
aF2.0
aF0.715
aF1.9
aF4.4
aF6.4
aF1.0
aF0.9
aF0.7
aF0.3
aF0.5
aF3.1
aF2.3
aF10.4
aF2.1
aI11
aI0
aI5
aV101141,1610612749
p624
aa(lp625
I2041
aVEtan Thomas
p626
aI1610612760
aVOKC
p627
aF32.0
aI23
aI13
aI10
aF0.565
aF13.9
aF1.3
aF3.0
aF0.456
aF0.0
aF0.0
aF0.0
aF0.6
aF1.0
aF0.591
aF0.8
aF2.0
aF2.8
aF0.0
aF0.8
aF0.2
aF0.7
aF0.4
aF1.7
aF1.0
aF3.3
aF-1.2
aI0
aI0
aI5
aV2041,1610612760
p628
aa(lp629
I101177
aVFabricio Oberto
p630
aI1610612764
aVWAS
p631
aF35.0
aI57
aI18
aI39
aF0.316
aF11.4
aF0.6
aF1.0
aF0.625
aF0.0
aF0.0
aF0.0
aF0.2
aF0.3
aF0.765
aF0.6
aF1.2
aF1.8
aF0.9
aF0.6
aF0.2
aF0.2
aF0.0
aF2.1
aF0.7
aF1.5
aF-0.8
aI0
aI0
aI5
aV101177,1610612764
p632
aa(lp633
I1922
aVFrancisco Elson
p634
aI1610612755
aVPHI
p635
aF34.0
aI12
aI4
aI8
aF0.333
aF5.5
aF0.4
aF1.3
aF0.333
aF0.0
aF0.0
aF0.0
aF0.2
aF0.4
aF0.4
aF0.5
aF0.7
aF1.2
aF0.2
aF0.1
aF0.1
aF0.0
aF0.1
aF0.6
aF0.4
aF1.0
aF-0.1
aI0
aI0
aI5
aV1922,1610612755
p636
aa(lp637
I101128
aVFrancisco Garcia
p638
aI1610612758
aVSAC
p639
aF28.0
aI25
aI7
aI18
aF0.28
aF23.0
aF3.3
aF7.0
aF0.466
aF0.9
aF2.4
aF0.39
aF0.6
aF0.7
aF0.882
aF0.4
aF2.2
aF2.6
aF1.8
aF0.8
aF0.4
aF0.8
aF0.3
aF2.0
aF1.0
aF8.1
aF-0.6
aI0
aI0
aI5
aV101128,1610612758
p640
aa(lp641
I202066
aVGarrett Temple
p642
aI1610612759
aVSAS
p643
aF24.0
aI27
aI12
aI15
aF0.444
aF12.4
aF1.6
aF3.7
aF0.436
aF0.5
aF1.4
aF0.351
aF1.3
aF1.9
aF0.7
aF0.2
aF0.9
aF1.1
aF0.8
aF1.0
aF0.5
aF0.2
aF0.1
aF1.6
aF1.6
aF5.0
aF-0.1
aI0
aI0
aI5
aV202066,1610612759
p644
aa(lp645
I201588
aVGeorge Hill
p646
aI1610612759
aVSAS
p647
aF24.0
aI78
aI48
aI30
aF0.615
aF29.2
aF4.5
aF9.5
aF0.478
aF1.0
aF2.4
aF0.399
aF2.3
aF3.0
aF0.772
aF0.5
aF2.1
aF2.6
aF2.9
aF1.3
aF0.9
aF0.3
aF0.7
aF2.8
aF2.9
aF12.4
aF2.6
aI1
aI0
aI5
aV201588,1610612759
p648
aa(lp649
I201945
aVGerald Henderson
p650
aI1610612766
aVCHA
p651
aF22.0
aI43
aI27
aI16
aF0.628
aF8.3
aF0.9
aF2.4
aF0.356
aF0.1
aF0.4
aF0.211
aF0.8
aF1.1
aF0.745
aF0.3
aF0.9
aF1.3
aF0.3
aF0.3
aF0.2
aF0.2
aF0.2
aF0.6
aF0.8
aF2.6
aF-0.4
aI0
aI0
aI5
aV201945,1610612766
p652
aa(lp653
I2222
aVGerald Wallace
p654
aI1610612766
aVCHA
p655
aF27.0
aI76
aI41
aI35
aF0.539
aF41.0
aF6.0
aF12.4
aF0.484
aF0.7
aF1.8
aF0.371
aF5.6
aF7.2
aF0.776
aF2.0
aF8.1
aF10.0
aF2.1
aF2.3
aF1.5
aF1.1
aF1.4
aF2.6
aF6.1
aF18.2
aF1.8
aI33
aI0
aI5
aV2222,1610612766
p656
aa(lp657
I2240
aVGilbert Arenas
p658
aI1610612764
aVWAS
p659
aF28.0
aI32
aI11
aI21
aF0.344
aF36.5
aF7.9
aF19.3
aF0.411
aF2.0
aF5.7
aF0.348
aF4.8
aF6.5
aF0.739
aF0.5
aF3.6
aF4.2
aF7.2
aF3.7
aF1.3
aF0.3
aF1.3
aF3.0
aF5.2
aF22.6
aF-2.6
aI5
aI1
aI5
aV2240,1610612764
p660
aa(lp661
I201175
aVGlen Davis
p662
aI1610612738
aVBOS
p663
aF24.0
aI54
aI28
aI26
aF0.519
aF17.3
aF2.3
aF5.2
aF0.437
aF0.0
aF0.1
aF0.0
aF1.8
aF2.6
aF0.696
aF1.9
aF1.9
aF3.8
aF0.6
aF1.0
aF0.4
aF0.3
aF0.9
aF2.4
aF2.1
aF6.3
aF-1.6
aI0
aI0
aI5
aV201175,1610612738
p664
aa(lp665
I201609
aVGoran Dragic
p666
aI1610612756
aVPHX
p667
aF24.0
aI80
aI53
aI27
aF0.663
aF18.0
aF2.8
aF6.1
aF0.452
aF0.9
aF2.4
aF0.394
aF1.5
aF2.0
aF0.736
aF0.5
aF1.7
aF2.1
aF3.0
aF1.6
aF0.6
aF0.1
aF0.4
aF1.6
aF1.6
aF7.9
aF0.9
aI1
aI0
aI5
aV201609,1610612756
p668
aa(lp669
I255
aVGrant Hill
p670
aI1610612756
aVPHX
p671
aF37.0
aI81
aI54
aI27
aF0.667
aF30.0
aF4.1
aF8.7
aF0.478
aF0.4
aF1.0
aF0.438
aF2.5
aF3.1
aF0.817
aF0.9
aF4.6
aF5.5
aF2.4
aF1.3
aF0.7
aF0.4
aF0.4
aF2.0
aF2.5
aF11.3
aF2.1
aI6
aI0
aI5
aV255,1610612756
p672
aa(lp673
I201141
aVGreg Oden
p674
aI1610612757
aVPOR
p675
aF22.0
aI21
aI13
aI8
aF0.619
aF23.9
aF4.4
aF7.2
aF0.605
aF0.0
aF0.0
aF0.0
aF2.3
aF3.0
aF0.766
aF3.0
aF5.4
aF8.5
aF0.9
aF1.9
aF0.4
aF2.3
aF0.5
aF4.0
aF3.0
aF11.1
aF3.8
aI5
aI0
aI5
aV201141,1610612757
p676
aa(lp677
I101124
aVHakim Warrick
p678
aI1610612741
aVCHI
p679
aF27.0
aI76
aI36
aI40
aF0.474
aF20.5
aF3.5
aF7.2
aF0.482
aF0.0
aF0.1
aF0.143
aF2.7
aF3.6
aF0.737
aF1.7
aF2.5
aF4.1
aF0.7
aF1.1
aF0.3
aF0.2
aF0.4
aF1.7
aF3.0
aF9.6
aF-2.1
aI3
aI0
aI5
aV101124,1610612741
p680
aa(lp681
I201632
aVHamed Haddadi
p682
aI1610612763
aVMEM
p683
aF25.0
aI36
aI18
aI18
aF0.5
aF6.7
aF0.7
aF1.7
aF0.387
aF0.0
aF0.1
aF0.0
aF0.4
aF0.5
aF0.737
aF0.7
aF1.4
aF2.1
aF0.3
aF0.6
aF0.0
aF0.4
aF0.3
aF1.6
aF0.5
aF1.7
aF-1.8
aI0
aI0
aI5
aV201632,1610612763
p684
aa(lp685
I201934
aVHasheem Thabeet
p686
aI1610612763
aVMEM
p687
aF23.0
aI68
aI32
aI36
aF0.471
aF13.0
aF1.1
aF1.9
aF0.588
aF0.0
aF0.0
aF0.0
aF0.8
aF1.4
aF0.581
aF1.3
aF2.3
aF3.6
aF0.2
aF0.6
aF0.2
aF1.3
aF0.2
aF2.4
aF1.3
aF3.1
aF-1.1
aI0
aI0
aI5
aV201934,1610612763
p688
aa(lp689
I2045
aVHedo Turkoglu
p690
aI1610612761
aVTOR
p691
aF31.0
aI74
aI37
aI37
aF0.5
aF30.7
aF3.7
aF9.1
aF0.409
aF1.5
aF3.9
aF0.374
aF2.4
aF3.1
aF0.774
aF0.6
aF4.1
aF4.6
aF4.1
aF1.7
aF0.7
aF0.4
aF0.3
aF3.0
aF2.2
aF11.3
aF-1.7
aI2
aI0
aI5
aV2045,1610612761
p692
aa(lp693
I201611
aVHenry Walker
p694
aI1610612752
aVNYK
p695
aF22.0
aI35
aI15
aI20
aF0.429
aF21.9
aF3.4
aF6.6
aF0.517
aF1.4
aF3.3
aF0.431
aF1.1
aF1.4
aF0.796
aF0.4
aF2.1
aF2.5
aF1.1
aF0.8
aF0.7
aF0.1
aF0.2
aF2.4
aF1.2
aF9.4
aF-0.4
aI0
aI0
aI5
aV201611,1610612752
p696
aa(lp697
I200756
aVHilton Armstrong
p698
aI1610612745
aVHOU
p699
aF25.0
aI33
aI11
aI22
aF0.333
aF10.2
aF0.8
aF2.4
aF0.354
aF0.0
aF0.0
aF0.0
aF0.5
aF1.0
aF0.469
aF0.8
aF1.6
aF2.5
aF0.6
aF0.7
aF0.5
aF0.4
aF0.3
aF1.8
aF1.1
aF2.2
aF-1.0
aI0
aI0
aI5
aV200756,1610612745
p700
aa(lp701
I101133
aVIan Mahinmi
p702
aI1610612759
aVSAS
p703
aF23.0
aI26
aI16
aI10
aF0.615
aF6.3
aF1.3
aF2.1
aF0.636
aF0.0
aF0.0
aF0.0
aF1.2
aF1.8
aF0.66
aF0.5
aF1.5
aF2.0
aF0.1
aF0.6
aF0.1
aF0.3
aF0.3
aF1.2
aF1.2
aF3.9
aF-0.7
aI0
aI0
aI5
aV101133,1610612759
p704
aa(lp705
I2137
aVIme Udoka
p706
aI1610612758
aVSAC
p707
aF32.0
aI69
aI21
aI48
aF0.304
aF13.7
aF1.3
aF3.5
aF0.378
aF0.4
aF1.3
aF0.286
aF0.6
aF0.8
aF0.737
aF0.7
aF2.0
aF2.8
aF0.8
aF0.6
aF0.5
aF0.1
aF0.3
aF1.2
aF0.7
aF3.6
aF-1.0
aI1
aI0
aI5
aV2137,1610612758
p708
aa(lp709
I201592
aVJ.R. Giddens
p710
aI1610612752
aVNYK
p711
aF25.0
aI32
aI18
aI14
aF0.563
aF7.5
aF0.9
aF1.9
aF0.467
aF0.0
aF0.3
aF0.0
aF0.4
aF0.7
aF0.565
aF0.5
aF1.1
aF1.6
aF0.4
aF0.5
aF0.3
aF0.1
aF0.2
aF0.9
aF0.5
aF2.2
aF-2.2
aI0
aI0
aI5
aV201592,1610612752
p712
aa(lp713
I2747
aVJ.R. Smith
p714
aI1610612743
aVDEN
p715
aF24.0
aI75
aI48
aI27
aF0.64
aF27.8
aF5.7
aF13.8
aF0.414
aF2.1
aF6.2
aF0.338
aF1.9
aF2.7
aF0.706
aF0.4
aF2.7
aF3.1
aF2.4
aF1.9
aF1.3
aF0.3
aF0.4
aF2.3
aF2.3
aF15.4
aF3.4
aI0
aI0
aI5
aV2747,1610612743
p716
aa(lp717
I201581
aVJJ Hickson
p718
aI1610612739
aVCLE
p719
aF21.0
aI81
aI60
aI21
aF0.741
aF20.9
aF3.6
aF6.4
aF0.554
aF0.0
aF0.0
aF0.0
aF1.4
aF2.0
aF0.681
aF1.4
aF3.6
aF4.9
aF0.5
aF1.1
aF0.4
aF0.5
aF0.8
aF1.6
aF1.3
aF8.5
aF0.7
aI4
aI0
aI5
aV201581,1610612739
p720
aa(lp721
I200755
aVJJ Redick
p722
aI1610612753
aVORL
p723
aF26.0
aI82
aI59
aI23
aF0.72
aF22.1
aF3.0
aF6.7
aF0.439
aF1.4
aF3.3
aF0.405
aF2.3
aF2.7
aF0.86
aF0.2
aF1.7
aF1.9
aF1.9
aF0.8
aF0.3
aF0.0
aF0.2
aF1.4
aF2.2
aF9.6
aF2.2
aI0
aI0
aI5
aV200755,1610612753
p724
aa(lp725
I201580
aVJaVale McGee
p726
aI1610612764
aVWAS
p727
aF22.0
aI60
aI17
aI43
aF0.283
aF16.1
aF2.6
aF5.1
aF0.508
aF0.0
aF0.0
aF0.0
aF1.2
aF1.9
aF0.638
aF1.5
aF2.6
aF4.1
aF0.2
aF0.9
aF0.3
aF1.7
aF0.3
aF2.0
aF1.7
aF6.4
aF-2.9
aI6
aI0
aI5
aV201580,1610612764
p728
aa(lp729
I2048
aVJamaal Magloire
p730
aI1610612748
aVMIA
p731
aF32.0
aI36
aI22
aI14
aF0.611
aF10.0
aF0.8
aF1.6
aF0.5
aF0.0
aF0.0
aF0.0
aF0.6
aF1.6
aF0.356
aF1.1
aF2.2
aF3.4
aF0.0
aF0.5
aF0.3
aF0.3
aF0.2
aF1.6
aF1.3
aF2.1
aF-0.3
aI0
aI0
aI5
aV2048,1610612748
p732
aa(lp733
I2224
aVJamaal Tinsley
p734
aI1610612763
aVMEM
p735
aF32.0
aI38
aI23
aI15
aF0.605
aF15.5
aF1.4
aF3.7
aF0.371
aF0.2
aF1.0
aF0.179
aF0.6
aF0.7
aF0.815
aF0.3
aF1.4
aF1.7
aF2.8
aF1.7
aF0.9
aF0.1
aF0.3
aF1.8
aF1.0
aF3.5
aF-0.1
aI0
aI0
aI5
aV2224,1610612763
p736
aa(lp737
I2037
aVJamal Crawford
p738
aI1610612737
aVATL
p739
aF30.0
aI79
aI51
aI28
aF0.646
aF31.1
aF6.3
aF14.0
aF0.449
aF2.1
aF5.4
aF0.382
aF3.4
aF4.0
aF0.857
aF0.4
aF2.1
aF2.5
aF3.0
aF1.7
aF0.8
aF0.2
aF0.6
aF1.7
aF3.0
aF18.0
aF3.3
aI0
aI0
aI5
aV2037,1610612737
p740
aa(lp741
I200081
aVJamario Moon
p742
aI1610612739
aVCLE
p743
aF30.0
aI61
aI48
aI13
aF0.787
aF17.2
aF1.9
aF4.0
aF0.462
aF0.5
aF1.6
aF0.32
aF0.6
aF0.7
aF0.8
aF0.4
aF2.7
aF3.1
aF0.8
aF0.4
aF0.6
aF0.5
aF0.1
aF1.1
aF0.7
aF4.9
aF1.3
aI0
aI0
aI5
aV200081,1610612739
p744
aa(lp745
I2749
aVJameer Nelson
p746
aI1610612753
aVORL
p747
aF28.0
aI65
aI46
aI19
aF0.708
aF28.6
aF4.9
aF10.9
aF0.449
aF1.3
aF3.5
aF0.381
aF1.5
aF1.8
aF0.845
aF0.4
aF2.6
aF3.0
aF5.4
aF2.1
aF0.7
aF0.0
aF0.6
aF2.3
aF2.0
aF12.6
aF4.9
aI4
aI0
aI5
aV2749,1610612753
p748
aa(lp749
I201935
aVJames Harden
p750
aI1610612760
aVOKC
p751
aF20.0
aI76
aI47
aI29
aF0.618
aF22.9
aF3.1
aF7.6
aF0.403
aF1.2
aF3.3
aF0.375
aF2.6
aF3.2
aF0.808
aF0.6
aF2.6
aF3.2
aF1.8
aF1.4
aF1.1
aF0.3
aF0.6
aF2.6
aF2.5
aF9.9
aF2.4
aI0
aI0
aI5
aV201935,1610612760
p752
aa(lp753
I201949
aVJames Johnson
p754
aI1610612741
aVCHI
p755
aF23.0
aI65
aI30
aI35
aF0.462
aF11.6
aF1.5
aF3.2
aF0.452
aF0.2
aF0.7
aF0.326
aF0.8
aF1.1
aF0.729
aF0.5
aF1.4
aF2.0
aF0.7
aF1.0
aF0.3
aF0.7
aF0.2
aF1.9
aF0.9
aF3.9
aF-2.1
aI0
aI0
aI5
aV201949,1610612741
p756
aa(lp757
I2592
aVJames Jones
p758
aI1610612748
aVMIA
p759
aF29.0
aI36
aI21
aI15
aF0.583
aF14.0
aF1.2
aF3.3
aF0.361
aF1.0
aF2.5
aF0.411
aF0.6
aF0.8
aF0.821
aF0.1
aF1.1
aF1.3
aF0.5
aF0.3
aF0.3
aF0.1
aF0.2
aF1.3
aF0.6
aF4.1
aF-0.4
aI0
aI0
aI5
aV2592,1610612748
p760
aa(lp761
I1899
aVJames Posey
p762
aI1610612740
aVNOH
p763
aF33.0
aI77
aI35
aI42
aF0.455
aF22.5
aF1.6
aF4.5
aF0.365
aF1.1
aF3.1
aF0.335
aF0.9
aF1.0
aF0.825
aF0.4
aF3.9
aF4.3
aF1.5
aF0.7
aF0.5
aF0.2
aF0.1
aF2.6
aF1.6
aF5.2
aF-1.0
aI0
aI0
aI5
aV1899,1610612740
p764
aa(lp765
I101189
aVJames Singleton
p766
aI1610612764
aVWAS
p767
aF28.0
aI57
aI24
aI33
aF0.421
aF17.2
aF1.7
aF4.5
aF0.382
aF0.1
aF0.6
aF0.189
aF0.9
aF1.1
aF0.855
aF1.9
aF2.9
aF4.8
aF0.5
aF0.9
aF0.5
aF0.8
aF0.3
aF2.0
aF1.3
aF4.5
aF-2.6
aI2
aI0
aI5
aV101189,1610612764
p768
aa(lp769
I201191
aVJamesOn Curry
p770
aI1610612746
aVLAC
p771
aF24.0
aI1
aI0
aI1
aF0.0
aF0.1
aF0.0
aF0.0
aF0.0
aF0.0
aF0.0
aF0.0
aF0.0
aF0.0
aF0.0
aF0.0
aF0.0
aF0.0
aF0.0
aF0.0
aF0.0
aF0.0
aF0.0
aF0.0
aF0.0
aF0.0
aF0.0
aI0
aI0
aI5
aV201191,1610612746
p772
aa(lp773
I2457
aVJannero Pargo
p774
aI1610612741
aVCHI
p775
aF30.0
aI63
aI27
aI36
aF0.429
aF13.2
aF2.1
aF6.0
aF0.346
aF0.6
aF2.2
aF0.275
aF0.7
aF0.7
aF0.933
aF0.1
aF1.1
aF1.2
aF1.4
aF0.8
aF0.5
aF0.0
aF0.2
aF1.1
aF0.7
aF5.5
aF-1.0
aI0
aI0
aI5
aV2457,1610612741
p776
aa(lp777
I201162
aVJared Dudley
p778
aI1610612756
aVPHX
p779
aF24.0
aI82
aI54
aI28
aF0.659
aF24.3
aF2.7
aF6.0
aF0.459
aF1.5
aF3.2
aF0.458
aF1.3
aF1.7
aF0.754
aF1.2
aF2.2
aF3.4
aF1.4
aF0.8
aF1.0
aF0.2
aF0.4
aF2.0
aF1.7
aF8.2
aF2.7
aI2
aI0
aI5
aV201162,1610612756
p780
aa(lp781
I2407
aVJared Jeffries
p782
aI1610612745
aVHOU
p783
aF28.0
aI70
aI28
aI42
aF0.4
aF25.6
aF2.0
aF4.5
aF0.439
aF0.3
aF1.0
aF0.296
aF1.1
aF1.7
aF0.625
aF1.9
aF2.3
aF4.1
aF1.4
aF1.1
aF0.9
aF1.0
aF0.4
aF2.9
aF2.3
aF5.3
aF-0.7
aI2
aI0
aI5
aV2407,1610612745
p784
aa(lp785
I101127
aVJarrett Jack
p786
aI1610612761
aVTOR
p787
aF26.0
aI82
aI40
aI42
aF0.488
aF27.4
aF3.9
aF8.2
aF0.481
aF1.0
aF2.4
aF0.412
aF2.5
aF2.9
aF0.842
aF0.4
aF2.3
aF2.7
aF5.0
aF2.0
aF0.7
aF0.1
aF0.5
aF1.8
aF2.3
aF11.4
aF-1.2
aI2
aI0
aI5
aV101127,1610612761
p788
aa(lp789
I2260
aVJarron Collins
p790
aI1610612756
aVPHX
p791
aF31.0
aI34
aI24
aI10
aF0.706
aF7.7
aF0.4
aF0.9
aF0.387
aF0.0
aF0.0
aF0.0
aF0.3
aF0.7
aF0.4
aF0.6
aF1.2
aF1.8
aF0.2
aF0.3
aF0.1
aF0.1
aF0.1
aF1.2
aF1.2
aF1.0
aF-0.3
aI0
aI0
aI5
aV2260,1610612756
p792
aa(lp793
I2553
aVJarvis Hayes
p794
aI1610612751
aVNJN
p795
aF28.0
aI45
aI8
aI37
aF0.178
aF22.9
aF3.1
aF7.3
aF0.421
aF1.3
aF4.0
aF0.335
aF0.3
aF0.4
aF0.778
aF0.2
aF2.2
aF2.4
aF0.9
aF0.6
aF0.6
aF0.2
aF0.2
aF2.0
aF0.4
aF7.8
aF-3.4
aI0
aI0
aI5
aV2553,1610612751
p796
aa(lp797
I2215
aVJason Collins
p798
aI1610612737
aVATL
p799
aF31.0
aI24
aI17
aI7
aF0.708
aF4.8
aF0.3
aF1.0
aF0.348
aF0.0
aF0.0
aF0.0
aF0.0
aF0.1
aF0.0
aF0.2
aF0.4
aF0.6
aF0.2
aF0.2
aF0.1
aF0.1
aF0.1
aF0.9
aF0.2
aF0.7
aF-0.4
aI0
aI0
aI5
aV2215,1610612737
p800
aa(lp801
I2078
aVJason Hart
p802
aI1610612740
aVNOH
p803
aF32.0
aI5
aI2
aI3
aF0.4
aF4.5
aF0.2
aF0.4
aF0.5
aF0.0
aF0.0
aF0.0
aF0.0
aF0.0
aF0.0
aF0.0
aF0.4
aF0.4
aF1.2
aF0.6
aF0.4
aF0.2
aF0.0
aF0.8
aF0.2
aF0.4
aF1.0
aI0
aI0
aI5
aV2078,1610612740
p804
aa(lp805
I2574
aVJason Kapono
p806
aI1610612755
aVPHI
p807
aF29.0
aI57
aI15
aI42
aF0.263
aF17.1
aF2.2
aF5.3
aF0.419
aF1.1
aF3.0
aF0.368
aF0.2
aF0.3
aF0.6
aF0.2
aF0.9
aF1.2
aF0.7
aF0.6
aF0.4
aF0.1
aF0.1
aF1.4
aF0.3
aF5.7
aF-1.9
aI0
aI0
aI5
aV2574,1610612755
p808
aa(lp809
I467
aVJason Kidd
p810
aI1610612742
aVDAL
p811
aF37.0
aI80
aI53
aI27
aF0.663
aF36.0
aF3.6
aF8.4
aF0.423
aF2.2
aF5.2
aF0.425
aF1.0
aF1.2
aF0.808
aF0.6
aF5.0
aF5.6
aF9.1
aF2.4
aF1.8
aF0.4
aF0.2
aF1.8
aF1.3
aF10.3
aF3.4
aI26
aI2
aI5
aV467,1610612742
p812
aa(lp813
I101131
aVJason Maxiell
p814
aI1610612765
aVDET
p815
aF27.0
aI76
aI24
aI52
aF0.316
aF20.4
aF2.8
aF5.5
aF0.511
aF0.0
aF0.0
aF0.0
aF1.2
aF2.0
aF0.574
aF2.1
aF3.2
aF5.3
aF0.5
aF0.9
aF0.5
aF0.5
aF0.5
aF2.3
aF1.8
aF6.8
aF-2.6
aI7
aI0
aI5
aV101131,1610612765
p816
aa(lp817
I2202
aVJason Richardson
p818
aI1610612756
aVPHX
p819
aF29.0
aI79
aI52
aI27
aF0.658
aF31.5
aF6.0
aF12.6
aF0.474
aF2.0
aF5.1
aF0.393
aF1.7
aF2.3
aF0.739
aF1.0
aF4.1
aF5.1
aF1.8
aF1.2
aF0.8
aF0.4
aF0.5
aF2.1
aF1.9
aF15.7
aF3.8
aI3
aI0
aI5
aV2202,1610612756
p820
aa(lp821
I201160
aVJason Smith
p822
aI1610612755
aVPHI
p823
aF24.0
aI56
aI15
aI41
aF0.268
aF11.8
aF1.3
aF3.1
aF0.431
aF0.2
aF0.5
aF0.345
aF0.5
aF0.8
aF0.69
aF1.0
aF1.4
aF2.4
aF0.6
aF0.6
aF0.4
aF0.5
aF0.4
aF2.0
aF0.8
aF3.4
aF-1.0
aI0
aI0
aI5
aV201160,1610612755
p824
aa(lp825
I1891
aVJason Terry
p826
aI1610612742
aVDAL
p827
aF32.0
aI77
aI51
aI26
aF0.662
aF33.0
aF5.9
aF13.5
aF0.438
aF1.8
aF4.8
aF0.365
aF3.0
aF3.5
aF0.866
aF0.2
aF1.6
aF1.8
aF3.8
aF1.4
aF1.2
aF0.2
aF0.5
aF1.8
aF2.5
aF16.6
aF2.3
aI1
aI0
aI5
aV1891,1610612742
p828
aa(lp829
I201574
aVJason Thompson
p830
aI1610612758
aVSAC
p831
aF23.0
aI75
aI22
aI53
aF0.293
aF31.4
aF4.9
aF10.5
aF0.472
aF0.0
aF0.1
aF0.1
aF2.6
aF3.7
aF0.715
aF3.0
aF5.5
aF8.5
aF1.7
aF1.9
aF0.5
aF1.0
aF0.9
aF3.7
aF3.2
aF12.5
aF-3.0
aI24
aI0
aI5
aV201574,1610612758
p832
aa(lp833
I1715
aVJason Williams
p834
aI1610612753
aVORL
p835
aF34.0
aI82
aI59
aI23
aF0.72
aF20.8
aF2.3
aF5.2
aF0.444
aF1.0
aF2.7
aF0.38
aF0.4
aF0.5
aF0.756
aF0.1
aF1.5
aF1.5
aF3.6
aF1.1
aF0.6
aF0.0
aF0.1
aF0.8
aF0.5
aF6.0
aF3.2
aI1
aI0
aI5
aV1715,1610612753
p836
aa(lp837
I101214
aVJawad Williams
p838
aI1610612739
aVCLE
p839
aF27.0
aI54
aI40
aI14
aF0.741
aF13.7
aF1.5
aF3.8
aF0.393
aF0.6
aF1.7
aF0.323
aF0.6
aF0.8
aF0.711
aF0.3
aF1.2
aF1.5
aF0.6
aF0.3
aF0.2
aF0.1
aF0.3
aF1.4
aF0.7
aF4.1
aF-0.6
aI0
aI0
aI5
aV101214,1610612739
p840
aa(lp841
I201965
aVJeff Ayres
p842
aI1610612757
aVPOR
p843
aF23.0
aI39
aI23
aI16
aF0.59
aF10.4
aF1.1
aF1.7
aF0.662
aF0.0
aF0.0
aF0.0
aF0.5
aF0.5
aF0.9
aF0.6
aF1.9
aF2.5
aF0.0
aF0.3
aF0.2
aF0.4
aF0.2
aF1.9
aF0.6
aF2.7
aF-1.5
aI0
aI0
aI5
aV201965,1610612757
p844
aa(lp845
I1902
aVJeff Foster
p846
aI1610612754
aVIND
p847
aF33.0
aI16
aI3
aI13
aF0.188
aF15.9
aF1.4
aF2.9
aF0.478
aF0.0
aF0.1
aF0.0
aF0.3
aF0.6
aF0.556
aF2.1
aF2.9
aF5.1
aF1.3
aF0.9
aF0.2
aF0.3
aF0.2
aF2.8
aF1.0
aF3.1
aF-0.5
aI0
aI0
aI5
aV1902,1610612754
p848
aa(lp849
I201145
aVJeff Green
p850
aI1610612760
aVOKC
p851
aF23.0
aI82
aI50
aI32
aF0.61
aF37.1
aF5.9
aF13.0
aF0.453
aF1.3
aF3.8
aF0.333
aF2.0
aF2.7
aF0.74
aF1.4
aF4.6
aF6.0
aF1.6
aF1.6
aF1.3
aF0.9
aF0.5
aF2.7
aF2.2
aF15.1
aF1.5
aI11
aI0
aI5
aV201145,1610612760
p852
aa(lp853
I201952
aVJeff Teague
p854
aI1610612737
aVATL
p855
aF22.0
aI71
aI50
aI21
aF0.704
aF10.1
aF1.3
aF3.2
aF0.396
aF0.1
aF0.5
aF0.219
aF0.6
aF0.7
aF0.837
aF0.1
aF0.9
aF0.9
aF1.7
aF0.7
aF0.5
aF0.2
aF0.3
aF1.2
aF0.8
aF3.2
aF-0.6
aI1
aI0
aI5
aV201952,1610612737
p856
aa(lp857
I979
aVJermaine O'Neal
p858
aI1610612748
aVMIA
p859
aF31.0
aI70
aI37
aI33
aF0.529
aF28.5
aF5.6
aF10.6
aF0.529
aF0.0
aF0.0
aF0.0
aF2.3
aF3.2
aF0.72
aF1.8
aF5.2
aF6.9
aF1.3
aF1.8
aF0.4
aF1.4
aF0.9
aF3.0
aF3.1
aF13.6
aF2.8
aI14
aI0
aI5
aV979,1610612748
p860
aa(lp861
I201966
aVJermaine Taylor
p862
aI1610612745
aVHOU
p863
aF23.0
aI31
aI13
aI18
aF0.419
aF9.8
aF1.5
aF3.8
aF0.378
aF0.2
aF0.7
aF0.227
aF1.1
aF1.5
aF0.717
aF0.7
aF0.8
aF1.5
aF0.5
aF0.6
aF0.3
aF0.1
aF0.6
aF0.5
aF1.0
aF4.1
aF-3.8
aI1
aI0
aI5
aV201966,1610612745
p864
aa(lp865
I711
aVJerry Stackhouse
p866
aI1610612749
aVMIL
p867
aF35.0
aI42
aI29
aI13
aF0.69
aF20.3
aF3.1
aF7.5
aF0.408
aF1.1
aF3.1
aF0.346
aF1.3
aF1.6
aF0.797
aF0.5
aF1.9
aF2.4
aF1.7
aF1.6
aF0.5
aF0.2
aF0.3
aF1.3
aF1.5
aF8.5
aF1.2
aI0
aI0
aI5
aV711,1610612749
p868
aa(lp869
I201573
aVJerryd Bayless
p870
aI1610612757
aVPOR
p871
aF21.0
aI74
aI45
aI29
aF0.608
aF17.6
aF2.7
aF6.5
aF0.414
aF0.4
aF1.2
aF0.315
aF2.7
aF3.3
aF0.831
aF0.2
aF1.4
aF1.6
aF2.3
aF1.3
aF0.4
aF0.1
aF0.5
aF2.1
aF2.5
aF8.5
aF0.0
aI0
aI0
aI5
aV201573,1610612757
p872
aa(lp873
I201149
aVJoakim Noah
p874
aI1610612741
aVCHI
p875
aF25.0
aI64
aI35
aI29
aF0.547
aF30.1
aF4.1
aF8.1
aF0.504
aF0.0
aF0.0
aF0.0
aF2.5
aF3.4
aF0.744
aF3.4
aF7.6
aF11.0
aF2.1
aF1.8
aF0.5
aF1.6
aF0.7
aF3.1
aF3.0
aF10.7
aF-1.5
aI28
aI0
aI5
aV201149,1610612741
p876
aa(lp877
I201975
aVJodie Meeks
p878
aI1610612755
aVPHI
p879
aF22.0
aI60
aI23
aI37
aF0.383
aF12.0
aF1.7
aF4.5
aF0.388
aF0.7
aF2.2
aF0.318
aF0.5
aF0.7
aF0.795
aF0.2
aF1.5
aF1.7
aF0.7
aF0.4
aF0.3
aF0.1
aF0.2
aF0.9
aF0.6
aF4.7
aF-0.2
aI0
aI0
aI5
aV201975,1610612755
p880
aa(lp881
I201570
aVJoe Alexander
p882
aI1610612741
aVCHI
p883
aF23.0
aI8
aI1
aI7
aF0.125
aF3.6
aF0.1
aF0.8
aF0.167
aF0.0
aF0.1
aF0.0
aF0.3
aF0.4
aF0.667
aF0.3
aF0.4
aF0.6
aF0.3
aF0.0
aF0.1
aF0.1
aF0.0
aF1.1
aF0.3
aF0.5
aF-1.3
aI0
aI0
aI5
aV201570,1610612741
p884
aa(lp885
I2207
aVJoe Johnson
p886
aI1610612737
aVATL
p887
aF29.0
aI76
aI50
aI26
aF0.658
aF38.0
aF8.4
aF18.2
aF0.458
aF1.7
aF4.6
aF0.369
aF2.9
aF3.5
aF0.818
aF1.0
aF3.7
aF4.6
aF4.9
aF1.9
aF1.1
aF0.1
aF0.7
aF1.9
aF2.9
aF21.3
aF4.6
aI4
aI0
aI5
aV2207,1610612737
p888
aa(lp889
I693
aVJoe Smith
p890
aI1610612737
aVATL
p891
aF34.0
aI64
aI42
aI22
aF0.656
aF9.3
aF1.2
aF3.0
aF0.399
aF0.0
aF0.1
aF0.143
aF0.6
aF0.8
aF0.813
aF1.0
aF1.4
aF2.5
aF0.3
aF0.3
aF0.1
aF0.3
aF0.2
aF1.5
aF0.7
aF3.0
aF-0.3
aI1
aI0
aI5
aV693,1610612737
p892
aa(lp893
I201202
aVJoel Anthony
p894
aI1610612748
aVMIA
p895
aF27.0
aI80
aI46
aI34
aF0.575
aF16.5
aF1.0
aF2.0
aF0.478
aF0.0
aF0.0
aF0.0
aF0.8
aF1.2
aF0.717
aF1.5
aF1.6
aF3.1
aF0.2
aF0.6
aF0.3
aF1.4
aF0.3
aF2.0
aF0.9
aF2.7
aF-0.1
aI0
aI0
aI5
aV201202,1610612748
p896
aa(lp897
I2038
aVJoel Przybilla
p898
aI1610612757
aVPOR
p899
aF30.0
aI30
aI18
aI12
aF0.6
aF22.7
aF1.5
aF2.9
aF0.523
aF0.0
aF0.0
aF0.0
aF1.1
aF1.7
aF0.647
aF2.4
aF5.5
aF7.9
aF0.3
aF1.3
aF0.3
aF1.4
aF0.4
aF3.2
aF2.1
aF4.1
aF1.3
aI1
aI0
aI5
aV2038,1610612757
p900
aa(lp901
I201595
aVJoey Dorsey
p902
aI1610612758
aVSAC
p903
aF26.0
aI15
aI7
aI8
aF0.467
aF7.1
aF0.6
aF1.3
aF0.45
aF0.0
aF0.0
aF0.0
aF0.3
aF0.8
aF0.417
aF1.1
aF1.8
aF2.9
aF0.1
aF0.4
aF0.2
aF0.1
aF0.5
aF1.4
aF0.5
aF1.5
aF1.5
aI0
aI0
aI5
aV201595,1610612758
p904
aa(lp905
I101121
aVJoey Graham
p906
aI1610612743
aVDEN
p907
aF28.0
aI62
aI42
aI20
aF0.677
aF12.2
aF1.7
aF3.3
aF0.52
aF0.0
aF0.2
aF0.154
aF0.9
aF1.2
aF0.74
aF0.6
aF1.4
aF2.0
aF0.4
aF0.7
aF0.4
aF0.1
aF0.3
aF1.7
aF0.9
aF4.3
aF-0.6
aI0
aI0
aI5
aV101121,1610612743
p908
aa(lp909
I101130
aVJohan Petro
p910
aI1610612743
aVDEN
p911
aF24.0
aI36
aI23
aI13
aF0.639
aF12.1
aF1.5
aF2.8
aF0.535
aF0.0
aF0.0
aF0.0
aF0.4
aF0.6
aF0.667
aF0.9
aF2.7
aF3.6
aF0.4
aF0.6
aF0.3
aF0.4
aF0.1
aF2.2
aF0.5
aF3.4
aF0.3
aI2
aI0
aI5
aV101130,1610612743
p912
aa(lp913
I2422
aVJohn Salmons
p914
aI1610612749
aVMIL
p915
aF30.0
aI81
aI48
aI33
aF0.593
aF34.9
aF5.4
aF12.2
aF0.441
aF1.5
aF3.8
aF0.382
aF3.1
aF3.8
aF0.83
aF0.4
aF2.9
aF3.3
aF2.8
aF1.5
aF1.2
aF0.3
aF0.8
aF2.0
aF2.9
aF15.4
aF1.7
aI0
aI0
aI5
aV2422,1610612749
p916
aa(lp917
I201972
aVJon Brockman
p918
aI1610612758
aVSAC
p919
aF23.0
aI52
aI15
aI37
aF0.288
aF12.6
aF1.1
aF2.0
aF0.534
aF0.0
aF0.0
aF0.0
aF0.7
aF1.2
aF0.597
aF2.0
aF2.1
aF4.1
aF0.4
aF0.4
aF0.3
aF0.1
aF0.2
aF2.2
aF1.3
aF2.8
aF-0.6
aI1
aI0
aI5
aV201972,1610612758
p920
aa(lp921
I201973
aVJonas Jerebko
p922
aI1610612765
aVDET
p923
aF23.0
aI80
aI26
aI54
aF0.325
aF27.9
aF3.6
aF7.5
aF0.481
aF0.5
aF1.4
aF0.313
aF1.6
aF2.2
aF0.71
aF2.4
aF3.6
aF6.0
aF0.7
aF1.0
aF1.0
aF0.4
aF0.7
aF2.9
aF2.0
aF9.3
aF-2.0
aI7
aI0
aI5
aV201973,1610612765
p924
aa(lp925
I1886
aVJonathan Bender
p926
aI1610612752
aVNYK
p927
aF29.0
aI25
aI9
aI16
aF0.36
aF11.7
aF1.6
aF4.0
aF0.4
aF0.6
aF1.6
aF0.359
aF1.0
aF1.0
aF0.923
aF0.6
aF1.5
aF2.1
aF0.6
aF1.1
aF0.1
aF0.7
aF0.4
aF1.3
aF0.8
aF4.7
aF-2.2
aI0
aI0
aI5
aV1886,1610612752
p928
aa(lp929
I201938
aVJonny Flynn
p930
aI1610612750
aVMIN
p931
aF21.0
aI81
aI15
aI66
aF0.185
aF28.9
aF4.9
aF11.8
aF0.417
aF1.0
aF2.7
aF0.358
aF2.8
aF3.3
aF0.826
aF0.3
aF2.1
aF2.4
aF4.4
aF2.9
aF1.0
aF0.0
aF0.8
aF1.2
aF2.6
aF13.5
aF-7.7
aI0
aI0
aI5
aV201938,1610612750
p932
aa(lp933
I200770
aVJordan Farmar
p934
aI1610612747
aVLAL
p935
aF23.0
aI82
aI57
aI25
aF0.695
aF18.0
aF2.7
aF6.3
aF0.435
aF1.0
aF2.8
aF0.376
aF0.7
aF1.0
aF0.671
aF0.2
aF1.4
aF1.6
aF1.5
aF0.9
aF0.6
aF0.1
aF0.3
aF1.3
aF1.0
aF7.2
aF0.7
aI0
aI0
aI5
aV200770,1610612747
p936
aa(lp937
I201941
aVJordan Hill
p938
aI1610612745
aVHOU
p939
aF22.0
aI47
aI18
aI29
aF0.383
aF13.3
aF2.1
aF4.3
aF0.493
aF0.0
aF0.0
aF0.0
aF1.0
aF1.4
aF0.676
aF1.6
aF2.1
aF3.7
aF0.4
aF0.6
aF0.3
aF0.4
aF0.2
aF2.0
aF1.2
aF5.2
aF-0.4
aI0
aI0
aI5
aV201941,1610612745
p940
aa(lp941
I101181
aVJose Calderon
p942
aI1610612761
aVTOR
p943
aF28.0
aI68
aI31
aI37
aF0.456
aF26.7
aF4.0
aF8.4
aF0.482
aF1.0
aF2.5
aF0.398
aF1.2
aF1.5
aF0.798
aF0.3
aF1.8
aF2.1
aF5.9
aF1.5
aF0.7
aF0.1
aF0.4
aF2.0
aF1.3
aF10.3
aF-0.4
aI3
aI0
aI5
aV101181,1610612761
p944
aa(lp945
I200826
aVJose Juan Barea
p946
aI1610612742
aVDAL
p947
aF26.0
aI78
aI52
aI26
aF0.667
aF19.8
aF3.0
aF6.8
aF0.44
aF0.7
aF2.0
aF0.357
aF1.0
aF1.2
aF0.844
aF0.2
aF1.7
aF1.9
aF3.3
aF1.3
aF0.4
aF0.1
aF0.4
aF1.5
aF1.8
aF7.6
aF-0.6
aI0
aI0
aI5
aV200826,1610612742
p948
aa(lp949
I200767
aVJosh Boone
p950
aI1610612751
aVNJN
p951
aF25.0
aI63
aI9
aI54
aF0.143
aF16.6
aF1.9
aF3.5
aF0.525
aF0.0
aF0.0
aF0.0
aF0.3
aF0.9
aF0.328
aF2.0
aF3.0
aF5.0
aF0.5
aF0.6
aF0.5
aF0.8
aF0.3
aF1.8
aF0.7
aF4.0
aF-3.8
aI1
aI0
aI5
aV200767,1610612751
p952
aa(lp953
I2572
aVJosh Howard
p954
aI1610612764
aVWAS
p955
aF30.0
aI35
aI21
aI14
aF0.6
aF26.2
aF4.5
aF11.1
aF0.405
aF0.7
aF2.5
aF0.267
aF3.1
aF4.0
aF0.784
aF0.9
aF2.7
aF3.6
aF1.4
aF1.3
aF0.7
aF0.3
aF0.4
aF2.6
aF3.3
aF12.7
aF0.0
aI0
aI0
aI5
aV2572,1610612764
p956
aa(lp957
I201177
aVJosh McRoberts
p958
aI1610612754
aVIND
p959
aF23.0
aI42
aI19
aI23
aF0.452
aF12.5
aF1.8
aF3.5
aF0.521
aF0.2
aF0.5
aF0.348
aF0.5
aF0.9
aF0.5
aF1.0
aF2.1
aF3.0
aF1.0
aF0.5
aF0.4
aF0.4
aF0.3
aF1.8
aF0.8
aF4.3
aF-0.5
aI2
aI0
aI5
aV201177,1610612754
p960
aa(lp961
I2694
aVJosh Powell
p962
aI1610612747
aVLAL
p963
aF27.0
aI63
aI43
aI20
aF0.683
aF9.2
aF1.1
aF3.1
aF0.366
aF0.1
aF0.3
aF0.438
aF0.3
aF0.5
aF0.645
aF0.7
aF1.1
aF1.8
aF0.6
aF0.5
aF0.1
aF0.1
aF0.3
aF1.1
aF0.5
aF2.7
aF-1.3
aI0
aI0
aI5
aV2694,1610612747
p964
aa(lp965
I2746
aVJosh Smith
p966
aI1610612737
aVATL
p967
aF24.0
aI81
aI52
aI29
aF0.642
aF35.4
aF6.2
aF12.3
aF0.505
aF0.0
aF0.1
aF0.0
aF3.2
aF5.2
aF0.618
aF2.8
aF6.0
aF8.7
aF4.2
aF2.4
aF1.6
aF2.1
aF0.8
aF3.0
aF4.3
aF15.7
aF4.8
aI27
aI1
aI5
aV2746,1610612737
p968
aa(lp969
I201950
aVJrue Holiday
p970
aI1610612755
aVPHI
p971
aF20.0
aI73
aI24
aI49
aF0.329
aF24.2
aF3.2
aF7.1
aF0.442
aF0.8
aF2.2
aF0.39
aF0.9
aF1.2
aF0.756
aF0.8
aF1.8
aF2.6
aF3.8
aF2.1
aF1.1
aF0.2
aF0.4
aF2.1
aF1.1
aF8.0
aF-2.2
aI2
aI0
aI5
aV201950,1610612755
p972
aa(lp973
I201153
aVJulian Wright
p974
aI1610612740
aVNOH
p975
aF23.0
aI68
aI26
aI42
aF0.382
aF12.8
aF1.7
aF3.4
aF0.5
aF0.0
aF0.1
aF0.333
aF0.4
aF0.6
aF0.61
aF0.9
aF1.3
aF2.1
aF0.6
aF0.6
aF0.4
aF0.3
aF0.2
aF0.7
aF0.5
aF3.8
aF-0.4
aI0
aI0
aI5
aV201153,1610612740
p976
aa(lp977
I436
aVJuwan Howard
p978
aI1610612757
aVPOR
p979
aF37.0
aI73
aI44
aI29
aF0.603
aF22.3
aF2.6
aF5.1
aF0.509
aF0.0
aF0.0
aF0.0
aF0.8
aF1.0
aF0.786
aF1.5
aF3.1
aF4.6
aF0.8
aF1.0
aF0.4
aF0.1
aF0.4
aF2.6
aF1.0
aF6.0
aF-1.0
aI2
aI0
aI5
aV436,1610612757
p980
aa(lp981
I2416
aVKareem Rush
p982
aI1610612746
aVLAC
p983
aF29.0
aI7
aI2
aI5
aF0.286
aF8.3
aF0.6
aF1.6
aF0.364
aF0.1
aF0.4
aF0.333
aF0.0
aF0.0
aF0.0
aF0.1
aF0.7
aF0.9
aF0.6
aF0.4
aF0.3
aF0.4
aF0.1
aF1.1
aF0.4
aF1.3
aF-1.6
aI0
aI0
aI5
aV2416,1610612746
p984
aa(lp985
I2586
aVKeith Bogans
p986
aI1610612759
aVSAS
p987
aF30.0
aI79
aI50
aI29
aF0.633
aF19.7
aF1.5
aF3.8
aF0.403
aF0.9
aF2.5
aF0.357
aF0.5
aF0.6
aF0.74
aF0.3
aF1.9
aF2.2
aF1.2
aF0.7
aF0.6
aF0.2
aF0.3
aF2.0
aF0.8
aF4.4
aF0.4
aI0
aI0
aI5
aV2586,1610612759
p988
aa(lp989
I101235
aVKelenna Azubuike
p990
aI1610612744
aVGSW
p991
aF26.0
aI9
aI3
aI6
aF0.333
aF25.7
aF5.3
aF9.8
aF0.545
aF1.1
aF3.0
aF0.37
aF2.1
aF3.1
aF0.679
aF1.3
aF3.2
aF4.6
aF1.1
aF0.8
aF0.6
aF1.0
aF0.7
aF1.8
aF2.7
aF13.9
aF-4.6
aI0
aI0
aI5
aV101235,1610612744
p992
aa(lp993
I2570
aVKendrick Perkins
p994
aI1610612738
aVBOS
p995
aF25.0
aI78
aI48
aI30
aF0.615
aF27.6
aF4.0
aF6.7
aF0.602
aF0.0
aF0.0
aF0.0
aF2.1
aF3.6
aF0.582
aF2.0
aF5.6
aF7.6
aF1.0
aF2.1
aF0.3
aF1.7
aF0.8
aF2.8
aF2.9
aF10.1
aF3.6
aI14
aI0
aI5
aV2570,1610612738
p996
aa(lp997
I1903
aVKenny Thomas
p998
aI1610612758
aVSAC
p999
aF32.0
aI26
aI12
aI14
aF0.462
aF12.0
aF0.7
aF1.3
aF0.486
aF0.0
aF0.0
aF0.0
aF0.3
aF0.5
aF0.583
aF1.3
aF2.0
aF3.3
aF0.6
aF0.7
aF0.4
aF0.4
aF0.1
aF1.6
aF0.4
aF1.6
aF-0.2
aI0
aI0
aI5
aV1903,1610612758
p1000
aa(lp1001
I2030
aVKenyon Martin
p1002
aI1610612743
aVDEN
p1003
aF32.0
aI58
aI39
aI19
aF0.672
aF34.2
aF4.9
aF10.7
aF0.456
aF0.1
aF0.5
aF0.276
aF1.6
aF2.9
aF0.557
aF2.4
aF7.0
aF9.4
aF1.9
aF1.6
aF1.2
aF1.1
aF0.6
aF3.2
aF1.9
aF11.5
aF2.4
aI23
aI0
aI5
aV2030,1610612743
p1004
aa(lp1005
I201142
aVKevin Durant
p1006
aI1610612760
aVOKC
p1007
aF21.0
aI82
aI50
aI32
aF0.61
aF39.5
aF9.7
aF20.3
aF0.476
aF1.6
aF4.3
aF0.365
aF9.2
aF10.2
aF0.9
aF1.3
aF6.3
aF7.6
aF2.8
aF3.3
aF1.4
aF1.0
aF0.8
aF2.1
aF6.6
aF30.1
aF5.3
aI25
aI0
aI5
aV201142,1610612760
p1008
aa(lp1009
I708
aVKevin Garnett
p1010
aI1610612738
aVBOS
p1011
aF34.0
aI69
aI44
aI25
aF0.638
aF29.9
aF5.8
aF11.2
aF0.521
aF0.0
aF0.1
aF0.2
aF2.7
aF3.2
aF0.837
aF1.1
aF6.2
aF7.3
aF2.7
aF1.5
aF1.0
aF0.8
aF0.3
aF2.5
aF2.9
aF14.3
aF4.5
aI10
aI0
aI5
aV708,1610612738
p1012
aa(lp1013
I201567
aVKevin Love
p1014
aI1610612750
aVMIN
p1015
aF21.0
aI60
aI12
aI48
aF0.2
aF28.6
aF4.9
aF10.8
aF0.45
aF0.6
aF1.8
aF0.33
aF3.8
aF4.6
aF0.815
aF3.8
aF7.2
aF11.0
aF2.3
aF2.0
aF0.7
aF0.4
aF1.0
aF2.3
aF4.0
aF14.0
aF-3.7
aI36
aI0
aI5
aV201567,1610612750
p1016
aa(lp1017
I2755
aVKevin Martin
p1018
aI1610612745
aVHOU
p1019
aF27.0
aI46
aI16
aI30
aF0.348
aF35.5
aF6.3
aF15.1
aF0.417
aF1.5
aF4.6
aF0.333
aF6.5
aF7.4
aF0.876
aF0.6
aF2.9
aF3.6
aF2.4
aF2.0
aF1.0
aF0.1
aF0.8
aF2.1
aF4.9
aF20.6
aF-3.2
aI1
aI0
aI5
aV2755,1610612745
p1020
aa(lp1021
I1563
aVKevin Ollie
p1022
aI1610612760
aVOKC
p1023
aF37.0
aI25
aI15
aI10
aF0.6
aF10.5
aF0.7
aF1.8
aF0.4
aF0.0
aF0.0
aF0.0
aF0.3
aF0.3
aF1.0
aF0.1
aF0.9
aF1.0
aF0.8
aF0.2
aF0.4
aF0.0
aF0.1
aF0.6
aF0.6
aF1.8
aF-1.0
aI0
aI0
aI5
aV1563,1610612760
p1024
aa(lp1025
I2039
aVKeyon Dooling
p1026
aI1610612751
aVNJN
p1027
aF30.0
aI53
aI12
aI41
aF0.226
aF18.3
aF2.4
aF6.1
aF0.398
aF1.1
aF3.0
aF0.376
aF0.9
aF1.2
aF0.77
aF0.2
aF0.9
aF1.0
aF2.5
aF1.1
aF0.6
aF0.0
aF0.2
aF1.5
aF1.2
aF6.9
aF-1.5
aI0
aI0
aI5
aV2039,1610612751
p1028
aa(lp1029
I2550
aVKirk Hinrich
p1030
aI1610612741
aVCHI
p1031
aF29.0
aI74
aI40
aI34
aF0.541
aF33.5
aF4.2
aF10.2
aF0.409
aF1.4
aF3.8
aF0.371
aF1.1
aF1.5
aF0.752
aF0.3
aF3.2
aF3.5
aF4.5
aF1.5
aF1.1
aF0.3
aF0.6
aF2.8
aF1.5
aF10.9
aF-1.3
aI1
aI0
aI5
aV2550,1610612741
p1032
aa(lp1033
I977
aVKobe Bryant
p1034
aI1610612747
aVLAL
p1035
aF31.0
aI73
aI51
aI22
aF0.699
aF38.8
aF9.8
aF21.5
aF0.456
aF1.4
aF4.1
aF0.329
aF6.0
aF7.4
aF0.811
aF1.1
aF4.3
aF5.4
aF5.0
aF3.2
aF1.5
aF0.3
aF0.9
aF2.6
aF5.8
aF27.0
aF6.4
aI7
aI0
aI5
aV977,1610612747
p1036
aa(lp1037
I201585
aVKosta Koufos
p1038
aI1610612762
aVUTA
p1039
aF21.0
aI36
aI25
aI11
aF0.694
aF4.8
aF0.6
aF1.3
aF0.468
aF0.0
aF0.0
aF0.0
aF0.3
aF0.4
aF0.6
aF0.4
aF0.8
aF1.3
aF0.2
aF0.4
aF0.1
aF0.1
aF0.2
aF0.7
aF0.3
aF1.5
aF-1.7
aI0
aI0
aI5
aV201585,1610612762
p1040
aa(lp1041
I2743
aVKris Humphries
p1042
aI1610612751
aVNJN
p1043
aF25.0
aI69
aI27
aI42
aF0.391
aF17.7
aF2.6
aF5.9
aF0.441
aF0.0
aF0.0
aF0.0
aF1.8
aF2.8
aF0.668
aF1.7
aF3.7
aF5.5
aF0.5
aF1.0
aF0.5
aF0.7
aF0.5
aF2.1
aF2.3
aF7.1
aF-2.8
aI4
aI0
aI5
aV2743,1610612751
p1044
aa(lp1045
I703
aVKurt Thomas
p1046
aI1610612749
aVMIL
p1047
aF37.0
aI70
aI37
aI33
aF0.529
aF15.0
aF1.4
aF3.0
aF0.476
aF0.0
aF0.0
aF0.0
aF0.2
aF0.2
aF0.8
aF1.2
aF3.0
aF4.2
aF0.7
aF0.7
aF0.4
aF0.7
aF0.2
aF2.3
aF0.6
aF3.0
aF-1.1
aI1
aI0
aI5
aV703,1610612749
p1048
aa(lp1049
I2198
aVKwame Brown
p1050
aI1610612765
aVDET
p1051
aF28.0
aI48
aI16
aI32
aF0.333
aF13.7
aF1.3
aF2.6
aF0.5
aF0.0
aF0.0
aF0.0
aF0.7
aF2.0
aF0.337
aF1.1
aF2.6
aF3.7
aF0.5
aF0.9
aF0.3
aF0.3
aF0.3
aF1.9
aF2.1
aF3.3
aF-2.1
aI0
aI0
aI5
aV2198,1610612765
p1052
aa(lp1053
I2594
aVKyle Korver
p1054
aI1610612762
aVUTA
p1055
aF29.0
aI52
aI36
aI16
aF0.692
aF18.3
aF2.7
aF5.4
aF0.493
aF1.1
aF2.1
aF0.536
aF0.8
aF0.9
aF0.796
aF0.2
aF1.9
aF2.1
aF1.7
aF0.8
aF0.5
aF0.2
aF0.1
aF1.5
aF0.7
aF7.2
aF3.8
aI0
aI0
aI5
aV2594,1610612762
p1056
aa(lp1057
I200768
aVKyle Lowry
p1058
aI1610612745
aVHOU
p1059
aF24.0
aI68
aI37
aI31
aF0.544
aF24.3
aF2.7
aF6.8
aF0.397
aF0.5
aF2.0
aF0.272
aF3.2
aF3.8
aF0.827
aF1.3
aF2.3
aF3.6
aF4.5
aF1.7
aF0.9
aF0.1
aF0.5
aF2.5
aF3.7
aF9.1
aF1.6
aI2
aI0
aI5
aV200768,1610612745
p1060
aa(lp1061
I201602
aVKyle Weaver
p1062
aI1610612760
aVOKC
p1063
aF24.0
aI12
aI8
aI4
aF0.667
aF12.0
aF1.0
aF2.8
aF0.364
aF0.6
aF1.6
aF0.368
aF0.4
aF0.5
aF0.833
aF0.1
aF1.4
aF1.5
aF0.9
aF0.3
aF0.5
aF0.5
aF0.0
aF1.1
aF0.3
aF3.0
aF-0.7
aI0
aI0
aI5
aV201602,1610612760
p1064
aa(lp1065
I201178
aVKyrylo Fesenko
p1066
aI1610612762
aVUTA
p1067
aF23.0
aI49
aI28
aI21
aF0.571
aF8.3
aF1.1
aF1.9
aF0.547
aF0.0
aF0.0
aF0.0
aF0.5
aF1.2
aF0.421
aF0.7
aF1.2
aF1.8
aF0.3
aF0.5
aF0.1
aF0.4
aF0.2
aF1.6
aF0.8
aF2.6
aF2.0
aI0
aI0
aI5
aV201178,1610612762
p1068
aa(lp1069
I200746
aVLaMarcus Aldridge
p1070
aI1610612757
aVPOR
p1071
aF24.0
aI78
aI49
aI29
aF0.628
aF37.5
aF7.4
aF15.0
aF0.495
aF0.1
aF0.2
aF0.313
aF2.9
aF3.9
aF0.757
aF2.5
aF5.6
aF8.0
aF2.1
aF1.3
aF0.9
aF0.6
aF0.5
aF3.0
aF3.5
aF17.9
aF3.2
aI24
aI0
aI5
aV200746,1610612757
p1072
aa(lp1073
I1885
aVLamar Odom
p1074
aI1610612747
aVLAL
p1075
aF30.0
aI82
aI57
aI25
aF0.695
aF31.5
aF4.2
aF9.0
aF0.463
aF0.7
aF2.2
aF0.319
aF1.7
aF2.5
aF0.693
aF2.2
aF7.5
aF9.8
aF3.3
aF1.8
aF0.9
aF0.7
aF0.6
aF2.8
aF2.1
aF10.8
aF3.7
aI25
aI0
aI5
aV1885,1610612747
p1076
aa(lp1077
I1716
aVLarry Hughes
p1078
aI1610612766
aVCHA
p1079
aF31.0
aI45
aI20
aI25
aF0.444
aF24.8
aF3.0
aF8.6
aF0.355
aF1.0
aF3.1
aF0.309
aF2.1
aF2.5
aF0.832
aF0.5
aF2.6
aF3.2
aF3.0
aF1.7
aF1.2
aF0.3
aF0.5
aF1.6
aF2.1
aF9.1
aF-1.5
aI2
aI0
aI5
aV1716,1610612766
p1080
aa(lp1081
I2544
aVLeBron James
p1082
aI1610612739
aVCLE
p1083
aF25.0
aI76
aI60
aI16
aF0.789
aF39.0
aF10.1
aF20.1
aF0.503
aF1.7
aF5.1
aF0.333
aF7.8
aF10.2
aF0.767
aF0.9
aF6.4
aF7.3
aF8.6
aF3.4
aF1.6
aF1.0
aF0.6
aF1.6
aF7.0
aF29.7
aF8.5
aI31
aI4
aI5
aV2544,1610612739
p1084
aa(lp1085
I2571
aVLeandro Barbosa
p1086
aI1610612756
aVPHX
p1087
aF27.0
aI44
aI32
aI12
aF0.727
aF17.9
aF3.5
aF8.3
aF0.425
aF1.0
aF3.1
aF0.324
aF1.5
aF1.7
aF0.877
aF0.3
aF1.3
aF1.6
aF1.5
aF1.0
aF0.5
aF0.3
aF0.5
aF1.6
aF1.3
aF9.5
aF2.2
aI0
aI0
aI5
aV2571,1610612756
p1088
aa(lp1089
I200796
aVLeon Powe
p1090
aI1610612739
aVCLE
p1091
aF26.0
aI20
aI15
aI5
aF0.75
aF11.8
aF1.1
aF2.5
aF0.429
aF0.0
aF0.0
aF0.0
aF1.9
aF3.2
aF0.587
aF1.0
aF2.1
aF3.1
aF0.0
aF0.6
aF0.3
aF0.1
aF0.4
aF1.8
aF2.5
aF4.0
aF-0.8
aI0
aI0
aI5
aV200796,1610612739
p1092
aa(lp1093
I201991
aVLester Hudson
p1094
aI1610612763
aVMEM
p1095
aF25.0
aI25
aI18
aI7
aF0.72
aF5.3
aF0.8
aF2.1
aF0.396
aF0.2
aF0.6
aF0.313
aF0.4
aF0.5
aF0.846
aF0.3
aF0.4
aF0.7
aF0.5
aF0.6
aF0.3
aF0.1
aF0.0
aF0.5
aF0.4
aF2.3
aF0.6
aI0
aI0
aI5
aV201991,1610612763
p1096
aa(lp1097
I283
aVLindsey Hunter
p1098
aI1610612741
aVCHI
p1099
aF39.0
aI13
aI2
aI11
aF0.154
aF9.4
aF0.4
aF2.3
aF0.167
aF0.1
aF1.0
aF0.077
aF0.2
aF0.2
aF1.0
aF0.1
aF1.0
aF1.1
aF0.7
aF0.3
aF0.1
aF0.0
aF0.0
aF0.9
aF0.3
aF1.0
aF-0.9
aI0
aI0
aI5
aV283,1610612741
p1100
aa(lp1101
I200811
aVLou Amundson
p1102
aI1610612756
aVPHX
p1103
aF27.0
aI79
aI53
aI26
aF0.671
aF14.8
aF1.9
aF3.5
aF0.551
aF0.0
aF0.0
aF0.0
aF0.8
aF1.6
aF0.545
aF1.6
aF2.8
aF4.4
aF0.4
aF0.7
aF0.3
aF0.9
aF0.4
aF2.1
aF1.4
aF4.7
aF0.8
aI2
aI0
aI5
aV200811,1610612756
p1104
aa(lp1105
I101150
aVLou Williams
p1106
aI1610612755
aVPHI
p1107
aF23.0
aI64
aI23
aI41
aF0.359
aF29.9
aF5.0
aF10.6
aF0.47
aF1.1
aF3.2
aF0.34
aF3.0
aF3.6
aF0.824
aF0.4
aF2.5
aF2.9
aF4.2
aF1.7
aF1.3
aF0.2
aF0.7
aF1.7
aF3.1
aF14.0
aF-1.6
aI2
aI0
aI5
aV101150,1610612755
p1108
aa(lp1109
I201601
aVLuc Mbah a Moute
p1110
aI1610612749
aVMIL
p1111
aF23.0
aI73
aI42
aI31
aF0.575
aF25.6
aF2.4
aF5.1
aF0.48
aF0.1
aF0.2
aF0.353
aF1.3
aF1.8
aF0.699
aF2.3
aF3.1
aF5.5
aF1.1
aF1.0
aF0.8
aF0.5
aF0.5
aF2.5
aF1.7
aF6.2
aF0.3
aI4
aI0
aI5
aV201601,1610612749
p1112
aa(lp1113
I2449
aVLuis Scola
p1114
aI1610612745
aVHOU
p1115
aF30.0
aI82
aI42
aI40
aF0.512
aF32.6
aF6.8
aF13.3
aF0.514
aF0.0
aF0.1
aF0.2
aF2.5
aF3.3
aF0.779
aF2.1
aF6.5
aF8.6
aF2.1
aF2.0
aF0.8
aF0.3
aF0.9
aF3.0
aF3.3
aF16.2
aF-0.7
aI32
aI0
aI5
aV2449,1610612745
p1116
aa(lp1117
I2557
aVLuke Ridnour
p1118
aI1610612749
aVMIL
p1119
aF29.0
aI82
aI46
aI36
aF0.561
aF21.4
aF4.0
aF8.4
aF0.478
aF0.8
aF2.2
aF0.381
aF1.5
aF1.7
aF0.907
aF0.3
aF1.5
aF1.7
aF4.0
aF1.3
aF0.7
aF0.1
aF0.3
aF2.2
aF2.1
aF10.4
aF0.0
aI3
aI0
aI5
aV2557,1610612749
p1120
aa(lp1121
I2575
aVLuke Walton
p1122
aI1610612747
aVLAL
p1123
aF30.0
aI29
aI20
aI9
aF0.69
aF9.4
aF1.0
aF2.9
aF0.357
aF0.2
aF0.6
aF0.412
aF0.1
aF0.1
aF0.5
aF0.4
aF0.9
aF1.3
aF1.4
aF0.4
aF0.3
aF0.0
aF0.1
aF0.7
aF0.4
aF2.4
aF-1.7
aI0
aI0
aI5
aV2575,1610612747
p1124
aa(lp1125
I2736
aVLuol Deng
p1126
aI1610612741
aVCHI
p1127
aF25.0
aI70
aI37
aI33
aF0.529
aF37.9
aF6.8
aF14.5
aF0.466
aF0.5
aF1.2
aF0.386
aF3.6
aF4.7
aF0.764
aF1.9
aF5.4
aF7.3
aF2.0
aF1.9
aF0.9
aF0.9
aF0.8
aF1.8
aF3.7
aF17.6
aF0.8
aI13
aI0
aI5
aV2736,1610612741
p1128
aa(lp1129
I101129
aVLuther Head
p1130
aI1610612754
aVIND
p1131
aF27.0
aI47
aI19
aI28
aF0.404
aF17.3
aF2.9
aF6.6
aF0.437
aF0.8
aF2.2
aF0.352
aF1.0
aF1.2
aF0.828
aF0.1
aF1.6
aF1.7
aF1.5
aF1.1
aF0.4
aF0.2
aF0.3
aF1.1
aF1.0
aF7.6
aF0.2
aI0
aI0
aI5
aV101129,1610612754
p1132
aa(lp1133
I2124
aVMalik Allen
p1134
aI1610612743
aVDEN
p1135
aF32.0
aI51
aI36
aI15
aF0.706
aF8.9
aF0.9
aF2.3
aF0.397
aF0.0
aF0.1
aF0.167
aF0.2
aF0.3
aF0.923
aF0.7
aF0.9
aF1.6
aF0.3
aF0.4
aF0.2
aF0.1
aF0.1
aF1.3
aF0.3
aF2.1
aF-2.4
aI0
aI0
aI5
aV2124,1610612743
p1136
aa(lp1137
I201612
aVMalik Hairston
p1138
aI1610612759
aVSAS
p1139
aF23.0
aI47
aI35
aI12
aF0.745
aF6.7
aF0.9
aF1.6
aF0.526
aF0.0
aF0.2
aF0.182
aF0.4
aF0.6
aF0.567
aF0.3
aF0.8
aF1.0
aF0.3
aF0.2
aF0.1
aF0.2
aF0.1
aF0.6
aF0.5
aF2.1
aF-0.3
aI0
aI0
aI5
aV201612,1610612759
p1140
aa(lp1141
I1938
aVManu Ginobili
p1142
aI1610612759
aVSAS
p1143
aF32.0
aI75
aI46
aI29
aF0.613
aF28.7
aF5.3
aF12.0
aF0.441
aF1.8
aF4.7
aF0.377
aF4.1
aF4.7
aF0.87
aF0.9
aF2.9
aF3.8
aF4.9
aF2.1
aF1.4
aF0.3
aF0.6
aF2.1
aF3.7
aF16.5
aF5.2
aI3
aI0
aI5
aV1938,1610612759
p1144
aa(lp1145
I201188
aVMarc Gasol
p1146
aI1610612763
aVMEM
p1147
aF25.0
aI69
aI35
aI34
aF0.507
aF35.8
aF5.5
aF9.4
aF0.581
aF0.0
aF0.0
aF0.0
aF3.7
aF5.4
aF0.67
aF3.0
aF6.3
aF9.3
aF2.4
aF2.0
aF1.0
aF1.6
aF0.6
aF3.7
aF5.7
aF14.6
aF1.6
aI28
aI0
aI5
aV201188,1610612763
p1148
aa(lp1149
I101162
aVMarcin Gortat
p1150
aI1610612753
aVORL
p1151
aF26.0
aI81
aI58
aI23
aF0.716
aF13.4
aF1.5
aF2.8
aF0.533
aF0.0
aF0.0
aF0.0
aF0.6
aF0.9
aF0.68
aF1.3
aF2.9
aF4.2
aF0.2
aF0.6
aF0.2
aF0.9
aF0.2
aF1.7
aF0.9
aF3.6
aF0.5
aI0
aI0
aI5
aV101162,1610612753
p1152
aa(lp1153
I201158
aVMarco Belinelli
p1154
aI1610612761
aVTOR
p1155
aF24.0
aI66
aI29
aI37
aF0.439
aF17.0
aF2.3
aF5.7
aF0.406
aF0.9
aF2.4
aF0.38
aF1.5
aF1.8
aF0.835
aF0.2
aF1.2
aF1.4
aF1.3
aF0.9
aF0.6
aF0.1
aF0.3
aF1.2
aF1.6
aF7.1
aF1.2
aI0
aI0
aI5
aV201158,1610612761
p1156
aa(lp1157
I2556
aVMarcus Banks
p1158
aI1610612761
aVTOR
p1159
aF28.0
aI22
aI12
aI10
aF0.545
aF11.1
aF1.8
aF3.3
aF0.534
aF0.3
aF1.1
aF0.292
aF1.1
aF1.3
aF0.828
aF0.1
aF0.9
aF1.0
aF1.2
aF0.9
aF0.5
aF0.1
aF0.2
aF1.4
aF1.1
aF5.0
aF-0.9
aI0
aI0
aI5
aV2556,1610612761
p1160
aa(lp1161
I948
aVMarcus Camby
p1162
aI1610612757
aVPOR
p1163
aF36.0
aI74
aI37
aI37
aF0.5
aF31.3
aF3.2
aF6.8
aF0.475
aF0.0
aF0.1
aF0.286
aF1.1
aF1.6
aF0.639
aF3.4
aF8.4
aF11.8
aF2.5
aF1.2
aF1.3
aF2.0
aF0.2
aF2.2
aF1.6
aF7.5
aF1.4
aI17
aI0
aI5
aV948,1610612757
p1164
aa(lp1165
I2409
aVMarcus Haislip
p1166
aI1610612759
aVSAS
p1167
aF29.0
aI10
aI8
aI2
aF0.8
aF4.4
aF1.0
aF2.1
aF0.476
aF0.3
aF0.5
aF0.6
aF0.2
aF0.5
aF0.4
aF0.4
aF0.6
aF1.0
aF0.0
aF0.3
aF0.0
aF0.2
aF0.2
aF0.5
aF0.3
aF2.5
aF-0.5
aI0
aI0
aI5
aV2409,1610612759
p1168
aa(lp1169
I202068
aVMarcus Landry
p1170
aI1610612738
aVBOS
p1171
aF24.0
aI18
aI7
aI11
aF0.389
aF6.1
aF0.9
aF2.4
aF0.372
aF0.5
aF1.6
aF0.321
aF0.2
aF0.3
aF0.6
aF0.3
aF0.8
aF1.1
aF0.0
aF0.3
aF0.1
aF0.1
aF0.1
aF0.8
aF0.3
aF2.4
aF0.2
aI0
aI0
aI5
aV202068,1610612738
p1172
aa(lp1173
I201977
aVMarcus Thornton
p1174
aI1610612740
aVNOH
p1175
aF23.0
aI73
aI33
aI40
aF0.452
aF25.6
aF5.5
aF12.1
aF0.451
aF1.6
aF4.3
aF0.374
aF2.0
aF2.4
aF0.814
aF1.0
aF1.9
aF2.9
aF1.6
aF1.0
aF0.8
aF0.2
aF0.6
aF1.7
aF2.0
aF14.5
aF-1.1
aI0
aI0
aI5
aV201977,1610612740
p1176
aa(lp1177
I200766
aVMarcus Williams
p1178
aI1610612763
aVMEM
p1179
aF24.0
aI62
aI27
aI35
aF0.435
aF14.1
aF1.7
aF4.4
aF0.384
aF0.4
aF1.3
aF0.296
aF0.6
aF0.9
aF0.673
aF0.2
aF1.3
aF1.5
aF2.6
aF1.2
aF0.5
aF0.0
aF0.2
aF0.7
aF0.8
aF4.3
aF-2.2
aI0
aI0
aI5
aV200766,1610612763
p1180
aa(lp1181
I200776
aVMardy Collins
p1182
aI1610612746
aVLAC
p1183
aF25.0
aI43
aI15
aI28
aF0.349
aF10.9
aF1.1
aF3.0
aF0.367
aF0.1
aF0.4
aF0.235
aF0.3
aF0.5
aF0.619
aF0.3
aF0.9
aF1.2
aF1.0
aF0.7
aF0.5
aF0.0
aF0.2
aF1.0
aF0.5
aF2.6
aF-2.5
aI0
aI0
aI5
aV200776,1610612746
p1184
aa(lp1185
I201596
aVMario Chalmers
p1186
aI1610612748
aVMIA
p1187
aF24.0
aI73
aI43
aI30
aF0.589
aF24.8
aF2.5
aF6.2
aF0.401
aF1.0
aF3.2
aF0.318
aF1.1
aF1.5
aF0.745
aF0.3
aF1.5
aF1.8
aF3.4
aF1.7
aF1.2
aF0.2
aF0.3
aF2.4
aF2.2
aF7.1
aF0.2
aI0
aI0
aI5
aV201596,1610612748
p1188
aa(lp1189
I201238
aVMario West
p1190
aI1610612737
aVATL
p1191
aF26.0
aI39
aI25
aI14
aF0.641
aF3.6
aF0.3
aF0.5
aF0.571
aF0.0
aF0.0
aF0.0
aF0.2
aF0.3
aF0.6
aF0.2
aF0.5
aF0.7
aF0.2
aF0.2
aF0.2
aF0.0
aF0.1
aF0.6
aF0.2
aF0.8
aF-0.7
aI0
aI0
aI5
aV201238,1610612737
p1192
aa(lp1193
I2605
aVMarquis Daniels
p1194
aI1610612738
aVBOS
p1195
aF29.0
aI51
aI32
aI19
aF0.627
aF18.4
aF2.4
aF4.9
aF0.498
aF0.1
aF0.5
aF0.214
aF0.7
aF1.1
aF0.607
aF0.5
aF1.3
aF1.9
aF1.3
aF0.8
aF0.5
aF0.1
aF0.5
aF1.8
aF1.1
aF5.6
aF0.4
aI0
aI0
aI5
aV2605,1610612738
p1196
aa(lp1197
I201578
aVMarreese Speights
p1198
aI1610612755
aVPHI
p1199
aF22.0
aI62
aI24
aI38
aF0.387
aF16.4
aF3.4
aF7.2
aF0.477
aF0.0
aF0.1
aF0.0
aF1.7
aF2.3
aF0.745
aF1.4
aF2.7
aF4.1
aF0.6
aF0.8
aF0.5
aF0.5
aF0.3
aF2.5
aF2.0
aF8.6
aF-3.1
aI3
aI0
aI5
aV201578,1610612755
p1200
aa(lp1201
I101110
aVMartell Webster
p1202
aI1610612757
aVPOR
p1203
aF23.0
aI82
aI50
aI32
aF0.61
aF24.5
aF3.2
aF7.8
aF0.405
aF1.5
aF4.0
aF0.373
aF1.5
aF1.9
aF0.813
aF0.6
aF2.7
aF3.3
aF0.8
aF0.7
aF0.5
aF0.5
aF0.4
aF1.9
aF1.5
aF9.4
aF1.4
aI2
aI0
aI5
aV101110,1610612757
p1204
aa(lp1205
I101107
aVMarvin Williams
p1206
aI1610612737
aVATL
p1207
aF24.0
aI81
aI52
aI29
aF0.642
aF30.5
aF3.7
aF8.2
aF0.455
aF0.5
aF1.6
aF0.303
aF2.2
aF2.7
aF0.819
aF1.3
aF3.8
aF5.1
aF1.1
aF0.9
aF0.8
aF0.6
aF0.5
aF2.0
aF1.9
aF10.1
aF3.0
aI3
aI0
aI5
aV101107,1610612737
p1208
aa(lp1209
I2440
aVMatt Barnes
p1210
aI1610612753
aVORL
p1211
aF30.0
aI81
aI59
aI22
aF0.728
aF25.9
aF3.3
aF6.9
aF0.487
aF0.8
aF2.6
aF0.319
aF1.3
aF1.8
aF0.74
aF1.3
aF4.2
aF5.5
aF1.7
aF1.4
aF0.7
aF0.4
aF0.4
aF2.3
aF1.5
aF8.8
aF5.6
aI5
aI0
aI5
aV2440,1610612753
p1212
aa(lp1213
I2588
aVMatt Bonner
p1214
aI1610612759
aVSAS
p1215
aF30.0
aI65
aI40
aI25
aF0.615
aF17.9
aF2.6
aF5.7
aF0.446
aF1.4
aF3.6
aF0.39
aF0.5
aF0.7
aF0.729
aF0.8
aF2.5
aF3.3
aF1.0
aF0.6
aF0.5
aF0.4
aF0.1
aF1.7
aF0.9
aF7.0
aF3.2
aI1
aI0
aI5
aV2588,1610612759
p1216
aa(lp1217
I2679
aVMatt Carroll
p1218
aI1610612742
aVDAL
p1219
aF29.0
aI25
aI16
aI9
aF0.64
aF4.8
aF0.7
aF2.0
aF0.36
aF0.2
aF0.8
aF0.211
aF0.2
aF0.2
aF1.0
aF0.2
aF0.3
aF0.5
aF0.2
aF0.3
aF0.2
aF0.0
aF0.0
aF0.5
aF0.2
aF1.8
aF-0.6
aI0
aI0
aI5
aV2679,1610612742
p1220
aa(lp1221
I2230
aVMaurice Evans
p1222
aI1610612737
aVATL
p1223
aF31.0
aI79
aI51
aI28
aF0.646
aF16.7
aF2.2
aF5.0
aF0.445
aF0.7
aF2.1
aF0.337
aF0.6
aF0.8
aF0.754
aF0.7
aF1.2
aF1.9
aF0.6
aF0.3
aF0.4
aF0.2
aF0.3
aF1.6
aF0.7
aF5.7
aF-0.1
aI0
aI0
aI5
aV2230,1610612737
p1224
aa(lp1225
I2246
aVMehmet Okur
p1226
aI1610612762
aVUTA
p1227
aF31.0
aI73
aI45
aI28
aF0.616
aF29.4
aF4.9
aF10.6
aF0.458
aF1.1
aF2.9
aF0.385
aF2.7
aF3.3
aF0.82
aF1.8
aF5.2
aF7.1
aF1.6
aF1.7
aF0.5
aF1.1
aF0.5
aF3.1
aF2.5
aF13.5
aF2.5
aI13
aI0
aI5
aV2246,1610612762
p1228
aa(lp1229
I1897
aVMetta World Peace
p1230
aI1610612747
aVLAL
p1231
aF30.0
aI77
aI53
aI24
aF0.688
aF33.8
aF4.0
aF9.6
aF0.414
aF1.4
aF3.8
aF0.355
aF1.7
aF2.4
aF0.688
aF1.3
aF3.0
aF4.3
aF3.0
aF1.6
aF1.4
aF0.3
aF0.6
aF2.1
aF2.5
aF11.0
aF4.7
aI1
aI0
aI5
aV1897,1610612747
p1232
aa(lp1233
I201563
aVMichael Beasley
p1234
aI1610612748
aVMIA
p1235
aF21.0
aI78
aI44
aI34
aF0.564
aF29.8
aF6.0
aF13.3
aF0.45
aF0.4
aF1.3
aF0.275
aF2.5
aF3.1
aF0.8
aF1.6
aF4.8
aF6.4
aF1.3
aF1.7
aF1.0
aF0.6
aF0.9
aF2.8
aF2.2
aF14.8
aF0.2
aI11
aI0
aI5
aV201563,1610612748
p1236
aa(lp1237
I714
aVMichael Finley
p1238
aI1610612738
aVBOS
p1239
aF37.0
aI46
aI23
aI23
aF0.5
aF15.4
aF1.8
aF4.0
aF0.44
aF0.7
aF1.8
aF0.39
aF0.2
aF0.3
aF0.533
aF0.1
aF1.4
aF1.5
aF0.9
aF0.5
aF0.2
aF0.1
aF0.1
aF0.7
aF0.2
aF4.4
aF0.1
aI0
aI0
aI5
aV714,1610612738
p1240
aa(lp1241
I200839
aVMichael Harris
p1242
aI1610612745
aVHOU
p1243
aF27.0
aI13
aI3
aI10
aF0.231
aF7.4
aF0.8
aF2.3
aF0.367
aF0.0
aF0.1
aF0.0
aF0.5
aF0.8
aF0.636
aF0.8
aF1.1
aF1.8
aF0.2
aF0.7
aF0.4
aF0.1
aF0.4
aF1.1
aF0.6
aF2.2
aF-2.8
aI0
aI0
aI5
aV200839,1610612745
p1244
aa(lp1245
I2072
aVMichael Redd
p1246
aI1610612749
aVMIL
p1247
aF30.0
aI18
aI6
aI12
aF0.333
aF27.3
aF4.2
aF11.8
aF0.352
aF1.0
aF3.3
aF0.3
aF2.6
aF3.7
aF0.712
aF0.6
aF2.4
aF3.0
aF2.2
aF0.8
aF1.1
aF0.1
aF1.2
aF1.3
aF2.8
aF11.9
aF-5.6
aI0
aI0
aI5
aV2072,1610612749
p1248
aa(lp1249
I2554
aVMickael Pietrus
p1250
aI1610612753
aVORL
p1251
aF28.0
aI75
aI53
aI22
aF0.707
aF22.5
aF3.1
aF7.2
aF0.432
aF1.5
aF4.1
aF0.379
aF0.9
aF1.5
aF0.633
aF0.5
aF2.3
aF2.9
aF0.7
aF0.9
aF0.7
aF0.4
aF0.2
aF1.8
aF1.3
aF8.7
aF1.6
aI1
aI0
aI5
aV2554,1610612753
p1252
aa(lp1253
I1710
aVMike Bibby
p1254
aI1610612737
aVATL
p1255
aF32.0
aI80
aI52
aI28
aF0.65
aF27.4
aF3.4
aF8.1
aF0.416
aF1.6
aF4.1
aF0.389
aF0.9
aF1.0
aF0.861
aF0.3
aF2.1
aF2.3
aF3.9
aF1.1
aF0.8
aF0.0
aF0.1
aF2.0
aF1.1
aF9.1
aF4.6
aI0
aI0
aI5
aV1710,1610612737
p1256
aa(lp1257
I201144
aVMike Conley
p1258
aI1610612763
aVMEM
p1259
aF22.0
aI80
aI40
aI40
aF0.5
aF32.1
aF4.6
aF10.4
aF0.445
aF1.0
aF2.7
aF0.387
aF1.7
aF2.3
aF0.743
aF0.4
aF2.0
aF2.4
aF5.3
aF2.1
aF1.4
aF0.2
aF0.6
aF2.2
aF1.9
aF12.0
aF0.4
aI4
aI0
aI5
aV201144,1610612763
p1260
aa(lp1261
I2399
aVMike Dunleavy
p1262
aI1610612754
aVIND
p1263
aF29.0
aI67
aI26
aI41
aF0.388
aF22.2
aF3.4
aF8.3
aF0.41
aF1.1
aF3.5
aF0.318
aF2.0
aF2.4
aF0.842
aF0.4
aF3.1
aF3.5
aF1.5
aF1.1
aF0.6
aF0.2
aF0.3
aF1.6
aF2.0
aF9.9
aF-0.8
aI0
aI0
aI5
aV2399,1610612754
p1264
aa(lp1265
I2229
aVMike James
p1266
aI1610612764
aVWAS
p1267
aF35.0
aI4
aI0
aI4
aF0.0
aF11.4
aF1.5
aF5.0
aF0.3
aF0.5
aF1.5
aF0.333
aF1.0
aF2.0
aF0.5
aF0.3
aF0.5
aF0.8
aF1.3
aF1.3
aF0.8
aF0.0
aF0.3
aF0.8
aF1.5
aF4.5
aF0.5
aI0
aI0
aI5
aV2229,1610612764
p1268
aa(lp1269
I2034
aVMike Miller
p1270
aI1610612764
aVWAS
p1271
aF30.0
aI54
aI17
aI37
aF0.315
aF33.4
aF4.0
aF8.0
aF0.501
aF1.5
aF3.2
aF0.48
aF1.3
aF1.6
aF0.824
aF1.0
aF5.2
aF6.2
aF3.9
aF2.1
aF0.7
aF0.2
aF0.3
aF2.4
aF1.8
aF10.9
aF-2.8
aI3
aI0
aI5
aV2034,1610612764
p1272
aa(lp1273
I2366
aVMike Wilks
p1274
aI1610612760
aVOKC
p1275
aF31.0
aI4
aI2
aI2
aF0.5
aF14.8
aF1.5
aF3.0
aF0.5
aF0.5
aF0.8
aF0.667
aF0.5
aF1.0
aF0.5
aF0.3
aF0.8
aF1.0
aF1.0
aF1.0
aF0.0
aF0.0
aF0.3
aF1.3
aF1.0
aF4.0
aF-7.3
aI0
aI0
aI5
aV2366,1610612760
p1276
aa(lp1277
I1630
aVMikki Moore
p1278
aI1610612744
aVGSW
p1279
aF34.0
aI23
aI7
aI16
aF0.304
aF17.6
aF2.3
aF3.9
aF0.6
aF0.0
aF0.0
aF0.0
aF0.3
aF0.5
aF0.636
aF1.1
aF1.9
aF3.0
aF1.6
aF0.9
aF0.2
aF0.6
aF0.2
aF2.6
aF1.0
aF5.0
aF-5.6
aI0
aI0
aI5
aV1630,1610612744
p1280
aa(lp1281
I2590
aVMo Williams
p1282
aI1610612739
aVCLE
p1283
aF27.0
aI69
aI50
aI19
aF0.725
aF34.2
aF5.5
aF12.4
aF0.442
aF2.3
aF5.4
aF0.429
aF2.6
aF2.9
aF0.894
aF0.4
aF2.6
aF3.0
aF5.3
aF2.5
aF1.0
aF0.3
aF0.3
aF2.5
aF1.9
aF15.8
aF3.8
aI5
aI0
aI5
aV2590,1610612739
p1284
aa(lp1285
I101145
aVMonta Ellis
p1286
aI1610612744
aVGSW
p1287
aF24.0
aI64
aI19
aI45
aF0.297
aF41.4
aF9.9
aF22.0
aF0.449
aF1.2
aF3.6
aF0.338
aF4.6
aF6.1
aF0.753
aF0.7
aF3.3
aF4.0
aF5.3
aF3.8
aF2.2
aF0.4
aF1.3
aF3.0
aF4.6
aF25.5
aF-6.2
aI6
aI0
aI5
aV101145,1610612744
p1288
aa(lp1289
I2050
aVMorris Peterson
p1290
aI1610612740
aVNOH
p1291
aF32.0
aI46
aI18
aI28
aF0.391
aF21.1
aF2.5
aF6.5
aF0.385
aF1.3
aF3.7
aF0.363
aF0.7
aF1.2
aF0.611
aF0.4
aF2.4
aF2.7
aF0.9
aF0.6
aF0.5
aF0.1
aF0.2
aF1.8
aF1.2
aF7.1
aF-2.7
aI1
aI0
aI5
aV2050,1610612740
p1292
aa(lp1293
I101126
aVNate Robinson
p1294
aI1610612738
aVBOS
p1295
aF26.0
aI56
aI23
aI33
aF0.411
aF19.9
aF3.8
aF8.8
aF0.436
aF1.6
aF4.0
aF0.39
aF0.9
aF1.2
aF0.746
aF0.5
aF1.5
aF2.0
aF2.9
aF1.3
aF0.9
aF0.1
aF0.3
aF2.1
aF1.5
aF10.1
aF-1.3
aI0
aI0
aI5
aV101126,1610612738
p1296
aa(lp1297
I201605
aVNathan Jawai
p1298
aI1610612750
aVMIN
p1299
aF23.0
aI39
aI5
aI34
aF0.128
aF10.6
aF1.3
aF2.8
aF0.441
aF0.0
aF0.0
aF0.0
aF0.7
aF1.0
aF0.684
aF1.3
aF1.4
aF2.7
aF0.6
aF0.7
aF0.3
aF0.2
aF0.5
aF1.5
aF0.9
aF3.2
aF-1.9
aI0
aI0
aI5
aV201605,1610612750
p1300
aa(lp1301
I1737
aVNazr Mohammed
p1302
aI1610612766
aVCHA
p1303
aF32.0
aI58
aI29
aI29
aF0.5
aF17.0
aF3.3
aF5.9
aF0.553
aF0.0
aF0.0
aF0.0
aF1.4
aF2.2
aF0.648
aF2.0
aF3.3
aF5.2
aF0.5
aF0.9
aF0.3
aF0.7
aF0.6
aF1.8
aF1.5
aF7.9
aF-0.2
aI4
aI0
aI5
aV1737,1610612766
p1304
aa(lp1305
I2420
aVNenad Krstic
p1306
aI1610612760
aVOKC
p1307
aF26.0
aI76
aI48
aI28
aF0.632
aF22.9
aF3.7
aF7.4
aF0.502
aF0.0
aF0.1
aF0.2
aF1.0
aF1.4
aF0.717
aF1.8
aF3.3
aF5.0
aF0.7
aF0.8
aF0.4
aF0.6
aF0.3
aF2.3
aF1.3
aF8.4
aF1.5
aI3
aI0
aI5
aV2420,1610612760
p1308
aa(lp1309
I2403
aVNene
p1310
aI1610612743
aVDEN
p1311
aF27.0
aI82
aI53
aI29
aF0.646
aF33.6
aF5.1
aF8.7
aF0.587
aF0.0
aF0.0
aF0.0
aF3.6
aF5.1
aF0.704
aF2.0
aF5.6
aF7.6
aF2.5
aF1.5
aF1.4
aF1.0
aF0.7
aF3.4
aF4.5
aF13.8
aF3.8
aI14
aI0
aI5
aV2403,1610612743
p1312
aa(lp1313
I2555
aVNick Collison
p1314
aI1610612760
aVOKC
p1315
aF29.0
aI75
aI46
aI29
aF0.613
aF20.8
aF2.4
aF4.1
aF0.589
aF0.0
aF0.1
aF0.25
aF1.0
aF1.4
aF0.692
aF2.0
aF3.1
aF5.1
aF0.5
aF0.8
aF0.5
aF0.6
aF0.4
aF3.1
aF1.9
aF5.9
aF3.6
aI2
aI0
aI5
aV2555,1610612760
p1316
aa(lp1317
I201156
aVNick Young
p1318
aI1610612764
aVWAS
p1319
aF25.0
aI74
aI24
aI50
aF0.324
aF19.2
aF3.1
aF7.5
aF0.418
aF0.9
aF2.3
aF0.406
aF1.4
aF1.8
aF0.8
aF0.3
aF1.1
aF1.4
aF0.6
aF0.8
aF0.4
aF0.1
aF0.3
aF2.0
aF1.4
aF8.6
aF-0.7
aI0
aI0
aI5
aV201156,1610612764
p1320
aa(lp1321
I201587
aVNicolas Batum
p1322
aI1610612757
aVPOR
p1323
aF21.0
aI37
aI23
aI14
aF0.622
aF24.8
aF3.8
aF7.2
aF0.519
aF1.5
aF3.6
aF0.409
aF1.2
aF1.4
aF0.843
aF0.9
aF2.9
aF3.8
aF1.2
aF0.7
aF0.6
aF0.7
aF0.3
aF2.2
aF1.7
aF10.1
aF3.5
aI1
aI0
aI5
aV201587,1610612757
p1324
aa(lp1325
I201564
aVO.J. Mayo
p1326
aI1610612763
aVMEM
p1327
aF22.0
aI82
aI40
aI42
aF0.488
aF38.0
aF6.6
aF14.4
aF0.458
aF1.7
aF4.3
aF0.383
aF2.6
aF3.2
aF0.809
aF0.7
aF3.0
aF3.8
aF3.0
aF2.1
aF1.2
aF0.2
aF0.7
aF2.1
aF2.3
aF17.5
aF-0.7
aI0
aI0
aI5
aV201564,1610612763
p1328
aa(lp1329
I200762
aVOleksiy Pecherov
p1330
aI1610612750
aVMIN
p1331
aF24.0
aI44
aI6
aI38
aF0.136
aF10.2
aF1.8
aF4.3
aF0.41
aF0.3
aF1.2
aF0.269
aF0.7
aF0.7
aF0.906
aF0.7
aF2.1
aF2.8
aF0.3
aF0.7
aF0.2
aF0.3
aF0.3
aF1.3
aF0.7
aF4.5
aF-0.4
aI1
aI0
aI5
aV200762,1610612750
p1332
aa(lp1333
I201802
aVOliver Lafayette
p1334
aI1610612738
aVBOS
p1335
aF26.0
aI1
aI0
aI1
aF0.0
aF21.5
aF3.0
aF6.0
aF0.5
aF1.0
aF2.0
aF0.5
aF0.0
aF0.0
aF0.0
aF1.0
aF3.0
aF4.0
aF2.0
aF1.0
aF0.0
aF0.0
aF0.0
aF0.0
aF0.0
aF7.0
aF-9.0
aI0
aI0
aI5
aV201802,1610612738
p1336
aa(lp1337
I201956
aVOmri Casspi
p1338
aI1610612758
aVSAC
p1339
aF22.0
aI77
aI24
aI53
aF0.312
aF25.1
aF3.9
aF8.7
aF0.446
aF1.0
aF2.6
aF0.369
aF1.5
aF2.3
aF0.672
aF1.0
aF3.6
aF4.5
aF1.2
aF1.3
aF0.7
aF0.2
aF0.4
aF1.6
aF2.0
aF10.3
aF-1.5
aI4
aI0
aI5
aV201956,1610612758
p1340
aa(lp1341
I201629
aVOthello Hunter
p1342
aI1610612737
aVATL
p1343
aF24.0
aI7
aI6
aI1
aF0.857
aF4.7
aF0.6
aF1.7
aF0.333
aF0.0
aF0.0
aF0.0
aF0.4
aF0.6
aF0.75
aF0.9
aF0.9
aF1.7
aF0.0
aF0.4
aF0.0
aF0.1
aF0.6
aF0.7
aF0.4
aF1.6
aF-2.1
aI0
aI0
aI5
aV201629,1610612737
p1344
aa(lp1345
I201785
aVOthyus Jeffers
p1346
aI1610612762
aVUTA
p1347
aF24.0
aI14
aI10
aI4
aF0.714
aF5.2
aF0.9
aF2.1
aF0.414
aF0.0
aF0.0
aF0.0
aF0.9
aF1.4
aF0.684
aF0.6
aF0.8
aF1.4
aF0.1
aF0.4
aF0.3
aF0.0
aF0.2
aF0.7
aF0.9
aF2.6
aF0.3
aI0
aI0
aI5
aV201785,1610612762
p1348
aa(lp1349
I200753
aVPatrick O'Bryant
p1350
aI1610612761
aVTOR
p1351
aF24.0
aI11
aI4
aI7
aF0.364
aF4.6
aF0.7
aF1.4
aF0.533
aF0.0
aF0.1
aF0.0
aF0.3
aF0.5
aF0.5
aF0.2
aF0.8
aF1.0
aF0.1
aF0.5
aF0.2
aF0.4
aF0.2
aF1.1
aF0.4
aF1.7
aF-1.9
aI0
aI0
aI5
aV200753,1610612761
p1352
aa(lp1353
I201988
aVPatty Mills
p1354
aI1610612757
aVPOR
p1355
aF21.0
aI10
aI5
aI5
aF0.5
aF3.8
aF1.0
aF2.4
aF0.417
aF0.2
aF0.4
aF0.5
aF0.4
aF0.7
aF0.571
aF0.1
aF0.1
aF0.2
aF0.5
aF0.4
aF0.0
aF0.0
aF0.1
aF0.6
aF0.4
aF2.6
aF-1.5
aI0
aI0
aI5
aV201988,1610612757
p1356
aa(lp1357
I2200
aVPau Gasol
p1358
aI1610612747
aVLAL
p1359
aF29.0
aI65
aI46
aI19
aF0.708
aF37.0
aF7.0
aF13.0
aF0.536
aF0.0
aF0.1
aF0.0
aF4.4
aF5.6
aF0.79
aF3.7
aF7.6
aF11.3
aF3.4
aF2.2
aF0.6
aF1.7
aF0.9
aF2.3
aF5.0
aF18.3
aF4.8
aI40
aI0
aI5
aV2200,1610612747
p1360
aa(lp1361
I200781
aVPaul Davis
p1362
aI1610612764
aVWAS
p1363
aF25.0
aI2
aI1
aI1
aF0.5
aF4.0
aF1.0
aF2.0
aF0.5
aF0.0
aF0.0
aF0.0
aF0.5
aF1.0
aF0.5
aF0.0
aF0.0
aF0.0
aF1.5
aF0.0
aF0.0
aF0.5
aF0.0
aF0.0
aF1.0
aF2.5
aF0.5
aI0
aI0
aI5
aV200781,1610612764
p1364
aa(lp1365
I200794
aVPaul Millsap
p1366
aI1610612762
aVUTA
p1367
aF25.0
aI82
aI53
aI29
aF0.646
aF27.8
aF4.7
aF8.7
aF0.538
aF0.0
aF0.1
aF0.111
aF2.2
aF3.2
aF0.693
aF2.3
aF4.5
aF6.8
aF1.6
aF1.4
aF0.8
aF1.2
aF0.7
aF3.5
aF2.6
aF11.6
aF3.9
aI12
aI0
aI5
aV200794,1610612762
p1368
aa(lp1369
I1718
aVPaul Pierce
p1370
aI1610612738
aVBOS
p1371
aF32.0
aI71
aI45
aI26
aF0.634
aF34.0
aF5.8
aF12.2
aF0.472
aF1.5
aF3.7
aF0.414
aF5.2
aF6.1
aF0.852
aF0.5
aF3.8
aF4.4
aF3.1
aF2.3
aF1.2
aF0.4
aF0.7
aF2.8
aF5.1
aF18.3
aF3.6
aI1
aI0
aI5
aV1718,1610612738
p1372
aa(lp1373
I978
aVPeja Stojakovic
p1374
aI1610612740
aVNOH
p1375
aF33.0
aI62
aI32
aI30
aF0.516
aF31.4
aF4.5
aF11.1
aF0.404
aF2.1
aF5.7
aF0.375
aF1.5
aF1.7
aF0.897
aF0.6
aF3.0
aF3.7
aF1.5
aF0.9
aF0.8
aF0.1
aF0.4
aF1.3
aF1.3
aF12.6
aF-0.5
aI1
aI0
aI5
aV978,1610612740
p1376
aa(lp1377
I200822
aVPops Mensah-Bonsu
p1378
aI1610612761
aVTOR
p1379
aF26.0
aI20
aI8
aI12
aF0.4
aF6.0
aF0.7
aF1.7
aF0.394
aF0.0
aF0.0
aF0.0
aF0.7
aF1.2
aF0.542
aF0.8
aF1.0
aF1.8
aF0.2
aF0.5
aF0.2
aF0.5
aF0.3
aF1.0
aF0.9
aF2.0
aF-1.9
aI0
aI0
aI5
aV200822,1610612761
p1380
aa(lp1381
I2056
aVPrimoz Brezec
p1382
aI1610612749
aVMIL
p1383
aF30.0
aI21
aI11
aI10
aF0.524
aF4.5
aF0.4
aF1.2
aF0.346
aF0.0
aF0.0
aF0.0
aF0.0
aF0.3
aF0.167
aF0.6
aF0.6
aF1.2
aF0.0
aF0.1
aF0.0
aF0.1
aF0.0
aF0.9
aF0.1
aF0.9
aF0.0
aI0
aI0
aI5
aV2056,1610612749
p1384
aa(lp1385
I2047
aVQuentin Richardson
p1386
aI1610612748
aVMIA
p1387
aF30.0
aI76
aI44
aI32
aF0.579
aF27.4
aF3.2
aF7.4
aF0.431
aF1.9
aF4.7
aF0.397
aF0.7
aF0.9
aF0.732
aF0.8
aF4.1
aF4.9
aF1.2
aF0.8
aF0.9
aF0.2
aF0.3
aF2.2
aF1.1
aF8.9
aF2.8
aI5
aI0
aI5
aV2047,1610612748
p1388
aa(lp1389
I2624
aVQuinton Ross
p1390
aI1610612764
aVWAS
p1391
aF29.0
aI52
aI24
aI28
aF0.462
aF10.8
aF0.8
aF2.1
aF0.36
aF0.1
aF0.4
aF0.19
aF0.2
aF0.3
aF0.571
aF0.3
aF0.6
aF0.9
aF0.2
aF0.2
aF0.3
aF0.1
aF0.1
aF1.3
aF0.4
aF1.8
aF-1.8
aI0
aI0
aI5
aV2624,1610612764
p1392
aa(lp1393
I1747
aVRafer Alston
p1394
aI1610612748
aVMIA
p1395
aF33.0
aI52
aI13
aI39
aF0.25
aF27.3
aF3.0
aF8.6
aF0.348
aF1.1
aF3.2
aF0.345
aF1.1
aF1.6
aF0.728
aF0.3
aF2.2
aF2.5
aF3.4
aF1.8
aF1.0
aF0.2
aF0.5
aF2.0
aF1.4
aF8.2
aF-2.5
aI1
aI1
aI5
aV1747,1610612748
p1396
aa(lp1397
I1952
aVRaja Bell
p1398
aI1610612744
aVGSW
p1399
aF33.0
aI6
aI2
aI4
aF0.333
aF30.1
aF4.7
aF10.2
aF0.459
aF2.0
aF4.5
aF0.444
aF0.5
aF0.5
aF1.0
aF0.8
aF3.0
aF3.8
aF2.2
aF0.8
aF0.7
aF0.3
aF0.2
aF2.5
aF1.8
aF11.8
aF4.7
aI0
aI0
aI5
aV1952,1610612744
p1400
aa(lp1401
I200765
aVRajon Rondo
p1402
aI1610612738
aVBOS
p1403
aF24.0
aI81
aI49
aI32
aF0.605
aF36.6
aF5.7
aF11.2
aF0.508
aF0.2
aF1.0
aF0.213
aF2.2
aF3.5
aF0.621
aF1.2
aF3.2
aF4.4
aF9.8
aF3.0
aF2.3
aF0.1
aF0.8
aF2.4
aF3.3
aF13.7
aF3.7
aI40
aI2
aI5
aV200765,1610612738
p1404
aa(lp1405
I201196
aVRamon Sessions
p1406
aI1610612750
aVMIN
p1407
aF24.0
aI82
aI15
aI67
aF0.183
aF21.1
aF3.1
aF6.8
aF0.456
aF0.0
aF0.2
aF0.067
aF2.0
aF2.8
aF0.717
aF0.7
aF1.9
aF2.6
aF3.1
aF1.7
aF0.7
aF0.1
aF0.5
aF1.7
aF2.6
aF8.2
aF-2.6
aI1
aI0
aI5
aV201196,1610612750
p1408
aa(lp1409
I201043
aVRandolph Morris
p1410
aI1610612737
aVATL
p1411
aF24.0
aI28
aI22
aI6
aF0.786
aF4.4
aF0.8
aF1.5
aF0.561
aF0.0
aF0.0
aF0.0
aF0.6
aF1.0
aF0.593
aF0.4
aF1.0
aF1.4
aF0.1
aF0.4
aF0.2
aF0.1
aF0.1
aF1.2
aF0.7
aF2.2
aF-0.5
aI0
aI0
aI5
aV201043,1610612737
p1412
aa(lp1413
I200751
aVRandy Foye
p1414
aI1610612764
aVWAS
p1415
aF26.0
aI70
aI21
aI49
aF0.3
aF23.8
aF3.7
aF8.8
aF0.414
aF0.9
aF2.6
aF0.346
aF1.8
aF2.1
aF0.89
aF0.2
aF1.6
aF1.9
aF3.3
aF1.3
aF0.5
aF0.1
aF0.4
aF1.8
aF1.6
aF10.1
aF-3.4
aI2
aI0
aI5
aV200751,1610612764
p1416
aa(lp1417
I1740
aVRashard Lewis
p1418
aI1610612753
aVORL
p1419
aF30.0
aI72
aI52
aI20
aF0.722
aF32.9
aF4.9
aF11.2
aF0.435
aF2.3
aF5.9
aF0.397
aF2.0
aF2.5
aF0.806
aF0.9
aF3.6
aF4.4
aF1.5
aF1.5
aF1.1
aF0.4
aF0.3
aF2.5
aF1.9
aF14.1
aF4.8
aI4
aI0
aI5
aV1740,1610612753
p1420
aa(lp1421
I739
aVRasheed Wallace
p1422
aI1610612738
aVBOS
p1423
aF35.0
aI79
aI49
aI30
aF0.62
aF22.5
aF3.4
aF8.2
aF0.409
aF1.0
aF3.7
aF0.283
aF1.2
aF1.6
aF0.768
aF0.5
aF3.6
aF4.1
aF1.0
aF0.8
aF1.0
aF0.9
aF0.2
aF2.8
aF1.5
aF9.0
aF0.7
aI0
aI0
aI5
aV739,1610612738
p1424
aa(lp1425
I1725
aVRasho Nesterovic
p1426
aI1610612761
aVTOR
p1427
aF34.0
aI42
aI19
aI23
aF0.452
aF9.8
aF1.9
aF3.5
aF0.544
aF0.0
aF0.0
aF0.0
aF0.0
aF0.1
aF0.2
aF0.9
aF1.2
aF2.1
aF0.6
aF0.4
aF0.2
aF0.4
aF0.1
aF1.3
aF0.3
aF3.9
aF-2.6
aI0
aI0
aI5
aV1725,1610612761
p1428
aa(lp1429
I2446
aVRasual Butler
p1430
aI1610612746
aVLAC
p1431
aF31.0
aI82
aI29
aI53
aF0.354
aF33.0
aF4.3
aF10.6
aF0.409
aF1.8
aF5.3
aF0.336
aF1.5
aF1.8
aF0.841
aF0.5
aF2.5
aF2.9
aF1.4
aF1.0
aF0.4
aF0.8
aF0.3
aF1.5
aF1.1
aF11.9
aF-3.7
aI0
aI0
aI5
aV2446,1610612746
p1432
aa(lp1433
I951
aVRay Allen
p1434
aI1610612738
aVBOS
p1435
aF34.0
aI80
aI50
aI30
aF0.625
aF35.2
aF5.8
aF12.2
aF0.477
aF1.8
aF5.0
aF0.363
aF2.9
aF3.2
aF0.913
aF0.6
aF2.6
aF3.2
aF2.6
aF1.6
aF0.8
aF0.3
aF0.5
aF2.3
aF2.1
aF16.3
aF5.3
aI0
aI0
aI5
aV951,1610612738
p1436
aa(lp1437
I101109
aVRaymond Felton
p1438
aI1610612766
aVCHA
p1439
aF26.0
aI80
aI42
aI38
aF0.525
aF33.0
aF4.9
aF10.6
aF0.459
aF0.8
aF2.0
aF0.385
aF1.7
aF2.2
aF0.763
aF0.7
aF2.9
aF3.6
aF5.6
aF2.1
aF1.5
aF0.3
aF0.6
aF2.2
aF1.9
aF12.1
aF1.6
aI5
aI0
aI5
aV101109,1610612766
p1440
aa(lp1441
I2501
aVReggie Evans
p1442
aI1610612761
aVTOR
p1443
aF30.0
aI28
aI11
aI17
aF0.393
aF11.1
aF1.2
aF2.5
aF0.493
aF0.0
aF0.0
aF0.0
aF1.0
aF2.1
aF0.45
aF1.1
aF2.7
aF3.8
aF0.3
aF0.8
aF0.5
aF0.1
aF0.3
aF1.6
aF2.3
aF3.4
aF-0.2
aI0
aI0
aI5
aV2501,1610612761
p1444
aa(lp1445
I202130
aVReggie Williams
p1446
aI1610612744
aVGSW
p1447
aF23.0
aI24
aI9
aI15
aF0.375
aF32.6
aF5.8
aF11.8
aF0.495
aF1.4
aF3.8
aF0.359
aF2.2
aF2.6
aF0.839
aF0.8
aF3.8
aF4.6
aF2.8
aF1.2
aF1.0
aF0.3
aF0.4
aF2.0
aF2.1
aF15.2
aF-2.3
aI0
aI0
aI5
aV202130,1610612744
p1448
aa(lp1449
I200764
aVRenaldo Balkman
p1450
aI1610612743
aVDEN
p1451
aF25.0
aI13
aI8
aI5
aF0.615
aF7.0
aF0.5
aF1.4
aF0.333
aF0.0
aF0.5
aF0.0
aF0.2
aF0.5
aF0.333
aF0.3
aF1.5
aF1.8
aF0.5
aF0.5
aF0.6
aF0.2
aF0.1
aF1.2
aF0.2
aF1.1
aF-2.8
aI0
aI0
aI5
aV200764,1610612743
p1452
aa(lp1453
I1888
aVRichard Hamilton
p1454
aI1610612765
aVDET
p1455
aF32.0
aI46
aI14
aI32
aF0.304
aF33.7
aF6.4
aF15.6
aF0.409
aF0.9
aF3.0
aF0.297
aF4.4
aF5.2
aF0.846
aF0.7
aF2.0
aF2.7
aF4.4
aF2.5
aF0.7
aF0.1
aF0.6
aF2.5
aF3.4
aF18.1
aF-3.0
aI2
aI0
aI5
aV1888,1610612765
p1456
aa(lp1457
I2210
aVRichard Jefferson
p1458
aI1610612759
aVSAS
p1459
aF30.0
aI81
aI49
aI32
aF0.605
aF31.1
aF4.5
aF9.6
aF0.467
aF0.7
aF2.3
aF0.316
aF2.6
aF3.5
aF0.735
aF0.7
aF3.7
aF4.4
aF2.0
aF1.3
aF0.6
aF0.5
aF0.6
aF2.2
aF2.8
aF12.3
aF3.8
aI2
aI0
aI5
aV2210,1610612759
p1460
aa(lp1461
I1729
aVRicky Davis
p1462
aI1610612746
aVLAC
p1463
aF30.0
aI36
aI15
aI21
aF0.417
aF13.9
aF1.7
aF4.0
aF0.434
aF0.4
aF1.2
aF0.381
aF0.5
aF0.9
aF0.581
aF0.3
aF1.3
aF1.6
aF1.1
aF0.8
aF0.3
aF0.1
aF0.1
aF1.1
aF0.7
aF4.4
aF-3.3
aI0
aI0
aI5
aV1729,1610612746
p1464
aa(lp1465
I201577
aVRobin Lopez
p1466
aI1610612756
aVPHX
p1467
aF22.0
aI51
aI32
aI19
aF0.627
aF19.3
aF3.4
aF5.7
aF0.588
aF0.0
aF0.0
aF0.0
aF1.7
aF2.5
aF0.704
aF2.0
aF2.8
aF4.9
aF0.1
aF0.8
aF0.2
aF1.0
aF0.3
aF2.3
aF2.0
aF8.4
aF1.9
aI4
aI0
aI5
aV201577,1610612756
p1468
aa(lp1469
I200760
aVRodney Carney
p1470
aI1610612755
aVPHI
p1471
aF26.0
aI68
aI23
aI45
aF0.338
aF12.6
aF1.7
aF4.1
aF0.401
aF0.6
aF2.0
aF0.304
aF0.8
aF0.9
aF0.825
aF0.4
aF1.6
aF2.0
aF0.5
aF0.3
aF0.4
aF0.3
aF0.1
aF1.2
aF0.7
aF4.7
aF-1.5
aI0
aI0
aI5
aV200760,1610612755
p1472
aa(lp1473
I201155
aVRodney Stuckey
p1474
aI1610612765
aVDET
p1475
aF24.0
aI73
aI23
aI50
aF0.315
aF34.2
aF6.2
aF15.2
aF0.405
aF0.2
aF1.1
aF0.228
aF4.1
aF4.9
aF0.833
aF0.9
aF2.9
aF3.8
aF4.8
aF2.2
aF1.4
aF0.2
aF1.4
aF2.8
aF4.1
aF16.6
aF-1.5
aI5
aI0
aI5
aV201155,1610612765
p1476
aa(lp1477
I201958
aVRodrigue Beaubois
p1478
aI1610612742
aVDAL
p1479
aF22.0
aI56
aI36
aI20
aF0.643
aF12.5
aF2.8
aF5.3
aF0.518
aF0.8
aF2.0
aF0.409
aF0.8
aF0.9
aF0.808
aF0.2
aF1.2
aF1.4
aF1.3
aF1.0
aF0.5
aF0.2
aF0.2
aF1.5
aF0.8
aF7.1
aF1.0
aI0
aI0
aI5
aV201958,1610612742
p1480
aa(lp1481
I2427
aVRoger Mason Jr.
p1482
aI1610612759
aVSAS
p1483
aF29.0
aI79
aI48
aI31
aF0.608
aF19.2
aF2.4
aF6.3
aF0.389
aF1.1
aF3.3
aF0.333
aF0.3
aF0.4
aF0.794
aF0.1
aF1.9
aF2.1
aF1.7
aF0.7
aF0.4
aF0.2
aF0.2
aF1.3
aF0.5
aF6.3
aF0.8
aI0
aI0
aI5
aV2427,1610612759
p1484
aa(lp1485
I101146
aVRoko Leni Ukic
p1486
aI1610612749
aVMIL
p1487
aF25.0
aI13
aI8
aI5
aF0.615
aF7.5
aF1.1
aF2.3
aF0.467
aF0.2
aF0.9
aF0.25
aF0.7
aF0.8
aF0.818
aF0.0
aF0.2
aF0.2
aF0.9
aF0.5
aF0.1
aF0.0
aF0.1
aF0.5
aF0.6
aF3.1
aF1.3
aI0
aI0
aI5
aV101146,1610612749
p1488
aa(lp1489
I2436
aVRonald Murray
p1490
aI1610612741
aVCHI
p1491
aF30.0
aI75
aI37
aI38
aF0.493
aF22.3
aF3.6
aF9.1
aF0.392
aF0.9
aF2.9
aF0.312
aF1.9
aF2.6
aF0.727
aF0.4
aF2.1
aF2.4
aF1.8
aF1.2
aF0.6
aF0.2
aF0.6
aF1.7
aF1.8
aF9.9
aF0.1
aI0
aI0
aI5
aV2436,1610612741
p1492
aa(lp1493
I200758
aVRonnie Brewer
p1494
aI1610612763
aVMEM
p1495
aF25.0
aI58
aI37
aI21
aF0.638
aF30.0
aF3.6
aF7.4
aF0.487
aF0.1
aF0.5
aF0.258
aF1.5
aF2.3
aF0.639
aF0.8
aF2.4
aF3.2
aF2.7
aF0.9
aF1.6
aF0.3
aF0.6
aF1.4
aF1.7
aF8.8
aF1.4
aI1
aI0
aI5
aV200758,1610612763
p1496
aa(lp1497
I101179
aVRonnie Price
p1498
aI1610612762
aVUTA
p1499
aF27.0
aI60
aI40
aI20
aF0.667
aF13.4
aF1.6
aF4.0
aF0.405
aF0.3
aF1.1
aF0.286
aF0.7
aF1.0
aF0.695
aF0.5
aF0.8
aF1.2
aF2.1
aF0.9
aF0.7
aF0.2
aF0.3
aF1.8
aF1.2
aF4.3
aF0.4
aI0
aI0
aI5
aV101179,1610612762
p1500
aa(lp1501
I101142
aVRonny Turiaf
p1502
aI1610612744
aVGSW
p1503
aF27.0
aI42
aI15
aI27
aF0.357
aF20.8
aF2.0
aF3.5
aF0.582
aF0.0
aF0.0
aF0.0
aF0.9
aF1.9
aF0.474
aF1.3
aF3.3
aF4.5
aF2.1
aF1.2
aF0.5
aF1.3
aF0.2
aF2.3
aF2.0
aF4.9
aF-0.2
aI0
aI0
aI5
aV101142,1610612744
p1504
aa(lp1505
I201579
aVRoy Hibbert
p1506
aI1610612754
aVIND
p1507
aF23.0
aI81
aI31
aI50
aF0.383
aF25.1
aF4.8
aF9.7
aF0.495
aF0.0
aF0.1
aF0.5
aF2.1
aF2.8
aF0.754
aF2.2
aF3.5
aF5.7
aF2.0
aF1.8
aF0.4
aF1.6
aF0.8
aF3.5
aF2.7
aF11.7
aF0.1
aI10
aI0
aI5
aV201579,1610612754
p1508
aa(lp1509
I2767
aVRoyal Ivey
p1510
aI1610612749
aVMIL
p1511
aF28.0
aI44
aI26
aI18
aF0.591
aF7.4
aF0.8
aF1.9
aF0.422
aF0.3
aF0.8
aF0.4
aF0.2
aF0.3
aF0.75
aF0.1
aF0.6
aF0.8
aF0.6
aF0.3
aF0.4
aF0.0
aF0.1
aF0.9
aF0.5
aF2.1
aF0.1
aI0
aI0
aI5
aV2767,1610612749
p1512
aa(lp1513
I201164
aVRudy Fernandez
p1514
aI1610612757
aVPOR
p1515
aF25.0
aI62
aI39
aI23
aF0.629
aF23.2
aF2.6
aF6.8
aF0.378
aF1.6
aF4.3
aF0.368
aF1.4
aF1.6
aF0.867
aF0.6
aF2.1
aF2.6
aF2.0
aF1.2
aF1.0
aF0.2
aF0.2
aF1.4
aF1.7
aF8.1
aF0.6
aI0
aI0
aI5
aV201164,1610612757
p1516
aa(lp1517
I200752
aVRudy Gay
p1518
aI1610612763
aVMEM
p1519
aF23.0
aI80
aI39
aI41
aF0.488
aF39.7
aF7.5
aF16.1
aF0.466
aF0.8
aF2.5
aF0.327
aF3.8
aF5.0
aF0.753
aF1.4
aF4.5
aF5.9
aF1.9
aF2.1
aF1.5
aF0.8
aF1.2
aF2.5
aF3.6
aF19.6
aF0.1
aI8
aI0
aI5
aV200752,1610612763
p1520
aa(lp1521
I201566
aVRussell Westbrook
p1522
aI1610612760
aVOKC
p1523
aF21.0
aI82
aI50
aI32
aF0.61
aF34.3
aF5.9
aF14.1
aF0.418
aF0.3
aF1.3
aF0.221
aF4.0
aF5.1
aF0.78
aF1.7
aF3.1
aF4.9
aF8.0
aF3.3
aF1.3
aF0.4
aF1.2
aF2.5
aF4.0
aF16.1
aF3.4
aI24
aI1
aI5
aV201566,1610612760
p1524
aa(lp1525
I201583
aVRyan Anderson
p1526
aI1610612753
aVORL
p1527
aF22.0
aI63
aI46
aI17
aF0.73
aF14.5
aF2.7
aF6.2
aF0.436
aF1.2
aF3.3
aF0.37
aF1.1
aF1.3
aF0.866
aF1.1
aF2.1
aF3.2
aF0.6
aF0.9
aF0.4
aF0.2
aF0.3
aF1.3
aF1.0
aF7.7
aF2.6
aI1
aI0
aI5
aV201583,1610612753
p1528
aa(lp1529
I1763
aVRyan Bowen
p1530
aI1610612760
aVOKC
p1531
aF34.0
aI1
aI0
aI1
aF0.0
aF7.9
aF1.0
aF1.0
aF1.0
aF0.0
aF0.0
aF0.0
aF2.0
aF2.0
aF1.0
aF1.0
aF1.0
aF2.0
aF0.0
aF0.0
aF1.0
aF0.0
aF0.0
aF2.0
aF1.0
aF4.0
aF10.0
aI0
aI0
aI5
aV1763,1610612760
p1532
aa(lp1533
I101155
aVRyan Gomes
p1534
aI1610612750
aVMIN
p1535
aF27.0
aI76
aI12
aI64
aF0.158
aF29.1
aF4.3
aF9.6
aF0.447
aF1.0
aF2.6
aF0.372
aF1.4
aF1.7
aF0.825
aF1.0
aF3.6
aF4.6
aF1.6
aF1.3
aF0.8
aF0.2
aF0.5
aF2.0
aF1.4
aF10.9
aF-5.5
aI1
aI0
aI5
aV101155,1610612750
p1536
aa(lp1537
I200797
aVRyan Hollins
p1538
aI1610612750
aVMIN
p1539
aF25.0
aI73
aI13
aI60
aF0.178
aF16.8
aF2.3
aF4.2
aF0.558
aF0.0
aF0.0
aF0.0
aF1.5
aF2.2
aF0.69
aF1.1
aF1.8
aF2.8
aF0.7
aF1.3
aF0.3
aF0.5
aF0.5
aF2.7
aF2.4
aF6.1
aF-5.7
aI0
aI0
aI5
aV200797,1610612750
p1540
aa(lp1541
I201970
aVSam Young
p1542
aI1610612763
aVMEM
p1543
aF25.0
aI80
aI39
aI41
aF0.488
aF16.5
aF2.8
aF6.2
aF0.451
aF0.1
aF0.7
aF0.196
aF1.7
aF2.2
aF0.777
aF1.0
aF1.6
aF2.5
aF0.7
aF1.2
aF0.4
aF0.3
aF0.7
aF1.3
aF1.8
aF7.4
aF-2.9
aI0
aI0
aI5
aV201970,1610612763
p1544
aa(lp1545
I2223
aVSamuel Dalembert
p1546
aI1610612755
aVPHI
p1547
aF30.0
aI82
aI27
aI55
aF0.329
aF25.9
aF3.5
aF6.4
aF0.545
aF0.0
aF0.0
aF0.0
aF1.2
aF1.6
aF0.729
aF2.9
aF6.6
aF9.6
aF0.8
aF1.5
aF0.5
aF1.8
aF0.3
aF3.1
aF1.5
aF8.1
aF-2.6
aI22
aI0
aI5
aV2223,1610612755
p1548
aa(lp1549
I2562
aVSasha Pavlovic
p1550
aI1610612750
aVMIN
p1551
aF26.0
aI71
aI11
aI60
aF0.155
aF12.3
aF1.5
aF4.2
aF0.363
aF0.5
aF1.7
aF0.297
aF0.1
aF0.4
aF0.385
aF0.2
aF1.5
aF1.6
aF0.8
aF0.7
aF0.3
aF0.1
aF0.2
aF1.2
aF0.4
aF3.7
aF-3.9
aI0
aI0
aI5
aV2562,1610612750
p1552
aa(lp1553
I2756
aVSasha Vujacic
p1554
aI1610612747
aVLAL
p1555
aF26.0
aI67
aI49
aI18
aF0.731
aF8.6
aF1.0
aF2.4
aF0.402
aF0.4
aF1.2
aF0.309
aF0.4
aF0.5
aF0.848
aF0.4
aF0.8
aF1.2
aF0.6
aF0.3
aF0.3
aF0.1
aF0.0
aF1.0
aF0.5
aF2.8
aF-0.1
aI0
aI0
aI5
aV2756,1610612747
p1556
aa(lp1557
I1752
aVSean Marks
p1558
aI1610612740
aVNOH
p1559
aF34.0
aI14
aI5
aI9
aF0.357
aF5.3
aF0.3
aF0.6
aF0.5
aF0.0
aF0.0
aF0.0
aF0.1
aF0.4
aF0.4
aF1.0
aF0.6
aF1.6
aF0.1
aF0.1
aF0.0
aF0.2
aF0.0
aF1.2
aF0.3
aF0.7
aF-0.6
aI0
aI0
aI5
aV1752,1610612740
p1560
aa(lp1561
I101118
aVSean May
p1562
aI1610612758
aVSAC
p1563
aF26.0
aI37
aI13
aI24
aF0.351
aF9.0
aF1.4
aF3.0
aF0.459
aF0.0
aF0.1
aF0.0
aF0.6
aF0.9
aF0.656
aF0.5
aF1.4
aF1.9
aF0.5
aF0.5
aF0.3
aF0.2
aF0.2
aF1.2
aF0.8
aF3.3
aF0.3
aI0
aI0
aI5
aV101118,1610612758
p1564
aa(lp1565
I201157
aVSean Williams
p1566
aI1610612751
aVNJN
p1567
aF23.0
aI20
aI0
aI20
aF0.0
aF11.4
aF1.1
aF2.5
aF0.429
aF0.0
aF0.1
aF0.0
aF0.5
aF1.0
aF0.526
aF1.1
aF1.3
aF2.3
aF0.1
aF1.0
aF0.4
aF1.0
aF0.0
aF2.1
aF0.9
aF2.6
aF-1.3
aI0
aI0
aI5
aV201157,1610612751
p1568
aa(lp1569
I2742
aVSebastian Telfair
p1570
aI1610612739
aVCLE
p1571
aF25.0
aI43
aI18
aI25
aF0.419
aF15.3
aF1.9
aF4.7
aF0.413
aF0.3
aF1.3
aF0.232
aF0.7
aF0.9
aF0.784
aF0.1
aF0.9
aF1.0
aF2.9
aF1.2
aF0.6
aF0.1
aF0.1
aF1.7
aF1.1
aF4.8
aF-2.7
aI0
aI0
aI5
aV2742,1610612739
p1572
aa(lp1573
I201586
aVSerge Ibaka
p1574
aI1610612760
aVOKC
p1575
aF20.0
aI73
aI45
aI28
aF0.616
aF18.1
aF2.8
aF5.1
aF0.543
aF0.0
aF0.0
aF0.5
aF0.8
aF1.3
aF0.63
aF1.9
aF3.5
aF5.4
aF0.1
aF0.9
aF0.3
aF1.3
aF0.3
aF2.7
aF1.2
aF6.3
aF0.1
aI4
aI0
aI5
aV201586,1610612760
p1576
aa(lp1577
I200771
aVSergio Rodriguez
p1578
aI1610612752
aVNYK
p1579
aF24.0
aI66
aI21
aI45
aF0.318
aF15.9
aF2.5
aF5.3
aF0.476
aF0.5
aF1.4
aF0.352
aF1.0
aF1.4
aF0.731
aF0.4
aF1.0
aF1.3
aF3.2
aF1.7
aF0.8
aF0.1
aF0.5
aF1.3
aF1.2
aF6.6
aF-0.6
aI0
aI0
aI5
aV200771,1610612752
p1580
aa(lp1581
I2203
aVShane Battier
p1582
aI1610612745
aVHOU
p1583
aF31.0
aI67
aI36
aI31
aF0.537
aF32.4
aF2.7
aF6.7
aF0.398
aF1.5
aF4.2
aF0.362
aF1.1
aF1.6
aF0.726
aF1.1
aF3.6
aF4.7
aF2.4
aF1.0
aF0.8
aF1.1
aF0.3
aF2.1
aF2.0
aF8.0
aF-0.3
aI4
aI0
aI5
aV2203,1610612745
p1584
aa(lp1585
I200769
aVShannon Brown
p1586
aI1610612747
aVLAL
p1587
aF24.0
aI82
aI57
aI25
aF0.695
aF20.7
aF3.1
aF7.2
aF0.427
aF0.8
aF2.3
aF0.328
aF1.2
aF1.5
aF0.818
aF0.4
aF1.9
aF2.2
aF1.3
aF0.8
aF0.7
aF0.4
aF0.3
aF1.6
aF1.1
aF8.1
aF0.2
aI1
aI0
aI5
aV200769,1610612747
p1588
aa(lp1589
I406
aVShaquille O'Neal
p1590
aI1610612739
aVCLE
p1591
aF38.0
aI53
aI40
aI13
aF0.755
aF23.4
aF4.9
aF8.7
aF0.566
aF0.0
aF0.0
aF0.0
aF2.1
aF4.3
aF0.496
aF1.8
aF4.9
aF6.7
aF1.5
aF2.0
aF0.3
aF1.2
aF0.5
aF3.2
aF3.6
aF12.0
aF1.8
aI7
aI0
aI5
aV406,1610612739
p1592
aa(lp1593
I2733
aVShaun Livingston
p1594
aI1610612764
aVWAS
p1595
aF24.0
aI36
aI10
aI26
aF0.278
aF22.1
aF2.9
aF5.6
aF0.517
aF0.0
aF0.2
aF0.0
aF1.2
aF1.3
aF0.875
aF0.4
aF1.7
aF2.2
aF3.6
aF1.6
aF0.5
aF0.3
aF0.2
aF1.7
aF1.6
aF6.9
aF0.8
aI0
aI0
aI5
aV2733,1610612764
p1596
aa(lp1597
I101183
aVShavlik Randolph
p1598
aI1610612748
aVMIA
p1599
aF26.0
aI6
aI3
aI3
aF0.5
aF8.8
aF1.0
aF3.0
aF0.333
aF0.0
aF0.0
aF0.0
aF0.3
aF0.3
aF1.0
aF1.2
aF1.2
aF2.3
aF0.2
aF0.5
aF0.2
aF0.2
aF0.8
aF1.5
aF0.7
aF2.3
aF1.7
aI0
aI0
aI5
aV101183,1610612748
p1600
aa(lp1601
I1890
aVShawn Marion
p1602
aI1610612742
aVDAL
p1603
aF32.0
aI75
aI50
aI25
aF0.667
aF31.8
aF5.3
aF10.4
aF0.508
aF0.0
aF0.3
aF0.158
aF1.4
aF1.9
aF0.755
aF2.1
aF4.3
aF6.4
aF1.4
aF1.3
aF0.9
aF0.8
aF0.8
aF1.9
aF1.4
aF12.0
aF3.1
aI6
aI0
aI5
aV1890,1610612742
p1604
aa(lp1605
I200749
aVShelden Williams
p1606
aI1610612738
aVBOS
p1607
aF26.0
aI54
aI36
aI18
aF0.667
aF11.1
aF1.2
aF2.2
aF0.521
aF0.0
aF0.0
aF0.0
aF1.4
aF1.8
aF0.765
aF0.9
aF1.8
aF2.7
aF0.4
aF0.6
aF0.2
aF0.4
aF0.2
aF1.6
aF1.5
aF3.7
aF0.6
aI1
aI0
aI5
aV200749,1610612738
p1608
aa(lp1609
I200780
aVSolomon Jones
p1610
aI1610612754
aVIND
p1611
aF25.0
aI52
aI20
aI32
aF0.385
aF13.0
aF1.5
aF3.4
aF0.443
aF0.0
aF0.1
aF0.0
aF1.0
aF1.4
aF0.718
aF1.0
aF1.8
aF2.8
aF0.6
aF0.8
aF0.3
aF0.7
aF0.3
aF2.4
aF1.2
aF4.0
aF-2.6
aI0
aI0
aI5
aV200780,1610612754
p1612
aa(lp1613
I201603
aVSonny Weems
p1614
aI1610612761
aVTOR
p1615
aF23.0
aI69
aI32
aI37
aF0.464
aF19.8
aF3.4
aF6.6
aF0.515
aF0.0
aF0.2
aF0.133
aF0.6
aF0.9
aF0.688
aF0.6
aF2.2
aF2.8
aF1.5
aF0.9
aF0.6
aF0.4
aF0.4
aF1.8
aF0.7
aF7.5
aF-0.8
aI1
aI0
aI5
aV201603,1610612761
p1616
aa(lp1617
I201150
aVSpencer Hawes
p1618
aI1610612758
aVSAC
p1619
aF22.0
aI72
aI23
aI49
aF0.319
aF26.4
aF4.3
aF9.3
aF0.468
aF0.4
aF1.2
aF0.299
aF1.0
aF1.5
aF0.689
aF2.0
aF4.0
aF6.1
aF2.2
aF1.8
aF0.4
aF1.2
aF0.7
aF2.8
aF1.5
aF10.0
aF-3.1
aI9
aI0
aI5
aV201150,1610612758
p1620
aa(lp1621
I201939
aVStephen Curry
p1622
aI1610612744
aVGSW
p1623
aF22.0
aI80
aI25
aI55
aF0.313
aF36.2
aF6.6
aF14.3
aF0.462
aF2.1
aF4.8
aF0.437
aF2.2
aF2.5
aF0.885
aF0.6
aF3.9
aF4.5
aF5.9
aF3.0
aF1.9
aF0.2
aF0.6
aF3.2
aF2.6
aF17.5
aF-2.3
aI12
aI1
aI5
aV201939,1610612744
p1624
aa(lp1625
I101211
aVStephen Graham
p1626
aI1610612766
aVCHA
p1627
aF28.0
aI70
aI36
aI34
aF0.514
aF11.5
aF1.7
aF3.4
aF0.496
aF0.2
aF0.7
aF0.32
aF0.6
aF0.9
aF0.646
aF0.3
aF1.6
aF1.9
aF0.3
aF0.5
aF0.3
aF0.1
aF0.3
aF1.3
aF0.8
aF4.2
aF-0.2
aI0
aI0
aI5
aV101211,1610612766
p1628
aa(lp1629
I1536
aVStephen Jackson
p1630
aI1610612766
aVCHA
p1631
aF32.0
aI81
aI44
aI37
aF0.543
aF38.6
aF7.4
aF17.5
aF0.423
aF1.6
aF4.9
aF0.328
aF4.2
aF5.4
aF0.779
aF1.0
aF4.0
aF5.0
aF3.7
aF3.2
aF1.6
aF0.5
aF1.2
aF2.4
aF4.0
aF20.6
aF1.7
aI3
aI0
aI5
aV1536,1610612766
p1632
aa(lp1633
I2581
aVSteve Blake
p1634
aI1610612746
aVLAC
p1635
aF30.0
aI80
aI37
aI43
aF0.463
aF27.0
aF2.7
aF6.5
aF0.416
aF1.5
aF3.7
aF0.395
aF0.5
aF0.6
aF0.75
aF0.3
aF2.1
aF2.3
aF4.8
aF1.6
aF0.7
aF0.1
aF0.1
aF1.5
aF1.2
aF7.3
aF-1.5
aI4
aI1
aI5
aV2581,1610612746
p1636
aa(lp1637
I959
aVSteve Nash
p1638
aI1610612756
aVPHX
p1639
aF36.0
aI81
aI53
aI28
aF0.654
aF32.8
aF6.2
aF12.2
aF0.507
aF1.5
aF3.6
aF0.426
aF2.6
aF2.8
aF0.938
aF0.4
aF2.9
aF3.3
aF11.0
aF3.6
aF0.5
aF0.1
aF0.4
aF1.3
aF2.7
aF16.5
aF4.7
aI49
aI0
aI5
aV959,1610612756
p1640
aa(lp1641
I200779
aVSteve Novak
p1642
aI1610612746
aVLAC
p1643
aF27.0
aI54
aI15
aI39
aF0.278
aF6.7
aF0.8
aF2.0
aF0.389
aF0.4
aF1.3
aF0.31
aF0.1
aF0.2
aF0.778
aF0.0
aF0.6
aF0.6
aF0.1
aF0.0
aF0.1
aF0.0
aF0.0
aF0.4
aF0.2
aF2.1
aF-1.6
aI0
aI0
aI5
aV200779,1610612746
p1644
aa(lp1645
I2212
aVSteven Hunter
p1646
aI1610612763
aVMEM
p1647
aF28.0
aI21
aI8
aI13
aF0.381
aF7.5
aF0.8
aF2.0
aF0.395
aF0.0
aF0.0
aF0.0
aF0.9
aF1.7
aF0.528
aF0.9
aF1.1
aF2.0
aF0.0
aF0.4
aF0.0
aF0.5
aF0.1
aF0.5
aF1.1
aF2.5
aF-1.5
aI0
aI0
aI5
aV2212,1610612763
p1648
aa(lp1649
I202178
aVSundiata Gaines
p1650
aI1610612762
aVUTA
p1651
aF24.0
aI32
aI21
aI11
aF0.656
aF6.8
aF1.2
aF2.6
aF0.463
aF0.2
aF0.8
aF0.269
aF0.7
aF1.4
aF0.5
aF0.2
aF0.7
aF0.9
aF1.2
aF0.4
aF0.4
aF0.0
aF0.1
aF0.5
aF1.0
aF3.3
aF0.4
aI0
aI0
aI5
aV202178,1610612762
p1652
aa(lp1653
I2551
aVT.J. Ford
p1654
aI1610612754
aVIND
p1655
aF27.0
aI47
aI13
aI34
aF0.277
aF25.3
aF4.0
aF8.9
aF0.445
aF0.2
aF1.1
aF0.16
aF2.2
aF2.9
aF0.77
aF0.9
aF2.3
aF3.2
aF3.8
aF1.9
aF0.9
aF0.2
aF0.4
aF2.2
aF2.4
aF10.3
aF-3.7
aI2
aI0
aI5
aV2551,1610612754
p1656
aa(lp1657
I201959
aVTaj Gibson
p1658
aI1610612741
aVCHI
p1659
aF25.0
aI82
aI41
aI41
aF0.5
aF26.9
aF3.8
aF7.7
aF0.494
aF0.0
aF0.0
aF0.0
aF1.4
aF2.1
aF0.646
aF2.8
aF4.7
aF7.5
aF0.9
aF1.4
aF0.6
aF1.3
aF0.6
aF3.4
aF1.9
aF9.0
aF-0.7
aI18
aI0
aI5
aV201959,1610612741
p1660
aa(lp1661
I201981
aVTaylor Griffin
p1662
aI1610612756
aVPHX
p1663
aF24.0
aI8
aI6
aI2
aF0.75
aF4.1
aF0.5
aF1.3
aF0.4
aF0.0
aF0.3
aF0.0
aF0.3
aF0.5
aF0.5
aF0.0
aF0.3
aF0.3
aF0.1
aF0.1
aF0.0
aF0.3
aF0.0
aF0.5
aF0.3
aF1.3
aF-0.4
aI0
aI0
aI5
aV201981,1610612756
p1664
aa(lp1665
I2419
aVTayshaun Prince
p1666
aI1610612765
aVDET
p1667
aF30.0
aI49
aI12
aI37
aF0.245
aF34.0
aF5.8
aF11.8
aF0.486
aF0.6
aF1.5
aF0.37
aF1.4
aF2.0
aF0.714
aF1.4
aF3.6
aF5.1
aF3.3
aF1.2
aF0.7
aF0.4
aF0.4
aF1.6
aF1.9
aF13.5
aF-3.0
aI2
aI0
aI5
aV2419,1610612765
p1668
aa(lp1669
I201944
aVTerrence Williams
p1670
aI1610612751
aVNJN
p1671
aF23.0
aI78
aI10
aI68
aF0.128
aF22.6
aF3.3
aF8.3
aF0.401
aF0.4
aF1.3
aF0.31
aF1.3
aF1.8
aF0.715
aF0.6
aF3.9
aF4.5
aF2.9
aF1.6
aF0.6
aF0.1
aF0.5
aF1.6
aF1.5
aF8.4
aF-3.4
aI8
aI1
aI5
aV201944,1610612751
p1672
aa(lp1673
I200757
aVThabo Sefolosha
p1674
aI1610612760
aVOKC
p1675
aF26.0
aI82
aI50
aI32
aF0.61
aF28.6
aF2.4
aF5.4
aF0.44
aF0.5
aF1.6
aF0.313
aF0.7
aF1.1
aF0.674
aF0.9
aF3.8
aF4.7
aF1.8
aF1.1
aF1.2
aF0.6
aF0.3
aF1.9
aF1.0
aF6.0
aF0.9
aI3
aI0
aI5
aV200757,1610612760
p1676
aa(lp1677
I201152
aVThaddeus Young
p1678
aI1610612755
aVPHI
p1679
aF22.0
aI67
aI23
aI44
aF0.343
aF32.0
aF5.7
aF12.1
aF0.47
aF0.7
aF2.1
aF0.348
aF1.7
aF2.5
aF0.691
aF1.9
aF3.3
aF5.2
aF1.4
aF1.9
aF1.2
aF0.2
aF0.8
aF2.0
aF2.2
aF13.8
aF-2.1
aI6
aI0
aI5
aV201152,1610612755
p1680
aa(lp1681
I689
aVTheo Ratliff
p1682
aI1610612766
aVCHA
p1683
aF37.0
aI49
aI32
aI17
aF0.653
aF16.5
aF1.4
aF3.1
aF0.461
aF0.0
aF0.0
aF0.0
aF0.8
aF1.0
aF0.76
aF1.2
aF2.0
aF3.2
aF0.5
aF0.8
aF0.2
aF1.2
aF0.2
aF1.8
aF1.0
aF3.6
aF-0.4
aI0
aI0
aI5
aV689,1610612766
p1684
aa(lp1685
I1495
aVTim Duncan
p1686
aI1610612759
aVSAS
p1687
aF34.0
aI78
aI47
aI31
aF0.603
aF31.3
aF7.2
aF13.9
aF0.518
aF0.0
aF0.1
aF0.182
aF3.5
aF4.8
aF0.725
aF2.8
aF7.3
aF10.1
aF3.2
aF1.8
aF0.6
aF1.5
aF0.9
aF1.9
aF3.9
aF17.9
aF4.9
aI38
aI0
aI5
aV1495,1610612759
p1688
aa(lp1689
I1501
aVTim Thomas
p1690
aI1610612742
aVDAL
p1691
aF33.0
aI18
aI10
aI8
aF0.556
aF15.8
aF2.7
aF5.9
aF0.462
aF0.9
aF2.4
aF0.372
aF1.2
aF1.3
aF0.875
aF0.7
aF1.6
aF2.3
aF0.8
aF0.8
aF0.6
aF0.1
aF0.1
aF1.7
aF1.1
aF7.5
aF-0.7
aI0
aI0
aI5
aV1501,1610612742
p1692
aa(lp1693
I201962
aVToney Douglas
p1694
aI1610612752
aVNYK
p1695
aF24.0
aI56
aI22
aI34
aF0.393
aF19.4
aF3.2
aF7.0
aF0.458
aF1.2
aF3.1
aF0.389
aF1.0
aF1.2
aF0.809
aF0.7
aF1.2
aF1.9
aF2.0
aF1.0
aF0.8
aF0.1
aF0.4
aF2.1
aF1.3
aF8.6
aF-1.9
aI0
aI0
aI5
aV201962,1610612752
p1696
aa(lp1697
I2754
aVTony Allen
p1698
aI1610612738
aVBOS
p1699
aF28.0
aI54
aI31
aI23
aF0.574
aF16.5
aF2.4
aF4.7
aF0.51
aF0.0
aF0.1
aF0.0
aF1.3
aF2.2
aF0.605
aF1.0
aF1.7
aF2.7
aF1.3
aF1.2
aF1.1
aF0.4
aF0.4
aF2.0
aF1.7
aF6.1
aF-0.6
aI1
aI0
aI5
aV2754,1610612738
p1700
aa(lp1701
I1499
aVTony Battie
p1702
aI1610612751
aVNJN
p1703
aF34.0
aI15
aI3
aI12
aF0.2
aF8.9
aF0.9
aF2.7
aF0.35
aF0.1
aF0.3
aF0.25
aF0.5
aF0.7
aF0.7
aF0.3
aF1.3
aF1.5
aF0.2
aF0.2
aF0.3
aF0.1
aF0.1
aF1.3
aF0.5
aF2.4
aF-3.5
aI0
aI0
aI5
aV1499,1610612751
p1704
aa(lp1705
I2225
aVTony Parker
p1706
aI1610612759
aVSAS
p1707
aF28.0
aI56
aI34
aI22
aF0.607
aF30.9
aF6.2
aF12.8
aF0.487
aF0.2
aF0.6
aF0.294
aF3.3
aF4.4
aF0.756
aF0.1
aF2.3
aF2.4
aF5.7
aF2.7
aF0.5
aF0.1
aF1.2
aF1.7
aF3.5
aF16.0
aF3.9
aI3
aI0
aI5
aV2225,1610612759
p1708
aa(lp1709
I1503
aVTracy McGrady
p1710
aI1610612752
aVNYK
p1711
aF31.0
aI30
aI10
aI20
aF0.333
aF22.4
aF3.0
aF7.8
aF0.387
aF0.5
aF2.1
aF0.25
aF1.6
aF2.1
aF0.746
aF0.7
aF2.4
aF3.1
aF3.3
aF1.5
aF0.5
aF0.5
aF0.3
aF1.3
aF1.7
aF8.2
aF-3.5
aI0
aI0
aI5
aV1503,1610612752
p1712
aa(lp1713
I101143
aVTravis Diener
p1714
aI1610612757
aVPOR
p1715
aF28.0
aI9
aI4
aI5
aF0.444
aF5.7
aF0.2
aF1.1
aF0.2
aF0.1
aF0.8
aF0.143
aF0.1
aF0.4
aF0.25
aF0.0
aF0.3
aF0.3
aF0.9
aF0.0
aF0.4
aF0.0
aF0.0
aF0.2
aF0.2
aF0.7
aF-3.8
aI0
aI0
aI5
aV101143,1610612757
p1716
aa(lp1717
I2566
aVTravis Outlaw
p1718
aI1610612746
aVLAC
p1719
aF25.0
aI34
aI14
aI20
aF0.412
aF21.5
aF3.2
aF8.3
aF0.391
aF1.2
aF3.1
aF0.381
aF1.4
aF1.7
aF0.831
aF1.0
aF2.6
aF3.6
aF1.0
aF0.9
aF0.5
aF0.5
aF0.3
aF1.3
aF1.3
aF9.1
aF-1.3
aI1
aI0
aI5
aV2566,1610612746
p1720
aa(lp1721
I2239
aVTrenton Hassell
p1722
aI1610612751
aVNJN
p1723
aF31.0
aI52
aI6
aI46
aF0.115
aF21.3
aF1.7
aF4.2
aF0.411
aF0.0
aF0.1
aF0.0
aF1.0
aF1.3
aF0.754
aF1.1
aF1.8
aF2.9
aF1.0
aF0.9
aF0.3
aF0.2
aF0.3
aF1.8
aF1.3
aF4.5
aF-6.8
aI1
aI0
aI5
aV2239,1610612751
p1724
aa(lp1725
I2772
aVTrevor Ariza
p1726
aI1610612745
aVHOU
p1727
aF24.0
aI72
aI37
aI35
aF0.514
aF36.5
aF5.5
aF13.9
aF0.394
aF1.9
aF5.7
aF0.334
aF2.1
aF3.2
aF0.649
aF1.1
aF4.5
aF5.6
aF3.8
aF2.2
aF1.8
aF0.6
aF0.9
aF2.3
aF2.5
aF14.9
aF-0.2
aI6
aI1
aI5
aV2772,1610612745
p1728
aa(lp1729
I201821
aVTrey Gilder
p1730
aI1610612763
aVMEM
p1731
aF25.0
aI2
aI0
aI2
aF0.0
aF2.6
aF0.5
aF0.5
aF1.0
aF0.0
aF0.0
aF0.0
aF0.0
aF0.0
aF0.0
aF0.0
aF0.5
aF0.5
aF0.0
aF0.0
aF0.5
aF0.0
aF0.0
aF0.0
aF0.0
aF1.0
aF1.5
aI0
aI0
aI5
aV201821,1610612763
p1732
aa(lp1733
I2211
aVTroy Murphy
p1734
aI1610612754
aVIND
p1735
aF30.0
aI72
aI25
aI47
aF0.347
aF32.6
aF5.3
aF11.3
aF0.472
aF1.8
aF4.6
aF0.384
aF2.1
aF2.7
aF0.798
aF1.8
aF8.4
aF10.2
aF2.1
aF1.4
aF1.0
aF0.5
aF0.6
aF2.4
aF2.4
aF14.6
aF-3.6
aI39
aI0
aI5
aV2211,1610612754
p1736
aa(lp1737
I201951
aVTy Lawson
p1738
aI1610612743
aVDEN
p1739
aF22.0
aI65
aI42
aI23
aF0.646
aF20.3
aF3.1
aF6.0
aF0.515
aF0.5
aF1.3
aF0.41
aF1.6
aF2.2
aF0.757
aF0.6
aF1.3
aF1.9
aF3.1
aF1.3
aF0.7
aF0.0
aF0.7
aF1.4
aF1.9
aF8.3
aF2.6
aI0
aI0
aI5
aV201951,1610612743
p1740
aa(lp1741
I201946
aVTyler Hansbrough
p1742
aI1610612754
aVIND
p1743
aF24.0
aI29
aI11
aI18
aF0.379
aF17.6
aF2.8
aF7.8
aF0.36
aF0.0
aF0.1
aF0.0
aF2.9
aF3.9
aF0.743
aF2.1
aF2.7
aF4.8
aF1.0
aF0.7
aF0.6
aF0.3
aF1.1
aF2.4
aF2.9
aF8.5
aF-2.0
aI3
aI0
aI5
aV201946,1610612754
p1744
aa(lp1745
I201936
aVTyreke Evans
p1746
aI1610612758
aVSAC
p1747
aF20.0
aI72
aI23
aI49
aF0.319
aF37.2
aF7.4
aF16.2
aF0.458
aF0.5
aF2.0
aF0.255
aF4.8
aF6.5
aF0.748
aF0.9
aF4.4
aF5.3
aF5.8
aF3.0
aF1.5
aF0.4
aF1.2
aF2.8
aF4.7
aF20.1
aF-4.6
aI13
aI1
aI5
aV201936,1610612758
p1748
aa(lp1749
I200748
aVTyrus Thomas
p1750
aI1610612766
aVCHA
p1751
aF23.0
aI54
aI33
aI21
aF0.611
aF22.6
aF3.6
aF7.8
aF0.462
aF0.0
aF0.1
aF0.0
aF2.2
aF3.2
aF0.686
aF1.5
aF4.7
aF6.2
aF1.0
aF1.7
aF1.2
aF1.6
aF0.6
aF2.4
aF2.7
aF9.4
aF-0.6
aI3
aI0
aI5
aV200748,1610612766
p1752
aa(lp1753
I2199
aVTyson Chandler
p1754
aI1610612766
aVCHA
p1755
aF27.0
aI51
aI28
aI23
aF0.549
aF22.8
aF2.1
aF3.7
aF0.574
aF0.0
aF0.0
aF0.0
aF2.3
aF3.1
aF0.732
aF2.2
aF4.0
aF6.3
aF0.3
aF1.8
aF0.3
aF1.1
aF0.5
aF2.7
aF2.5
aF6.5
aF-0.3
aI5
aI0
aI5
aV2199,1610612766
p1756
aa(lp1757
I2617
aVUdonis Haslem
p1758
aI1610612748
aVMIA
p1759
aF30.0
aI78
aI45
aI33
aF0.577
aF27.9
aF4.0
aF8.1
aF0.494
aF0.0
aF0.0
aF0.0
aF1.9
aF2.5
aF0.762
aF2.1
aF5.9
aF8.1
aF0.7
aF1.0
aF0.4
aF0.3
aF0.4
aF2.2
aF2.3
aF9.9
aF0.9
aI21
aI0
aI5
aV2617,1610612748
p1760
aa(lp1761
I1713
aVVince Carter
p1762
aI1610612753
aVORL
p1763
aF33.0
aI75
aI54
aI21
aF0.72
aF30.8
aF5.8
aF13.5
aF0.428
aF1.6
aF4.3
aF0.367
aF3.4
aF4.1
aF0.84
aF0.4
aF3.5
aF3.9
aF3.1
aF1.4
aF0.7
aF0.2
aF0.5
aF2.5
aF3.1
aF16.6
aF6.6
aI1
aI0
aI5
aV1713,1610612753
p1764
aa(lp1765
I2209
aVVladimir Radmanovic
p1766
aI1610612744
aVGSW
p1767
aF29.0
aI41
aI11
aI30
aF0.268
aF21.7
aF2.5
aF6.7
aF0.377
aF0.7
aF2.6
aF0.278
aF0.5
aF0.7
aF0.741
aF1.2
aF3.1
aF4.3
aF1.1
aF1.1
aF0.7
aF0.2
aF0.4
aF2.4
aF0.9
aF6.2
aF-3.1
aI1
aI0
aI5
aV2209,1610612744
p1768
aa(lp1769
I201961
aVWayne Ellington
p1770
aI1610612750
aVMIN
p1771
aF22.0
aI76
aI15
aI61
aF0.197
aF18.2
aF2.5
aF5.9
aF0.424
aF0.8
aF2.1
aF0.395
aF0.8
aF0.9
aF0.871
aF0.4
aF1.7
aF2.1
aF1.0
aF1.0
aF0.3
aF0.1
aF0.3
aF0.9
aF0.8
aF6.6
aF-2.5
aI0
aI0
aI5
aV201961,1610612750
p1772
aa(lp1773
I202083
aVWesley Matthews
p1774
aI1610612762
aVUTA
p1775
aF23.0
aI82
aI53
aI29
aF0.646
aF24.7
aF3.3
aF6.9
aF0.483
aF0.8
aF2.0
aF0.382
aF2.0
aF2.4
aF0.829
aF0.6
aF1.7
aF2.3
aF1.5
aF1.1
aF0.8
aF0.2
aF0.5
aF1.9
aF2.0
aF9.4
aF2.5
aI0
aI0
aI5
aV202083,1610612762
p1776
aa(lp1777
I101198
aVWill Bynum
p1778
aI1610612765
aVDET
p1779
aF27.0
aI63
aI21
aI42
aF0.333
aF26.5
aF3.8
aF8.5
aF0.444
aF0.2
aF0.9
aF0.218
aF2.3
aF2.8
aF0.798
aF0.4
aF1.9
aF2.3
aF4.5
aF1.8
aF0.9
aF0.1
aF0.8
aF2.3
aF2.4
aF10.0
aF-4.7
aI1
aI0
aI5
aV101198,1610612765
p1780
aa(lp1781
I101215
aVWill Conroy
p1782
aI1610612745
aVHOU
p1783
aF27.0
aI5
aI2
aI3
aF0.4
aF7.2
aF0.6
aF2.0
aF0.3
aF0.0
aF0.6
aF0.0
aF0.0
aF0.4
aF0.0
aF0.0
aF0.6
aF0.6
aF1.4
aF0.8
aF0.0
aF0.0
aF0.0
aF1.0
aF0.6
aF1.2
aF-3.0
aI0
aI0
aI5
aV101215,1610612745
p1784
aa(lp1785
I2584
aVWillie Green
p1786
aI1610612755
aVPHI
p1787
aF28.0
aI73
aI23
aI50
aF0.315
aF21.3
aF3.4
aF7.4
aF0.457
aF0.6
aF1.9
aF0.346
aF1.3
aF1.6
aF0.833
aF0.3
aF1.5
aF1.8
aF2.1
aF0.9
aF0.4
aF0.2
aF0.2
aF1.8
aF1.4
aF8.7
aF-2.1
aI0
aI0
aI5
aV2584,1610612755
p1788
aa(lp1789
I201163
aVWilson Chandler
p1790
aI1610612752
aVNYK
p1791
aF23.0
aI65
aI23
aI42
aF0.354
aF35.7
aF6.3
aF13.2
aF0.479
aF0.6
aF2.3
aF0.267
aF2.0
aF2.5
aF0.806
aF1.4
aF3.9
aF5.4
aF2.1
aF1.7
aF0.7
aF0.8
aF0.6
aF2.8
aF2.0
aF15.3
aF-1.9
aI4
aI0
aI5
aV201163,1610612752
p1792
aa(lp1793
I200821
aVYakhouba Diawara
p1794
aI1610612748
aVMIA
p1795
aF27.0
aI6
aI5
aI1
aF0.833
aF7.4
aF0.3
aF1.7
aF0.2
aF0.2
aF1.0
aF0.167
aF0.0
aF0.0
aF0.0
aF0.2
aF0.5
aF0.7
aF0.5
aF0.5
aF0.2
aF0.0
aF0.2
aF1.3
aF0.0
aF0.8
aF-0.5
aI0
aI0
aI5
aV200821,1610612748
p1796
aa(lp1797
I201146
aVYi Jianlian
p1798
aI1610612751
aVNJN
p1799
aF22.0
aI52
aI10
aI42
aF0.192
aF31.8
aF4.4
aF10.8
aF0.403
aF0.3
aF0.8
aF0.366
aF3.0
aF3.7
aF0.798
aF2.2
aF4.9
aF7.2
aF0.9
aF1.5
aF0.7
aF1.0
aF0.8
aF3.3
aF2.7
aF12.0
aF-4.3
aI9
aI0
aI5
aV201146,1610612751
p1800
aa(lp1801
I2216
aVZach Randolph
p1802
aI1610612763
aVMEM
p1803
aF28.0
aI81
aI39
aI42
aF0.481
aF37.7
aF8.0
aF16.5
aF0.488
aF0.2
aF0.6
aF0.288
aF4.5
aF5.7
aF0.778
aF4.1
aF7.7
aF11.7
aF1.8
aF2.1
aF1.0
aF0.4
aF1.5
aF2.8
aF4.5
aF20.8
aF0.2
aI57
aI0
aI5
aV2216,1610612763
p1804
aa(lp1805
I2585
aVZaza Pachulia
p1806
aI1610612737
aVATL
p1807
aF26.0
aI78
aI50
aI28
aF0.641
aF14.0
aF1.5
aF3.2
aF0.488
aF0.0
aF0.1
aF0.0
aF1.2
aF1.8
aF0.65
aF1.5
aF2.3
aF3.8
aF0.5
aF0.7
aF0.5
aF0.4
aF0.4
aF2.4
aF1.4
aF4.3
aF-0.2
aI1
aI0
aI5
aV2585,1610612737
p1808
aa(lp1809
I980
aVZydrunas Ilgauskas
p1810
aI1610612739
aVCLE
p1811
aF35.0
aI64
aI47
aI17
aF0.734
aF20.9
aF3.0
aF6.8
aF0.443
aF0.2
aF0.4
aF0.478
aF1.2
aF1.6
aF0.743
aF1.8
aF3.6
aF5.4
aF0.8
aF1.0
aF0.2
aF0.8
aF0.3
aF2.9
aF1.2
aF7.4
aF3.5
aI0
aI0
aI5
aV980,1610612739
p1812
aasVname
p1813
VLeagueDashPlayerStats
p1814
sasVparameters
p1815
(dp1816
VConference
p1817
NsVPlusMinus
p1818
VN
p1819
sVGameScope
p1820
NsVTeamID
p1821
I0
sVHeight
p1822
NsVLocation
p1823
NsVStarterBench
p1824
NsVShotClockRange
p1825
NsVSeasonType
p1826
VRegular Season
p1827
sVDivision
p1828
NsVSeason
p1829
V2009-10
p1830
sVPaceAdjust
p1831
VN
p1832
sVDraftYear
p1833
NsVDateFrom
p1834
NsVPlayerPosition
p1835
NsVCountry
p1836
NsVVsConference
p1837
NsVOpponentTeamID
p1838
I0
sVDateTo
p1839
NsVGameSegment
p1840
NsVDraftPick
p1841
NsVLastNGames
p1842
I0
sVPlayerExperience
p1843
NsVVsDivision
p1844
NsVLeagueID
p1845
V00
p1846
sVOutcome
p1847
NsVMeasureType
p1848
VBase
p1849
sVWeight
p1850
NsVPORound
p1851
I0
sVPerMode
p1852
VPerGame
p1853
sVSeasonSegment
p1854
NsVPeriod
p1855
I0
sVRank
p1856
VN
p1857
sVMonth
p1858
I0
sVCollege
p1859
Nss.