(dp0
S'stats'
p1
(lp2
(lp3
V0021400015
p4
aVOCT 29, 2014
p5
aVOKC @ POR
p6
aVL
p7
aI33
aI11
aI26
aF0.423
aI1
aI2
aF0.5
aI15
aI16
aF0.938
aI2
aI1
aI3
aI6
aI3
aI0
aI2
aI3
aI38
aI-4
aa(lp8
V0021400020
p9
aVOCT 30, 2014
p10
aVOKC @ LAC
p11
aVL
p12
aI9
aI1
aI3
aF0.333
aI0
aI1
aF0.0
aI0
aI0
aF0.0
aI0
aI0
aI0
aI4
aI1
aI0
aI3
aI2
aI2
aI-3
aa(lp13
V0021400229
p14
aVNOV 28, 2014
p15
aVOKC vs. NYK
p16
aVW
p17
aI24
aI12
aI17
aF0.706
aI3
aI4
aF0.75
aI5
aI7
aF0.714
aI4
aI3
aI7
aI8
aI1
aI0
aI3
aI2
aI32
aI24
aa(lp18
V0021400258
p19
aVDEC 02, 2014
p20
aVOKC @ NOP
p21
aVL
p22
aI33
aI6
aI20
aF0.3
aI1
aI4
aF0.25
aI8
aI9
aF0.889
aI1
aI5
aI6
aI7
aI2
aI0
aI7
aI3
aI21
aI-16
aa(lp23
V0021400277
p24
aVDEC 05, 2014
p25
aVOKC @ PHI
p26
aVW
p27
aI31
aI8
aI14
aF0.571
aI1
aI3
aF0.333
aI10
aI14
aF0.714
aI0
aI5
aI5
aI7
aI2
aI0
aI6
aI3
aI27
aI9
aa(lp28
V0021400297
p29
aVDEC 07, 2014
p30
aVOKC @ DET
p31
aVW
p32
aI35
aI9
aI19
aF0.474
aI1
aI3
aF0.333
aI3
aI6
aF0.5
aI1
aI10
aI11
aI7
aI0
aI0
aI4
aI1
aI22
aI-9
aa(lp33
V0021400312
p34
aVDEC 09, 2014
p35
aVOKC vs. MIL
p36
aVW
p37
aI32
aI8
aI16
aF0.5
aI0
aI2
aF0.0
aI12
aI15
aF0.8
aI2
aI3
aI5
aI7
aI3
aI0
aI5
aI5
aI28
aI24
aa(lp38
V0021400326
p39
aVDEC 11, 2014
p40
aVOKC vs. CLE
p41
aVW
p42
aI36
aI12
aI24
aF0.5
aI0
aI2
aF0.0
aI2
aI2
aF1.0
aI1
aI6
aI7
aI8
aI1
aI0
aI4
aI0
aI26
aI5
aa(lp43
V0021400335
p44
aVDEC 12, 2014
p45
aVOKC @ MIN
p46
aVW
p47
aI36
aI12
aI19
aF0.632
aI2
aI3
aF0.667
aI8
aI9
aF0.889
aI1
aI5
aI6
aI6
aI2
aI0
aI4
aI3
aI34
aI16
aa(lp48
V0021400352
p49
aVDEC 14, 2014
p50
aVOKC vs. PHX
p51
aVW
p52
aI27
aI7
aI18
aF0.389
aI1
aI4
aF0.25
aI13
aI13
aF1.0
aI4
aI4
aI8
aI8
aI2
aI0
aI3
aI2
aI28
aI17
aa(lp53
V0021400368
p54
aVDEC 16, 2014
p55
aVOKC @ SAC
p56
aVW
p57
aI32
aI11
aI20
aF0.55
aI1
aI3
aF0.333
aI9
aI12
aF0.75
aI3
aI3
aI6
aI7
aI4
aI0
aI1
aI4
aI32
aI23
aa(lp58
V0021400382
p59
aVDEC 18, 2014
p60
aVOKC @ GSW
p61
aVL
p62
aI40
aI11
aI30
aF0.367
aI3
aI10
aF0.3
aI8
aI12
aF0.667
aI1
aI2
aI3
aI8
aI2
aI0
aI6
aI2
aI33
aI2
aa(lp63
V0021400392
p64
aVDEC 19, 2014
p65
aVOKC @ LAL
p66
aVW
p67
aI36
aI9
aI22
aF0.409
aI0
aI1
aF0.0
aI13
aI13
aF1.0
aI0
aI5
aI5
aI10
aI1
aI0
aI1
aI2
aI31
aI-1
aa(lp68
V0021400408
p69
aVDEC 21, 2014
p70
aVOKC vs. NOP
p71
aVL
p72
aI35
aI10
aI27
aF0.37
aI0
aI6
aF0.0
aI9
aI11
aF0.818
aI4
aI1
aI5
aI8
aI3
aI0
aI6
aI2
aI29
aI5
aa(lp73
V0021400424
p74
aVDEC 23, 2014
p75
aVOKC vs. POR
p76
aVL
p77
aI39
aI16
aI34
aF0.471
aI1
aI5
aF0.2
aI7
aI9
aF0.778
aI5
aI5
aI10
aI6
aI3
aI0
aI2
aI6
aI40
aI-9
aa(lp78
V0021400428
p79
aVDEC 25, 2014
p80
aVOKC @ SAS
p81
aVW
p82
aI35
aI14
aI28
aF0.5
aI0
aI1
aF0.0
aI6
aI8
aF0.75
aI1
aI4
aI5
aI11
aI5
aI0
aI4
aI0
aI34
aI27
aa(lp83
V0021400438
p84
aVDEC 26, 2014
p85
aVOKC vs. CHA
p86
aVW
p87
aI25
aI11
aI21
aF0.524
aI1
aI1
aF1.0
aI6
aI6
aF1.0
aI1
aI1
aI2
aI5
aI2
aI1
aI6
aI2
aI29
aI20
aa(lp88
V0021400455
p89
aVDEC 28, 2014
p90
aVOKC @ DAL
p91
aVL
p92
aI36
aI6
aI23
aF0.261
aI0
aI1
aF0.0
aI6
aI9
aF0.667
aI3
aI6
aI9
aI9
aI5
aI0
aI5
aI5
aI18
aI-8
aa(lp93
V0021400480
p94
aVDEC 31, 2014
p95
aVOKC vs. PHX
p96
aVW
p97
aI17
aI5
aI13
aF0.385
aI1
aI2
aF0.5
aI9
aI10
aF0.9
aI2
aI2
aI4
aI4
aI1
aI0
aI1
aI1
aI20
aI2
aa(lp98
V0021400489
p99
aVJAN 02, 2015
p100
aVOKC vs. WAS
p101
aVW
p102
aI30
aI8
aI23
aF0.348
aI0
aI3
aF0.0
aI6
aI7
aF0.857
aI0
aI3
aI3
aI6
aI2
aI0
aI2
aI5
aI22
aI-9
aa(lp103
V0021400518
p104
aVJAN 05, 2015
p105
aVOKC @ GSW
p106
aVL
p107
aI29
aI5
aI21
aF0.238
aI1
aI5
aF0.2
aI11
aI14
aF0.786
aI4
aI3
aI7
aI5
aI1
aI0
aI2
aI2
aI22
aI-13
aa(lp108
V0021400532
p109
aVJAN 07, 2015
p110
aVOKC @ SAC
p111
aVL
p112
aI27
aI3
aI19
aF0.158
aI0
aI5
aF0.0
aI4
aI5
aF0.8
aI3
aI4
aI7
aI4
aI1
aI0
aI7
aI4
aI10
aI-23
aa(lp113
V0021400542
p114
aVJAN 09, 2015
p115
aVOKC vs. UTA
p116
aVW
p117
aI38
aI9
aI17
aF0.529
aI1
aI1
aF1.0
aI6
aI6
aF1.0
aI1
aI3
aI4
aI12
aI3
aI0
aI3
aI3
aI25
aI22
aa(lp118
V0021400584
p119
aVJAN 15, 2015
p120
aVOKC @ HOU
p121
aVL
p122
aI38
aI6
aI13
aF0.462
aI1
aI3
aF0.333
aI3
aI4
aF0.75
aI3
aI5
aI8
aI8
aI5
aI0
aI8
aI5
aI16
aI-11
aa(lp123
V0021400593
p124
aVJAN 16, 2015
p125
aVOKC vs. GSW
p126
aVW
p127
aI36
aI7
aI19
aF0.368
aI1
aI4
aF0.25
aI2
aI4
aF0.5
aI3
aI12
aI15
aI16
aI4
aI0
aI3
aI4
aI17
aI19
aa(lp128
V0021400609
p129
aVJAN 18, 2015
p130
aVOKC @ ORL
p131
aVW
p132
aI24
aI7
aI12
aF0.583
aI0
aI3
aF0.0
aI3
aI6
aF0.5
aI1
aI0
aI1
aI6
aI1
aI1
aI4
aI2
aI17
aI15
aa(lp133
V0021400623
p134
aVJAN 20, 2015
p135
aVOKC @ MIA
p136
aVW
p137
aI35
aI8
aI17
aF0.471
aI0
aI2
aF0.0
aI3
aI4
aF0.75
aI5
aI5
aI10
aI6
aI4
aI0
aI3
aI2
aI19
aI2
aa(lp138
V0021400633
p139
aVJAN 21, 2015
p140
aVOKC @ WAS
p141
aVW
p142
aI42
aI12
aI28
aF0.429
aI0
aI4
aF0.0
aI8
aI10
aF0.8
aI2
aI6
aI8
aI8
aI1
aI0
aI3
aI4
aI32
aI1
aa(lp143
V0021400642
p144
aVJAN 23, 2015
p145
aVOKC @ ATL
p146
aVL
p147
aI36
aI8
aI16
aF0.5
aI2
aI4
aF0.5
aI4
aI6
aF0.667
aI1
aI2
aI3
aI11
aI3
aI0
aI4
aI3
aI22
aI-6
aa(lp148
V0021400658
p149
aVJAN 25, 2015
p150
aVOKC @ CLE
p151
aVL
p152
aI40
aI7
aI26
aF0.269
aI3
aI6
aF0.5
aI5
aI7
aF0.714
aI4
aI5
aI9
aI11
aI2
aI1
aI2
aI3
aI22
aI3
aa(lp153
V0021400672
p154
aVJAN 26, 2015
p155
aVOKC vs. MIN
p156
aVW
p157
aI31
aI7
aI22
aF0.318
aI0
aI3
aF0.0
aI4
aI6
aF0.667
aI1
aI3
aI4
aI5
aI1
aI0
aI4
aI2
aI18
aI0
aa(lp158
V0021400688
p159
aVJAN 28, 2015
p160
aVOKC @ NYK
p161
aVL
p162
aI35
aI13
aI30
aF0.433
aI2
aI8
aF0.25
aI12
aI12
aF1.0
aI0
aI4
aI4
aI4
aI2
aI1
aI4
aI1
aI40
aI-15
aa(lp163
V0021400710
p164
aVJAN 31, 2015
p165
aVOKC @ MEM
p166
aVL
p167
aI32
aI5
aI16
aF0.313
aI1
aI3
aF0.333
aI3
aI4
aF0.75
aI1
aI5
aI6
aI5
aI0
aI0
aI3
aI4
aI14
aI-7
aa(lp168
V0021400723
p169
aVFEB 02, 2015
p170
aVOKC vs. ORL
p171
aVW
p172
aI38
aI8
aI15
aF0.533
aI1
aI3
aF0.333
aI8
aI8
aF1.0
aI1
aI10
aI11
aI14
aI4
aI1
aI2
aI1
aI25
aI3
aa(lp173
V0021400738
p174
aVFEB 04, 2015
p175
aVOKC @ NOP
p176
aVW
p177
aI40
aI18
aI31
aF0.581
aI2
aI6
aF0.333
aI7
aI9
aF0.778
aI0
aI6
aI6
aI6
aI1
aI1
aI6
aI2
aI45
aI16
aa(lp178
V0021400755
p179
aVFEB 06, 2015
p180
aVOKC vs. NOP
p181
aVL
p182
aI40
aI15
aI28
aF0.536
aI3
aI5
aF0.6
aI15
aI15
aF1.0
aI3
aI6
aI9
aI11
aI4
aI0
aI3
aI4
aI48
aI5
aa(lp183
V0021400765
p184
aVFEB 08, 2015
p185
aVOKC vs. LAC
p186
aVW
p187
aI32
aI6
aI19
aF0.316
aI1
aI4
aF0.25
aI6
aI6
aF1.0
aI2
aI9
aI11
aI5
aI1
aI0
aI5
aI2
aI19
aI18
aa(lp188
V0021400782
p189
aVFEB 09, 2015
p190
aVOKC @ DEN
p191
aVW
p192
aI32
aI8
aI14
aF0.571
aI1
aI2
aF0.5
aI9
aI12
aF0.75
aI1
aI4
aI5
aI9
aI0
aI0
aI1
aI1
aI26
aI11
aa(lp193
V0021400795
p194
aVFEB 11, 2015
p195
aVOKC vs. MEM
p196
aVW
p197
aI32
aI4
aI15
aF0.267
aI1
aI3
aF0.333
aI15
aI15
aF1.0
aI1
aI8
aI9
aI9
aI1
aI0
aI4
aI1
aI24
aI21
aa(lp198
V0021400801
p199
aVFEB 19, 2015
p200
aVOKC vs. DAL
p201
aVW
p202
aI36
aI9
aI17
aF0.529
aI2
aI4
aF0.5
aI14
aI14
aF1.0
aI2
aI3
aI5
aI10
aI2
aI0
aI6
aI3
aI34
aI17
aa(lp203
V0021400816
p204
aVFEB 21, 2015
p205
aVOKC @ CHA
p206
aVW
p207
aI35
aI12
aI27
aF0.444
aI0
aI3
aF0.0
aI9
aI9
aF1.0
aI2
aI5
aI7
aI10
aI1
aI0
aI6
aI2
aI33
aI2
aa(lp208
V0021400826
p209
aVFEB 22, 2015
p210
aVOKC vs. DEN
p211
aVW
p212
aI27
aI8
aI12
aF0.667
aI2
aI3
aF0.667
aI3
aI5
aF0.6
aI1
aI7
aI8
aI17
aI0
aI0
aI2
aI1
aI21
aI33
aa(lp213
V0021400840
p214
aVFEB 24, 2015
p215
aVOKC vs. IND
p216
aVW
p217
aI28
aI8
aI19
aF0.421
aI1
aI3
aF0.333
aI3
aI3
aF1.0
aI0
aI11
aI11
aI10
aI1
aI0
aI5
aI1
aI20
aI0
aa(lp218
V0021400855
p219
aVFEB 26, 2015
p220
aVOKC @ PHX
p221
aVL
p222
aI43
aI12
aI38
aF0.316
aI1
aI10
aF0.1
aI14
aI16
aF0.875
aI3
aI11
aI14
aI11
aI3
aI0
aI4
aI3
aI39
aI4
aa(lp223
V0021400869
p224
aVFEB 27, 2015
p225
aVOKC @ POR
p226
aVL
p227
aI37
aI14
aI32
aF0.438
aI0
aI1
aF0.0
aI12
aI14
aF0.857
aI5
aI8
aI13
aI11
aI1
aI0
aI6
aI1
aI40
aI-12
aa(lp228
V0021400904
p229
aVMAR 04, 2015
p230
aVOKC vs. PHI
p231
aVW
p232
aI42
aI16
aI33
aF0.485
aI1
aI4
aF0.25
aI16
aI20
aF0.8
aI3
aI12
aI15
aI10
aI3
aI1
aI4
aI3
aI49
aI-12
aa(lp233
V0021400909
p234
aVMAR 05, 2015
p235
aVOKC @ CHI
p236
aVL
p237
aI38
aI14
aI32
aF0.438
aI3
aI5
aF0.6
aI12
aI15
aF0.8
aI2
aI6
aI8
aI7
aI2
aI0
aI5
aI3
aI43
aI-8
aa(lp238
V0021400936
p239
aVMAR 08, 2015
p240
aVOKC vs. TOR
p241
aVW
p242
aI40
aI9
aI21
aF0.429
aI1
aI4
aF0.25
aI11
aI13
aF0.846
aI3
aI8
aI11
aI17
aI4
aI1
aI9
aI1
aI30
aI5
aa(lp243
V0021400957
p244
aVMAR 11, 2015
p245
aVOKC vs. LAC
p246
aVL
p247
aI36
aI5
aI14
aF0.357
aI3
aI6
aF0.5
aI11
aI13
aF0.846
aI2
aI7
aI9
aI7
aI2
aI0
aI10
aI4
aI24
aI-22
aa(lp248
V0021400971
p249
aVMAR 13, 2015
p250
aVOKC vs. MIN
p251
aVW
p252
aI35
aI11
aI24
aF0.458
aI3
aI6
aF0.5
aI4
aI4
aF1.0
aI4
aI6
aI10
aI12
aI2
aI0
aI8
aI1
aI29
aI18
aa(lp253
V0021400982
p254
aVMAR 15, 2015
p255
aVOKC vs. CHI
p256
aVW
p257
aI41
aI12
aI27
aF0.444
aI2
aI6
aF0.333
aI10
aI13
aF0.769
aI1
aI10
aI11
aI6
aI1
aI0
aI4
aI1
aI36
aI13
aa(lp258
V0021400996
p259
aVMAR 16, 2015
p260
aVOKC @ DAL
p261
aVL
p262
aI36
aI7
aI17
aF0.412
aI1
aI4
aF0.25
aI9
aI10
aF0.9
aI1
aI7
aI8
aI12
aI4
aI1
aI7
aI6
aI24
aI-3
aa(lp263
V0021401011
p264
aVMAR 18, 2015
p265
aVOKC vs. BOS
p266
aVW
p267
aI40
aI8
aI26
aF0.308
aI1
aI6
aF0.167
aI19
aI22
aF0.864
aI2
aI3
aI5
aI10
aI5
aI0
aI7
aI5
aI36
aI7
aa(lp268
V0021401026
p269
aVMAR 20, 2015
p270
aVOKC vs. ATL
p271
aVW
p272
aI44
aI8
aI24
aF0.333
aI3
aI6
aF0.5
aI17
aI17
aF1.0
aI2
aI8
aI10
aI14
aI1
aI0
aI6
aI3
aI36
aI14
aa(lp273
V0021401038
p274
aVMAR 22, 2015
p275
aVOKC vs. MIA
p276
aVW
p277
aI34
aI5
aI16
aF0.313
aI1
aI4
aF0.25
aI1
aI2
aF0.5
aI3
aI6
aI9
aI17
aI4
aI2
aI5
aI3
aI12
aI11
aa(lp278
V0021401056
p279
aVMAR 24, 2015
p280
aVOKC vs. LAL
p281
aVW
p282
aI30
aI9
aI17
aF0.529
aI2
aI3
aF0.667
aI7
aI8
aF0.875
aI0
aI2
aI2
aI11
aI2
aI1
aI2
aI3
aI27
aI12
aa(lp283
V0021401071
p284
aVMAR 25, 2015
p285
aVOKC @ SAS
p286
aVL
p287
aI26
aI5
aI16
aF0.313
aI0
aI3
aF0.0
aI6
aI6
aF1.0
aI1
aI3
aI4
aI7
aI2
aI0
aI4
aI1
aI16
aI-30
aa(lp288
V0021401090
p289
aVMAR 28, 2015
p290
aVOKC @ UTA
p291
aVL
p292
aI41
aI12
aI29
aF0.414
aI3
aI9
aF0.333
aI10
aI12
aF0.833
aI1
aI7
aI8
aI6
aI0
aI0
aI9
aI4
aI37
aI0
aa(lp293
V0021401100
p294
aVMAR 29, 2015
p295
aVOKC @ PHX
p296
aVW
p297
aI38
aI10
aI29
aF0.345
aI1
aI7
aF0.143
aI12
aI14
aF0.857
aI2
aI7
aI9
aI7
aI3
aI1
aI4
aI3
aI33
aI8
aa(lp298
V0021401120
p299
aVAPR 01, 2015
p300
aVOKC vs. DAL
p301
aVL
p302
aI44
aI10
aI32
aF0.313
aI2
aI11
aF0.182
aI9
aI11
aF0.818
aI3
aI8
aI11
aI11
aI1
aI0
aI6
aI4
aI31
aI-3
aa(lp303
V0021401132
p304
aVAPR 03, 2015
p305
aVOKC @ MEM
p306
aVL
p307
aI38
aI5
aI20
aF0.25
aI0
aI3
aF0.0
aI8
aI13
aF0.615
aI3
aI4
aI7
aI7
aI1
aI1
aI5
aI2
aI18
aI-10
aa(lp308
V0021401147
p309
aVAPR 05, 2015
p310
aVOKC vs. HOU
p311
aVL
p312
aI41
aI12
aI29
aF0.414
aI4
aI11
aF0.364
aI12
aI15
aF0.8
aI1
aI10
aI11
aI13
aI0
aI0
aI4
aI5
aI40
aI2
aa(lp313
V0021401157
p314
aVAPR 07, 2015
p315
aVOKC vs. SAS
p316
aVL
p317
aI26
aI7
aI16
aF0.438
aI1
aI2
aF0.5
aI2
aI4
aF0.5
aI0
aI2
aI2
aI2
aI6
aI0
aI4
aI3
aI17
aI-20
aa(lp318
V0021401183
p319
aVAPR 10, 2015
p320
aVOKC vs. SAC
p321
aVW
p322
aI38
aI11
aI19
aF0.579
aI1
aI4
aF0.25
aI4
aI4
aF1.0
aI1
aI4
aI5
aI10
aI0
aI0
aI4
aI3
aI27
aI12
aa(lp323
V0021401197
p324
aVAPR 12, 2015
p325
aVOKC @ IND
p326
aVL
p327
aI40
aI21
aI43
aF0.488
aI5
aI15
aF0.333
aI7
aI11
aF0.636
aI1
aI8
aI9
aI8
aI1
aI0
aI2
aI5
aI54
aI-4
aa(lp328
V0021401209
p329
aVAPR 13, 2015
p330
aVOKC vs. POR
p331
aVW
p332
aI38
aI13
aI27
aF0.481
aI2
aI5
aF0.4
aI8
aI8
aF1.0
aI2
aI9
aI11
aI7
aI2
aI0
aI5
aI5
aI36
aI16
aa(lp333
V0021401222
p334
aVAPR 15, 2015
p335
aVOKC @ MIN
p336
aVW
p337
aI32
aI11
aI20
aF0.55
aI2
aI5
aF0.4
aI13
aI17
aF0.765
aI0
aI8
aI8
aI7
aI2
aI0
aI4
aI2
aI37
aI23
aasS'name'
p338
VRussell Westbrook
p339
sS'weight'
p340
V200
p341
sS'age'
p342
I26
sS'experience'
p343
I6
sS'height'
p344
V6-3
p345
sS'position'
p346
VGuard
p347
s.