(dp0
S'stats'
p1
(lp2
(lp3
V0021400015
p4
aVOCT 29, 2014
p5
aVPOR vs. OKC
p6
aVW
p7
aI35
aI8
aI12
aF0.667
aI5
aI9
aF0.556
aI1
aI2
aF0.5
aI1
aI3
aI4
aI2
aI0
aI1
aI0
aI3
aI22
aI3
aa(lp8
V0021400025
p9
aVOCT 31, 2014
p10
aVPOR @ SAC
p11
aVL
p12
aI37
aI7
aI14
aF0.5
aI1
aI7
aF0.143
aI1
aI1
aF1.0
aI3
aI2
aI5
aI1
aI1
aI0
aI1
aI3
aI16
aI-10
aa(lp13
V0021400042
p14
aVNOV 02, 2014
p15
aVPOR vs. GSW
p16
aVL
p17
aI33
aI7
aI15
aF0.467
aI3
aI9
aF0.333
aI1
aI2
aF0.5
aI0
aI3
aI3
aI1
aI2
aI0
aI2
aI2
aI18
aI-6
aa(lp18
V0021400055
p19
aVNOV 04, 2014
p20
aVPOR vs. CLE
p21
aVW
p22
aI36
aI8
aI14
aF0.571
aI3
aI8
aF0.375
aI2
aI3
aF0.667
aI1
aI5
aI6
aI2
aI0
aI0
aI2
aI4
aI21
aI27
aa(lp23
V0021400070
p24
aVNOV 06, 2014
p25
aVPOR vs. DAL
p26
aVW
p27
aI25
aI3
aI6
aF0.5
aI2
aI5
aF0.4
aI4
aI4
aF1.0
aI0
aI4
aI4
aI0
aI1
aI0
aI2
aI1
aI12
aI4
aa(lp28
V0021400082
p29
aVNOV 08, 2014
p30
aVPOR @ LAC
p31
aVL
p32
aI33
aI5
aI11
aF0.455
aI2
aI5
aF0.4
aI2
aI2
aF1.0
aI0
aI1
aI1
aI3
aI1
aI0
aI1
aI3
aI14
aI-2
aa(lp33
V0021400096
p34
aVNOV 09, 2014
p35
aVPOR vs. DEN
p36
aVW
p37
aI35
aI8
aI19
aF0.421
aI5
aI13
aF0.385
aI0
aI2
aF0.0
aI1
aI5
aI6
aI3
aI1
aI1
aI0
aI3
aI21
aI21
aa(lp38
V0021400107
p39
aVNOV 11, 2014
p40
aVPOR vs. CHA
p41
aVW
p42
aI36
aI5
aI15
aF0.333
aI2
aI9
aF0.222
aI4
aI5
aF0.8
aI1
aI2
aI3
aI7
aI1
aI0
aI1
aI1
aI16
aI6
aa(lp43
V0021400115
p44
aVNOV 12, 2014
p45
aVPOR @ DEN
p46
aVW
p47
aI25
aI4
aI10
aF0.4
aI2
aI6
aF0.333
aI2
aI3
aF0.667
aI2
aI3
aI5
aI5
aI1
aI0
aI1
aI1
aI12
aI12
aa(lp48
V0021400138
p49
aVNOV 15, 2014
p50
aVPOR vs. BKN
p51
aVW
p52
aI33
aI3
aI13
aF0.231
aI2
aI7
aF0.286
aI2
aI2
aF1.0
aI1
aI4
aI5
aI3
aI0
aI1
aI2
aI3
aI10
aI-3
aa(lp53
V0021400153
p54
aVNOV 17, 2014
p55
aVPOR vs. NOP
p56
aVW
p57
aI36
aI7
aI13
aF0.538
aI2
aI6
aF0.333
aI0
aI3
aF0.0
aI1
aI4
aI5
aI2
aI0
aI0
aI3
aI5
aI16
aI2
aa(lp58
V0021400183
p59
aVNOV 21, 2014
p60
aVPOR vs. CHI
p61
aVW
p62
aI27
aI5
aI8
aF0.625
aI0
aI1
aF0.0
aI2
aI3
aF0.667
aI0
aI3
aI3
aI4
aI2
aI0
aI5
aI2
aI12
aI33
aa(lp63
V0021400194
p64
aVNOV 23, 2014
p65
aVPOR @ BOS
p66
aVW
p67
aI36
aI4
aI7
aF0.571
aI2
aI3
aF0.667
aI0
aI0
aF0.0
aI1
aI4
aI5
aI3
aI1
aI0
aI2
aI1
aI10
aI2
aa(lp68
V0021400200
p69
aVNOV 24, 2014
p70
aVPOR @ PHI
p71
aVW
p72
aI33
aI6
aI16
aF0.375
aI2
aI8
aF0.25
aI3
aI4
aF0.75
aI0
aI4
aI4
aI3
aI1
aI0
aI2
aI1
aI17
aI1
aa(lp73
V0021400210
p74
aVNOV 26, 2014
p75
aVPOR @ CHA
p76
aVW
p77
aI34
aI10
aI15
aF0.667
aI6
aI9
aF0.667
aI2
aI2
aF1.0
aI1
aI0
aI1
aI1
aI0
aI0
aI2
aI3
aI28
aI8
aa(lp78
V0021400233
p79
aVNOV 28, 2014
p80
aVPOR vs. MEM
p81
aVL
p82
aI36
aI9
aI16
aF0.563
aI7
aI12
aF0.583
aI1
aI2
aF0.5
aI1
aI3
aI4
aI3
aI0
aI0
aI0
aI1
aI26
aI0
aa(lp83
V0021400247
p84
aVNOV 30, 2014
p85
aVPOR vs. MIN
p86
aVW
p87
aI33
aI8
aI13
aF0.615
aI6
aI10
aF0.6
aI1
aI2
aF0.5
aI2
aI4
aI6
aI2
aI0
aI0
aI3
aI4
aI23
aI8
aa(lp88
V0021400259
p89
aVDEC 02, 2014
p90
aVPOR @ DEN
p91
aVW
p92
aI36
aI5
aI15
aF0.333
aI1
aI10
aF0.1
aI4
aI4
aF1.0
aI0
aI2
aI2
aI1
aI2
aI0
aI1
aI2
aI15
aI0
aa(lp93
V0021400274
p94
aVDEC 04, 2014
p95
aVPOR vs. IND
p96
aVW
p97
aI34
aI6
aI14
aF0.429
aI0
aI5
aF0.0
aI0
aI0
aF0.0
aI0
aI0
aI0
aI0
aI1
aI0
aI1
aI1
aI12
aI1
aa(lp98
V0021400299
p99
aVDEC 07, 2014
p100
aVPOR @ NYK
p101
aVW
p102
aI34
aI5
aI11
aF0.455
aI3
aI6
aF0.5
aI5
aI8
aF0.625
aI1
aI1
aI2
aI3
aI3
aI0
aI2
aI4
aI18
aI8
aa(lp103
V0021400309
p104
aVDEC 09, 2014
p105
aVPOR @ DET
p106
aVW
p107
aI35
aI8
aI12
aF0.667
aI3
aI6
aF0.5
aI0
aI0
aF0.0
aI0
aI5
aI5
aI5
aI1
aI0
aI1
aI1
aI19
aI18
aa(lp108
V0021400321
p109
aVDEC 10, 2014
p110
aVPOR @ MIN
p111
aVL
p112
aI35
aI7
aI13
aF0.538
aI4
aI10
aF0.4
aI0
aI0
aF0.0
aI0
aI2
aI2
aI0
aI1
aI0
aI2
aI6
aI18
aI-2
aa(lp113
V0021400328
p114
aVDEC 12, 2014
p115
aVPOR @ CHI
p116
aVL
p117
aI37
aI4
aI8
aF0.5
aI1
aI3
aF0.333
aI1
aI2
aF0.5
aI1
aI3
aI4
aI0
aI0
aI1
aI1
aI1
aI10
aI-6
aa(lp118
V0021400342
p119
aVDEC 13, 2014
p120
aVPOR @ IND
p121
aVW
p122
aI34
aI4
aI11
aF0.364
aI2
aI6
aF0.333
aI2
aI3
aF0.667
aI0
aI4
aI4
aI1
aI1
aI0
aI1
aI1
aI12
aI10
aa(lp123
V0021400361
p124
aVDEC 15, 2014
p125
aVPOR vs. SAS
p126
aVW
p127
aI35
aI5
aI10
aF0.5
aI3
aI5
aF0.6
aI1
aI2
aF0.5
aI0
aI1
aI1
aI0
aI3
aI0
aI1
aI2
aI14
aI2
aa(lp128
V0021400376
p129
aVDEC 17, 2014
p130
aVPOR vs. MIL
p131
aVW
p132
aI32
aI5
aI8
aF0.625
aI1
aI4
aF0.25
aI0
aI0
aF0.0
aI0
aI3
aI3
aI1
aI0
aI0
aI1
aI2
aI11
aI-1
aa(lp133
V0021400390
p134
aVDEC 19, 2014
p135
aVPOR @ SAS
p136
aVW
p137
aI50
aI5
aI19
aF0.263
aI2
aI9
aF0.222
aI4
aI4
aF1.0
aI3
aI4
aI7
aI5
aI3
aI0
aI0
aI2
aI16
aI8
aa(lp138
V0021400394
p139
aVDEC 20, 2014
p140
aVPOR @ NOP
p141
aVW
p142
aI22
aI3
aI8
aF0.375
aI3
aI8
aF0.375
aI0
aI0
aF0.0
aI0
aI2
aI2
aI0
aI1
aI0
aI3
aI0
aI9
aI24
aa(lp143
V0021400411
p144
aVDEC 22, 2014
p145
aVPOR @ HOU
p146
aVL
p147
aI26
aI5
aI10
aF0.5
aI3
aI5
aF0.6
aI1
aI1
aF1.0
aI1
aI2
aI3
aI2
aI0
aI0
aI0
aI4
aI14
aI-13
aa(lp148
V0021400424
p149
aVDEC 23, 2014
p150
aVPOR @ OKC
p151
aVW
p152
aI42
aI8
aI15
aF0.533
aI5
aI8
aF0.625
aI1
aI1
aF1.0
aI0
aI2
aI2
aI2
aI1
aI0
aI1
aI2
aI22
aI12
aa(lp153
V0021400441
p154
aVDEC 26, 2014
p155
aVPOR vs. PHI
p156
aVW
p157
aI28
aI9
aI18
aF0.5
aI7
aI14
aF0.5
aI0
aI0
aF0.0
aI0
aI1
aI1
aI2
aI1
aI0
aI1
aI0
aI25
aI19
aa(lp158
V0021400456
p159
aVDEC 28, 2014
p160
aVPOR vs. NYK
p161
aVW
p162
aI32
aI10
aI21
aF0.476
aI6
aI15
aF0.4
aI2
aI2
aF1.0
aI0
aI4
aI4
aI5
aI0
aI1
aI0
aI2
aI28
aI20
aa(lp163
V0021400473
p164
aVDEC 30, 2014
p165
aVPOR vs. TOR
p166
aVW
p167
aI42
aI7
aI14
aF0.5
aI5
aI10
aF0.5
aI0
aI0
aF0.0
aI2
aI4
aI6
aI3
aI0
aI0
aI3
aI3
aI19
aI3
aa(lp168
V0021400501
p169
aVJAN 03, 2015
p170
aVPOR vs. ATL
p171
aVL
p172
aI34
aI5
aI14
aF0.357
aI4
aI10
aF0.4
aI5
aI5
aF1.0
aI1
aI0
aI1
aI3
aI1
aI0
aI0
aI2
aI19
aI9
aa(lp173
V0021400517
p174
aVJAN 05, 2015
p175
aVPOR vs. LAL
p176
aVW
p177
aI30
aI1
aI9
aF0.111
aI1
aI6
aF0.167
aI2
aI2
aF1.0
aI0
aI1
aI1
aI1
aI2
aI0
aI2
aI0
aI5
aI4
aa(lp178
V0021400537
p179
aVJAN 08, 2015
p180
aVPOR vs. MIA
p181
aVW
p182
aI30
aI6
aI10
aF0.6
aI3
aI5
aF0.6
aI3
aI4
aF0.75
aI0
aI2
aI2
aI5
aI1
aI1
aI1
aI1
aI18
aI22
aa(lp183
V0021400557
p184
aVJAN 10, 2015
p185
aVPOR vs. ORL
p186
aVW
p187
aI34
aI6
aI9
aF0.667
aI4
aI6
aF0.667
aI2
aI3
aF0.667
aI0
aI8
aI8
aI3
aI4
aI0
aI2
aI1
aI18
aI13
aa(lp188
V0021400562
p189
aVJAN 11, 2015
p190
aVPOR @ LAL
p191
aVW
p192
aI35
aI6
aI11
aF0.545
aI3
aI7
aF0.429
aI1
aI2
aF0.5
aI0
aI0
aI0
aI5
aI2
aI0
aI3
aI3
aI16
aI5
aa(lp193
V0021400583
p194
aVJAN 14, 2015
p195
aVPOR vs. LAC
p196
aVL
p197
aI35
aI3
aI13
aF0.231
aI2
aI8
aF0.25
aI0
aI0
aF0.0
aI2
aI3
aI5
aI0
aI1
aI0
aI0
aI5
aI8
aI-13
aa(lp198
V0021400595
p199
aVJAN 16, 2015
p200
aVPOR @ SAS
p201
aVL
p202
aI29
aI1
aI4
aF0.25
aI0
aI3
aF0.0
aI0
aI0
aF0.0
aI0
aI1
aI1
aI2
aI1
aI0
aI2
aI2
aI2
aI-13
aa(lp203
V0021400604
p204
aVJAN 17, 2015
p205
aVPOR @ MEM
p206
aVL
p207
aI39
aI9
aI18
aF0.5
aI7
aI14
aF0.5
aI0
aI0
aF0.0
aI0
aI4
aI4
aI1
aI0
aI0
aI0
aI2
aI25
aI-1
aa(lp208
V0021400621
p209
aVJAN 19, 2015
p210
aVPOR vs. SAC
p211
aVW
p212
aI37
aI7
aI20
aF0.35
aI2
aI12
aF0.167
aI1
aI2
aF0.5
aI0
aI3
aI3
aI1
aI3
aI0
aI1
aI2
aI17
aI4
aa(lp213
V0021400634
p214
aVJAN 21, 2015
p215
aVPOR @ PHX
p216
aVL
p217
aI36
aI8
aI17
aF0.471
aI2
aI5
aF0.4
aI4
aI4
aF1.0
aI0
aI6
aI6
aI2
aI2
aI0
aI2
aI4
aI22
aI3
aa(lp218
V0021400639
p219
aVJAN 22, 2015
p220
aVPOR vs. BOS
p221
aVL
p222
aI37
aI6
aI15
aF0.4
aI4
aI8
aF0.5
aI2
aI3
aF0.667
aI0
aI3
aI3
aI0
aI2
aI1
aI1
aI1
aI18
aI2
aa(lp223
V0021400656
p224
aVJAN 24, 2015
p225
aVPOR vs. WAS
p226
aVW
p227
aI35
aI7
aI19
aF0.368
aI5
aI11
aF0.455
aI0
aI0
aF0.0
aI0
aI3
aI3
aI3
aI1
aI0
aI0
aI2
aI19
aI7
aa(lp228
V0021400681
p229
aVJAN 28, 2015
p230
aVPOR @ CLE
p231
aVL
p232
aI33
aI4
aI10
aF0.4
aI3
aI8
aF0.375
aI0
aI1
aF0.0
aI1
aI1
aI2
aI2
aI1
aI0
aI2
aI3
aI11
aI-9
aa(lp233
V0021400697
p234
aVJAN 30, 2015
p235
aVPOR @ ATL
p236
aVL
p237
aI38
aI4
aI13
aF0.308
aI3
aI9
aF0.333
aI5
aI6
aF0.833
aI0
aI1
aI1
aI3
aI0
aI0
aI2
aI3
aI16
aI-6
aa(lp238
V0021400712
p239
aVJAN 31, 2015
p240
aVPOR @ MIL
p241
aVL
p242
aI34
aI7
aI15
aF0.467
aI4
aI7
aF0.571
aI1
aI3
aF0.333
aI1
aI3
aI4
aI3
aI2
aI1
aI2
aI3
aI19
aI-1
aa(lp243
V0021400729
p244
aVFEB 03, 2015
p245
aVPOR vs. UTA
p246
aVW
p247
aI35
aI6
aI10
aF0.6
aI3
aI5
aF0.6
aI6
aI7
aF0.857
aI1
aI2
aI3
aI2
aI3
aI0
aI3
aI2
aI21
aI-13
aa(lp248
V0021400745
p249
aVFEB 05, 2015
p250
aVPOR vs. PHX
p251
aVW
p252
aI32
aI5
aI15
aF0.333
aI2
aI8
aF0.25
aI2
aI2
aF1.0
aI0
aI8
aI8
aI3
aI0
aI0
aI1
aI1
aI14
aI12
aa(lp253
V0021400762
p254
aVFEB 07, 2015
p255
aVPOR @ DAL
p256
aVL
p257
aI40
aI7
aI14
aF0.5
aI3
aI8
aF0.375
aI0
aI2
aF0.0
aI3
aI5
aI8
aI3
aI4
aI0
aI1
aI3
aI17
aI-15
aa(lp258
V0021400771
p259
aVFEB 08, 2015
p260
aVPOR @ HOU
p261
aVW
p262
aI33
aI2
aI9
aF0.222
aI2
aI6
aF0.333
aI0
aI0
aF0.0
aI0
aI3
aI3
aI2
aI2
aI0
aI0
aI2
aI6
aI7
aa(lp263
V0021400798
p264
aVFEB 11, 2015
p265
aVPOR vs. LAL
p266
aVW
p267
aI29
aI7
aI14
aF0.5
aI3
aI7
aF0.429
aI3
aI3
aF1.0
aI2
aI3
aI5
aI3
aI2
aI0
aI1
aI3
aI20
aI9
aa(lp268
V0021400812
p269
aVFEB 20, 2015
p270
aVPOR @ UTA
p271
aVL
p272
aI32
aI4
aI9
aF0.444
aI1
aI5
aF0.2
aI4
aI4
aF1.0
aI0
aI7
aI7
aI2
aI1
aI0
aI0
aI0
aI13
aI-9
aa(lp273
V0021400828
p274
aVFEB 22, 2015
p275
aVPOR vs. MEM
p276
aVL
p277
aI36
aI0
aI7
aF0.0
aI0
aI4
aF0.0
aI4
aI4
aF1.0
aI0
aI2
aI2
aI3
aI1
aI0
aI2
aI2
aI4
aI-9
aa(lp278
V0021400853
p279
aVFEB 25, 2015
p280
aVPOR vs. SAS
p281
aVW
p282
aI34
aI11
aI18
aF0.611
aI4
aI10
aF0.4
aI5
aI7
aF0.714
aI2
aI3
aI5
aI3
aI3
aI0
aI0
aI2
aI31
aI23
aa(lp283
V0021400869
p284
aVFEB 27, 2015
p285
aVPOR vs. OKC
p286
aVW
p287
aI33
aI2
aI13
aF0.154
aI2
aI6
aF0.333
aI2
aI2
aF1.0
aI1
aI5
aI6
aI3
aI3
aI1
aI1
aI1
aI8
aI3
aa(lp288
V0021400879
p289
aVMAR 01, 2015
p290
aVPOR @ SAC
p291
aVW
p292
aI33
aI6
aI8
aF0.75
aI3
aI5
aF0.6
aI2
aI2
aF1.0
aI0
aI4
aI4
aI1
aI1
aI1
aI0
aI3
aI17
aI4
aa(lp293
V0021400908
p294
aVMAR 04, 2015
p295
aVPOR @ LAC
p296
aVW
p297
aI39
aI3
aI9
aF0.333
aI2
aI8
aF0.25
aI4
aI6
aF0.667
aI0
aI8
aI8
aI2
aI2
aI0
aI2
aI5
aI12
aI8
aa(lp298
V0021400910
p299
aVMAR 05, 2015
p300
aVPOR vs. DAL
p301
aVW
p302
aI18
aI1
aI5
aF0.2
aI0
aI3
aF0.0
aI2
aI2
aF1.0
aI0
aI1
aI1
aI3
aI2
aI0
aI2
aI0
aI4
aI11
aasS'name'
p303
VWesley Matthews
p304
sS'weight'
p305
V220
p306
sS'age'
p307
I28
sS'experience'
p308
I5
sS'height'
p309
V6-5
p310
sS'position'
p311
VGuard-Forward
p312
s.