(dp0
S'stats'
p1
(lp2
(lp3
V0021400080
p4
aVNOV 07, 2014
p5
aVUTA vs. DAL
p6
aVL
p7
aI4
aI0
aI1
aF0.0
aI0
aI0
aF0.0
aI0
aI0
aF0.0
aI0
aI0
aI0
aI0
aI0
aI0
aI0
aI0
aI0
aI-2
aa(lp8
V0021400099
p9
aVNOV 10, 2014
p10
aVUTA @ IND
p11
aVL
p12
aI0
aI0
aI0
aF0.0
aI0
aI0
aF0.0
aI0
aI0
aF0.0
aI0
aI0
aI0
aI0
aI0
aI0
aI0
aI0
aI0
aI-2
aa(lp13
V0021400134
p14
aVNOV 15, 2014
p15
aVUTA @ TOR
p16
aVL
p17
aI2
aI0
aI0
aF0.0
aI0
aI0
aF0.0
aI0
aI0
aF0.0
aI0
aI0
aI0
aI0
aI0
aI0
aI0
aI0
aI0
aI-5
aa(lp18
V0021400157
p19
aVNOV 18, 2014
p20
aVUTA vs. OKC
p21
aVW
p22
aI2
aI0
aI0
aF0.0
aI0
aI0
aF0.0
aI0
aI0
aF0.0
aI0
aI0
aI0
aI0
aI0
aI0
aI0
aI0
aI0
aI-4
aa(lp23
V0021400182
p24
aVNOV 21, 2014
p25
aVUTA @ GSW
p26
aVL
p27
aI4
aI1
aI1
aF1.0
aI0
aI0
aF0.0
aI0
aI0
aF0.0
aI0
aI2
aI2
aI1
aI0
aI1
aI0
aI0
aI2
aI8
aa(lp28
V0021400306
p29
aVDEC 08, 2014
p30
aVUTA @ SAC
p31
aVL
p32
aI2
aI0
aI0
aF0.0
aI0
aI0
aF0.0
aI0
aI0
aF0.0
aI0
aI0
aI0
aI0
aI0
aI0
aI0
aI0
aI0
aI1
aa(lp33
V0021400338
p34
aVDEC 12, 2014
p35
aVUTA vs. MIA
p36
aVL
p37
aI6
aI1
aI2
aF0.5
aI0
aI0
aF0.0
aI0
aI0
aF0.0
aI2
aI2
aI4
aI0
aI0
aI0
aI1
aI1
aI2
aI5
aa(lp38
V0021400350
p39
aVDEC 14, 2014
p40
aVUTA @ WAS
p41
aVL
p42
aI5
aI1
aI3
aF0.333
aI0
aI1
aF0.0
aI1
aI1
aF1.0
aI0
aI0
aI0
aI0
aI0
aI1
aI0
aI2
aI3
aI-3
aa(lp43
V0021400366
p44
aVDEC 16, 2014
p45
aVUTA @ NOP
p46
aVL
p47
aI5
aI0
aI1
aF0.0
aI0
aI0
aF0.0
aI0
aI0
aF0.0
aI1
aI0
aI1
aI0
aI0
aI0
aI0
aI1
aI0
aI-9
aa(lp48
V0021400498
p49
aVJAN 03, 2015
p50
aVUTA @ MIN
p51
aVW
p52
aI15
aI3
aI4
aF0.75
aI1
aI1
aF1.0
aI2
aI2
aF1.0
aI1
aI1
aI2
aI0
aI1
aI2
aI1
aI0
aI9
aI-2
aa(lp53
V0021400516
p54
aVJAN 05, 2015
p55
aVUTA vs. IND
p56
aVL
p57
aI3
aI0
aI1
aF0.0
aI0
aI0
aF0.0
aI0
aI0
aF0.0
aI0
aI0
aI0
aI0
aI0
aI0
aI0
aI0
aI0
aI-8
aa(lp58
V0021400528
p59
aVJAN 07, 2015
p60
aVUTA @ CHI
p61
aVW
p62
aI3
aI0
aI0
aF0.0
aI0
aI0
aF0.0
aI0
aI0
aF0.0
aI0
aI2
aI2
aI1
aI0
aI0
aI0
aI0
aI0
aI-4
aa(lp63
V0021400555
p64
aVJAN 10, 2015
p65
aVUTA @ HOU
p66
aVL
p67
aI9
aI0
aI1
aF0.0
aI0
aI0
aF0.0
aI2
aI2
aF1.0
aI2
aI4
aI6
aI1
aI2
aI1
aI0
aI1
aI2
aI2
aa(lp68
V0021400571
p69
aVJAN 13, 2015
p70
aVUTA vs. GSW
p71
aVL
p72
aI3
aI0
aI1
aF0.0
aI0
aI0
aF0.0
aI0
aI0
aF0.0
aI0
aI1
aI1
aI0
aI0
aI0
aI0
aI0
aI0
aI4
aa(lp73
V0021400610
p74
aVJAN 18, 2015
p75
aVUTA @ SAS
p76
aVL
p77
aI5
aI2
aI3
aF0.667
aI0
aI0
aF0.0
aI0
aI0
aF0.0
aI0
aI1
aI1
aI0
aI1
aI2
aI0
aI0
aI4
aI8
aa(lp78
V0021400626
p79
aVJAN 21, 2015
p80
aVUTA @ CLE
p81
aVL
p82
aI1
aI0
aI0
aF0.0
aI0
aI0
aF0.0
aI0
aI0
aF0.0
aI0
aI0
aI0
aI0
aI0
aI0
aI0
aI0
aI0
aI2
aa(lp83
V0021400655
p84
aVJAN 24, 2015
p85
aVUTA vs. BKN
p86
aVW
p87
aI2
aI0
aI1
aF0.0
aI0
aI0
aF0.0
aI0
aI0
aF0.0
aI0
aI2
aI2
aI0
aI0
aI1
aI0
aI0
aI0
aI3
aa(lp88
V0021400812
p89
aVFEB 20, 2015
p90
aVUTA vs. POR
p91
aVW
p92
aI12
aI1
aI1
aF1.0
aI0
aI0
aF0.0
aI0
aI0
aF0.0
aI1
aI2
aI3
aI1
aI0
aI0
aI0
aI0
aI2
aI23
aa(lp93
V0021400836
p94
aVFEB 23, 2015
p95
aVUTA vs. SAS
p96
aVW
p97
aI6
aI0
aI0
aF0.0
aI0
aI0
aF0.0
aI0
aI0
aF0.0
aI1
aI2
aI3
aI0
aI0
aI0
aI0
aI0
aI0
aI3
aa(lp98
V0021400851
p99
aVFEB 25, 2015
p100
aVUTA vs. LAL
p101
aVL
p102
aI4
aI1
aI1
aF1.0
aI0
aI0
aF0.0
aI0
aI0
aF0.0
aI0
aI0
aI0
aI1
aI0
aI0
aI0
aI0
aI2
aI1
aa(lp103
V0021400866
p104
aVFEB 27, 2015
p105
aVUTA @ DEN
p106
aVW
p107
aI13
aI0
aI0
aF0.0
aI0
aI0
aF0.0
aI0
aI0
aF0.0
aI1
aI0
aI1
aI1
aI0
aI1
aI0
aI3
aI0
aI-8
aa(lp108
V0021400894
p109
aVMAR 03, 2015
p110
aVUTA @ MEM
p111
aVW
p112
aI12
aI2
aI3
aF0.667
aI0
aI0
aF0.0
aI0
aI0
aF0.0
aI1
aI6
aI7
aI0
aI0
aI1
aI0
aI1
aI4
aI12
aa(lp113
V0021400898
p114
aVMAR 04, 2015
p115
aVUTA @ BOS
p116
aVL
p117
aI7
aI2
aI3
aF0.667
aI0
aI0
aF0.0
aI0
aI1
aF0.0
aI0
aI3
aI3
aI0
aI0
aI0
aI0
aI1
aI4
aI-7
aa(lp118
V0021400914
p119
aVMAR 06, 2015
p120
aVUTA @ PHI
p121
aVW
p122
aI5
aI1
aI1
aF1.0
aI0
aI0
aF0.0
aI0
aI2
aF0.0
aI0
aI0
aI0
aI1
aI0
aI1
aI0
aI1
aI2
aI-2
aa(lp123
V0021400950
p124
aVMAR 10, 2015
p125
aVUTA vs. NYK
p126
aVW
p127
aI4
aI0
aI0
aF0.0
aI0
aI0
aF0.0
aI0
aI0
aF0.0
aI0
aI0
aI0
aI0
aI0
aI0
aI0
aI3
aI0
aI-3
aa(lp128
V0021400965
p129
aVMAR 12, 2015
p130
aVUTA vs. HOU
p131
aVW
p132
aI1
aI0
aI0
aF0.0
aI0
aI0
aF0.0
aI0
aI0
aF0.0
aI0
aI0
aI0
aI0
aI0
aI0
aI0
aI0
aI0
aI0
aa(lp133
V0021400997
p134
aVMAR 16, 2015
p135
aVUTA vs. CHA
p136
aVW
p137
aI6
aI0
aI0
aF0.0
aI0
aI0
aF0.0
aI2
aI2
aF1.0
aI0
aI2
aI2
aI0
aI1
aI0
aI1
aI0
aI2
aI-5
aa(lp138
V0021401052
p139
aVMAR 23, 2015
p140
aVUTA vs. MIN
p141
aVL
p142
aI2
aI0
aI0
aF0.0
aI0
aI0
aF0.0
aI0
aI0
aF0.0
aI1
aI0
aI1
aI0
aI0
aI0
aI0
aI0
aI0
aI-3
aa(lp143
V0021401085
p144
aVMAR 27, 2015
p145
aVUTA @ DEN
p146
aVL
p147
aI12
aI0
aI0
aF0.0
aI0
aI0
aF0.0
aI2
aI2
aF1.0
aI1
aI1
aI2
aI2
aI0
aI0
aI0
aI3
aI2
aI-3
aa(lp148
V0021401090
p149
aVMAR 28, 2015
p150
aVUTA vs. OKC
p151
aVW
p152
aI7
aI2
aI2
aF1.0
aI0
aI0
aF0.0
aI0
aI0
aF0.0
aI2
aI1
aI3
aI0
aI0
aI0
aI0
aI0
aI4
aI7
aa(lp153
V0021401106
p154
aVMAR 30, 2015
p155
aVUTA @ MIN
p156
aVW
p157
aI18
aI2
aI4
aF0.5
aI0
aI1
aF0.0
aI0
aI0
aF0.0
aI2
aI3
aI5
aI0
aI0
aI0
aI0
aI4
aI4
aI-1
aa(lp158
V0021401121
p159
aVAPR 01, 2015
p160
aVUTA vs. DEN
p161
aVW
p162
aI5
aI1
aI1
aF1.0
aI0
aI0
aF0.0
aI0
aI0
aF0.0
aI1
aI0
aI1
aI0
aI0
aI0
aI0
aI1
aI2
aI-2
aa(lp163
V0021401152
p164
aVAPR 05, 2015
p165
aVUTA @ SAC
p166
aVW
p167
aI8
aI4
aI6
aF0.667
aI0
aI0
aF0.0
aI2
aI2
aF1.0
aI2
aI0
aI2
aI0
aI1
aI1
aI1
aI0
aI10
aI10
aa(lp168
V0021401170
p169
aVAPR 08, 2015
p170
aVUTA vs. SAC
p171
aVW
p172
aI9
aI0
aI0
aF0.0
aI0
aI0
aF0.0
aI4
aI4
aF1.0
aI0
aI0
aI0
aI0
aI0
aI0
aI1
aI3
aI4
aI-2
aa(lp173
V0021401185
p174
aVAPR 10, 2015
p175
aVUTA vs. MEM
p176
aVL
p177
aI10
aI1
aI2
aF0.5
aI1
aI1
aF1.0
aI0
aI0
aF0.0
aI0
aI1
aI1
aI0
aI0
aI0
aI0
aI1
aI3
aI11
aa(lp178
V0021401191
p179
aVAPR 11, 2015
p180
aVUTA @ POR
p181
aVW
p182
aI15
aI3
aI5
aF0.6
aI0
aI0
aF0.0
aI6
aI6
aF1.0
aI3
aI2
aI5
aI1
aI1
aI0
aI0
aI2
aI12
aI17
aa(lp183
V0021401210
p184
aVAPR 13, 2015
p185
aVUTA vs. DAL
p186
aVW
p187
aI16
aI0
aI1
aF0.0
aI0
aI0
aF0.0
aI1
aI2
aF0.5
aI0
aI5
aI5
aI0
aI2
aI0
aI0
aI0
aI1
aI6
aa(lp188
V0021401219
p189
aVAPR 15, 2015
p190
aVUTA @ HOU
p191
aVL
p192
aI22
aI4
aI9
aF0.444
aI0
aI1
aF0.0
aI2
aI3
aF0.667
aI4
aI2
aI6
aI3
aI2
aI0
aI0
aI1
aI10
aI-16
aasS'name'
p193
VJeremy Evans
p194
sS'weight'
p195
V200
p196
sS'age'
p197
I27
sS'experience'
p198
I4
sS'height'
p199
V6-9
p200
sS'position'
p201
VForward
p202
s.