(dp0
S'stats'
p1
(lp2
(lp3
V0021400078
p4
aVNOV 07, 2014
p5
aVOKC vs. MEM
p6
aVL
p7
aI41
aI8
aI15
aF0.533
aI1
aI6
aF0.167
aI0
aI1
aF0.0
aI1
aI2
aI3
aI0
aI0
aI1
aI1
aI4
aI17
aI5
aa(lp8
V0021400092
p9
aVNOV 09, 2014
p10
aVOKC vs. SAC
p11
aVW
p12
aI34
aI5
aI13
aF0.385
aI2
aI3
aF0.667
aI5
aI6
aF0.833
aI1
aI8
aI9
aI4
aI0
aI0
aI3
aI1
aI17
aI3
aa(lp13
V0021400105
p14
aVNOV 11, 2014
p15
aVOKC @ MIL
p16
aVL
p17
aI34
aI2
aI13
aF0.154
aI0
aI2
aF0.0
aI2
aI2
aF1.0
aI2
aI6
aI8
aI3
aI2
aI0
aI3
aI3
aI6
aI-4
aa(lp18
V0021400111
p19
aVNOV 12, 2014
p20
aVOKC @ BOS
p21
aVW
p22
aI17
aI2
aI10
aF0.2
aI0
aI5
aF0.0
aI0
aI0
aF0.0
aI0
aI1
aI1
aI1
aI0
aI0
aI0
aI3
aI4
aI-10
aa(lp23
V0021400129
p24
aVNOV 14, 2014
p25
aVOKC vs. DET
p26
aVL
p27
aI45
aI10
aI17
aF0.588
aI4
aI7
aF0.571
aI0
aI0
aF0.0
aI0
aI10
aI10
aI3
aI3
aI0
aI4
aI4
aI24
aI1
aa(lp28
V0021400144
p29
aVNOV 16, 2014
p30
aVOKC vs. HOU
p31
aVL
p32
aI25
aI2
aI5
aF0.4
aI1
aI4
aF0.25
aI0
aI0
aF0.0
aI0
aI4
aI4
aI1
aI2
aI1
aI2
aI1
aI5
aI2
aa(lp33
V0021400157
p34
aVNOV 18, 2014
p35
aVOKC @ UTA
p36
aVL
p37
aI36
aI5
aI15
aF0.333
aI3
aI7
aF0.429
aI6
aI6
aF1.0
aI0
aI4
aI4
aI4
aI1
aI1
aI0
aI3
aI19
aI-4
aa(lp38
V0021400168
p39
aVNOV 19, 2014
p40
aVOKC @ DEN
p41
aVL
p42
aI21
aI2
aI5
aF0.4
aI2
aI4
aF0.5
aI2
aI2
aF1.0
aI0
aI2
aI2
aI2
aI0
aI0
aI2
aI0
aI8
aI-14
aa(lp43
V0021400178
p44
aVNOV 21, 2014
p45
aVOKC vs. BKN
p46
aVL
p47
aI17
aI2
aI6
aF0.333
aI0
aI2
aF0.0
aI1
aI1
aF1.0
aI0
aI1
aI1
aI2
aI2
aI0
aI0
aI3
aI5
aI-11
aa(lp48
V0021400196
p49
aVNOV 23, 2014
p50
aVOKC vs. GSW
p51
aVL
p52
aI12
aI0
aI6
aF0.0
aI0
aI1
aF0.0
aI5
aI5
aF1.0
aI0
aI1
aI1
aI1
aI0
aI0
aI0
aI1
aI5
aI-6
aa(lp53
V0021400219
p54
aVNOV 26, 2014
p55
aVOKC vs. UTA
p56
aVW
p57
aI24
aI7
aI8
aF0.875
aI3
aI3
aF1.0
aI4
aI5
aF0.8
aI0
aI4
aI4
aI2
aI3
aI1
aI3
aI6
aI21
aI14
aa(lp58
V0021400229
p59
aVNOV 28, 2014
p60
aVOKC vs. NYK
p61
aVW
p62
aI22
aI3
aI5
aF0.6
aI3
aI4
aF0.75
aI4
aI4
aF1.0
aI0
aI3
aI3
aI2
aI1
aI0
aI0
aI3
aI13
aI4
aa(lp63
V0021400258
p64
aVDEC 02, 2014
p65
aVOKC @ NOP
p66
aVL
p67
aI15
aI5
aI7
aF0.714
aI1
aI2
aF0.5
aI4
aI5
aF0.8
aI0
aI5
aI5
aI0
aI1
aI0
aI0
aI1
aI15
aI6
aa(lp68
V0021400277
p69
aVDEC 05, 2014
p70
aVOKC @ PHI
p71
aVW
p72
aI30
aI6
aI7
aF0.857
aI3
aI3
aF1.0
aI0
aI0
aF0.0
aI0
aI4
aI4
aI2
aI1
aI0
aI1
aI2
aI15
aI5
aa(lp73
V0021400297
p74
aVDEC 07, 2014
p75
aVOKC @ DET
p76
aVW
p77
aI22
aI5
aI8
aF0.625
aI2
aI4
aF0.5
aI0
aI0
aF0.0
aI0
aI2
aI2
aI1
aI0
aI0
aI0
aI3
aI12
aI2
aa(lp78
V0021400312
p79
aVDEC 09, 2014
p80
aVOKC vs. MIL
p81
aVW
p82
aI16
aI2
aI7
aF0.286
aI0
aI2
aF0.0
aI2
aI2
aF1.0
aI1
aI2
aI3
aI1
aI0
aI0
aI0
aI2
aI6
aI-8
aa(lp83
V0021400326
p84
aVDEC 11, 2014
p85
aVOKC vs. CLE
p86
aVW
p87
aI19
aI3
aI9
aF0.333
aI1
aI5
aF0.2
aI2
aI2
aF1.0
aI0
aI4
aI4
aI2
aI3
aI1
aI0
aI2
aI9
aI2
aa(lp88
V0021400335
p89
aVDEC 12, 2014
p90
aVOKC @ MIN
p91
aVW
p92
aI16
aI1
aI7
aF0.143
aI0
aI6
aF0.0
aI0
aI0
aF0.0
aI0
aI2
aI2
aI2
aI0
aI0
aI0
aI1
aI2
aI-5
aa(lp93
V0021400368
p94
aVDEC 16, 2014
p95
aVOKC @ SAC
p96
aVW
p97
aI15
aI3
aI9
aF0.333
aI0
aI3
aF0.0
aI0
aI0
aF0.0
aI1
aI2
aI3
aI0
aI0
aI0
aI1
aI2
aI6
aI-3
aa(lp98
V0021400382
p99
aVDEC 18, 2014
p100
aVOKC @ GSW
p101
aVL
p102
aI14
aI1
aI2
aF0.5
aI0
aI0
aF0.0
aI2
aI2
aF1.0
aI0
aI4
aI4
aI0
aI0
aI0
aI0
aI0
aI4
aI1
aa(lp103
V0021400392
p104
aVDEC 19, 2014
p105
aVOKC @ LAL
p106
aVW
p107
aI8
aI1
aI5
aF0.2
aI0
aI1
aF0.0
aI0
aI0
aF0.0
aI0
aI1
aI1
aI0
aI0
aI0
aI0
aI1
aI2
aI-2
aa(lp108
V0021400408
p109
aVDEC 21, 2014
p110
aVOKC vs. NOP
p111
aVL
p112
aI6
aI0
aI2
aF0.0
aI0
aI1
aF0.0
aI1
aI2
aF0.5
aI0
aI0
aI0
aI0
aI0
aI0
aI0
aI0
aI1
aI-7
aa(lp113
V0021400424
p114
aVDEC 23, 2014
p115
aVOKC vs. POR
p116
aVL
p117
aI0
aI0
aI0
aF0.0
aI0
aI0
aF0.0
aI0
aI0
aF0.0
aI0
aI0
aI0
aI0
aI0
aI0
aI0
aI0
aI0
aI4
aa(lp118
V0021400438
p119
aVDEC 26, 2014
p120
aVOKC vs. CHA
p121
aVW
p122
aI21
aI1
aI4
aF0.25
aI0
aI2
aF0.0
aI4
aI4
aF1.0
aI0
aI4
aI4
aI4
aI0
aI0
aI1
aI1
aI6
aI4
aa(lp123
V0021400489
p124
aVJAN 02, 2015
p125
aVOKC vs. WAS
p126
aVW
p127
aI0
aI0
aI0
aF0.0
aI0
aI0
aF0.0
aI0
aI0
aF0.0
aI0
aI0
aI0
aI0
aI0
aI0
aI0
aI0
aI0
aI0
aa(lp128
V0021400518
p129
aVJAN 05, 2015
p130
aVOKC @ GSW
p131
aVL
p132
aI6
aI1
aI5
aF0.2
aI0
aI3
aF0.0
aI0
aI0
aF0.0
aI1
aI1
aI2
aI2
aI0
aI0
aI0
aI0
aI2
aI-4
aa(lp133
V0021400532
p134
aVJAN 07, 2015
p135
aVOKC @ SAC
p136
aVL
p137
aI4
aI1
aI1
aF1.0
aI1
aI1
aF1.0
aI0
aI0
aF0.0
aI0
aI0
aI0
aI0
aI0
aI0
aI0
aI0
aI3
aI-2
aa(lp138
V0021400584
p139
aVJAN 15, 2015
p140
aVOKC @ HOU
p141
aVL
p142
aI3
aI1
aI2
aF0.5
aI1
aI2
aF0.5
aI0
aI0
aF0.0
aI0
aI2
aI2
aI1
aI0
aI0
aI0
aI0
aI3
aI6
aa(lp143
V0021400593
p144
aVJAN 16, 2015
p145
aVOKC vs. GSW
p146
aVW
p147
aI1
aI0
aI2
aF0.0
aI0
aI2
aF0.0
aI0
aI0
aF0.0
aI0
aI0
aI0
aI0
aI0
aI0
aI0
aI0
aI0
aI-4
aa(lp148
V0021400609
p149
aVJAN 18, 2015
p150
aVOKC @ ORL
p151
aVW
p152
aI6
aI3
aI4
aF0.75
aI2
aI2
aF1.0
aI0
aI0
aF0.0
aI0
aI2
aI2
aI0
aI1
aI0
aI1
aI0
aI8
aI0
aa(lp153
V0021400642
p154
aVJAN 23, 2015
p155
aVOKC @ ATL
p156
aVL
p157
aI1
aI1
aI1
aF1.0
aI1
aI1
aF1.0
aI0
aI0
aF0.0
aI0
aI0
aI0
aI0
aI0
aI0
aI0
aI0
aI3
aI3
aa(lp158
V0021400672
p159
aVJAN 26, 2015
p160
aVOKC vs. MIN
p161
aVW
p162
aI1
aI0
aI1
aF0.0
aI0
aI0
aF0.0
aI0
aI0
aF0.0
aI0
aI0
aI0
aI0
aI0
aI0
aI0
aI0
aI0
aI-3
aa(lp163
V0021400710
p164
aVJAN 31, 2015
p165
aVOKC @ MEM
p166
aVL
p167
aI2
aI1
aI1
aF1.0
aI1
aI1
aF1.0
aI0
aI0
aF0.0
aI0
aI0
aI0
aI0
aI0
aI0
aI0
aI0
aI3
aI3
aa(lp168
V0021400765
p169
aVFEB 08, 2015
p170
aVOKC vs. LAC
p171
aVW
p172
aI9
aI2
aI3
aF0.667
aI2
aI3
aF0.667
aI0
aI0
aF0.0
aI0
aI2
aI2
aI0
aI0
aI0
aI0
aI1
aI6
aI-9
aa(lp173
V0021400795
p174
aVFEB 11, 2015
p175
aVOKC vs. MEM
p176
aVW
p177
aI2
aI1
aI1
aF1.0
aI0
aI0
aF0.0
aI0
aI0
aF0.0
aI0
aI0
aI0
aI1
aI0
aI0
aI1
aI0
aI2
aI-3
aa(lp178
V0021400801
p179
aVFEB 19, 2015
p180
aVOKC vs. DAL
p181
aVW
p182
aI5
aI1
aI3
aF0.333
aI1
aI2
aF0.5
aI0
aI0
aF0.0
aI0
aI1
aI1
aI0
aI0
aI0
aI0
aI0
aI3
aI3
aa(lp183
V0021400826
p184
aVFEB 22, 2015
p185
aVOKC vs. DEN
p186
aVW
p187
aI8
aI0
aI3
aF0.0
aI0
aI2
aF0.0
aI0
aI0
aF0.0
aI0
aI1
aI1
aI0
aI0
aI0
aI1
aI0
aI0
aI-5
aa(lp188
V0021400840
p189
aVFEB 24, 2015
p190
aVOKC vs. IND
p191
aVW
p192
aI5
aI1
aI4
aF0.25
aI0
aI1
aF0.0
aI0
aI0
aF0.0
aI0
aI1
aI1
aI0
aI0
aI0
aI0
aI0
aI2
aI-10
aa(lp193
V0021400878
p194
aVMAR 01, 2015
p195
aVOKC @ LAL
p196
aVW
p197
aI16
aI5
aI8
aF0.625
aI2
aI3
aF0.667
aI2
aI2
aF1.0
aI0
aI3
aI3
aI1
aI1
aI1
aI2
aI2
aI14
aI-9
aa(lp198
V0021400957
p199
aVMAR 11, 2015
p200
aVOKC vs. LAC
p201
aVL
p202
aI3
aI0
aI2
aF0.0
aI0
aI2
aF0.0
aI0
aI0
aF0.0
aI0
aI0
aI0
aI0
aI0
aI0
aI0
aI0
aI0
aI4
aa(lp203
V0021400971
p204
aVMAR 13, 2015
p205
aVOKC vs. MIN
p206
aVW
p207
aI2
aI0
aI0
aF0.0
aI0
aI0
aF0.0
aI0
aI0
aF0.0
aI0
aI0
aI0
aI0
aI0
aI0
aI1
aI0
aI0
aI-4
aa(lp208
V0021401038
p209
aVMAR 22, 2015
p210
aVOKC vs. MIA
p211
aVW
p212
aI4
aI0
aI1
aF0.0
aI0
aI1
aF0.0
aI0
aI0
aF0.0
aI0
aI1
aI1
aI0
aI0
aI0
aI0
aI0
aI0
aI-2
aa(lp213
V0021401056
p214
aVMAR 24, 2015
p215
aVOKC vs. LAL
p216
aVW
p217
aI11
aI0
aI5
aF0.0
aI0
aI4
aF0.0
aI0
aI0
aF0.0
aI0
aI1
aI1
aI0
aI0
aI0
aI0
aI0
aI0
aI-6
aa(lp218
V0021401071
p219
aVMAR 25, 2015
p220
aVOKC @ SAS
p221
aVL
p222
aI12
aI4
aI7
aF0.571
aI1
aI2
aF0.5
aI0
aI0
aF0.0
aI0
aI2
aI2
aI1
aI0
aI0
aI0
aI0
aI9
aI-13
aa(lp223
V0021401157
p224
aVAPR 07, 2015
p225
aVOKC vs. SAS
p226
aVL
p227
aI13
aI4
aI7
aF0.571
aI0
aI1
aF0.0
aI3
aI4
aF0.75
aI0
aI4
aI4
aI0
aI0
aI0
aI0
aI1
aI11
aI7
aa(lp228
V0021401183
p229
aVAPR 10, 2015
p230
aVOKC vs. SAC
p231
aVW
p232
aI1
aI0
aI0
aF0.0
aI0
aI0
aF0.0
aI0
aI0
aF0.0
aI0
aI0
aI0
aI0
aI0
aI0
aI0
aI0
aI0
aI-3
aa(lp233
V0021401222
p234
aVAPR 15, 2015
p235
aVOKC @ MIN
p236
aVW
p237
aI8
aI2
aI4
aF0.5
aI0
aI1
aF0.0
aI0
aI0
aF0.0
aI1
aI2
aI3
aI1
aI0
aI0
aI0
aI1
aI4
aI0
aasS'name'
p238
VJeremy Lamb
p239
sS'weight'
p240
V185
p241
sS'age'
p242
I22
sS'experience'
p243
I2
sS'height'
p244
V6-5
p245
sS'position'
p246
VGuard
p247
s.