(dp0
S'stats'
p1
(lp2
(lp3
V0021400016
p4
aVOCT 30, 2014
p5
aVORL vs. WAS
p6
aVL
p7
aI5
aI0
aI1
aF0.0
aI0
aI0
aF0.0
aI0
aI0
aF0.0
aI0
aI1
aI1
aI1
aI0
aI0
aI0
aI1
aI0
aI5
aa(lp8
V0021400029
p9
aVNOV 01, 2014
p10
aVORL vs. TOR
p11
aVL
p12
aI2
aI0
aI0
aF0.0
aI0
aI0
aF0.0
aI0
aI0
aF0.0
aI0
aI0
aI0
aI0
aI0
aI0
aI0
aI0
aI0
aI2
aa(lp13
V0021400113
p14
aVNOV 12, 2014
p15
aVORL @ NYK
p16
aVW
p17
aI19
aI3
aI9
aF0.333
aI0
aI0
aF0.0
aI2
aI2
aF1.0
aI0
aI2
aI2
aI1
aI0
aI0
aI1
aI2
aI8
aI2
aa(lp18
V0021400123
p19
aVNOV 14, 2014
p20
aVORL vs. MIL
p21
aVW
p22
aI2
aI1
aI1
aF1.0
aI1
aI1
aF1.0
aI0
aI0
aF0.0
aI0
aI0
aI0
aI0
aI0
aI0
aI0
aI0
aI3
aI1
aa(lp23
V0021400150
p24
aVNOV 17, 2014
p25
aVORL @ DET
p26
aVW
p27
aI5
aI1
aI4
aF0.25
aI0
aI0
aF0.0
aI0
aI0
aF0.0
aI0
aI1
aI1
aI1
aI0
aI0
aI0
aI0
aI2
aI1
aa(lp28
V0021400161
p29
aVNOV 19, 2014
p30
aVORL vs. LAC
p31
aVL
p32
aI16
aI5
aI9
aF0.556
aI0
aI1
aF0.0
aI0
aI0
aF0.0
aI1
aI1
aI2
aI0
aI0
aI0
aI1
aI0
aI10
aI-17
aa(lp33
V0021400172
p34
aVNOV 21, 2014
p35
aVORL @ CHA
p36
aVW
p37
aI3
aI0
aI0
aF0.0
aI0
aI0
aF0.0
aI0
aI0
aF0.0
aI0
aI0
aI0
aI0
aI0
aI0
aI0
aI0
aI0
aI2
aa(lp38
V0021400199
p39
aVNOV 24, 2014
p40
aVORL @ CLE
p41
aVL
p42
aI15
aI1
aI5
aF0.2
aI0
aI0
aF0.0
aI0
aI0
aF0.0
aI1
aI1
aI2
aI1
aI1
aI0
aI0
aI1
aI2
aI-9
aa(lp43
V0021400230
p44
aVNOV 28, 2014
p45
aVORL @ IND
p46
aVL
p47
aI2
aI0
aI0
aF0.0
aI0
aI0
aF0.0
aI0
aI0
aF0.0
aI0
aI0
aI0
aI0
aI0
aI0
aI0
aI0
aI0
aI-4
aa(lp48
V0021400272
p49
aVDEC 03, 2014
p50
aVORL @ LAC
p51
aVL
p52
aI17
aI1
aI6
aF0.167
aI0
aI1
aF0.0
aI1
aI2
aF0.5
aI0
aI5
aI5
aI0
aI0
aI1
aI0
aI1
aI3
aI-7
aa(lp53
V0021400286
p54
aVDEC 05, 2014
p55
aVORL @ UTA
p56
aVW
p57
aI9
aI1
aI3
aF0.333
aI0
aI0
aF0.0
aI0
aI0
aF0.0
aI0
aI2
aI2
aI0
aI0
aI0
aI1
aI2
aI2
aI-7
aa(lp58
V0021400292
p59
aVDEC 06, 2014
p60
aVORL @ SAC
p61
aVW
p62
aI11
aI1
aI3
aF0.333
aI0
aI0
aF0.0
aI0
aI0
aF0.0
aI0
aI2
aI2
aI1
aI0
aI0
aI1
aI2
aI2
aI1
aa(lp63
V0021400318
p64
aVDEC 10, 2014
p65
aVORL vs. WAS
p66
aVL
p67
aI2
aI0
aI1
aF0.0
aI0
aI0
aF0.0
aI0
aI0
aF0.0
aI0
aI0
aI0
aI0
aI0
aI0
aI0
aI0
aI0
aI-2
aa(lp68
V0021400371
p69
aVDEC 17, 2014
p70
aVORL @ BOS
p71
aVL
p72
aI2
aI0
aI1
aF0.0
aI0
aI0
aF0.0
aI0
aI0
aF0.0
aI0
aI0
aI0
aI0
aI0
aI0
aI0
aI0
aI0
aI-2
aa(lp73
V0021400465
p74
aVDEC 30, 2014
p75
aVORL vs. DET
p76
aVL
p77
aI7
aI3
aI5
aF0.6
aI0
aI1
aF0.0
aI0
aI1
aF0.0
aI0
aI1
aI1
aI0
aI0
aI0
aI0
aI0
aI6
aI-1
aa(lp78
V0021400530
p79
aVJAN 07, 2015
p80
aVORL @ DEN
p81
aVL
p82
aI21
aI4
aI10
aF0.4
aI3
aI4
aF0.75
aI0
aI0
aF0.0
aI2
aI2
aI4
aI1
aI1
aI0
aI0
aI0
aI11
aI12
aa(lp83
V0021400548
p84
aVJAN 09, 2015
p85
aVORL @ LAL
p86
aVL
p87
aI17
aI2
aI6
aF0.333
aI1
aI3
aF0.333
aI0
aI2
aF0.0
aI0
aI2
aI2
aI0
aI0
aI2
aI1
aI5
aI5
aI4
aa(lp88
V0021400557
p89
aVJAN 10, 2015
p90
aVORL @ POR
p91
aVL
p92
aI5
aI1
aI3
aF0.333
aI0
aI0
aF0.0
aI0
aI0
aF0.0
aI0
aI0
aI0
aI1
aI0
aI0
aI0
aI1
aI2
aI-5
aa(lp93
V0021400803
p94
aVFEB 20, 2015
p95
aVORL vs. NOP
p96
aVW
p97
aI21
aI2
aI6
aF0.333
aI1
aI2
aF0.5
aI1
aI2
aF0.5
aI0
aI0
aI0
aI0
aI0
aI0
aI1
aI1
aI6
aI6
aa(lp98
V0021400825
p99
aVFEB 22, 2015
p100
aVORL vs. PHI
p101
aVW
p102
aI4
aI2
aI4
aF0.5
aI0
aI1
aF0.0
aI1
aI1
aF1.0
aI0
aI0
aI0
aI1
aI1
aI0
aI0
aI1
aI5
aI-2
aa(lp103
V0021400858
p104
aVFEB 27, 2015
p105
aVORL @ ATL
p106
aVL
p107
aI10
aI1
aI3
aF0.333
aI0
aI2
aF0.0
aI0
aI0
aF0.0
aI0
aI4
aI4
aI0
aI0
aI0
aI0
aI2
aI2
aI-8
aa(lp108
V0021400882
p109
aVMAR 01, 2015
p110
aVORL vs. CHA
p111
aVL
p112
aI17
aI5
aI8
aF0.625
aI1
aI1
aF1.0
aI0
aI0
aF0.0
aI0
aI4
aI4
aI0
aI0
aI1
aI0
aI0
aI11
aI11
aa(lp113
V0021400897
p114
aVMAR 04, 2015
p115
aVORL vs. PHX
p116
aVL
p117
aI18
aI3
aI6
aF0.5
aI0
aI0
aF0.0
aI2
aI2
aF1.0
aI1
aI4
aI5
aI1
aI0
aI1
aI1
aI0
aI8
aI-1
aa(lp118
V0021400913
p119
aVMAR 06, 2015
p120
aVORL vs. SAC
p121
aVW
p122
aI24
aI6
aI11
aF0.545
aI1
aI2
aF0.5
aI1
aI2
aF0.5
aI3
aI1
aI4
aI1
aI0
aI0
aI1
aI3
aI14
aI-10
aa(lp123
V0021400935
p124
aVMAR 08, 2015
p125
aVORL vs. BOS
p126
aVW
p127
aI9
aI3
aI5
aF0.6
aI0
aI1
aF0.0
aI0
aI0
aF0.0
aI0
aI1
aI1
aI1
aI0
aI1
aI3
aI0
aI6
aI-10
aa(lp128
V0021400946
p129
aVMAR 10, 2015
p130
aVORL @ IND
p131
aVL
p132
aI13
aI0
aI7
aF0.0
aI0
aI1
aF0.0
aI0
aI0
aF0.0
aI1
aI1
aI2
aI0
aI1
aI2
aI0
aI0
aI0
aI-28
aa(lp133
V0021400985
p134
aVMAR 15, 2015
p135
aVORL vs. CLE
p136
aVL
p137
aI5
aI0
aI0
aF0.0
aI0
aI0
aF0.0
aI0
aI0
aF0.0
aI0
aI1
aI1
aI0
aI0
aI0
aI2
aI1
aI0
aI-15
aa(lp138
V0021401012
p139
aVMAR 18, 2015
p140
aVORL @ DAL
p141
aVL
p142
aI7
aI2
aI5
aF0.4
aI1
aI2
aF0.5
aI0
aI0
aF0.0
aI0
aI0
aI0
aI0
aI0
aI0
aI0
aI3
aI5
aI-2
aa(lp143
V0021401020
p144
aVMAR 20, 2015
p145
aVORL vs. POR
p146
aVW
p147
aI18
aI3
aI7
aF0.429
aI0
aI1
aF0.0
aI3
aI4
aF0.75
aI0
aI4
aI4
aI0
aI2
aI0
aI1
aI2
aI9
aI4
aa(lp148
V0021401044
p149
aVMAR 22, 2015
p150
aVORL vs. DEN
p151
aVL
p152
aI22
aI6
aI9
aF0.667
aI0
aI1
aF0.0
aI1
aI3
aF0.333
aI1
aI5
aI6
aI3
aI0
aI0
aI2
aI5
aI13
aI3
aa(lp153
V0021401062
p154
aVMAR 25, 2015
p155
aVORL vs. ATL
p156
aVL
p157
aI16
aI4
aI7
aF0.571
aI1
aI3
aF0.333
aI2
aI2
aF1.0
aI0
aI1
aI1
aI0
aI0
aI1
aI1
aI0
aI11
aI-6
aa(lp158
V0021401074
p159
aVMAR 27, 2015
p160
aVORL vs. DET
p161
aVL
p162
aI27
aI5
aI9
aF0.556
aI0
aI2
aF0.0
aI0
aI0
aF0.0
aI1
aI1
aI2
aI3
aI0
aI0
aI0
aI1
aI10
aI-2
aa(lp163
V0021401113
p164
aVAPR 01, 2015
p165
aVORL vs. SAS
p166
aVL
p167
aI17
aI1
aI7
aF0.143
aI0
aI3
aF0.0
aI0
aI0
aF0.0
aI0
aI2
aI2
aI1
aI0
aI1
aI1
aI1
aI2
aI-12
aa(lp168
V0021401133
p169
aVAPR 03, 2015
p170
aVORL @ MIN
p171
aVW
p172
aI5
aI0
aI0
aF0.0
aI0
aI0
aF0.0
aI0
aI0
aF0.0
aI1
aI1
aI2
aI0
aI0
aI0
aI2
aI3
aI0
aI3
aa(lp173
V0021401143
p174
aVAPR 04, 2015
p175
aVORL @ MIL
p176
aVW
p177
aI15
aI2
aI5
aF0.4
aI0
aI1
aF0.0
aI0
aI0
aF0.0
aI0
aI2
aI2
aI1
aI0
aI0
aI0
aI1
aI4
aI5
aa(lp178
V0021401161
p179
aVAPR 08, 2015
p180
aVORL vs. CHI
p181
aVW
p182
aI22
aI4
aI8
aF0.5
aI1
aI2
aF0.5
aI0
aI0
aF0.0
aI0
aI1
aI1
aI2
aI0
aI1
aI1
aI3
aI9
aI0
aa(lp183
V0021401175
p184
aVAPR 10, 2015
p185
aVORL vs. TOR
p186
aVL
p187
aI11
aI2
aI4
aF0.5
aI0
aI1
aF0.0
aI0
aI0
aF0.0
aI0
aI2
aI2
aI0
aI0
aI0
aI0
aI1
aI4
aI8
aa(lp188
V0021401187
p189
aVAPR 11, 2015
p190
aVORL vs. NYK
p191
aVL
p192
aI18
aI0
aI2
aF0.0
aI0
aI1
aF0.0
aI1
aI2
aF0.5
aI2
aI4
aI6
aI0
aI0
aI0
aI1
aI1
aI1
aI7
aa(lp193
V0021401207
p194
aVAPR 13, 2015
p195
aVORL @ MIA
p196
aVL
p197
aI4
aI0
aI0
aF0.0
aI0
aI0
aF0.0
aI0
aI0
aF0.0
aI0
aI0
aI0
aI0
aI0
aI0
aI1
aI2
aI0
aI-6
aa(lp198
V0021401224
p199
aVAPR 15, 2015
p200
aVORL @ BKN
p201
aVL
p202
aI28
aI8
aI10
aF0.8
aI2
aI3
aF0.667
aI0
aI0
aF0.0
aI3
aI6
aI9
aI1
aI0
aI1
aI1
aI5
aI18
aI-4
aasS'name'
p203
VAndrew Nicholson
p204
sS'weight'
p205
V250
p206
sS'age'
p207
I25
sS'experience'
p208
I2
sS'height'
p209
V6-9
p210
sS'position'
p211
VForward
p212
s.