(dp0
S'stats'
p1
(lp2
(lp3
V0021400001
p4
aVOCT 28, 2014
p5
aVORL @ NOP
p6
aVL
p7
aI32
aI3
aI11
aF0.273
aI2
aI4
aF0.5
aI3
aI3
aF1.0
aI1
aI2
aI3
aI2
aI0
aI0
aI4
aI2
aI11
aI-13
aa(lp8
V0021400016
p9
aVOCT 30, 2014
p10
aVORL vs. WAS
p11
aVL
p12
aI34
aI8
aI10
aF0.8
aI3
aI4
aF0.75
aI2
aI2
aF1.0
aI1
aI3
aI4
aI0
aI1
aI0
aI3
aI5
aI21
aI-2
aa(lp13
V0021400029
p14
aVNOV 01, 2014
p15
aVORL vs. TOR
p16
aVL
p17
aI23
aI6
aI10
aF0.6
aI1
aI4
aF0.25
aI5
aI7
aF0.714
aI0
aI1
aI1
aI0
aI0
aI0
aI0
aI5
aI18
aI-11
aa(lp18
V0021400053
p19
aVNOV 04, 2014
p20
aVORL @ CHI
p21
aVL
p22
aI40
aI5
aI14
aF0.357
aI2
aI5
aF0.4
aI1
aI2
aF0.5
aI1
aI2
aI3
aI2
aI0
aI0
aI0
aI1
aI13
aI-12
aa(lp23
V0021400058
p24
aVNOV 05, 2014
p25
aVORL @ PHI
p26
aVW
p27
aI28
aI4
aI10
aF0.4
aI1
aI4
aF0.25
aI1
aI1
aF1.0
aI0
aI3
aI3
aI3
aI0
aI0
aI0
aI1
aI10
aI-4
aa(lp28
V0021400072
p29
aVNOV 07, 2014
p30
aVORL vs. MIN
p31
aVW
p32
aI38
aI8
aI15
aF0.533
aI2
aI3
aF0.667
aI2
aI3
aF0.667
aI1
aI3
aI4
aI3
aI0
aI0
aI2
aI3
aI20
aI10
aa(lp33
V0021400090
p34
aVNOV 09, 2014
p35
aVORL @ BKN
p36
aVL
p37
aI33
aI6
aI9
aF0.667
aI2
aI2
aF1.0
aI5
aI8
aF0.625
aI0
aI1
aI1
aI5
aI0
aI0
aI3
aI3
aI19
aI-5
aa(lp38
V0021400103
p39
aVNOV 11, 2014
p40
aVORL @ TOR
p41
aVL
p42
aI39
aI9
aI18
aF0.5
aI4
aI7
aF0.571
aI2
aI4
aF0.5
aI0
aI2
aI2
aI2
aI3
aI0
aI1
aI2
aI24
aI4
aa(lp43
V0021400113
p44
aVNOV 12, 2014
p45
aVORL @ NYK
p46
aVW
p47
aI37
aI8
aI14
aF0.571
aI2
aI4
aF0.5
aI10
aI14
aF0.714
aI1
aI1
aI2
aI2
aI4
aI0
aI2
aI3
aI28
aI2
aa(lp48
V0021400123
p49
aVNOV 14, 2014
p50
aVORL vs. MIL
p51
aVW
p52
aI36
aI5
aI13
aF0.385
aI3
aI6
aF0.5
aI2
aI3
aF0.667
aI1
aI3
aI4
aI2
aI0
aI0
aI1
aI2
aI15
aI10
aa(lp53
V0021400132
p54
aVNOV 15, 2014
p55
aVORL @ WAS
p56
aVL
p57
aI38
aI5
aI13
aF0.385
aI2
aI4
aF0.5
aI3
aI3
aF1.0
aI0
aI0
aI0
aI2
aI0
aI0
aI2
aI3
aI15
aI0
aa(lp58
V0021400150
p59
aVNOV 17, 2014
p60
aVORL @ DET
p61
aVW
p62
aI31
aI5
aI13
aF0.385
aI3
aI6
aF0.5
aI1
aI2
aF0.5
aI0
aI2
aI2
aI8
aI1
aI0
aI4
aI0
aI14
aI11
aa(lp63
V0021400172
p64
aVNOV 21, 2014
p65
aVORL @ CHA
p66
aVW
p67
aI33
aI7
aI12
aF0.583
aI1
aI4
aF0.25
aI6
aI9
aF0.667
aI0
aI1
aI1
aI1
aI0
aI0
aI3
aI3
aI21
aI-14
aa(lp68
V0021400185
p69
aVNOV 22, 2014
p70
aVORL vs. MIA
p71
aVL
p72
aI38
aI5
aI15
aF0.333
aI1
aI5
aF0.2
aI0
aI0
aF0.0
aI1
aI5
aI6
aI6
aI0
aI0
aI3
aI2
aI11
aI-12
aa(lp73
V0021400199
p74
aVNOV 24, 2014
p75
aVORL @ CLE
p76
aVL
p77
aI31
aI2
aI9
aF0.222
aI1
aI4
aF0.25
aI3
aI4
aF0.75
aI0
aI0
aI0
aI0
aI0
aI1
aI1
aI1
aI8
aI-16
aa(lp78
V0021400212
p79
aVNOV 26, 2014
p80
aVORL vs. GSW
p81
aVL
p82
aI31
aI4
aI9
aF0.444
aI1
aI3
aF0.333
aI1
aI2
aF0.5
aI0
aI2
aI2
aI1
aI0
aI0
aI2
aI1
aI10
aI-28
aa(lp83
V0021400230
p84
aVNOV 28, 2014
p85
aVORL @ IND
p86
aVL
p87
aI33
aI2
aI10
aF0.2
aI1
aI4
aF0.25
aI0
aI0
aF0.0
aI0
aI1
aI1
aI2
aI1
aI0
aI1
aI2
aI5
aI-8
aa(lp88
V0021400246
p89
aVNOV 30, 2014
p90
aVORL @ PHX
p91
aVW
p92
aI34
aI5
aI8
aF0.625
aI2
aI5
aF0.4
aI3
aI4
aF0.75
aI1
aI4
aI5
aI2
aI1
aI0
aI3
aI3
aI15
aI0
aa(lp93
V0021400262
p94
aVDEC 02, 2014
p95
aVORL @ GSW
p96
aVL
p97
aI38
aI4
aI13
aF0.308
aI2
aI6
aF0.333
aI0
aI0
aF0.0
aI0
aI3
aI3
aI2
aI2
aI0
aI1
aI0
aI10
aI5
aa(lp98
V0021400272
p99
aVDEC 03, 2014
p100
aVORL @ LAC
p101
aVL
p102
aI22
aI4
aI11
aF0.364
aI1
aI3
aF0.333
aI0
aI0
aF0.0
aI0
aI1
aI1
aI2
aI0
aI0
aI1
aI2
aI9
aI-23
aa(lp103
V0021400286
p104
aVDEC 05, 2014
p105
aVORL @ UTA
p106
aVW
p107
aI30
aI2
aI7
aF0.286
aI1
aI3
aF0.333
aI3
aI4
aF0.75
aI2
aI3
aI5
aI0
aI1
aI0
aI1
aI2
aI8
aI3
aa(lp108
V0021400292
p109
aVDEC 06, 2014
p110
aVORL @ SAC
p111
aVW
p112
aI31
aI7
aI16
aF0.438
aI1
aI7
aF0.143
aI0
aI0
aF0.0
aI1
aI5
aI6
aI3
aI0
aI0
aI0
aI0
aI15
aI7
aa(lp113
V0021400318
p114
aVDEC 10, 2014
p115
aVORL vs. WAS
p116
aVL
p117
aI21
aI3
aI5
aF0.6
aI1
aI1
aF1.0
aI0
aI0
aF0.0
aI0
aI0
aI0
aI1
aI0
aI0
aI1
aI2
aI7
aI2
aa(lp118
V0021400330
p119
aVDEC 12, 2014
p120
aVORL @ ATL
p121
aVL
p122
aI34
aI8
aI14
aF0.571
aI2
aI6
aF0.333
aI0
aI0
aF0.0
aI1
aI5
aI6
aI4
aI0
aI0
aI1
aI4
aI18
aI9
aa(lp123
V0021400343
p124
aVDEC 13, 2014
p125
aVORL vs. ATL
p126
aVW
p127
aI39
aI7
aI14
aF0.5
aI1
aI5
aF0.2
aI4
aI4
aF1.0
aI0
aI5
aI5
aI3
aI0
aI0
aI1
aI1
aI19
aI5
aa(lp128
V0021400359
p129
aVDEC 15, 2014
p130
aVORL @ TOR
p131
aVL
p132
aI30
aI4
aI10
aF0.4
aI1
aI3
aF0.333
aI2
aI2
aF1.0
aI1
aI2
aI3
aI2
aI1
aI0
aI2
aI3
aI11
aI-22
aa(lp133
V0021400371
p134
aVDEC 17, 2014
p135
aVORL @ BOS
p136
aVL
p137
aI35
aI6
aI14
aF0.429
aI0
aI3
aF0.0
aI1
aI2
aF0.5
aI1
aI1
aI2
aI4
aI2
aI0
aI1
aI0
aI13
aI2
aa(lp138
V0021400383
p139
aVDEC 19, 2014
p140
aVORL vs. UTA
p141
aVL
p142
aI39
aI7
aI16
aF0.438
aI4
aI6
aF0.667
aI3
aI4
aF0.75
aI2
aI1
aI3
aI4
aI0
aI0
aI2
aI2
aI21
aI7
aa(lp143
V0021400405
p144
aVDEC 21, 2014
p145
aVORL vs. PHI
p146
aVL
p147
aI27
aI5
aI11
aF0.455
aI3
aI6
aF0.5
aI3
aI7
aF0.429
aI0
aI2
aI2
aI1
aI0
aI0
aI3
aI5
aI16
aI-16
aa(lp148
V0021400418
p149
aVDEC 23, 2014
p150
aVORL vs. BOS
p151
aVW
p152
aI31
aI2
aI9
aF0.222
aI0
aI4
aF0.0
aI3
aI6
aF0.5
aI1
aI2
aI3
aI0
aI0
aI0
aI1
aI1
aI7
aI-6
aa(lp153
V0021400433
p154
aVDEC 26, 2014
p155
aVORL vs. CLE
p156
aVL
p157
aI34
aI5
aI10
aF0.5
aI2
aI3
aF0.667
aI3
aI3
aF1.0
aI1
aI3
aI4
aI2
aI2
aI1
aI1
aI3
aI15
aI-5
aa(lp158
V0021400444
p159
aVDEC 27, 2014
p160
aVORL @ CHA
p161
aVW
p162
aI35
aI5
aI14
aF0.357
aI2
aI7
aF0.286
aI0
aI1
aF0.0
aI0
aI2
aI2
aI2
aI0
aI0
aI0
aI0
aI12
aI2
aa(lp163
V0021400462
p164
aVDEC 29, 2014
p165
aVORL @ MIA
p166
aVW
p167
aI32
aI0
aI4
aF0.0
aI0
aI2
aF0.0
aI2
aI4
aF0.5
aI0
aI6
aI6
aI3
aI2
aI0
aI3
aI3
aI2
aI6
aa(lp168
V0021400465
p169
aVDEC 30, 2014
p170
aVORL vs. DET
p171
aVL
p172
aI27
aI4
aI9
aF0.444
aI1
aI3
aF0.333
aI0
aI0
aF0.0
aI0
aI4
aI4
aI1
aI0
aI0
aI1
aI2
aI9
aI-15
aa(lp173
V0021400485
p174
aVJAN 02, 2015
p175
aVORL vs. BKN
p176
aVL
p177
aI28
aI4
aI11
aF0.364
aI2
aI5
aF0.4
aI2
aI4
aF0.5
aI0
aI1
aI1
aI4
aI0
aI0
aI2
aI1
aI12
aI5
aa(lp178
V0021400495
p179
aVJAN 03, 2015
p180
aVORL vs. CHA
p181
aVL
p182
aI28
aI4
aI15
aF0.267
aI1
aI7
aF0.143
aI0
aI0
aF0.0
aI1
aI4
aI5
aI1
aI1
aI0
aI2
aI4
aI9
aI-2
aa(lp183
V0021400530
p184
aVJAN 07, 2015
p185
aVORL @ DEN
p186
aVL
p187
aI18
aI4
aI8
aF0.5
aI2
aI5
aF0.4
aI4
aI4
aF1.0
aI2
aI1
aI3
aI1
aI0
aI0
aI2
aI2
aI14
aI-6
aa(lp188
V0021400548
p189
aVJAN 09, 2015
p190
aVORL @ LAL
p191
aVL
p192
aI19
aI3
aI7
aF0.429
aI0
aI1
aF0.0
aI5
aI5
aF1.0
aI0
aI0
aI0
aI2
aI0
aI0
aI0
aI1
aI11
aI-2
aa(lp193
V0021400575
p194
aVJAN 14, 2015
p195
aVORL vs. HOU
p196
aVW
p197
aI13
aI3
aI6
aF0.5
aI0
aI2
aF0.0
aI3
aI4
aF0.75
aI0
aI0
aI0
aI0
aI3
aI0
aI0
aI1
aI9
aI-4
aa(lp198
V0021400588
p199
aVJAN 16, 2015
p200
aVORL vs. MEM
p201
aVL
p202
aI12
aI1
aI2
aF0.5
aI1
aI1
aF1.0
aI0
aI0
aF0.0
aI0
aI0
aI0
aI0
aI0
aI0
aI0
aI2
aI3
aI-7
aa(lp203
V0021400609
p204
aVJAN 18, 2015
p205
aVORL vs. OKC
p206
aVL
p207
aI14
aI3
aI6
aF0.5
aI1
aI4
aF0.25
aI1
aI2
aF0.5
aI0
aI1
aI1
aI0
aI0
aI0
aI1
aI1
aI8
aI1
aa(lp208
V0021400629
p209
aVJAN 21, 2015
p210
aVORL @ DET
p211
aVL
p212
aI23
aI4
aI8
aF0.5
aI2
aI3
aF0.667
aI4
aI4
aF1.0
aI0
aI3
aI3
aI3
aI1
aI0
aI1
aI3
aI14
aI-1
aa(lp213
V0021400645
p214
aVJAN 23, 2015
p215
aVORL @ NYK
p216
aVL
p217
aI17
aI2
aI4
aF0.5
aI1
aI3
aF0.333
aI0
aI0
aF0.0
aI0
aI2
aI2
aI2
aI3
aI0
aI1
aI4
aI5
aI-14
aa(lp218
V0021400662
p219
aVJAN 25, 2015
p220
aVORL vs. IND
p221
aVL
p222
aI17
aI2
aI7
aF0.286
aI1
aI2
aF0.5
aI0
aI0
aF0.0
aI1
aI1
aI2
aI1
aI1
aI0
aI1
aI1
aI5
aI-1
aa(lp223
V0021400670
p224
aVJAN 26, 2015
p225
aVORL @ MEM
p226
aVL
p227
aI17
aI2
aI6
aF0.333
aI1
aI2
aF0.5
aI0
aI0
aF0.0
aI1
aI1
aI2
aI0
aI0
aI0
aI2
aI3
aI5
aI-10
aa(lp228
V0021400692
p229
aVJAN 29, 2015
p230
aVORL vs. MIL
p231
aVL
p232
aI30
aI5
aI10
aF0.5
aI1
aI4
aF0.25
aI0
aI0
aF0.0
aI0
aI5
aI5
aI2
aI3
aI0
aI3
aI3
aI11
aI0
aa(lp233
V0021400706
p234
aVJAN 31, 2015
p235
aVORL vs. DAL
p236
aVL
p237
aI37
aI6
aI10
aF0.6
aI1
aI2
aF0.5
aI2
aI2
aF1.0
aI0
aI3
aI3
aI1
aI2
aI0
aI0
aI2
aI15
aI-21
aa(lp238
V0021400723
p239
aVFEB 02, 2015
p240
aVORL @ OKC
p241
aVL
p242
aI21
aI1
aI5
aF0.2
aI0
aI3
aF0.0
aI0
aI0
aF0.0
aI0
aI1
aI1
aI2
aI0
aI0
aI1
aI2
aI2
aI-2
aa(lp243
V0021400739
p244
aVFEB 04, 2015
p245
aVORL @ SAS
p246
aVL
p247
aI32
aI4
aI9
aF0.444
aI2
aI4
aF0.5
aI0
aI0
aF0.0
aI0
aI2
aI2
aI6
aI2
aI0
aI1
aI3
aI10
aI1
aa(lp248
V0021400748
p249
aVFEB 06, 2015
p250
aVORL vs. LAL
p251
aVW
p252
aI14
aI1
aI3
aF0.333
aI1
aI1
aF1.0
aI0
aI0
aF0.0
aI0
aI1
aI1
aI2
aI2
aI0
aI2
aI0
aI3
aI1
aa(lp253
V0021400770
p254
aVFEB 08, 2015
p255
aVORL vs. CHI
p256
aVL
p257
aI18
aI5
aI7
aF0.714
aI1
aI3
aF0.333
aI3
aI4
aF0.75
aI2
aI1
aI3
aI3
aI1
aI0
aI1
aI1
aI14
aI12
aa(lp258
V0021400776
p259
aVFEB 09, 2015
p260
aVORL @ WAS
p261
aVL
p262
aI33
aI7
aI14
aF0.5
aI2
aI5
aF0.4
aI2
aI2
aF1.0
aI0
aI2
aI2
aI2
aI0
aI0
aI0
aI1
aI18
aI-2
aa(lp263
V0021400788
p264
aVFEB 11, 2015
p265
aVORL vs. NYK
p266
aVW
p267
aI28
aI2
aI6
aF0.333
aI1
aI1
aF1.0
aI0
aI0
aF0.0
aI0
aI3
aI3
aI1
aI0
aI0
aI0
aI2
aI5
aI-1
aa(lp268
V0021400803
p269
aVFEB 20, 2015
p270
aVORL vs. NOP
p271
aVW
p272
aI39
aI7
aI16
aF0.438
aI2
aI6
aF0.333
aI0
aI0
aF0.0
aI0
aI6
aI6
aI3
aI0
aI0
aI0
aI1
aI16
aI19
aa(lp273
V0021400825
p274
aVFEB 22, 2015
p275
aVORL vs. PHI
p276
aVW
p277
aI14
aI0
aI2
aF0.0
aI0
aI1
aF0.0
aI0
aI0
aF0.0
aI0
aI0
aI0
aI3
aI0
aI0
aI1
aI1
aI0
aI0
aa(lp278
V0021400842
p279
aVFEB 25, 2015
p280
aVORL vs. MIA
p281
aVL
p282
aI26
aI4
aI6
aF0.667
aI1
aI3
aF0.333
aI1
aI2
aF0.5
aI1
aI0
aI1
aI2
aI0
aI0
aI2
aI3
aI10
aI11
aa(lp283
V0021401161
p284
aVAPR 08, 2015
p285
aVORL vs. CHI
p286
aVW
p287
aI21
aI3
aI7
aF0.429
aI2
aI5
aF0.4
aI3
aI3
aF1.0
aI1
aI1
aI2
aI0
aI0
aI0
aI1
aI0
aI11
aI-4
aa(lp288
V0021401175
p289
aVAPR 10, 2015
p290
aVORL vs. TOR
p291
aVL
p292
aI26
aI6
aI10
aF0.6
aI3
aI6
aF0.5
aI3
aI3
aF1.0
aI1
aI5
aI6
aI2
aI0
aI0
aI3
aI2
aI18
aI8
aasS'name'
p293
VEvan Fournier
p294
sS'weight'
p295
V205
p296
sS'age'
p297
I22
sS'experience'
p298
I2
sS'height'
p299
V6-7
p300
sS'position'
p301
VGuard-Forward
p302
s.