(dp0
S'stats'
p1
(lp2
(lp3
V0021400015
p4
aVOCT 29, 2014
p5
aVPOR vs. OKC
p6
aVW
p7
aI30
aI3
aI10
aF0.3
aI2
aI7
aF0.286
aI2
aI2
aF1.0
aI0
aI2
aI2
aI5
aI1
aI0
aI1
aI4
aI10
aI9
aa(lp8
V0021400025
p9
aVOCT 31, 2014
p10
aVPOR @ SAC
p11
aVL
p12
aI35
aI4
aI13
aF0.308
aI4
aI8
aF0.5
aI8
aI9
aF0.889
aI2
aI5
aI7
aI2
aI0
aI1
aI1
aI4
aI20
aI-16
aa(lp13
V0021400042
p14
aVNOV 02, 2014
p15
aVPOR vs. GSW
p16
aVL
p17
aI38
aI4
aI18
aF0.222
aI1
aI7
aF0.143
aI2
aI2
aF1.0
aI3
aI3
aI6
aI5
aI0
aI0
aI2
aI1
aI11
aI-3
aa(lp18
V0021400055
p19
aVNOV 04, 2014
p20
aVPOR vs. CLE
p21
aVW
p22
aI36
aI6
aI13
aF0.462
aI5
aI10
aF0.5
aI10
aI10
aF1.0
aI1
aI5
aI6
aI7
aI1
aI1
aI0
aI2
aI27
aI15
aa(lp23
V0021400070
p24
aVNOV 06, 2014
p25
aVPOR vs. DAL
p26
aVW
p27
aI32
aI6
aI13
aF0.462
aI1
aI6
aF0.167
aI5
aI5
aF1.0
aI0
aI5
aI5
aI6
aI1
aI0
aI5
aI1
aI18
aI23
aa(lp28
V0021400082
p29
aVNOV 08, 2014
p30
aVPOR @ LAC
p31
aVL
p32
aI39
aI9
aI14
aF0.643
aI4
aI8
aF0.5
aI3
aI4
aF0.75
aI0
aI7
aI7
aI8
aI0
aI0
aI5
aI5
aI25
aI-1
aa(lp33
V0021400096
p34
aVNOV 09, 2014
p35
aVPOR vs. DEN
p36
aVW
p37
aI34
aI4
aI9
aF0.444
aI2
aI5
aF0.4
aI1
aI1
aF1.0
aI1
aI4
aI5
aI7
aI2
aI0
aI0
aI3
aI11
aI-1
aa(lp38
V0021400107
p39
aVNOV 11, 2014
p40
aVPOR vs. CHA
p41
aVW
p42
aI39
aI12
aI21
aF0.571
aI5
aI8
aF0.625
aI0
aI0
aF0.0
aI1
aI3
aI4
aI7
aI2
aI0
aI6
aI1
aI29
aI-3
aa(lp43
V0021400115
p44
aVNOV 12, 2014
p45
aVPOR @ DEN
p46
aVW
p47
aI30
aI10
aI16
aF0.625
aI5
aI6
aF0.833
aI2
aI2
aF1.0
aI1
aI4
aI5
aI9
aI2
aI0
aI4
aI1
aI27
aI28
aa(lp48
V0021400138
p49
aVNOV 15, 2014
p50
aVPOR vs. BKN
p51
aVW
p52
aI38
aI8
aI14
aF0.571
aI4
aI6
aF0.667
aI8
aI9
aF0.889
aI0
aI5
aI5
aI10
aI0
aI0
aI4
aI2
aI28
aI2
aa(lp53
V0021400153
p54
aVNOV 17, 2014
p55
aVPOR vs. NOP
p56
aVW
p57
aI35
aI7
aI18
aF0.389
aI2
aI7
aF0.286
aI8
aI8
aF1.0
aI1
aI3
aI4
aI7
aI2
aI0
aI4
aI2
aI24
aI-2
aa(lp58
V0021400183
p59
aVNOV 21, 2014
p60
aVPOR vs. CHI
p61
aVW
p62
aI26
aI7
aI9
aF0.778
aI4
aI4
aF1.0
aI3
aI3
aF1.0
aI0
aI6
aI6
aI9
aI1
aI0
aI4
aI0
aI21
aI40
aa(lp63
V0021400194
p64
aVNOV 23, 2014
p65
aVPOR @ BOS
p66
aVW
p67
aI38
aI4
aI14
aF0.286
aI2
aI6
aF0.333
aI2
aI2
aF1.0
aI0
aI9
aI9
aI5
aI4
aI0
aI5
aI2
aI12
aI4
aa(lp68
V0021400200
p69
aVNOV 24, 2014
p70
aVPOR @ PHI
p71
aVW
p72
aI37
aI6
aI11
aF0.545
aI1
aI4
aF0.25
aI3
aI3
aF1.0
aI1
aI4
aI5
aI4
aI2
aI0
aI3
aI3
aI16
aI14
aa(lp73
V0021400210
p74
aVNOV 26, 2014
p75
aVPOR @ CHA
p76
aVW
p77
aI36
aI8
aI17
aF0.471
aI4
aI8
aF0.5
aI2
aI3
aF0.667
aI0
aI4
aI4
aI7
aI1
aI0
aI1
aI2
aI22
aI13
aa(lp78
V0021400233
p79
aVNOV 28, 2014
p80
aVPOR vs. MEM
p81
aVL
p82
aI36
aI7
aI16
aF0.438
aI1
aI6
aF0.167
aI5
aI7
aF0.714
aI1
aI3
aI4
aI9
aI3
aI0
aI1
aI1
aI20
aI-5
aa(lp83
V0021400247
p84
aVNOV 30, 2014
p85
aVPOR vs. MIN
p86
aVW
p87
aI36
aI6
aI14
aF0.429
aI1
aI7
aF0.143
aI4
aI7
aF0.571
aI0
aI1
aI1
aI8
aI3
aI1
aI1
aI1
aI17
aI-1
aa(lp88
V0021400259
p89
aVDEC 02, 2014
p90
aVPOR @ DEN
p91
aVW
p92
aI31
aI7
aI15
aF0.467
aI1
aI5
aF0.2
aI2
aI2
aF1.0
aI1
aI2
aI3
aI6
aI1
aI0
aI2
aI5
aI17
aI2
aa(lp93
V0021400274
p94
aVDEC 04, 2014
p95
aVPOR vs. IND
p96
aVW
p97
aI34
aI7
aI15
aF0.467
aI1
aI5
aF0.2
aI8
aI11
aF0.727
aI0
aI8
aI8
aI3
aI2
aI0
aI1
aI1
aI23
aI6
aa(lp98
V0021400299
p99
aVDEC 07, 2014
p100
aVPOR @ NYK
p101
aVW
p102
aI36
aI5
aI16
aF0.313
aI2
aI8
aF0.25
aI8
aI9
aF0.889
aI0
aI5
aI5
aI2
aI1
aI0
aI1
aI0
aI20
aI11
aa(lp103
V0021400309
p104
aVDEC 09, 2014
p105
aVPOR @ DET
p106
aVW
p107
aI35
aI6
aI14
aF0.429
aI1
aI5
aF0.2
aI1
aI2
aF0.5
aI0
aI5
aI5
aI7
aI2
aI0
aI2
aI2
aI14
aI10
aa(lp108
V0021400321
p109
aVDEC 10, 2014
p110
aVPOR @ MIN
p111
aVL
p112
aI42
aI9
aI24
aF0.375
aI2
aI12
aF0.167
aI3
aI3
aF1.0
aI1
aI6
aI7
aI5
aI3
aI0
aI1
aI3
aI23
aI0
aa(lp113
V0021400328
p114
aVDEC 12, 2014
p115
aVPOR @ CHI
p116
aVL
p117
aI38
aI13
aI21
aF0.619
aI7
aI11
aF0.636
aI2
aI3
aF0.667
aI0
aI5
aI5
aI6
aI0
aI0
aI4
aI3
aI35
aI-3
aa(lp118
V0021400342
p119
aVDEC 13, 2014
p120
aVPOR @ IND
p121
aVW
p122
aI37
aI7
aI22
aF0.318
aI0
aI3
aF0.0
aI4
aI4
aF1.0
aI0
aI3
aI3
aI4
aI1
aI0
aI1
aI2
aI18
aI13
aa(lp123
V0021400361
p124
aVDEC 15, 2014
p125
aVPOR vs. SAS
p126
aVW
p127
aI34
aI8
aI18
aF0.444
aI1
aI3
aF0.333
aI6
aI6
aF1.0
aI3
aI7
aI10
aI6
aI2
aI0
aI2
aI3
aI23
aI8
aa(lp128
V0021400376
p129
aVDEC 17, 2014
p130
aVPOR vs. MIL
p131
aVW
p132
aI37
aI10
aI18
aF0.556
aI4
aI7
aF0.571
aI5
aI6
aF0.833
aI0
aI3
aI3
aI7
aI2
aI0
aI4
aI3
aI29
aI14
aa(lp133
V0021400390
p134
aVDEC 19, 2014
p135
aVPOR @ SAS
p136
aVW
p137
aI53
aI16
aI29
aF0.552
aI4
aI9
aF0.444
aI7
aI8
aF0.875
aI0
aI3
aI3
aI6
aI2
aI1
aI4
aI2
aI43
aI20
aa(lp138
V0021400394
p139
aVDEC 20, 2014
p140
aVPOR @ NOP
p141
aVW
p142
aI28
aI6
aI12
aF0.5
aI3
aI6
aF0.5
aI2
aI2
aF1.0
aI0
aI3
aI3
aI7
aI1
aI0
aI1
aI2
aI17
aI30
aa(lp143
V0021400411
p144
aVDEC 22, 2014
p145
aVPOR @ HOU
p146
aVL
p147
aI32
aI6
aI16
aF0.375
aI0
aI5
aF0.0
aI6
aI6
aF1.0
aI1
aI2
aI3
aI3
aI1
aI0
aI6
aI1
aI18
aI-18
aa(lp148
V0021400424
p149
aVDEC 23, 2014
p150
aVPOR @ OKC
p151
aVW
p152
aI46
aI11
aI21
aF0.524
aI8
aI12
aF0.667
aI10
aI11
aF0.909
aI1
aI5
aI6
aI11
aI2
aI0
aI2
aI1
aI40
aI17
aa(lp153
V0021400441
p154
aVDEC 26, 2014
p155
aVPOR vs. PHI
p156
aVW
p157
aI33
aI9
aI17
aF0.529
aI3
aI8
aF0.375
aI7
aI7
aF1.0
aI0
aI5
aI5
aI9
aI1
aI0
aI7
aI1
aI28
aI18
aa(lp158
V0021400456
p159
aVDEC 28, 2014
p160
aVPOR vs. NYK
p161
aVW
p162
aI30
aI4
aI11
aF0.364
aI2
aI6
aF0.333
aI1
aI2
aF0.5
aI0
aI4
aI4
aI6
aI2
aI0
aI2
aI0
aI11
aI14
aa(lp163
V0021400473
p164
aVDEC 30, 2014
p165
aVPOR vs. TOR
p166
aVW
p167
aI46
aI9
aI24
aF0.375
aI4
aI15
aF0.267
aI4
aI5
aF0.8
aI0
aI2
aI2
aI9
aI1
aI2
aI2
aI3
aI26
aI11
aa(lp168
V0021400501
p169
aVJAN 03, 2015
p170
aVPOR vs. ATL
p171
aVL
p172
aI39
aI7
aI18
aF0.389
aI2
aI6
aF0.333
aI0
aI1
aF0.0
aI2
aI6
aI8
aI7
aI0
aI1
aI2
aI5
aI16
aI-7
aa(lp173
V0021400517
p174
aVJAN 05, 2015
p175
aVPOR vs. LAL
p176
aVW
p177
aI39
aI12
aI21
aF0.571
aI4
aI8
aF0.5
aI11
aI13
aF0.846
aI2
aI4
aI6
aI5
aI2
aI1
aI1
aI0
aI39
aI4
aa(lp178
V0021400537
p179
aVJAN 08, 2015
p180
aVPOR vs. MIA
p181
aVW
p182
aI33
aI6
aI17
aF0.353
aI2
aI8
aF0.25
aI2
aI2
aF1.0
aI0
aI0
aI0
aI3
aI0
aI2
aI1
aI2
aI16
aI18
aa(lp183
V0021400557
p184
aVJAN 10, 2015
p185
aVPOR vs. ORL
p186
aVW
p187
aI35
aI3
aI10
aF0.3
aI2
aI8
aF0.25
aI8
aI10
aF0.8
aI1
aI4
aI5
aI5
aI1
aI0
aI4
aI0
aI16
aI6
aa(lp188
V0021400562
p189
aVJAN 11, 2015
p190
aVPOR @ LAL
p191
aVW
p192
aI37
aI13
aI23
aF0.565
aI4
aI8
aF0.5
aI4
aI5
aF0.8
aI0
aI3
aI3
aI7
aI0
aI0
aI3
aI2
aI34
aI13
aa(lp193
V0021400583
p194
aVJAN 14, 2015
p195
aVPOR vs. LAC
p196
aVL
p197
aI37
aI5
aI16
aF0.313
aI4
aI9
aF0.444
aI1
aI2
aF0.5
aI0
aI3
aI3
aI4
aI1
aI0
aI3
aI3
aI15
aI-6
aa(lp198
V0021400595
p199
aVJAN 16, 2015
p200
aVPOR @ SAS
p201
aVL
p202
aI36
aI9
aI17
aF0.529
aI0
aI5
aF0.0
aI5
aI6
aF0.833
aI0
aI2
aI2
aI5
aI0
aI0
aI1
aI2
aI23
aI-22
aa(lp203
V0021400604
p204
aVJAN 17, 2015
p205
aVPOR @ MEM
p206
aVL
p207
aI41
aI9
aI26
aF0.346
aI3
aI10
aF0.3
aI2
aI3
aF0.667
aI3
aI3
aI6
aI6
aI2
aI0
aI2
aI2
aI23
aI-4
aa(lp208
V0021400621
p209
aVJAN 19, 2015
p210
aVPOR vs. SAC
p211
aVW
p212
aI38
aI6
aI19
aF0.316
aI2
aI9
aF0.222
aI8
aI11
aF0.727
aI2
aI4
aI6
aI5
aI3
aI0
aI0
aI1
aI22
aI-5
aa(lp213
V0021400634
p214
aVJAN 21, 2015
p215
aVPOR @ PHX
p216
aVL
p217
aI41
aI6
aI22
aF0.273
aI2
aI10
aF0.2
aI8
aI8
aF1.0
aI0
aI3
aI3
aI6
aI2
aI0
aI5
aI2
aI22
aI5
aa(lp218
V0021400639
p219
aVJAN 22, 2015
p220
aVPOR vs. BOS
p221
aVL
p222
aI35
aI8
aI23
aF0.348
aI2
aI5
aF0.4
aI3
aI3
aF1.0
aI2
aI4
aI6
aI7
aI1
aI0
aI1
aI2
aI21
aI2
aa(lp223
V0021400656
p224
aVJAN 24, 2015
p225
aVPOR vs. WAS
p226
aVW
p227
aI36
aI5
aI13
aF0.385
aI2
aI6
aF0.333
aI8
aI8
aF1.0
aI0
aI3
aI3
aI7
aI1
aI0
aI2
aI2
aI20
aI2
aa(lp228
V0021400681
p229
aVJAN 28, 2015
p230
aVPOR @ CLE
p231
aVL
p232
aI38
aI4
aI19
aF0.211
aI3
aI10
aF0.3
aI3
aI4
aF0.75
aI0
aI0
aI0
aI5
aI0
aI1
aI1
aI2
aI14
aI0
aa(lp233
V0021400697
p234
aVJAN 30, 2015
p235
aVPOR @ ATL
p236
aVL
p237
aI40
aI6
aI20
aF0.3
aI1
aI9
aF0.111
aI0
aI0
aF0.0
aI1
aI5
aI6
aI11
aI3
aI1
aI6
aI3
aI13
aI-1
aa(lp238
V0021400712
p239
aVJAN 31, 2015
p240
aVPOR @ MIL
p241
aVL
p242
aI38
aI6
aI19
aF0.316
aI1
aI10
aF0.1
aI6
aI7
aF0.857
aI1
aI4
aI5
aI9
aI3
aI1
aI6
aI2
aI19
aI-4
aa(lp243
V0021400729
p244
aVFEB 03, 2015
p245
aVPOR vs. UTA
p246
aVW
p247
aI37
aI10
aI17
aF0.588
aI0
aI6
aF0.0
aI5
aI7
aF0.714
aI0
aI4
aI4
aI6
aI2
aI0
aI1
aI3
aI25
aI12
aa(lp248
V0021400745
p249
aVFEB 05, 2015
p250
aVPOR vs. PHX
p251
aVW
p252
aI33
aI6
aI15
aF0.4
aI0
aI5
aF0.0
aI1
aI2
aF0.5
aI1
aI3
aI4
aI3
aI2
aI1
aI2
aI0
aI13
aI13
aa(lp253
V0021400762
p254
aVFEB 07, 2015
p255
aVPOR @ DAL
p256
aVL
p257
aI42
aI7
aI19
aF0.368
aI4
aI10
aF0.4
aI8
aI9
aF0.889
aI2
aI5
aI7
aI7
aI4
aI2
aI5
aI5
aI26
aI-11
aa(lp258
V0021400771
p259
aVFEB 08, 2015
p260
aVPOR @ HOU
p261
aVW
p262
aI37
aI6
aI10
aF0.6
aI1
aI5
aF0.2
aI10
aI11
aF0.909
aI0
aI5
aI5
aI5
aI2
aI0
aI1
aI3
aI23
aI7
aa(lp263
V0021400798
p264
aVFEB 11, 2015
p265
aVPOR vs. LAL
p266
aVW
p267
aI28
aI5
aI8
aF0.625
aI0
aI3
aF0.0
aI5
aI5
aF1.0
aI1
aI0
aI1
aI8
aI1
aI0
aI2
aI3
aI15
aI22
aa(lp268
V0021400812
p269
aVFEB 20, 2015
p270
aVPOR @ UTA
p271
aVL
p272
aI35
aI7
aI15
aF0.467
aI3
aI9
aF0.333
aI2
aI2
aF1.0
aI0
aI4
aI4
aI2
aI0
aI0
aI5
aI0
aI19
aI-4
aa(lp273
V0021400828
p274
aVFEB 22, 2015
p275
aVPOR vs. MEM
p276
aVL
p277
aI35
aI7
aI17
aF0.412
aI2
aI8
aF0.25
aI2
aI4
aF0.5
aI0
aI5
aI5
aI7
aI0
aI0
aI4
aI1
aI18
aI-23
aa(lp278
V0021400853
p279
aVFEB 25, 2015
p280
aVPOR vs. SAS
p281
aVW
p282
aI34
aI7
aI15
aF0.467
aI3
aI4
aF0.75
aI1
aI1
aF1.0
aI1
aI6
aI7
aI5
aI1
aI0
aI3
aI2
aI18
aI15
aa(lp283
V0021400869
p284
aVFEB 27, 2015
p285
aVPOR vs. OKC
p286
aVW
p287
aI37
aI10
aI22
aF0.455
aI2
aI7
aF0.286
aI7
aI8
aF0.875
aI0
aI3
aI3
aI5
aI1
aI0
aI1
aI1
aI29
aI12
aa(lp288
V0021400879
p289
aVMAR 01, 2015
p290
aVPOR @ SAC
p291
aVW
p292
aI36
aI11
aI20
aF0.55
aI3
aI5
aF0.6
aI6
aI6
aF1.0
aI0
aI4
aI4
aI7
aI0
aI1
aI2
aI1
aI31
aI23
aa(lp293
V0021400908
p294
aVMAR 04, 2015
p295
aVPOR @ LAC
p296
aVW
p297
aI43
aI1
aI13
aF0.077
aI0
aI7
aF0.0
aI3
aI4
aF0.75
aI1
aI17
aI18
aI4
aI0
aI0
aI5
aI4
aI5
aI14
aa(lp298
V0021400910
p299
aVMAR 05, 2015
p300
aVPOR vs. DAL
p301
aVW
p302
aI31
aI4
aI10
aF0.4
aI2
aI5
aF0.4
aI4
aI4
aF1.0
aI0
aI6
aI6
aI5
aI2
aI0
aI5
aI3
aI14
aI16
aa(lp303
V0021400928
p304
aVMAR 07, 2015
p305
aVPOR @ MIN
p306
aVL
p307
aI38
aI11
aI23
aF0.478
aI4
aI8
aF0.5
aI6
aI6
aF1.0
aI1
aI6
aI7
aI8
aI1
aI0
aI2
aI3
aI32
aI-7
aa(lp308
V0021400961
p309
aVMAR 11, 2015
p310
aVPOR vs. HOU
p311
aVW
p312
aI35
aI5
aI16
aF0.313
aI1
aI5
aF0.2
aI3
aI4
aF0.75
aI1
aI4
aI5
aI8
aI0
aI0
aI3
aI2
aI14
aI-1
aa(lp313
V0021400975
p314
aVMAR 13, 2015
p315
aVPOR vs. DET
p316
aVW
p317
aI29
aI9
aI12
aF0.75
aI5
aI7
aF0.714
aI5
aI6
aF0.833
aI0
aI2
aI2
aI9
aI0
aI0
aI1
aI0
aI28
aI13
aa(lp318
V0021400987
p319
aVMAR 15, 2015
p320
aVPOR @ TOR
p321
aVW
p322
aI35
aI10
aI20
aF0.5
aI2
aI8
aF0.25
aI1
aI2
aF0.5
aI0
aI4
aI4
aI5
aI2
aI0
aI3
aI2
aI23
aI7
aa(lp323
V0021400991
p324
aVMAR 16, 2015
p325
aVPOR @ WAS
p326
aVL
p327
aI39
aI5
aI18
aF0.278
aI2
aI8
aF0.25
aI2
aI2
aF1.0
aI0
aI4
aI4
aI9
aI0
aI1
aI3
aI2
aI14
aI-5
aa(lp328
V0021401007
p329
aVMAR 18, 2015
p330
aVPOR @ MIA
p331
aVL
p332
aI35
aI7
aI13
aF0.538
aI2
aI5
aF0.4
aI1
aI3
aF0.333
aI0
aI3
aI3
aI3
aI1
aI0
aI4
aI1
aI17
aI-12
aa(lp333
V0021401020
p334
aVMAR 20, 2015
p335
aVPOR @ ORL
p336
aVL
p337
aI37
aI6
aI15
aF0.4
aI0
aI5
aF0.0
aI6
aI6
aF1.0
aI1
aI3
aI4
aI4
aI1
aI0
aI1
aI1
aI18
aI-6
aa(lp338
V0021401035
p339
aVMAR 21, 2015
p340
aVPOR @ MEM
p341
aVL
p342
aI39
aI8
aI18
aF0.444
aI2
aI6
aF0.333
aI9
aI9
aF1.0
aI0
aI3
aI3
aI7
aI0
aI0
aI5
aI2
aI27
aI-21
aa(lp343
V0021401059
p344
aVMAR 24, 2015
p345
aVPOR vs. GSW
p346
aVL
p347
aI33
aI9
aI21
aF0.429
aI6
aI11
aF0.545
aI5
aI5
aF1.0
aI3
aI4
aI7
aI5
aI1
aI1
aI4
aI1
aI29
aI-15
aa(lp348
V0021401070
p349
aVMAR 25, 2015
p350
aVPOR @ UTA
p351
aVW
p352
aI40
aI6
aI16
aF0.375
aI1
aI6
aF0.167
aI10
aI10
aF1.0
aI1
aI7
aI8
aI12
aI1
aI0
aI2
aI2
aI23
aI6
aa(lp353
V0021401086
p354
aVMAR 27, 2015
p355
aVPOR @ PHX
p356
aVW
p357
aI33
aI4
aI15
aF0.267
aI2
aI6
aF0.333
aI1
aI2
aF0.5
aI0
aI4
aI4
aI4
aI0
aI0
aI3
aI2
aI11
aI6
aa(lp358
V0021401091
p359
aVMAR 28, 2015
p360
aVPOR vs. DEN
p361
aVW
p362
aI30
aI4
aI11
aF0.364
aI0
aI3
aF0.0
aI0
aI0
aF0.0
aI0
aI3
aI3
aI10
aI1
aI0
aI3
aI4
aI8
aI5
aa(lp363
V0021401107
p364
aVMAR 30, 2015
p365
aVPOR vs. PHX
p366
aVW
p367
aI29
aI7
aI14
aF0.5
aI2
aI6
aF0.333
aI3
aI4
aF0.75
aI0
aI4
aI4
aI7
aI1
aI0
aI1
aI2
aI19
aI16
aa(lp368
V0021401122
p369
aVAPR 01, 2015
p370
aVPOR vs. LAC
p371
aVL
p372
aI36
aI7
aI14
aF0.5
aI3
aI6
aF0.5
aI1
aI2
aF0.5
aI0
aI3
aI3
aI10
aI0
aI0
aI2
aI4
aI18
aI-6
aa(lp373
V0021401136
p374
aVAPR 03, 2015
p375
aVPOR @ LAL
p376
aVW
p377
aI28
aI8
aI15
aF0.533
aI4
aI8
aF0.5
aI0
aI0
aF0.0
aI0
aI3
aI3
aI5
aI2
aI0
aI2
aI2
aI20
aI3
aa(lp378
V0021401146
p379
aVAPR 04, 2015
p380
aVPOR vs. NOP
p381
aVW
p382
aI35
aI7
aI19
aF0.368
aI0
aI3
aF0.0
aI5
aI5
aF1.0
aI0
aI1
aI1
aI4
aI0
aI0
aI4
aI1
aI19
aI0
aa(lp383
V0021400668
p384
aVAPR 06, 2015
p385
aVPOR @ BKN
p386
aVL
p387
aI39
aI14
aI26
aF0.538
aI6
aI11
aF0.545
aI2
aI2
aF1.0
aI1
aI3
aI4
aI2
aI0
aI1
aI2
aI2
aI36
aI-9
aa(lp388
V0021401172
p389
aVAPR 08, 2015
p390
aVPOR vs. MIN
p391
aVW
p392
aI29
aI4
aI13
aF0.308
aI3
aI8
aF0.375
aI6
aI6
aF1.0
aI0
aI2
aI2
aI6
aI0
aI1
aI1
aI2
aI17
aI21
aa(lp393
V0021401174
p394
aVAPR 09, 2015
p395
aVPOR @ GSW
p396
aVL
p397
aI38
aI9
aI22
aF0.409
aI1
aI9
aF0.111
aI1
aI2
aF0.5
aI0
aI6
aI6
aI8
aI0
aI0
aI2
aI2
aI20
aI-15
aa(lp398
V0021401191
p399
aVAPR 11, 2015
p400
aVPOR vs. UTA
p401
aVL
p402
aI37
aI12
aI22
aF0.545
aI3
aI8
aF0.375
aI1
aI1
aF1.0
aI1
aI4
aI5
aI5
aI2
aI0
aI3
aI1
aI28
aI-6
aa(lp403
V0021401209
p404
aVAPR 13, 2015
p405
aVPOR @ OKC
p406
aVL
p407
aI27
aI3
aI9
aF0.333
aI1
aI4
aF0.25
aI3
aI4
aF0.75
aI0
aI3
aI3
aI6
aI1
aI0
aI2
aI1
aI10
aI-14
aa(lp408
V0021401218
p409
aVAPR 15, 2015
p410
aVPOR @ DAL
p411
aVL
p412
aI29
aI5
aI11
aF0.455
aI1
aI3
aF0.333
aI6
aI7
aF0.857
aI1
aI2
aI3
aI2
aI0
aI0
aI6
aI2
aI17
aI-21
aasS'name'
p413
VDamian Lillard
p414
sS'weight'
p415
V195
p416
sS'age'
p417
I24
sS'experience'
p418
I2
sS'height'
p419
V6-3
p420
sS'position'
p421
VGuard
p422
s.