(dp0
S'stats'
p1
(lp2
(lp3
V0021400014
p4
aVOCT 29, 2014
p5
aVGSW @ SAC
p6
aVW
p7
aI8
aI2
aI2
aF1.0
aI0
aI0
aF0.0
aI1
aI2
aF0.5
aI0
aI1
aI1
aI0
aI0
aI0
aI0
aI4
aI5
aI-1
aa(lp8
V0021400038
p9
aVNOV 01, 2014
p10
aVGSW vs. LAL
p11
aVW
p12
aI13
aI1
aI1
aF1.0
aI0
aI0
aF0.0
aI1
aI2
aF0.5
aI2
aI2
aI4
aI1
aI0
aI1
aI2
aI4
aI3
aI-4
aa(lp13
V0021400042
p14
aVNOV 02, 2014
p15
aVGSW @ POR
p16
aVW
p17
aI13
aI2
aI2
aF1.0
aI0
aI0
aF0.0
aI0
aI0
aF0.0
aI1
aI3
aI4
aI0
aI1
aI3
aI1
aI0
aI4
aI-2
aa(lp18
V0021400068
p19
aVNOV 05, 2014
p20
aVGSW vs. LAC
p21
aVW
p22
aI10
aI0
aI1
aF0.0
aI0
aI0
aF0.0
aI0
aI0
aF0.0
aI0
aI2
aI2
aI0
aI2
aI0
aI4
aI2
aI0
aI5
aa(lp23
V0021400087
p24
aVNOV 08, 2014
p25
aVGSW @ HOU
p26
aVW
p27
aI3
aI0
aI1
aF0.0
aI0
aI0
aF0.0
aI0
aI0
aF0.0
aI1
aI0
aI1
aI0
aI0
aI1
aI0
aI1
aI0
aI-6
aa(lp28
V0021400095
p29
aVNOV 09, 2014
p30
aVGSW @ PHX
p31
aVL
p32
aI10
aI2
aI2
aF1.0
aI0
aI0
aF0.0
aI0
aI0
aF0.0
aI0
aI2
aI2
aI0
aI0
aI0
aI1
aI4
aI4
aI-1
aa(lp33
V0021400108
p34
aVNOV 11, 2014
p35
aVGSW vs. SAS
p36
aVL
p37
aI10
aI1
aI1
aF1.0
aI0
aI0
aF0.0
aI1
aI2
aF0.5
aI1
aI4
aI5
aI0
aI0
aI1
aI1
aI0
aI3
aI-5
aa(lp38
V0021400140
p39
aVNOV 15, 2014
p40
aVGSW vs. CHA
p41
aVW
p42
aI12
aI3
aI6
aF0.5
aI0
aI0
aF0.0
aI2
aI3
aF0.667
aI2
aI3
aI5
aI0
aI0
aI0
aI1
aI2
aI8
aI-3
aa(lp43
V0021400145
p44
aVNOV 16, 2014
p45
aVGSW @ LAL
p46
aVW
p47
aI11
aI1
aI2
aF0.5
aI0
aI0
aF0.0
aI1
aI2
aF0.5
aI2
aI1
aI3
aI0
aI0
aI0
aI3
aI3
aI3
aI-13
aa(lp48
V0021400182
p49
aVNOV 21, 2014
p50
aVGSW vs. UTA
p51
aVW
p52
aI8
aI0
aI1
aF0.0
aI0
aI0
aF0.0
aI0
aI0
aF0.0
aI0
aI1
aI1
aI1
aI0
aI1
aI0
aI1
aI0
aI-7
aa(lp53
V0021400196
p54
aVNOV 23, 2014
p55
aVGSW @ OKC
p56
aVW
p57
aI14
aI3
aI7
aF0.429
aI0
aI0
aF0.0
aI0
aI0
aF0.0
aI2
aI0
aI2
aI1
aI1
aI2
aI2
aI6
aI6
aI-3
aa(lp58
V0021400212
p59
aVNOV 26, 2014
p60
aVGSW @ ORL
p61
aVW
p62
aI4
aI0
aI0
aF0.0
aI0
aI0
aF0.0
aI0
aI0
aF0.0
aI0
aI0
aI0
aI0
aI0
aI0
aI0
aI0
aI0
aI-10
aa(lp63
V0021400275
p64
aVDEC 04, 2014
p65
aVGSW vs. NOP
p66
aVW
p67
aI2
aI0
aI0
aF0.0
aI0
aI0
aF0.0
aI1
aI4
aF0.25
aI0
aI0
aI0
aI0
aI0
aI0
aI0
aI0
aI1
aI5
aa(lp68
V0021400305
p69
aVDEC 08, 2014
p70
aVGSW @ MIN
p71
aVW
p72
aI21
aI3
aI4
aF0.75
aI0
aI0
aF0.0
aI1
aI2
aF0.5
aI3
aI5
aI8
aI0
aI0
aI1
aI2
aI3
aI7
aI5
aa(lp73
V0021400324
p74
aVDEC 10, 2014
p75
aVGSW vs. HOU
p76
aVW
p77
aI16
aI2
aI4
aF0.5
aI0
aI0
aF0.0
aI3
aI4
aF0.75
aI0
aI3
aI3
aI0
aI0
aI0
aI0
aI2
aI7
aI-4
aa(lp78
V0021400340
p79
aVDEC 13, 2014
p80
aVGSW @ DAL
p81
aVW
p82
aI17
aI1
aI2
aF0.5
aI0
aI0
aF0.0
aI2
aI2
aF1.0
aI2
aI0
aI2
aI0
aI0
aI2
aI0
aI4
aI4
aI14
aa(lp83
V0021400348
p84
aVDEC 14, 2014
p85
aVGSW @ NOP
p86
aVW
p87
aI20
aI1
aI2
aF0.5
aI0
aI0
aF0.0
aI2
aI2
aF1.0
aI1
aI4
aI5
aI0
aI0
aI2
aI1
aI1
aI4
aI9
aa(lp88
V0021400365
p89
aVDEC 16, 2014
p90
aVGSW @ MEM
p91
aVL
p92
aI13
aI1
aI3
aF0.333
aI0
aI0
aF0.0
aI1
aI2
aF0.5
aI2
aI3
aI5
aI0
aI0
aI1
aI1
aI4
aI3
aI-4
aa(lp93
V0021400382
p94
aVDEC 18, 2014
p95
aVGSW vs. OKC
p96
aVW
p97
aI10
aI2
aI4
aF0.5
aI0
aI0
aF0.0
aI0
aI0
aF0.0
aI0
aI2
aI2
aI1
aI0
aI1
aI0
aI3
aI4
aI-5
aa(lp98
V0021400415
p99
aVDEC 22, 2014
p100
aVGSW vs. SAC
p101
aVW
p102
aI18
aI7
aI11
aF0.636
aI0
aI0
aF0.0
aI1
aI2
aF0.5
aI3
aI3
aI6
aI0
aI0
aI2
aI3
aI4
aI15
aI4
aa(lp103
V0021400426
p104
aVDEC 23, 2014
p105
aVGSW @ LAL
p106
aVL
p107
aI14
aI4
aI8
aF0.5
aI0
aI0
aF0.0
aI2
aI2
aF1.0
aI2
aI0
aI2
aI1
aI0
aI0
aI1
aI1
aI10
aI-9
aa(lp108
V0021400730
p109
aVFEB 03, 2015
p110
aVGSW @ SAC
p111
aVW
p112
aI8
aI1
aI2
aF0.5
aI0
aI0
aF0.0
aI0
aI2
aF0.0
aI4
aI1
aI5
aI0
aI0
aI0
aI1
aI2
aI2
aI0
aa(lp113
V0021400814
p114
aVFEB 20, 2015
p115
aVGSW vs. SAS
p116
aVW
p117
aI3
aI0
aI2
aF0.0
aI0
aI0
aF0.0
aI0
aI0
aF0.0
aI0
aI0
aI0
aI0
aI0
aI1
aI0
aI0
aI0
aI-4
aa(lp118
V0021400861
p119
aVFEB 27, 2015
p120
aVGSW @ TOR
p121
aVW
p122
aI8
aI0
aI2
aF0.0
aI0
aI0
aF0.0
aI0
aI0
aF0.0
aI0
aI1
aI1
aI0
aI0
aI1
aI0
aI0
aI0
aI8
aa(lp123
V0021400886
p124
aVMAR 02, 2015
p125
aVGSW @ BKN
p126
aVL
p127
aI15
aI4
aI6
aF0.667
aI0
aI0
aF0.0
aI6
aI7
aF0.857
aI3
aI5
aI8
aI0
aI0
aI1
aI2
aI2
aI14
aI4
aa(lp128
V0021400907
p129
aVMAR 04, 2015
p130
aVGSW vs. MIL
p131
aVW
p132
aI5
aI1
aI1
aF1.0
aI0
aI0
aF0.0
aI0
aI0
aF0.0
aI0
aI2
aI2
aI0
aI1
aI1
aI0
aI1
aI2
aI8
aa(lp133
V0021400922
p134
aVMAR 06, 2015
p135
aVGSW vs. DAL
p136
aVW
p137
aI10
aI3
aI4
aF0.75
aI0
aI0
aF0.0
aI2
aI2
aF1.0
aI1
aI2
aI3
aI0
aI0
aI1
aI1
aI1
aI8
aI3
aa(lp138
V0021400932
p139
aVMAR 08, 2015
p140
aVGSW vs. LAC
p141
aVW
p142
aI4
aI0
aI0
aF0.0
aI0
aI0
aF0.0
aI0
aI0
aF0.0
aI0
aI1
aI1
aI0
aI0
aI0
aI0
aI0
aI0
aI0
aa(lp143
V0021400944
p144
aVMAR 09, 2015
p145
aVGSW @ PHX
p146
aVW
p147
aI15
aI1
aI3
aF0.333
aI0
aI0
aF0.0
aI1
aI1
aF1.0
aI1
aI7
aI8
aI0
aI0
aI1
aI1
aI1
aI3
aI-8
aa(lp148
V0021400973
p149
aVMAR 13, 2015
p150
aVGSW @ DEN
p151
aVL
p152
aI17
aI4
aI6
aF0.667
aI0
aI0
aF0.0
aI1
aI2
aF0.5
aI2
aI4
aI6
aI1
aI1
aI4
aI0
aI3
aI9
aI5
aa(lp153
V0021400981
p154
aVMAR 14, 2015
p155
aVGSW vs. NYK
p156
aVW
p157
aI7
aI0
aI3
aF0.0
aI0
aI0
aF0.0
aI0
aI0
aF0.0
aI0
aI1
aI1
aI0
aI0
aI0
aI0
aI1
aI0
aI-3
aa(lp158
V0021400999
p159
aVMAR 16, 2015
p160
aVGSW vs. LAL
p161
aVW
p162
aI8
aI2
aI3
aF0.667
aI0
aI0
aF0.0
aI2
aI2
aF1.0
aI2
aI1
aI3
aI0
aI0
aI1
aI0
aI0
aI6
aI10
aa(lp163
V0021401014
p164
aVMAR 18, 2015
p165
aVGSW vs. ATL
p166
aVW
p167
aI10
aI1
aI2
aF0.5
aI0
aI0
aF0.0
aI0
aI0
aF0.0
aI0
aI1
aI1
aI0
aI0
aI2
aI0
aI2
aI2
aI17
aa(lp168
V0021401030
p169
aVMAR 20, 2015
p170
aVGSW vs. NOP
p171
aVW
p172
aI14
aI1
aI2
aF0.5
aI0
aI0
aF0.0
aI2
aI4
aF0.5
aI3
aI1
aI4
aI0
aI0
aI0
aI0
aI0
aI4
aI2
aa(lp173
V0021401036
p174
aVMAR 21, 2015
p175
aVGSW vs. UTA
p176
aVW
p177
aI4
aI0
aI0
aF0.0
aI0
aI0
aF0.0
aI0
aI0
aF0.0
aI0
aI0
aI0
aI0
aI0
aI0
aI0
aI0
aI0
aI-1
aa(lp178
V0021401053
p179
aVMAR 23, 2015
p180
aVGSW vs. WAS
p181
aVW
p182
aI14
aI1
aI5
aF0.2
aI0
aI0
aF0.0
aI2
aI2
aF1.0
aI4
aI6
aI10
aI0
aI0
aI2
aI0
aI2
aI4
aI-1
aa(lp183
V0021401059
p184
aVMAR 24, 2015
p185
aVGSW @ POR
p186
aVW
p187
aI11
aI2
aI3
aF0.667
aI0
aI0
aF0.0
aI0
aI0
aF0.0
aI1
aI2
aI3
aI1
aI0
aI1
aI0
aI3
aI4
aI3
aa(lp188
V0021401082
p189
aVMAR 27, 2015
p190
aVGSW @ MEM
p191
aVW
p192
aI15
aI1
aI4
aF0.25
aI0
aI0
aF0.0
aI2
aI2
aF1.0
aI3
aI5
aI8
aI0
aI0
aI2
aI0
aI2
aI4
aI-2
aa(lp193
V0021401089
p194
aVMAR 28, 2015
p195
aVGSW @ MIL
p196
aVW
p197
aI3
aI0
aI0
aF0.0
aI0
aI0
aF0.0
aI0
aI0
aF0.0
aI1
aI0
aI1
aI1
aI0
aI0
aI1
aI0
aI0
aI-2
aa(lp198
V0021401111
p199
aVMAR 31, 2015
p200
aVGSW @ LAC
p201
aVW
p202
aI11
aI3
aI3
aF1.0
aI0
aI0
aF0.0
aI0
aI0
aF0.0
aI0
aI3
aI3
aI0
aI0
aI0
aI1
aI0
aI6
aI-3
aa(lp203
V0021401126
p204
aVAPR 02, 2015
p205
aVGSW vs. PHX
p206
aVW
p207
aI3
aI1
aI2
aF0.5
aI0
aI0
aF0.0
aI0
aI0
aF0.0
aI0
aI1
aI1
aI0
aI0
aI0
aI0
aI1
aI2
aI3
aa(lp208
V0021401142
p209
aVAPR 04, 2015
p210
aVGSW @ DAL
p211
aVW
p212
aI15
aI4
aI6
aF0.667
aI0
aI0
aF0.0
aI2
aI4
aF0.5
aI5
aI4
aI9
aI0
aI1
aI1
aI0
aI4
aI10
aI15
aa(lp213
V0021401150
p214
aVAPR 05, 2015
p215
aVGSW @ SAS
p216
aVL
p217
aI12
aI2
aI4
aF0.5
aI0
aI0
aF0.0
aI1
aI2
aF0.5
aI2
aI2
aI4
aI0
aI0
aI0
aI0
aI0
aI5
aI10
aa(lp218
V0021401192
p219
aVAPR 11, 2015
p220
aVGSW vs. MIN
p221
aVW
p222
aI12
aI2
aI2
aF1.0
aI0
aI0
aF0.0
aI3
aI6
aF0.5
aI1
aI1
aI2
aI0
aI0
aI1
aI0
aI0
aI7
aI-5
aa(lp223
V0021401212
p224
aVAPR 13, 2015
p225
aVGSW vs. MEM
p226
aVW
p227
aI18
aI3
aI5
aF0.6
aI0
aI0
aF0.0
aI3
aI5
aF0.6
aI1
aI4
aI5
aI1
aI0
aI3
aI1
aI2
aI9
aI2
aa(lp228
V0021401229
p229
aVAPR 15, 2015
p230
aVGSW vs. DEN
p231
aVW
p232
aI15
aI3
aI5
aF0.6
aI0
aI0
aF0.0
aI3
aI6
aF0.5
aI2
aI1
aI3
aI0
aI0
aI1
aI1
aI1
aI9
aI-10
aasS'name'
p233
VFestus Ezeli
p234
sS'weight'
p235
V265
p236
sS'age'
p237
I25
sS'experience'
p238
I2
sS'height'
p239
V6-11
p240
sS'position'
p241
VCenter
p242
s.