(dp0
S'stats'
p1
(lp2
(lp3
V0021400005
p4
aVOCT 29, 2014
p5
aVPHI @ IND
p6
aVL
p7
aI32
aI5
aI10
aF0.5
aI1
aI4
aF0.25
aI1
aI2
aF0.5
aI0
aI1
aI1
aI1
aI1
aI0
aI2
aI1
aI12
aI1
aa(lp8
V0021400023
p9
aVOCT 31, 2014
p10
aVPHI @ MIL
p11
aVL
p12
aI29
aI1
aI11
aF0.091
aI1
aI6
aF0.167
aI1
aI2
aF0.5
aI2
aI6
aI8
aI0
aI0
aI1
aI1
aI1
aI4
aI-1
aa(lp13
V0021400030
p14
aVNOV 01, 2014
p15
aVPHI vs. MIA
p16
aVL
p17
aI21
aI2
aI4
aF0.5
aI1
aI3
aF0.333
aI0
aI0
aF0.0
aI0
aI2
aI2
aI0
aI3
aI0
aI2
aI5
aI5
aI3
aa(lp18
V0021400043
p19
aVNOV 03, 2014
p20
aVPHI vs. HOU
p21
aVL
p22
aI16
aI1
aI3
aF0.333
aI1
aI3
aF0.333
aI0
aI0
aF0.0
aI0
aI3
aI3
aI0
aI0
aI0
aI0
aI0
aI3
aI-2
aa(lp23
V0021400058
p24
aVNOV 05, 2014
p25
aVPHI vs. ORL
p26
aVL
p27
aI13
aI0
aI5
aF0.0
aI0
aI4
aF0.0
aI0
aI0
aF0.0
aI0
aI1
aI1
aI0
aI0
aI1
aI0
aI1
aI0
aI2
aa(lp28
V0021400073
p29
aVNOV 07, 2014
p30
aVPHI vs. CHI
p31
aVL
p32
aI22
aI3
aI6
aF0.5
aI2
aI4
aF0.5
aI0
aI0
aF0.0
aI0
aI3
aI3
aI1
aI1
aI1
aI1
aI4
aI8
aI6
aa(lp33
V0021400093
p34
aVNOV 09, 2014
p35
aVPHI @ TOR
p36
aVL
p37
aI29
aI5
aI12
aF0.417
aI4
aI9
aF0.444
aI2
aI2
aF1.0
aI0
aI1
aI1
aI1
aI3
aI2
aI0
aI5
aI16
aI-9
aa(lp38
V0021400120
p39
aVNOV 13, 2014
p40
aVPHI @ DAL
p41
aVL
p42
aI15
aI1
aI5
aF0.2
aI0
aI3
aF0.0
aI2
aI2
aF1.0
aI1
aI2
aI3
aI0
aI1
aI0
aI3
aI2
aI4
aI-28
aa(lp43
V0021400127
p44
aVNOV 14, 2014
p45
aVPHI @ HOU
p46
aVL
p47
aI10
aI1
aI4
aF0.25
aI0
aI3
aF0.0
aI0
aI0
aF0.0
aI0
aI4
aI4
aI0
aI0
aI0
aI0
aI0
aI2
aI14
aa(lp48
V0021400740
p49
aVFEB 04, 2015
p50
aVUTA vs. MEM
p51
aVL
p52
aI17
aI2
aI3
aF0.667
aI1
aI2
aF0.5
aI0
aI0
aF0.0
aI0
aI1
aI1
aI0
aI1
aI0
aI0
aI0
aI5
aI-6
aa(lp53
V0021400756
p54
aVFEB 06, 2015
p55
aVUTA @ PHX
p56
aVL
p57
aI21
aI3
aI6
aF0.5
aI3
aI5
aF0.6
aI0
aI0
aF0.0
aI0
aI2
aI2
aI3
aI2
aI0
aI0
aI1
aI9
aI4
aa(lp58
V0021400929
p59
aVMAR 07, 2015
p60
aVMIL vs. WAS
p61
aVW
p62
aI21
aI3
aI5
aF0.6
aI1
aI3
aF0.333
aI0
aI0
aF0.0
aI0
aI0
aI0
aI1
aI1
aI1
aI0
aI0
aI7
aI-1
aa(lp63
V0021400942
p64
aVMAR 09, 2015
p65
aVMIL vs. NOP
p66
aVL
p67
aI18
aI3
aI5
aF0.6
aI1
aI2
aF0.5
aI0
aI0
aF0.0
aI2
aI1
aI3
aI1
aI0
aI0
aI0
aI1
aI7
aI-12
aa(lp68
V0021400956
p69
aVMAR 11, 2015
p70
aVMIL vs. ORL
p71
aVW
p72
aI15
aI1
aI2
aF0.5
aI0
aI1
aF0.0
aI0
aI0
aF0.0
aI0
aI3
aI3
aI1
aI0
aI1
aI0
aI0
aI2
aI1
aa(lp73
V0021400962
p74
aVMAR 12, 2015
p75
aVMIL @ IND
p76
aVL
p77
aI24
aI0
aI3
aF0.0
aI0
aI2
aF0.0
aI2
aI2
aF1.0
aI0
aI1
aI1
aI0
aI2
aI0
aI0
aI3
aI2
aI-9
aa(lp78
V0021400979
p79
aVMAR 14, 2015
p80
aVMIL @ MEM
p81
aVL
p82
aI22
aI2
aI5
aF0.4
aI1
aI4
aF0.25
aI0
aI0
aF0.0
aI0
aI3
aI3
aI0
aI0
aI0
aI0
aI0
aI5
aI-12
aa(lp83
V0021401003
p84
aVMAR 17, 2015
p85
aVMIL @ NOP
p86
aVL
p87
aI3
aI0
aI0
aF0.0
aI0
aI0
aF0.0
aI0
aI0
aF0.0
aI0
aI0
aI0
aI0
aI0
aI0
aI0
aI2
aI0
aI-2
aa(lp88
V0021401010
p89
aVMAR 18, 2015
p90
aVMIL vs. SAS
p91
aVL
p92
aI10
aI2
aI4
aF0.5
aI2
aI3
aF0.667
aI0
aI0
aF0.0
aI0
aI1
aI1
aI2
aI1
aI0
aI0
aI1
aI6
aI-1
aa(lp93
V0021401037
p94
aVMAR 22, 2015
p95
aVMIL vs. CLE
p96
aVL
p97
aI15
aI1
aI6
aF0.167
aI0
aI3
aF0.0
aI0
aI0
aF0.0
aI0
aI0
aI0
aI0
aI1
aI0
aI0
aI0
aI2
aI-14
aa(lp98
V0021401085
p99
aVMAR 27, 2015
p100
aVUTA @ DEN
p101
aVL
p102
aI17
aI1
aI3
aF0.333
aI1
aI3
aF0.333
aI3
aI3
aF1.0
aI0
aI0
aI0
aI0
aI1
aI0
aI1
aI1
aI6
aI-14
aa(lp103
V0021401090
p104
aVMAR 28, 2015
p105
aVUTA vs. OKC
p106
aVW
p107
aI15
aI2
aI5
aF0.4
aI1
aI3
aF0.333
aI0
aI0
aF0.0
aI1
aI2
aI3
aI0
aI1
aI0
aI0
aI2
aI5
aI8
aa(lp108
V0021401106
p109
aVMAR 30, 2015
p110
aVUTA @ MIN
p111
aVW
p112
aI18
aI3
aI9
aF0.333
aI0
aI6
aF0.0
aI0
aI0
aF0.0
aI0
aI1
aI1
aI1
aI1
aI0
aI1
aI1
aI6
aI18
aa(lp113
V0021401121
p114
aVAPR 01, 2015
p115
aVUTA vs. DEN
p116
aVW
p117
aI12
aI2
aI5
aF0.4
aI0
aI3
aF0.0
aI0
aI0
aF0.0
aI0
aI2
aI2
aI0
aI0
aI0
aI0
aI1
aI4
aI-3
aa(lp118
V0021401145
p119
aVAPR 04, 2015
p120
aVUTA @ PHX
p121
aVL
p122
aI5
aI0
aI0
aF0.0
aI0
aI0
aF0.0
aI0
aI0
aF0.0
aI0
aI0
aI0
aI0
aI1
aI0
aI0
aI3
aI0
aI2
aa(lp123
V0021401152
p124
aVAPR 05, 2015
p125
aVUTA @ SAC
p126
aVW
p127
aI11
aI1
aI4
aF0.25
aI1
aI2
aF0.5
aI0
aI0
aF0.0
aI0
aI0
aI0
aI0
aI2
aI0
aI1
aI2
aI3
aI1
aa(lp128
V0021401170
p129
aVAPR 08, 2015
p130
aVUTA vs. SAC
p131
aVW
p132
aI17
aI1
aI4
aF0.25
aI1
aI4
aF0.25
aI3
aI3
aF1.0
aI0
aI0
aI0
aI1
aI1
aI0
aI0
aI2
aI6
aI2
aa(lp133
V0021401191
p134
aVAPR 11, 2015
p135
aVUTA @ POR
p136
aVW
p137
aI25
aI5
aI9
aF0.556
aI1
aI3
aF0.333
aI0
aI0
aF0.0
aI2
aI4
aI6
aI1
aI0
aI0
aI0
aI0
aI11
aI15
aa(lp138
V0021401210
p139
aVAPR 13, 2015
p140
aVUTA vs. DAL
p141
aVW
p142
aI23
aI5
aI6
aF0.833
aI3
aI3
aF1.0
aI0
aI0
aF0.0
aI0
aI1
aI1
aI1
aI1
aI0
aI2
aI4
aI13
aI20
aa(lp143
V0021401219
p144
aVAPR 15, 2015
p145
aVUTA @ HOU
p146
aVL
p147
aI30
aI6
aI10
aF0.6
aI1
aI4
aF0.25
aI0
aI0
aF0.0
aI0
aI2
aI2
aI0
aI1
aI0
aI1
aI1
aI13
aI-14
aasS'name'
p148
VChris Johnson
p149
sS'weight'
p150
V206
p151
sS'age'
p152
I24
sS'experience'
p153
I2
sS'height'
p154
V6-6
p155
sS'position'
p156
VForward
p157
s.