(dp0
S'stats'
p1
(lp2
(lp3
V0021400015
p4
aVOCT 29, 2014
p5
aVOKC @ POR
p6
aVL
p7
aI31
aI1
aI9
aF0.111
aI0
aI3
aF0.0
aI1
aI2
aF0.5
aI1
aI2
aI3
aI0
aI0
aI0
aI0
aI2
aI3
aI2
aa(lp8
V0021400020
p9
aVOCT 30, 2014
p10
aVOKC @ LAC
p11
aVL
p12
aI42
aI10
aI17
aF0.588
aI3
aI6
aF0.5
aI9
aI11
aF0.818
aI1
aI6
aI7
aI3
aI0
aI1
aI5
aI4
aI32
aI3
aa(lp13
V0021400036
p14
aVNOV 01, 2014
p15
aVOKC vs. DEN
p16
aVW
p17
aI41
aI8
aI17
aF0.471
aI2
aI6
aF0.333
aI2
aI4
aF0.5
aI0
aI4
aI4
aI2
aI2
aI0
aI3
aI3
aI20
aI13
aa(lp18
V0021400044
p19
aVNOV 03, 2014
p20
aVOKC @ BKN
p21
aVL
p22
aI34
aI6
aI12
aF0.5
aI2
aI5
aF0.4
aI2
aI2
aF1.0
aI0
aI4
aI4
aI1
aI0
aI0
aI2
aI1
aI16
aI-22
aa(lp23
V0021400052
p24
aVNOV 04, 2014
p25
aVOKC @ TOR
p26
aVL
p27
aI18
aI2
aI4
aF0.5
aI0
aI1
aF0.0
aI0
aI0
aF0.0
aI0
aI1
aI1
aI0
aI0
aI0
aI1
aI3
aI4
aI6
aa(lp28
V0021400277
p29
aVDEC 05, 2014
p30
aVOKC @ PHI
p31
aVW
p32
aI6
aI0
aI1
aF0.0
aI0
aI1
aF0.0
aI0
aI0
aF0.0
aI0
aI0
aI0
aI0
aI1
aI0
aI0
aI0
aI0
aI-2
aa(lp33
V0021400312
p34
aVDEC 09, 2014
p35
aVOKC vs. MIL
p36
aVW
p37
aI22
aI2
aI6
aF0.333
aI1
aI3
aF0.333
aI0
aI0
aF0.0
aI0
aI2
aI2
aI1
aI0
aI0
aI2
aI4
aI5
aI3
aa(lp38
V0021400335
p39
aVDEC 12, 2014
p40
aVOKC @ MIN
p41
aVW
p42
aI6
aI0
aI0
aF0.0
aI0
aI0
aF0.0
aI0
aI0
aF0.0
aI0
aI0
aI0
aI0
aI0
aI0
aI0
aI0
aI0
aI2
aa(lp43
V0021400352
p44
aVDEC 14, 2014
p45
aVOKC vs. PHX
p46
aVW
p47
aI22
aI3
aI5
aF0.6
aI0
aI2
aF0.0
aI1
aI3
aF0.333
aI0
aI2
aI2
aI1
aI0
aI1
aI0
aI2
aI7
aI-3
aa(lp48
V0021400368
p49
aVDEC 16, 2014
p50
aVOKC @ SAC
p51
aVW
p52
aI1
aI0
aI0
aF0.0
aI0
aI0
aF0.0
aI0
aI0
aF0.0
aI0
aI1
aI1
aI0
aI0
aI0
aI1
aI0
aI0
aI0
aa(lp53
V0021400382
p54
aVDEC 18, 2014
p55
aVOKC @ GSW
p56
aVL
p57
aI19
aI2
aI7
aF0.286
aI0
aI3
aF0.0
aI0
aI0
aF0.0
aI0
aI5
aI5
aI0
aI0
aI0
aI0
aI1
aI4
aI-21
aa(lp58
V0021400392
p59
aVDEC 19, 2014
p60
aVOKC @ LAL
p61
aVW
p62
aI12
aI0
aI2
aF0.0
aI0
aI0
aF0.0
aI0
aI0
aF0.0
aI0
aI0
aI0
aI0
aI0
aI0
aI0
aI0
aI0
aI-11
aa(lp63
V0021400408
p64
aVDEC 21, 2014
p65
aVOKC vs. NOP
p66
aVL
p67
aI27
aI5
aI9
aF0.556
aI1
aI2
aF0.5
aI1
aI1
aF1.0
aI0
aI4
aI4
aI0
aI0
aI1
aI0
aI1
aI12
aI6
aa(lp68
V0021400424
p69
aVDEC 23, 2014
p70
aVOKC vs. POR
p71
aVL
p72
aI25
aI0
aI5
aF0.0
aI0
aI2
aF0.0
aI0
aI0
aF0.0
aI0
aI3
aI3
aI0
aI1
aI0
aI2
aI4
aI0
aI-22
aa(lp73
V0021400428
p74
aVDEC 25, 2014
p75
aVOKC @ SAS
p76
aVW
p77
aI31
aI5
aI7
aF0.714
aI2
aI2
aF1.0
aI2
aI5
aF0.4
aI0
aI1
aI1
aI0
aI0
aI0
aI0
aI1
aI14
aI0
aa(lp78
V0021400438
p79
aVDEC 26, 2014
p80
aVOKC vs. CHA
p81
aVW
p82
aI21
aI2
aI5
aF0.4
aI0
aI1
aF0.0
aI2
aI2
aF1.0
aI0
aI2
aI2
aI0
aI0
aI0
aI1
aI3
aI6
aI7
aa(lp83
V0021400455
p84
aVDEC 28, 2014
p85
aVOKC @ DAL
p86
aVL
p87
aI27
aI5
aI11
aF0.455
aI0
aI2
aF0.0
aI0
aI0
aF0.0
aI0
aI2
aI2
aI0
aI0
aI0
aI0
aI1
aI10
aI-1
aa(lp88
V0021400480
p89
aVDEC 31, 2014
p90
aVOKC vs. PHX
p91
aVW
p92
aI24
aI4
aI6
aF0.667
aI0
aI0
aF0.0
aI0
aI0
aF0.0
aI1
aI3
aI4
aI2
aI2
aI0
aI0
aI4
aI8
aI-5
aa(lp93
V0021400489
p94
aVJAN 02, 2015
p95
aVOKC vs. WAS
p96
aVW
p97
aI14
aI3
aI3
aF1.0
aI0
aI0
aF0.0
aI1
aI2
aF0.5
aI0
aI1
aI1
aI0
aI1
aI0
aI0
aI0
aI7
aI3
aa(lp98
V0021400518
p99
aVJAN 05, 2015
p100
aVOKC @ GSW
p101
aVL
p102
aI24
aI0
aI3
aF0.0
aI0
aI2
aF0.0
aI0
aI0
aF0.0
aI1
aI2
aI3
aI0
aI1
aI0
aI0
aI2
aI0
aI-22
aa(lp103
V0021400532
p104
aVJAN 07, 2015
p105
aVOKC @ SAC
p106
aVL
p107
aI16
aI1
aI3
aF0.333
aI1
aI2
aF0.5
aI0
aI0
aF0.0
aI0
aI2
aI2
aI0
aI2
aI0
aI0
aI1
aI3
aI-6
aa(lp108
V0021400584
p109
aVJAN 15, 2015
p110
aVOKC @ HOU
p111
aVL
p112
aI3
aI0
aI1
aF0.0
aI0
aI1
aF0.0
aI0
aI0
aF0.0
aI0
aI0
aI0
aI0
aI0
aI0
aI0
aI1
aI0
aI6
aa(lp113
V0021400593
p114
aVJAN 16, 2015
p115
aVOKC vs. GSW
p116
aVW
p117
aI1
aI0
aI0
aF0.0
aI0
aI0
aF0.0
aI0
aI0
aF0.0
aI0
aI0
aI0
aI0
aI0
aI0
aI0
aI1
aI0
aI-4
aa(lp118
V0021400609
p119
aVJAN 18, 2015
p120
aVOKC @ ORL
p121
aVW
p122
aI6
aI1
aI3
aF0.333
aI0
aI1
aF0.0
aI0
aI0
aF0.0
aI0
aI2
aI2
aI0
aI0
aI0
aI0
aI0
aI2
aI0
aa(lp123
V0021400642
p124
aVJAN 23, 2015
p125
aVOKC @ ATL
p126
aVL
p127
aI1
aI0
aI1
aF0.0
aI0
aI1
aF0.0
aI0
aI0
aF0.0
aI0
aI0
aI0
aI0
aI0
aI0
aI0
aI0
aI0
aI3
aa(lp128
V0021400672
p129
aVJAN 26, 2015
p130
aVOKC vs. MIN
p131
aVW
p132
aI24
aI2
aI6
aF0.333
aI0
aI2
aF0.0
aI2
aI2
aF1.0
aI0
aI3
aI3
aI1
aI0
aI2
aI1
aI0
aI6
aI-4
aa(lp133
V0021400688
p134
aVJAN 28, 2015
p135
aVOKC @ NYK
p136
aVL
p137
aI24
aI0
aI5
aF0.0
aI0
aI3
aF0.0
aI0
aI0
aF0.0
aI0
aI5
aI5
aI1
aI0
aI0
aI2
aI3
aI0
aI-10
aa(lp138
V0021400710
p139
aVJAN 31, 2015
p140
aVOKC @ MEM
p141
aVL
p142
aI2
aI0
aI0
aF0.0
aI0
aI0
aF0.0
aI0
aI0
aF0.0
aI0
aI0
aI0
aI0
aI0
aI0
aI0
aI0
aI0
aI3
aa(lp143
V0021400755
p144
aVFEB 06, 2015
p145
aVOKC vs. NOP
p146
aVL
p147
aI0
aI0
aI0
aF0.0
aI0
aI0
aF0.0
aI0
aI0
aF0.0
aI0
aI0
aI0
aI0
aI0
aI0
aI0
aI0
aI0
aI-3
aa(lp148
V0021400765
p149
aVFEB 08, 2015
p150
aVOKC vs. LAC
p151
aVW
p152
aI9
aI1
aI3
aF0.333
aI0
aI1
aF0.0
aI0
aI0
aF0.0
aI0
aI2
aI2
aI1
aI1
aI0
aI0
aI1
aI2
aI-6
aa(lp153
V0021400795
p154
aVFEB 11, 2015
p155
aVOKC vs. MEM
p156
aVW
p157
aI7
aI1
aI2
aF0.5
aI0
aI0
aF0.0
aI0
aI0
aF0.0
aI0
aI0
aI0
aI0
aI1
aI0
aI1
aI0
aI2
aI-11
aa(lp158
V0021400801
p159
aVFEB 19, 2015
p160
aVOKC vs. DAL
p161
aVW
p162
aI10
aI0
aI2
aF0.0
aI0
aI0
aF0.0
aI0
aI0
aF0.0
aI0
aI1
aI1
aI0
aI0
aI0
aI0
aI2
aI0
aI4
aa(lp163
V0021400826
p164
aVFEB 22, 2015
p165
aVOKC vs. DEN
p166
aVW
p167
aI9
aI1
aI2
aF0.5
aI1
aI1
aF1.0
aI0
aI0
aF0.0
aI0
aI4
aI4
aI1
aI0
aI1
aI1
aI0
aI3
aI-4
aa(lp168
V0021400840
p169
aVFEB 24, 2015
p170
aVOKC vs. IND
p171
aVW
p172
aI5
aI0
aI1
aF0.0
aI0
aI0
aF0.0
aI0
aI0
aF0.0
aI1
aI1
aI2
aI0
aI1
aI0
aI0
aI0
aI0
aI-10
aa(lp173
V0021400909
p174
aVMAR 05, 2015
p175
aVOKC @ CHI
p176
aVL
p177
aI0
aI0
aI0
aF0.0
aI0
aI0
aF0.0
aI0
aI0
aF0.0
aI0
aI0
aI0
aI0
aI0
aI0
aI0
aI0
aI0
aI-3
aa(lp178
V0021400971
p179
aVMAR 13, 2015
p180
aVOKC vs. MIN
p181
aVW
p182
aI2
aI0
aI1
aF0.0
aI0
aI0
aF0.0
aI0
aI0
aF0.0
aI0
aI1
aI1
aI0
aI0
aI1
aI0
aI0
aI0
aI-4
aa(lp183
V0021401026
p184
aVMAR 20, 2015
p185
aVOKC vs. ATL
p186
aVW
p187
aI6
aI1
aI1
aF1.0
aI0
aI0
aF0.0
aI0
aI0
aF0.0
aI0
aI0
aI0
aI0
aI0
aI0
aI0
aI0
aI2
aI5
aa(lp188
V0021401038
p189
aVMAR 22, 2015
p190
aVOKC vs. MIA
p191
aVW
p192
aI3
aI0
aI2
aF0.0
aI0
aI1
aF0.0
aI0
aI0
aF0.0
aI0
aI0
aI0
aI0
aI1
aI0
aI0
aI0
aI0
aI-4
aa(lp193
V0021401071
p194
aVMAR 25, 2015
p195
aVOKC @ SAS
p196
aVL
p197
aI24
aI3
aI13
aF0.231
aI0
aI3
aF0.0
aI0
aI0
aF0.0
aI1
aI3
aI4
aI2
aI1
aI0
aI1
aI4
aI6
aI-19
aa(lp198
V0021401090
p199
aVMAR 28, 2015
p200
aVOKC @ UTA
p201
aVL
p202
aI10
aI0
aI1
aF0.0
aI0
aI0
aF0.0
aI0
aI0
aF0.0
aI0
aI1
aI1
aI0
aI2
aI0
aI1
aI0
aI0
aI5
aa(lp203
V0021401120
p204
aVAPR 01, 2015
p205
aVOKC vs. DAL
p206
aVL
p207
aI6
aI0
aI1
aF0.0
aI0
aI1
aF0.0
aI0
aI0
aF0.0
aI0
aI0
aI0
aI2
aI0
aI0
aI0
aI0
aI0
aI-6
aa(lp208
V0021401157
p209
aVAPR 07, 2015
p210
aVOKC vs. SAS
p211
aVL
p212
aI15
aI4
aI6
aF0.667
aI1
aI2
aF0.5
aI1
aI3
aF0.333
aI0
aI0
aI0
aI0
aI0
aI1
aI0
aI1
aI10
aI5
aa(lp213
V0021401183
p214
aVAPR 10, 2015
p215
aVOKC vs. SAC
p216
aVW
p217
aI1
aI0
aI1
aF0.0
aI0
aI0
aF0.0
aI0
aI0
aF0.0
aI0
aI0
aI0
aI0
aI0
aI0
aI0
aI0
aI0
aI-3
aasS'name'
p218
VPerry Jones
p219
sS'weight'
p220
V235
p221
sS'age'
p222
I23
sS'experience'
p223
I2
sS'height'
p224
V6-11
p225
sS'position'
p226
VForward
p227
s.