(dp0
S'stats'
p1
(lp2
(lp3
V0021400610
p4
aVJAN 18, 2015
p5
aVSAS vs. UTA
p6
aVW
p7
aI6
aI0
aI0
aF0.0
aI0
aI0
aF0.0
aI0
aI0
aF0.0
aI0
aI1
aI1
aI0
aI0
aI0
aI1
aI0
aI0
aI-6
aa(lp8
V0021400624
p9
aVJAN 20, 2015
p10
aVSAS @ DEN
p11
aVW
p12
aI1
aI0
aI0
aF0.0
aI0
aI0
aF0.0
aI0
aI0
aF0.0
aI0
aI1
aI1
aI0
aI0
aI0
aI0
aI1
aI0
aI-1
aa(lp13
V0021400637
p14
aVJAN 22, 2015
p15
aVSAS @ CHI
p16
aVL
p17
aI15
aI4
aI7
aF0.571
aI0
aI2
aF0.0
aI0
aI0
aF0.0
aI3
aI0
aI3
aI0
aI0
aI2
aI0
aI4
aI8
aI2
aa(lp18
V0021400648
p19
aVJAN 23, 2015
p20
aVSAS vs. LAL
p21
aVW
p22
aI3
aI0
aI0
aF0.0
aI0
aI0
aF0.0
aI0
aI0
aF0.0
aI0
aI1
aI1
aI0
aI0
aI0
aI1
aI1
aI0
aI-3
aa(lp23
V0021400754
p24
aVFEB 06, 2015
p25
aVMEM @ MIN
p26
aVL
p27
aI9
aI3
aI3
aF1.0
aI0
aI0
aF0.0
aI2
aI2
aF1.0
aI0
aI2
aI2
aI0
aI0
aI0
aI1
aI2
aI8
aI8
aa(lp28
V0021400795
p29
aVFEB 11, 2015
p30
aVMEM @ OKC
p31
aVL
p32
aI4
aI0
aI2
aF0.0
aI0
aI1
aF0.0
aI0
aI0
aF0.0
aI1
aI2
aI3
aI0
aI0
aI0
aI2
aI1
aI0
aI1
aa(lp33
V0021400852
p34
aVFEB 25, 2015
p35
aVMEM @ SAC
p36
aVL
p37
aI1
aI0
aI0
aF0.0
aI0
aI0
aF0.0
aI0
aI0
aF0.0
aI0
aI0
aI0
aI0
aI0
aI0
aI0
aI0
aI0
aI0
aa(lp38
V0021400864
p39
aVFEB 27, 2015
p40
aVMEM vs. LAC
p41
aVL
p42
aI2
aI0
aI0
aF0.0
aI0
aI0
aF0.0
aI0
aI0
aF0.0
aI0
aI0
aI0
aI0
aI0
aI0
aI0
aI0
aI0
aI-1
aa(lp43
V0021400894
p44
aVMAR 03, 2015
p45
aVMEM vs. UTA
p46
aVL
p47
aI6
aI1
aI2
aF0.5
aI0
aI0
aF0.0
aI0
aI0
aF0.0
aI1
aI0
aI1
aI0
aI0
aI0
aI0
aI1
aI2
aI-1
aa(lp48
V0021400941
p49
aVMAR 09, 2015
p50
aVMEM @ CHI
p51
aVW
p52
aI2
aI0
aI0
aF0.0
aI0
aI0
aF0.0
aI1
aI2
aF0.5
aI1
aI0
aI1
aI0
aI0
aI0
aI0
aI0
aI1
aI-3
aa(lp53
V0021400954
p54
aVMAR 11, 2015
p55
aVMEM @ BOS
p56
aVL
p57
aI5
aI2
aI3
aF0.667
aI0
aI0
aF0.0
aI0
aI0
aF0.0
aI1
aI3
aI4
aI0
aI0
aI0
aI1
aI0
aI4
aI-6
aa(lp58
V0021400963
p59
aVMAR 12, 2015
p60
aVMEM @ WAS
p61
aVL
p62
aI33
aI6
aI11
aF0.545
aI0
aI1
aF0.0
aI1
aI2
aF0.5
aI2
aI4
aI6
aI1
aI0
aI1
aI3
aI4
aI13
aI-16
aa(lp63
V0021400979
p64
aVMAR 14, 2015
p65
aVMEM vs. MIL
p66
aVW
p67
aI2
aI0
aI0
aF0.0
aI0
aI0
aF0.0
aI0
aI0
aF0.0
aI0
aI0
aI0
aI0
aI0
aI0
aI0
aI1
aI0
aI-4
aa(lp68
V0021401027
p69
aVMAR 20, 2015
p70
aVMEM @ DAL
p71
aVW
p72
aI1
aI0
aI0
aF0.0
aI0
aI0
aF0.0
aI0
aI0
aF0.0
aI0
aI0
aI0
aI0
aI0
aI0
aI0
aI0
aI0
aI-4
aa(lp73
V0021401050
p74
aVMAR 23, 2015
p75
aVMEM @ NYK
p76
aVW
p77
aI6
aI0
aI1
aF0.0
aI0
aI0
aF0.0
aI0
aI0
aF0.0
aI1
aI3
aI4
aI0
aI0
aI0
aI0
aI2
aI0
aI-2
aa(lp78
V0021401066
p79
aVMAR 25, 2015
p80
aVMEM vs. CLE
p81
aVL
p82
aI6
aI1
aI2
aF0.5
aI0
aI0
aF0.0
aI2
aI2
aF1.0
aI1
aI0
aI1
aI0
aI0
aI0
aI0
aI0
aI4
aI4
aa(lp83
V0021401082
p84
aVMAR 27, 2015
p85
aVMEM vs. GSW
p86
aVL
p87
aI3
aI0
aI0
aF0.0
aI0
aI0
aF0.0
aI0
aI0
aF0.0
aI0
aI1
aI1
aI1
aI0
aI0
aI1
aI0
aI0
aI-4
aa(lp88
V0021401098
p89
aVMAR 29, 2015
p90
aVMEM @ SAS
p91
aVL
p92
aI1
aI0
aI0
aF0.0
aI0
aI0
aF0.0
aI0
aI0
aF0.0
aI0
aI0
aI0
aI0
aI0
aI0
aI0
aI0
aI0
aI-2
aa(lp93
V0021401105
p94
aVMAR 30, 2015
p95
aVMEM vs. SAC
p96
aVW
p97
aI4
aI1
aI2
aF0.5
aI0
aI0
aF0.0
aI0
aI0
aF0.0
aI0
aI0
aI0
aI0
aI0
aI0
aI0
aI0
aI2
aI-5
aa(lp98
V0021401141
p99
aVAPR 04, 2015
p100
aVMEM vs. WAS
p101
aVL
p102
aI8
aI2
aI4
aF0.5
aI0
aI0
aF0.0
aI0
aI0
aF0.0
aI3
aI0
aI3
aI1
aI0
aI0
aI1
aI1
aI4
aI3
aa(lp103
V0021401166
p104
aVAPR 08, 2015
p105
aVMEM vs. NOP
p106
aVW
p107
aI5
aI1
aI2
aF0.5
aI0
aI1
aF0.0
aI0
aI0
aF0.0
aI1
aI1
aI2
aI0
aI1
aI0
aI0
aI0
aI2
aI3
aa(lp108
V0021401190
p109
aVAPR 11, 2015
p110
aVMEM @ LAC
p111
aVL
p112
aI17
aI2
aI3
aF0.667
aI0
aI0
aF0.0
aI0
aI0
aF0.0
aI0
aI2
aI2
aI1
aI2
aI1
aI0
aI2
aI4
aI-5
aa(lp113
V0021401212
p114
aVAPR 13, 2015
p115
aVMEM @ GSW
p116
aVL
p117
aI24
aI4
aI5
aF0.8
aI0
aI1
aF0.0
aI2
aI2
aF1.0
aI4
aI4
aI8
aI0
aI2
aI1
aI3
aI5
aI10
aI18
aa(lp118
V0021401220
p119
aVAPR 15, 2015
p120
aVMEM vs. IND
p121
aVW
p122
aI1
aI0
aI0
aF0.0
aI0
aI0
aF0.0
aI0
aI0
aF0.0
aI0
aI1
aI1
aI0
aI0
aI0
aI0
aI0
aI0
aI-1
aasS'name'
p123
VJaMychal Green
p124
sS'weight'
p125
V227
p126
sS'age'
p127
I24
sS'experience'
p128
I0
sS'height'
p129
V6-9
p130
sS'position'
p131
VForward
p132
s.