(dp0
S'stats'
p1
(lp2
(lp3
V0021400128
p4
aVNOV 14, 2014
p5
aVMIN @ NOP
p6
aVL
p7
aI8
aI0
aI0
aF0.0
aI0
aI0
aF0.0
aI1
aI2
aF0.5
aI1
aI0
aI1
aI0
aI0
aI0
aI0
aI0
aI1
aI-2
aa(lp8
V0021400137
p9
aVNOV 15, 2014
p10
aVMIN @ DAL
p11
aVL
p12
aI1
aI0
aI0
aF0.0
aI0
aI0
aF0.0
aI0
aI0
aF0.0
aI0
aI0
aI0
aI0
aI0
aI0
aI0
aI0
aI0
aI2
aa(lp13
V0021400167
p14
aVNOV 19, 2014
p15
aVMIN vs. NYK
p16
aVW
p17
aI2
aI0
aI1
aF0.0
aI0
aI0
aF0.0
aI0
aI0
aF0.0
aI0
aI0
aI0
aI0
aI0
aI0
aI0
aI0
aI0
aI-4
aa(lp18
V0021400177
p19
aVNOV 21, 2014
p20
aVMIN vs. SAS
p21
aVL
p22
aI4
aI2
aI2
aF1.0
aI0
aI0
aF0.0
aI0
aI0
aF0.0
aI1
aI0
aI1
aI1
aI0
aI0
aI0
aI0
aI4
aI-2
aa(lp23
V0021400218
p24
aVNOV 26, 2014
p25
aVMIN vs. MIL
p26
aVL
p27
aI2
aI0
aI0
aF0.0
aI0
aI0
aF0.0
aI0
aI0
aF0.0
aI0
aI1
aI1
aI0
aI0
aI0
aI0
aI0
aI0
aI0
aa(lp28
V0021400252
p29
aVDEC 01, 2014
p30
aVMIN @ LAC
p31
aVL
p32
aI6
aI0
aI1
aF0.0
aI0
aI0
aF0.0
aI0
aI0
aF0.0
aI0
aI0
aI0
aI0
aI0
aI0
aI0
aI0
aI0
aI3
aa(lp33
V0021400291
p34
aVDEC 06, 2014
p35
aVMIN @ SAS
p36
aVL
p37
aI12
aI1
aI4
aF0.25
aI1
aI2
aF0.5
aI4
aI4
aF1.0
aI0
aI1
aI1
aI0
aI1
aI0
aI0
aI1
aI7
aI-2
aa(lp38
V0021400305
p39
aVDEC 08, 2014
p40
aVMIN vs. GSW
p41
aVL
p42
aI7
aI1
aI3
aF0.333
aI0
aI2
aF0.0
aI1
aI2
aF0.5
aI2
aI2
aI4
aI0
aI0
aI0
aI1
aI0
aI3
aI3
aa(lp43
V0021400335
p44
aVDEC 12, 2014
p45
aVMIN vs. OKC
p46
aVL
p47
aI2
aI0
aI0
aF0.0
aI0
aI0
aF0.0
aI0
aI0
aF0.0
aI0
aI0
aI0
aI0
aI0
aI0
aI0
aI0
aI0
aI-3
aa(lp48
V0021400363
p49
aVDEC 16, 2014
p50
aVMIN @ WAS
p51
aVL
p52
aI3
aI0
aI0
aF0.0
aI0
aI0
aF0.0
aI0
aI0
aF0.0
aI0
aI0
aI0
aI0
aI0
aI0
aI0
aI0
aI0
aI4
aa(lp53
V0021400385
p54
aVDEC 19, 2014
p55
aVMIN @ BOS
p56
aVL
p57
aI2
aI0
aI1
aF0.0
aI0
aI0
aF0.0
aI0
aI0
aF0.0
aI0
aI0
aI0
aI0
aI0
aI0
aI1
aI0
aI0
aI-1
aa(lp58
V0021400416
p59
aVDEC 23, 2014
p60
aVMIN @ CLE
p61
aVL
p62
aI4
aI0
aI0
aF0.0
aI0
aI0
aF0.0
aI1
aI2
aF0.5
aI0
aI0
aI0
aI0
aI0
aI0
aI1
aI0
aI1
aI-1
aa(lp63
V0021400452
p64
aVDEC 27, 2014
p65
aVMIN @ GSW
p66
aVL
p67
aI7
aI1
aI2
aF0.5
aI0
aI1
aF0.0
aI0
aI0
aF0.0
aI0
aI2
aI2
aI0
aI1
aI0
aI0
aI0
aI2
aI13
aa(lp68
V0021400498
p69
aVJAN 03, 2015
p70
aVMIN vs. UTA
p71
aVL
p72
aI2
aI1
aI1
aF1.0
aI0
aI0
aF0.0
aI0
aI0
aF0.0
aI0
aI0
aI0
aI0
aI0
aI0
aI0
aI0
aI2
aI5
aa(lp73
V0021400514
p74
aVJAN 05, 2015
p75
aVMIN vs. DEN
p76
aVL
p77
aI9
aI0
aI1
aF0.0
aI0
aI0
aF0.0
aI0
aI0
aF0.0
aI0
aI0
aI0
aI0
aI0
aI0
aI0
aI0
aI0
aI-7
aa(lp78
V0021400544
p79
aVJAN 09, 2015
p80
aVMIN @ MIL
p81
aVL
p82
aI4
aI0
aI0
aF0.0
aI0
aI0
aF0.0
aI2
aI2
aF1.0
aI0
aI0
aI0
aI0
aI0
aI0
aI0
aI1
aI2
aI4
aa(lp83
V0021400556
p84
aVJAN 10, 2015
p85
aVMIN vs. SAS
p86
aVL
p87
aI2
aI0
aI1
aF0.0
aI0
aI0
aF0.0
aI0
aI0
aF0.0
aI0
aI1
aI1
aI0
aI1
aI0
aI0
aI0
aI0
aI-1
aa(lp88
V0021400596
p89
aVJAN 16, 2015
p90
aVMIN @ PHX
p91
aVL
p92
aI2
aI0
aI0
aF0.0
aI0
aI0
aF0.0
aI0
aI0
aF0.0
aI0
aI0
aI0
aI0
aI0
aI0
aI0
aI1
aI0
aI-6
aa(lp93
V0021400611
p94
aVJAN 19, 2015
p95
aVMIN @ CHA
p96
aVL
p97
aI4
aI1
aI1
aF1.0
aI0
aI0
aF0.0
aI0
aI0
aF0.0
aI0
aI2
aI2
aI2
aI0
aI0
aI0
aI0
aI2
aI6
aa(lp98
V0021400631
p99
aVJAN 21, 2015
p100
aVMIN vs. DAL
p101
aVL
p102
aI4
aI0
aI2
aF0.0
aI0
aI0
aF0.0
aI0
aI0
aF0.0
aI0
aI1
aI1
aI0
aI0
aI0
aI0
aI0
aI0
aI0
aa(lp103
V0021400661
p104
aVJAN 25, 2015
p105
aVMIN @ ATL
p106
aVL
p107
aI5
aI1
aI1
aF1.0
aI0
aI0
aF0.0
aI0
aI0
aF0.0
aI0
aI0
aI0
aI0
aI0
aI0
aI0
aI0
aI2
aI0
aa(lp108
V0021400672
p109
aVJAN 26, 2015
p110
aVMIN @ OKC
p111
aVL
p112
aI4
aI0
aI2
aF0.0
aI0
aI1
aF0.0
aI1
aI2
aF0.5
aI0
aI0
aI0
aI0
aI0
aI0
aI0
aI0
aI1
aI6
aa(lp113
V0021400711
p114
aVJAN 31, 2015
p115
aVMIN vs. CLE
p116
aVL
p117
aI1
aI0
aI1
aF0.0
aI0
aI0
aF0.0
aI0
aI0
aF0.0
aI0
aI0
aI0
aI0
aI0
aI0
aI0
aI0
aI0
aI-3
aa(lp118
V0021400832
p119
aVFEB 23, 2015
p120
aVMIN @ HOU
p121
aVL
p122
aI4
aI0
aI0
aF0.0
aI0
aI0
aF0.0
aI0
aI0
aF0.0
aI0
aI0
aI0
aI0
aI0
aI0
aI0
aI2
aI0
aI2
aa(lp123
V0021400862
p124
aVFEB 27, 2015
p125
aVMIN @ CHI
p126
aVL
p127
aI9
aI0
aI0
aF0.0
aI0
aI0
aF0.0
aI2
aI2
aF1.0
aI0
aI0
aI0
aI0
aI0
aI0
aI0
aI0
aI2
aI2
aa(lp128
V0021400978
p129
aVMAR 14, 2015
p130
aVPHI vs. BKN
p131
aVL
p132
aI7
aI0
aI2
aF0.0
aI0
aI0
aF0.0
aI0
aI0
aF0.0
aI0
aI0
aI0
aI1
aI0
aI0
aI0
aI0
aI0
aI10
aa(lp133
V0021401069
p134
aVMAR 25, 2015
p135
aVPHI @ DEN
p136
aVW
p137
aI3
aI0
aI0
aF0.0
aI0
aI0
aF0.0
aI0
aI0
aF0.0
aI0
aI0
aI0
aI0
aI0
aI0
aI1
aI0
aI0
aI-2
aa(lp138
V0021401075
p139
aVMAR 27, 2015
p140
aVPHI vs. LAC
p141
aVL
p142
aI6
aI1
aI2
aF0.5
aI0
aI0
aF0.0
aI0
aI0
aF0.0
aI1
aI2
aI3
aI0
aI0
aI0
aI1
aI1
aI2
aI4
aa(lp143
V0021401102
p144
aVMAR 30, 2015
p145
aVPHI vs. LAL
p146
aVL
p147
aI25
aI3
aI8
aF0.375
aI1
aI4
aF0.25
aI1
aI4
aF0.25
aI3
aI3
aI6
aI1
aI1
aI0
aI0
aI1
aI8
aI5
aa(lp148
V0021401137
p149
aVAPR 04, 2015
p150
aVPHI @ CHA
p151
aVL
p152
aI19
aI3
aI7
aF0.429
aI1
aI2
aF0.5
aI0
aI0
aF0.0
aI1
aI2
aI3
aI1
aI0
aI1
aI2
aI1
aI7
aI2
aa(lp153
V0021401151
p154
aVAPR 05, 2015
p155
aVPHI @ NYK
p156
aVL
p157
aI5
aI0
aI2
aF0.0
aI0
aI0
aF0.0
aI0
aI0
aF0.0
aI1
aI0
aI1
aI0
aI0
aI0
aI0
aI0
aI0
aI5
aa(lp158
V0021401162
p159
aVAPR 08, 2015
p160
aVPHI vs. WAS
p161
aVL
p162
aI8
aI0
aI3
aF0.0
aI0
aI0
aF0.0
aI0
aI0
aF0.0
aI0
aI1
aI1
aI0
aI0
aI0
aI0
aI0
aI0
aI-7
aa(lp163
V0021401189
p164
aVAPR 11, 2015
p165
aVPHI @ CHI
p166
aVL
p167
aI25
aI3
aI7
aF0.429
aI1
aI4
aF0.25
aI3
aI4
aF0.75
aI1
aI2
aI3
aI1
aI0
aI0
aI2
aI3
aI10
aI2
aa(lp168
V0021401204
p169
aVAPR 13, 2015
p170
aVPHI vs. MIL
p171
aVL
p172
aI20
aI3
aI3
aF1.0
aI1
aI1
aF1.0
aI0
aI0
aF0.0
aI0
aI0
aI0
aI1
aI1
aI0
aI1
aI1
aI7
aI-3
aa(lp173
V0021401227
p174
aVAPR 15, 2015
p175
aVPHI vs. MIA
p176
aVL
p177
aI36
aI5
aI9
aF0.556
aI0
aI2
aF0.0
aI0
aI0
aF0.0
aI4
aI4
aI8
aI3
aI1
aI0
aI1
aI3
aI10
aI-7
aasS'name'
p178
VGlenn Robinson
p179
sS'weight'
p180
V222
p181
sS'age'
p182
I20
sS'experience'
p183
I0
sS'height'
p184
V6-7
p185
sS'position'
p186
VGuard-Forward
p187
s.