(dp0
S'stats'
p1
(lp2
(lp3
V0021400352
p4
aVDEC 14, 2014
p5
aVOKC vs. PHX
p6
aVW
p7
aI7
aI1
aI1
aF1.0
aI0
aI0
aF0.0
aI1
aI2
aF0.5
aI1
aI3
aI4
aI0
aI0
aI0
aI2
aI0
aI3
aI1
aa(lp8
V0021400723
p9
aVFEB 02, 2015
p10
aVOKC vs. ORL
p11
aVW
p12
aI1
aI0
aI1
aF0.0
aI0
aI0
aF0.0
aI0
aI0
aF0.0
aI0
aI0
aI0
aI0
aI0
aI0
aI0
aI0
aI0
aI-3
aa(lp13
V0021400765
p14
aVFEB 08, 2015
p15
aVOKC vs. LAC
p16
aVW
p17
aI23
aI8
aI9
aF0.889
aI0
aI0
aF0.0
aI3
aI4
aF0.75
aI5
aI5
aI10
aI0
aI1
aI0
aI2
aI3
aI19
aI19
aa(lp18
V0021400782
p19
aVFEB 09, 2015
p20
aVOKC @ DEN
p21
aVW
p22
aI25
aI6
aI12
aF0.5
aI0
aI0
aF0.0
aI5
aI6
aF0.833
aI5
aI5
aI10
aI0
aI0
aI1
aI0
aI1
aI17
aI-6
aa(lp23
V0021400795
p24
aVFEB 11, 2015
p25
aVOKC vs. MEM
p26
aVW
p27
aI15
aI0
aI3
aF0.0
aI0
aI0
aF0.0
aI0
aI0
aF0.0
aI1
aI1
aI2
aI0
aI0
aI0
aI0
aI6
aI0
aI-9
aa(lp28
V0021400801
p29
aVFEB 19, 2015
p30
aVOKC vs. DAL
p31
aVW
p32
aI18
aI2
aI5
aF0.4
aI0
aI0
aF0.0
aI0
aI2
aF0.0
aI0
aI3
aI3
aI0
aI1
aI0
aI3
aI3
aI4
aI-3
aa(lp33
V0021400816
p34
aVFEB 21, 2015
p35
aVOKC @ CHA
p36
aVW
p37
aI15
aI4
aI7
aF0.571
aI0
aI0
aF0.0
aI1
aI1
aF1.0
aI5
aI5
aI10
aI1
aI2
aI2
aI1
aI2
aI9
aI0
aa(lp38
V0021400826
p39
aVFEB 22, 2015
p40
aVOKC vs. DEN
p41
aVW
p42
aI21
aI4
aI9
aF0.444
aI0
aI0
aF0.0
aI2
aI6
aF0.333
aI4
aI3
aI7
aI1
aI1
aI0
aI1
aI1
aI10
aI-10
aa(lp43
V0021400840
p44
aVFEB 24, 2015
p45
aVOKC vs. IND
p46
aVW
p47
aI19
aI2
aI7
aF0.286
aI0
aI0
aF0.0
aI5
aI5
aF1.0
aI3
aI5
aI8
aI0
aI2
aI2
aI0
aI3
aI9
aI11
aa(lp48
V0021400855
p49
aVFEB 26, 2015
p50
aVOKC @ PHX
p51
aVL
p52
aI10
aI0
aI2
aF0.0
aI0
aI1
aF0.0
aI0
aI0
aF0.0
aI0
aI3
aI3
aI0
aI0
aI0
aI1
aI2
aI0
aI0
aa(lp53
V0021400869
p54
aVFEB 27, 2015
p55
aVOKC @ POR
p56
aVL
p57
aI28
aI10
aI13
aF0.769
aI0
aI0
aF0.0
aI0
aI0
aF0.0
aI3
aI6
aI9
aI2
aI1
aI0
aI2
aI2
aI20
aI9
aa(lp58
V0021400878
p59
aVMAR 01, 2015
p60
aVOKC @ LAL
p61
aVW
p62
aI10
aI0
aI3
aF0.0
aI0
aI0
aF0.0
aI0
aI0
aF0.0
aI0
aI1
aI1
aI0
aI0
aI0
aI0
aI1
aI0
aI-6
aa(lp63
V0021400904
p64
aVMAR 04, 2015
p65
aVOKC vs. PHI
p66
aVW
p67
aI21
aI3
aI7
aF0.429
aI0
aI0
aF0.0
aI0
aI0
aF0.0
aI2
aI3
aI5
aI0
aI0
aI3
aI0
aI2
aI6
aI26
aa(lp68
V0021400909
p69
aVMAR 05, 2015
p70
aVOKC @ CHI
p71
aVL
p72
aI2
aI0
aI0
aF0.0
aI0
aI0
aF0.0
aI0
aI0
aF0.0
aI0
aI1
aI1
aI0
aI0
aI0
aI0
aI2
aI0
aI-4
aa(lp73
V0021400957
p74
aVMAR 11, 2015
p75
aVOKC vs. LAC
p76
aVL
p77
aI12
aI3
aI5
aF0.6
aI0
aI0
aF0.0
aI1
aI2
aF0.5
aI2
aI4
aI6
aI0
aI0
aI0
aI0
aI2
aI7
aI11
aa(lp78
V0021400971
p79
aVMAR 13, 2015
p80
aVOKC vs. MIN
p81
aVW
p82
aI22
aI6
aI8
aF0.75
aI0
aI0
aF0.0
aI0
aI0
aF0.0
aI0
aI2
aI2
aI2
aI0
aI0
aI0
aI2
aI12
aI27
aa(lp83
V0021400982
p84
aVMAR 15, 2015
p85
aVOKC vs. CHI
p86
aVW
p87
aI9
aI0
aI0
aF0.0
aI0
aI0
aF0.0
aI0
aI0
aF0.0
aI0
aI1
aI1
aI0
aI0
aI0
aI0
aI1
aI0
aI-5
aa(lp88
V0021400996
p89
aVMAR 16, 2015
p90
aVOKC @ DAL
p91
aVL
p92
aI17
aI5
aI11
aF0.455
aI0
aI0
aF0.0
aI2
aI4
aF0.5
aI4
aI9
aI13
aI0
aI0
aI1
aI1
aI2
aI12
aI-2
aa(lp93
V0021401011
p94
aVMAR 18, 2015
p95
aVOKC vs. BOS
p96
aVW
p97
aI6
aI2
aI2
aF1.0
aI0
aI0
aF0.0
aI0
aI0
aF0.0
aI0
aI1
aI1
aI0
aI1
aI0
aI1
aI3
aI4
aI-4
aa(lp98
V0021401026
p99
aVMAR 20, 2015
p100
aVOKC vs. ATL
p101
aVW
p102
aI17
aI3
aI4
aF0.75
aI0
aI0
aF0.0
aI0
aI0
aF0.0
aI0
aI4
aI4
aI1
aI0
aI0
aI4
aI4
aI6
aI-7
aa(lp103
V0021401038
p104
aVMAR 22, 2015
p105
aVOKC vs. MIA
p106
aVW
p107
aI26
aI6
aI11
aF0.545
aI0
aI0
aF0.0
aI2
aI3
aF0.667
aI4
aI4
aI8
aI1
aI1
aI2
aI3
aI2
aI14
aI17
aa(lp108
V0021401056
p109
aVMAR 24, 2015
p110
aVOKC vs. LAL
p111
aVW
p112
aI26
aI3
aI6
aF0.5
aI0
aI0
aF0.0
aI1
aI2
aF0.5
aI3
aI7
aI10
aI1
aI0
aI0
aI4
aI3
aI7
aI-3
aa(lp113
V0021401071
p114
aVMAR 25, 2015
p115
aVOKC @ SAS
p116
aVL
p117
aI23
aI3
aI6
aF0.5
aI0
aI0
aF0.0
aI2
aI2
aF1.0
aI1
aI6
aI7
aI0
aI3
aI1
aI1
aI2
aI8
aI-10
aa(lp118
V0021401090
p119
aVMAR 28, 2015
p120
aVOKC @ UTA
p121
aVL
p122
aI16
aI4
aI5
aF0.8
aI0
aI0
aF0.0
aI0
aI0
aF0.0
aI0
aI1
aI1
aI0
aI0
aI0
aI2
aI5
aI8
aI3
aa(lp123
V0021401100
p124
aVMAR 29, 2015
p125
aVOKC @ PHX
p126
aVW
p127
aI8
aI0
aI0
aF0.0
aI0
aI0
aF0.0
aI0
aI0
aF0.0
aI0
aI3
aI3
aI0
aI0
aI0
aI0
aI1
aI0
aI-9
aa(lp128
V0021401120
p129
aVAPR 01, 2015
p130
aVOKC vs. DAL
p131
aVL
p132
aI15
aI2
aI3
aF0.667
aI0
aI0
aF0.0
aI0
aI0
aF0.0
aI3
aI6
aI9
aI1
aI0
aI0
aI0
aI5
aI4
aI5
aa(lp133
V0021401132
p134
aVAPR 03, 2015
p135
aVOKC @ MEM
p136
aVL
p137
aI16
aI2
aI7
aF0.286
aI0
aI0
aF0.0
aI0
aI0
aF0.0
aI0
aI3
aI3
aI0
aI1
aI0
aI0
aI3
aI4
aI3
aa(lp138
V0021401147
p139
aVAPR 05, 2015
p140
aVOKC vs. HOU
p141
aVL
p142
aI10
aI0
aI0
aF0.0
aI0
aI0
aF0.0
aI0
aI0
aF0.0
aI1
aI5
aI6
aI0
aI1
aI0
aI0
aI5
aI0
aI0
aa(lp143
V0021401157
p144
aVAPR 07, 2015
p145
aVOKC vs. SAS
p146
aVL
p147
aI19
aI3
aI7
aF0.429
aI0
aI0
aF0.0
aI0
aI0
aF0.0
aI4
aI5
aI9
aI2
aI0
aI0
aI2
aI0
aI6
aI-8
aa(lp148
V0021401183
p149
aVAPR 10, 2015
p150
aVOKC vs. SAC
p151
aVW
p152
aI1
aI1
aI2
aF0.5
aI0
aI0
aF0.0
aI0
aI0
aF0.0
aI1
aI0
aI1
aI0
aI0
aI0
aI0
aI1
aI2
aI-3
aa(lp153
V0021401197
p154
aVAPR 12, 2015
p155
aVOKC @ IND
p156
aVL
p157
aI12
aI3
aI4
aF0.75
aI0
aI0
aF0.0
aI0
aI0
aF0.0
aI0
aI3
aI3
aI1
aI1
aI0
aI1
aI2
aI6
aI-1
aa(lp158
V0021401222
p159
aVAPR 15, 2015
p160
aVOKC @ MIN
p161
aVW
p162
aI15
aI2
aI5
aF0.4
aI0
aI1
aF0.0
aI0
aI1
aF0.0
aI1
aI4
aI5
aI1
aI0
aI4
aI0
aI1
aI4
aI8
aasS'name'
p163
VMitch McGary
p164
sS'weight'
p165
V255
p166
sS'age'
p167
I22
sS'experience'
p168
I0
sS'height'
p169
V6-10
p170
sS'position'
p171
VForward
p172
s.