(dp0
S'stats'
p1
(lp2
(lp3
V0021400007
p4
aVOCT 29, 2014
p5
aVMIA vs. WAS
p6
aVW
p7
aI24
aI2
aI2
aF1.0
aI0
aI0
aF0.0
aI3
aI4
aF0.75
aI2
aI4
aI6
aI1
aI2
aI1
aI0
aI0
aI7
aI5
aa(lp8
V0021400030
p9
aVNOV 01, 2014
p10
aVMIA @ PHI
p11
aVW
p12
aI17
aI0
aI2
aF0.0
aI0
aI0
aF0.0
aI0
aI0
aF0.0
aI1
aI2
aI3
aI0
aI0
aI0
aI0
aI2
aI0
aI6
aa(lp13
V0021400112
p14
aVNOV 12, 2014
p15
aVMIA vs. IND
p16
aVL
p17
aI17
aI0
aI1
aF0.0
aI0
aI0
aF0.0
aI0
aI2
aF0.0
aI0
aI4
aI4
aI0
aI0
aI0
aI1
aI2
aI0
aI-1
aa(lp18
V0021400124
p19
aVNOV 14, 2014
p20
aVMIA @ ATL
p21
aVL
p22
aI7
aI0
aI0
aF0.0
aI0
aI0
aF0.0
aI0
aI0
aF0.0
aI0
aI1
aI1
aI1
aI0
aI0
aI0
aI1
aI0
aI2
aa(lp23
V0021400143
p24
aVNOV 16, 2014
p25
aVMIA vs. MIL
p26
aVL
p27
aI20
aI0
aI0
aF0.0
aI0
aI0
aF0.0
aI1
aI4
aF0.25
aI1
aI2
aI3
aI0
aI1
aI1
aI2
aI2
aI1
aI-3
aa(lp28
V0021400149
p29
aVNOV 17, 2014
p30
aVMIA @ BKN
p31
aVW
p32
aI16
aI3
aI4
aF0.75
aI0
aI0
aF0.0
aI1
aI2
aF0.5
aI2
aI1
aI3
aI1
aI0
aI1
aI1
aI1
aI7
aI2
aa(lp33
V0021400170
p34
aVNOV 20, 2014
p35
aVMIA vs. LAC
p36
aVL
p37
aI21
aI0
aI1
aF0.0
aI0
aI0
aF0.0
aI0
aI2
aF0.0
aI0
aI3
aI3
aI0
aI0
aI1
aI2
aI3
aI0
aI-11
aa(lp38
V0021400185
p39
aVNOV 22, 2014
p40
aVMIA @ ORL
p41
aVW
p42
aI17
aI1
aI4
aF0.25
aI0
aI1
aF0.0
aI3
aI4
aF0.75
aI2
aI1
aI3
aI1
aI1
aI2
aI2
aI2
aI5
aI-3
aa(lp43
V0021400195
p44
aVNOV 23, 2014
p45
aVMIA vs. CHA
p46
aVW
p47
aI2
aI0
aI0
aF0.0
aI0
aI0
aF0.0
aI0
aI0
aF0.0
aI0
aI0
aI0
aI0
aI0
aI0
aI0
aI0
aI0
aI0
aa(lp48
V0021400349
p49
aVDEC 14, 2014
p50
aVMIA vs. CHI
p51
aVL
p52
aI18
aI1
aI1
aF1.0
aI0
aI0
aF0.0
aI0
aI0
aF0.0
aI2
aI1
aI3
aI1
aI0
aI1
aI0
aI2
aI2
aI-6
aa(lp53
V0021400364
p54
aVDEC 16, 2014
p55
aVMIA @ BKN
p56
aVW
p57
aI20
aI2
aI3
aF0.667
aI0
aI0
aF0.0
aI0
aI0
aF0.0
aI2
aI7
aI9
aI1
aI0
aI2
aI0
aI1
aI4
aI11
aa(lp58
V0021400373
p59
aVDEC 17, 2014
p60
aVMIA vs. UTA
p61
aVL
p62
aI26
aI3
aI6
aF0.5
aI0
aI0
aF0.0
aI0
aI0
aF0.0
aI2
aI7
aI9
aI0
aI1
aI0
aI1
aI2
aI6
aI-2
aa(lp63
V0021400388
p64
aVDEC 19, 2014
p65
aVMIA vs. WAS
p66
aVL
p67
aI19
aI2
aI3
aF0.667
aI0
aI0
aF0.0
aI3
aI3
aF1.0
aI0
aI5
aI5
aI0
aI1
aI1
aI0
aI2
aI7
aI3
aa(lp68
V0021400404
p69
aVDEC 21, 2014
p70
aVMIA vs. BOS
p71
aVW
p72
aI24
aI3
aI6
aF0.5
aI0
aI0
aF0.0
aI1
aI3
aF0.333
aI0
aI6
aI6
aI1
aI2
aI0
aI0
aI0
aI7
aI11
aa(lp73
V0021400422
p74
aVDEC 23, 2014
p75
aVMIA vs. PHI
p76
aVL
p77
aI20
aI2
aI4
aF0.5
aI0
aI0
aF0.0
aI2
aI3
aF0.667
aI1
aI4
aI5
aI0
aI2
aI2
aI1
aI4
aI6
aI14
aa(lp78
V0021400429
p79
aVDEC 25, 2014
p80
aVMIA vs. CLE
p81
aVW
p82
aI29
aI4
aI5
aF0.8
aI0
aI0
aF0.0
aI4
aI6
aF0.667
aI2
aI6
aI8
aI1
aI2
aI1
aI0
aI5
aI12
aI15
aa(lp83
V0021400446
p84
aVDEC 27, 2014
p85
aVMIA vs. MEM
p86
aVL
p87
aI25
aI5
aI5
aF1.0
aI0
aI0
aF0.0
aI3
aI4
aF0.75
aI1
aI3
aI4
aI0
aI0
aI1
aI2
aI4
aI13
aI-7
aa(lp88
V0021400462
p89
aVDEC 29, 2014
p90
aVMIA vs. ORL
p91
aVL
p92
aI23
aI2
aI2
aF1.0
aI0
aI0
aF0.0
aI1
aI2
aF0.5
aI0
aI4
aI4
aI2
aI0
aI1
aI0
aI1
aI5
aI4
aa(lp93
V0021400476
p94
aVDEC 31, 2014
p95
aVMIA @ IND
p96
aVL
p97
aI21
aI3
aI7
aF0.429
aI0
aI0
aF0.0
aI5
aI6
aF0.833
aI3
aI4
aI7
aI0
aI0
aI2
aI0
aI2
aI11
aI-3
aa(lp98
V0021400497
p99
aVJAN 03, 2015
p100
aVMIA @ HOU
p101
aVL
p102
aI20
aI2
aI2
aF1.0
aI0
aI0
aF0.0
aI0
aI2
aF0.0
aI0
aI3
aI3
aI2
aI0
aI0
aI1
aI0
aI4
aI-14
aa(lp103
V0021400505
p104
aVJAN 04, 2015
p105
aVMIA vs. BKN
p106
aVW
p107
aI21
aI1
aI1
aF1.0
aI0
aI0
aF0.0
aI5
aI6
aF0.833
aI2
aI6
aI8
aI1
aI0
aI1
aI0
aI2
aI7
aI3
aa(lp108
V0021400537
p109
aVJAN 08, 2015
p110
aVMIA @ POR
p111
aVL
p112
aI24
aI1
aI2
aF0.5
aI0
aI0
aF0.0
aI3
aI6
aF0.5
aI1
aI2
aI3
aI1
aI2
aI1
aI0
aI1
aI5
aI-17
aa(lp113
V0021400559
p114
aVJAN 11, 2015
p115
aVMIA @ LAC
p116
aVW
p117
aI17
aI1
aI3
aF0.333
aI0
aI0
aF0.0
aI2
aI2
aF1.0
aI2
aI3
aI5
aI0
aI1
aI2
aI2
aI1
aI4
aI-14
aa(lp118
V0021400573
p119
aVJAN 13, 2015
p120
aVMIA @ LAL
p121
aVW
p122
aI27
aI5
aI6
aF0.833
aI0
aI0
aF0.0
aI2
aI2
aF1.0
aI1
aI7
aI8
aI1
aI0
aI3
aI0
aI0
aI12
aI-3
aa(lp123
V0021400582
p124
aVJAN 14, 2015
p125
aVMIA @ GSW
p126
aVL
p127
aI12
aI1
aI1
aF1.0
aI0
aI0
aF0.0
aI0
aI0
aF0.0
aI0
aI3
aI3
aI0
aI0
aI0
aI0
aI1
aI2
aI2
aa(lp128
V0021400623
p129
aVJAN 20, 2015
p130
aVMIA vs. OKC
p131
aVL
p132
aI29
aI3
aI6
aF0.5
aI1
aI1
aF1.0
aI0
aI0
aF0.0
aI1
aI5
aI6
aI0
aI0
aI1
aI0
aI4
aI7
aI-8
aa(lp133
V0021400625
p134
aVJAN 21, 2015
p135
aVMIA @ CHA
p136
aVL
p137
aI20
aI2
aI5
aF0.4
aI0
aI0
aF0.0
aI2
aI2
aF1.0
aI0
aI4
aI4
aI2
aI0
aI3
aI0
aI2
aI6
aI-5
aa(lp138
V0021400644
p139
aVJAN 23, 2015
p140
aVMIA vs. IND
p141
aVW
p142
aI28
aI1
aI1
aF1.0
aI0
aI0
aF0.0
aI2
aI2
aF1.0
aI3
aI10
aI13
aI0
aI0
aI0
aI2
aI3
aI4
aI2
aa(lp143
V0021400657
p144
aVJAN 25, 2015
p145
aVMIA @ CHI
p146
aVW
p147
aI21
aI2
aI3
aF0.667
aI0
aI0
aF0.0
aI0
aI0
aF0.0
aI1
aI8
aI9
aI2
aI0
aI0
aI0
aI1
aI4
aI7
aa(lp148
V0021400702
p149
aVJAN 30, 2015
p150
aVMIA vs. DAL
p151
aVL
p152
aI15
aI1
aI2
aF0.5
aI0
aI0
aF0.0
aI0
aI0
aF0.0
aI1
aI2
aI3
aI1
aI1
aI0
aI0
aI0
aI2
aI-7
aa(lp153
V0021400716
p154
aVFEB 01, 2015
p155
aVMIA @ BOS
p156
aVW
p157
aI18
aI2
aI2
aF1.0
aI1
aI1
aF1.0
aI0
aI0
aF0.0
aI0
aI5
aI5
aI1
aI0
aI1
aI0
aI2
aI5
aI1
aa(lp158
V0021400727
p159
aVFEB 03, 2015
p160
aVMIA @ DET
p161
aVL
p162
aI21
aI5
aI7
aF0.714
aI0
aI0
aF0.0
aI2
aI4
aF0.5
aI1
aI4
aI5
aI0
aI0
aI1
aI1
aI1
aI12
aI-14
aa(lp163
V0021400737
p164
aVFEB 04, 2015
p165
aVMIA @ MIN
p166
aVL
p167
aI12
aI1
aI2
aF0.5
aI0
aI0
aF0.0
aI1
aI2
aF0.5
aI2
aI3
aI5
aI0
aI1
aI1
aI0
aI3
aI3
aI-12
aa(lp168
V0021400757
p169
aVFEB 06, 2015
p170
aVMIA @ SAS
p171
aVL
p172
aI22
aI5
aI7
aF0.714
aI0
aI0
aF0.0
aI0
aI0
aF0.0
aI2
aI3
aI5
aI1
aI0
aI0
aI0
aI1
aI10
aI-3
aa(lp173
V0021400777
p174
aVFEB 09, 2015
p175
aVMIA vs. NYK
p176
aVW
p177
aI27
aI4
aI6
aF0.667
aI1
aI1
aF1.0
aI1
aI2
aF0.5
aI1
aI3
aI4
aI2
aI0
aI3
aI1
aI4
aI10
aI15
aa(lp178
V0021400796
p179
aVFEB 11, 2015
p180
aVMIA @ CLE
p181
aVL
p182
aI20
aI1
aI1
aF1.0
aI0
aI0
aF0.0
aI0
aI0
aF0.0
aI0
aI2
aI2
aI1
aI1
aI1
aI0
aI0
aI2
aI-14
aa(lp183
V0021400807
p184
aVFEB 20, 2015
p185
aVMIA @ NYK
p186
aVW
p187
aI21
aI5
aI8
aF0.625
aI0
aI1
aF0.0
aI2
aI2
aF1.0
aI3
aI2
aI5
aI1
aI0
aI0
aI1
aI4
aI12
aI15
aa(lp188
V0021400817
p189
aVFEB 21, 2015
p190
aVMIA vs. NOP
p191
aVL
p192
aI18
aI1
aI3
aF0.333
aI0
aI0
aF0.0
aI1
aI2
aF0.5
aI1
aI2
aI3
aI4
aI1
aI1
aI1
aI1
aI3
aI5
aa(lp193
V0021400830
p194
aVFEB 23, 2015
p195
aVMIA vs. PHI
p196
aVW
p197
aI17
aI2
aI3
aF0.667
aI0
aI0
aF0.0
aI4
aI4
aF1.0
aI4
aI4
aI8
aI0
aI1
aI2
aI0
aI2
aI8
aI4
aa(lp198
V0021400842
p199
aVFEB 25, 2015
p200
aVMIA @ ORL
p201
aVW
p202
aI15
aI1
aI3
aF0.333
aI0
aI1
aF0.0
aI2
aI4
aF0.5
aI0
aI5
aI5
aI1
aI1
aI1
aI3
aI0
aI4
aI-5
aa(lp203
V0021400865
p204
aVFEB 27, 2015
p205
aVMIA @ NOP
p206
aVL
p207
aI15
aI1
aI4
aF0.25
aI0
aI1
aF0.0
aI0
aI0
aF0.0
aI1
aI3
aI4
aI0
aI0
aI1
aI0
aI3
aI2
aI-1
aa(lp208
V0021400887
p209
aVMAR 02, 2015
p210
aVMIA vs. PHX
p211
aVW
p212
aI14
aI0
aI0
aF0.0
aI0
aI0
aF0.0
aI1
aI2
aF0.5
aI1
aI3
aI4
aI0
aI0
aI1
aI0
aI0
aI1
aI3
aa(lp213
V0021400905
p214
aVMAR 04, 2015
p215
aVMIA vs. LAL
p216
aVW
p217
aI15
aI2
aI8
aF0.25
aI0
aI1
aF0.0
aI0
aI0
aF0.0
aI2
aI4
aI6
aI0
aI1
aI1
aI0
aI0
aI4
aI-14
aa(lp218
V0021400920
p219
aVMAR 06, 2015
p220
aVMIA @ WAS
p221
aVL
p222
aI13
aI1
aI4
aF0.25
aI0
aI1
aF0.0
aI2
aI2
aF1.0
aI1
aI5
aI6
aI1
aI0
aI0
aI1
aI1
aI4
aI19
aa(lp223
V0021400925
p224
aVMAR 07, 2015
p225
aVMIA vs. SAC
p226
aVW
p227
aI29
aI3
aI5
aF0.6
aI0
aI0
aF0.0
aI5
aI6
aF0.833
aI1
aI4
aI5
aI0
aI1
aI3
aI0
aI1
aI11
aI-5
aa(lp228
V0021400940
p229
aVMAR 09, 2015
p230
aVMIA vs. BOS
p231
aVL
p232
aI19
aI2
aI2
aF1.0
aI0
aI0
aF0.0
aI2
aI2
aF1.0
aI1
aI4
aI5
aI1
aI0
aI1
aI0
aI1
aI6
aI9
aa(lp233
V0021400955
p234
aVMAR 11, 2015
p235
aVMIA vs. BKN
p236
aVW
p237
aI30
aI8
aI9
aF0.889
aI0
aI0
aF0.0
aI2
aI4
aF0.5
aI5
aI9
aI14
aI1
aI1
aI1
aI1
aI3
aI18
aI8
aa(lp238
V0021400970
p239
aVMAR 13, 2015
p240
aVMIA @ TOR
p241
aVL
p242
aI19
aI0
aI2
aF0.0
aI0
aI1
aF0.0
aI2
aI2
aF1.0
aI1
aI4
aI5
aI2
aI0
aI1
aI1
aI1
aI2
aI-5
aa(lp243
V0021400995
p244
aVMAR 16, 2015
p245
aVMIA vs. CLE
p246
aVW
p247
aI15
aI2
aI4
aF0.5
aI0
aI1
aF0.0
aI0
aI0
aF0.0
aI1
aI2
aI3
aI0
aI0
aI1
aI1
aI1
aI4
aI-3
aa(lp248
V0021401007
p249
aVMAR 18, 2015
p250
aVMIA vs. POR
p251
aVW
p252
aI14
aI1
aI1
aF1.0
aI0
aI0
aF0.0
aI0
aI0
aF0.0
aI0
aI3
aI3
aI1
aI0
aI1
aI0
aI2
aI2
aI1
aa(lp253
V0021401024
p254
aVMAR 20, 2015
p255
aVMIA vs. DEN
p256
aVW
p257
aI15
aI2
aI2
aF1.0
aI0
aI0
aF0.0
aI1
aI2
aF0.5
aI2
aI5
aI7
aI0
aI0
aI0
aI0
aI0
aI5
aI13
aa(lp258
V0021401038
p259
aVMAR 22, 2015
p260
aVMIA @ OKC
p261
aVL
p262
aI21
aI2
aI6
aF0.333
aI0
aI0
aF0.0
aI0
aI0
aF0.0
aI5
aI1
aI6
aI1
aI0
aI1
aI1
aI0
aI4
aI-11
aa(lp263
V0021401055
p264
aVMAR 24, 2015
p265
aVMIA @ MIL
p266
aVL
p267
aI26
aI2
aI4
aF0.5
aI0
aI0
aF0.0
aI0
aI0
aF0.0
aI2
aI4
aI6
aI2
aI0
aI1
aI3
aI1
aI4
aI4
aa(lp268
V0021401110
p269
aVMAR 31, 2015
p270
aVMIA vs. SAS
p271
aVL
p272
aI24
aI2
aI8
aF0.25
aI0
aI0
aF0.0
aI0
aI0
aF0.0
aI5
aI5
aI10
aI1
aI2
aI2
aI4
aI1
aI4
aI1
aa(lp273
V0021401124
p274
aVAPR 02, 2015
p275
aVMIA @ CLE
p276
aVL
p277
aI16
aI1
aI2
aF0.5
aI0
aI0
aF0.0
aI0
aI0
aF0.0
aI0
aI3
aI3
aI2
aI0
aI0
aI1
aI2
aI2
aI-2
aa(lp278
V0021401139
p279
aVAPR 04, 2015
p280
aVMIA @ DET
p281
aVL
p282
aI10
aI1
aI1
aF1.0
aI0
aI0
aF0.0
aI0
aI0
aF0.0
aI0
aI0
aI0
aI0
aI0
aI0
aI2
aI0
aI2
aI16
aa(lp283
V0021401155
p284
aVAPR 07, 2015
p285
aVMIA vs. CHA
p286
aVW
p287
aI13
aI2
aI3
aF0.667
aI0
aI0
aF0.0
aI2
aI3
aF0.667
aI0
aI2
aI2
aI0
aI0
aI3
aI1
aI0
aI6
aI7
aa(lp288
V0021401173
p289
aVAPR 09, 2015
p290
aVMIA vs. CHI
p291
aVL
p292
aI10
aI2
aI3
aF0.667
aI0
aI1
aF0.0
aI0
aI0
aF0.0
aI0
aI2
aI2
aI0
aI0
aI2
aI0
aI0
aI4
aI-4
aa(lp293
V0021401188
p294
aVAPR 11, 2015
p295
aVMIA vs. TOR
p296
aVL
p297
aI13
aI2
aI4
aF0.5
aI1
aI1
aF1.0
aI1
aI2
aF0.5
aI1
aI4
aI5
aI0
aI0
aI1
aI0
aI0
aI6
aI-7
aa(lp298
V0021401207
p299
aVAPR 13, 2015
p300
aVMIA vs. ORL
p301
aVW
p302
aI9
aI4
aI5
aF0.8
aI0
aI0
aF0.0
aI2
aI2
aF1.0
aI0
aI5
aI5
aI0
aI0
aI1
aI0
aI2
aI10
aI-1
aasS'name'
p303
VChris Andersen
p304
sS'weight'
p305
V245
p306
sS'age'
p307
I36
sS'experience'
p308
I13
sS'height'
p309
V6-10
p310
sS'position'
p311
VForward-Center
p312
s.