(dp0
S'stats'
p1
(lp2
(lp3
V0021400002
p4
aVOCT 28, 2014
p5
aVSAS vs. DAL
p6
aVW
p7
aI33
aI2
aI6
aF0.333
aI1
aI3
aF0.333
aI0
aI0
aF0.0
aI1
aI8
aI9
aI6
aI0
aI0
aI4
aI2
aI5
aI-5
aa(lp8
V0021400024
p9
aVOCT 31, 2014
p10
aVSAS @ PHX
p11
aVL
p12
aI29
aI6
aI14
aF0.429
aI1
aI6
aF0.167
aI0
aI0
aF0.0
aI1
aI5
aI6
aI2
aI0
aI0
aI0
aI4
aI13
aI-11
aa(lp13
V0021400064
p14
aVNOV 05, 2014
p15
aVSAS vs. ATL
p16
aVW
p17
aI34
aI4
aI10
aF0.4
aI0
aI3
aF0.0
aI3
aI5
aF0.6
aI1
aI4
aI5
aI4
aI0
aI1
aI1
aI1
aI11
aI7
aa(lp18
V0021400069
p19
aVNOV 06, 2014
p20
aVSAS @ HOU
p21
aVL
p22
aI22
aI2
aI5
aF0.4
aI1
aI3
aF0.333
aI2
aI2
aF1.0
aI0
aI3
aI3
aI4
aI0
aI1
aI5
aI5
aI7
aI-9
aa(lp23
V0021400089
p24
aVNOV 08, 2014
p25
aVSAS vs. NOP
p26
aVL
p27
aI32
aI3
aI6
aF0.5
aI0
aI2
aF0.0
aI0
aI0
aF0.0
aI2
aI4
aI6
aI2
aI0
aI2
aI3
aI1
aI6
aI5
aa(lp28
V0021400102
p29
aVNOV 10, 2014
p30
aVSAS @ LAC
p31
aVW
p32
aI25
aI4
aI7
aF0.571
aI0
aI1
aF0.0
aI0
aI0
aF0.0
aI0
aI2
aI2
aI3
aI3
aI1
aI0
aI0
aI8
aI6
aa(lp33
V0021400108
p34
aVNOV 11, 2014
p35
aVSAS @ GSW
p36
aVW
p37
aI22
aI3
aI4
aF0.75
aI1
aI2
aF0.5
aI1
aI2
aF0.5
aI1
aI5
aI6
aI4
aI0
aI0
aI3
aI2
aI8
aI8
aa(lp38
V0021400131
p39
aVNOV 14, 2014
p40
aVSAS @ LAL
p41
aVW
p42
aI24
aI3
aI12
aF0.25
aI1
aI3
aF0.333
aI0
aI0
aF0.0
aI2
aI3
aI5
aI2
aI1
aI0
aI0
aI0
aI7
aI13
aa(lp43
V0021400139
p44
aVNOV 15, 2014
p45
aVSAS @ SAC
p46
aVL
p47
aI23
aI3
aI6
aF0.5
aI1
aI1
aF1.0
aI0
aI0
aF0.0
aI4
aI4
aI8
aI1
aI1
aI0
aI2
aI4
aI7
aI11
aa(lp48
V0021400152
p49
aVNOV 17, 2014
p50
aVSAS vs. PHI
p51
aVW
p52
aI23
aI3
aI5
aF0.6
aI0
aI0
aF0.0
aI2
aI2
aF1.0
aI0
aI3
aI3
aI4
aI0
aI0
aI1
aI2
aI8
aI7
aa(lp53
V0021400159
p54
aVNOV 19, 2014
p55
aVSAS @ CLE
p56
aVW
p57
aI39
aI8
aI14
aF0.571
aI1
aI2
aF0.5
aI2
aI2
aF1.0
aI1
aI5
aI6
aI7
aI3
aI1
aI2
aI1
aI19
aI8
aa(lp58
V0021400177
p59
aVNOV 21, 2014
p60
aVSAS @ MIN
p61
aVW
p62
aI26
aI5
aI7
aF0.714
aI1
aI1
aF1.0
aI2
aI2
aF1.0
aI1
aI8
aI9
aI2
aI0
aI0
aI3
aI2
aI13
aI22
aa(lp63
V0021400191
p64
aVNOV 22, 2014
p65
aVSAS vs. BKN
p66
aVW
p67
aI33
aI5
aI9
aF0.556
aI0
aI2
aF0.0
aI0
aI0
aF0.0
aI0
aI3
aI3
aI3
aI0
aI0
aI1
aI2
aI10
aI10
aa(lp68
V0021400220
p69
aVNOV 26, 2014
p70
aVSAS vs. IND
p71
aVW
p72
aI33
aI1
aI3
aF0.333
aI0
aI1
aF0.0
aI0
aI0
aF0.0
aI0
aI4
aI4
aI3
aI1
aI0
aI3
aI2
aI2
aI9
aa(lp73
V0021400231
p74
aVNOV 28, 2014
p75
aVSAS vs. SAC
p76
aVW
p77
aI33
aI3
aI9
aF0.333
aI1
aI3
aF0.333
aI2
aI2
aF1.0
aI1
aI3
aI4
aI4
aI0
aI0
aI0
aI2
aI9
aI4
aa(lp78
V0021400241
p79
aVNOV 30, 2014
p80
aVSAS @ BOS
p81
aVW
p82
aI25
aI5
aI6
aF0.833
aI3
aI4
aF0.75
aI2
aI2
aF1.0
aI2
aI5
aI7
aI3
aI0
aI1
aI0
aI2
aI15
aI8
aa(lp83
V0021400249
p84
aVDEC 01, 2014
p85
aVSAS @ PHI
p86
aVW
p87
aI29
aI2
aI6
aF0.333
aI0
aI1
aF0.0
aI1
aI1
aF1.0
aI1
aI3
aI4
aI3
aI1
aI0
aI1
aI1
aI5
aI-3
aa(lp88
V0021400266
p89
aVDEC 03, 2014
p90
aVSAS @ BKN
p91
aVL
p92
aI22
aI0
aI6
aF0.0
aI0
aI2
aF0.0
aI0
aI0
aF0.0
aI1
aI1
aI2
aI3
aI0
aI0
aI2
aI2
aI0
aI-12
aa(lp93
V0021400282
p94
aVDEC 05, 2014
p95
aVSAS @ MEM
p96
aVW
p97
aI24
aI2
aI3
aF0.667
aI0
aI0
aF0.0
aI2
aI2
aF1.0
aI0
aI4
aI4
aI2
aI0
aI0
aI1
aI2
aI6
aI8
aa(lp98
V0021400291
p99
aVDEC 06, 2014
p100
aVSAS vs. MIN
p101
aVW
p102
aI23
aI6
aI10
aF0.6
aI0
aI2
aF0.0
aI5
aI6
aF0.833
aI0
aI3
aI3
aI4
aI1
aI0
aI1
aI5
aI17
aI23
aa(lp103
V0021400314
p104
aVDEC 09, 2014
p105
aVSAS @ UTA
p106
aVL
p107
aI26
aI2
aI5
aF0.4
aI1
aI3
aF0.333
aI2
aI2
aF1.0
aI1
aI2
aI3
aI5
aI1
aI0
aI1
aI2
aI7
aI-13
aa(lp108
V0021400322
p109
aVDEC 10, 2014
p110
aVSAS vs. NYK
p111
aVW
p112
aI26
aI5
aI9
aF0.556
aI2
aI2
aF1.0
aI0
aI0
aF0.0
aI1
aI2
aI3
aI4
aI2
aI1
aI2
aI2
aI12
aI3
aa(lp113
V0021400339
p114
aVDEC 12, 2014
p115
aVSAS vs. LAL
p116
aVL
p117
aI19
aI2
aI7
aF0.286
aI1
aI5
aF0.2
aI0
aI0
aF0.0
aI1
aI2
aI3
aI2
aI0
aI0
aI1
aI1
aI5
aI0
aa(lp118
V0021400354
p119
aVDEC 14, 2014
p120
aVSAS @ DEN
p121
aVW
p122
aI15
aI0
aI2
aF0.0
aI0
aI2
aF0.0
aI3
aI4
aF0.75
aI1
aI3
aI4
aI2
aI1
aI0
aI2
aI0
aI3
aI-4
aa(lp123
V0021400361
p124
aVDEC 15, 2014
p125
aVSAS @ POR
p126
aVL
p127
aI36
aI4
aI9
aF0.444
aI1
aI4
aF0.25
aI1
aI3
aF0.333
aI2
aI2
aI4
aI9
aI1
aI1
aI0
aI5
aI10
aI-7
aa(lp128
V0021400375
p129
aVDEC 17, 2014
p130
aVSAS vs. MEM
p131
aVL
p132
aI39
aI5
aI15
aF0.333
aI3
aI6
aF0.5
aI4
aI4
aF1.0
aI6
aI7
aI13
aI5
aI0
aI0
aI2
aI2
aI17
aI19
aa(lp133
V0021400390
p134
aVDEC 19, 2014
p135
aVSAS vs. POR
p136
aVL
p137
aI28
aI1
aI2
aF0.5
aI0
aI1
aF0.0
aI1
aI2
aF0.5
aI0
aI4
aI4
aI3
aI1
aI0
aI2
aI2
aI3
aI5
aa(lp138
V0021400397
p139
aVDEC 20, 2014
p140
aVSAS @ DAL
p141
aVL
p142
aI36
aI4
aI16
aF0.25
aI0
aI4
aF0.0
aI0
aI0
aF0.0
aI2
aI5
aI7
aI4
aI0
aI1
aI5
aI3
aI8
aI-17
aa(lp143
V0021400414
p144
aVDEC 22, 2014
p145
aVSAS vs. LAC
p146
aVW
p147
aI25
aI9
aI11
aF0.818
aI2
aI3
aF0.667
aI3
aI8
aF0.375
aI1
aI5
aI6
aI3
aI0
aI0
aI0
aI3
aI23
aI8
aa(lp148
V0021400437
p149
aVDEC 26, 2014
p150
aVSAS @ NOP
p151
aVL
p152
aI25
aI5
aI8
aF0.625
aI0
aI0
aF0.0
aI0
aI0
aF0.0
aI0
aI6
aI6
aI3
aI0
aI0
aI2
aI3
aI10
aI-4
aa(lp153
V0021400454
p154
aVDEC 28, 2014
p155
aVSAS vs. HOU
p156
aVW
p157
aI20
aI3
aI5
aF0.6
aI2
aI3
aF0.667
aI0
aI0
aF0.0
aI0
aI1
aI1
aI2
aI0
aI0
aI1
aI2
aI8
aI-6
aa(lp158
V0021400468
p159
aVDEC 30, 2014
p160
aVSAS @ MEM
p161
aVL
p162
aI11
aI0
aI3
aF0.0
aI0
aI0
aF0.0
aI2
aI2
aF1.0
aI0
aI1
aI1
aI1
aI0
aI0
aI4
aI0
aI2
aI-8
aa(lp163
V0021400481
p164
aVDEC 31, 2014
p165
aVSAS vs. NOP
p166
aVW
p167
aI21
aI4
aI7
aF0.571
aI0
aI0
aF0.0
aI0
aI0
aF0.0
aI2
aI4
aI6
aI3
aI0
aI2
aI2
aI2
aI8
aI9
aa(lp168
V0021400499
p169
aVJAN 03, 2015
p170
aVSAS vs. WAS
p171
aVW
p172
aI25
aI7
aI8
aF0.875
aI0
aI0
aF0.0
aI0
aI0
aF0.0
aI0
aI2
aI2
aI3
aI0
aI0
aI1
aI1
aI14
aI4
aa(lp173
V0021400521
p174
aVJAN 06, 2015
p175
aVSAS vs. DET
p176
aVL
p177
aI22
aI3
aI5
aF0.6
aI1
aI1
aF1.0
aI3
aI5
aF0.6
aI1
aI2
aI3
aI1
aI0
aI0
aI2
aI0
aI10
aI16
aa(lp178
V0021400545
p179
aVJAN 09, 2015
p180
aVSAS vs. PHX
p181
aVW
p182
aI14
aI4
aI7
aF0.571
aI1
aI3
aF0.333
aI0
aI0
aF0.0
aI0
aI1
aI1
aI5
aI0
aI0
aI4
aI3
aI9
aI2
aa(lp183
V0021400556
p184
aVJAN 10, 2015
p185
aVSAS @ MIN
p186
aVW
p187
aI32
aI5
aI14
aF0.357
aI1
aI2
aF0.5
aI0
aI0
aF0.0
aI2
aI3
aI5
aI3
aI1
aI0
aI1
aI3
aI11
aI-1
aa(lp188
V0021400569
p189
aVJAN 13, 2015
p190
aVSAS @ WAS
p191
aVL
p192
aI18
aI4
aI8
aF0.5
aI0
aI1
aF0.0
aI0
aI1
aF0.0
aI0
aI2
aI2
aI3
aI1
aI0
aI0
aI1
aI8
aI-10
aa(lp193
V0021400574
p194
aVJAN 14, 2015
p195
aVSAS @ CHA
p196
aVW
p197
aI18
aI0
aI5
aF0.0
aI0
aI0
aF0.0
aI1
aI2
aF0.5
aI0
aI2
aI2
aI1
aI0
aI1
aI1
aI0
aI1
aI6
aa(lp198
V0021400595
p199
aVJAN 16, 2015
p200
aVSAS vs. POR
p201
aVW
p202
aI29
aI2
aI5
aF0.4
aI1
aI2
aF0.5
aI0
aI0
aF0.0
aI1
aI5
aI6
aI4
aI1
aI2
aI1
aI3
aI5
aI9
aa(lp203
V0021400610
p204
aVJAN 18, 2015
p205
aVSAS vs. UTA
p206
aVW
p207
aI18
aI2
aI6
aF0.333
aI1
aI2
aF0.5
aI0
aI0
aF0.0
aI0
aI3
aI3
aI4
aI1
aI0
aI0
aI1
aI5
aI13
aa(lp208
V0021400624
p209
aVJAN 20, 2015
p210
aVSAS @ DEN
p211
aVW
p212
aI27
aI4
aI8
aF0.5
aI2
aI5
aF0.4
aI0
aI0
aF0.0
aI0
aI3
aI3
aI2
aI1
aI1
aI2
aI3
aI10
aI18
aa(lp213
V0021400637
p214
aVJAN 22, 2015
p215
aVSAS @ CHI
p216
aVL
p217
aI23
aI1
aI9
aF0.111
aI0
aI3
aF0.0
aI0
aI0
aF0.0
aI1
aI4
aI5
aI2
aI0
aI0
aI2
aI3
aI2
aI-25
aa(lp218
V0021400648
p219
aVJAN 23, 2015
p220
aVSAS vs. LAL
p221
aVW
p222
aI20
aI1
aI8
aF0.125
aI0
aI4
aF0.0
aI2
aI2
aF1.0
aI0
aI3
aI3
aI1
aI0
aI0
aI0
aI1
aI4
aI1
aa(lp223
V0021400663
p224
aVJAN 25, 2015
p225
aVSAS vs. MIL
p226
aVW
p227
aI28
aI7
aI11
aF0.636
aI0
aI1
aF0.0
aI0
aI0
aF0.0
aI1
aI2
aI3
aI3
aI0
aI0
aI3
aI0
aI14
aI8
aa(lp228
V0021400689
p229
aVJAN 28, 2015
p230
aVSAS vs. CHA
p231
aVW
p232
aI17
aI2
aI4
aF0.5
aI0
aI2
aF0.0
aI2
aI2
aF1.0
aI0
aI5
aI5
aI3
aI0
aI0
aI1
aI1
aI6
aI15
aa(lp233
V0021400714
p234
aVJAN 31, 2015
p235
aVSAS vs. LAC
p236
aVL
p237
aI27
aI4
aI10
aF0.4
aI1
aI5
aF0.2
aI0
aI0
aF0.0
aI1
aI6
aI7
aI4
aI0
aI0
aI1
aI3
aI9
aI-11
aa(lp238
V0021400739
p239
aVFEB 04, 2015
p240
aVSAS vs. ORL
p241
aVW
p242
aI19
aI2
aI3
aF0.667
aI0
aI1
aF0.0
aI0
aI0
aF0.0
aI1
aI1
aI2
aI3
aI0
aI1
aI0
aI2
aI4
aI-14
aa(lp243
V0021400757
p244
aVFEB 06, 2015
p245
aVSAS vs. MIA
p246
aVW
p247
aI18
aI1
aI3
aF0.333
aI0
aI0
aF0.0
aI0
aI0
aF0.0
aI0
aI2
aI2
aI4
aI0
aI0
aI1
aI1
aI2
aI2
aa(lp248
V0021400772
p249
aVFEB 08, 2015
p250
aVSAS @ TOR
p251
aVL
p252
aI24
aI2
aI5
aF0.4
aI1
aI2
aF0.5
aI1
aI2
aF0.5
aI3
aI3
aI6
aI2
aI1
aI1
aI2
aI1
aI6
aI1
aa(lp253
V0021400774
p254
aVFEB 09, 2015
p255
aVSAS @ IND
p256
aVW
p257
aI27
aI2
aI7
aF0.286
aI1
aI2
aF0.5
aI1
aI2
aF0.5
aI0
aI4
aI4
aI2
aI2
aI0
aI1
aI1
aI6
aI-11
aa(lp258
V0021400790
p259
aVFEB 11, 2015
p260
aVSAS @ DET
p261
aVW
p262
aI15
aI1
aI5
aF0.2
aI0
aI1
aF0.0
aI0
aI0
aF0.0
aI2
aI4
aI6
aI1
aI0
aI0
aI1
aI2
aI2
aI8
aa(lp263
V0021400802
p264
aVFEB 19, 2015
p265
aVSAS @ LAC
p266
aVL
p267
aI16
aI1
aI3
aF0.333
aI1
aI1
aF1.0
aI0
aI0
aF0.0
aI0
aI3
aI3
aI1
aI0
aI0
aI2
aI3
aI3
aI-14
aa(lp268
V0021400814
p269
aVFEB 20, 2015
p270
aVSAS @ GSW
p271
aVL
p272
aI21
aI5
aI7
aF0.714
aI1
aI2
aF0.5
aI0
aI0
aF0.0
aI0
aI5
aI5
aI1
aI0
aI0
aI4
aI1
aI11
aI-19
aa(lp273
V0021400836
p274
aVFEB 23, 2015
p275
aVSAS @ UTA
p276
aVL
p277
aI24
aI5
aI9
aF0.556
aI3
aI4
aF0.75
aI0
aI0
aF0.0
aI0
aI2
aI2
aI2
aI2
aI1
aI1
aI0
aI13
aI-8
aa(lp278
V0021400853
p279
aVFEB 25, 2015
p280
aVSAS @ POR
p281
aVL
p282
aI21
aI2
aI11
aF0.182
aI1
aI2
aF0.5
aI0
aI0
aF0.0
aI1
aI1
aI2
aI4
aI1
aI0
aI1
aI3
aI5
aI-10
aa(lp283
V0021400867
p284
aVFEB 27, 2015
p285
aVSAS @ SAC
p286
aVW
p287
aI20
aI3
aI7
aF0.429
aI1
aI3
aF0.333
aI0
aI0
aF0.0
aI2
aI1
aI3
aI0
aI0
aI0
aI0
aI1
aI7
aI14
aa(lp288
V0021400875
p289
aVFEB 28, 2015
p290
aVSAS @ PHX
p291
aVW
p292
aI23
aI6
aI14
aF0.429
aI0
aI1
aF0.0
aI0
aI0
aF0.0
aI1
aI3
aI4
aI1
aI1
aI0
aI1
aI1
aI12
aI5
aa(lp293
V0021400906
p294
aVMAR 04, 2015
p295
aVSAS vs. SAC
p296
aVW
p297
aI23
aI4
aI7
aF0.571
aI0
aI2
aF0.0
aI0
aI0
aF0.0
aI1
aI4
aI5
aI3
aI1
aI0
aI2
aI1
aI8
aI3
aa(lp298
V0021400921
p299
aVMAR 06, 2015
p300
aVSAS vs. DEN
p301
aVW
p302
aI23
aI3
aI5
aF0.6
aI0
aI1
aF0.0
aI1
aI1
aF1.0
aI0
aI3
aI3
aI1
aI1
aI0
aI1
aI2
aI7
aI7
aa(lp303
V0021400931
p304
aVMAR 08, 2015
p305
aVSAS vs. CHI
p306
aVW
p307
aI6
aI1
aI1
aF1.0
aI0
aI0
aF0.0
aI0
aI0
aF0.0
aI0
aI1
aI1
aI0
aI0
aI0
aI0
aI2
aI2
aI1
aa(lp308
V0021400949
p309
aVMAR 10, 2015
p310
aVSAS vs. TOR
p311
aVW
p312
aI17
aI0
aI2
aF0.0
aI0
aI0
aF0.0
aI0
aI0
aF0.0
aI2
aI0
aI2
aI4
aI0
aI0
aI3
aI1
aI0
aI3
aa(lp313
V0021400964
p314
aVMAR 12, 2015
p315
aVSAS vs. CLE
p316
aVL
p317
aI24
aI4
aI8
aF0.5
aI0
aI3
aF0.0
aI1
aI2
aF0.5
aI1
aI2
aI3
aI1
aI0
aI0
aI0
aI3
aI9
aI-5
aa(lp318
V0021400986
p319
aVMAR 15, 2015
p320
aVSAS vs. MIN
p321
aVW
p322
aI25
aI3
aI7
aF0.429
aI1
aI3
aF0.333
aI2
aI2
aF1.0
aI2
aI6
aI8
aI4
aI0
aI0
aI1
aI3
aI9
aI0
aa(lp323
V0021401001
p324
aVMAR 17, 2015
p325
aVSAS @ NYK
p326
aVL
p327
aI26
aI4
aI11
aF0.364
aI0
aI2
aF0.0
aI0
aI0
aF0.0
aI1
aI1
aI2
aI2
aI1
aI0
aI0
aI4
aI8
aI-12
aa(lp328
V0021401010
p329
aVMAR 18, 2015
p330
aVSAS @ MIL
p331
aVW
p332
aI31
aI5
aI8
aF0.625
aI0
aI0
aF0.0
aI8
aI8
aF1.0
aI0
aI6
aI6
aI5
aI1
aI0
aI0
aI1
aI18
aI9
aa(lp333
V0021401028
p334
aVMAR 20, 2015
p335
aVSAS vs. BOS
p336
aVW
p337
aI26
aI3
aI7
aF0.429
aI1
aI4
aF0.25
aI2
aI2
aF1.0
aI1
aI3
aI4
aI4
aI0
aI0
aI3
aI1
aI9
aI16
aa(lp338
V0021401039
p339
aVMAR 22, 2015
p340
aVSAS @ ATL
p341
aVW
p342
aI22
aI8
aI10
aF0.8
aI1
aI2
aF0.5
aI0
aI0
aF0.0
aI0
aI2
aI2
aI2
aI0
aI0
aI3
aI3
aI17
aI3
aa(lp343
V0021401057
p344
aVMAR 24, 2015
p345
aVSAS @ DAL
p346
aVL
p347
aI29
aI4
aI12
aF0.333
aI0
aI2
aF0.0
aI0
aI0
aF0.0
aI1
aI3
aI4
aI1
aI0
aI0
aI3
aI3
aI8
aI2
aa(lp348
V0021401071
p349
aVMAR 25, 2015
p350
aVSAS vs. OKC
p351
aVW
p352
aI25
aI9
aI15
aF0.6
aI1
aI1
aF1.0
aI0
aI0
aF0.0
aI3
aI3
aI6
aI1
aI0
aI0
aI1
aI2
aI19
aI19
aa(lp353
V0021401084
p354
aVMAR 27, 2015
p355
aVSAS vs. DAL
p356
aVW
p357
aI26
aI8
aI11
aF0.727
aI3
aI4
aF0.75
aI0
aI0
aF0.0
aI1
aI2
aI3
aI3
aI0
aI0
aI0
aI1
aI19
aI24
aa(lp358
V0021401098
p359
aVMAR 29, 2015
p360
aVSAS vs. MEM
p361
aVW
p362
aI22
aI4
aI8
aF0.5
aI1
aI2
aF0.5
aI1
aI2
aF0.5
aI2
aI5
aI7
aI2
aI0
aI0
aI2
aI2
aI10
aI6
aa(lp363
V0021401110
p364
aVMAR 31, 2015
p365
aVSAS @ MIA
p366
aVW
p367
aI25
aI5
aI12
aF0.417
aI1
aI3
aF0.333
aI0
aI0
aF0.0
aI1
aI1
aI2
aI2
aI0
aI0
aI3
aI2
aI11
aI7
aa(lp368
V0021401113
p369
aVAPR 01, 2015
p370
aVSAS @ ORL
p371
aVW
p372
aI24
aI4
aI9
aF0.444
aI2
aI5
aF0.4
aI1
aI1
aF1.0
aI1
aI3
aI4
aI4
aI2
aI1
aI1
aI0
aI11
aI37
aa(lp373
V0021401134
p374
aVAPR 03, 2015
p375
aVSAS vs. DEN
p376
aVW
p377
aI26
aI5
aI11
aF0.455
aI1
aI4
aF0.25
aI2
aI2
aF1.0
aI1
aI3
aI4
aI2
aI1
aI1
aI2
aI0
aI13
aI12
aa(lp378
V0021401150
p379
aVAPR 05, 2015
p380
aVSAS vs. GSW
p381
aVW
p382
aI23
aI1
aI7
aF0.143
aI0
aI1
aF0.0
aI0
aI0
aF0.0
aI0
aI5
aI5
aI3
aI0
aI0
aI1
aI0
aI2
aI4
aa(lp383
V0021401157
p384
aVAPR 07, 2015
p385
aVSAS @ OKC
p386
aVW
p387
aI26
aI3
aI6
aF0.5
aI0
aI0
aF0.0
aI0
aI0
aF0.0
aI1
aI3
aI4
aI6
aI0
aI1
aI3
aI2
aI6
aI26
aa(lp388
V0021401168
p389
aVAPR 08, 2015
p390
aVSAS vs. HOU
p391
aVW
p392
aI27
aI7
aI14
aF0.5
aI1
aI3
aF0.333
aI0
aI0
aF0.0
aI2
aI7
aI9
aI2
aI0
aI1
aI0
aI1
aI15
aI20
aa(lp393
V0021401181
p394
aVAPR 10, 2015
p395
aVSAS @ HOU
p396
aVW
p397
aI26
aI4
aI13
aF0.308
aI0
aI1
aF0.0
aI2
aI2
aF1.0
aI3
aI2
aI5
aI4
aI0
aI0
aI0
aI5
aI10
aI5
aa(lp398
V0021401200
p399
aVAPR 12, 2015
p400
aVSAS vs. PHX
p401
aVW
p402
aI24
aI2
aI5
aF0.4
aI0
aI0
aF0.0
aI2
aI2
aF1.0
aI1
aI4
aI5
aI0
aI0
aI0
aI3
aI1
aI6
aI17
aa(lp403
V0021401223
p404
aVAPR 15, 2015
p405
aVSAS @ NOP
p406
aVL
p407
aI34
aI10
aI14
aF0.714
aI0
aI1
aF0.0
aI0
aI0
aF0.0
aI0
aI5
aI5
aI5
aI0
aI0
aI4
aI0
aI20
aI-6
aasS'name'
p408
VBoris Diaw
p409
sS'weight'
p410
V250
p411
sS'age'
p412
I32
sS'experience'
p413
I11
sS'height'
p414
V6-8
p415
sS'position'
p416
VCenter-Forward
p417
s.