(dp0
S'stats'
p1
(lp2
(lp3
V0021400001
p4
aVOCT 28, 2014
p5
aVORL @ NOP
p6
aVL
p7
aI23
aI1
aI8
aF0.125
aI0
aI2
aF0.0
aI3
aI4
aF0.75
aI0
aI4
aI4
aI1
aI0
aI0
aI0
aI3
aI5
aI-15
aa(lp8
V0021400016
p9
aVOCT 30, 2014
p10
aVORL vs. WAS
p11
aVL
p12
aI26
aI7
aI12
aF0.583
aI2
aI5
aF0.4
aI6
aI7
aF0.857
aI0
aI0
aI0
aI4
aI0
aI0
aI1
aI2
aI22
aI9
aa(lp13
V0021400029
p14
aVNOV 01, 2014
p15
aVORL vs. TOR
p16
aVL
p17
aI25
aI3
aI8
aF0.375
aI1
aI3
aF0.333
aI0
aI0
aF0.0
aI0
aI2
aI2
aI1
aI0
aI0
aI1
aI1
aI7
aI-4
aa(lp18
V0021400053
p19
aVNOV 04, 2014
p20
aVORL @ CHI
p21
aVL
p22
aI17
aI3
aI6
aF0.5
aI0
aI0
aF0.0
aI0
aI0
aF0.0
aI1
aI1
aI2
aI3
aI0
aI0
aI0
aI2
aI6
aI-2
aa(lp23
V0021400058
p24
aVNOV 05, 2014
p25
aVORL @ PHI
p26
aVW
p27
aI20
aI5
aI11
aF0.455
aI0
aI1
aF0.0
aI5
aI6
aF0.833
aI0
aI1
aI1
aI0
aI0
aI0
aI2
aI3
aI15
aI6
aa(lp28
V0021400072
p29
aVNOV 07, 2014
p30
aVORL vs. MIN
p31
aVW
p32
aI18
aI0
aI3
aF0.0
aI0
aI0
aF0.0
aI0
aI0
aF0.0
aI1
aI0
aI1
aI2
aI0
aI0
aI2
aI1
aI0
aI-7
aa(lp33
V0021400090
p34
aVNOV 09, 2014
p35
aVORL @ BKN
p36
aVL
p37
aI8
aI0
aI1
aF0.0
aI0
aI1
aF0.0
aI0
aI0
aF0.0
aI0
aI1
aI1
aI3
aI0
aI0
aI2
aI1
aI0
aI0
aa(lp38
V0021400103
p39
aVNOV 11, 2014
p40
aVORL @ TOR
p41
aVL
p42
aI9
aI1
aI2
aF0.5
aI1
aI2
aF0.5
aI0
aI0
aF0.0
aI0
aI1
aI1
aI1
aI0
aI0
aI1
aI1
aI3
aI-8
aa(lp43
V0021400132
p44
aVNOV 15, 2014
p45
aVORL @ WAS
p46
aVL
p47
aI5
aI0
aI3
aF0.0
aI0
aI0
aF0.0
aI0
aI0
aF0.0
aI0
aI0
aI0
aI0
aI0
aI0
aI1
aI0
aI0
aI1
aa(lp48
V0021400150
p49
aVNOV 17, 2014
p50
aVORL @ DET
p51
aVW
p52
aI6
aI1
aI1
aF1.0
aI0
aI0
aF0.0
aI0
aI0
aF0.0
aI0
aI0
aI0
aI1
aI0
aI0
aI1
aI0
aI2
aI-1
aa(lp53
V0021400172
p54
aVNOV 21, 2014
p55
aVORL @ CHA
p56
aVW
p57
aI16
aI4
aI8
aF0.5
aI1
aI4
aF0.25
aI2
aI3
aF0.667
aI0
aI3
aI3
aI0
aI0
aI0
aI0
aI0
aI11
aI27
aa(lp58
V0021400185
p59
aVNOV 22, 2014
p60
aVORL vs. MIA
p61
aVL
p62
aI17
aI2
aI3
aF0.667
aI0
aI0
aF0.0
aI3
aI4
aF0.75
aI0
aI0
aI0
aI1
aI2
aI0
aI3
aI1
aI7
aI11
aa(lp63
V0021400199
p64
aVNOV 24, 2014
p65
aVORL @ CLE
p66
aVL
p67
aI8
aI0
aI2
aF0.0
aI0
aI0
aF0.0
aI0
aI0
aF0.0
aI0
aI1
aI1
aI0
aI0
aI0
aI0
aI0
aI0
aI-11
aa(lp68
V0021400212
p69
aVNOV 26, 2014
p70
aVORL vs. GSW
p71
aVL
p72
aI21
aI4
aI9
aF0.444
aI2
aI5
aF0.4
aI3
aI4
aF0.75
aI0
aI2
aI2
aI0
aI1
aI0
aI1
aI1
aI13
aI2
aa(lp73
V0021400230
p74
aVNOV 28, 2014
p75
aVORL @ IND
p76
aVL
p77
aI19
aI4
aI6
aF0.667
aI2
aI3
aF0.667
aI2
aI2
aF1.0
aI0
aI2
aI2
aI1
aI0
aI0
aI4
aI0
aI12
aI-2
aa(lp78
V0021400246
p79
aVNOV 30, 2014
p80
aVORL @ PHX
p81
aVW
p82
aI14
aI3
aI5
aF0.6
aI1
aI2
aF0.5
aI1
aI1
aF1.0
aI1
aI0
aI1
aI1
aI0
aI0
aI0
aI2
aI8
aI3
aa(lp83
V0021400262
p84
aVDEC 02, 2014
p85
aVORL @ GSW
p86
aVL
p87
aI16
aI3
aI6
aF0.5
aI0
aI1
aF0.0
aI0
aI0
aF0.0
aI0
aI1
aI1
aI0
aI0
aI0
aI1
aI2
aI6
aI0
aa(lp88
V0021400272
p89
aVDEC 03, 2014
p90
aVORL @ LAC
p91
aVL
p92
aI19
aI4
aI8
aF0.5
aI0
aI2
aF0.0
aI3
aI3
aF1.0
aI0
aI0
aI0
aI2
aI0
aI0
aI1
aI2
aI11
aI-7
aa(lp93
V0021400286
p94
aVDEC 05, 2014
p95
aVORL @ UTA
p96
aVW
p97
aI18
aI5
aI6
aF0.833
aI0
aI0
aF0.0
aI2
aI2
aF1.0
aI0
aI0
aI0
aI1
aI0
aI0
aI1
aI0
aI12
aI-3
aa(lp98
V0021400292
p99
aVDEC 06, 2014
p100
aVORL @ SAC
p101
aVW
p102
aI12
aI5
aI6
aF0.833
aI1
aI1
aF1.0
aI0
aI0
aF0.0
aI0
aI0
aI0
aI1
aI0
aI0
aI0
aI1
aI11
aI4
aa(lp103
V0021400318
p104
aVDEC 10, 2014
p105
aVORL vs. WAS
p106
aVL
p107
aI18
aI2
aI9
aF0.222
aI0
aI2
aF0.0
aI0
aI0
aF0.0
aI0
aI3
aI3
aI0
aI0
aI0
aI0
aI1
aI4
aI2
aa(lp108
V0021400330
p109
aVDEC 12, 2014
p110
aVORL @ ATL
p111
aVL
p112
aI18
aI2
aI6
aF0.333
aI1
aI2
aF0.5
aI0
aI0
aF0.0
aI0
aI0
aI0
aI1
aI1
aI0
aI0
aI1
aI5
aI-14
aa(lp113
V0021400343
p114
aVDEC 13, 2014
p115
aVORL vs. ATL
p116
aVW
p117
aI13
aI3
aI4
aF0.75
aI3
aI3
aF1.0
aI3
aI3
aF1.0
aI0
aI0
aI0
aI1
aI2
aI0
aI2
aI1
aI12
aI-2
aa(lp118
V0021400359
p119
aVDEC 15, 2014
p120
aVORL @ TOR
p121
aVL
p122
aI23
aI7
aI11
aF0.636
aI2
aI4
aF0.5
aI0
aI0
aF0.0
aI1
aI2
aI3
aI0
aI0
aI0
aI1
aI0
aI16
aI10
aa(lp123
V0021400371
p124
aVDEC 17, 2014
p125
aVORL @ BOS
p126
aVL
p127
aI16
aI2
aI7
aF0.286
aI0
aI1
aF0.0
aI0
aI0
aF0.0
aI0
aI0
aI0
aI1
aI0
aI0
aI1
aI1
aI4
aI-9
aa(lp128
V0021400383
p129
aVDEC 19, 2014
p130
aVORL vs. UTA
p131
aVL
p132
aI14
aI1
aI6
aF0.167
aI1
aI3
aF0.333
aI0
aI0
aF0.0
aI0
aI2
aI2
aI1
aI0
aI0
aI0
aI1
aI3
aI-9
aa(lp133
V0021400405
p134
aVDEC 21, 2014
p135
aVORL vs. PHI
p136
aVL
p137
aI3
aI0
aI0
aF0.0
aI0
aI0
aF0.0
aI0
aI0
aF0.0
aI0
aI0
aI0
aI0
aI0
aI0
aI0
aI0
aI0
aI-6
aa(lp138
V0021400418
p139
aVDEC 23, 2014
p140
aVORL vs. BOS
p141
aVW
p142
aI15
aI4
aI4
aF1.0
aI0
aI0
aF0.0
aI0
aI0
aF0.0
aI0
aI1
aI1
aI1
aI0
aI0
aI1
aI1
aI8
aI1
aa(lp143
V0021400433
p144
aVDEC 26, 2014
p145
aVORL vs. CLE
p146
aVL
p147
aI19
aI4
aI6
aF0.667
aI2
aI4
aF0.5
aI0
aI1
aF0.0
aI0
aI2
aI2
aI2
aI0
aI0
aI0
aI1
aI10
aI-14
aa(lp148
V0021400444
p149
aVDEC 27, 2014
p150
aVORL @ CHA
p151
aVW
p152
aI17
aI3
aI5
aF0.6
aI2
aI2
aF1.0
aI3
aI3
aF1.0
aI0
aI0
aI0
aI0
aI0
aI1
aI1
aI0
aI11
aI9
aa(lp153
V0021400462
p154
aVDEC 29, 2014
p155
aVORL @ MIA
p156
aVW
p157
aI12
aI3
aI8
aF0.375
aI2
aI4
aF0.5
aI0
aI0
aF0.0
aI0
aI0
aI0
aI1
aI0
aI0
aI0
aI2
aI8
aI-3
aa(lp158
V0021400465
p159
aVDEC 30, 2014
p160
aVORL vs. DET
p161
aVL
p162
aI10
aI2
aI5
aF0.4
aI0
aI1
aF0.0
aI0
aI0
aF0.0
aI0
aI1
aI1
aI0
aI1
aI0
aI0
aI1
aI4
aI-2
aa(lp163
V0021400485
p164
aVJAN 02, 2015
p165
aVORL vs. BKN
p166
aVL
p167
aI19
aI5
aI9
aF0.556
aI1
aI3
aF0.333
aI3
aI4
aF0.75
aI0
aI4
aI4
aI0
aI1
aI0
aI1
aI4
aI14
aI13
aa(lp168
V0021400495
p169
aVJAN 03, 2015
p170
aVORL vs. CHA
p171
aVL
p172
aI11
aI1
aI3
aF0.333
aI1
aI2
aF0.5
aI2
aI2
aF1.0
aI0
aI1
aI1
aI0
aI0
aI0
aI0
aI1
aI5
aI1
aa(lp173
V0021400530
p174
aVJAN 07, 2015
p175
aVORL @ DEN
p176
aVL
p177
aI14
aI2
aI6
aF0.333
aI0
aI3
aF0.0
aI0
aI0
aF0.0
aI0
aI1
aI1
aI2
aI1
aI0
aI1
aI2
aI4
aI-10
aa(lp178
V0021400548
p179
aVJAN 09, 2015
p180
aVORL @ LAL
p181
aVL
p182
aI4
aI0
aI1
aF0.0
aI0
aI0
aF0.0
aI2
aI2
aF1.0
aI0
aI1
aI1
aI0
aI0
aI0
aI2
aI1
aI2
aI-1
aa(lp183
V0021400557
p184
aVJAN 10, 2015
p185
aVORL @ POR
p186
aVL
p187
aI26
aI1
aI7
aF0.143
aI1
aI3
aF0.333
aI2
aI2
aF1.0
aI1
aI3
aI4
aI1
aI0
aI0
aI2
aI3
aI5
aI-1
aa(lp188
V0021400566
p189
aVJAN 12, 2015
p190
aVORL @ CHI
p191
aVW
p192
aI17
aI3
aI6
aF0.5
aI1
aI3
aF0.333
aI0
aI0
aF0.0
aI0
aI2
aI2
aI1
aI0
aI0
aI0
aI1
aI7
aI-1
aa(lp193
V0021400575
p194
aVJAN 14, 2015
p195
aVORL vs. HOU
p196
aVW
p197
aI21
aI5
aI7
aF0.714
aI0
aI1
aF0.0
aI2
aI2
aF1.0
aI0
aI1
aI1
aI1
aI1
aI0
aI0
aI0
aI12
aI-4
aa(lp198
V0021400588
p199
aVJAN 16, 2015
p200
aVORL vs. MEM
p201
aVL
p202
aI15
aI0
aI5
aF0.0
aI0
aI0
aF0.0
aI2
aI2
aF1.0
aI0
aI1
aI1
aI0
aI0
aI0
aI1
aI0
aI2
aI-9
aa(lp203
V0021400609
p204
aVJAN 18, 2015
p205
aVORL vs. OKC
p206
aVL
p207
aI12
aI0
aI3
aF0.0
aI0
aI1
aF0.0
aI0
aI0
aF0.0
aI0
aI1
aI1
aI1
aI2
aI0
aI0
aI2
aI0
aI-21
aa(lp208
V0021400629
p209
aVJAN 21, 2015
p210
aVORL @ DET
p211
aVL
p212
aI6
aI0
aI3
aF0.0
aI0
aI0
aF0.0
aI0
aI0
aF0.0
aI0
aI0
aI0
aI3
aI0
aI0
aI1
aI0
aI0
aI0
aa(lp213
V0021400645
p214
aVJAN 23, 2015
p215
aVORL @ NYK
p216
aVL
p217
aI6
aI1
aI2
aF0.5
aI0
aI1
aF0.0
aI0
aI0
aF0.0
aI0
aI0
aI0
aI0
aI1
aI0
aI1
aI0
aI2
aI-2
aa(lp218
V0021400692
p219
aVJAN 29, 2015
p220
aVORL vs. MIL
p221
aVL
p222
aI3
aI0
aI1
aF0.0
aI0
aI1
aF0.0
aI0
aI0
aF0.0
aI0
aI0
aI0
aI0
aI0
aI0
aI0
aI0
aI0
aI-2
aa(lp223
V0021400706
p224
aVJAN 31, 2015
p225
aVORL vs. DAL
p226
aVL
p227
aI14
aI2
aI5
aF0.4
aI2
aI3
aF0.667
aI0
aI0
aF0.0
aI0
aI2
aI2
aI1
aI1
aI0
aI5
aI2
aI6
aI6
aa(lp228
V0021400739
p229
aVFEB 04, 2015
p230
aVORL @ SAS
p231
aVL
p232
aI9
aI0
aI4
aF0.0
aI0
aI1
aF0.0
aI0
aI0
aF0.0
aI0
aI0
aI0
aI0
aI0
aI0
aI0
aI1
aI0
aI-16
aa(lp233
V0021400788
p234
aVFEB 11, 2015
p235
aVORL vs. NYK
p236
aVW
p237
aI7
aI0
aI2
aF0.0
aI0
aI0
aF0.0
aI0
aI0
aF0.0
aI0
aI0
aI0
aI0
aI0
aI0
aI0
aI0
aI0
aI-5
aa(lp238
V0021400882
p239
aVMAR 01, 2015
p240
aVORL vs. CHA
p241
aVL
p242
aI12
aI2
aI5
aF0.4
aI0
aI1
aF0.0
aI0
aI0
aF0.0
aI0
aI1
aI1
aI0
aI0
aI0
aI3
aI1
aI4
aI-4
aa(lp243
V0021400897
p244
aVMAR 04, 2015
p245
aVORL vs. PHX
p246
aVL
p247
aI3
aI1
aI3
aF0.333
aI0
aI2
aF0.0
aI0
aI0
aF0.0
aI0
aI0
aI0
aI0
aI0
aI0
aI1
aI2
aI2
aI-3
aa(lp248
V0021400913
p249
aVMAR 06, 2015
p250
aVORL vs. SAC
p251
aVW
p252
aI14
aI5
aI8
aF0.625
aI2
aI2
aF1.0
aI0
aI0
aF0.0
aI0
aI0
aI0
aI1
aI0
aI0
aI0
aI2
aI12
aI-4
aa(lp253
V0021400935
p254
aVMAR 08, 2015
p255
aVORL vs. BOS
p256
aVW
p257
aI10
aI0
aI3
aF0.0
aI0
aI1
aF0.0
aI2
aI4
aF0.5
aI1
aI0
aI1
aI2
aI0
aI0
aI2
aI0
aI2
aI-17
aa(lp258
V0021400946
p259
aVMAR 10, 2015
p260
aVORL @ IND
p261
aVL
p262
aI6
aI1
aI2
aF0.5
aI0
aI1
aF0.0
aI0
aI0
aF0.0
aI0
aI3
aI3
aI0
aI0
aI0
aI0
aI0
aI2
aI-5
aa(lp263
V0021401002
p264
aVMAR 17, 2015
p265
aVORL @ HOU
p266
aVL
p267
aI19
aI5
aI9
aF0.556
aI1
aI4
aF0.25
aI2
aI2
aF1.0
aI0
aI1
aI1
aI1
aI0
aI0
aI2
aI1
aI13
aI-1
aa(lp268
V0021401012
p269
aVMAR 18, 2015
p270
aVORL @ DAL
p271
aVL
p272
aI14
aI2
aI6
aF0.333
aI1
aI3
aF0.333
aI0
aI0
aF0.0
aI0
aI1
aI1
aI1
aI0
aI0
aI3
aI1
aI5
aI3
aa(lp273
V0021401020
p274
aVMAR 20, 2015
p275
aVORL vs. POR
p276
aVW
p277
aI17
aI4
aI6
aF0.667
aI1
aI2
aF0.5
aI2
aI2
aF1.0
aI0
aI3
aI3
aI3
aI0
aI0
aI0
aI1
aI11
aI1
aa(lp278
V0021401044
p279
aVMAR 22, 2015
p280
aVORL vs. DEN
p281
aVL
p282
aI14
aI1
aI4
aF0.25
aI0
aI1
aF0.0
aI1
aI2
aF0.5
aI0
aI1
aI1
aI1
aI0
aI0
aI2
aI2
aI3
aI-21
aasS'name'
p283
VBen Gordon
p284
sS'weight'
p285
V205
p286
sS'age'
p287
I31
sS'experience'
p288
I10
sS'height'
p289
V6-3
p290
sS'position'
p291
VGuard
p292
s.