(dp0
Vresource
p1
Vleaguedashplayerstats
p2
sVresultSets
p3
(lp4
(dp5
Vheaders
p6
(lp7
VPLAYER_ID
p8
aVPLAYER_NAME
p9
aVTEAM_ID
p10
aVTEAM_ABBREVIATION
p11
aVAGE
p12
aVGP
p13
aVW
p14
aVL
p15
aVW_PCT
p16
aVMIN
p17
aVFGM
p18
aVFGA
p19
aVFG_PCT
p20
aVFG3M
p21
aVFG3A
p22
aVFG3_PCT
p23
aVFTM
p24
aVFTA
p25
aVFT_PCT
p26
aVOREB
p27
aVDREB
p28
aVREB
p29
aVAST
p30
aVTOV
p31
aVSTL
p32
aVBLK
p33
aVBLKA
p34
aVPF
p35
aVPFD
p36
aVPTS
p37
aVPLUS_MINUS
p38
aVDD2
p39
aVTD3
p40
aVCFID
p41
aVCFPARAMS
p42
asVrowSet
p43
(lp44
(lp45
I243
aVAaron McKie
p46
aI1610612747
aVLAL
p47
aF33.0
aI14
aI9
aI5
aF0.643
aF8.7
aF0.2
aF0.9
aF0.25
aF0.0
aF0.1
aF0.0
aF0.1
aF0.1
aF0.5
aF0.2
aF1.2
aF1.4
aF0.8
aF0.1
aF0.4
aF0.0
aF0.0
aF0.5
aF0.1
aF0.5
aF-1.4
aI0
aI0
aI5
aV243,1610612747
p48
aa(lp49
I101223
aVAaron Miles
p50
aI1610612744
aVGSW
p51
aF23.0
aI19
aI13
aI6
aF0.684
aF6.2
aF0.3
aF0.9
aF0.333
aF0.0
aF0.0
aF0.0
aF0.2
aF0.2
aF1.0
aF0.0
aF0.7
aF0.7
aF1.3
aF0.6
aF0.2
aF0.1
aF0.2
aF0.7
aF0.4
aF0.8
aF-0.2
aI0
aI0
aI5
aV101223,1610612744
p52
aa(lp53
I1425
aVAaron Williams
p54
aI1610612740
aVNOK
p55
aF34.0
aI48
aI21
aI27
aF0.438
aF16.5
aF1.9
aF3.7
aF0.517
aF0.0
aF0.0
aF0.0
aF0.8
aF1.2
aF0.69
aF1.3
aF2.4
aF3.8
aF0.4
aF0.6
aF0.4
aF0.4
aF0.4
aF2.9
aF1.0
aF4.6
aF-0.8
aI1
aI0
aI5
aV1425,1610612740
p56
aa(lp57
I1502
aVAdonal Foyle
p58
aI1610612744
aVGSW
p59
aF31.0
aI77
aI32
aI45
aF0.416
aF23.7
aF2.0
aF3.9
aF0.507
aF0.0
aF0.0
aF0.0
aF0.5
aF0.9
aF0.612
aF1.9
aF3.6
aF5.5
aF0.4
aF1.0
aF0.6
aF1.6
aF0.3
aF2.8
aF1.1
aF4.5
aF-0.4
aI2
aI0
aI5
aV1502,1610612744
p60
aa(lp61
I1559
aVAdrian Griffin
p62
aI1610612742
aVDAL
p63
aF31.0
aI52
aI40
aI12
aF0.769
aF23.9
aF1.9
aF3.9
aF0.48
aF0.0
aF0.0
aF0.0
aF0.8
aF1.0
aF0.774
aF1.4
aF2.9
aF4.4
aF1.7
aF0.8
aF1.0
aF0.2
aF0.3
aF2.2
aF0.8
aF4.6
aF3.6
aI2
aI0
aI5
aV1559,1610612742
p64
aa(lp65
I1733
aVAl Harrington
p66
aI1610612737
aVATL
p67
aF26.0
aI76
aI24
aI52
aF0.316
aF36.6
aF7.3
aF16.1
aF0.452
aF0.9
aF2.5
aF0.346
aF3.2
aF4.6
aF0.694
aF1.7
aF5.1
aF6.9
aF3.1
aF2.6
aF1.1
aF0.2
aF0.9
aF4.0
aF3.8
aF18.6
aF-4.4
aI15
aI0
aI5
aV1733,1610612737
p68
aa(lp69
I2744
aVAl Jefferson
p70
aI1610612738
aVBOS
p71
aF21.0
aI59
aI23
aI36
aF0.39
aF18.0
aF3.2
aF6.4
aF0.499
aF0.0
aF0.1
aF0.0
aF1.5
aF2.3
aF0.642
aF1.6
aF3.4
aF5.1
aF0.5
aF1.1
aF0.5
aF0.8
aF0.7
aF2.8
aF2.0
aF7.9
aF-1.8
aI5
aI0
aI5
aV2744,1610612738
p72
aa(lp73
I101187
aVAlan Anderson
p74
aI1610612766
aVCHA
p75
aF23.0
aI36
aI7
aI29
aF0.194
aF15.7
aF2.1
aF5.0
aF0.414
aF0.7
aF1.6
aF0.414
aF0.9
aF1.1
aF0.805
aF0.6
aF1.3
aF1.9
aF0.9
aF0.9
aF0.3
aF0.1
aF0.5
aF1.3
aF1.1
aF5.8
aF0.2
aI0
aI0
aI5
aV101187,1610612766
p76
aa(lp77
I673
aVAlan Henderson
p78
aI1610612739
aVCLE
p79
aF33.0
aI51
aI31
aI20
aF0.608
aF10.4
aF0.9
aF1.8
aF0.516
aF0.0
aF0.0
aF0.0
aF0.6
aF1.0
aF0.673
aF1.2
aF1.5
aF2.7
aF0.2
aF0.4
aF0.2
aF0.2
aF0.3
aF1.1
aF0.7
aF2.5
aF-0.9
aI1
aI0
aI5
aV673,1610612739
p80
aa(lp81
I101165
aVAlex Acker
p82
aI1610612765
aVDET
p83
aF23.0
aI5
aI3
aI2
aF0.6
aF7.0
aF0.8
aF3.2
aF0.25
aF0.2
aF1.0
aF0.2
aF0.0
aF0.0
aF0.0
aF0.2
aF0.8
aF1.0
aF0.8
aF0.8
aF0.2
aF0.0
aF0.4
aF0.8
aF0.2
aF1.8
aF-6.6
aI0
aI0
aI5
aV101165,1610612765
p84
aa(lp85
I2637
aVAlex Scales
p86
aI1610612759
aVSAS
p87
aF27.0
aI1
aI1
aI0
aF1.0
aF0.2
aF0.0
aF0.0
aF0.0
aF0.0
aF0.0
aF0.0
aF0.0
aF0.0
aF0.0
aF0.0
aF0.0
aF0.0
aF0.0
aF0.0
aF0.0
aF0.0
aF0.0
aF0.0
aF0.0
aF0.0
aF0.0
aI0
aI0
aI5
aV2637,1610612759
p88
aa(lp89
I947
aVAllen Iverson
p90
aI1610612755
aVPHI
p91
aF31.0
aI72
aI35
aI37
aF0.486
aF43.1
aF11.3
aF25.3
aF0.447
aF1.0
aF3.1
aF0.323
aF9.4
aF11.5
aF0.814
aF0.6
aF2.6
aF3.2
aF7.4
aF3.4
aF1.9
aF0.1
aF1.4
aF1.7
aF9.3
aF33.0
aF0.0
aI18
aI0
aI5
aV947,1610612755
p92
aa(lp93
I297
aVAlonzo Mourning
p94
aI1610612748
aVMIA
p95
aF36.0
aI65
aI43
aI22
aF0.662
aF20.0
aF2.9
aF4.8
aF0.597
aF0.0
aF0.0
aF0.0
aF2.0
aF3.4
aF0.594
aF1.9
aF3.6
aF5.5
aF0.2
aF1.2
aF0.2
aF2.7
aF0.4
aF2.7
aF3.0
aF7.8
aF3.6
aI9
aI0
aI5
aV297,1610612748
p96
aa(lp97
I1541
aVAlvin Williams
p98
aI1610612761
aVTOR
p99
aF31.0
aI1
aI0
aI1
aF0.0
aF9.8
aF0.0
aF3.0
aF0.0
aF0.0
aF2.0
aF0.0
aF1.0
aF2.0
aF0.5
aF0.0
aF3.0
aF3.0
aF0.0
aF0.0
aF0.0
aF0.0
aF0.0
aF0.0
aF1.0
aF1.0
aF-5.0
aI0
aI0
aI5
aV1541,1610612761
p100
aa(lp101
I2405
aVAmar'e Stoudemire
p102
aI1610612756
aVPHX
p103
aF23.0
aI3
aI2
aI1
aF0.667
aF16.8
aF3.0
aF9.0
aF0.333
aF0.0
aF0.3
aF0.0
aF2.7
aF3.0
aF0.889
aF2.0
aF3.3
aF5.3
aF0.7
aF0.3
aF0.3
aF1.0
aF1.3
aF1.3
aF3.0
aF8.7
aF-1.3
aI0
aI0
aI5
aV2405,1610612756
p104
aa(lp105
I101161
aVAmir Johnson
p106
aI1610612765
aVDET
p107
aF19.0
aI3
aI1
aI2
aF0.333
aF12.9
aF2.3
aF3.3
aF0.7
aF0.7
aF1.0
aF0.667
aF1.3
aF1.3
aF1.0
aF1.0
aF0.3
aF1.3
aF1.0
aF1.3
aF0.0
aF0.7
aF0.0
aF2.3
aF0.7
aF6.7
aF-7.3
aI0
aI0
aI5
aV101161,1610612765
p108
aa(lp109
I2760
aVAnderson Varejao
p110
aI1610612739
aVCLE
p111
aF23.0
aI48
aI29
aI19
aF0.604
aF15.8
aF1.6
aF3.1
aF0.527
aF0.0
aF0.0
aF0.0
aF1.3
aF2.5
aF0.513
aF1.6
aF3.3
aF4.9
aF0.4
aF0.6
aF0.6
aF0.4
aF0.2
aF2.5
aF2.5
aF4.6
aF1.8
aI2
aI0
aI5
aV2760,1610612739
p112
aa(lp113
I101154
aVAndray Blatche
p114
aI1610612764
aVWAS
p115
aF19.0
aI29
aI16
aI13
aF0.552
aF6.1
aF0.9
aF2.3
aF0.388
aF0.1
aF0.4
aF0.231
aF0.3
aF0.4
aF0.833
aF0.4
aF0.9
aF1.3
aF0.3
aF0.4
aF0.2
aF0.2
aF0.2
aF1.2
aF0.3
aF2.2
aF-0.3
aI0
aI0
aI5
aV101154,1610612764
p116
aa(lp117
I2857
aVAndre Barrett
p118
aI1610612761
aVTOR
p119
aF24.0
aI19
aI4
aI15
aF0.211
aF14.9
aF2.0
aF5.5
aF0.365
aF0.1
aF0.7
aF0.143
aF0.5
aF0.6
aF0.75
aF0.5
aF0.8
aF1.3
aF2.7
aF0.8
aF0.5
aF0.0
aF0.6
aF0.7
aF0.7
aF4.6
aF-1.3
aI0
aI0
aI5
aV2857,1610612761
p120
aa(lp121
I2738
aVAndre Iguodala
p122
aI1610612755
aVPHI
p123
aF22.0
aI82
aI38
aI44
aF0.463
aF37.6
aF4.2
aF8.4
aF0.5
aF0.7
aF1.9
aF0.354
aF3.2
aF4.3
aF0.754
aF1.4
aF4.4
aF5.9
aF3.1
aF1.9
aF1.6
aF0.3
aF0.4
aF2.4
aF3.1
aF12.3
aF0.0
aI7
aI0
aI5
aV2738,1610612755
p124
aa(lp125
I1889
aVAndre Miller
p126
aI1610612743
aVDEN
p127
aF30.0
aI82
aI44
aI38
aF0.537
aF35.8
aF4.9
aF10.6
aF0.463
aF0.1
aF0.3
aF0.185
aF3.8
aF5.2
aF0.738
aF1.1
aF3.2
aF4.3
aF8.2
aF3.1
aF1.3
aF0.2
aF0.8
aF2.6
aF4.3
aF13.7
aF1.6
aI20
aI0
aI5
aV1889,1610612743
p128
aa(lp129
I101261
aVAndre Owens
p130
aI1610612762
aVUTA
p131
aF25.0
aI23
aI8
aI15
aF0.348
aF9.1
aF1.2
aF3.2
aF0.365
aF0.1
aF0.7
aF0.188
aF0.5
aF0.8
aF0.667
aF0.5
aF0.4
aF0.9
aF0.3
aF0.6
aF0.2
aF0.0
aF0.6
aF1.1
aF0.7
aF3.0
aF-1.4
aI0
aI0
aI5
aV101261,1610612762
p132
aa(lp133
I1905
aVAndrei Kirilenko
p134
aI1610612762
aVUTA
p135
aF25.0
aI69
aI38
aI31
aF0.551
aF37.7
aF4.9
aF10.6
aF0.46
aF0.5
aF1.7
aF0.308
aF5.0
aF7.2
aF0.699
aF2.3
aF5.7
aF8.0
aF4.3
aF2.9
aF1.5
aF3.2
aF0.8
aF2.3
aF5.4
aF15.3
aF0.6
aI22
aI2
aI5
aV1905,1610612762
p136
aa(lp137
I2804
aVAndres Nocioni
p138
aI1610612741
aVCHI
p139
aF26.0
aI82
aI41
aI41
aF0.5
aF27.3
aF4.7
aF10.1
aF0.461
aF1.1
aF2.9
aF0.391
aF2.5
aF3.0
aF0.843
aF1.1
aF5.0
aF6.1
aF1.4
aF1.5
aF0.5
aF0.6
aF0.8
aF3.1
aF3.3
aF13.0
aF-1.0
aI13
aI0
aI5
aV2804,1610612741
p140
aa(lp141
I101106
aVAndrew Bogut
p142
aI1610612749
aVMIL
p143
aF21.0
aI82
aI40
aI42
aF0.488
aF28.6
aF3.9
aF7.4
aF0.533
aF0.0
aF0.0
aF0.0
aF1.5
aF2.4
aF0.629
aF2.3
aF4.7
aF7.0
aF2.3
aF1.5
aF0.6
aF0.8
aF0.7
aF3.2
aF2.8
aF9.4
aF0.9
aI12
aI0
aI5
aV101106,1610612749
p144
aa(lp145
I101115
aVAndrew Bynum
p146
aI1610612747
aVLAL
p147
aF18.0
aI46
aI29
aI17
aF0.63
aF7.4
aF0.7
aF1.8
aF0.402
aF0.0
aF0.0
aF0.0
aF0.2
aF0.6
aF0.296
aF0.7
aF1.0
aF1.7
aF0.2
aF0.4
aF0.1
aF0.5
aF0.3
aF1.2
aF0.5
aF1.6
aF-1.0
aI0
aI0
aI5
aV101115,1610612747
p148
aa(lp149
I2740
aVAndris Biedrins
p150
aI1610612744
aVGSW
p151
aF20.0
aI68
aI30
aI38
aF0.441
aF14.7
aF1.7
aF2.7
aF0.638
aF0.0
aF0.0
aF0.0
aF0.3
aF1.1
aF0.306
aF1.8
aF2.3
aF4.2
aF0.4
aF0.5
aF0.3
aF0.7
aF0.2
aF2.8
aF1.1
aF3.8
aF0.5
aI2
aI0
aI5
aV2740,1610612744
p152
aa(lp153
I358
aVAnfernee Hardaway
p154
aI1610612752
aVNYK
p155
aF34.0
aI4
aI1
aI3
aF0.25
aF17.9
aF1.0
aF3.5
aF0.286
aF0.0
aF0.3
aF0.0
aF0.5
aF0.5
aF1.0
aF0.0
aF2.5
aF2.5
aF2.0
aF1.5
aF0.5
aF0.0
aF0.0
aF1.8
aF0.8
aF2.5
aF1.8
aI0
aI0
aI5
aV358,1610612752
p156
aa(lp157
I1712
aVAntawn Jamison
p158
aI1610612764
aVWAS
p159
aF30.0
aI82
aI42
aI40
aF0.512
aF40.1
aF8.0
aF18.2
aF0.442
aF1.8
aF4.5
aF0.394
aF2.6
aF3.6
aF0.731
aF2.0
aF7.3
aF9.3
aF1.9
aF1.7
aF1.1
aF0.1
aF0.7
aF2.3
aF3.3
aF20.5
aF3.0
aI35
aI0
aI5
aV1712,1610612764
p160
aa(lp161
I1853
aVAnthony Carter
p162
aI1610612750
aVMIN
p163
aF31.0
aI45
aI19
aI26
aF0.422
aF13.1
aF1.2
aF3.0
aF0.387
aF0.1
aF0.3
aF0.267
aF0.9
aF1.2
aF0.727
aF0.2
aF1.2
aF1.4
aF2.2
aF0.9
aF0.5
aF0.2
aF0.1
aF1.6
aF1.0
aF3.3
aF-0.9
aI0
aI0
aI5
aV1853,1610612750
p164
aa(lp165
I924
aVAnthony Goldwire
p166
aI1610612746
aVLAC
p167
aF34.0
aI3
aI3
aI0
aF1.0
aF7.3
aF0.3
aF2.3
aF0.143
aF0.0
aF0.7
aF0.0
aF0.0
aF0.0
aF0.0
aF0.0
aF0.3
aF0.3
aF0.7
aF0.3
aF0.0
aF0.0
aF0.0
aF0.0
aF0.0
aF0.7
aF-0.7
aI0
aI0
aI5
aV924,1610612746
p168
aa(lp169
I101219
aVAnthony Grundy
p170
aI1610612737
aVATL
p171
aF27.0
aI12
aI5
aI7
aF0.417
aF9.0
aF1.6
aF3.2
aF0.5
aF0.4
aF1.3
aF0.333
aF0.8
aF1.2
aF0.643
aF0.1
aF1.3
aF1.4
aF0.8
aF0.8
aF0.6
aF0.0
aF0.1
aF1.2
aF1.0
aF4.3
aF2.4
aI0
aI0
aI5
aV101219,1610612737
p172
aa(lp173
I1533
aVAnthony Johnson
p174
aI1610612754
aVIND
p175
aF31.0
aI75
aI35
aI40
aF0.467
aF26.4
aF3.6
aF8.0
aF0.443
aF0.7
aF2.1
aF0.329
aF1.4
aF1.9
aF0.752
aF0.4
aF1.8
aF2.2
aF4.3
aF1.5
aF0.8
aF0.3
aF0.4
aF1.8
aF1.8
aF9.2
aF1.8
aI2
aI0
aI5
aV1533,1610612754
p176
aa(lp177
I101194
aVAnthony Roberson
p178
aI1610612763
aVMEM
p179
aF23.0
aI16
aI11
aI5
aF0.688
aF5.5
aF0.9
aF1.9
aF0.452
aF0.3
aF0.6
aF0.5
aF0.1
aF0.1
aF1.0
aF0.0
aF0.4
aF0.4
aF0.3
aF0.2
aF0.1
aF0.0
aF0.1
aF0.4
aF0.3
aF2.2
aF-0.1
aI0
aI0
aI5
aV101194,1610612763
p180
aa(lp181
I952
aVAntoine Walker
p182
aI1610612748
aVMIA
p183
aF29.0
aI82
aI52
aI30
aF0.634
aF26.8
aF4.8
aF11.0
aF0.435
aF1.7
aF4.7
aF0.358
aF1.0
aF1.6
aF0.628
aF1.3
aF3.9
aF5.1
aF2.0
aF1.8
aF0.6
aF0.4
aF0.5
aF2.3
aF1.4
aF12.2
aF1.7
aI4
aI0
aI5
aV952,1610612748
p184
aa(lp185
I101120
aVAntoine Wright
p186
aI1610612751
aVNJN
p187
aF22.0
aI39
aI24
aI15
aF0.615
aF9.5
aF0.7
aF2.1
aF0.358
aF0.0
aF0.4
aF0.067
aF0.3
aF0.6
aF0.5
aF0.2
aF0.6
aF0.8
aF0.3
aF0.5
aF0.1
aF0.1
aF0.2
aF1.1
aF0.5
aF1.8
aF-1.9
aI0
aI0
aI5
aV101120,1610612751
p188
aa(lp189
I2766
aVAntonio Burks
p190
aI1610612763
aVMEM
p191
aF26.0
aI57
aI34
aI23
aF0.596
aF10.0
aF0.9
aF2.5
aF0.354
aF0.0
aF0.1
aF0.167
aF0.2
aF0.4
aF0.435
aF0.1
aF0.6
aF0.6
aF1.3
aF0.6
aF0.4
aF0.0
aF0.1
aF0.8
aF0.5
aF2.0
aF-0.5
aI0
aI0
aI5
aV2766,1610612763
p192
aa(lp193
I1498
aVAntonio Daniels
p194
aI1610612764
aVWAS
p195
aF31.0
aI80
aI42
aI38
aF0.525
aF28.5
aF2.9
aF6.9
aF0.418
aF0.3
aF1.3
aF0.228
aF3.6
aF4.2
aF0.845
aF0.2
aF1.9
aF2.2
aF3.6
aF1.1
aF0.7
aF0.1
aF0.3
aF1.2
aF3.4
aF9.6
aF1.5
aI0
aI0
aI5
aV1498,1610612764
p196
aa(lp197
I213
aVAntonio Davis
p198
aI1610612761
aVTOR
p199
aF37.0
aI44
aI16
aI28
aF0.364
aF21.4
aF1.9
aF4.3
aF0.432
aF0.0
aF0.0
aF0.0
aF1.2
aF1.8
aF0.642
aF2.0
aF2.7
aF4.7
aF0.5
aF1.2
aF0.5
aF0.2
aF0.4
aF2.8
aF2.2
aF4.9
aF-4.4
aI0
aI0
aI5
aV213,1610612761
p200
aa(lp201
I686
aVAntonio McDyess
p202
aI1610612765
aVDET
p203
aF31.0
aI82
aI64
aI18
aF0.78
aF21.1
aF3.5
aF6.8
aF0.509
aF0.0
aF0.0
aF0.0
aF0.8
aF1.5
aF0.557
aF1.9
aF3.4
aF5.3
aF1.1
aF0.9
aF0.6
aF0.6
aF0.2
aF2.7
aF1.6
aF7.8
aF1.7
aI5
aI0
aI5
aV686,1610612765
p204
aa(lp205
I101178
aVArvydas Macijauskas
p206
aI1610612740
aVNOK
p207
aF26.0
aI19
aI5
aI14
aF0.263
aF7.1
aF0.7
aF2.2
aF0.341
aF0.2
aF0.6
aF0.25
aF0.7
aF0.8
aF0.867
aF0.2
aF0.4
aF0.5
aF0.3
aF0.4
aF0.4
aF0.0
aF0.2
aF0.5
aF0.6
aF2.3
aF-0.4
aI0
aI0
aI5
aV101178,1610612740
p208
aa(lp209
I1506
aVAustin Croshere
p210
aI1610612754
aVIND
p211
aF31.0
aI50
aI27
aI23
aF0.54
aF23.0
aF2.6
aF5.7
aF0.463
aF1.1
aF2.8
aF0.386
aF1.8
aF2.0
aF0.882
aF1.2
aF4.1
aF5.3
aF1.2
aF1.0
aF0.4
aF0.1
aF0.4
aF2.1
aF1.6
aF8.2
aF2.2
aI4
aI0
aI5
aV1506,1610612754
p212
aa(lp213
I2852
aVAwvee Storey
p214
aI1610612764
aVWAS
p215
aF29.0
aI25
aI16
aI9
aF0.64
aF4.7
aF0.6
aF1.6
aF0.39
aF0.1
aF0.3
aF0.429
aF0.3
aF0.6
aF0.571
aF0.3
aF0.6
aF0.9
aF0.2
aF0.2
aF0.1
aF0.0
aF0.0
aF0.9
aF0.4
aF1.7
aF0.6
aI0
aI0
aI5
aV2852,1610612764
p216
aa(lp217
I1884
aVBaron Davis
p218
aI1610612744
aVGSW
p219
aF27.0
aI54
aI23
aI31
aF0.426
aF36.5
aF6.2
aF15.9
aF0.389
aF1.9
aF6.0
aF0.315
aF3.6
aF5.4
aF0.675
aF0.8
aF3.5
aF4.4
aF8.9
aF2.9
aF1.6
aF0.3
aF0.8
aF3.1
aF4.7
aF17.9
aF0.6
aI22
aI1
aI5
aV1884,1610612744
p220
aa(lp221
I2732
aVBen Gordon
p222
aI1610612741
aVCHI
p223
aF23.0
aI80
aI40
aI40
aF0.5
aF31.0
aF6.1
aF14.4
aF0.422
aF2.1
aF4.8
aF0.435
aF2.7
aF3.4
aF0.785
aF0.5
aF2.2
aF2.7
aF3.0
aF2.3
aF0.9
aF0.1
aF0.9
aF3.0
aF2.9
aF16.9
aF1.0
aI0
aI0
aI5
aV2732,1610612741
p224
aa(lp225
I1112
aVBen Wallace
p226
aI1610612765
aVDET
p227
aF31.0
aI82
aI64
aI18
aF0.78
aF35.2
aF2.9
aF5.7
aF0.51
aF0.0
aF0.0
aF0.0
aF1.5
aF3.6
aF0.416
aF3.7
aF7.6
aF11.3
aF1.9
aF1.1
aF1.8
aF2.2
aF0.3
aF2.0
aF3.5
aF7.3
aF7.3
aI17
aI0
aI5
aV1112,1610612765
p228
aa(lp229
I2757
aVBeno Udrih
p230
aI1610612759
aVSAS
p231
aF23.0
aI54
aI42
aI12
aF0.778
aF10.9
aF2.0
aF4.3
aF0.455
aF0.4
aF1.3
aF0.343
aF0.7
aF0.9
aF0.78
aF0.3
aF0.6
aF1.0
aF1.7
aF1.0
aF0.3
aF0.0
aF0.3
aF1.0
aF0.9
aF5.1
aF0.8
aI0
aI0
aI5
aV2757,1610612759
p232
aa(lp233
I2774
aVBernard Robinson
p234
aI1610612766
aVCHA
p235
aF25.0
aI66
aI16
aI50
aF0.242
aF19.7
aF2.4
aF5.5
aF0.43
aF0.0
aF0.3
aF0.095
aF1.6
aF2.0
aF0.791
aF0.9
aF2.4
aF3.3
aF1.2
aF1.1
aF1.2
aF0.2
aF0.4
aF2.1
aF1.6
aF6.4
aF-1.5
aI3
aI0
aI5
aV2774,1610612766
p236
aa(lp237
I2873
aVBilly Thomas
p238
aI1610612764
aVWAS
p239
aF30.0
aI17
aI8
aI9
aF0.471
aF7.7
aF0.8
aF2.4
aF0.325
aF0.6
aF1.8
aF0.333
aF0.1
aF0.1
aF1.0
aF0.3
aF0.5
aF0.8
aF0.5
aF0.4
aF0.6
aF0.1
aF0.0
aF1.1
aF0.1
aF2.2
aF-0.4
aI0
aI0
aI5
aV2873,1610612764
p240
aa(lp241
I448
aVBo Outlaw
p242
aI1610612753
aVORL
p243
aF35.0
aI32
aI15
aI17
aF0.469
aF11.1
aF1.1
aF1.8
aF0.603
aF0.0
aF0.0
aF0.0
aF0.2
aF0.3
aF0.625
aF1.0
aF1.4
aF2.4
aF0.4
aF0.5
aF0.3
aF0.4
aF0.1
aF1.6
aF0.7
aF2.3
aF-0.3
aI0
aI0
aI5
aV448,1610612753
p244
aa(lp245
I1517
aVBobby Jackson
p246
aI1610612763
aVMEM
p247
aF33.0
aI71
aI43
aI28
aF0.606
aF25.0
aF4.0
aF10.5
aF0.382
aF1.8
aF4.7
aF0.389
aF1.5
aF2.1
aF0.733
aF0.6
aF2.5
aF3.1
aF2.7
aF1.4
aF0.9
aF0.0
aF0.7
aF2.2
aF2.1
aF11.4
aF2.5
aI0
aI0
aI5
aV1517,1610612763
p248
aa(lp249
I2250
aVBobby Simmons
p250
aI1610612749
aVMIL
p251
aF26.0
aI75
aI36
aI39
aF0.48
aF33.8
aF4.9
aF10.8
aF0.453
aF1.4
aF3.3
aF0.42
aF2.2
aF2.7
aF0.825
aF1.2
aF3.2
aF4.4
aF2.3
aF1.6
aF1.1
aF0.3
aF0.7
aF3.4
aF2.4
aF13.4
aF0.7
aI4
aI0
aI5
aV2250,1610612749
p252
aa(lp253
I101238
aVBoniface N'Dong
p254
aI1610612746
aVLAC
p255
aF28.0
aI23
aI14
aI9
aF0.609
aF6.6
aF1.0
aF2.3
aF0.415
aF0.0
aF0.0
aF0.0
aF0.3
aF0.4
aF0.667
aF0.7
aF1.0
aF1.6
aF0.3
aF0.3
aF0.1
aF0.2
aF0.1
aF1.0
aF0.4
aF2.2
aF-1.9
aI0
aI0
aI5
aV101238,1610612746
p256
aa(lp257
I1719
aVBonzi Wells
p258
aI1610612758
aVSAC
p259
aF29.0
aI52
aI28
aI24
aF0.538
aF32.4
aF5.5
aF11.8
aF0.463
aF0.2
aF0.9
aF0.222
aF2.5
aF3.7
aF0.679
aF2.7
aF5.0
aF7.7
aF2.8
aF2.4
aF1.8
aF0.5
aF1.1
aF3.0
aF3.4
aF13.6
aF2.1
aI9
aI0
aI5
aV1719,1610612758
p260
aa(lp261
I2564
aVBoris Diaw
p262
aI1610612756
aVPHX
p263
aF24.0
aI81
aI53
aI28
aF0.654
aF35.5
aF5.5
aF10.5
aF0.526
aF0.1
aF0.4
aF0.267
aF2.1
aF2.9
aF0.731
aF2.0
aF4.9
aF6.9
aF6.2
aF2.3
aF0.7
aF1.0
aF0.5
aF3.2
aF3.3
aF13.3
aF6.0
aI18
aI4
aI5
aV2564,1610612756
p264
aa(lp265
I2411
aVBostjan Nachbar
p266
aI1610612751
aVNJN
p267
aF25.0
aI36
aI20
aI16
aF0.556
aF13.9
aF1.5
aF4.3
aF0.346
aF0.5
aF2.0
aF0.268
aF0.8
aF1.2
aF0.682
aF0.2
aF1.4
aF1.7
aF0.8
aF0.7
aF0.4
aF0.1
aF0.2
aF1.8
aF1.2
aF4.4
aF-0.1
aI0
aI0
aI5
aV2411,1610612751
p268
aa(lp269
I101152
aVBracey Wright
p270
aI1610612750
aVMIN
p271
aF21.0
aI7
aI1
aI6
aF0.143
aF19.3
aF3.0
aF7.3
aF0.412
aF0.9
aF2.4
aF0.353
aF2.0
aF2.3
aF0.875
aF0.4
aF2.1
aF2.6
aF0.7
aF1.1
aF0.1
aF0.0
aF0.4
aF1.1
aF1.6
aF8.9
aF-1.1
aI0
aI0
aI5
aV101152,1610612750
p272
aa(lp273
I1802
aVBrad Miller
p274
aI1610612758
aVSAC
p275
aF30.0
aI79
aI42
aI37
aF0.532
aF37.0
aF5.5
aF11.1
aF0.495
aF0.4
aF1.1
aF0.386
aF3.5
aF4.3
aF0.828
aF1.5
aF6.2
aF7.8
aF4.7
aF2.3
aF0.8
aF0.8
aF0.7
aF3.0
aF3.7
aF15.0
aF2.9
aI29
aI0
aI5
aV1802,1610612758
p276
aa(lp277
I101138
aVBrandon Bass
p278
aI1610612740
aVNOK
p279
aF21.0
aI29
aI14
aI15
aF0.483
aF9.3
aF1.0
aF2.4
aF0.4
aF0.0
aF0.0
aF0.0
aF0.4
aF0.7
aF0.632
aF0.6
aF1.7
aF2.3
aF0.1
aF0.4
aF0.1
aF0.2
aF0.3
aF0.6
aF0.7
aF2.3
aF-1.7
aI0
aI0
aI5
aV101138,1610612740
p280
aa(lp281
I2217
aVBrendan Haywood
p282
aI1610612764
aVWAS
p283
aF26.0
aI79
aI41
aI38
aF0.519
aF23.8
aF2.8
aF5.5
aF0.514
aF0.0
aF0.0
aF0.0
aF1.7
aF2.8
aF0.585
aF2.5
aF3.4
aF5.9
aF0.6
aF1.2
aF0.4
aF1.3
aF0.4
aF2.9
aF2.7
aF7.3
aF1.2
aI7
aI0
aI5
aV2217,1610612764
p284
aa(lp285
I699
aVBrent Barry
p286
aI1610612759
aVSAS
p287
aF34.0
aI74
aI56
aI18
aF0.757
aF17.0
aF2.1
aF4.7
aF0.452
aF1.1
aF2.7
aF0.396
aF0.5
aF0.8
aF0.661
aF0.4
aF1.8
aF2.1
aF1.7
aF0.7
aF0.5
aF0.4
aF0.2
aF1.3
aF0.7
aF5.8
aF2.7
aI0
aI0
aI5
aV699,1610612759
p288
aa(lp289
I1510
aVBrevin Knight
p290
aI1610612766
aVCHA
p291
aF30.0
aI69
aI19
aI50
aF0.275
aF34.1
aF4.5
aF11.2
aF0.399
aF0.0
aF0.2
aF0.231
aF3.7
aF4.6
aF0.803
aF0.5
aF2.7
aF3.2
aF8.8
aF2.4
aF2.3
aF0.1
aF0.8
aF2.9
aF3.6
aF12.6
aF-3.3
aI19
aI0
aI5
aV1510,1610612766
p292
aa(lp293
I2073
aVBrian Cardinal
p294
aI1610612763
aVMEM
p295
aF29.0
aI36
aI18
aI18
aF0.5
aF11.2
aF1.3
aF3.1
aF0.414
aF0.4
aF0.8
aF0.448
aF0.5
aF0.8
aF0.704
aF0.3
aF1.2
aF1.5
aF0.9
aF0.8
aF0.6
aF0.0
aF0.3
aF1.8
aF1.0
aF3.4
aF1.4
aI1
aI0
aI5
aV2073,1610612763
p296
aa(lp297
I2567
aVBrian Cook
p298
aI1610612747
aVLAL
p299
aF25.0
aI81
aI45
aI36
aF0.556
aF19.0
aF3.2
aF6.3
aF0.511
aF0.4
aF1.0
aF0.429
aF1.0
aF1.2
aF0.832
aF1.1
aF2.3
aF3.4
aF0.9
aF0.8
aF0.5
aF0.4
aF0.2
aF2.5
aF1.1
aF7.9
aF1.5
aI1
aI0
aI5
aV2567,1610612747
p300
aa(lp301
I258
aVBrian Grant
p302
aI1610612756
aVPHX
p303
aF34.0
aI21
aI10
aI11
aF0.476
aF11.8
aF1.3
aF3.1
aF0.415
aF0.0
aF0.0
aF0.0
aF0.3
aF0.4
aF0.875
aF0.5
aF2.2
aF2.7
aF0.3
aF0.3
aF0.2
aF0.1
aF0.1
aF2.1
aF0.6
aF2.9
aF-0.7
aI0
aI0
aI5
aV258,1610612756
p304
aa(lp305
I2243
aVBrian Scalabrine
p306
aI1610612738
aVBOS
p307
aF28.0
aI71
aI29
aI42
aF0.408
aF13.2
aF1.0
aF2.7
aF0.383
aF0.4
aF1.2
aF0.356
aF0.4
aF0.5
aF0.722
aF0.4
aF1.2
aF1.6
aF0.7
aF0.7
aF0.3
aF0.3
aF0.1
aF1.8
aF0.6
aF2.9
aF-0.4
aI0
aI0
aI5
aV2243,1610612738
p308
aa(lp309
I1730
aVBrian Skinner
p310
aI1610612757
aVPOR
p311
aF30.0
aI65
aI21
aI44
aF0.323
aF14.5
aF1.3
aF2.5
aF0.513
aF0.0
aF0.0
aF0.0
aF0.4
aF0.9
aF0.482
aF1.2
aF2.3
aF3.5
aF0.5
aF0.7
aF0.4
aF0.7
aF0.2
aF1.8
aF1.0
aF2.9
aF-3.4
aI0
aI0
aI5
aV1730,1610612757
p312
aa(lp313
I1477
aVBruce Bowen
p314
aI1610612759
aVSAS
p315
aF35.0
aI82
aI63
aI19
aF0.768
aF33.6
aF2.8
aF6.5
aF0.433
aF1.3
aF3.0
aF0.424
aF0.6
aF1.0
aF0.607
aF0.4
aF3.5
aF3.9
aF1.5
aF0.8
aF1.0
aF0.4
aF0.3
aF2.3
aF1.5
aF7.5
aF4.4
aI0
aI0
aI5
aV1477,1610612759
p316
aa(lp317
I935
aVBryon Russell
p318
aI1610612743
aVDEN
p319
aF35.0
aI1
aI0
aI1
aF0.0
aF2.6
aF0.0
aF0.0
aF0.0
aF0.0
aF0.0
aF0.0
aF0.0
aF0.0
aF0.0
aF0.0
aF1.0
aF1.0
aF1.0
aF0.0
aF0.0
aF0.0
aF0.0
aF0.0
aF0.0
aF0.0
aF4.0
aI0
aI0
aI5
aV935,1610612743
p320
aa(lp321
I101139
aVCJ Miles
p322
aI1610612762
aVUTA
p323
aF19.0
aI23
aI7
aI16
aF0.304
aF8.8
aF1.2
aF3.3
aF0.368
aF0.2
aF0.9
aF0.25
aF0.8
aF1.0
aF0.75
aF0.8
aF0.9
aF1.7
aF0.7
aF0.4
aF0.3
aF0.1
aF0.3
aF0.9
aF0.8
aF3.4
aF0.0
aI0
aI0
aI5
aV101139,1610612762
p324
aa(lp325
I384
aVCalbert Cheaney
p326
aI1610612744
aVGSW
p327
aF34.0
aI42
aI19
aI23
aF0.452
aF10.7
aF1.0
aF2.6
aF0.389
aF0.0
aF0.2
aF0.0
aF0.2
aF0.2
aF1.0
aF0.5
aF1.0
aF1.5
aF0.5
aF0.4
aF0.3
aF0.0
aF0.0
aF0.9
aF0.3
aF2.2
aF-2.2
aI0
aI0
aI5
aV384,1610612744
p328
aa(lp329
I1916
aVCalvin Booth
p330
aI1610612764
aVWAS
p331
aF30.0
aI33
aI14
aI19
aF0.424
aF7.6
aF0.6
aF1.4
aF0.426
aF0.0
aF0.1
aF0.5
aF0.2
aF0.3
aF0.556
aF0.6
aF1.0
aF1.6
aF0.4
aF0.2
aF0.3
aF0.3
aF0.0
aF1.3
aF0.3
aF1.4
aF-0.1
aI0
aI0
aI5
aV1916,1610612764
p332
aa(lp333
I2306
aVCarlos Arroyo
p334
aI1610612753
aVORL
p335
aF26.0
aI77
aI54
aI23
aF0.701
aF15.5
aF2.2
aF4.9
aF0.444
aF0.1
aF0.3
aF0.35
aF1.4
aF1.8
aF0.774
aF0.4
aF1.3
aF1.7
aF3.0
aF1.1
aF0.5
aF0.1
aF0.3
aF1.5
aF1.5
aF5.8
aF0.4
aI0
aI0
aI5
aV2306,1610612753
p336
aa(lp337
I2430
aVCarlos Boozer
p338
aI1610612762
aVUTA
p339
aF24.0
aI33
aI17
aI16
aF0.515
aF31.1
aF6.6
aF12.1
aF0.549
aF0.0
aF0.0
aF0.0
aF3.0
aF4.2
aF0.723
aF2.2
aF6.4
aF8.6
aF2.7
aF2.1
aF0.9
aF0.2
aF0.8
aF3.2
aF3.1
aF16.3
aF-1.9
aI11
aI0
aI5
aV2430,1610612762
p340
aa(lp341
I2568
aVCarlos Delfino
p342
aI1610612765
aVDET
p343
aF23.0
aI68
aI51
aI17
aF0.75
aF10.7
aF1.3
aF3.3
aF0.403
aF0.3
aF0.9
aF0.333
aF0.7
aF1.0
aF0.672
aF0.4
aF1.3
aF1.7
aF0.6
aF0.5
aF0.3
aF0.2
aF0.3
aF1.3
aF0.8
aF3.6
aF-1.4
aI0
aI0
aI5
aV2568,1610612765
p344
aa(lp345
I2546
aVCarmelo Anthony
p346
aI1610612743
aVDEN
p347
aF22.0
aI80
aI44
aI36
aF0.55
aF36.8
aF9.5
aF19.7
aF0.481
aF0.5
aF1.9
aF0.243
aF7.2
aF8.9
aF0.808
aF1.5
aF3.4
aF4.9
aF2.7
aF2.7
aF1.1
aF0.5
aF1.5
aF2.9
aF6.4
aF26.5
aF0.1
aI6
aI0
aI5
aV2546,1610612743
p348
aa(lp349
I2406
aVCaron Butler
p350
aI1610612764
aVWAS
p351
aF26.0
aI75
aI40
aI35
aF0.533
aF36.1
aF6.6
aF14.5
aF0.455
aF0.5
aF1.6
aF0.342
aF3.9
aF4.4
aF0.87
aF1.5
aF4.7
aF6.2
aF2.5
aF2.3
aF1.7
aF0.2
aF0.8
aF3.2
aF3.3
aF17.6
aF1.6
aI10
aI0
aI5
aV2406,1610612764
p352
aa(lp353
I101112
aVChanning Frye
p354
aI1610612752
aVNYK
p355
aF23.0
aI65
aI19
aI46
aF0.292
aF24.2
aF4.7
aF9.8
aF0.477
aF0.0
aF0.1
aF0.333
aF2.9
aF3.5
aF0.825
aF2.1
aF3.6
aF5.8
aF0.8
aF1.5
aF0.5
aF0.7
aF0.5
aF3.1
aF2.6
aF12.3
aF-0.8
aI3
aI0
aI5
aV101112,1610612752
p356
aa(lp357
I101236
aVCharles Hayes
p358
aI1610612745
aVHOU
p359
aF23.0
aI40
aI19
aI21
aF0.475
aF13.4
aF1.5
aF2.6
aF0.562
aF0.0
aF0.0
aF0.0
aF0.7
aF1.1
aF0.644
aF1.7
aF2.8
aF4.5
aF0.4
aF0.3
aF0.7
aF0.4
aF0.4
aF1.9
aF1.2
aF3.7
aF2.0
aI1
aI0
aI5
aV101236,1610612745
p360
aa(lp361
I1520
aVCharles Smith
p362
aI1610612743
aVDEN
p363
aF30.0
aI22
aI5
aI17
aF0.227
aF9.5
aF1.4
aF3.3
aF0.417
aF0.7
aF1.7
aF0.395
aF0.2
aF0.4
aF0.625
aF0.1
aF0.6
aF0.7
aF0.4
aF0.2
aF0.2
aF0.3
aF0.2
aF1.3
aF0.3
aF3.6
aF-0.3
aI0
aI0
aI5
aV1520,1610612743
p364
aa(lp365
I2294
aVCharlie Bell
p366
aI1610612749
aVMIL
p367
aF27.0
aI59
aI31
aI28
aF0.525
aF21.7
aF3.1
aF6.9
aF0.439
aF1.2
aF2.8
aF0.423
aF1.1
aF1.5
aF0.708
aF0.4
aF1.7
aF2.0
aF2.2
aF0.7
aF1.0
aF0.1
aF0.4
aF2.1
aF1.2
aF8.4
aF0.4
aI2
aI1
aI5
aV2294,1610612749
p368
aa(lp369
I101111
aVCharlie Villanueva
p370
aI1610612761
aVTOR
p371
aF21.0
aI81
aI26
aI55
aF0.321
aF29.1
aF5.4
aF11.6
aF0.463
aF0.9
aF2.6
aF0.327
aF1.4
aF2.0
aF0.706
aF2.2
aF4.2
aF6.4
aF1.1
aF1.2
aF0.7
aF0.8
aF0.5
aF3.0
aF1.8
aF13.0
aF-0.5
aI12
aI0
aI5
aV101111,1610612761
p372
aa(lp373
I1497
aVChauncey Billups
p374
aI1610612765
aVDET
p375
aF29.0
aI81
aI64
aI17
aF0.79
aF36.1
aF5.2
aF12.5
aF0.418
aF2.3
aF5.2
aF0.433
aF5.7
aF6.4
aF0.894
aF0.5
aF2.6
aF3.1
aF8.6
aF2.1
aF0.9
aF0.1
aF0.7
aF2.0
aF5.1
aF18.5
aF7.3
aI27
aI0
aI5
aV1497,1610612765
p376
aa(lp377
I2365
aVChris Andersen
p378
aI1610612740
aVNOK
p379
aF27.0
aI32
aI12
aI20
aF0.375
aF17.8
aF1.8
aF3.1
aF0.571
aF0.0
aF0.0
aF0.0
aF1.5
aF3.2
aF0.476
aF1.9
aF2.9
aF4.8
aF0.2
aF0.8
aF0.3
aF1.3
aF0.3
aF2.6
aF2.8
aF5.0
aF0.2
aI1
aI0
aI5
aV2365,1610612740
p380
aa(lp381
I2547
aVChris Bosh
p382
aI1610612761
aVTOR
p383
aF22.0
aI70
aI26
aI44
aF0.371
aF39.3
aF7.8
aF15.5
aF0.505
aF0.0
aF0.2
aF0.0
aF6.8
aF8.3
aF0.816
aF2.9
aF6.3
aF9.2
aF2.6
aF2.2
aF0.7
aF1.1
aF1.0
aF3.0
aF6.9
aF22.5
aF-0.8
aI32
aI0
aI5
aV2547,1610612761
p384
aa(lp385
I2768
aVChris Duhon
p386
aI1610612741
aVCHI
p387
aF23.0
aI74
aI36
aI38
aF0.486
aF29.1
aF2.9
aF7.3
aF0.4
aF1.4
aF3.8
aF0.36
aF1.6
aF1.9
aF0.818
aF0.4
aF2.6
aF3.0
aF5.0
aF1.6
aF0.9
aF0.0
aF0.4
aF2.1
aF1.8
aF8.7
aF-0.7
aI2
aI1
aI5
aV2768,1610612741
p388
aa(lp389
I2549
aVChris Kaman
p390
aI1610612746
aVLAC
p391
aF24.0
aI78
aI45
aI33
aF0.577
aF32.8
aF4.7
aF9.1
aF0.523
aF0.0
aF0.0
aF0.0
aF2.5
aF3.2
aF0.77
aF2.4
aF7.2
aF9.6
aF1.0
aF2.3
aF0.6
aF1.4
aF0.8
aF3.4
aF2.7
aF11.9
aF2.1
aI29
aI0
aI5
aV2549,1610612746
p392
aa(lp393
I2036
aVChris Mihm
p394
aI1610612747
aVLAL
p395
aF26.0
aI59
aI32
aI27
aF0.542
aF26.1
aF3.9
aF7.8
aF0.501
aF0.0
aF0.0
aF0.0
aF2.4
aF3.4
aF0.716
aF2.3
aF4.0
aF6.3
aF1.0
aF1.4
aF0.3
aF1.2
aF0.7
aF3.6
aF3.1
aF10.2
aF0.8
aI7
aI0
aI5
aV2036,1610612747
p396
aa(lp397
I101108
aVChris Paul
p398
aI1610612740
aVNOK
p399
aF21.0
aI78
aI35
aI43
aF0.449
aF36.0
aF5.2
aF12.1
aF0.43
aF0.6
aF2.3
aF0.282
aF5.1
aF6.0
aF0.847
aF0.8
aF4.3
aF5.1
aF7.8
aF2.3
aF2.2
aF0.1
aF0.8
aF2.8
aF5.2
aF16.1
aF-2.3
aI21
aI2
aI5
aV101108,1610612740
p400
aa(lp401
I101147
aVChris Taft
p402
aI1610612744
aVGSW
p403
aF21.0
aI17
aI9
aI8
aF0.529
aF8.5
aF1.4
aF2.2
aF0.605
aF0.0
aF0.0
aF0.0
aF0.1
aF0.4
aF0.167
aF1.1
aF1.0
aF2.1
aF0.1
aF0.1
aF0.1
aF0.4
aF0.1
aF1.5
aF0.2
aF2.8
aF0.6
aI0
aI0
aI5
aV101147,1610612744
p404
aa(lp405
I185
aVChris Webber
p406
aI1610612755
aVPHI
p407
aF33.0
aI75
aI33
aI42
aF0.44
aF38.6
aF8.2
aF19.0
aF0.434
aF0.3
aF1.0
aF0.273
aF3.5
aF4.6
aF0.756
aF2.5
aF7.4
aF9.9
aF3.4
aF2.4
aF1.4
aF0.8
aF0.7
aF2.9
aF3.4
aF20.2
aF-1.8
aI38
aI0
aI5
aV185,1610612755
p408
aa(lp409
I2404
aVChris Wilcox
p410
aI1610612760
aVSEA
p411
aF23.0
aI77
aI45
aI32
aF0.584
aF19.9
aF3.3
aF5.8
aF0.571
aF0.0
aF0.0
aF0.0
aF1.5
aF2.0
aF0.732
aF1.5
aF3.8
aF5.3
aF0.7
aF0.9
aF0.4
aF0.4
aF0.3
aF2.4
aF1.6
aF8.1
aF0.2
aI8
aI0
aI5
aV2404,1610612760
p412
aa(lp413
I1088
aVChucky Atkins
p414
aI1610612763
aVMEM
p415
aF31.0
aI71
aI37
aI34
aF0.521
aF24.1
aF3.2
aF8.1
aF0.394
aF1.4
aF3.9
aF0.354
aF1.8
aF2.3
aF0.791
aF0.3
aF1.4
aF1.7
aF2.8
aF1.2
aF0.6
aF0.0
aF0.3
aF2.1
aF1.8
aF9.5
aF0.5
aI0
aI0
aI5
aV1088,1610612763
p416
aa(lp417
I361
aVClifford Robinson
p418
aI1610612751
aVNJN
p419
aF39.0
aI80
aI49
aI31
aF0.613
aF23.3
aF2.7
aF6.4
aF0.427
aF0.8
aF2.2
aF0.343
aF0.7
aF1.0
aF0.658
aF0.7
aF2.7
aF3.3
aF1.1
aF0.8
aF0.6
aF0.5
aF0.2
aF2.6
aF0.9
aF6.9
aF0.3
aI0
aI0
aI5
aV361,1610612751
p420
aa(lp421
I1894
aVCorey Maggette
p422
aI1610612746
aVLAC
p423
aF26.0
aI32
aI21
aI11
aF0.656
aF29.5
aF5.2
aF11.7
aF0.445
aF0.8
aF2.2
aF0.338
aF6.6
aF8.0
aF0.828
aF0.9
aF4.4
aF5.3
aF2.1
aF2.4
aF0.6
aF0.1
aF0.9
aF3.0
aF5.5
aF17.8
aF3.9
aI5
aI0
aI5
aV1894,1610612746
p424
aa(lp425
I722
aVCorliss Williamson
p426
aI1610612758
aVSAC
p427
aF32.0
aI37
aI19
aI18
aF0.514
aF9.8
aF1.2
aF2.8
aF0.417
aF0.1
aF0.1
aF1.0
aF1.0
aF1.3
aF0.776
aF0.6
aF1.2
aF1.8
aF0.4
aF0.8
aF0.2
aF0.1
aF0.2
aF1.5
aF1.3
aF3.4
aF0.6
aI0
aI0
aI5
aV722,1610612758
p428
aa(lp429
I1749
aVCuttino Mobley
p430
aI1610612746
aVLAC
p431
aF30.0
aI79
aI45
aI34
aF0.57
aF37.7
aF5.4
aF12.8
aF0.426
aF1.1
aF3.1
aF0.339
aF2.9
aF3.5
aF0.839
aF0.6
aF3.7
aF4.3
aF3.0
aF1.8
aF1.2
aF0.5
aF0.6
aF2.6
aF2.6
aF14.8
aF1.5
aI3
aI0
aI5
aV1749,1610612746
p432
aa(lp433
I2788
aVDJ Mbenga
p434
aI1610612742
aVDAL
p435
aF25.0
aI43
aI33
aI10
aF0.767
aF5.5
aF0.7
aF1.4
aF0.533
aF0.0
aF0.0
aF0.0
aF0.2
aF0.5
aF0.5
aF0.4
aF0.9
aF1.3
aF0.0
aF0.4
aF0.1
aF0.6
aF0.0
aF1.1
aF0.4
aF1.7
aF0.1
aI0
aI0
aI5
aV2788,1610612742
p436
aa(lp437
I2563
aVDahntay Jones
p438
aI1610612763
aVMEM
p439
aF25.0
aI71
aI43
aI28
aF0.606
aF13.6
aF1.5
aF3.7
aF0.414
aF0.0
aF0.3
aF0.143
aF0.8
aF1.3
aF0.645
aF0.3
aF1.2
aF1.5
aF0.5
aF0.7
aF0.5
aF0.2
aF0.3
aF1.5
aF1.1
aF4.0
aF-1.8
aI0
aI0
aI5
aV2563,1610612763
p440
aa(lp441
I905
aVDale Davis
p442
aI1610612765
aVDET
p443
aF37.0
aI28
aI20
aI8
aF0.714
aF6.3
aF0.3
aF0.9
aF0.375
aF0.0
aF0.0
aF0.0
aF0.3
aF0.5
aF0.533
aF0.8
aF1.1
aF1.9
aF0.2
aF0.1
aF0.0
aF0.3
aF0.0
aF0.8
aF0.3
aF0.9
aF-1.0
aI0
aI0
aI5
aV905,1610612765
p444
aa(lp445
I2863
aVDamien Wilkins
p446
aI1610612760
aVSEA
p447
aF26.0
aI82
aI35
aI47
aF0.427
aF18.6
aF2.4
aF5.3
aF0.444
aF0.2
aF0.7
aF0.25
aF1.7
aF2.0
aF0.84
aF1.0
aF1.4
aF2.3
aF1.3
aF1.0
aF0.9
aF0.1
aF0.3
aF1.8
aF1.6
aF6.5
aF-2.1
aI2
aI0
aI5
aV2863,1610612760
p448
aa(lp449
I1800
aVDamon Jones
p450
aI1610612739
aVCLE
p451
aF29.0
aI82
aI50
aI32
aF0.61
aF25.5
aF2.3
aF6.0
aF0.387
aF1.7
aF4.5
aF0.377
aF0.4
aF0.6
aF0.64
aF0.2
aF1.5
aF1.6
aF2.1
aF0.7
aF0.5
aF0.0
aF0.1
aF1.4
aF0.5
aF6.7
aF1.8
aI0
aI0
aI5
aV1800,1610612739
p452
aa(lp453
I757
aVDamon Stoudamire
p454
aI1610612763
aVMEM
p455
aF32.0
aI27
aI17
aI10
aF0.63
aF31.9
aF4.2
aF10.6
aF0.397
aF1.3
aF3.9
aF0.346
aF2.0
aF2.3
aF0.855
aF0.9
aF2.7
aF3.5
aF4.7
aF2.0
aF0.7
aF0.0
aF0.7
aF1.8
aF1.7
aF11.7
aF3.1
aI0
aI0
aI5
aV757,1610612763
p456
aa(lp457
I2424
aVDan Dickau
p458
aI1610612738
aVBOS
p459
aF27.0
aI19
aI7
aI12
aF0.368
aF12.2
aF0.9
aF2.4
aF0.37
aF0.5
aF1.1
aF0.5
aF0.9
aF0.9
aF1.0
aF0.3
aF0.6
aF0.8
aF2.1
aF0.9
aF0.6
aF0.1
aF0.3
aF2.1
aF0.9
aF3.3
aF0.6
aI0
aI0
aI5
aV2424,1610612738
p460
aa(lp461
I2429
aVDan Gadzuric
p462
aI1610612749
aVMIL
p463
aF28.0
aI74
aI38
aI36
aF0.514
aF12.0
aF2.3
aF4.2
aF0.553
aF0.0
aF0.0
aF0.0
aF0.6
aF1.2
aF0.461
aF1.2
aF1.9
aF3.1
aF0.3
aF0.5
aF0.3
aF0.6
aF0.3
aF2.3
aF1.3
aF5.2
aF-0.5
aI1
aI0
aI5
aV2429,1610612749
p464
aa(lp465
I101137
aVDaniel Ewing
p466
aI1610612746
aVLAC
p467
aF23.0
aI66
aI39
aI27
aF0.591
aF14.7
aF1.5
aF3.9
aF0.38
aF0.3
aF1.2
aF0.282
aF0.5
aF0.7
aF0.783
aF0.3
aF0.9
aF1.3
aF1.3
aF0.9
aF0.6
aF0.1
aF0.1
aF1.3
aF0.6
aF3.8
aF-0.9
aI0
aI0
aI5
aV101137,1610612746
p468
aa(lp469
I1504
aVDanny Fortson
p470
aI1610612760
aVSEA
p471
aF30.0
aI23
aI9
aI14
aF0.391
aF12.0
aF1.2
aF2.2
aF0.529
aF0.0
aF0.0
aF0.0
aF1.4
aF1.9
aF0.767
aF1.3
aF2.0
aF3.4
aF0.1
aF1.1
aF0.2
aF0.1
aF0.4
aF3.3
aF2.0
aF3.8
aF2.2
aI0
aI0
aI5
aV1504,1610612760
p472
aa(lp473
I101122
aVDanny Granger
p474
aI1610612754
aVIND
p475
aF23.0
aI78
aI39
aI39
aF0.5
aF22.6
aF2.8
aF6.1
aF0.462
aF0.4
aF1.2
aF0.323
aF1.5
aF1.9
aF0.777
aF1.7
aF3.2
aF4.9
aF1.2
aF1.0
aF0.7
aF0.8
aF0.4
aF2.7
aF1.8
aF7.5
aF-0.7
aI6
aI0
aI5
aV101122,1610612754
p476
aa(lp477
I2032
aVDarius Miles
p478
aI1610612757
aVPOR
p479
aF24.0
aI40
aI9
aI31
aF0.225
aF32.1
aF5.9
aF12.8
aF0.461
aF0.1
aF0.3
aF0.2
aF2.2
aF4.1
aF0.534
aF0.6
aF4.0
aF4.6
aF1.8
aF2.5
aF1.1
aF1.0
aF0.6
aF2.5
aF3.3
aF14.0
aF-5.1
aI1
aI0
aI5
aV2032,1610612757
p480
aa(lp481
I2443
aVDarius Songaila
p482
aI1610612741
aVCHI
p483
aF28.0
aI62
aI27
aI35
aF0.435
aF21.4
aF3.8
aF7.9
aF0.481
aF0.0
aF0.1
aF0.4
aF1.5
aF1.9
aF0.817
aF1.2
aF2.7
aF4.0
aF1.4
aF1.4
aF0.6
aF0.3
aF0.3
aF2.5
aF1.9
aF9.2
aF0.9
aI2
aI0
aI5
aV2443,1610612741
p484
aa(lp485
I2545
aVDarko Milicic
p486
aI1610612753
aVORL
p487
aF21.0
aI55
aI40
aI15
aF0.727
aF13.9
aF2.2
aF4.3
aF0.509
aF0.0
aF0.0
aF0.0
aF0.5
aF0.9
aF0.56
aF0.8
aF1.9
aF2.7
aF0.7
aF0.9
aF0.3
aF1.4
aF0.2
aF1.7
aF0.9
aF4.8
aF-1.2
aI0
aI0
aI5
aV2545,1610612753
p488
aa(lp489
I353
aVDarrell Armstrong
p490
aI1610612742
aVDAL
p491
aF38.0
aI62
aI42
aI20
aF0.677
aF10.0
aF0.7
aF2.1
aF0.336
aF0.2
aF0.8
aF0.229
aF0.5
aF0.7
aF0.786
aF0.3
aF1.0
aF1.3
aF1.4
aF0.9
aF0.4
aF0.0
aF0.1
aF1.1
aF1.0
aF2.1
aF-0.2
aI0
aI0
aI5
aV353,1610612742
p492
aa(lp493
I239
aVDarrick Martin
p494
aI1610612761
aVTOR
p495
aF35.0
aI40
aI14
aI26
aF0.35
aF8.5
aF0.9
aF2.4
aF0.351
aF0.4
aF1.0
aF0.4
aF0.5
aF0.6
aF0.75
aF0.1
aF0.5
aF0.5
aF1.4
aF0.4
aF0.4
aF0.0
aF0.1
aF1.1
aF0.4
aF2.6
aF1.3
aI1
aI0
aI5
aV239,1610612761
p496
aa(lp497
I2758
aVDavid Harrison
p498
aI1610612754
aVIND
p499
aF23.0
aI67
aI34
aI33
aF0.507
aF15.4
aF2.2
aF4.4
aF0.503
aF0.0
aF0.0
aF0.0
aF1.3
aF2.6
aF0.511
aF1.3
aF2.5
aF3.8
aF0.2
aF1.2
aF0.3
aF0.9
aF0.5
aF2.9
aF2.0
aF5.7
aF-0.4
aI2
aI0
aI5
aV2758,1610612754
p500
aa(lp501
I101135
aVDavid Lee
p502
aI1610612752
aVNYK
p503
aF23.0
aI67
aI21
aI46
aF0.313
aF16.8
aF2.0
aF3.4
aF0.598
aF0.0
aF0.0
aF0.0
aF1.1
aF1.8
aF0.577
aF1.6
aF2.9
aF4.5
aF0.6
aF0.8
aF0.4
aF0.3
aF0.3
aF1.9
aF1.4
aF5.1
aF-1.6
aI4
aI0
aI5
aV101135,1610612752
p504
aa(lp505
I133
aVDavid Wesley
p506
aI1610612745
aVHOU
p507
aF35.0
aI71
aI31
aI40
aF0.437
aF33.4
aF3.2
aF7.9
aF0.403
aF1.4
aF3.8
aF0.365
aF2.1
aF2.6
aF0.807
aF0.3
aF2.2
aF2.5
aF2.9
aF1.7
aF0.8
aF0.1
aF0.4
aF3.0
aF2.2
aF9.9
aF-1.1
aI0
aI0
aI5
aV133,1610612745
p508
aa(lp509
I2561
aVDavid West
p510
aI1610612740
aVNOK
p511
aF25.0
aI74
aI35
aI39
aF0.473
aF34.1
aF7.2
aF14.0
aF0.512
aF0.0
aF0.1
aF0.273
aF2.7
aF3.2
aF0.843
aF2.3
aF5.1
aF7.4
aF1.2
aF1.4
aF0.8
aF0.9
aF0.9
aF2.9
aF2.7
aF17.1
aF-2.2
aI17
aI0
aI5
aV2561,1610612740
p512
aa(lp513
I2205
aVDeSagana Diop
p514
aI1610612742
aVDAL
p515
aF24.0
aI81
aI60
aI21
aF0.741
aF18.6
aF0.9
aF1.9
aF0.487
aF0.0
aF0.0
aF0.5
aF0.5
aF0.9
aF0.542
aF1.8
aF2.8
aF4.6
aF0.3
aF0.4
aF0.5
aF1.8
aF0.1
aF3.1
aF0.8
aF2.3
aF3.0
aI0
aI0
aI5
aV2205,1610612742
p516
aa(lp517
I2052
aVDeShawn Stevenson
p518
aI1610612753
aVORL
p519
aF25.0
aI82
aI36
aI46
aF0.439
aF32.3
aF4.4
aF9.5
aF0.46
aF0.0
aF0.2
aF0.133
aF2.2
aF3.0
aF0.744
aF0.7
aF2.2
aF2.9
aF2.0
aF1.5
aF0.7
aF0.2
aF0.7
aF2.2
aF2.4
aF11.0
aF-3.1
aI0
aI0
aI5
aV2052,1610612753
p520
aa(lp521
I2753
aVDelonte West
p522
aI1610612738
aVBOS
p523
aF22.0
aI71
aI28
aI43
aF0.394
aF34.0
aF4.7
aF9.6
aF0.487
aF1.2
aF3.1
aF0.385
aF1.2
aF1.4
aF0.851
aF0.8
aF3.3
aF4.1
aF4.6
aF1.9
aF1.2
aF0.6
aF0.5
aF2.8
aF1.5
aF11.8
aF0.8
aI2
aI0
aI5
aV2753,1610612738
p524
aa(lp525
I101184
aVDeng Gai
p526
aI1610612755
aVPHI
p527
aF24.0
aI2
aI0
aI2
aF0.0
aF2.4
aF0.0
aF0.0
aF0.0
aF0.0
aF0.0
aF0.0
aF0.0
aF0.0
aF0.0
aF0.0
aF0.0
aF0.0
aF0.0
aF0.0
aF0.0
aF0.0
aF0.0
aF0.0
aF0.0
aF0.0
aF-1.5
aI0
aI0
aI5
aV101184,1610612755
p528
aa(lp529
I2035
aVDerMarr Johnson
p530
aI1610612743
aVDEN
p531
aF26.0
aI58
aI29
aI29
aF0.5
aF15.9
aF2.3
aF5.3
aF0.431
aF1.0
aF2.8
aF0.35
aF0.6
aF0.7
aF0.81
aF0.3
aF1.3
aF1.7
aF0.9
aF0.8
aF0.4
aF0.4
aF0.3
aF1.5
aF0.7
aF6.1
aF-0.5
aI0
aI0
aI5
aV2035,1610612743
p532
aa(lp533
I1507
aVDerek Anderson
p534
aI1610612748
aVMIA
p535
aF31.0
aI43
aI22
aI21
aF0.512
aF24.3
aF2.5
aF7.0
aF0.356
aF0.9
aF3.1
aF0.299
aF2.2
aF2.6
aF0.838
aF0.5
aF2.8
aF3.3
aF2.3
aF1.3
aF0.5
aF0.1
aF0.2
aF2.3
aF2.1
aF8.1
aF-0.9
aI0
aI0
aI5
aV1507,1610612748
p536
aa(lp537
I965
aVDerek Fisher
p538
aI1610612744
aVGSW
p539
aF31.0
aI82
aI34
aI48
aF0.415
aF31.6
aF4.4
aF10.8
aF0.41
aF1.4
aF3.6
aF0.397
aF3.0
aF3.6
aF0.833
aF0.4
aF2.1
aF2.6
aF4.3
aF1.9
aF1.5
aF0.1
aF0.4
aF2.9
aF3.5
aF13.3
aF-0.2
aI5
aI0
aI5
aV965,1610612744
p540
aa(lp541
I101114
aVDeron Williams
p542
aI1610612762
aVUTA
p543
aF22.0
aI80
aI39
aI41
aF0.488
aF28.8
aF4.2
aF10.1
aF0.421
aF1.1
aF2.7
aF0.416
aF1.2
aF1.7
aF0.704
aF0.4
aF2.0
aF2.4
aF4.5
aF1.8
aF0.8
aF0.2
aF0.8
aF2.9
aF2.0
aF10.8
aF-1.3
aI5
aI0
aI5
aV101114,1610612762
p544
aa(lp545
I2583
aVDerrick Zimmerman
p546
aI1610612751
aVNJN
p547
aF24.0
aI2
aI0
aI2
aF0.0
aF15.9
aF1.0
aF1.5
aF0.667
aF0.0
aF0.0
aF0.0
aF0.0
aF0.0
aF0.0
aF0.5
aF1.5
aF2.0
aF3.5
aF2.0
aF0.0
aF0.0
aF0.0
aF2.0
aF0.5
aF2.0
aF-5.5
aI0
aI0
aI5
aV2583,1610612751
p548
aa(lp549
I2046
aVDesmond Mason
p550
aI1610612740
aVNOK
p551
aF28.0
aI70
aI32
aI38
aF0.457
aF30.0
aF3.9
aF9.9
aF0.399
aF0.0
aF0.1
aF0.167
aF2.9
aF4.3
aF0.682
aF0.9
aF3.3
aF4.3
aF0.9
aF1.6
aF0.6
aF0.2
aF0.8
aF1.9
aF3.8
aF10.8
aF-3.7
aI1
aI0
aI5
aV2046,1610612740
p552
aa(lp553
I1904
aVDevean George
p554
aI1610612747
aVLAL
p555
aF28.0
aI71
aI40
aI31
aF0.563
aF21.7
aF2.4
aF6.0
aF0.4
aF0.7
aF2.3
aF0.313
aF0.8
aF1.2
aF0.674
aF1.2
aF2.7
aF3.9
aF1.0
aF0.8
aF0.9
aF0.5
aF0.3
aF2.2
aF1.1
aF6.3
aF1.3
aI0
aI0
aI5
aV1904,1610612747
p556
aa(lp557
I2484
aVDevin Brown
p558
aI1610612762
aVUTA
p559
aF27.0
aI81
aI40
aI41
aF0.494
aF21.1
aF2.6
aF6.5
aF0.393
aF0.5
aF1.5
aF0.331
aF2.0
aF2.6
aF0.745
aF0.9
aF1.7
aF2.6
aF1.3
aF1.2
aF0.5
aF0.2
aF0.5
aF1.9
aF2.1
aF7.5
aF-1.5
aI0
aI0
aI5
aV2484,1610612762
p560
aa(lp561
I101209
aVDevin Green
p562
aI1610612747
aVLAL
p563
aF23.0
aI27
aI13
aI14
aF0.481
aF5.0
aF0.2
aF1.0
aF0.214
aF0.0
aF0.1
aF0.0
aF0.5
aF0.8
aF0.619
aF0.4
aF0.5
aF0.9
aF0.3
aF0.2
aF0.1
aF0.0
aF0.1
aF0.5
aF0.4
aF0.9
aF-1.6
aI0
aI0
aI5
aV101209,1610612747
p564
aa(lp565
I2734
aVDevin Harris
p566
aI1610612742
aVDAL
p567
aF23.0
aI56
aI45
aI11
aF0.804
aF22.8
aF3.4
aF7.2
aF0.469
aF0.1
aF0.4
aF0.238
aF3.0
aF4.2
aF0.716
aF0.5
aF1.8
aF2.2
aF3.2
aF1.5
aF0.9
aF0.3
aF0.7
aF2.2
aF3.7
aF9.9
aF3.0
aI1
aI0
aI5
aV2734,1610612742
p568
aa(lp569
I101159
aVDijon Thompson
p570
aI1610612756
aVPHX
p571
aF23.0
aI10
aI8
aI2
aF0.8
aF4.3
aF1.1
aF2.5
aF0.44
aF0.4
aF1.1
aF0.364
aF0.2
aF0.2
aF1.0
aF0.4
aF0.7
aF1.1
aF0.1
aF0.2
aF0.3
aF0.1
aF0.1
aF0.6
aF0.3
aF2.8
aF-1.2
aI0
aI0
aI5
aV101159,1610612756
p572
aa(lp573
I87
aVDikembe Mutombo
p574
aI1610612745
aVHOU
p575
aF40.0
aI64
aI27
aI37
aF0.422
aF14.9
aF0.8
aF1.5
aF0.526
aF0.0
aF0.0
aF0.0
aF1.1
aF1.4
aF0.758
aF1.6
aF3.2
aF4.8
aF0.1
aF0.5
aF0.3
aF0.9
aF0.2
aF2.0
aF1.3
aF2.6
aF-1.4
aI1
aI0
aI5
aV87,1610612745
p576
aa(lp577
I1717
aVDirk Nowitzki
p578
aI1610612742
aVDAL
p579
aF28.0
aI81
aI60
aI21
aF0.741
aF38.1
aF9.3
aF19.3
aF0.48
aF1.4
aF3.3
aF0.406
aF6.7
aF7.4
aF0.901
aF1.4
aF7.6
aF9.0
aF2.8
aF1.9
aF0.7
aF1.0
aF0.9
aF2.0
aF5.9
aF26.6
aF6.3
aI35
aI0
aI5
aV1717,1610612742
p580
aa(lp581
I101182
aVDonell Taylor
p582
aI1610612764
aVWAS
p583
aF23.0
aI51
aI27
aI24
aF0.529
aF9.1
aF1.0
aF2.7
aF0.39
aF0.1
aF0.3
aF0.235
aF0.6
aF0.8
aF0.698
aF0.3
aF0.7
aF1.0
aF0.9
aF0.7
aF0.6
aF0.1
aF0.2
aF0.9
aF0.6
aF2.7
aF0.2
aI0
aI0
aI5
aV101182,1610612764
p584
aa(lp585
I2764
aVDonta Smith
p586
aI1610612737
aVATL
p587
aF22.0
aI23
aI6
aI17
aF0.261
aF5.5
aF0.7
aF1.2
aF0.556
aF0.1
aF0.2
aF0.5
aF0.3
aF0.5
aF0.5
aF0.1
aF0.5
aF0.6
aF0.4
aF0.2
aF0.3
aF0.0
aF0.0
aF0.9
aF0.3
aF1.7
aF0.7
aI0
aI0
aI5
aV2764,1610612737
p588
aa(lp589
I923
aVDonyell Marshall
p590
aI1610612739
aVCLE
p591
aF33.0
aI81
aI50
aI31
aF0.617
aF25.6
aF3.3
aF8.3
aF0.395
aF1.6
aF4.9
aF0.324
aF1.1
aF1.5
aF0.748
aF1.3
aF4.8
aF6.1
aF0.7
aF1.1
aF0.7
aF0.5
aF0.3
aF2.0
aF1.2
aF9.3
aF1.6
aI5
aI0
aI5
aV923,1610612739
p592
aa(lp593
I2748
aVDorell Wright
p594
aI1610612748
aVMIA
p595
aF20.0
aI20
aI14
aI6
aF0.7
aF6.6
aF1.0
aF2.2
aF0.465
aF0.2
aF0.3
aF0.5
aF0.8
aF0.9
aF0.882
aF0.1
aF1.5
aF1.6
aF0.4
aF0.7
aF0.2
aF0.1
aF0.2
aF0.6
aF0.6
aF2.9
aF-2.8
aI0
aI0
aI5
aV2748,1610612748
p596
aa(lp597
I57
aVDoug Christie
p598
aI1610612742
aVDAL
p599
aF36.0
aI7
aI5
aI2
aF0.714
aF26.5
aF1.3
aF3.7
aF0.346
aF0.0
aF0.1
aF0.0
aF1.1
aF1.7
aF0.667
aF0.3
aF1.6
aF1.9
aF2.0
aF0.9
aF1.3
aF0.1
aF0.3
aF1.4
aF1.7
aF3.7
aF-1.9
aI0
aI0
aI5
aV57,1610612742
p600
aa(lp601
I2400
aVDrew Gooden
p602
aI1610612739
aVCLE
p603
aF24.0
aI79
aI49
aI30
aF0.62
aF27.5
aF4.2
aF8.3
aF0.512
aF0.0
aF0.0
aF0.333
aF2.2
aF3.3
aF0.682
aF3.0
aF5.4
aF8.4
aF0.7
aF1.3
aF0.7
aF0.6
aF0.7
aF2.4
aF2.6
aF10.7
aF0.1
aI23
aI0
aI5
aV2400,1610612739
p604
aa(lp605
I101204
aVDwayne Jones
p606
aI1610612738
aVBOS
p607
aF23.0
aI14
aI7
aI7
aF0.5
aF6.2
aF0.3
aF0.7
aF0.4
aF0.0
aF0.0
aF0.0
aF0.4
aF0.9
aF0.462
aF0.7
aF1.5
aF2.2
aF0.1
aF0.2
aF0.1
aF0.2
aF0.1
aF1.0
aF0.7
aF1.0
aF1.4
aI0
aI0
aI5
aV101204,1610612738
p608
aa(lp609
I2730
aVDwight Howard
p610
aI1610612753
aVORL
p611
aF20.0
aI82
aI36
aI46
aF0.439
aF36.8
aF5.7
aF10.7
aF0.531
aF0.0
aF0.0
aF0.0
aF4.3
aF7.3
aF0.595
aF3.5
aF9.0
aF12.5
aF1.5
aF2.6
aF0.8
aF1.4
aF1.0
aF3.4
aF5.7
aF15.8
aF0.3
aI60
aI0
aI5
aV2730,1610612753
p612
aa(lp613
I2548
aVDwyane Wade
p614
aI1610612748
aVMIA
p615
aF24.0
aI75
aI48
aI27
aF0.64
aF38.6
aF9.3
aF18.8
aF0.495
aF0.2
aF1.0
aF0.171
aF8.4
aF10.7
aF0.783
aF1.4
aF4.3
aF5.7
aF6.7
aF3.6
aF1.9
aF0.8
aF0.9
aF2.9
aF7.8
aF27.2
aF6.5
aI16
aI2
aI5
aV2548,1610612748
p616
aa(lp617
I2853
aVEarl Barron
p618
aI1610612748
aVMIA
p619
aF24.0
aI8
aI4
aI4
aF0.5
aF5.6
aF0.6
aF2.0
aF0.313
aF0.0
aF0.0
aF0.0
aF0.4
aF0.5
aF0.75
aF0.3
aF1.0
aF1.3
aF0.0
aF0.6
aF0.0
aF0.0
aF0.1
aF1.3
aF0.5
aF1.6
aF-4.1
aI0
aI0
aI5
aV2853,1610612748
p620
aa(lp621
I1863
aVEarl Boykins
p622
aI1610612743
aVDEN
p623
aF30.0
aI60
aI35
aI25
aF0.583
aF25.7
aF4.5
aF11.0
aF0.41
aF1.0
aF3.0
aF0.346
aF2.5
aF2.9
aF0.874
aF0.4
aF1.0
aF1.4
aF3.8
aF1.4
aF0.8
aF0.1
aF0.7
aF1.2
aF2.1
aF12.6
aF-0.9
aI1
aI0
aI5
aV1863,1610612743
p624
aa(lp625
I2248
aVEarl Watson
p626
aI1610612760
aVSEA
p627
aF27.0
aI70
aI39
aI31
aF0.557
aF22.5
aF3.1
aF7.3
aF0.43
aF1.6
aF3.9
aF0.404
aF1.1
aF1.6
aF0.676
aF0.3
aF1.9
aF2.3
aF4.1
aF1.9
aF1.0
aF0.1
aF0.3
aF2.3
aF1.7
aF8.9
aF2.1
aI1
aI0
aI5
aV2248,1610612760
p628
aa(lp629
I101188
aVEddie Basden
p630
aI1610612741
aVCHI
p631
aF23.0
aI19
aI10
aI9
aF0.526
aF7.4
aF0.8
aF1.9
aF0.405
aF0.1
aF0.4
aF0.143
aF0.4
aF0.5
aF0.8
aF0.4
aF1.1
aF1.5
aF0.4
aF0.5
aF0.5
aF0.1
aF0.2
aF0.9
aF0.4
aF2.1
aF0.8
aI0
aI0
aI5
aV101188,1610612741
p632
aa(lp633
I2109
aVEddie Gill
p634
aI1610612754
aVIND
p635
aF27.0
aI41
aI24
aI17
aF0.585
aF3.0
aF0.2
aF1.1
aF0.222
aF0.2
aF0.6
aF0.304
aF0.4
aF0.6
aF0.783
aF0.0
aF0.4
aF0.4
aF0.3
aF0.2
aF0.3
aF0.0
aF0.1
aF0.3
aF0.3
aF1.1
aF0.0
aI0
aI0
aI5
aV2109,1610612754
p636
aa(lp637
I2204
aVEddie Griffin
p638
aI1610612750
aVMIN
p639
aF24.0
aI70
aI30
aI40
aF0.429
aF19.4
aF1.9
aF5.3
aF0.351
aF0.2
aF1.2
aF0.195
aF0.6
aF1.1
aF0.595
aF1.5
aF4.0
aF5.6
aF0.6
aF0.6
aF0.2
aF2.1
aF0.4
aF1.8
aF0.9
aF4.6
aF-2.2
aI6
aI0
aI5
aV2204,1610612750
p640
aa(lp641
I2067
aVEddie House
p642
aI1610612756
aVPHX
p643
aF28.0
aI81
aI53
aI28
aF0.654
aF17.5
aF4.0
aF9.4
aF0.422
aF1.5
aF3.9
aF0.389
aF0.4
aF0.5
aF0.805
aF0.2
aF1.4
aF1.6
aF1.8
aF0.9
aF0.5
aF0.1
aF0.3
aF1.2
aF0.7
aF9.8
aF1.0
aI0
aI0
aI5
aV2067,1610612756
p644
aa(lp645
I224
aVEddie Jones
p646
aI1610612763
aVMEM
p647
aF34.0
aI75
aI45
aI30
aF0.6
aF32.5
aF3.9
aF9.6
aF0.404
aF1.8
aF5.0
aF0.356
aF2.2
aF2.9
aF0.781
aF0.5
aF3.3
aF3.7
aF2.4
aF1.2
aF1.7
aF0.4
aF0.5
aF2.7
aF2.6
aF11.8
aF4.2
aI1
aI0
aI5
aV224,1610612763
p648
aa(lp649
I2201
aVEddy Curry
p650
aI1610612752
aVNYK
p651
aF23.0
aI72
aI20
aI52
aF0.278
aF25.9
aF4.7
aF8.3
aF0.563
aF0.0
aF0.0
aF0.0
aF4.3
aF6.8
aF0.632
aF2.0
aF4.0
aF6.0
aF0.3
aF2.5
aF0.4
aF0.8
aF0.6
aF3.3
aF4.8
aF13.6
aF-5.4
aI10
aI0
aI5
aV2201,1610612752
p652
aa(lp653
I2059
aVEduardo Najera
p654
aI1610612743
aVDEN
p655
aF29.0
aI64
aI33
aI31
aF0.516
aF22.6
aF2.0
aF4.7
aF0.422
aF0.1
aF0.2
aF0.333
aF1.4
aF1.8
aF0.781
aF2.0
aF3.1
aF5.1
aF0.8
aF0.8
aF0.8
aF0.5
aF0.4
aF2.6
aF2.0
aF5.4
aF0.0
aI3
aI0
aI5
aV2059,1610612743
p656
aa(lp657
I1882
aVElton Brand
p658
aI1610612746
aVLAC
p659
aF27.0
aI79
aI44
aI35
aF0.557
aF39.2
aF9.6
aF18.2
aF0.527
aF0.0
aF0.0
aF0.333
aF5.6
aF7.2
aF0.775
aF3.0
aF7.0
aF10.0
aF2.6
aF2.2
aF1.0
aF2.5
aF0.8
aF2.9
aF5.8
aF24.7
aF2.4
aI45
aI0
aI5
aV1882,1610612746
p660
aa(lp661
I2731
aVEmeka Okafor
p662
aI1610612766
aVCHA
p663
aF23.0
aI26
aI8
aI18
aF0.308
aF33.6
aF5.0
aF12.2
aF0.415
aF0.0
aF0.0
aF0.0
aF3.2
aF4.8
aF0.656
aF3.6
aF6.4
aF10.0
aF1.2
aF2.0
aF0.8
aF1.9
aF1.1
aF3.4
aF3.5
aF13.2
aF-2.7
aI16
aI0
aI5
aV2731,1610612766
p664
aa(lp665
I15
aVEric Piatkowski
p666
aI1610612741
aVCHI
p667
aF35.0
aI29
aI14
aI15
aF0.483
aF7.9
aF0.8
aF2.1
aF0.393
aF0.3
aF1.1
aF0.273
aF0.1
aF0.2
aF0.4
aF0.1
aF0.7
aF0.8
aF0.4
aF0.4
aF0.2
aF0.0
aF0.1
aF0.7
aF0.3
aF2.0
aF0.7
aI0
aI0
aI5
aV15,1610612741
p668
aa(lp669
I727
aVEric Snow
p670
aI1610612739
aVCLE
p671
aF33.0
aI82
aI50
aI32
aF0.61
aF28.7
aF2.0
aF4.9
aF0.409
aF0.0
aF0.1
aF0.1
aF0.8
aF1.1
aF0.688
aF0.5
aF2.0
aF2.4
aF4.2
aF1.4
aF0.9
aF0.2
aF0.4
aF2.7
aF1.5
aF4.8
aF1.0
aI1
aI0
aI5
aV727,1610612739
p672
aa(lp673
I677
aVEric Williams
p674
aI1610612761
aVTOR
p675
aF33.0
aI28
aI9
aI19
aF0.321
aF12.6
aF1.0
aF2.7
aF0.387
aF0.2
aF0.6
aF0.278
aF1.0
aF1.4
aF0.737
aF0.4
aF1.4
aF1.8
aF0.5
aF0.5
aF0.3
aF0.1
aF0.0
aF2.0
aF0.9
aF3.3
aF-1.9
aI0
aI0
aI5
aV677,1610612761
p676
aa(lp677
I956
aVErick Dampier
p678
aI1610612742
aVDAL
p679
aF30.0
aI82
aI60
aI22
aF0.732
aF23.6
aF2.1
aF4.2
aF0.493
aF0.0
aF0.0
aF0.0
aF1.5
aF2.6
aF0.591
aF3.3
aF4.5
aF7.8
aF0.6
aF1.4
aF0.3
aF1.3
aF0.5
aF3.2
aF2.2
aF5.7
aF2.9
aI7
aI0
aI5
aV956,1610612742
p680
aa(lp681
I911
aVErvin Johnson
p682
aI1610612749
aVMIL
p683
aF38.0
aI18
aI9
aI9
aF0.5
aF4.5
aF0.4
aF0.9
aF0.412
aF0.0
aF0.0
aF0.0
aF0.1
aF0.1
aF0.5
aF0.3
aF1.1
aF1.3
aF0.1
aF0.3
aF0.1
aF0.1
aF0.2
aF1.3
aF0.1
aF0.8
aF-1.9
aI0
aI0
aI5
aV911,1610612749
p684
aa(lp685
I101212
aVEsteban Batista
p686
aI1610612737
aVATL
p687
aF22.0
aI57
aI14
aI43
aF0.246
aF8.7
aF0.6
aF1.4
aF0.425
aF0.0
aF0.0
aF0.0
aF0.6
aF0.9
aF0.623
aF1.1
aF1.5
aF2.5
aF0.1
aF0.7
aF0.3
aF0.2
aF0.3
aF1.9
aF0.9
aF1.8
aF-0.1
aI1
aI0
aI5
aV101212,1610612737
p688
aa(lp689
I2041
aVEtan Thomas
p690
aI1610612764
aVWAS
p691
aF28.0
aI71
aI35
aI36
aF0.493
aF15.8
aF1.8
aF3.5
aF0.533
aF0.0
aF0.0
aF0.0
aF1.1
aF1.8
aF0.6
aF1.4
aF2.5
aF3.9
aF0.2
aF0.7
aF0.3
aF1.0
aF0.5
aF2.1
aF1.6
aF4.7
aF0.0
aI1
aI0
aI5
aV2041,1610612764
p692
aa(lp693
I101177
aVFabricio Oberto
p694
aI1610612759
aVSAS
p695
aF31.0
aI59
aI46
aI13
aF0.78
aF8.3
aF0.7
aF1.6
aF0.473
aF0.0
aF0.0
aF0.0
aF0.3
aF0.5
aF0.556
aF1.0
aF1.1
aF2.1
aF0.5
aF0.5
aF0.2
aF0.2
aF0.2
aF1.5
aF0.4
aF1.7
aF-0.6
aI0
aI0
aI5
aV101177,1610612759
p696
aa(lp697
I1922
aVFrancisco Elson
p698
aI1610612743
aVDEN
p699
aF30.0
aI72
aI39
aI33
aF0.542
aF21.9
aF2.1
aF3.9
aF0.532
aF0.0
aF0.1
aF0.2
aF0.7
aF1.0
aF0.662
aF1.4
aF3.3
aF4.7
aF0.7
aF0.9
aF0.8
aF0.6
aF0.2
aF2.9
aF1.1
aF4.9
aF0.8
aI3
aI0
aI5
aV1922,1610612743
p700
aa(lp701
I101128
aVFrancisco Garcia
p702
aI1610612758
aVSAC
p703
aF24.0
aI67
aI36
aI31
aF0.537
aF19.4
aF1.9
aF4.9
aF0.4
aF0.6
aF2.0
aF0.285
aF1.2
aF1.5
aF0.772
aF0.6
aF2.2
aF2.8
aF1.4
aF1.1
aF0.6
aF0.7
aF0.2
aF2.0
aF1.3
aF5.6
aF-0.5
aI1
aI0
aI5
aV101128,1610612758
p704
aa(lp705
I2410
aVFred Jones
p706
aI1610612754
aVIND
p707
aF27.0
aI68
aI33
aI35
aF0.485
aF27.0
aF3.4
aF8.2
aF0.417
aF0.9
aF2.8
aF0.337
aF1.8
aF2.4
aF0.763
aF0.3
aF2.2
aF2.5
aF2.3
aF1.6
aF0.8
aF0.3
aF0.4
aF2.1
aF2.0
aF9.6
aF0.0
aI0
aI0
aI5
aV2410,1610612754
p708
aa(lp709
I56
aVGary Payton
p710
aI1610612748
aVMIA
p711
aF37.0
aI81
aI52
aI29
aF0.642
aF28.5
aF2.8
aF6.8
aF0.42
aF0.8
aF2.8
aF0.287
aF1.2
aF1.6
aF0.794
aF0.4
aF2.5
aF2.9
aF3.2
aF1.3
aF0.9
aF0.1
aF0.3
aF2.1
aF1.4
aF7.7
aF1.5
aI0
aI0
aI5
aV56,1610612748
p712
aa(lp713
I2809
aVGerald Fitch
p714
aI1610612748
aVMIA
p715
aF23.0
aI18
aI12
aI6
aF0.667
aF13.3
aF1.7
aF4.9
aF0.337
aF0.4
aF1.4
aF0.269
aF0.9
aF1.3
aF0.739
aF0.4
aF1.3
aF1.7
aF1.8
aF0.8
aF0.4
aF0.3
aF0.7
aF1.6
aF1.1
aF4.7
aF-0.3
aI0
aI0
aI5
aV2809,1610612748
p716
aa(lp717
I101123
aVGerald Green
p718
aI1610612738
aVBOS
p719
aF20.0
aI32
aI13
aI19
aF0.406
aF11.7
aF2.1
aF4.3
aF0.478
aF0.2
aF0.6
aF0.3
aF0.9
aF1.2
aF0.784
aF0.3
aF1.0
aF1.3
aF0.6
aF0.7
aF0.4
aF0.1
aF0.1
aF1.3
aF0.7
aF5.2
aF-1.2
aI0
aI0
aI5
aV101123,1610612738
p720
aa(lp721
I2222
aVGerald Wallace
p722
aI1610612766
aVCHA
p723
aF23.0
aI55
aI19
aI36
aF0.345
aF34.5
aF5.8
aF10.7
aF0.538
aF0.3
aF0.9
aF0.28
aF3.4
aF5.6
aF0.614
aF2.2
aF5.3
aF7.5
aF1.7
aF1.8
aF2.5
aF2.1
aF1.2
aF2.7
aF5.2
aF15.2
aF-1.0
aI10
aI0
aI5
aV2222,1610612766
p724
aa(lp725
I2240
aVGilbert Arenas
p726
aI1610612764
aVWAS
p727
aF24.0
aI80
aI40
aI40
aF0.5
aF42.3
aF9.3
aF20.9
aF0.447
aF2.5
aF6.8
aF0.369
aF8.2
aF10.0
aF0.82
aF0.7
aF2.8
aF3.5
aF6.1
aF3.7
aF2.0
aF0.3
aF0.8
aF3.6
aF7.5
aF29.3
aF2.6
aI9
aI0
aI5
aV2240,1610612764
p728
aa(lp729
I1921
aVGordan Giricek
p730
aI1610612762
aVUTA
p731
aF29.0
aI37
aI18
aI19
aF0.486
aF25.8
aF4.5
aF10.4
aF0.433
aF0.5
aF1.6
aF0.305
aF1.2
aF1.5
aF0.754
aF0.4
aF1.5
aF1.9
aF1.7
aF1.7
aF0.4
aF0.1
aF0.4
aF2.4
aF1.9
aF10.6
aF-2.2
aI0
aI0
aI5
aV1921,1610612762
p732
aa(lp733
I255
aVGrant Hill
p734
aI1610612753
aVORL
p735
aF33.0
aI21
aI6
aI15
aF0.286
aF29.2
aF5.7
aF11.6
aF0.49
aF0.1
aF0.4
aF0.25
aF3.7
aF4.9
aF0.765
aF0.7
aF3.1
aF3.8
aF2.3
aF1.7
aF1.1
aF0.3
aF1.0
aF2.4
aF4.2
aF15.1
aF-2.1
aI0
aI0
aI5
aV255,1610612753
p736
aa(lp737
I1761
aVGreg Buckner
p738
aI1610612743
aVDEN
p739
aF29.0
aI73
aI41
aI32
aF0.562
aF24.1
aF2.5
aF5.7
aF0.434
aF1.2
aF3.3
aF0.354
aF0.6
aF0.8
aF0.782
aF0.4
aF2.4
aF2.9
aF1.7
aF0.7
aF1.2
aF0.3
aF0.2
aF2.5
aF1.1
aF6.7
aF0.2
aI0
aI0
aI5
aV1761,1610612743
p740
aa(lp741
I731
aVGreg Ostertag
p742
aI1610612762
aVUTA
p743
aF33.0
aI60
aI30
aI30
aF0.5
aF13.5
aF1.0
aF2.1
aF0.492
aF0.0
aF0.0
aF0.0
aF0.4
aF0.8
aF0.5
aF1.4
aF2.4
aF3.8
aF1.0
aF0.8
aF0.1
aF1.1
aF0.3
aF2.2
aF0.9
aF2.4
aF-2.4
aI0
aI0
aI5
aV731,1610612762
p744
aa(lp745
I2775
aVHa Seung-Jin
p746
aI1610612757
aVPOR
p747
aF20.0
aI27
aI4
aI23
aF0.148
aF7.8
aF0.7
aF1.1
aF0.581
aF0.0
aF0.0
aF0.0
aF0.3
aF0.6
aF0.471
aF0.5
aF1.3
aF1.8
aF0.0
aF0.5
aF0.1
aF0.3
aF0.1
aF1.5
aF0.6
aF1.6
aF-2.1
aI0
aI0
aI5
aV2775,1610612757
p748
aa(lp749
I101124
aVHakim Warrick
p750
aI1610612763
aVMEM
p751
aF23.0
aI68
aI42
aI26
aF0.618
aF10.6
aF1.5
aF3.4
aF0.443
aF0.0
aF0.0
aF0.0
aF1.1
aF1.7
aF0.661
aF0.6
aF1.5
aF2.1
aF0.4
aF0.8
aF0.2
aF0.3
aF0.5
aF1.7
aF1.4
aF4.1
aF-1.1
aI0
aI0
aI5
aV101124,1610612763
p752
aa(lp753
I2045
aVHedo Turkoglu
p754
aI1610612753
aVORL
p755
aF27.0
aI78
aI35
aI43
aF0.449
aF33.5
aF5.1
aF11.2
aF0.454
aF1.5
aF3.6
aF0.403
aF3.3
aF3.8
aF0.861
aF0.9
aF3.4
aF4.3
aF2.8
aF1.7
aF0.9
aF0.3
aF0.4
aF3.0
aF2.6
aF14.9
aF-0.7
aI1
aI0
aI5
aV2045,1610612753
p756
aa(lp757
I458
aVHoward Eisley
p758
aI1610612743
aVDEN
p759
aF33.0
aI32
aI17
aI15
aF0.531
aF12.3
aF1.1
aF3.2
aF0.33
aF0.4
aF1.3
aF0.31
aF0.6
aF0.8
aF0.833
aF0.1
aF0.9
aF1.0
aF2.2
aF0.7
aF0.3
aF0.1
aF0.2
aF1.1
aF0.8
aF3.2
aF-2.1
aI0
aI0
aI5
aV458,1610612743
p760
aa(lp761
I101113
aVIke Diogu
p762
aI1610612744
aVGSW
p763
aF22.0
aI69
aI26
aI43
aF0.377
aF14.9
aF2.5
aF4.8
aF0.524
aF0.0
aF0.0
aF0.0
aF2.0
aF2.4
aF0.81
aF1.4
aF1.9
aF3.3
aF0.4
aF1.1
aF0.2
aF0.4
aF0.6
aF2.4
aF1.9
aF7.0
aF-1.1
aI3
aI0
aI5
aV101113,1610612744
p764
aa(lp765
I2137
aVIme Udoka
p766
aI1610612752
aVNYK
p767
aF28.0
aI8
aI3
aI5
aF0.375
aF14.3
aF1.1
aF3.0
aF0.375
aF0.1
aF0.4
aF0.333
aF0.4
aF0.8
aF0.5
aF0.4
aF1.8
aF2.1
aF0.8
aF0.3
aF0.1
aF0.0
aF0.1
aF1.0
aF0.6
aF2.8
aF-1.6
aI0
aI0
aI5
aV2137,1610612752
p768
aa(lp769
I1956
aVIra Newble
p770
aI1610612739
aVCLE
p771
aF31.0
aI36
aI23
aI13
aF0.639
aF9.8
aF0.5
aF1.6
aF0.298
aF0.1
aF0.4
aF0.231
aF0.3
aF0.4
aF0.688
aF0.6
aF1.0
aF1.6
aF0.3
aF0.3
aF0.1
aF0.3
aF0.1
aF1.3
aF0.3
aF1.3
aF-0.5
aI0
aI0
aI5
aV1956,1610612739
p772
aa(lp773
I2747
aVJ.R. Smith
p774
aI1610612740
aVNOK
p775
aF20.0
aI55
aI24
aI31
aF0.436
aF18.0
aF2.6
aF6.7
aF0.393
aF0.9
aF2.5
aF0.371
aF1.5
aF1.8
aF0.822
aF0.3
aF1.7
aF2.0
aF1.1
aF1.0
aF0.7
aF0.1
aF0.4
aF1.6
aF1.4
aF7.7
aF-2.2
aI1
aI0
aI5
aV2747,1610612740
p776
aa(lp777
I2866
aVJackie Butler
p778
aI1610612752
aVNYK
p779
aF21.0
aI55
aI16
aI39
aF0.291
aF13.5
aF2.1
aF3.9
aF0.544
aF0.0
aF0.0
aF0.0
aF1.1
aF1.4
aF0.753
aF1.2
aF2.1
aF3.3
aF0.5
aF1.1
aF0.3
aF0.6
aF0.5
aF2.3
aF1.1
aF5.3
aF2.0
aI0
aI0
aI5
aV2866,1610612752
p780
aa(lp781
I2761
aVJackson Vroman
p782
aI1610612740
aVNOK
p783
aF25.0
aI41
aI22
aI19
aF0.537
aF9.9
aF0.6
aF1.6
aF0.394
aF0.0
aF0.0
aF0.0
aF0.5
aF1.1
aF0.477
aF0.8
aF1.3
aF2.1
aF0.3
aF0.5
aF0.3
aF0.3
aF0.3
aF1.9
aF1.0
aF1.8
aF0.6
aI0
aI0
aI5
aV2761,1610612740
p784
aa(lp785
I1521
aVJacque Vaughn
p786
aI1610612751
aVNJN
p787
aF31.0
aI80
aI48
aI32
aF0.6
aF15.4
aF1.3
aF3.1
aF0.437
aF0.0
aF0.1
aF0.167
aF0.7
aF1.0
aF0.728
aF0.2
aF0.9
aF1.1
aF1.5
aF0.7
aF0.5
aF0.0
aF0.1
aF1.8
aF1.0
aF3.4
aF-2.3
aI0
aI0
aI5
aV1521,1610612751
p788
aa(lp789
I2054
aVJake Tsakalidis
p790
aI1610612763
aVMEM
p791
aF27.0
aI51
aI30
aI21
aF0.588
aF14.4
aF2.0
aF3.2
aF0.606
aF0.0
aF0.0
aF0.0
aF1.1
aF1.7
aF0.655
aF1.5
aF2.6
aF4.2
aF0.3
aF0.8
aF0.3
aF0.6
aF0.4
aF2.1
aF1.3
aF5.0
aF2.4
aI5
aI0
aI5
aV2054,1610612763
p792
aa(lp793
I2063
aVJake Voskuhl
p794
aI1610612766
aVCHA
p795
aF28.0
aI51
aI16
aI35
aF0.314
aF16.0
aF2.2
aF5.1
aF0.437
aF0.0
aF0.1
aF0.333
aF0.8
aF1.2
aF0.683
aF1.2
aF2.4
aF3.6
aF0.8
aF0.6
aF0.5
aF0.5
aF0.2
aF3.1
aF1.1
aF5.3
aF-0.5
aI0
aI0
aI5
aV2063,1610612766
p796
aa(lp797
I147
aVJalen Rose
p798
aI1610612752
aVNYK
p799
aF33.0
aI72
aI21
aI51
aF0.292
aF27.5
aF4.0
aF9.5
aF0.423
aF0.8
aF2.4
aF0.343
aF3.4
aF4.4
aF0.78
aF0.4
aF2.5
aF2.9
aF2.5
aF1.6
aF0.4
aF0.2
aF0.5
aF2.2
aF3.2
aF12.3
aF-3.6
aI1
aI0
aI5
aV147,1610612752
p800
aa(lp801
I2048
aVJamaal Magloire
p802
aI1610612749
aVMIL
p803
aF28.0
aI82
aI40
aI42
aF0.488
aF30.1
aF3.5
aF7.5
aF0.467
aF0.0
aF0.0
aF0.0
aF2.2
aF4.1
aF0.535
aF2.7
aF6.8
aF9.5
aF0.7
aF2.0
aF0.4
aF1.0
aF0.7
aF3.4
aF3.4
aF9.2
aF-1.2
aI17
aI0
aI5
aV2048,1610612749
p804
aa(lp805
I2224
aVJamaal Tinsley
p806
aI1610612754
aVIND
p807
aF28.0
aI42
aI20
aI22
aF0.476
aF26.7
aF3.8
aF9.2
aF0.409
aF0.4
aF1.7
aF0.229
aF1.4
aF2.2
aF0.637
aF0.8
aF2.3
aF3.2
aF5.0
aF2.6
aF1.2
aF0.1
aF0.7
aF2.3
aF2.1
aF9.3
aF0.5
aI1
aI0
aI5
aV2224,1610612754
p808
aa(lp809
I2037
aVJamal Crawford
p810
aI1610612752
aVNYK
p811
aF26.0
aI79
aI21
aI58
aF0.266
aF32.3
aF4.6
aF11.1
aF0.416
aF1.3
aF3.7
aF0.345
aF3.7
aF4.5
aF0.826
aF0.5
aF2.7
aF3.1
aF3.8
aF2.2
aF1.1
aF0.2
aF0.5
aF1.9
aF2.8
aF14.3
aF-3.9
aI3
aI0
aI5
aV2037,1610612752
p812
aa(lp813
I2441
aVJamal Sampson
p814
aI1610612758
aVSAC
p815
aF23.0
aI12
aI5
aI7
aF0.417
aF3.2
aF0.4
aF0.6
aF0.714
aF0.0
aF0.0
aF0.0
aF0.0
aF0.2
aF0.0
aF0.4
aF1.1
aF1.5
aF0.4
aF0.0
aF0.0
aF0.3
aF0.0
aF0.4
aF0.2
aF0.8
aF0.5
aI0
aI0
aI5
aV2441,1610612758
p816
aa(lp817
I2749
aVJameer Nelson
p818
aI1610612753
aVORL
p819
aF24.0
aI62
aI31
aI31
aF0.5
aF28.8
aF5.6
aF11.6
aF0.483
aF1.1
aF2.7
aF0.424
aF2.3
aF2.9
aF0.779
aF0.6
aF2.3
aF2.9
aF4.9
aF2.4
aF1.1
aF0.1
aF0.7
aF2.8
aF2.8
aF14.6
aF1.1
aI2
aI0
aI5
aV2749,1610612753
p820
aa(lp821
I2592
aVJames Jones
p822
aI1610612756
aVPHX
p823
aF25.0
aI75
aI50
aI25
aF0.667
aF23.6
aF3.2
aF7.7
aF0.418
aF1.5
aF3.8
aF0.386
aF1.4
aF1.6
aF0.851
aF0.6
aF2.8
aF3.4
aF0.8
aF0.5
aF0.5
aF0.7
aF0.2
aF1.9
aF1.7
aF9.3
aF2.4
aI2
aI0
aI5
aV2592,1610612756
p824
aa(lp825
I1899
aVJames Posey
p826
aI1610612748
aVMIA
p827
aF29.0
aI67
aI44
aI23
aF0.657
aF28.6
aF2.4
aF5.9
aF0.403
aF1.7
aF4.3
aF0.403
aF0.7
aF0.9
aF0.787
aF0.5
aF4.3
aF4.8
aF1.3
aF0.9
aF0.8
aF0.3
aF0.1
aF2.9
aF1.2
aF7.2
aF3.1
aI1
aI0
aI5
aV1899,1610612748
p828
aa(lp829
I101189
aVJames Singleton
p830
aI1610612746
aVLAC
p831
aF24.0
aI59
aI34
aI25
aF0.576
aF12.8
aF1.3
aF2.6
aF0.51
aF0.2
aF0.3
aF0.5
aF0.7
aF0.8
aF0.78
aF1.1
aF2.3
aF3.3
aF0.5
aF0.5
aF0.3
aF0.4
aF0.2
aF1.6
aF0.8
aF3.4
aF-0.8
aI3
aI0
aI5
aV101189,1610612746
p832
aa(lp833
I2839
aVJames Thomas
p834
aI1610612741
aVCHI
p835
aF25.0
aI22
aI10
aI12
aF0.455
aF6.8
aF0.5
aF0.9
aF0.526
aF0.0
aF0.0
aF0.0
aF0.4
aF0.6
aF0.571
aF0.5
aF1.2
aF1.8
aF0.0
aF0.3
aF0.0
aF0.1
aF0.1
aF1.6
aF0.5
aF1.3
aF0.9
aI0
aI0
aI5
aV2839,1610612741
p836
aa(lp837
I2457
aVJannero Pargo
p838
aI1610612741
aVCHI
p839
aF26.0
aI57
aI28
aI29
aF0.491
aF11.3
aF1.9
aF5.1
aF0.373
aF0.7
aF1.8
aF0.379
aF0.3
aF0.4
aF0.81
aF0.1
aF0.9
aF1.1
aF1.6
aF1.1
aF0.4
aF0.0
aF0.2
aF1.0
aF0.7
aF4.8
aF0.1
aI0
aI0
aI5
aV2457,1610612741
p840
aa(lp841
I2407
aVJared Jeffries
p842
aI1610612764
aVWAS
p843
aF24.0
aI77
aI39
aI38
aF0.506
aF25.3
aF2.4
aF5.4
aF0.451
aF0.2
aF0.6
aF0.32
aF1.3
aF2.2
aF0.589
aF2.1
aF2.8
aF4.9
aF1.9
aF1.3
aF0.8
aF0.6
aF0.5
aF2.9
aF2.0
aF6.4
aF0.9
aI2
aI0
aI5
aV2407,1610612764
p844
aa(lp845
I101127
aVJarrett Jack
p846
aI1610612757
aVPOR
p847
aF22.0
aI79
aI20
aI59
aF0.253
aF20.2
aF2.4
aF5.4
aF0.442
aF0.3
aF1.0
aF0.263
aF1.6
aF2.0
aF0.8
aF0.2
aF1.8
aF2.0
aF2.8
aF1.3
aF0.5
aF0.0
aF0.3
aF1.7
aF1.6
aF6.7
aF-4.7
aI0
aI0
aI5
aV101127,1610612757
p848
aa(lp849
I2260
aVJarron Collins
p850
aI1610612762
aVUTA
p851
aF27.0
aI79
aI39
aI40
aF0.494
aF21.9
aF1.6
aF3.5
aF0.461
aF0.0
aF0.0
aF0.0
aF2.0
aF2.8
aF0.717
aF1.7
aF2.5
aF4.2
aF1.2
aF0.8
aF0.5
aF0.3
aF0.4
aF3.2
aF2.9
aF5.3
aF-0.3
aI1
aI0
aI5
aV2260,1610612762
p852
aa(lp853
I2553
aVJarvis Hayes
p854
aI1610612764
aVWAS
p855
aF24.0
aI21
aI9
aI12
aF0.429
aF24.6
aF3.7
aF8.7
aF0.421
aF0.8
aF2.2
aF0.362
aF1.2
aF1.4
aF0.833
aF0.9
aF2.7
aF3.6
aF1.3
aF1.0
aF0.8
aF0.0
aF0.5
aF1.8
aF1.1
aF9.3
aF0.6
aI0
aI0
aI5
aV2553,1610612764
p856
aa(lp857
I2215
aVJason Collins
p858
aI1610612751
aVNJN
p859
aF27.0
aI71
aI44
aI27
aF0.62
aF26.7
aF1.5
aF3.7
aF0.397
aF0.0
aF0.2
aF0.25
aF0.6
aF1.2
aF0.512
aF1.3
aF3.5
aF4.8
aF1.0
aF0.9
aF0.6
aF0.6
aF0.3
aF3.5
aF1.8
aF3.6
aF2.1
aI0
aI0
aI5
aV2215,1610612751
p860
aa(lp861
I2078
aVJason Hart
p862
aI1610612758
aVSAC
p863
aF28.0
aI66
aI34
aI32
aF0.515
aF12.4
aF1.3
aF3.3
aF0.389
aF0.1
aF0.5
aF0.29
aF0.6
aF0.8
aF0.661
aF0.2
aF0.9
aF1.1
aF1.1
aF0.7
aF0.5
aF0.1
aF0.3
aF1.3
aF0.8
aF3.3
aF-0.8
aI0
aI0
aI5
aV2078,1610612758
p864
aa(lp865
I2574
aVJason Kapono
p866
aI1610612748
aVMIA
p867
aF25.0
aI51
aI30
aI21
aF0.588
aF13.0
aF1.5
aF3.5
aF0.446
aF0.4
aF1.0
aF0.396
aF0.5
aF0.6
aF0.848
aF0.2
aF1.2
aF1.4
aF0.7
aF0.4
aF0.1
aF0.1
aF0.2
aF1.7
aF0.6
aF4.1
aF-1.6
aI0
aI0
aI5
aV2574,1610612748
p868
aa(lp869
I467
aVJason Kidd
p870
aI1610612751
aVNJN
p871
aF33.0
aI80
aI49
aI31
aF0.613
aF37.2
aF4.6
aF11.3
aF0.404
aF1.7
aF4.9
aF0.352
aF2.4
aF3.1
aF0.795
aF1.1
aF6.2
aF7.3
aF8.4
aF2.4
aF1.9
aF0.4
aF0.3
aF2.0
aF2.2
aF13.3
aF3.4
aI28
aI8
aI5
aV467,1610612751
p872
aa(lp873
I101131
aVJason Maxiell
p874
aI1610612765
aVDET
p875
aF23.0
aI26
aI20
aI6
aF0.769
aF6.1
aF0.9
aF2.1
aF0.426
aF0.0
aF0.0
aF0.0
aF0.5
aF1.6
aF0.333
aF0.5
aF0.6
aF1.1
aF0.1
aF0.4
aF0.2
aF0.2
aF0.0
aF0.5
aF0.9
aF2.3
aF-3.7
aI1
aI0
aI5
aV101131,1610612765
p876
aa(lp877
I2202
aVJason Richardson
p878
aI1610612744
aVGSW
p879
aF25.0
aI75
aI32
aI43
aF0.427
aF38.4
aF8.5
aF19.2
aF0.446
aF2.4
aF6.4
aF0.384
aF3.7
aF5.5
aF0.673
aF1.4
aF4.4
aF5.8
aF3.1
aF2.2
aF1.3
aF0.5
aF1.0
aF2.7
aF4.2
aF23.2
aF0.5
aI5
aI0
aI5
aV2202,1610612744
p880
aa(lp881
I1891
aVJason Terry
p882
aI1610612742
aVDAL
p883
aF28.0
aI80
aI58
aI22
aF0.725
aF35.0
aF6.5
aF13.7
aF0.47
aF2.1
aF5.2
aF0.411
aF2.1
aF2.6
aF0.8
aF0.4
aF1.6
aF2.0
aF3.8
aF1.7
aF1.3
aF0.3
aF0.6
aF2.5
aF2.4
aF17.1
aF6.0
aI2
aI0
aI5
aV1891,1610612742
p884
aa(lp885
I1715
aVJason Williams
p886
aI1610612748
aVMIA
p887
aF30.0
aI59
aI38
aI21
aF0.644
aF31.8
aF4.5
aF10.3
aF0.442
aF1.8
aF4.9
aF0.372
aF1.4
aF1.7
aF0.867
aF0.1
aF2.3
aF2.4
aF4.9
aF1.7
aF0.9
aF0.1
aF0.4
aF1.7
aF1.4
aF12.3
aF3.6
aI1
aI0
aI5
aV1715,1610612748
p888
aa(lp889
I1902
aVJeff Foster
p890
aI1610612754
aVIND
p891
aF29.0
aI63
aI30
aI33
aF0.476
aF25.1
aF2.2
aF4.0
aF0.552
aF0.0
aF0.1
aF0.0
aF1.5
aF2.5
aF0.604
aF3.6
aF5.6
aF9.1
aF0.8
aF1.0
aF0.7
aF0.4
aF0.4
aF3.0
aF2.1
aF5.9
aF1.2
aI7
aI0
aI5
aV1902,1610612754
p892
aa(lp893
I976
aVJeff McInnis
p894
aI1610612751
aVNJN
p895
aF31.0
aI28
aI15
aI13
aF0.536
aF17.4
aF2.3
aF5.1
aF0.441
aF0.1
aF0.6
aF0.188
aF0.7
aF1.0
aF0.69
aF0.4
aF1.4
aF1.8
aF1.9
aF1.0
aF0.4
aF0.1
aF0.2
aF1.3
aF1.0
aF5.3
aF-6.3
aI0
aI0
aI5
aV976,1610612751
p896
aa(lp897
I1983
aVJermaine Jackson
p898
aI1610612749
aVMIL
p899
aF30.0
aI30
aI17
aI13
aF0.567
aF6.7
aF0.4
aF0.9
aF0.423
aF0.0
aF0.1
aF0.25
aF0.4
aF0.5
aF0.857
aF0.3
aF0.6
aF0.9
aF0.8
aF0.4
aF0.1
aF0.0
aF0.1
aF0.6
aF0.8
aF1.2
aF-3.9
aI0
aI0
aI5
aV1983,1610612749
p900
aa(lp901
I979
aVJermaine O'Neal
p902
aI1610612754
aVIND
p903
aF27.0
aI51
aI26
aI25
aF0.51
aF35.3
aF7.5
aF15.8
aF0.472
aF0.1
aF0.2
aF0.3
aF5.1
aF7.2
aF0.709
aF2.0
aF7.3
aF9.3
aF2.6
aF3.0
aF0.5
aF2.3
aF1.1
aF3.5
aF6.4
aF20.1
aF2.0
aI19
aI0
aI5
aV979,1610612754
p904
aa(lp905
I1744
aVJerome James
p906
aI1610612752
aVNYK
p907
aF30.0
aI44
aI10
aI34
aF0.227
aF9.2
aF1.3
aF2.8
aF0.463
aF0.0
aF0.0
aF0.0
aF0.6
aF0.9
aF0.625
aF0.9
aF1.2
aF2.1
aF0.3
aF1.2
aF0.1
aF0.5
aF0.1
aF2.4
aF0.9
aF3.1
aF-3.2
aI0
aI0
aI5
aV1744,1610612752
p908
aa(lp909
I711
aVJerry Stackhouse
p910
aI1610612742
aVDAL
p911
aF31.0
aI55
aI41
aI14
aF0.745
aF27.7
aF4.4
aF11.0
aF0.401
aF0.7
aF2.4
aF0.277
aF3.5
aF4.0
aF0.882
aF0.6
aF2.2
aF2.8
aF2.9
aF2.2
aF0.7
aF0.2
aF0.6
aF1.7
aF3.3
aF13.0
aF2.6
aI0
aI0
aI5
aV711,1610612742
p912
aa(lp913
I754
aVJim Jackson
p914
aI1610612747
aVLAL
p915
aF35.0
aI40
aI27
aI13
aF0.675
aF12.8
aF1.2
aF4.0
aF0.294
aF0.5
aF1.9
aF0.243
aF0.2
aF0.3
aF0.692
aF0.3
aF1.6
aF1.9
aF0.9
aF0.9
aF0.3
aF0.2
aF0.1
aF1.3
aF0.4
aF3.0
aF0.1
aI0
aI0
aI5
aV754,1610612747
p916
aa(lp917
I2412
aVJiri Welsch
p918
aI1610612749
aVMIL
p919
aF26.0
aI58
aI30
aI28
aF0.517
aF14.9
aF1.5
aF3.8
aF0.387
aF0.2
aF0.8
aF0.286
aF1.1
aF1.5
aF0.747
aF0.4
aF1.5
aF1.9
aF1.1
aF0.7
aF0.6
aF0.0
aF0.2
aF1.1
aF1.5
aF4.3
aF-3.4
aI0
aI0
aI5
aV2412,1610612749
p920
aa(lp921
I2207
aVJoe Johnson
p922
aI1610612737
aVATL
p923
aF25.0
aI82
aI26
aI56
aF0.317
aF40.7
aF7.7
aF17.0
aF0.453
aF1.6
aF4.4
aF0.356
aF3.2
aF4.0
aF0.791
aF1.2
aF2.9
aF4.1
aF6.5
aF3.3
aF1.3
aF0.4
aF0.5
aF2.3
aF3.3
aF20.2
aF-4.6
aI13
aI1
aI5
aV2207,1610612737
p924
aa(lp925
I693
aVJoe Smith
p926
aI1610612749
aVMIL
p927
aF30.0
aI44
aI20
aI24
aF0.455
aF20.2
aF3.3
aF6.9
aF0.475
aF0.0
aF0.0
aF0.0
aF2.0
aF2.6
aF0.774
aF1.9
aF3.3
aF5.2
aF0.7
aF0.9
aF0.5
aF0.3
aF0.5
aF2.7
aF2.8
aF8.6
aF-0.3
aI5
aI0
aI5
aV693,1610612749
p928
aa(lp929
I2038
aVJoel Przybilla
p930
aI1610612757
aVPOR
p931
aF26.0
aI56
aI16
aI40
aF0.286
aF24.9
aF2.3
aF4.3
aF0.548
aF0.0
aF0.0
aF0.0
aF1.5
aF2.8
aF0.532
aF2.6
aF4.4
aF7.0
aF0.8
aF1.4
aF0.4
aF2.3
aF0.6
aF2.7
aF2.4
aF6.1
aF-4.2
aI6
aI0
aI5
aV2038,1610612757
p932
aa(lp933
I101121
aVJoey Graham
p934
aI1610612761
aVTOR
p935
aF24.0
aI80
aI26
aI54
aF0.325
aF19.8
aF2.5
aF5.2
aF0.478
aF0.4
aF1.1
aF0.333
aF1.4
aF1.7
aF0.812
aF0.7
aF2.3
aF3.1
aF0.8
aF1.2
aF0.5
aF0.2
aF0.3
aF2.9
aF1.4
aF6.7
aF-2.2
aI0
aI0
aI5
aV101121,1610612761
p936
aa(lp937
I101130
aVJohan Petro
p938
aI1610612760
aVSEA
p939
aF20.0
aI68
aI26
aI42
aF0.382
aF18.9
aF2.3
aF4.4
aF0.51
aF0.0
aF0.0
aF0.0
aF0.7
aF1.1
aF0.627
aF1.6
aF2.8
aF4.4
aF0.2
aF0.9
aF0.4
aF0.8
aF0.4
aF3.1
aF1.0
aF5.2
aF-2.2
aI2
aI0
aI5
aV101130,1610612760
p940
aa(lp941
I2823
aVJohn Edwards
p942
aI1610612737
aVATL
p943
aF24.0
aI40
aI11
aI29
aF0.275
aF7.4
aF0.8
aF1.6
aF0.484
aF0.0
aF0.0
aF0.0
aF0.2
aF0.3
aF0.727
aF0.5
aF0.8
aF1.2
aF0.1
aF0.3
aF0.1
aF0.4
aF0.2
aF1.9
aF0.4
aF1.8
aF-2.2
aI0
aI0
aI5
aV2823,1610612737
p944
aa(lp945
I101249
aVJohn Lucas III
p946
aI1610612745
aVHOU
p947
aF23.0
aI13
aI4
aI9
aF0.308
aF8.2
aF1.1
aF2.8
aF0.389
aF0.2
aF0.7
aF0.222
aF0.0
aF0.0
aF0.0
aF0.2
aF0.2
aF0.4
aF0.9
aF0.5
aF0.4
aF0.0
aF0.2
aF0.5
aF0.1
aF2.3
aF-0.5
aI0
aI0
aI5
aV101249,1610612745
p948
aa(lp949
I2422
aVJohn Salmons
p950
aI1610612755
aVPHI
p951
aF26.0
aI82
aI38
aI44
aF0.463
aF25.1
aF2.7
aF6.4
aF0.42
aF0.3
aF1.1
aF0.299
aF1.9
aF2.4
aF0.775
aF0.6
aF2.1
aF2.7
aF2.7
aF1.5
aF0.9
aF0.2
aF0.7
aF2.2
aF2.1
aF7.5
aF-2.3
aI3
aI0
aI5
aV2422,1610612755
p952
aa(lp953
I1519
aVJohn Thomas
p954
aI1610612751
aVNJN
p955
aF30.0
aI16
aI5
aI11
aF0.313
aF8.0
aF0.4
aF0.9
aF0.4
aF0.0
aF0.0
aF0.0
aF0.2
aF0.3
aF0.75
aF0.6
aF0.6
aF1.3
aF0.1
aF0.5
aF0.2
aF0.1
aF0.1
aF1.1
aF0.3
aF0.9
aF-0.8
aI0
aI0
aI5
aV1519,1610612751
p956
aa(lp957
I468
aVJon Barry
p958
aI1610612745
aVHOU
p959
aF36.0
aI20
aI7
aI13
aF0.35
aF17.1
aF1.3
aF3.3
aF0.385
aF0.6
aF1.6
aF0.375
aF1.2
aF1.5
aF0.828
aF0.1
aF1.5
aF1.6
aF1.3
aF1.1
aF0.7
aF0.1
aF0.1
aF1.3
aF0.9
aF4.3
aF-2.3
aI0
aI0
aI5
aV468,1610612745
p960
aa(lp961
I1886
aVJonathan Bender
p962
aI1610612754
aVIND
p963
aF25.0
aI2
aI1
aI1
aF0.5
aF10.3
aF2.0
aF2.5
aF0.8
aF0.0
aF0.0
aF0.0
aF1.0
aF1.0
aF1.0
aF0.0
aF2.0
aF2.0
aF1.0
aF0.0
aF0.0
aF0.5
aF0.5
aF1.0
aF1.5
aF5.0
aF-4.0
aI0
aI0
aI5
aV1886,1610612754
p964
aa(lp965
I101181
aVJose Calderon
p966
aI1610612761
aVTOR
p967
aF24.0
aI64
aI18
aI46
aF0.281
aF23.2
aF2.1
aF4.9
aF0.423
aF0.1
aF0.7
aF0.163
aF1.2
aF1.4
aF0.848
aF0.5
aF1.7
aF2.2
aF4.5
aF1.6
aF0.7
aF0.1
aF0.5
aF1.5
aF1.5
aF5.5
aF-1.7
aI2
aI0
aI5
aV101181,1610612761
p968
aa(lp969
I2735
aVJosh Childress
p970
aI1610612737
aVATL
p971
aF23.0
aI74
aI24
aI50
aF0.324
aF30.4
aF3.8
aF6.8
aF0.552
aF0.4
aF0.9
aF0.492
aF2.1
aF2.7
aF0.766
aF1.8
aF3.4
aF5.2
aF1.8
aF1.4
aF1.2
aF0.5
aF0.7
aF2.5
aF2.1
aF10.0
aF-2.6
aI6
aI0
aI5
aV2735,1610612737
p972
aa(lp973
I2668
aVJosh Davis
p974
aI1610612756
aVPHX
p975
aF25.0
aI6
aI2
aI4
aF0.333
aF2.8
aF0.3
aF1.2
aF0.286
aF0.0
aF0.3
aF0.0
aF0.3
aF0.5
aF0.667
aF0.5
aF0.2
aF0.7
aF0.2
aF0.2
aF0.3
aF0.0
aF0.0
aF0.5
aF0.5
aF1.0
aF-2.7
aI0
aI0
aI5
aV2668,1610612756
p976
aa(lp977
I2572
aVJosh Howard
p978
aI1610612742
aVDAL
p979
aF26.0
aI59
aI44
aI15
aF0.746
aF32.5
aF5.9
aF12.6
aF0.471
aF0.5
aF1.1
aF0.429
aF3.3
aF4.5
aF0.734
aF2.1
aF4.2
aF6.3
aF1.9
aF1.3
aF1.2
aF0.4
aF0.9
aF2.8
aF3.6
aF15.6
aF5.3
aI12
aI0
aI5
aV2572,1610612742
p980
aa(lp981
I2694
aVJosh Powell
p982
aI1610612742
aVDAL
p983
aF23.0
aI37
aI25
aI12
aF0.676
aF11.6
aF1.0
aF2.2
aF0.457
aF0.0
aF0.0
aF0.0
aF1.0
aF1.2
aF0.8
aF0.8
aF1.4
aF2.2
aF0.2
aF0.6
aF0.2
aF0.1
aF0.2
aF1.4
aF0.9
aF3.0
aF-0.1
aI0
aI0
aI5
aV2694,1610612742
p984
aa(lp985
I2746
aVJosh Smith
p986
aI1610612737
aVATL
p987
aF20.0
aI80
aI26
aI54
aF0.325
aF32.0
aF4.1
aF9.7
aF0.425
aF0.4
aF1.4
aF0.309
aF2.6
aF3.7
aF0.719
aF2.2
aF4.4
aF6.6
aF2.4
aF2.0
aF0.8
aF2.6
aF0.4
aF3.3
aF2.9
aF11.3
aF-4.0
aI11
aI0
aI5
aV2746,1610612737
p988
aa(lp989
I2413
aVJuan Dixon
p990
aI1610612757
aVPOR
p991
aF27.0
aI76
aI19
aI57
aF0.25
aF25.3
aF4.7
aF10.8
aF0.435
aF0.9
aF2.2
aF0.382
aF2.1
aF2.6
aF0.804
aF0.4
aF1.9
aF2.3
aF2.0
aF1.5
aF0.8
aF0.1
aF0.6
aF2.1
aF1.9
aF12.3
aF-4.4
aI0
aI0
aI5
aV2413,1610612757
p992
aa(lp993
I101125
aVJulius Hodge
p994
aI1610612743
aVDEN
p995
aF22.0
aI14
aI7
aI7
aF0.5
aF2.4
aF0.4
aF0.9
aF0.385
aF0.0
aF0.0
aF0.0
aF0.2
aF0.6
aF0.375
aF0.4
aF0.1
aF0.5
aF0.4
aF0.6
aF0.1
aF0.0
aF0.3
aF0.5
aF0.3
aF0.9
aF0.1
aI0
aI0
aI5
aV101125,1610612743
p996
aa(lp997
I1908
aVJumaine Jones
p998
aI1610612766
aVCHA
p999
aF27.0
aI76
aI23
aI53
aF0.303
aF27.5
aF3.9
aF9.7
aF0.405
aF1.5
aF4.4
aF0.343
aF1.2
aF1.6
aF0.727
aF1.4
aF3.6
aF4.9
aF0.8
aF1.0
aF0.9
aF0.3
aF0.3
aF2.6
aF1.6
aF10.5
aF-3.3
aI3
aI0
aI5
aV1908,1610612766
p1000
aa(lp1001
I2770
aVJustin Reed
p1002
aI1610612750
aVMIN
p1003
aF24.0
aI72
aI26
aI46
aF0.361
aF13.8
aF1.7
aF4.1
aF0.403
aF0.0
aF0.0
aF0.0
aF1.2
aF1.7
aF0.725
aF0.7
aF1.0
aF1.7
aF0.6
aF0.7
aF0.3
aF0.2
aF0.6
aF2.3
aF1.5
aF4.5
aF-2.3
aI0
aI0
aI5
aV2770,1610612750
p1004
aa(lp1005
I436
aVJuwan Howard
p1006
aI1610612745
aVHOU
p1007
aF33.0
aI80
aI34
aI46
aF0.425
aF31.7
aF4.9
aF10.7
aF0.459
aF0.0
aF0.1
aF0.0
aF1.9
aF2.4
aF0.806
aF2.1
aF4.6
aF6.7
aF1.4
aF1.7
aF0.6
aF0.1
aF0.8
aF2.9
aF1.9
aF11.8
aF-3.1
aI10
aI0
aI5
aV436,1610612745
p1008
aa(lp1009
I2416
aVKareem Rush
p1010
aI1610612766
aVCHA
p1011
aF25.0
aI47
aI13
aI34
aF0.277
aF23.6
aF3.9
aF10.0
aF0.386
aF1.2
aF3.5
aF0.348
aF1.2
aF1.6
aF0.714
aF0.4
aF1.8
aF2.2
aF1.1
aF1.4
aF0.8
aF0.3
aF0.2
aF1.7
aF1.4
aF10.1
aF-3.8
aI0
aI0
aI5
aV2416,1610612766
p1012
aa(lp1013
I2586
aVKeith Bogans
p1014
aI1610612745
aVHOU
p1015
aF26.0
aI72
aI25
aI47
aF0.347
aF26.6
aF3.0
aF7.6
aF0.395
aF0.9
aF2.8
aF0.325
aF1.8
aF2.6
aF0.683
aF0.8
aF2.8
aF3.5
aF1.8
aF1.3
aF1.0
aF0.1
aF0.6
aF2.3
aF2.3
aF8.6
aF-2.9
aI0
aI0
aI5
aV2586,1610612745
p1016
aa(lp1017
I2693
aVKeith McLeod
p1018
aI1610612762
aVUTA
p1019
aF26.0
aI66
aI36
aI30
aF0.545
aF18.7
aF1.8
aF5.2
aF0.353
aF0.4
aF1.2
aF0.293
aF1.6
aF2.0
aF0.797
aF0.2
aF1.0
aF1.2
aF2.3
aF1.2
aF0.6
aF0.1
aF0.2
aF2.0
aF1.8
aF5.6
aF-1.8
aI0
aI0
aI5
aV2693,1610612762
p1020
aa(lp1021
I1496
aVKeith Van Horn
p1022
aI1610612742
aVDAL
p1023
aF30.0
aI53
aI38
aI15
aF0.717
aF20.6
aF3.1
aF7.3
aF0.424
aF0.9
aF2.6
aF0.368
aF1.8
aF2.1
aF0.832
aF1.0
aF2.6
aF3.6
aF0.7
aF1.3
aF0.6
aF0.2
aF0.5
aF2.3
aF1.5
aF8.9
aF1.8
aI2
aI0
aI5
aV1496,1610612742
p1024
aa(lp1025
I1509
aVKelvin Cato
p1026
aI1610612765
aVDET
p1027
aF31.0
aI27
aI12
aI15
aF0.444
aF12.3
aF1.3
aF3.1
aF0.429
aF0.0
aF0.0
aF0.0
aF1.0
aF1.3
aF0.743
aF0.7
aF1.9
aF2.6
aF0.1
aF0.7
aF0.2
aF0.4
aF0.4
aF1.9
aF1.2
aF3.6
aF-1.9
aI0
aI0
aI5
aV1509,1610612765
p1028
aa(lp1029
I2570
aVKendrick Perkins
p1030
aI1610612738
aVBOS
p1031
aF21.0
aI68
aI25
aI43
aF0.368
aF19.6
aF2.0
aF3.9
aF0.515
aF0.0
aF0.0
aF0.0
aF1.2
aF1.9
aF0.615
aF2.1
aF3.9
aF5.9
aF1.0
aF1.6
aF0.3
aF1.5
aF0.5
aF2.9
aF1.7
aF5.2
aF-0.8
aI4
aI0
aI5
aV2570,1610612738
p1032
aa(lp1033
I1903
aVKenny Thomas
p1034
aI1610612758
aVSAC
p1035
aF28.0
aI82
aI44
aI38
aF0.537
aF28.0
aF3.7
aF7.4
aF0.505
aF0.0
aF0.0
aF0.0
aF1.7
aF2.5
aF0.676
aF2.4
aF5.1
aF7.5
aF2.0
aF1.6
aF0.9
aF0.5
aF0.6
aF2.4
aF2.3
aF9.1
aF-0.5
aI20
aI1
aI5
aV1903,1610612758
p1036
aa(lp1037
I2030
aVKenyon Martin
p1038
aI1610612743
aVDEN
p1039
aF28.0
aI56
aI25
aI31
aF0.446
aF27.6
aF5.3
aF10.7
aF0.495
aF0.1
aF0.4
aF0.227
aF2.2
aF3.0
aF0.712
aF1.7
aF4.6
aF6.3
aF1.4
aF1.3
aF0.8
aF0.9
aF0.8
aF3.1
aF2.2
aF12.9
aF1.0
aI7
aI0
aI5
aV2030,1610612743
p1040
aa(lp1041
I101207
aVKevin Burleson
p1042
aI1610612766
aVCHA
p1043
aF27.0
aI39
aI12
aI27
aF0.308
aF8.7
aF0.6
aF2.3
aF0.25
aF0.3
aF1.4
aF0.185
aF0.4
aF0.4
aF0.941
aF0.1
aF0.6
aF0.7
aF1.2
aF0.6
aF0.7
aF0.1
aF0.2
aF1.6
aF0.4
aF1.8
aF-0.1
aI0
aI0
aI5
aV101207,1610612766
p1044
aa(lp1045
I708
aVKevin Garnett
p1046
aI1610612750
aVMIN
p1047
aF30.0
aI76
aI31
aI45
aF0.408
aF38.9
aF8.2
aF15.7
aF0.526
aF0.1
aF0.4
aF0.267
aF5.2
aF6.4
aF0.81
aF2.8
aF9.9
aF12.7
aF4.1
aF2.4
aF1.4
aF1.4
aF0.5
aF2.7
aF5.8
aF21.8
aF0.5
aI62
aI0
aI5
aV708,1610612750
p1048
aa(lp1049
I2755
aVKevin Martin
p1050
aI1610612758
aVSAC
p1051
aF23.0
aI72
aI40
aI32
aF0.556
aF26.6
aF3.6
aF7.6
aF0.48
aF0.9
aF2.5
aF0.369
aF2.6
aF3.1
aF0.847
aF0.8
aF2.8
aF3.6
aF1.3
aF1.1
aF0.8
aF0.1
aF0.5
aF1.9
aF2.4
aF10.8
aF0.5
aI2
aI0
aI5
aV2755,1610612758
p1052
aa(lp1053
I1563
aVKevin Ollie
p1054
aI1610612755
aVPHI
p1055
aF33.0
aI70
aI33
aI37
aF0.471
aF15.3
aF1.1
aF2.5
aF0.431
aF0.0
aF0.0
aF0.333
aF0.6
aF0.7
aF0.837
aF0.2
aF1.2
aF1.4
aF1.4
aF0.4
aF0.5
aF0.0
aF0.1
aF1.5
aF0.8
aF2.7
aF-2.9
aI0
aI0
aI5
aV1563,1610612755
p1056
aa(lp1057
I2039
aVKeyon Dooling
p1058
aI1610612753
aVORL
p1059
aF26.0
aI50
aI23
aI27
aF0.46
aF22.7
aF3.6
aF8.1
aF0.44
aF0.3
aF0.9
aF0.302
aF2.0
aF2.4
aF0.835
aF0.2
aF1.3
aF1.6
aF2.2
aF1.6
aF1.0
aF0.1
aF0.5
aF2.3
aF2.4
aF9.4
aF0.7
aI0
aI0
aI5
aV2039,1610612753
p1060
aa(lp1061
I2550
aVKirk Hinrich
p1062
aI1610612741
aVCHI
p1063
aF25.0
aI81
aI40
aI41
aF0.494
aF36.5
aF5.6
aF13.3
aF0.418
aF1.6
aF4.2
aF0.37
aF3.2
aF3.9
aF0.815
aF0.4
aF3.2
aF3.6
aF6.3
aF2.3
aF1.2
aF0.3
aF0.6
aF3.1
aF3.7
aF15.9
aF-0.3
aI11
aI0
aI5
aV2550,1610612741
p1064
aa(lp1065
I2745
aVKirk Snyder
p1066
aI1610612740
aVNOK
p1067
aF23.0
aI68
aI28
aI40
aF0.412
aF19.3
aF3.0
aF6.7
aF0.453
aF0.7
aF1.9
aF0.357
aF1.3
aF1.7
aF0.735
aF0.8
aF1.6
aF2.4
aF1.5
aF1.0
aF0.4
aF0.3
aF0.3
aF1.6
aF1.6
aF8.0
aF0.4
aI1
aI0
aI5
aV2745,1610612740
p1068
aa(lp1069
I977
aVKobe Bryant
p1070
aI1610612747
aVLAL
p1071
aF27.0
aI80
aI45
aI35
aF0.563
aF41.0
aF12.2
aF27.2
aF0.45
aF2.3
aF6.5
aF0.347
aF8.7
aF10.2
aF0.85
aF0.9
aF4.4
aF5.3
aF4.5
aF3.1
aF1.8
aF0.4
aF1.0
aF2.9
aF8.1
aF35.4
aF4.0
aI4
aI0
aI5
aV977,1610612747
p1072
aa(lp1073
I2743
aVKris Humphries
p1074
aI1610612762
aVUTA
p1075
aF21.0
aI62
aI27
aI35
aF0.435
aF10.0
aF1.2
aF3.3
aF0.379
aF0.0
aF0.1
aF0.0
aF0.5
aF1.0
aF0.523
aF0.9
aF1.6
aF2.5
aF0.5
aF0.5
aF0.4
aF0.3
aF0.2
aF1.3
aF0.9
aF3.0
aF-1.3
aI1
aI0
aI5
aV2743,1610612762
p1076
aa(lp1077
I703
aVKurt Thomas
p1078
aI1610612756
aVPHX
p1079
aF33.0
aI53
aI36
aI17
aF0.679
aF26.6
aF3.6
aF7.4
aF0.486
aF0.0
aF0.0
aF0.0
aF1.4
aF1.7
aF0.815
aF1.9
aF5.9
aF7.8
aF1.1
aF1.1
aF0.4
aF1.0
aF0.4
aF3.6
aF2.4
aF8.6
aF4.6
aI8
aI0
aI5
aV703,1610612756
p1080
aa(lp1081
I2198
aVKwame Brown
p1082
aI1610612747
aVLAL
p1083
aF24.0
aI72
aI39
aI33
aF0.542
aF27.5
aF2.8
aF5.4
aF0.526
aF0.0
aF0.0
aF0.0
aF1.8
aF3.3
aF0.545
aF2.5
aF4.0
aF6.6
aF1.0
aF1.4
aF0.4
aF0.6
aF0.6
aF2.7
aF3.1
aF7.4
aF1.0
aI7
aI0
aI5
aV2198,1610612747
p1084
aa(lp1085
I2594
aVKyle Korver
p1086
aI1610612755
aVPHI
p1087
aF25.0
aI82
aI38
aI44
aF0.463
aF31.3
aF4.0
aF9.3
aF0.43
aF2.2
aF5.3
aF0.42
aF1.2
aF1.5
aF0.849
aF0.3
aF3.0
aF3.3
aF2.0
aF1.2
aF0.8
aF0.3
aF0.2
aF2.7
aF1.5
aF11.5
aF-0.6
aI1
aI0
aI5
aV2594,1610612755
p1088
aa(lp1089
I1885
aVLamar Odom
p1090
aI1610612747
aVLAL
p1091
aF26.0
aI80
aI45
aI35
aF0.563
aF40.3
aF5.6
aF11.6
aF0.481
aF1.0
aF2.7
aF0.372
aF2.7
aF3.9
aF0.69
aF2.3
aF7.0
aF9.2
aF5.5
aF2.7
aF0.9
aF0.8
aF0.7
aF3.2
aF3.6
aF14.8
aF3.0
aI29
aI2
aI5
aV1885,1610612747
p1092
aa(lp1093
I441
aVLamond Murray
p1094
aI1610612751
aVNJN
p1095
aF33.0
aI57
aI37
aI20
aF0.649
aF10.1
aF1.3
aF3.2
aF0.398
aF0.5
aF1.4
aF0.346
aF0.4
aF0.7
aF0.625
aF0.5
aF1.8
aF2.3
aF0.2
aF0.4
aF0.3
aF0.1
aF0.0
aF1.2
aF0.6
aF3.4
aF-0.8
aI0
aI0
aI5
aV441,1610612751
p1096
aa(lp1097
I1919
aVLaron Profit
p1098
aI1610612747
aVLAL
p1099
aF28.0
aI25
aI14
aI11
aF0.56
aF11.2
aF1.6
aF3.4
aF0.476
aF0.1
aF0.7
aF0.167
aF0.8
aF1.0
aF0.875
aF0.3
aF1.4
aF1.7
aF0.6
aF1.0
aF0.4
aF0.2
aF0.1
aF1.0
aF0.9
aF4.2
aF-1.6
aI0
aI0
aI5
aV1919,1610612747
p1100
aa(lp1101
I1716
aVLarry Hughes
p1102
aI1610612739
aVCLE
p1103
aF27.0
aI36
aI23
aI13
aF0.639
aF35.6
aF5.3
aF13.0
aF0.409
aF0.8
aF2.1
aF0.368
aF4.1
aF5.4
aF0.756
aF0.7
aF3.8
aF4.5
aF3.6
aF2.8
aF1.5
aF0.6
aF0.9
aF3.3
aF4.0
aF15.5
aF0.7
aI1
aI0
aI5
aV1716,1610612739
p1104
aa(lp1105
I101160
aVLawrence Roberts
p1106
aI1610612763
aVMEM
p1107
aF23.0
aI33
aI23
aI10
aF0.697
aF5.5
aF0.6
aF1.3
aF0.455
aF0.0
aF0.1
aF0.0
aF0.3
aF0.7
aF0.478
aF0.8
aF0.7
aF1.5
aF0.2
aF0.2
aF0.2
aF0.1
aF0.1
aF0.9
aF0.5
aF1.5
aF0.1
aI1
aI0
aI5
aV101160,1610612763
p1108
aa(lp1109
I2544
aVLeBron James
p1110
aI1610612739
aVCLE
p1111
aF21.0
aI79
aI47
aI32
aF0.595
aF42.5
aF11.1
aF23.1
aF0.48
aF1.6
aF4.8
aF0.335
aF7.6
aF10.3
aF0.738
aF0.9
aF6.1
aF7.0
aF6.6
aF3.3
aF1.6
aF0.8
aF0.8
aF2.3
aF7.5
aF31.4
aF3.5
aI21
aI5
aI5
aV2544,1610612739
p1112
aa(lp1113
I2571
aVLeandro Barbosa
p1114
aI1610612756
aVPHX
p1115
aF23.0
aI57
aI36
aI21
aF0.632
aF27.9
aF4.8
aF9.9
aF0.481
aF1.5
aF3.4
aF0.444
aF1.9
aF2.6
aF0.755
aF0.5
aF2.1
aF2.6
aF2.8
aF1.6
aF0.8
aF0.1
aF0.6
aF2.5
aF2.5
aF13.1
aF1.9
aI0
aI0
aI5
aV2571,1610612756
p1116
aa(lp1117
I1924
aVLee Nailon
p1118
aI1610612755
aVPHI
p1119
aF31.0
aI22
aI11
aI11
aF0.5
aF10.8
aF1.8
aF3.6
aF0.5
aF0.0
aF0.0
aF0.0
aF0.6
aF0.7
aF0.867
aF1.0
aF0.9
aF1.9
aF0.3
aF0.5
aF0.4
aF0.2
aF0.2
aF1.5
aF0.6
aF4.2
aF0.0
aI0
aI0
aI5
aV1924,1610612755
p1120
aa(lp1121
I101132
aVLinas Kleiza
p1122
aI1610612743
aVDEN
p1123
aF21.0
aI61
aI33
aI28
aF0.541
aF8.5
aF1.3
aF2.8
aF0.445
aF0.0
aF0.2
aF0.154
aF0.9
aF1.3
aF0.704
aF0.6
aF1.3
aF1.9
aF0.2
aF0.3
aF0.2
aF0.2
aF0.2
aF1.4
aF0.9
aF3.5
aF-0.4
aI0
aI0
aI5
aV101132,1610612743
p1124
aa(lp1125
I283
aVLindsey Hunter
p1126
aI1610612765
aVDET
p1127
aF35.0
aI30
aI21
aI9
aF0.7
aF11.8
aF1.2
aF3.3
aF0.37
aF0.4
aF1.4
aF0.256
aF0.1
aF0.1
aF0.5
aF0.3
aF1.0
aF1.3
aF2.1
aF0.7
aF0.6
aF0.0
aF0.1
aF1.5
aF0.4
aF2.9
aF0.8
aI0
aI0
aI5
aV283,1610612765
p1128
aa(lp1129
I2669
aVLinton Johnson
p1130
aI1610612740
aVNOK
p1131
aF26.0
aI36
aI13
aI23
aF0.361
aF14.6
aF1.7
aF4.1
aF0.409
aF0.4
aF1.0
aF0.361
aF0.5
aF0.8
aF0.667
aF1.1
aF2.3
aF3.4
aF0.4
aF0.8
aF0.3
aF0.3
aF0.3
aF1.7
aF0.7
aF4.3
aF-1.3
aI1
aI0
aI5
aV2669,1610612740
p1132
aa(lp1133
I2437
aVLonny Baxter
p1134
aI1610612766
aVCHA
p1135
aF27.0
aI41
aI13
aI28
aF0.317
aF9.8
aF1.1
aF2.5
aF0.433
aF0.0
aF0.0
aF0.0
aF0.7
aF0.9
aF0.8
aF1.1
aF1.8
aF2.9
aF0.1
aF0.5
aF0.3
aF0.2
aF0.4
aF1.4
aF1.0
aF2.9
aF0.5
aI1
aI0
aI5
aV2437,1610612766
p1136
aa(lp1137
I2254
aVLoren Woods
p1138
aI1610612761
aVTOR
p1139
aF28.0
aI27
aI7
aI20
aF0.259
aF12.0
aF1.0
aF2.2
aF0.475
aF0.0
aF0.0
aF0.0
aF0.2
aF0.5
aF0.429
aF1.6
aF2.4
aF4.1
aF0.1
aF0.6
aF0.3
aF0.9
aF0.1
aF1.8
aF0.9
aF2.3
aF-0.8
aI1
aI0
aI5
aV2254,1610612761
p1140
aa(lp1141
I953
aVLorenzen Wright
p1142
aI1610612763
aVMEM
p1143
aF30.0
aI78
aI47
aI31
aF0.603
aF21.7
aF2.5
aF5.2
aF0.478
aF0.0
aF0.0
aF0.0
aF0.8
aF1.5
aF0.564
aF1.8
aF3.2
aF5.1
aF0.6
aF0.9
aF0.7
aF0.6
aF0.6
aF2.6
aF1.4
aF5.8
aF1.8
aI3
aI0
aI5
aV953,1610612763
p1144
aa(lp1145
I101150
aVLou Williams
p1146
aI1610612755
aVPHI
p1147
aF19.0
aI30
aI14
aI16
aF0.467
aF4.8
aF0.8
aF1.7
aF0.442
aF0.1
aF0.3
aF0.222
aF0.3
aF0.4
aF0.615
aF0.1
aF0.5
aF0.6
aF0.3
aF0.4
aF0.2
aF0.0
aF0.3
aF0.4
aF0.3
aF1.9
aF-0.8
aI0
aI0
aI5
aV101150,1610612755
p1148
aa(lp1149
I2739
aVLuke Jackson
p1150
aI1610612739
aVCLE
p1151
aF24.0
aI36
aI19
aI17
aF0.528
aF8.8
aF0.8
aF2.4
aF0.341
aF0.3
aF1.0
aF0.333
aF0.7
aF0.9
aF0.788
aF0.4
aF0.7
aF1.1
aF0.7
aF0.9
aF0.3
aF0.1
aF0.1
aF0.8
aF0.7
aF2.7
aF-0.7
aI0
aI0
aI5
aV2739,1610612739
p1152
aa(lp1153
I2557
aVLuke Ridnour
p1154
aI1610612760
aVSEA
p1155
aF25.0
aI79
aI34
aI45
aF0.43
aF33.2
aF4.2
aF10.1
aF0.418
aF0.5
aF1.9
aF0.289
aF2.5
aF2.9
aF0.877
aF0.6
aF2.4
aF3.0
aF7.0
aF2.1
aF1.6
aF0.3
aF0.5
aF2.3
aF2.5
aF11.5
aF-2.7
aI12
aI0
aI5
aV2557,1610612760
p1156
aa(lp1157
I101195
aVLuke Schenscher
p1158
aI1610612741
aVCHI
p1159
aF24.0
aI20
aI11
aI9
aF0.55
aF7.4
aF0.8
aF1.3
aF0.615
aF0.0
aF0.0
aF0.0
aF0.2
aF0.7
aF0.308
aF0.4
aF1.1
aF1.5
aF0.4
aF0.3
aF0.1
aF0.2
aF0.2
aF1.1
aF0.5
aF1.8
aF0.5
aI0
aI0
aI5
aV101195,1610612741
p1160
aa(lp1161
I2575
aVLuke Walton
p1162
aI1610612747
aVLAL
p1163
aF26.0
aI69
aI38
aI31
aF0.551
aF19.3
aF2.0
aF4.8
aF0.412
aF0.3
aF0.8
aF0.327
aF0.8
aF1.1
aF0.75
aF1.3
aF2.3
aF3.6
aF2.3
aF1.1
aF0.6
aF0.2
aF0.3
aF1.7
aF1.3
aF5.0
aF0.9
aI1
aI0
aI5
aV2575,1610612747
p1164
aa(lp1165
I2736
aVLuol Deng
p1166
aI1610612741
aVCHI
p1167
aF21.0
aI78
aI39
aI39
aF0.5
aF33.4
aF5.7
aF12.2
aF0.463
aF0.3
aF1.0
aF0.269
aF2.7
aF3.5
aF0.75
aF1.6
aF5.0
aF6.6
aF1.9
aF1.3
aF0.9
aF0.6
aF0.9
aF1.6
aF2.7
aF14.3
aF1.4
aI11
aI0
aI5
aV2736,1610612741
p1168
aa(lp1169
I101129
aVLuther Head
p1170
aI1610612745
aVHOU
p1171
aF23.0
aI80
aI32
aI48
aF0.4
aF28.9
aF3.2
aF7.9
aF0.403
aF1.4
aF3.9
aF0.361
aF1.1
aF1.5
aF0.699
aF0.4
aF2.9
aF3.3
aF2.7
aF1.5
aF1.1
aF0.1
aF0.5
aF2.1
aF1.2
aF8.8
aF-0.5
aI1
aI0
aI5
aV101129,1610612745
p1172
aa(lp1173
I2573
aVMaciej Lampe
p1174
aI1610612745
aVHOU
p1175
aF21.0
aI6
aI1
aI5
aF0.167
aF4.6
aF0.3
aF1.8
aF0.182
aF0.0
aF0.0
aF0.0
aF0.0
aF0.3
aF0.0
aF0.7
aF0.8
aF1.5
aF0.3
aF0.5
aF0.0
aF0.0
aF0.2
aF0.3
aF0.3
aF0.7
aF-0.5
aI0
aI0
aI5
aV2573,1610612745
p1176
aa(lp1177
I2124
aVMalik Allen
p1178
aI1610612741
aVCHI
p1179
aF28.0
aI54
aI28
aI26
aF0.519
aF13.0
aF2.2
aF4.6
aF0.49
aF0.0
aF0.0
aF1.0
aF0.4
aF0.7
aF0.605
aF0.8
aF1.8
aF2.6
aF0.4
aF0.6
aF0.3
aF0.3
aF0.3
aF1.7
aF1.0
aF4.9
aF0.9
aI0
aI0
aI5
aV2124,1610612741
p1180
aa(lp1181
I990
aVMalik Rose
p1182
aI1610612752
aVNYK
p1183
aF31.0
aI72
aI20
aI52
aF0.278
aF15.5
aF1.5
aF3.9
aF0.374
aF0.0
aF0.0
aF1.0
aF1.5
aF1.9
aF0.781
aF1.2
aF2.4
aF3.6
aF0.9
aF1.1
aF0.6
aF0.2
aF0.5
aF2.0
aF1.7
aF4.4
aF-3.9
aI4
aI0
aI5
aV990,1610612752
p1184
aa(lp1185
I1938
aVManu Ginobili
p1186
aI1610612759
aVSAS
p1187
aF28.0
aI65
aI51
aI14
aF0.785
aF27.9
aF4.8
aF10.3
aF0.462
aF1.3
aF3.3
aF0.382
aF4.3
aF5.5
aF0.778
aF0.6
aF2.9
aF3.5
aF3.6
aF1.9
aF1.6
aF0.4
aF0.5
aF2.4
aF4.8
aF15.1
aF6.3
aI2
aI0
aI5
aV1938,1610612759
p1188
aa(lp1189
I1531
aVMarc Jackson
p1190
aI1610612740
aVNOK
p1191
aF31.0
aI64
aI28
aI36
aF0.438
aF16.0
aF2.7
aF5.8
aF0.472
aF0.0
aF0.0
aF0.5
aF1.0
aF1.3
aF0.805
aF1.3
aF2.0
aF3.4
aF0.7
aF1.0
aF0.2
aF0.1
aF0.4
aF2.0
aF1.4
aF6.5
aF-2.2
aI2
aI0
aI5
aV1531,1610612740
p1192
aa(lp1193
I2556
aVMarcus Banks
p1194
aI1610612750
aVMIN
p1195
aF24.0
aI58
aI20
aI38
aF0.345
aF25.8
aF3.8
aF8.1
aF0.468
aF0.4
aF1.1
aF0.349
aF2.0
aF2.5
aF0.803
aF0.4
aF1.9
aF2.3
aF3.8
aF2.1
aF0.9
aF0.2
aF0.5
aF2.8
aF2.3
aF10.0
aF-2.0
aI0
aI0
aI5
aV2556,1610612750
p1196
aa(lp1197
I948
aVMarcus Camby
p1198
aI1610612743
aVDEN
p1199
aF32.0
aI56
aI29
aI27
aF0.518
aF33.2
aF5.4
aF11.6
aF0.465
aF0.0
aF0.2
aF0.091
aF2.0
aF2.8
aF0.712
aF2.4
aF9.6
aF11.9
aF2.1
aF1.6
aF1.4
aF3.3
aF0.3
aF2.8
aF2.6
aF12.8
aF0.6
aI30
aI0
aI5
aV948,1610612743
p1200
aa(lp1201
I2033
aVMarcus Fizer
p1202
aI1610612740
aVNOK
p1203
aF27.0
aI3
aI0
aI3
aF0.0
aF13.0
aF3.0
aF5.7
aF0.529
aF0.3
aF0.3
aF1.0
aF0.3
aF0.7
aF0.5
aF0.3
aF2.0
aF2.3
aF0.3
aF0.7
aF0.0
aF0.0
aF0.3
aF1.7
aF0.3
aF6.7
aF-4.0
aI0
aI0
aI5
aV2033,1610612740
p1204
aa(lp1205
I2435
aVMario Kasun
p1206
aI1610612753
aVORL
p1207
aF26.0
aI28
aI8
aI20
aF0.286
aF7.6
aF1.1
aF2.5
aF0.449
aF0.0
aF0.0
aF0.0
aF0.6
aF0.8
aF0.783
aF0.9
aF1.3
aF2.1
aF0.1
aF0.5
aF0.1
aF0.1
aF0.3
aF2.5
aF0.6
aF2.9
aF-0.6
aI0
aI0
aI5
aV2435,1610612753
p1208
aa(lp1209
I1548
aVMark Blount
p1210
aI1610612750
aVMIN
p1211
aF30.0
aI81
aI28
aI53
aF0.346
aF27.6
aF4.6
aF9.1
aF0.508
aF0.0
aF0.0
aF0.0
aF2.1
aF2.7
aF0.757
aF1.2
aF3.3
aF4.5
aF1.2
aF2.4
aF0.5
aF0.9
aF0.6
aF3.1
aF2.6
aF11.3
aF-2.0
aI3
aI0
aI5
aV1548,1610612750
p1212
aa(lp1213
I2058
aVMark Madsen
p1214
aI1610612750
aVMIN
p1215
aF30.0
aI62
aI27
aI35
aF0.435
aF10.9
aF0.4
aF1.1
aF0.409
aF0.0
aF0.1
aF0.0
aF0.3
aF0.8
aF0.426
aF0.8
aF1.5
aF2.3
aF0.2
aF0.4
aF0.4
aF0.3
aF0.2
aF1.8
aF1.0
aF1.2
aF-0.4
aI0
aI0
aI5
aV2058,1610612750
p1216
aa(lp1217
I2060
aVMarko Jaric
p1218
aI1610612750
aVMIN
p1219
aF27.0
aI75
aI31
aI44
aF0.413
aF28.0
aF3.0
aF7.5
aF0.399
aF0.5
aF1.8
aF0.301
aF1.3
aF1.8
aF0.688
aF0.8
aF2.3
aF3.1
aF3.9
aF1.7
aF1.4
aF0.3
aF0.5
aF2.5
aF1.9
aF7.8
aF0.6
aI2
aI0
aI5
aV2060,1610612750
p1220
aa(lp1221
I2605
aVMarquis Daniels
p1222
aI1610612742
aVDAL
p1223
aF25.0
aI62
aI43
aI19
aF0.694
aF28.5
aF4.0
aF8.3
aF0.48
aF0.1
aF0.3
aF0.211
aF2.2
aF3.0
aF0.754
aF1.3
aF2.3
aF3.6
aF2.8
aF1.6
aF1.1
aF0.2
aF0.6
aF2.3
aF2.5
aF10.2
aF2.6
aI0
aI0
aI5
aV2605,1610612742
p1224
aa(lp1225
I101110
aVMartell Webster
p1226
aI1610612757
aVPOR
p1227
aF19.0
aI61
aI11
aI50
aF0.18
aF17.5
aF2.3
aF5.7
aF0.399
aF1.1
aF3.0
aF0.357
aF1.0
aF1.2
aF0.859
aF0.5
aF1.7
aF2.1
aF0.6
aF0.7
aF0.3
aF0.2
aF0.2
aF1.5
aF1.0
aF6.6
aF-4.1
aI0
aI0
aI5
aV101110,1610612757
p1228
aa(lp1229
I101149
aVMartynas Andriuskevicius
p1230
aI1610612739
aVCLE
p1231
aF20.0
aI6
aI1
aI5
aF0.167
aF1.6
aF0.0
aF0.2
aF0.0
aF0.0
aF0.0
aF0.0
aF0.0
aF0.0
aF0.0
aF0.2
aF0.5
aF0.7
aF0.0
aF0.0
aF0.3
aF0.0
aF0.0
aF0.2
aF0.0
aF0.0
aF1.8
aI0
aI0
aI5
aV101149,1610612739
p1232
aa(lp1233
I101107
aVMarvin Williams
p1234
aI1610612737
aVATL
p1235
aF20.0
aI79
aI25
aI54
aF0.316
aF24.7
aF3.0
aF6.7
aF0.443
aF0.2
aF0.7
aF0.245
aF2.4
aF3.2
aF0.747
aF1.5
aF3.3
aF4.8
aF0.8
aF1.1
aF0.6
aF0.3
aF0.7
aF2.9
aF2.3
aF8.5
aF-1.1
aI4
aI0
aI5
aV101107,1610612737
p1236
aa(lp1237
I2043
aVMateen Cleaves
p1238
aI1610612760
aVSEA
p1239
aF28.0
aI27
aI10
aI17
aF0.37
aF8.5
aF0.9
aF2.6
aF0.352
aF0.1
aF0.6
aF0.25
aF0.7
aF0.9
aF0.792
aF0.1
aF0.4
aF0.5
aF1.6
aF0.5
aF0.1
aF0.1
aF0.1
aF1.1
aF0.6
aF2.7
aF-1.4
aI0
aI0
aI5
aV2043,1610612760
p1240
aa(lp1241
I2440
aVMatt Barnes
p1242
aI1610612755
aVPHI
p1243
aF26.0
aI56
aI24
aI32
aF0.429
aF11.3
aF1.3
aF2.5
aF0.5
aF0.1
aF0.3
aF0.2
aF0.6
aF0.8
aF0.681
aF0.9
aF1.3
aF2.2
aF0.5
aF0.5
aF0.4
aF0.1
aF0.3
aF1.8
aF0.6
aF3.1
aF-0.1
aI0
aI0
aI5
aV2440,1610612755
p1244
aa(lp1245
I2588
aVMatt Bonner
p1246
aI1610612761
aVTOR
p1247
aF26.0
aI78
aI26
aI52
aF0.333
aF21.9
aF2.7
aF6.0
aF0.448
aF1.3
aF3.1
aF0.42
aF0.8
aF1.0
aF0.829
aF1.1
aF2.5
aF3.6
aF0.7
aF0.4
aF0.6
aF0.4
aF0.2
aF2.8
aF1.1
aF7.5
aF-1.4
aI2
aI0
aI5
aV2588,1610612761
p1248
aa(lp1249
I2679
aVMatt Carroll
p1250
aI1610612766
aVCHA
p1251
aF25.0
aI78
aI24
aI54
aF0.308
aF16.4
aF2.5
aF6.1
aF0.403
aF0.9
aF2.4
aF0.389
aF1.8
aF2.2
aF0.821
aF0.4
aF1.6
aF2.0
aF0.4
aF0.6
aF0.6
aF0.1
aF0.4
aF1.5
aF1.4
aF7.6
aF-0.4
aI0
aI0
aI5
aV2679,1610612766
p1252
aa(lp1253
I1723
aVMatt Harpring
p1254
aI1610612762
aVUTA
p1255
aF30.0
aI71
aI35
aI36
aF0.493
aF27.4
aF4.5
aF9.5
aF0.475
aF0.2
aF0.5
aF0.359
aF3.2
aF4.4
aF0.725
aF2.2
aF3.0
aF5.2
aF1.4
aF1.5
aF0.8
aF0.2
aF0.8
aF2.8
aF3.7
aF12.5
aF-1.4
aI4
aI0
aI5
aV1723,1610612762
p1256
aa(lp1257
I101190
aVMatt Walsh
p1258
aI1610612748
aVMIA
p1259
aF23.0
aI2
aI2
aI0
aF1.0
aF1.7
aF0.5
aF0.5
aF1.0
aF0.0
aF0.0
aF0.0
aF0.0
aF1.0
aF0.0
aF0.0
aF0.0
aF0.0
aF0.0
aF0.5
aF0.0
aF0.0
aF0.0
aF0.0
aF1.0
aF1.0
aF-6.5
aI0
aI0
aI5
aV101190,1610612748
p1260
aa(lp1261
I2230
aVMaurice Evans
p1262
aI1610612765
aVDET
p1263
aF27.0
aI80
aI64
aI16
aF0.8
aF14.2
aF1.9
aF4.3
aF0.452
aF0.5
aF1.5
aF0.371
aF0.7
aF0.8
aF0.8
aF1.0
aF1.1
aF2.0
aF0.8
aF0.5
aF0.5
aF0.2
aF0.1
aF1.5
aF0.6
aF5.0
aF0.2
aI0
aI0
aI5
aV2230,1610612765
p1264
aa(lp1265
I1508
aVMaurice Taylor
p1266
aI1610612752
aVNYK
p1267
aF29.0
aI67
aI17
aI50
aF0.254
aF18.0
aF2.7
aF5.8
aF0.468
aF0.0
aF0.0
aF0.0
aF0.9
aF1.2
aF0.699
aF1.0
aF2.4
aF3.4
aF0.8
aF1.5
aF0.3
aF0.2
aF0.4
aF2.6
aF1.7
aF6.3
aF-2.1
aI1
aI0
aI5
aV1508,1610612752
p1268
aa(lp1269
I2246
aVMehmet Okur
p1270
aI1610612762
aVUTA
p1271
aF27.0
aI82
aI41
aI41
aF0.5
aF35.9
aF6.3
aF13.8
aF0.46
aF1.0
aF2.9
aF0.342
aF4.3
aF5.5
aF0.78
aF2.6
aF6.5
aF9.1
aF2.4
aF2.0
aF0.5
aF0.9
aF0.8
aF3.5
aF4.2
aF18.0
aF-1.4
aI35
aI0
aI5
aV2246,1610612762
p1272
aa(lp1273
I2408
aVMelvin Ely
p1274
aI1610612766
aVCHA
p1275
aF28.0
aI57
aI20
aI37
aF0.351
aF23.7
aF3.8
aF7.5
aF0.508
aF0.0
aF0.0
aF0.0
aF2.2
aF3.4
aF0.667
aF1.6
aF3.2
aF4.9
aF1.3
aF1.8
aF0.5
aF0.8
aF0.5
aF2.8
aF3.5
aF9.8
aF-1.3
aI2
aI0
aI5
aV2408,1610612766
p1276
aa(lp1277
I2684
aVMelvin Sanders
p1278
aI1610612759
aVSAS
p1279
aF25.0
aI16
aI14
aI2
aF0.875
aF7.1
aF1.0
aF2.1
aF0.485
aF0.1
aF0.2
aF0.667
aF0.4
aF0.6
aF0.7
aF0.3
aF1.2
aF1.4
aF0.2
aF0.5
aF0.3
aF0.0
aF0.1
aF1.3
aF0.6
aF2.6
aF-1.2
aI0
aI0
aI5
aV2684,1610612759
p1280
aa(lp1281
I1897
aVMetta World Peace
p1282
aI1610612758
aVSAC
p1283
aF26.0
aI56
aI36
aI20
aF0.643
aF39.4
aF6.3
aF15.5
aF0.404
aF1.4
aF4.5
aF0.308
aF3.7
aF5.4
aF0.675
aF1.3
aF3.8
aF5.1
aF3.6
aF2.3
aF2.2
aF0.7
aF1.1
aF2.9
aF4.8
aF17.6
aF6.2
aI2
aI0
aI5
aV1897,1610612758
p1284
aa(lp1285
I2214
aVMichael Bradley
p1286
aI1610612755
aVPHI
p1287
aF27.0
aI46
aI24
aI22
aF0.522
aF8.0
aF0.7
aF1.7
aF0.405
aF0.0
aF0.1
aF0.2
aF0.0
aF0.1
aF0.667
aF0.9
aF1.5
aF2.3
aF0.4
aF0.4
aF0.1
aF0.2
aF0.1
aF0.8
aF0.2
aF1.5
aF-1.2
aI0
aI0
aI5
aV2214,1610612755
p1288
aa(lp1289
I1720
aVMichael Doleac
p1290
aI1610612748
aVMIA
p1291
aF29.0
aI31
aI19
aI12
aF0.613
aF12.0
aF1.2
aF2.8
aF0.42
aF0.0
aF0.0
aF0.0
aF0.8
aF1.0
aF0.8
aF0.7
aF2.0
aF2.7
aF0.3
aF0.5
aF0.3
aF0.2
aF0.2
aF1.5
aF0.8
aF3.2
aF-3.3
aI0
aI0
aI5
aV1720,1610612748
p1292
aa(lp1293
I714
aVMichael Finley
p1294
aI1610612759
aVSAS
p1295
aF33.0
aI77
aI59
aI18
aF0.766
aF26.5
aF3.7
aF9.0
aF0.412
aF1.4
aF3.6
aF0.394
aF1.3
aF1.5
aF0.852
aF0.4
aF2.8
aF3.2
aF1.5
aF0.8
aF0.5
aF0.1
aF0.2
aF1.3
aF1.0
aF10.1
aF3.0
aI1
aI0
aI5
aV714,1610612759
p1296
aa(lp1297
I1709
aVMichael Olowokandi
p1298
aI1610612738
aVBOS
p1299
aF31.0
aI48
aI20
aI28
aF0.417
aF19.1
aF2.2
aF5.0
aF0.446
aF0.0
aF0.0
aF0.0
aF0.5
aF1.0
aF0.511
aF1.0
aF3.5
aF4.6
aF0.5
aF1.1
aF0.5
aF0.7
aF0.3
aF2.5
aF1.2
aF5.0
aF-1.9
aI2
aI0
aI5
aV1709,1610612738
p1300
aa(lp1301
I2072
aVMichael Redd
p1302
aI1610612749
aVMIL
p1303
aF26.0
aI80
aI39
aI41
aF0.488
aF39.1
aF8.5
aF19.0
aF0.45
aF2.0
aF5.2
aF0.395
aF6.3
aF7.1
aF0.877
aF1.0
aF3.3
aF4.3
aF2.9
aF2.1
aF1.2
aF0.1
aF1.1
aF2.0
aF5.4
aF25.4
aF1.0
aI0
aI0
aI5
aV2072,1610612749
p1304
aa(lp1305
I1913
aVMichael Ruffin
p1306
aI1610612764
aVWAS
p1307
aF29.0
aI76
aI39
aI37
aF0.513
aF13.3
aF0.4
aF1.0
aF0.442
aF0.0
aF0.0
aF0.0
aF0.5
aF1.0
aF0.5
aF1.6
aF2.0
aF3.6
aF0.4
aF0.5
aF0.4
aF0.4
aF0.1
aF2.4
aF0.9
aF1.4
aF-0.7
aI0
aI0
aI5
aV1913,1610612764
p1308
aa(lp1309
I2552
aVMichael Sweetney
p1310
aI1610612741
aVCHI
p1311
aF23.0
aI66
aI31
aI35
aF0.47
aF18.5
aF3.0
aF6.7
aF0.45
aF0.0
aF0.0
aF0.0
aF2.0
aF3.1
aF0.652
aF1.8
aF3.5
aF5.3
aF0.9
aF1.4
aF0.3
aF0.8
aF0.7
aF3.2
aF2.6
aF8.1
aF-0.9
aI6
aI0
aI5
aV2552,1610612741
p1312
aa(lp1313
I2554
aVMickael Pietrus
p1314
aI1610612744
aVGSW
p1315
aF24.0
aI52
aI20
aI32
aF0.385
aF22.7
aF3.3
aF8.0
aF0.404
aF1.1
aF3.4
aF0.318
aF1.7
aF2.8
aF0.608
aF1.1
aF2.0
aF3.1
aF0.8
aF1.5
aF0.6
aF0.2
aF0.6
aF2.5
aF2.2
aF9.3
aF-2.5
aI1
aI0
aI5
aV2554,1610612744
p1316
aa(lp1317
I1710
aVMike Bibby
p1318
aI1610612758
aVSAC
p1319
aF28.0
aI82
aI44
aI38
aF0.537
aF38.6
aF7.3
aF16.9
aF0.432
aF2.3
aF6.1
aF0.386
aF4.2
aF4.9
aF0.849
aF0.4
aF2.6
aF2.9
aF5.4
aF2.4
aF1.0
aF0.1
aF0.4
aF2.1
aF4.3
aF21.1
aF1.7
aI8
aI0
aI5
aV1710,1610612758
p1320
aa(lp1321
I2399
aVMike Dunleavy
p1322
aI1610612744
aVGSW
p1323
aF25.0
aI81
aI33
aI48
aF0.407
aF31.8
aF4.1
aF10.1
aF0.406
aF0.9
aF3.2
aF0.285
aF2.4
aF3.1
aF0.778
aF1.0
aF4.0
aF4.9
aF2.9
aF1.5
aF0.7
aF0.4
aF0.3
aF2.5
aF3.3
aF11.5
aF-0.6
aI3
aI0
aI5
aV2399,1610612744
p1324
aa(lp1325
I2229
aVMike James
p1326
aI1610612761
aVTOR
p1327
aF31.0
aI79
aI25
aI54
aF0.316
aF37.0
aF7.3
aF15.5
aF0.469
aF2.1
aF4.8
aF0.442
aF3.6
aF4.3
aF0.837
aF0.6
aF2.7
aF3.3
aF5.8
aF2.6
aF0.9
aF0.0
aF0.9
aF2.7
aF3.7
aF20.3
aF-1.7
aI11
aI0
aI5
aV2229,1610612761
p1328
aa(lp1329
I2034
aVMike Miller
p1330
aI1610612763
aVMEM
p1331
aF26.0
aI74
aI42
aI32
aF0.568
aF30.6
aF4.8
aF10.3
aF0.466
aF1.9
aF4.6
aF0.407
aF2.3
aF2.8
aF0.8
aF0.6
aF4.8
aF5.4
aF2.7
aF1.9
aF0.7
aF0.4
aF0.4
aF2.3
aF2.4
aF13.7
aF1.1
aI6
aI1
aI5
aV2034,1610612763
p1332
aa(lp1333
I2366
aVMike Wilks
p1334
aI1610612760
aVSEA
p1335
aF27.0
aI47
aI21
aI26
aF0.447
aF7.4
aF0.6
aF1.9
aF0.322
aF0.1
aF0.4
aF0.158
aF0.5
aF0.9
aF0.61
aF0.2
aF0.6
aF0.8
aF0.7
aF0.5
aF0.3
aF0.0
aF0.2
aF0.7
aF0.8
aF1.8
aF-0.1
aI0
aI0
aI5
aV2366,1610612760
p1336
aa(lp1337
I1630
aVMikki Moore
p1338
aI1610612760
aVSEA
p1339
aF30.0
aI47
aI18
aI29
aF0.383
aF12.4
aF1.1
aF2.6
aF0.435
aF0.0
aF0.0
aF0.0
aF1.0
aF1.3
aF0.742
aF0.9
aF1.8
aF2.8
aF0.6
aF0.9
aF0.1
aF0.3
aF0.2
aF2.0
aF1.4
aF3.3
aF-0.2
aI0
aI0
aI5
aV1630,1610612760
p1340
aa(lp1341
I1960
aVMilt Palacio
p1342
aI1610612762
aVUTA
p1343
aF28.0
aI71
aI33
aI38
aF0.465
aF19.4
aF2.4
aF5.7
aF0.424
aF0.0
aF0.2
aF0.063
aF1.4
aF2.1
aF0.653
aF0.2
aF1.6
aF1.9
aF2.7
aF1.5
aF0.7
aF0.2
aF0.7
aF1.8
aF1.7
aF6.2
aF-1.3
aI0
aI0
aI5
aV1960,1610612762
p1344
aa(lp1345
I2590
aVMo Williams
p1346
aI1610612749
aVMIL
p1347
aF23.0
aI58
aI27
aI31
aF0.466
aF26.4
aF4.6
aF10.8
aF0.424
aF1.3
aF3.3
aF0.382
aF1.7
aF1.9
aF0.85
aF0.5
aF1.9
aF2.5
aF4.0
aF1.8
aF0.9
aF0.1
aF0.5
aF2.5
aF2.4
aF12.1
aF-1.6
aI1
aI0
aI5
aV2590,1610612749
p1348
aa(lp1349
I101145
aVMonta Ellis
p1350
aI1610612744
aVGSW
p1351
aF20.0
aI49
aI16
aI33
aF0.327
aF18.1
aF2.7
aF6.5
aF0.415
aF0.6
aF1.7
aF0.341
aF0.9
aF1.2
aF0.712
aF0.4
aF1.7
aF2.1
aF1.6
aF1.2
aF0.7
aF0.2
aF0.6
aF1.4
aF1.1
aF6.8
aF0.2
aI0
aI0
aI5
aV101145,1610612744
p1352
aa(lp1353
I983
aVMoochie Norris
p1354
aI1610612740
aVNOK
p1355
aF32.0
aI45
aI14
aI31
aF0.311
aF9.4
aF1.0
aF2.5
aF0.411
aF0.1
aF0.3
aF0.286
aF0.6
aF0.9
aF0.69
aF0.3
aF0.9
aF1.2
aF1.1
aF0.7
aF0.4
aF0.0
aF0.2
aF1.1
aF0.7
aF2.8
aF-1.1
aI0
aI0
aI5
aV983,1610612740
p1356
aa(lp1357
I2050
aVMorris Peterson
p1358
aI1610612761
aVTOR
p1359
aF28.0
aI82
aI27
aI55
aF0.329
aF38.3
aF5.8
aF13.4
aF0.436
aF2.2
aF5.5
aF0.395
aF2.9
aF3.6
aF0.82
aF0.8
aF3.9
aF4.6
aF2.3
aF1.5
aF1.3
aF0.2
aF0.3
aF2.7
aF3.2
aF16.8
aF-2.6
aI3
aI0
aI5
aV2050,1610612761
p1360
aa(lp1361
I101126
aVNate Robinson
p1362
aI1610612752
aVNYK
p1363
aF22.0
aI72
aI21
aI51
aF0.292
aF21.4
aF3.2
aF7.8
aF0.407
aF0.8
aF2.0
aF0.397
aF2.1
aF2.8
aF0.752
aF0.8
aF1.5
aF2.3
aF2.0
aF1.6
aF0.8
aF0.0
aF0.6
aF2.8
aF2.3
aF9.3
aF-1.2
aI0
aI0
aI5
aV101126,1610612752
p1364
aa(lp1365
I1737
aVNazr Mohammed
p1366
aI1610612759
aVSAS
p1367
aF28.0
aI80
aI62
aI18
aF0.775
aF17.4
aF2.4
aF4.7
aF0.504
aF0.0
aF0.0
aF0.0
aF1.4
aF1.8
aF0.785
aF2.0
aF3.2
aF5.2
aF0.5
aF1.1
aF0.3
aF0.6
aF0.7
aF2.8
aF1.5
aF6.2
aF1.7
aI5
aI0
aI5
aV1737,1610612759
p1368
aa(lp1369
I2420
aVNenad Krstic
p1370
aI1610612751
aVNJN
p1371
aF22.0
aI80
aI48
aI32
aF0.6
aF30.9
aF5.6
aF11.0
aF0.507
aF0.0
aF0.1
aF0.25
aF2.3
aF3.3
aF0.698
aF2.3
aF4.1
aF6.4
aF1.1
aF1.7
aF0.4
aF0.8
aF1.1
aF3.7
aF3.4
aF13.5
aF3.4
aI12
aI0
aI5
aV2420,1610612751
p1372
aa(lp1373
I2403
aVNene
p1374
aI1610612743
aVDEN
p1375
aF23.0
aI1
aI0
aI1
aF0.0
aF2.6
aF0.0
aF1.0
aF0.0
aF0.0
aF0.0
aF0.0
aF0.0
aF0.0
aF0.0
aF0.0
aF0.0
aF0.0
aF0.0
aF2.0
aF0.0
aF0.0
aF0.0
aF1.0
aF0.0
aF0.0
aF-6.0
aI0
aI0
aI5
aV2403,1610612743
p1376
aa(lp1377
I2555
aVNick Collison
p1378
aI1610612760
aVSEA
p1379
aF25.0
aI66
aI27
aI39
aF0.409
aF21.9
aF3.1
aF6.0
aF0.525
aF0.0
aF0.0
aF0.0
aF1.2
aF1.7
aF0.699
aF2.2
aF3.4
aF5.6
aF1.1
aF1.2
aF0.3
aF0.5
aF0.5
aF3.2
aF1.7
aF7.5
aF0.5
aI8
aI0
aI5
aV2555,1610612760
p1380
aa(lp1381
I89
aVNick Van Exel
p1382
aI1610612759
aVSAS
p1383
aF34.0
aI65
aI51
aI14
aF0.785
aF15.2
aF2.1
aF5.3
aF0.397
aF0.8
aF2.4
aF0.357
aF0.4
aF0.6
aF0.683
aF0.1
aF1.3
aF1.4
aF1.9
aF0.9
aF0.2
aF0.0
aF0.2
aF0.9
aF0.7
aF5.5
aF0.0
aI0
aI0
aI5
aV89,1610612759
p1384
aa(lp1385
I2401
aVNikoloz Tskitishvili
p1386
aI1610612756
aVPHX
p1387
aF23.0
aI17
aI11
aI6
aF0.647
aF5.8
aF0.8
aF2.2
aF0.351
aF0.1
aF0.2
aF0.333
aF0.5
aF0.8
aF0.643
aF0.5
aF0.8
aF1.3
aF0.2
aF0.4
aF0.1
aF0.1
aF0.1
aF0.5
aF0.6
aF2.1
aF-1.8
aI0
aI0
aI5
aV2401,1610612756
p1388
aa(lp1389
I101230
aVNoel Felix
p1390
aI1610612760
aVSEA
p1391
aF24.0
aI12
aI7
aI5
aF0.583
aF6.8
aF0.5
aF2.1
aF0.24
aF0.1
aF0.3
aF0.333
aF0.4
aF0.7
aF0.625
aF0.3
aF0.8
aF1.1
aF0.2
aF0.7
aF0.2
aF0.3
aF0.3
aF1.1
aF0.4
aF1.5
aF-0.4
aI0
aI0
aI5
aV101230,1610612760
p1392
aa(lp1393
I101158
aVOrien Greene
p1394
aI1610612738
aVBOS
p1395
aF24.0
aI80
aI31
aI49
aF0.388
aF15.4
aF1.3
aF3.2
aF0.395
aF0.1
aF0.5
aF0.225
aF0.6
aF0.9
aF0.662
aF0.5
aF1.4
aF1.8
aF1.6
aF1.4
aF1.0
aF0.1
aF0.2
aF2.3
aF0.7
aF3.2
aF-1.3
aI0
aI0
aI5
aV101158,1610612738
p1396
aa(lp1397
I970
aVOthella Harrington
p1398
aI1610612741
aVCHI
p1399
aF32.0
aI72
aI36
aI36
aF0.5
aF11.4
aF1.9
aF3.8
aF0.495
aF0.0
aF0.0
aF0.0
aF1.1
aF1.7
aF0.628
aF0.8
aF1.4
aF2.1
aF0.5
aF0.8
aF0.1
aF0.2
aF0.2
aF1.8
aF1.8
aF4.8
aF0.2
aI1
aI0
aI5
aV970,1610612741
p1400
aa(lp1401
I136
aVP.J. Brown
p1402
aI1610612740
aVNOK
p1403
aF36.0
aI75
aI33
aI42
aF0.44
aF31.7
aF3.6
aF7.8
aF0.461
aF0.0
aF0.0
aF0.0
aF1.9
aF2.2
aF0.827
aF2.4
aF4.9
aF7.3
aF1.2
aF1.2
aF0.6
aF0.7
aF0.5
aF2.9
aF1.9
aF9.0
aF-2.2
aI9
aI0
aI5
aV136,1610612740
p1404
aa(lp1405
I2776
aVPape Sow
p1406
aI1610612761
aVTOR
p1407
aF24.0
aI42
aI14
aI28
aF0.333
aF14.0
aF1.3
aF2.9
aF0.431
aF0.0
aF0.0
aF0.0
aF1.0
aF1.4
aF0.719
aF1.3
aF2.2
aF3.5
aF0.2
aF0.7
aF0.5
aF0.5
aF0.5
aF2.8
aF1.3
aF3.5
aF-3.3
aI1
aI0
aI5
aV2776,1610612761
p1408
aa(lp1409
I2469
aVPat Burke
p1410
aI1610612756
aVPHX
p1411
aF32.0
aI42
aI28
aI14
aF0.667
aF8.2
aF1.5
aF3.0
aF0.496
aF0.0
aF0.2
aF0.286
aF0.3
aF0.5
aF0.619
aF0.5
aF1.2
aF1.7
aF0.4
aF0.8
aF0.1
aF0.3
aF0.2
aF1.5
aF0.6
aF3.4
aF-1.0
aI0
aI0
aI5
aV2469,1610612756
p1412
aa(lp1413
I1727
aVPat Garrity
p1414
aI1610612753
aVORL
p1415
aF29.0
aI57
aI20
aI37
aF0.351
aF16.5
aF1.8
aF4.2
aF0.417
aF0.9
aF2.3
aF0.388
aF0.5
aF0.6
aF0.811
aF0.5
aF1.4
aF1.9
aF0.7
aF0.7
aF0.2
aF0.2
aF0.1
aF1.9
aF0.6
aF4.9
aF-0.2
aI0
aI0
aI5
aV1727,1610612753
p1416
aa(lp1417
I2200
aVPau Gasol
p1418
aI1610612763
aVMEM
p1419
aF25.0
aI80
aI47
aI33
aF0.588
aF39.2
aF7.5
aF14.9
aF0.503
aF0.0
aF0.2
aF0.25
aF5.3
aF7.7
aF0.689
aF2.4
aF6.5
aF8.9
aF4.6
aF2.9
aF0.6
aF1.9
aF1.4
aF2.3
aF6.8
aF20.4
aF3.8
aI33
aI1
aI5
aV2200,1610612763
p1420
aa(lp1421
I1718
aVPaul Pierce
p1422
aI1610612738
aVBOS
p1423
aF28.0
aI79
aI32
aI47
aF0.405
aF39.0
aF8.7
aF18.5
aF0.471
aF1.4
aF4.0
aF0.354
aF7.9
aF10.3
aF0.772
aF1.0
aF5.7
aF6.7
aF4.7
aF3.5
aF1.4
aF0.4
aF1.1
aF2.8
aF7.8
aF26.8
aF-0.7
aI17
aI1
aI5
aV1718,1610612738
p1424
aa(lp1425
I2750
aVPavel Podkolzin
p1426
aI1610612742
aVDAL
p1427
aF21.0
aI1
aI0
aI1
aF0.0
aF18.1
aF0.0
aF2.0
aF0.0
aF0.0
aF0.0
aF0.0
aF3.0
aF6.0
aF0.5
aF0.0
aF7.0
aF7.0
aF0.0
aF2.0
aF0.0
aF1.0
aF1.0
aF0.0
aF3.0
aF3.0
aF2.0
aI0
aI0
aI5
aV2750,1610612742
p1428
aa(lp1429
I978
aVPeja Stojakovic
p1430
aI1610612754
aVIND
p1431
aF29.0
aI71
aI31
aI40
aF0.437
aF36.6
aF6.3
aF14.3
aF0.437
aF2.3
aF5.7
aF0.401
aF3.4
aF3.7
aF0.915
aF1.1
aF4.7
aF5.8
aF1.9
aF1.5
aF0.6
aF0.1
aF0.5
aF2.4
aF2.7
aF18.2
aF1.1
aI5
aI0
aI5
aV978,1610612754
p1432
aa(lp1433
I2056
aVPrimoz Brezec
p1434
aI1610612766
aVCHA
p1435
aF26.0
aI79
aI25
aI54
aF0.316
aF27.4
aF5.2
aF10.0
aF0.517
aF0.0
aF0.0
aF0.0
aF2.1
aF2.8
aF0.732
aF2.3
aF3.3
aF5.6
aF0.6
aF1.1
aF0.2
aF0.4
aF0.6
aF2.9
aF2.6
aF12.4
aF-4.2
aI7
aI0
aI5
aV2056,1610612766
p1436
aa(lp1437
I2047
aVQuentin Richardson
p1438
aI1610612752
aVNYK
p1439
aF26.0
aI55
aI11
aI44
aF0.2
aF26.2
aF3.0
aF8.3
aF0.355
aF1.2
aF3.4
aF0.34
aF1.1
aF1.7
aF0.67
aF1.2
aF3.0
aF4.2
aF1.6
aF1.0
aF0.7
aF0.1
aF0.6
aF2.4
aF1.4
aF8.2
aF-4.9
aI0
aI0
aI5
aV2047,1610612752
p1440
aa(lp1441
I2624
aVQuinton Ross
p1442
aI1610612746
aVLAC
p1443
aF25.0
aI67
aI39
aI28
aF0.582
aF22.6
aF1.9
aF4.6
aF0.422
aF0.0
aF0.1
aF0.0
aF0.9
aF1.1
aF0.76
aF0.6
aF2.0
aF2.5
aF1.2
aF0.7
aF0.8
aF0.2
aF0.4
aF2.3
aF1.1
aF4.7
aF1.7
aI0
aI0
aI5
aV2624,1610612746
p1444
aa(lp1445
I2417
aVQyntel Woods
p1446
aI1610612752
aVNYK
p1447
aF25.0
aI49
aI14
aI35
aF0.286
aF20.7
aF2.6
aF5.2
aF0.508
aF0.4
aF1.2
aF0.367
aF1.0
aF1.6
aF0.645
aF0.9
aF3.0
aF3.9
aF1.0
aF1.2
aF0.7
aF0.3
aF0.3
aF2.0
aF1.3
aF6.7
aF-1.8
aI2
aI0
aI5
aV2417,1610612752
p1448
aa(lp1449
I1711
aVRaef LaFrentz
p1450
aI1610612738
aVBOS
p1451
aF30.0
aI82
aI33
aI49
aF0.402
aF24.8
aF2.9
aF6.7
aF0.431
aF1.4
aF3.5
aF0.392
aF0.6
aF0.9
aF0.68
aF1.0
aF4.0
aF5.0
aF1.4
aF0.8
aF0.4
aF0.9
aF0.3
aF3.3
aF0.9
aF7.8
aF-0.2
aI3
aI0
aI5
aV1711,1610612738
p1452
aa(lp1453
I2737
aVRafael Araujo
p1454
aI1610612761
aVTOR
p1455
aF25.0
aI52
aI17
aI35
aF0.327
aF11.6
aF1.0
aF2.8
aF0.366
aF0.0
aF0.0
aF0.0
aF0.3
aF0.5
aF0.536
aF0.8
aF1.9
aF2.8
aF0.3
aF0.8
aF0.5
aF0.1
aF0.3
aF2.0
aF0.7
aF2.3
aF-2.2
aI0
aI0
aI5
aV2737,1610612761
p1456
aa(lp1457
I1747
aVRafer Alston
p1458
aI1610612745
aVHOU
p1459
aF29.0
aI63
aI27
aI36
aF0.429
aF38.6
aF4.4
aF11.7
aF0.379
aF1.6
aF5.0
aF0.327
aF1.6
aF2.3
aF0.692
aF0.6
aF3.5
aF4.0
aF6.7
aF2.5
aF1.6
aF0.2
aF0.3
aF3.1
aF2.1
aF12.1
aF-1.3
aI6
aI0
aI5
aV1747,1610612745
p1460
aa(lp1461
I1952
aVRaja Bell
p1462
aI1610612756
aVPHX
p1463
aF29.0
aI79
aI54
aI25
aF0.684
aF37.5
aF5.4
aF11.8
aF0.457
aF2.5
aF5.6
aF0.442
aF1.5
aF1.8
aF0.788
aF0.6
aF2.6
aF3.2
aF2.6
aF1.1
aF1.0
aF0.3
aF0.3
aF3.1
aF2.9
aF14.7
aF4.7
aI1
aI0
aI5
aV1952,1610612756
p1464
aa(lp1465
I2450
aVRandy Holcomb
p1466
aI1610612741
aVCHI
p1467
aF26.0
aI4
aI3
aI1
aF0.75
aF2.6
aF0.3
aF0.3
aF1.0
aF0.0
aF0.0
aF0.0
aF0.0
aF0.0
aF0.0
aF0.3
aF0.0
aF0.3
aF0.0
aF0.0
aF0.0
aF0.0
aF0.0
aF0.5
aF0.0
aF0.5
aF-0.3
aI0
aI0
aI5
aV2450,1610612741
p1468
aa(lp1469
I988
aVRandy Livingston
p1470
aI1610612741
aVCHI
p1471
aF31.0
aI5
aI3
aI2
aF0.6
aF4.5
aF0.0
aF0.4
aF0.0
aF0.0
aF0.0
aF0.0
aF0.0
aF0.0
aF0.0
aF0.2
aF0.6
aF0.8
aF0.2
aF0.2
aF0.2
aF0.0
aF0.4
aF1.2
aF0.0
aF0.0
aF1.8
aI0
aI0
aI5
aV988,1610612741
p1472
aa(lp1473
I101119
aVRashad McCants
p1474
aI1610612750
aVMIN
p1475
aF21.0
aI79
aI31
aI48
aF0.392
aF17.2
aF3.1
aF6.8
aF0.45
aF0.8
aF2.3
aF0.372
aF1.0
aF1.3
aF0.736
aF0.4
aF1.4
aF1.8
aF0.8
aF1.1
aF0.6
aF0.3
aF0.3
aF2.2
aF1.2
aF7.9
aF-1.4
aI0
aI0
aI5
aV101119,1610612750
p1476
aa(lp1477
I1740
aVRashard Lewis
p1478
aI1610612760
aVSEA
p1479
aF26.0
aI78
aI33
aI45
aF0.423
aF36.9
aF6.9
aF14.8
aF0.467
aF1.8
aF4.7
aF0.384
aF4.5
aF5.5
aF0.818
aF1.4
aF3.6
aF5.0
aF2.3
aF1.8
aF1.3
aF0.6
aF0.7
aF2.4
aF4.4
aF20.1
aF-2.6
aI5
aI0
aI5
aV1740,1610612760
p1480
aa(lp1481
I739
aVRasheed Wallace
p1482
aI1610612765
aVDET
p1483
aF31.0
aI80
aI63
aI17
aF0.788
aF34.7
aF5.7
aF13.3
aF0.43
aF1.9
aF5.4
aF0.357
aF1.7
aF2.3
aF0.743
aF1.1
aF5.7
aF6.8
aF2.3
aF1.1
aF1.0
aF1.6
aF0.2
aF2.9
aF2.3
aF15.1
aF7.7
aI12
aI0
aI5
aV739,1610612765
p1484
aa(lp1485
I1725
aVRasho Nesterovic
p1486
aI1610612759
aVSAS
p1487
aF30.0
aI80
aI61
aI19
aF0.763
aF18.9
aF2.2
aF4.2
aF0.515
aF0.0
aF0.0
aF0.0
aF0.2
aF0.4
aF0.6
aF1.4
aF2.4
aF3.9
aF0.4
aF0.7
aF0.3
aF1.1
aF0.2
aF2.6
aF0.6
aF4.5
aF3.1
aI1
aI0
aI5
aV1725,1610612759
p1488
aa(lp1489
I2446
aVRasual Butler
p1490
aI1610612740
aVNOK
p1491
aF27.0
aI79
aI36
aI43
aF0.456
aF23.7
aF3.3
aF8.0
aF0.406
aF1.2
aF3.1
aF0.38
aF1.0
aF1.4
aF0.693
aF0.6
aF2.3
aF2.9
aF0.5
aF0.8
aF0.4
aF0.6
aF0.3
aF1.8
aF1.0
aF8.7
aF-0.8
aI1
aI0
aI5
aV2446,1610612740
p1492
aa(lp1493
I101185
aVRawle Marshall
p1494
aI1610612742
aVDAL
p1495
aF24.0
aI23
aI13
aI10
aF0.565
aF10.5
aF1.0
aF2.6
aF0.4
aF0.0
aF0.1
aF0.333
aF1.0
aF1.3
aF0.759
aF0.3
aF1.0
aF1.3
aF0.4
aF0.7
aF0.3
aF0.3
aF0.3
aF0.7
aF0.9
aF3.1
aF-0.8
aI0
aI0
aI5
aV101185,1610612742
p1496
aa(lp1497
I951
aVRay Allen
p1498
aI1610612760
aVSEA
p1499
aF30.0
aI78
aI35
aI43
aF0.449
aF38.7
aF8.7
aF19.2
aF0.454
aF3.4
aF8.4
aF0.412
aF4.2
aF4.6
aF0.903
aF0.9
aF3.3
aF4.3
aF3.7
aF2.4
aF1.3
aF0.2
aF0.6
aF1.9
aF3.9
aF25.1
aF-0.7
aI1
aI0
aI5
aV951,1610612760
p1500
aa(lp1501
I101109
aVRaymond Felton
p1502
aI1610612766
aVCHA
p1503
aF22.0
aI80
aI26
aI54
aF0.325
aF30.1
aF4.3
aF11.0
aF0.391
aF1.2
aF3.4
aF0.358
aF2.0
aF2.8
aF0.725
aF1.0
aF2.4
aF3.3
aF5.6
aF2.3
aF1.3
aF0.1
aF0.7
aF2.3
aF2.9
aF11.9
aF-1.5
aI13
aI0
aI5
aV101109,1610612766
p1504
aa(lp1505
I2558
aVReece Gaines
p1506
aI1610612749
aVMIL
p1507
aF25.0
aI12
aI5
aI7
aF0.417
aF4.5
aF0.5
aF1.0
aF0.5
aF0.0
aF0.2
aF0.0
aF0.1
aF0.3
aF0.25
aF0.0
aF0.0
aF0.0
aF0.3
aF0.1
aF0.1
aF0.0
aF0.0
aF0.1
aF0.3
aF1.1
aF-2.0
aI0
aI0
aI5
aV2558,1610612749
p1508
aa(lp1509
I2501
aVReggie Evans
p1510
aI1610612743
aVDEN
p1511
aF26.0
aI67
aI26
aI41
aF0.388
aF20.8
aF2.0
aF4.0
aF0.489
aF0.0
aF0.0
aF0.0
aF1.7
aF3.2
aF0.53
aF2.6
aF4.9
aF7.5
aF0.6
aF1.3
aF0.6
aF0.1
aF0.6
aF2.5
aF3.1
aF5.6
aF-3.1
aI6
aI0
aI5
aV2501,1610612743
p1512
aa(lp1513
I1888
aVRichard Hamilton
p1514
aI1610612765
aVDET
p1515
aF28.0
aI80
aI64
aI16
aF0.8
aF35.3
aF8.1
aF16.5
aF0.491
aF0.7
aF1.5
aF0.458
aF3.2
aF3.8
aF0.845
aF1.1
aF2.2
aF3.2
aF3.4
aF2.2
aF0.7
aF0.2
aF0.9
aF2.6
aF3.2
aF20.1
aF6.5
aI0
aI0
aI5
aV1888,1610612765
p1516
aa(lp1517
I2210
aVRichard Jefferson
p1518
aI1610612751
aVNJN
p1519
aF26.0
aI78
aI49
aI29
aF0.628
aF39.2
aF6.3
aF12.9
aF0.493
aF0.8
aF2.4
aF0.319
aF6.0
aF7.4
aF0.812
aF1.2
aF5.6
aF6.8
aF3.8
aF2.2
aF0.8
aF0.2
aF0.8
aF2.5
aF5.7
aF19.5
aF3.1
aI20
aI0
aI5
aV2210,1610612751
p1520
aa(lp1521
I2499
aVRichie Frahm
p1522
aI1610612745
aVHOU
p1523
aF28.0
aI33
aI13
aI20
aF0.394
aF10.4
aF1.2
aF3.0
aF0.39
aF0.7
aF2.1
aF0.329
aF0.2
aF0.3
aF0.7
aF0.1
aF0.9
aF1.0
aF0.6
aF0.2
aF0.1
aF0.1
aF0.1
aF0.9
aF0.2
aF3.3
aF0.1
aI0
aI0
aI5
aV2499,1610612745
p1524
aa(lp1525
I1594
aVRick Brunson
p1526
aI1610612745
aVHOU
p1527
aF34.0
aI27
aI9
aI18
aF0.333
aF9.1
aF0.8
aF2.0
aF0.389
aF0.2
aF0.5
aF0.385
aF0.3
aF0.4
aF0.583
aF0.0
aF0.8
aF0.8
aF1.3
aF0.8
aF0.3
aF0.0
aF0.1
aF0.8
aF0.3
aF2.0
aF-1.3
aI0
aI0
aI5
aV1594,1610612745
p1528
aa(lp1529
I1729
aVRicky Davis
p1530
aI1610612750
aVMIN
p1531
aF26.0
aI78
aI29
aI49
aF0.372
aF41.1
aF7.5
aF16.7
aF0.448
aF0.9
aF3.1
aF0.302
aF3.5
aF4.4
aF0.797
aF0.8
aF3.7
aF4.5
aF5.1
aF2.7
aF1.2
aF0.2
aF0.9
aF2.4
aF3.8
aF19.4
aF-0.9
aI3
aI0
aI5
aV1729,1610612750
p1532
aa(lp1533
I109
aVRobert Horry
p1534
aI1610612759
aVSAS
p1535
aF35.0
aI63
aI48
aI15
aF0.762
aF18.8
aF1.8
aF4.6
aF0.384
aF0.8
aF2.3
aF0.368
aF0.7
aF1.1
aF0.647
aF1.1
aF2.7
aF3.8
aF1.3
aF0.7
aF0.7
aF0.8
aF0.1
aF1.8
aF1.2
aF5.1
aF3.7
aI1
aI0
aI5
aV109,1610612759
p1536
aa(lp1537
I2741
aVRobert Swift
p1538
aI1610612760
aVSEA
p1539
aF20.0
aI47
aI20
aI27
aF0.426
aF21.0
aF2.6
aF5.1
aF0.515
aF0.0
aF0.0
aF0.0
aF1.1
aF1.9
aF0.582
aF2.0
aF3.6
aF5.6
aF0.2
aF1.0
aF0.3
aF1.2
aF0.5
aF3.0
aF1.9
aF6.4
aF-1.5
aI2
aI0
aI5
aV2741,1610612760
p1540
aa(lp1541
I101156
aVRobert Whaley
p1542
aI1610612762
aVUTA
p1543
aF24.0
aI23
aI10
aI13
aF0.435
aF9.2
aF1.0
aF2.5
aF0.404
aF0.0
aF0.0
aF0.0
aF0.1
aF0.3
aF0.5
aF0.7
aF1.2
aF1.9
aF0.7
aF0.6
aF0.3
aF0.3
aF0.3
aF1.8
aF0.3
aF2.1
aF-1.9
aI0
aI0
aI5
aV101156,1610612762
p1544
aa(lp1545
I2648
aVRonald Dupree
p1546
aI1610612750
aVMIN
p1547
aF25.0
aI36
aI14
aI22
aF0.389
aF7.4
aF0.9
aF1.8
aF0.524
aF0.0
aF0.0
aF0.0
aF0.4
aF1.1
aF0.341
aF0.6
aF0.8
aF1.4
aF0.4
aF0.4
aF0.3
aF0.0
aF0.3
aF1.2
aF0.8
aF2.2
aF-1.9
aI0
aI0
aI5
aV2648,1610612750
p1548
aa(lp1549
I2436
aVRonald Murray
p1550
aI1610612739
aVCLE
p1551
aF26.0
aI76
aI35
aI41
aF0.461
aF27.8
aF4.2
aF10.1
aF0.418
aF0.5
aF1.9
aF0.262
aF2.3
aF3.2
aF0.711
aF0.4
aF1.6
aF2.0
aF2.6
aF1.8
aF0.9
aF0.1
aF0.8
aF1.8
aF2.5
aF11.2
aF-0.9
aI0
aI0
aI5
aV2436,1610612739
p1552
aa(lp1553
I101179
aVRonnie Price
p1554
aI1610612758
aVSAC
p1555
aF23.0
aI29
aI15
aI14
aF0.517
aF5.2
aF0.7
aF2.0
aF0.362
aF0.2
aF0.9
aF0.222
aF0.4
aF0.4
aF1.0
aF0.2
aF0.3
aF0.5
aF0.4
aF0.3
aF0.2
aF0.0
aF0.1
aF0.3
aF0.3
aF2.1
aF-1.1
aI0
aI0
aI5
aV101179,1610612758
p1556
aa(lp1557
I101142
aVRonny Turiaf
p1558
aI1610612747
aVLAL
p1559
aF23.0
aI23
aI14
aI9
aF0.609
aF7.0
aF0.7
aF1.3
aF0.5
aF0.0
aF0.0
aF0.0
aF0.7
aF1.2
aF0.556
aF0.5
aF1.1
aF1.6
aF0.3
aF0.3
aF0.1
aF0.4
aF0.2
aF1.3
aF0.9
aF2.0
aF-0.6
aI0
aI0
aI5
aV101142,1610612747
p1560
aa(lp1561
I2767
aVRoyal Ivey
p1562
aI1610612737
aVATL
p1563
aF24.0
aI73
aI24
aI49
aF0.329
aF13.4
aF1.6
aF3.6
aF0.439
aF0.1
aF0.1
aF0.4
aF0.3
aF0.5
aF0.727
aF0.4
aF0.9
aF1.3
aF1.0
aF0.3
aF0.3
aF0.1
aF0.1
aF2.0
aF0.8
aF3.6
aF-1.8
aI0
aI0
aI5
aV2767,1610612737
p1564
aa(lp1565
I1739
aVRuben Patterson
p1566
aI1610612743
aVDEN
p1567
aF30.0
aI71
aI29
aI42
aF0.408
aF25.2
aF4.6
aF8.9
aF0.515
aF0.0
aF0.2
aF0.077
aF2.9
aF4.8
aF0.601
aF1.7
aF1.8
aF3.4
aF1.8
aF2.1
aF1.1
aF0.3
aF1.2
aF2.1
aF3.5
aF12.1
aF-2.9
aI0
aI0
aI5
aV1739,1610612743
p1568
aa(lp1569
I1763
aVRyan Bowen
p1570
aI1610612745
aVHOU
p1571
aF30.0
aI68
aI28
aI40
aF0.412
aF9.6
aF0.5
aF1.8
aF0.298
aF0.0
aF0.3
aF0.136
aF0.2
aF0.2
aF0.786
aF0.5
aF0.8
aF1.3
aF0.4
aF0.2
aF0.3
aF0.1
aF0.1
aF1.3
aF0.3
aF1.3
aF-1.6
aI0
aI0
aI5
aV1763,1610612745
p1572
aa(lp1573
I101155
aVRyan Gomes
p1574
aI1610612738
aVBOS
p1575
aF23.0
aI61
aI26
aI35
aF0.426
aF22.6
aF2.8
aF5.8
aF0.487
aF0.0
aF0.1
aF0.333
aF1.8
aF2.4
aF0.752
aF1.7
aF3.2
aF4.9
aF1.0
aF0.9
aF0.6
aF0.1
aF0.5
aF1.4
aF1.8
aF7.6
aF0.0
aI8
aI0
aI5
aV101155,1610612738
p1576
aa(lp1577
I101136
aVSalim Stoudamire
p1578
aI1610612737
aVATL
p1579
aF23.0
aI61
aI20
aI41
aF0.328
aF20.3
aF3.3
aF8.1
aF0.415
aF1.3
aF3.5
aF0.38
aF1.6
aF1.8
aF0.9
aF0.2
aF1.7
aF1.9
aF1.2
aF1.3
aF0.4
aF0.0
aF0.3
aF1.9
aF1.8
aF9.7
aF-1.6
aI0
aI0
aI5
aV101136,1610612737
p1580
aa(lp1581
I208
aVSam Cassell
p1582
aI1610612746
aVLAC
p1583
aF36.0
aI78
aI45
aI33
aF0.577
aF34.0
aF6.3
aF14.3
aF0.443
aF0.9
aF2.4
aF0.368
aF3.7
aF4.3
aF0.863
aF0.5
aF3.2
aF3.7
aF6.3
aF2.2
aF0.9
aF0.1
aF0.4
aF2.9
aF3.3
aF17.2
aF2.9
aI12
aI0
aI5
aV208,1610612746
p1584
aa(lp1585
I955
aVSamaki Walker
p1586
aI1610612754
aVIND
p1587
aF30.0
aI7
aI6
aI1
aF0.857
aF3.1
aF0.0
aF0.3
aF0.0
aF0.0
aF0.0
aF0.0
aF0.3
aF0.3
aF1.0
aF0.0
aF0.4
aF0.4
aF0.0
aF0.3
aF0.0
aF0.1
aF0.1
aF1.0
aF0.1
aF0.3
aF-1.6
aI0
aI0
aI5
aV955,1610612754
p1588
aa(lp1589
I2223
aVSamuel Dalembert
p1590
aI1610612755
aVPHI
p1591
aF26.0
aI66
aI29
aI37
aF0.439
aF26.7
aF3.0
aF5.6
aF0.531
aF0.0
aF0.0
aF0.0
aF1.4
aF2.0
aF0.705
aF2.4
aF5.8
aF8.2
aF0.4
aF1.6
aF0.5
aF2.4
aF0.4
aF3.7
aF1.7
aF7.3
aF-1.5
aI10
aI0
aI5
aV2223,1610612755
p1592
aa(lp1593
I101180
aVSarunas Jasikevicius
p1594
aI1610612754
aVIND
p1595
aF30.0
aI75
aI37
aI38
aF0.493
aF20.8
aF2.3
aF5.7
aF0.396
aF1.1
aF3.1
aF0.364
aF1.6
aF1.8
aF0.91
aF0.3
aF1.8
aF2.0
aF3.0
aF1.5
aF0.5
aF0.1
aF0.2
aF1.4
aF1.2
aF7.3
aF0.7
aI1
aI0
aI5
aV101180,1610612754
p1596
aa(lp1597
I2562
aVSasha Pavlovic
p1598
aI1610612739
aVCLE
p1599
aF22.0
aI53
aI32
aI21
aF0.604
aF15.3
aF1.6
aF4.0
aF0.41
aF0.7
aF1.8
aF0.365
aF0.6
aF0.9
aF0.653
aF0.3
aF1.2
aF1.5
aF0.5
aF0.8
aF0.4
aF0.1
aF0.2
aF1.9
aF0.7
aF4.5
aF0.3
aI0
aI0
aI5
aV2562,1610612739
p1600
aa(lp1601
I2756
aVSasha Vujacic
p1602
aI1610612747
aVLAL
p1603
aF22.0
aI82
aI45
aI37
aF0.549
aF17.7
aF1.3
aF3.8
aF0.346
aF0.7
aF2.1
aF0.343
aF0.6
aF0.6
aF0.885
aF0.4
aF1.5
aF1.9
aF1.7
aF0.6
aF0.6
aF0.0
aF0.2
aF1.8
aF0.9
aF3.9
aF0.6
aI0
aI0
aI5
aV2756,1610612747
p1604
aa(lp1605
I1513
aVScot Pollard
p1606
aI1610612754
aVIND
p1607
aF31.0
aI45
aI23
aI22
aF0.511
aF17.1
aF1.6
aF3.4
aF0.455
aF0.0
aF0.0
aF0.0
aF0.6
aF0.8
aF0.763
aF1.6
aF3.2
aF4.8
aF0.5
aF0.6
aF0.8
aF0.4
aF0.3
aF2.6
aF1.1
aF3.8
aF1.1
aI0
aI0
aI5
aV1513,1610612754
p1608
aa(lp1609
I1909
aVScott Padgett
p1610
aI1610612751
aVNJN
p1611
aF30.0
aI62
aI37
aI25
aF0.597
aF11.6
aF1.1
aF3.2
aF0.353
aF0.7
aF2.0
aF0.347
aF0.4
aF0.5
aF0.794
aF0.9
aF1.8
aF2.7
aF0.7
aF0.3
aF0.5
aF0.2
aF0.2
aF1.5
aF0.5
aF3.4
aF-1.7
aI1
aI0
aI5
aV1909,1610612751
p1612
aa(lp1613
I1752
aVSean Marks
p1614
aI1610612759
aVSAS
p1615
aF30.0
aI25
aI19
aI6
aF0.76
aF7.2
aF1.5
aF2.8
aF0.521
aF0.0
aF0.1
aF0.0
aF0.3
aF0.5
aF0.583
aF0.5
aF1.2
aF1.7
aF0.3
aF0.3
aF0.2
aF0.3
aF0.1
aF0.8
aF0.3
aF3.2
aF-1.4
aI0
aI0
aI5
aV1752,1610612759
p1616
aa(lp1617
I101118
aVSean May
p1618
aI1610612766
aVCHA
p1619
aF22.0
aI23
aI7
aI16
aF0.304
aF17.3
aF3.0
aF7.4
aF0.409
aF0.0
aF0.2
aF0.0
aF2.1
aF2.8
aF0.766
aF1.8
aF2.9
aF4.7
aF1.0
aF1.4
aF0.7
aF0.5
aF0.7
aF2.5
aF2.0
aF8.2
aF-1.0
aI1
aI0
aI5
aV101118,1610612766
p1620
aa(lp1621
I2742
aVSebastian Telfair
p1622
aI1610612757
aVPOR
p1623
aF21.0
aI68
aI17
aI51
aF0.25
aF24.1
aF3.4
aF8.5
aF0.394
aF0.8
aF2.4
aF0.352
aF1.9
aF2.6
aF0.743
aF0.3
aF1.5
aF1.8
aF3.6
aF1.7
aF1.0
aF0.1
aF0.6
aF2.5
aF2.2
aF9.5
aF-4.8
aI0
aI0
aI5
aV2742,1610612757
p1624
aa(lp1625
I2752
aVSergei Monia
p1626
aI1610612758
aVSAC
p1627
aF23.0
aI26
aI9
aI17
aF0.346
aF13.2
aF1.1
aF3.3
aF0.333
aF0.3
aF1.3
aF0.265
aF0.4
aF0.5
aF0.714
aF0.4
aF1.6
aF2.0
aF0.7
aF0.5
aF0.3
aF0.2
aF0.3
aF1.6
aF0.4
aF3.0
aF-5.5
aI0
aI0
aI5
aV2752,1610612758
p1628
aa(lp1629
I1000
aVShandon Anderson
p1630
aI1610612748
aVMIA
p1631
aF32.0
aI48
aI31
aI17
aF0.646
aF13.3
aF1.1
aF2.6
aF0.429
aF0.1
aF0.4
aF0.263
aF0.3
aF0.4
aF0.722
aF0.4
aF1.3
aF1.7
aF0.6
aF0.5
aF0.4
aF0.1
aF0.1
aF1.6
aF0.4
aF2.6
aF-0.1
aI0
aI0
aI5
aV1000,1610612748
p1632
aa(lp1633
I2203
aVShane Battier
p1634
aI1610612763
aVMEM
p1635
aF27.0
aI81
aI49
aI32
aF0.605
aF35.1
aF3.7
aF7.7
aF0.488
aF0.8
aF2.0
aF0.394
aF1.8
aF2.6
aF0.707
aF2.0
aF3.3
aF5.3
aF1.7
aF1.1
aF1.1
aF1.4
aF0.6
aF2.8
aF2.8
aF10.1
aF4.4
aI4
aI0
aI5
aV2203,1610612763
p1636
aa(lp1637
I406
aVShaquille O'Neal
p1638
aI1610612748
aVMIA
p1639
aF34.0
aI59
aI42
aI17
aF0.712
aF30.6
aF8.1
aF13.6
aF0.6
aF0.0
aF0.0
aF0.0
aF3.7
aF8.0
aF0.469
aF2.9
aF6.3
aF9.2
aF1.9
aF2.8
aF0.4
aF1.8
aF0.6
aF3.9
aF7.1
aF20.0
aF4.6
aI24
aI1
aI5
aV406,1610612748
p1640
aa(lp1641
I949
aVShareef Abdur-Rahim
p1642
aI1610612758
aVSAC
p1643
aF29.0
aI72
aI38
aI34
aF0.528
aF27.2
aF4.6
aF8.8
aF0.525
aF0.1
aF0.3
aF0.227
aF3.0
aF3.9
aF0.784
aF1.5
aF3.5
aF5.0
aF2.1
aF1.5
aF0.7
aF0.6
aF0.9
aF3.2
aF2.9
aF12.3
aF2.3
aI3
aI0
aI5
aV949,1610612758
p1644
aa(lp1645
I101213
aVSharrod Ford
p1646
aI1610612756
aVPHX
p1647
aF24.0
aI3
aI3
aI0
aF1.0
aF4.3
aF0.7
aF1.0
aF0.667
aF0.0
aF0.0
aF0.0
aF0.0
aF0.0
aF0.0
aF0.3
aF0.7
aF1.0
aF0.0
aF0.7
aF0.0
aF0.3
aF0.3
aF2.3
aF0.7
aF1.3
aF-3.7
aI0
aI0
aI5
aV101213,1610612756
p1648
aa(lp1649
I2733
aVShaun Livingston
p1650
aI1610612746
aVLAC
p1651
aF20.0
aI61
aI33
aI28
aF0.541
aF25.0
aF2.4
aF5.7
aF0.427
aF0.0
aF0.1
aF0.125
aF0.9
aF1.3
aF0.688
aF0.7
aF2.3
aF3.0
aF4.5
aF1.8
aF0.8
aF0.5
aF0.3
aF2.6
aF1.5
aF5.8
aF-1.1
aI1
aI0
aI5
aV2733,1610612746
p1652
aa(lp1653
I101183
aVShavlik Randolph
p1654
aI1610612755
aVPHI
p1655
aF22.0
aI57
aI23
aI34
aF0.404
aF8.5
aF0.8
aF1.7
aF0.454
aF0.0
aF0.0
aF0.0
aF0.8
aF1.2
aF0.606
aF1.0
aF1.4
aF2.3
aF0.3
aF0.4
aF0.3
aF0.2
aF0.2
aF1.5
aF1.0
aF2.3
aF0.4
aI0
aI0
aI5
aV101183,1610612755
p1656
aa(lp1657
I1890
aVShawn Marion
p1658
aI1610612756
aVPHX
p1659
aF28.0
aI81
aI53
aI28
aF0.654
aF40.3
aF8.8
aF16.9
aF0.525
aF1.2
aF3.6
aF0.331
aF3.0
aF3.7
aF0.809
aF3.1
aF8.8
aF11.8
aF1.8
aF1.5
aF2.0
aF1.7
aF0.7
aF2.8
aF3.0
aF21.8
aF5.1
aI60
aI0
aI5
aV1890,1610612756
p1660
aa(lp1661
I2098
aVSlava Medvedenko
p1662
aI1610612747
aVLAL
p1663
aF27.0
aI2
aI0
aI2
aF0.0
aF3.1
aF0.5
aF1.0
aF0.5
aF0.0
aF0.0
aF0.0
aF0.0
aF0.0
aF0.0
aF0.0
aF0.0
aF0.0
aF0.5
aF0.0
aF0.0
aF0.0
aF0.0
aF0.5
aF0.0
aF1.0
aF7.0
aI0
aI0
aI5
aV2098,1610612747
p1664
aa(lp1665
I2470
aVSmush Parker
p1666
aI1610612747
aVLAL
p1667
aF25.0
aI82
aI45
aI37
aF0.549
aF33.8
aF4.2
aF9.5
aF0.447
aF1.5
aF4.0
aF0.366
aF1.5
aF2.2
aF0.694
aF0.5
aF2.9
aF3.3
aF3.7
aF1.8
aF1.7
aF0.2
aF0.4
aF2.6
aF2.1
aF11.5
aF2.6
aI2
aI0
aI5
aV2470,1610612747
p1668
aa(lp1669
I2049
aVSpeedy Claxton
p1670
aI1610612740
aVNOK
p1671
aF28.0
aI71
aI33
aI38
aF0.465
aF28.4
aF4.3
aF10.4
aF0.413
aF0.2
aF0.9
aF0.27
aF3.5
aF4.5
aF0.769
aF0.5
aF2.2
aF2.7
aF4.8
aF2.2
aF1.5
aF0.1
aF0.8
aF2.5
aF4.4
aF12.3
aF0.6
aI4
aI0
aI5
aV2049,1610612740
p1672
aa(lp1673
I278
aVStacey Augmon
p1674
aI1610612753
aVORL
p1675
aF37.0
aI36
aI12
aI24
aF0.333
aF10.7
aF0.7
aF2.0
aF0.342
aF0.0
aF0.0
aF0.0
aF0.6
aF0.8
aF0.7
aF0.5
aF1.0
aF1.5
aF0.6
aF0.3
aF0.3
aF0.2
aF0.2
aF1.1
aF0.8
aF2.0
aF1.1
aI0
aI0
aI5
aV278,1610612753
p1676
aa(lp1677
I101211
aVStephen Graham
p1678
aI1610612739
aVCLE
p1679
aF24.0
aI22
aI10
aI12
aF0.455
aF7.9
aF1.0
aF2.5
aF0.389
aF0.1
aF0.5
aF0.2
aF0.6
aF0.7
aF0.933
aF0.2
aF1.0
aF1.2
aF0.3
aF0.6
aF0.2
aF0.1
aF0.2
aF1.4
aF0.5
aF2.6
aF0.5
aI0
aI0
aI5
aV101211,1610612739
p1680
aa(lp1681
I1536
aVStephen Jackson
p1682
aI1610612754
aVIND
p1683
aF28.0
aI81
aI41
aI40
aF0.506
aF35.9
aF5.8
aF14.2
aF0.411
aF1.4
aF4.2
aF0.345
aF3.3
aF4.2
aF0.786
aF0.6
aF3.3
aF3.9
aF2.8
aF2.5
aF1.3
aF0.5
aF0.9
aF2.4
aF3.2
aF16.4
aF0.4
aI0
aI0
aI5
aV1536,1610612754
p1684
aa(lp1685
I950
aVStephon Marbury
p1686
aI1610612752
aVNYK
p1687
aF29.0
aI60
aI18
aI42
aF0.3
aF36.6
aF5.8
aF12.9
aF0.451
aF0.6
aF1.7
aF0.317
aF4.1
aF5.4
aF0.755
aF0.4
aF2.5
aF2.9
aF6.4
aF2.6
aF1.1
aF0.1
aF0.9
aF2.4
aF4.3
aF16.3
aF-4.4
aI7
aI0
aI5
aV950,1610612752
p1688
aa(lp1689
I2581
aVSteve Blake
p1690
aI1610612757
aVPOR
p1691
aF26.0
aI68
aI16
aI52
aF0.235
aF26.2
aF3.0
aF6.9
aF0.438
aF1.1
aF2.7
aF0.413
aF1.1
aF1.3
aF0.791
aF0.4
aF1.8
aF2.1
aF4.5
aF1.2
aF0.6
aF0.1
aF0.2
aF1.6
aF1.1
aF8.2
aF-5.4
aI3
aI0
aI5
aV2581,1610612757
p1692
aa(lp1693
I1883
aVSteve Francis
p1694
aI1610612752
aVNYK
p1695
aF29.0
aI70
aI25
aI45
aF0.357
aF34.2
aF4.8
aF10.9
aF0.435
aF0.4
aF1.2
aF0.301
aF4.5
aF5.7
aF0.787
aF1.1
aF3.1
aF4.1
aF4.9
aF3.1
aF1.1
aF0.2
aF0.5
aF2.9
aF4.5
aF14.4
aF-3.3
aI2
aI1
aI5
aV1883,1610612752
p1696
aa(lp1697
I959
aVSteve Nash
p1698
aI1610612756
aVPHX
p1699
aF32.0
aI79
aI54
aI25
aF0.684
aF35.4
aF6.8
aF13.4
aF0.512
aF1.9
aF4.3
aF0.439
aF3.3
aF3.5
aF0.921
aF0.6
aF3.6
aF4.2
aF10.5
aF3.5
aF0.8
aF0.2
aF0.4
aF1.5
aF4.0
aF18.8
aF6.0
aI43
aI1
aI5
aV959,1610612756
p1700
aa(lp1701
I2212
aVSteven Hunter
p1702
aI1610612755
aVPHI
p1703
aF24.0
aI69
aI33
aI36
aF0.478
aF19.0
aF2.5
aF4.2
aF0.601
aF0.0
aF0.0
aF0.0
aF1.0
aF2.0
aF0.514
aF1.6
aF2.3
aF3.9
aF0.2
aF0.9
aF0.2
aF1.1
aF0.5
aF1.7
aF1.6
aF6.1
aF-0.8
aI2
aI0
aI5
aV2212,1610612755
p1704
aa(lp1705
I2031
aVStromile Swift
p1706
aI1610612745
aVHOU
p1707
aF26.0
aI66
aI26
aI40
aF0.394
aF20.4
aF3.4
aF6.9
aF0.491
aF0.0
aF0.0
aF0.0
aF2.1
aF3.2
aF0.651
aF1.6
aF2.8
aF4.4
aF0.4
aF1.4
aF0.6
aF0.8
aF0.5
aF3.0
aF2.6
aF8.9
aF-2.0
aI3
aI0
aI5
aV2031,1610612745
p1708
aa(lp1709
I2551
aVT.J. Ford
p1710
aI1610612749
aVMIL
p1711
aF23.0
aI72
aI34
aI38
aF0.472
aF35.5
aF4.6
aF11.0
aF0.416
aF0.5
aF1.4
aF0.337
aF2.6
aF3.4
aF0.754
aF0.9
aF3.4
aF4.3
aF6.6
aF3.0
aF1.4
aF0.1
aF0.7
aF2.7
aF3.0
aF12.2
aF0.3
aI10
aI0
aI5
aV2551,1610612749
p1712
aa(lp1713
I2419
aVTayshaun Prince
p1714
aI1610612765
aVDET
p1715
aF26.0
aI82
aI64
aI18
aF0.78
aF35.3
aF5.5
aF12.2
aF0.455
aF0.8
aF2.2
aF0.35
aF2.2
aF2.9
aF0.765
aF1.3
aF3.0
aF4.2
aF2.3
aF1.1
aF0.8
aF0.5
aF0.7
aF1.2
aF2.6
aF14.1
aF7.9
aI3
aI0
aI5
aV2419,1610612765
p1716
aa(lp1717
I2242
aVTerence Morris
p1718
aI1610612753
aVORL
p1719
aF27.0
aI22
aI9
aI13
aF0.409
aF8.7
aF0.7
aF2.2
aF0.327
aF0.0
aF0.1
aF0.0
aF0.1
aF0.1
aF1.0
aF0.3
aF1.5
aF1.7
aF0.2
aF0.3
aF0.3
aF0.2
aF0.0
aF0.9
aF0.1
aF1.6
aF-0.2
aI0
aI0
aI5
aV2242,1610612753
p1720
aa(lp1721
I689
aVTheo Ratliff
p1722
aI1610612757
aVPOR
p1723
aF33.0
aI55
aI18
aI37
aF0.327
aF23.7
aF2.0
aF3.4
aF0.571
aF0.0
aF0.0
aF0.0
aF1.0
aF1.5
aF0.651
aF1.6
aF3.5
aF5.1
aF0.5
aF0.9
aF0.3
aF1.6
aF0.1
aF2.6
aF1.9
aF4.9
aF-3.3
aI1
aI0
aI5
aV689,1610612757
p1724
aa(lp1725
I1495
aVTim Duncan
p1726
aI1610612759
aVSAS
p1727
aF30.0
aI80
aI61
aI19
aF0.763
aF34.8
aF7.2
aF14.8
aF0.484
aF0.0
aF0.1
aF0.4
aF4.2
aF6.7
aF0.629
aF2.9
aF8.1
aF11.0
aF3.2
aF2.5
aF0.9
aF2.0
aF0.8
aF2.7
aF5.6
aF18.6
aF6.5
aI52
aI0
aI5
aV1495,1610612759
p1728
aa(lp1729
I1501
aVTim Thomas
p1730
aI1610612756
aVPHX
p1731
aF29.0
aI29
aI16
aI13
aF0.552
aF22.9
aF3.9
aF9.0
aF0.431
aF1.6
aF3.8
aF0.414
aF1.0
aF1.4
aF0.667
aF0.8
aF3.8
aF4.5
aF0.7
aF1.1
aF0.6
aF0.2
aF0.7
aF2.7
aF1.5
aF10.3
aF0.9
aI0
aI0
aI5
aV1501,1610612756
p1732
aa(lp1733
I389
aVToni Kukoc
p1734
aI1610612749
aVMIL
p1735
aF37.0
aI65
aI30
aI35
aF0.462
aF15.7
aF1.8
aF4.6
aF0.389
aF0.7
aF2.3
aF0.306
aF0.6
aF0.9
aF0.714
aF0.4
aF1.9
aF2.3
aF2.1
aF1.0
aF0.5
aF0.3
aF0.0
aF1.3
aF0.8
aF4.9
aF-0.6
aI0
aI0
aI5
aV389,1610612749
p1736
aa(lp1737
I2754
aVTony Allen
p1738
aI1610612738
aVBOS
p1739
aF24.0
aI51
aI20
aI31
aF0.392
aF19.2
aF2.5
aF5.4
aF0.471
aF0.2
aF0.7
aF0.324
aF2.0
aF2.6
aF0.746
aF0.6
aF1.5
aF2.2
aF1.3
aF1.3
aF1.0
aF0.4
aF0.5
aF2.5
aF2.1
aF7.2
aF-1.4
aI0
aI0
aI5
aV2754,1610612738
p1740
aa(lp1741
I1499
aVTony Battie
p1742
aI1610612753
aVORL
p1743
aF30.0
aI82
aI36
aI46
aF0.439
aF27.0
aF3.4
aF6.7
aF0.507
aF0.0
aF0.1
aF0.0
aF1.1
aF1.6
aF0.664
aF1.8
aF3.8
aF5.6
aF0.6
aF1.1
aF0.6
aF0.8
aF0.4
aF3.0
aF1.7
aF7.9
aF-1.5
aI6
aI0
aI5
aV1499,1610612753
p1744
aa(lp1745
I960
aVTony Delk
p1746
aI1610612765
aVDET
p1747
aF32.0
aI24
aI15
aI9
aF0.625
aF16.0
aF3.0
aF6.7
aF0.441
aF0.8
aF2.0
aF0.426
aF0.8
aF1.1
aF0.741
aF0.6
aF1.6
aF2.2
aF1.4
aF0.8
aF0.5
aF0.0
aF0.2
aF1.2
aF1.0
aF7.6
aF-0.9
aI0
aI0
aI5
aV960,1610612765
p1748
aa(lp1749
I2225
aVTony Parker
p1750
aI1610612759
aVSAS
p1751
aF24.0
aI80
aI61
aI19
aF0.763
aF33.9
aF7.8
aF14.2
aF0.548
aF0.1
aF0.5
aF0.306
aF3.2
aF4.5
aF0.707
aF0.5
aF2.8
aF3.3
aF5.8
aF3.1
aF1.0
aF0.1
aF1.0
aF2.0
aF3.7
aF18.9
aF6.4
aI8
aI0
aI5
aV2225,1610612759
p1752
aa(lp1753
I1503
aVTracy McGrady
p1754
aI1610612745
aVHOU
p1755
aF27.0
aI47
aI27
aI20
aF0.574
aF37.1
aF8.7
aF21.5
aF0.406
aF1.6
aF5.0
aF0.312
aF5.4
aF7.2
aF0.747
aF1.0
aF5.6
aF6.5
aF4.8
aF2.6
aF1.3
aF0.9
aF0.7
aF1.9
aF5.8
aF24.4
aF1.4
aI6
aI0
aI5
aV1503,1610612745
p1756
aa(lp1757
I101143
aVTravis Diener
p1758
aI1610612753
aVORL
p1759
aF24.0
aI23
aI9
aI14
aF0.391
aF10.7
aF1.3
aF3.0
aF0.42
aF1.1
aF2.5
aF0.439
aF0.2
aF0.3
aF0.833
aF0.2
aF0.7
aF0.9
aF0.7
aF0.4
aF0.3
aF0.0
aF0.0
aF1.0
aF0.4
aF3.8
aF-2.4
aI0
aI0
aI5
aV101143,1610612753
p1760
aa(lp1761
I2566
aVTravis Outlaw
p1762
aI1610612757
aVPOR
p1763
aF21.0
aI69
aI17
aI52
aF0.246
aF16.7
aF2.3
aF5.3
aF0.44
aF0.2
aF0.8
aF0.264
aF0.9
aF1.3
aF0.697
aF0.7
aF2.0
aF2.7
aF0.5
aF0.5
aF0.4
aF0.7
aF0.3
aF1.6
aF1.1
aF5.8
aF-4.2
aI1
aI0
aI5
aV2566,1610612757
p1764
aa(lp1765
I2239
aVTrenton Hassell
p1766
aI1610612750
aVMIN
p1767
aF27.0
aI77
aI31
aI46
aF0.403
aF32.7
aF3.7
aF8.0
aF0.464
aF0.1
aF0.3
aF0.304
aF1.7
aF2.3
aF0.744
aF1.1
aF1.7
aF2.8
aF2.6
aF1.6
aF0.6
aF0.4
aF0.5
aF2.6
aF2.1
aF9.2
aF-1.2
aI1
aI0
aI5
aV2239,1610612750
p1768
aa(lp1769
I2772
aVTrevor Ariza
p1770
aI1610612753
aVORL
p1771
aF20.0
aI57
aI24
aI33
aF0.421
aF17.5
aF1.6
aF4.0
aF0.412
aF0.0
aF0.1
aF0.2
aF1.4
aF2.2
aF0.606
aF1.4
aF2.5
aF3.8
aF1.1
aF1.1
aF1.0
aF0.2
aF0.3
aF1.8
aF1.8
aF4.6
aF-0.2
aI2
aI0
aI5
aV2772,1610612753
p1772
aa(lp1773
I1607
aVTroy Hudson
p1774
aI1610612750
aVMIN
p1775
aF30.0
aI36
aI17
aI19
aF0.472
aF22.2
aF3.5
aF9.3
aF0.381
aF1.1
aF2.8
aF0.396
aF1.3
aF1.4
aF0.923
aF0.2
aF1.0
aF1.2
aF2.9
aF1.1
aF0.3
aF0.1
aF0.4
aF1.5
aF2.1
aF9.5
aF-0.9
aI0
aI0
aI5
aV1607,1610612750
p1776
aa(lp1777
I2211
aVTroy Murphy
p1778
aI1610612744
aVGSW
p1779
aF26.0
aI74
aI30
aI44
aF0.405
aF34.0
aF4.9
aF11.3
aF0.433
aF0.8
aF2.4
aF0.32
aF3.4
aF4.3
aF0.787
aF2.6
aF7.4
aF10.0
aF1.4
aF1.5
aF0.6
aF0.4
aF0.8
aF2.6
aF3.4
aF14.0
aF-1.6
aI34
aI0
aI5
aV2211,1610612744
p1780
aa(lp1781
I1731
aVTyronn Lue
p1782
aI1610612737
aVATL
p1783
aF29.0
aI51
aI17
aI34
aF0.333
aF24.2
aF3.8
aF8.2
aF0.459
aF1.1
aF2.5
aF0.457
aF2.3
aF2.7
aF0.855
aF0.3
aF1.4
aF1.6
aF3.1
aF1.5
aF0.5
aF0.1
aF0.5
aF2.2
aF2.4
aF11.0
aF-2.3
aI0
aI0
aI5
aV1731,1610612737
p1784
aa(lp1785
I2199
aVTyson Chandler
p1786
aI1610612741
aVCHI
p1787
aF23.0
aI79
aI39
aI40
aF0.494
aF26.8
aF2.0
aF3.6
aF0.565
aF0.0
aF0.0
aF0.0
aF1.2
aF2.4
aF0.503
aF3.4
aF5.7
aF9.0
aF1.0
aF1.6
aF0.5
aF1.3
aF0.3
aF3.8
aF2.4
aF5.3
aF1.2
aI9
aI0
aI5
aV2199,1610612741
p1788
aa(lp1789
I2617
aVUdonis Haslem
p1790
aI1610612748
aVMIA
p1791
aF26.0
aI81
aI52
aI29
aF0.642
aF30.7
aF3.7
aF7.3
aF0.508
aF0.0
aF0.0
aF0.0
aF1.9
aF2.5
aF0.789
aF2.1
aF5.8
aF7.8
aF1.2
aF1.0
aF0.6
aF0.2
aF0.3
aF2.7
aF2.0
aF9.3
aF3.3
aI14
aI0
aI5
aV2617,1610612748
p1792
aa(lp1793
I2751
aVViktor Khryapa
p1794
aI1610612757
aVPOR
p1795
aF23.0
aI69
aI16
aI53
aF0.232
aF21.6
aF2.3
aF5.0
aF0.462
aF0.1
aF0.4
aF0.333
aF1.1
aF1.6
aF0.694
aF1.7
aF2.8
aF4.4
aF1.3
aF1.2
aF0.7
aF0.4
aF0.3
aF3.0
aF1.9
aF5.8
aF-4.3
aI3
aI0
aI5
aV2751,1610612757
p1796
aa(lp1797
I452
aVVin Baker
p1798
aI1610612746
aVLAC
p1799
aF34.0
aI8
aI5
aI3
aF0.625
aF10.6
aF0.9
aF1.9
aF0.467
aF0.0
aF0.0
aF0.0
aF1.6
aF2.3
aF0.722
aF0.3
aF2.1
aF2.4
aF0.5
aF1.1
aF0.5
aF0.5
aF0.4
aF1.6
aF1.6
aF3.4
aF2.4
aI0
aI0
aI5
aV452,1610612746
p1800
aa(lp1801
I1713
aVVince Carter
p1802
aI1610612751
aVNJN
p1803
aF29.0
aI79
aI49
aI30
aF0.62
aF36.8
aF8.3
aF19.2
aF0.43
aF1.6
aF4.6
aF0.341
aF6.1
aF7.6
aF0.799
aF1.7
aF4.1
aF5.8
aF4.3
aF2.7
aF1.2
aF0.7
aF0.7
aF3.0
aF6.2
aF24.2
aF4.2
aI8
aI1
aI5
aV1713,1610612751
p1804
aa(lp1805
I958
aVVitaly Potapenko
p1806
aI1610612758
aVSAC
p1807
aF31.0
aI33
aI17
aI16
aF0.515
aF10.7
aF1.1
aF2.2
aF0.521
aF0.0
aF0.0
aF0.0
aF0.3
aF0.5
aF0.588
aF0.8
aF1.1
aF1.9
aF0.3
aF0.5
aF0.1
aF0.1
aF0.2
aF1.5
aF0.7
aF2.5
aF-1.9
aI0
aI0
aI5
aV958,1610612758
p1808
aa(lp1809
I2209
aVVladimir Radmanovic
p1810
aI1610612746
aVLAC
p1811
aF25.0
aI77
aI35
aI42
aF0.455
aF25.6
aF3.4
aF8.4
aF0.407
aF1.8
aF4.6
aF0.39
aF1.2
aF1.5
aF0.816
aF0.8
aF3.8
aF4.6
aF1.8
aF1.2
aF0.8
aF0.4
aF0.5
aF2.7
aF1.1
aF9.8
aF-1.5
aI7
aI0
aI5
aV2209,1610612746
p1812
aa(lp1813
I101144
aVVon Wafer
p1814
aI1610612747
aVLAL
p1815
aF20.0
aI16
aI6
aI10
aF0.375
aF4.5
aF0.4
aF2.4
aF0.158
aF0.1
aF1.1
aF0.118
aF0.4
aF0.5
aF0.75
aF0.3
aF0.2
aF0.5
aF0.3
aF0.1
aF0.2
aF0.0
aF0.3
aF0.8
aF0.5
aF1.3
aF-1.6
aI0
aI0
aI5
aV101144,1610612747
p1816
aa(lp1817
I702
aVVoshon Lenard
p1818
aI1610612757
aVPOR
p1819
aF33.0
aI26
aI4
aI22
aF0.154
aF17.6
aF2.9
aF7.3
aF0.393
aF1.0
aF3.0
aF0.321
aF0.6
aF1.2
aF0.516
aF0.2
aF1.6
aF1.8
aF1.6
aF1.2
aF0.8
aF0.2
aF0.4
aF1.5
aF1.1
aF7.3
aF-1.6
aI1
aI0
aI5
aV702,1610612757
p1820
aa(lp1821
I1887
aVWally Szczerbiak
p1822
aI1610612738
aVBOS
p1823
aF29.0
aI72
aI33
aI39
aF0.458
aF37.9
aF6.8
aF14.1
aF0.487
aF1.4
aF3.5
aF0.4
aF3.9
aF4.3
aF0.897
aF1.1
aF3.3
aF4.3
aF3.0
aF1.9
aF0.6
aF0.3
aF0.8
aF2.1
aF3.4
aF19.0
aF0.4
aI2
aI0
aI5
aV1887,1610612738
p1824
aa(lp1825
I962
aVWalter McCarty
p1826
aI1610612746
aVLAC
p1827
aF32.0
aI36
aI15
aI21
aF0.417
aF9.8
aF0.9
aF2.8
aF0.333
aF0.3
aF1.3
aF0.222
aF0.3
aF0.6
aF0.571
aF0.4
aF1.5
aF1.9
aF0.6
aF0.5
aF0.2
aF0.1
aF0.2
aF1.4
aF0.7
aF2.4
aF0.1
aI0
aI0
aI5
aV962,1610612746
p1828
aa(lp1829
I101134
aVWayne Simien
p1830
aI1610612748
aVMIA
p1831
aF23.0
aI43
aI26
aI17
aF0.605
aF9.6
aF1.3
aF2.8
aF0.483
aF0.0
aF0.0
aF0.0
aF0.7
aF0.8
aF0.882
aF0.9
aF1.2
aF2.0
aF0.2
aF0.6
aF0.3
aF0.0
aF0.2
aF1.6
aF0.8
aF3.4
aF-0.9
aI0
aI0
aI5
aV101134,1610612748
p1832
aa(lp1833
I101198
aVWill Bynum
p1834
aI1610612744
aVGSW
p1835
aF23.0
aI15
aI7
aI8
aF0.467
aF10.8
aF1.4
aF3.5
aF0.404
aF0.1
aF0.6
aF0.222
aF0.7
aF1.1
aF0.625
aF0.2
aF0.6
aF0.8
aF1.3
aF0.9
aF0.5
aF0.0
aF0.5
aF0.7
aF0.8
aF3.6
aF-3.7
aI0
aI0
aI5
aV101198,1610612744
p1836
aa(lp1837
I2584
aVWillie Green
p1838
aI1610612755
aVPHI
p1839
aF24.0
aI10
aI4
aI6
aF0.4
aF15.3
aF2.8
aF6.6
aF0.424
aF1.0
aF1.9
aF0.526
aF0.4
aF0.5
aF0.8
aF0.1
aF1.4
aF1.5
aF0.5
aF1.2
aF0.2
aF0.0
aF0.2
aF1.3
aF0.7
aF7.0
aF-2.9
aI0
aI0
aI5
aV2584,1610612755
p1840
aa(lp1841
I2397
aVYao Ming
p1842
aI1610612745
aVHOU
p1843
aF25.0
aI57
aI27
aI30
aF0.474
aF34.2
aF8.2
aF15.8
aF0.519
aF0.0
aF0.0
aF0.0
aF5.9
aF6.9
aF0.853
aF2.6
aF7.6
aF10.2
aF1.5
aF2.6
aF0.5
aF1.6
aF1.3
aF3.4
aF6.6
aF22.3
aF1.6
aI34
aI0
aI5
aV2397,1610612745
p1844
aa(lp1845
I101117
aVYaroslav Korolev
p1846
aI1610612746
aVLAC
p1847
aF19.0
aI24
aI12
aI12
aF0.5
aF5.3
aF0.4
aF1.3
aF0.3
aF0.1
aF0.3
aF0.286
aF0.3
aF0.4
aF0.7
aF0.2
aF0.3
aF0.5
aF0.4
aF0.3
aF0.1
aF0.0
aF0.1
aF0.5
aF0.5
aF1.1
aF-0.3
aI0
aI0
aI5
aV101117,1610612746
p1848
aa(lp1849
I2216
aVZach Randolph
p1850
aI1610612757
aVPOR
p1851
aF24.0
aI74
aI21
aI53
aF0.284
aF34.4
aF7.2
aF16.6
aF0.436
aF0.2
aF0.7
aF0.291
aF3.3
aF4.6
aF0.714
aF2.6
aF5.4
aF8.0
aF1.9
aF2.2
aF0.8
aF0.2
aF1.2
aF2.5
aF4.2
aF18.0
aF-5.9
aI21
aI0
aI5
aV2216,1610612757
p1852
aa(lp1853
I2560
aVZarko Cabarkapa
p1854
aI1610612744
aVGSW
p1855
aF25.0
aI61
aI22
aI39
aF0.361
aF8.3
aF1.1
aF2.9
aF0.385
aF0.1
aF0.3
aF0.25
aF1.0
aF1.4
aF0.714
aF0.6
aF1.2
aF1.8
aF0.3
aF0.6
aF0.2
aF0.1
aF0.3
aF1.4
aF1.0
aF3.3
aF-1.8
aI1
aI0
aI5
aV2560,1610612744
p1856
aa(lp1857
I2585
aVZaza Pachulia
p1858
aI1610612737
aVATL
p1859
aF22.0
aI78
aI26
aI52
aF0.333
aF31.4
aF3.9
aF8.7
aF0.451
aF0.0
aF0.0
aF0.0
aF3.8
aF5.2
aF0.735
aF3.4
aF4.5
aF7.9
aF1.7
aF2.3
aF1.1
aF0.5
aF1.2
aF3.7
aF4.4
aF11.7
aF-2.9
aI21
aI0
aI5
aV2585,1610612737
p1860
aa(lp1861
I1442
aVZeljko Rebraca
p1862
aI1610612746
aVLAC
p1863
aF34.0
aI29
aI18
aI11
aF0.621
aF14.2
aF1.8
aF3.3
aF0.542
aF0.0
aF0.0
aF0.0
aF1.1
aF1.4
aF0.756
aF0.4
aF1.8
aF2.2
aF0.3
aF0.8
aF0.2
aF0.7
aF0.2
aF2.0
aF1.8
aF4.7
aF-4.2
aI0
aI0
aI5
aV1442,1610612746
p1864
aa(lp1865
I1985
aVZendon Hamilton
p1866
aI1610612755
aVPHI
p1867
aF31.0
aI12
aI8
aI4
aF0.667
aF4.0
aF0.6
aF1.2
aF0.5
aF0.0
aF0.0
aF0.0
aF1.0
aF1.5
aF0.667
aF0.3
aF0.7
aF0.9
aF0.0
aF0.5
aF0.3
aF0.0
aF0.3
aF0.4
aF0.8
aF2.2
aF-1.6
aI0
aI0
aI5
aV1985,1610612755
p1868
aa(lp1869
I2565
aVZoran Planinic
p1870
aI1610612751
aVNJN
p1871
aF23.0
aI56
aI31
aI25
aF0.554
aF10.6
aF1.2
aF3.3
aF0.361
aF0.2
aF1.0
aF0.232
aF0.8
aF1.2
aF0.697
aF0.3
aF1.1
aF1.3
aF0.9
aF0.8
aF0.4
aF0.1
aF0.3
aF1.6
aF1.1
aF3.4
aF-1.2
aI0
aI0
aI5
aV2565,1610612751
p1872
aa(lp1873
I980
aVZydrunas Ilgauskas
p1874
aI1610612739
aVCLE
p1875
aF31.0
aI78
aI48
aI30
aF0.615
aF29.3
aF5.8
aF11.4
aF0.506
aF0.0
aF0.1
aF0.0
aF4.1
aF4.9
aF0.834
aF3.1
aF4.4
aF7.6
aF1.2
aF2.0
aF0.5
aF1.7
aF0.7
aF3.6
aF3.8
aF15.6
aF2.4
aI18
aI0
aI5
aV980,1610612739
p1876
aasVname
p1877
VLeagueDashPlayerStats
p1878
sasVparameters
p1879
(dp1880
VConference
p1881
NsVPlusMinus
p1882
VN
p1883
sVGameScope
p1884
NsVTeamID
p1885
I0
sVHeight
p1886
NsVLocation
p1887
NsVStarterBench
p1888
NsVShotClockRange
p1889
NsVSeasonType
p1890
VRegular Season
p1891
sVDivision
p1892
NsVSeason
p1893
V2005-06
p1894
sVPaceAdjust
p1895
VN
p1896
sVDraftYear
p1897
NsVDateFrom
p1898
NsVPlayerPosition
p1899
NsVCountry
p1900
NsVVsConference
p1901
NsVOpponentTeamID
p1902
I0
sVDateTo
p1903
NsVGameSegment
p1904
NsVDraftPick
p1905
NsVLastNGames
p1906
I0
sVPlayerExperience
p1907
NsVVsDivision
p1908
NsVLeagueID
p1909
V00
p1910
sVOutcome
p1911
NsVMeasureType
p1912
VBase
p1913
sVWeight
p1914
NsVPORound
p1915
I0
sVPerMode
p1916
VPerGame
p1917
sVSeasonSegment
p1918
NsVPeriod
p1919
I0
sVRank
p1920
VN
p1921
sVMonth
p1922
I0
sVCollege
p1923
Nss.