(dp0
S'age'
p1
I30
sS'stats'
p2
(lp3
(lp4
V0021100981
p5
aVAPR 26, 2012
p6
aVWAS vs. MIA
p7
aVW
p8
aI22
aI2
aI4
aF0.5
aI0
aI0
aF0.0
aI0
aI0
aF0.0
aI1
aI7
aI8
aI3
aI0
aI0
aI1
aI3
aI4
aI18
aa(lp9
V0021100972
p10
aVAPR 25, 2012
p11
aVWAS @ CLE
p12
aVW
p13
aI22
aI5
aI8
aF0.625
aI0
aI1
aF0.0
aI0
aI0
aF0.0
aI3
aI2
aI5
aI0
aI0
aI0
aI2
aI1
aI10
aI-3
aa(lp14
V0021100960
p15
aVAPR 23, 2012
p16
aVWAS vs. CHA
p17
aVW
p18
aI20
aI2
aI4
aF0.5
aI0
aI1
aF0.0
aI2
aI2
aF1.0
aI3
aI6
aI9
aI3
aI1
aI0
aI1
aI2
aI6
aI18
aa(lp19
V0021100945
p20
aVAPR 21, 2012
p21
aVWAS @ MIA
p22
aVW
p23
aI15
aI1
aI5
aF0.2
aI0
aI0
aF0.0
aI0
aI0
aF0.0
aI2
aI1
aI3
aI1
aI0
aI0
aI1
aI1
aI2
aI7
aa(lp24
V0021100918
p25
aVAPR 18, 2012
p26
aVWAS vs. MIL
p27
aVW
p28
aI21
aI5
aI8
aF0.625
aI1
aI2
aF0.5
aI0
aI0
aF0.0
aI2
aI3
aI5
aI0
aI2
aI1
aI1
aI3
aI11
aI-2
aa(lp29
V0021100907
p30
aVAPR 16, 2012
p31
aVWAS @ CHI
p32
aVW
p33
aI16
aI3
aI5
aF0.6
aI0
aI0
aF0.0
aI0
aI0
aF0.0
aI1
aI4
aI5
aI0
aI2
aI2
aI0
aI4
aI6
aI6
aa(lp34
V0021100887
p35
aVAPR 14, 2012
p36
aVWAS vs. CLE
p37
aVL
p38
aI25
aI6
aI10
aF0.6
aI1
aI2
aF0.5
aI0
aI0
aF0.0
aI0
aI6
aI6
aI2
aI1
aI2
aI0
aI2
aI13
aI-8
aa(lp39
V0021100878
p40
aVAPR 13, 2012
p41
aVWAS @ NYK
p42
aVL
p43
aI20
aI1
aI6
aF0.167
aI0
aI1
aF0.0
aI2
aI2
aF1.0
aI4
aI5
aI9
aI0
aI0
aI1
aI0
aI4
aI4
aI-13
aa(lp44
V0021100852
p45
aVAPR 10, 2012
p46
aVWAS vs. ORL
p47
aVW
p48
aI23
aI5
aI6
aF0.833
aI0
aI0
aF0.0
aI2
aI2
aF1.0
aI0
aI8
aI8
aI0
aI1
aI0
aI0
aI0
aI12
aI5
aa(lp49
V0021100842
p50
aVAPR 09, 2012
p51
aVWAS @ CHA
p52
aVW
p53
aI38
aI6
aI9
aF0.667
aI0
aI0
aF0.0
aI6
aI7
aF0.857
aI3
aI9
aI12
aI3
aI2
aI2
aI1
aI0
aI18
aI26
aa(lp54
V0021100817
p55
aVAPR 06, 2012
p56
aVWAS @ NJN
p57
aVL
p58
aI26
aI5
aI8
aF0.625
aI0
aI1
aF0.0
aI2
aI2
aF1.0
aI5
aI4
aI9
aI3
aI0
aI0
aI3
aI2
aI12
aI-1
aa(lp59
V0021100812
p60
aVAPR 05, 2012
p61
aVWAS @ DET
p62
aVL
p63
aI14
aI0
aI2
aF0.0
aI0
aI1
aF0.0
aI0
aI0
aF0.0
aI1
aI1
aI2
aI0
aI0
aI0
aI0
aI5
aI0
aI-15
aasS'name'
p64
VJames Singleton
p65
sS'experience'
p66
I6
s.