(dp0
S'stats'
p1
(lp2
(lp3
V0021100001
p4
aVDEC 25, 2011
p5
aVBOS @ NYK
p6
aVL
p7
aI28
aI9
aI13
aF0.692
aI0
aI0
aF0.0
aI2
aI2
aF1.0
aI5
aI6
aI11
aI0
aI1
aI0
aI1
aI3
aI20
aI-1
aa(lp8
V0021100019
p9
aVDEC 27, 2011
p10
aVBOS @ MIA
p11
aVL
p12
aI32
aI5
aI10
aF0.5
aI0
aI0
aF0.0
aI3
aI5
aF0.6
aI1
aI4
aI5
aI1
aI0
aI2
aI2
aI3
aI13
aI1
aa(lp13
V0021100028
p14
aVDEC 28, 2011
p15
aVBOS @ NOH
p16
aVL
p17
aI24
aI4
aI13
aF0.308
aI0
aI0
aF0.0
aI3
aI4
aF0.75
aI1
aI3
aI4
aI0
aI0
aI1
aI0
aI1
aI11
aI-21
aa(lp18
V0021100041
p19
aVDEC 30, 2011
p20
aVBOS vs. DET
p21
aVW
p22
aI22
aI7
aI11
aF0.636
aI0
aI0
aF0.0
aI3
aI3
aF1.0
aI1
aI2
aI3
aI0
aI0
aI0
aI0
aI2
aI17
aI1
aa(lp23
V0021100057
p24
aVJAN 01, 2012
p25
aVBOS @ WAS
p26
aVW
p27
aI31
aI4
aI8
aF0.5
aI0
aI0
aF0.0
aI0
aI0
aF0.0
aI0
aI4
aI4
aI0
aI0
aI1
aI0
aI1
aI8
aI14
aa(lp28
V0021100067
p29
aVJAN 02, 2012
p30
aVBOS vs. WAS
p31
aVW
p32
aI31
aI7
aI13
aF0.538
aI0
aI0
aF0.0
aI0
aI0
aF0.0
aI0
aI6
aI6
aI1
aI0
aI0
aI0
aI5
aI14
aI5
aa(lp33
V0021100084
p34
aVJAN 04, 2012
p35
aVBOS vs. NJN
p36
aVW
p37
aI26
aI7
aI10
aF0.7
aI0
aI0
aF0.0
aI1
aI2
aF0.5
aI4
aI9
aI13
aI1
aI0
aI0
aI1
aI1
aI15
aI20
aa(lp38
V0021100102
p39
aVJAN 06, 2012
p40
aVBOS vs. IND
p41
aVL
p42
aI25
aI2
aI7
aF0.286
aI0
aI0
aF0.0
aI1
aI2
aF0.5
aI1
aI3
aI4
aI0
aI0
aI1
aI0
aI1
aI5
aI-10
aa(lp43
V0021100146
p44
aVJAN 11, 2012
p45
aVBOS vs. DAL
p46
aVL
p47
aI31
aI3
aI6
aF0.5
aI0
aI0
aF0.0
aI2
aI4
aF0.5
aI0
aI4
aI4
aI2
aI1
aI1
aI1
aI3
aI8
aI-6
aa(lp48
V0021100162
p49
aVJAN 13, 2012
p50
aVBOS vs. CHI
p51
aVL
p52
aI33
aI5
aI12
aF0.417
aI0
aI0
aF0.0
aI0
aI0
aF0.0
aI2
aI7
aI9
aI0
aI1
aI1
aI0
aI3
aI10
aI-17
aa(lp53
V0021100173
p54
aVJAN 14, 2012
p55
aVBOS @ IND
p56
aVL
p57
aI23
aI5
aI12
aF0.417
aI0
aI0
aF0.0
aI0
aI0
aF0.0
aI4
aI4
aI8
aI2
aI0
aI0
aI1
aI2
aI10
aI-8
aa(lp58
V0021100192
p59
aVJAN 16, 2012
p60
aVBOS vs. OKC
p61
aVL
p62
aI22
aI1
aI5
aF0.2
aI0
aI0
aF0.0
aI2
aI2
aF1.0
aI0
aI1
aI1
aI1
aI0
aI0
aI0
aI2
aI4
aI-5
aa(lp63
V0021100205
p64
aVJAN 18, 2012
p65
aVBOS vs. TOR
p66
aVW
p67
aI31
aI4
aI11
aF0.364
aI0
aI0
aF0.0
aI5
aI6
aF0.833
aI2
aI7
aI9
aI0
aI1
aI2
aI3
aI1
aI13
aI16
aa(lp68
V0021100219
p69
aVJAN 20, 2012
p70
aVBOS vs. PHX
p71
aVL
p72
aI24
aI5
aI10
aF0.5
aI0
aI0
aF0.0
aI1
aI2
aF0.5
aI1
aI5
aI6
aI1
aI0
aI1
aI2
aI1
aI11
aI1
aa(lp73
V0021100237
p74
aVJAN 22, 2012
p75
aVBOS @ WAS
p76
aVW
p77
aI35
aI6
aI13
aF0.462
aI0
aI0
aF0.0
aI1
aI1
aF1.0
aI3
aI6
aI9
aI0
aI0
aI0
aI2
aI1
aI13
aI6
aa(lp78
V0021100243
p79
aVJAN 23, 2012
p80
aVBOS vs. ORL
p81
aVW
p82
aI34
aI8
aI14
aF0.571
aI0
aI0
aF0.0
aI3
aI3
aF1.0
aI2
aI6
aI8
aI1
aI0
aI0
aI1
aI4
aI19
aI23
aa(lp83
V0021100270
p84
aVJAN 26, 2012
p85
aVBOS @ ORL
p86
aVW
p87
aI29
aI4
aI12
aF0.333
aI0
aI0
aF0.0
aI2
aI4
aF0.5
aI1
aI4
aI5
aI1
aI2
aI2
aI0
aI4
aI10
aI5
aa(lp88
V0021100273
p89
aVJAN 27, 2012
p90
aVBOS vs. IND
p91
aVW
p92
aI38
aI6
aI12
aF0.5
aI0
aI0
aF0.0
aI0
aI0
aF0.0
aI2
aI4
aI6
aI2
aI0
aI1
aI1
aI4
aI12
aI6
aa(lp93
V0021100292
p94
aVJAN 29, 2012
p95
aVBOS vs. CLE
p96
aVL
p97
aI38
aI5
aI11
aF0.455
aI0
aI0
aF0.0
aI3
aI4
aF0.75
aI0
aI4
aI4
aI2
aI1
aI1
aI2
aI4
aI13
aI-6
aa(lp98
V0021100309
p99
aVJAN 31, 2012
p100
aVBOS @ CLE
p101
aVW
p102
aI29
aI6
aI9
aF0.667
aI0
aI0
aF0.0
aI1
aI2
aF0.5
aI1
aI5
aI6
aI2
aI1
aI0
aI2
aI3
aI13
aI-4
aa(lp103
V0021100317
p104
aVFEB 01, 2012
p105
aVBOS vs. TOR
p106
aVW
p107
aI31
aI4
aI8
aF0.5
aI0
aI0
aF0.0
aI4
aI4
aF1.0
aI1
aI8
aI9
aI2
aI0
aI0
aI2
aI2
aI12
aI24
aa(lp108
V0021100337
p109
aVFEB 03, 2012
p110
aVBOS vs. NYK
p111
aVW
p112
aI26
aI3
aI11
aF0.273
aI0
aI0
aF0.0
aI2
aI2
aF1.0
aI1
aI3
aI4
aI3
aI0
aI2
aI0
aI3
aI8
aI7
aa(lp113
V0021100368
p114
aVFEB 07, 2012
p115
aVBOS vs. CHA
p116
aVW
p117
aI28
aI5
aI8
aF0.625
aI0
aI0
aF0.0
aI3
aI3
aF1.0
aI1
aI2
aI3
aI1
aI1
aI0
aI0
aI1
aI13
aI16
aa(lp118
V0021100384
p119
aVFEB 09, 2012
p120
aVBOS vs. LAL
p121
aVL
p122
aI24
aI4
aI9
aF0.444
aI0
aI0
aF0.0
aI0
aI0
aF0.0
aI3
aI2
aI5
aI1
aI1
aI0
aI0
aI1
aI8
aI-6
aa(lp123
V0021100388
p124
aVFEB 10, 2012
p125
aVBOS @ TOR
p126
aVL
p127
aI30
aI4
aI8
aF0.5
aI0
aI0
aF0.0
aI2
aI2
aF1.0
aI2
aI5
aI7
aI0
aI0
aI2
aI1
aI1
aI10
aI-14
aa(lp128
V0021100503
p129
aVFEB 28, 2012
p130
aVBOS @ CLE
p131
aVW
p132
aI35
aI6
aI12
aF0.5
aI0
aI0
aF0.0
aI0
aI0
aF0.0
aI2
aI5
aI7
aI2
aI2
aI1
aI0
aI1
aI12
aI1
aa(lp133
V0021100514
p134
aVFEB 29, 2012
p135
aVBOS vs. MIL
p136
aVW
p137
aI37
aI6
aI13
aF0.462
aI0
aI0
aF0.0
aI4
aI7
aF0.571
aI4
aI3
aI7
aI2
aI0
aI1
aI2
aI4
aI16
aI-3
aa(lp138
V0021100529
p139
aVMAR 02, 2012
p140
aVBOS vs. NJN
p141
aVW
p142
aI25
aI4
aI6
aF0.667
aI0
aI0
aF0.0
aI0
aI0
aF0.0
aI0
aI3
aI3
aI0
aI0
aI2
aI2
aI3
aI8
aI18
aa(lp143
V0021100546
p144
aVMAR 04, 2012
p145
aVBOS vs. NYK
p146
aVW
p147
aI30
aI6
aI11
aF0.545
aI0
aI0
aF0.0
aI6
aI6
aF1.0
aI1
aI2
aI3
aI0
aI0
aI4
aI2
aI3
aI18
aI2
aa(lp148
V0021100565
p149
aVMAR 06, 2012
p150
aVBOS vs. HOU
p151
aVW
p152
aI34
aI4
aI8
aF0.5
aI0
aI0
aF0.0
aI0
aI0
aF0.0
aI1
aI3
aI4
aI3
aI1
aI0
aI0
aI4
aI8
aI17
aa(lp153
V0021100570
p154
aVMAR 07, 2012
p155
aVBOS @ PHI
p156
aVL
p157
aI23
aI5
aI15
aF0.333
aI0
aI0
aF0.0
aI2
aI2
aF1.0
aI2
aI2
aI4
aI1
aI0
aI0
aI0
aI2
aI12
aI-23
aa(lp158
V0021100586
p159
aVMAR 09, 2012
p160
aVBOS vs. POR
p161
aVW
p162
aI31
aI4
aI11
aF0.364
aI0
aI0
aF0.0
aI0
aI0
aF0.0
aI1
aI3
aI4
aI0
aI1
aI1
aI0
aI2
aI8
aI18
aa(lp163
V0021100604
p164
aVMAR 11, 2012
p165
aVBOS @ LAL
p166
aVL
p167
aI43
aI7
aI12
aF0.583
aI0
aI0
aF0.0
aI1
aI2
aF0.5
aI4
aI4
aI8
aI3
aI2
aI2
aI2
aI3
aI15
aI3
aa(lp168
V0021100617
p169
aVMAR 12, 2012
p170
aVBOS @ LAC
p171
aVW
p172
aI30
aI5
aI6
aF0.833
aI0
aI0
aF0.0
aI0
aI0
aF0.0
aI3
aI6
aI9
aI0
aI0
aI0
aI0
aI6
aI10
aI11
aa(lp173
V0021100637
p174
aVMAR 14, 2012
p175
aVBOS @ GSW
p176
aVW
p177
aI41
aI8
aI18
aF0.444
aI0
aI0
aF0.0
aI6
aI6
aF1.0
aI3
aI6
aI9
aI0
aI1
aI1
aI2
aI2
aI22
aI-1
aa(lp178
V0021100651
p179
aVMAR 16, 2012
p180
aVBOS @ SAC
p181
aVL
p182
aI32
aI7
aI11
aF0.636
aI0
aI0
aF0.0
aI2
aI2
aF1.0
aI1
aI0
aI1
aI1
aI2
aI1
aI0
aI2
aI16
aI-20
aa(lp183
V0021100660
p184
aVMAR 17, 2012
p185
aVBOS @ DEN
p186
aVL
p187
aI28
aI2
aI9
aF0.222
aI0
aI0
aF0.0
aI2
aI2
aF1.0
aI1
aI1
aI2
aI0
aI0
aI1
aI2
aI2
aI6
aI-14
aa(lp188
V0021100672
p189
aVMAR 19, 2012
p190
aVBOS @ ATL
p191
aVW
p192
aI38
aI4
aI7
aF0.571
aI0
aI0
aF0.0
aI0
aI0
aF0.0
aI1
aI9
aI10
aI0
aI0
aI1
aI1
aI4
aI8
aI12
aa(lp193
V0021100694
p194
aVMAR 22, 2012
p195
aVBOS @ MIL
p196
aVW
p197
aI37
aI6
aI16
aF0.375
aI0
aI0
aF0.0
aI0
aI0
aF0.0
aI2
aI8
aI10
aI2
aI2
aI1
aI2
aI2
aI12
aI11
aa(lp198
V0021100705
p199
aVMAR 23, 2012
p200
aVBOS @ PHI
p201
aVL
p202
aI31
aI8
aI18
aF0.444
aI0
aI0
aF0.0
aI2
aI2
aF1.0
aI1
aI3
aI4
aI1
aI1
aI0
aI2
aI2
aI18
aI-16
aa(lp203
V0021100721
p204
aVMAR 25, 2012
p205
aVBOS vs. WAS
p206
aVW
p207
aI34
aI4
aI8
aF0.5
aI0
aI0
aF0.0
aI3
aI3
aF1.0
aI0
aI7
aI7
aI0
aI0
aI3
aI1
aI2
aI11
aI19
aa(lp208
V0021100729
p209
aVMAR 26, 2012
p210
aVBOS @ CHA
p211
aVW
p212
aI40
aI4
aI9
aF0.444
aI0
aI0
aF0.0
aI7
aI8
aF0.875
aI3
aI2
aI5
aI1
aI0
aI1
aI1
aI3
aI15
aI11
aa(lp213
V0021100747
p214
aVMAR 28, 2012
p215
aVBOS vs. UTA
p216
aVW
p217
aI35
aI7
aI17
aF0.412
aI0
aI0
aF0.0
aI5
aI6
aF0.833
aI0
aI4
aI4
aI0
aI0
aI0
aI1
aI3
aI19
aI1
aa(lp218
V0021100765
p219
aVMAR 30, 2012
p220
aVBOS @ MIN
p221
aVW
p222
aI36
aI5
aI13
aF0.385
aI0
aI0
aF0.0
aI2
aI2
aF1.0
aI2
aI4
aI6
aI0
aI0
aI0
aI0
aI3
aI12
aI16
aa(lp223
V0021100778
p224
aVAPR 01, 2012
p225
aVBOS vs. MIA
p226
aVW
p227
aI35
aI3
aI5
aF0.6
aI0
aI0
aF0.0
aI10
aI10
aF1.0
aI3
aI7
aI10
aI1
aI1
aI0
aI2
aI1
aI16
aI24
aa(lp228
V0021100801
p229
aVAPR 04, 2012
p230
aVBOS vs. SAS
p231
aVL
p232
aI29
aI3
aI6
aF0.5
aI0
aI0
aF0.0
aI3
aI6
aF0.5
aI2
aI5
aI7
aI0
aI2
aI3
aI2
aI1
aI9
aI3
aa(lp233
V0021100813
p234
aVAPR 05, 2012
p235
aVBOS @ CHI
p236
aVL
p237
aI34
aI6
aI12
aF0.5
aI0
aI0
aF0.0
aI3
aI4
aF0.75
aI2
aI3
aI5
aI0
aI3
aI1
aI0
aI2
aI15
aI4
aa(lp238
V0021100827
p239
aVAPR 07, 2012
p240
aVBOS @ IND
p241
aVW
p242
aI34
aI0
aI6
aF0.0
aI0
aI0
aF0.0
aI2
aI2
aF1.0
aI1
aI3
aI4
aI2
aI0
aI0
aI1
aI2
aI2
aI-1
aa(lp243
V0021100836
p244
aVAPR 08, 2012
p245
aVBOS vs. PHI
p246
aVW
p247
aI33
aI8
aI10
aF0.8
aI0
aI0
aF0.0
aI2
aI2
aF1.0
aI0
aI6
aI6
aI1
aI0
aI1
aI2
aI2
aI18
aI1
aa(lp248
V0021100853
p249
aVAPR 10, 2012
p250
aVBOS @ MIA
p251
aVW
p252
aI39
aI4
aI8
aF0.5
aI0
aI0
aF0.0
aI4
aI4
aF1.0
aI2
aI8
aI10
aI0
aI1
aI1
aI2
aI3
aI12
aI10
aa(lp253
V0021100860
p254
aVAPR 11, 2012
p255
aVBOS vs. ATL
p256
aVW
p257
aI42
aI10
aI17
aF0.588
aI0
aI0
aF0.0
aI1
aI2
aF0.5
aI4
aI6
aI10
aI1
aI1
aI1
aI3
aI0
aI21
aI2
aa(lp258
V0021100874
p259
aVAPR 13, 2012
p260
aVBOS @ TOR
p261
aVL
p262
aI32
aI5
aI11
aF0.455
aI0
aI0
aF0.0
aI0
aI0
aF0.0
aI0
aI3
aI3
aI0
aI0
aI1
aI2
aI3
aI10
aI-19
aa(lp263
V0021100888
p264
aVAPR 14, 2012
p265
aVBOS @ NJN
p266
aVW
p267
aI29
aI7
aI12
aF0.583
aI0
aI0
aF0.0
aI4
aI5
aF0.8
aI2
aI9
aI11
aI2
aI0
aI2
aI1
aI1
aI18
aI12
aa(lp268
V0021100895
p269
aVAPR 15, 2012
p270
aVBOS @ CHA
p271
aVW
p272
aI37
aI9
aI19
aF0.474
aI0
aI0
aF0.0
aI4
aI5
aF0.8
aI1
aI8
aI9
aI1
aI0
aI3
aI1
aI2
aI22
aI14
aa(lp273
V0021100915
p274
aVAPR 17, 2012
p275
aVBOS @ NYK
p276
aVL
p277
aI35
aI6
aI8
aF0.75
aI0
aI0
aF0.0
aI3
aI6
aF0.5
aI3
aI3
aI6
aI1
aI0
aI1
aI2
aI2
aI15
aI6
aa(lp278
V0021100924
p279
aVAPR 18, 2012
p280
aVBOS vs. ORL
p281
aVW
p282
aI37
aI7
aI11
aF0.636
aI0
aI0
aF0.0
aI7
aI8
aF0.875
aI1
aI1
aI2
aI3
aI0
aI0
aI2
aI2
aI21
aI2
aa(lp283
V0021100938
p284
aVAPR 20, 2012
p285
aVBOS @ ATL
p286
aVL
p287
aI37
aI4
aI15
aF0.267
aI0
aI0
aF0.0
aI2
aI2
aF1.0
aI2
aI3
aI5
aI3
aI2
aI1
aI2
aI2
aI10
aI-8
aa(lp288
V0021100967
p289
aVAPR 24, 2012
p290
aVBOS vs. MIA
p291
aVW
p292
aI28
aI4
aI8
aF0.5
aI0
aI0
aF0.0
aI0
aI0
aF0.0
aI0
aI8
aI8
aI0
aI2
aI0
aI1
aI0
aI8
aI-4
aa(lp293
V0021100979
p294
aVAPR 26, 2012
p295
aVBOS vs. MIL
p296
aVW
p297
aI24
aI2
aI8
aF0.25
aI0
aI0
aF0.0
aI1
aI2
aF0.5
aI1
aI8
aI9
aI0
aI0
aI1
aI0
aI2
aI5
aI1
aasS'name'
p298
VBrandon Bass
p299
sS'weight'
p300
V250
p301
sS'age'
p302
I26
sS'experience'
p303
I6
sS'height'
p304
V6-8
p305
sS'position'
p306
VForward
p307
s.