(dp0
S'age'
p1
I29
sS'stats'
p2
(lp3
(lp4
V0021100005
p5
aVDEC 25, 2011
p6
aVLAC @ GSW
p7
aVW
p8
aI14
aI3
aI4
aF0.75
aI0
aI1
aF0.0
aI0
aI1
aF0.0
aI1
aI3
aI4
aI0
aI0
aI0
aI0
aI1
aI6
aI12
aa(lp9
V0021100029
p10
aVDEC 28, 2011
p11
aVLAC @ SAS
p12
aVL
p13
aI26
aI2
aI6
aF0.333
aI1
aI4
aF0.25
aI0
aI0
aF0.0
aI2
aI3
aI5
aI2
aI0
aI0
aI1
aI1
aI5
aI-6
aa(lp14
V0021100049
p15
aVDEC 30, 2011
p16
aVLAC vs. CHI
p17
aVL
p18
aI12
aI0
aI2
aF0.0
aI0
aI0
aF0.0
aI0
aI0
aF0.0
aI1
aI1
aI2
aI1
aI0
aI0
aI1
aI0
aI0
aI-18
aa(lp19
V0021100065
p20
aVJAN 01, 2012
p21
aVLAC vs. POR
p22
aVW
p23
aI12
aI1
aI1
aF1.0
aI0
aI0
aF0.0
aI0
aI0
aF0.0
aI0
aI0
aI0
aI0
aI0
aI0
aI4
aI1
aI2
aI-1
aa(lp24
V0021100093
p25
aVJAN 04, 2012
p26
aVLAC vs. HOU
p27
aVW
p28
aI22
aI3
aI6
aF0.5
aI0
aI0
aF0.0
aI0
aI0
aF0.0
aI1
aI3
aI4
aI0
aI2
aI0
aI0
aI2
aI6
aI11
aa(lp29
V0021100118
p30
aVJAN 07, 2012
p31
aVLAC vs. MIL
p32
aVW
p33
aI7
aI1
aI2
aF0.5
aI0
aI1
aF0.0
aI0
aI0
aF0.0
aI0
aI0
aI0
aI0
aI0
aI0
aI1
aI3
aI2
aI-1
aa(lp34
V0021100140
p35
aVJAN 10, 2012
p36
aVLAC @ POR
p37
aVL
p38
aI11
aI2
aI4
aF0.5
aI0
aI1
aF0.0
aI0
aI0
aF0.0
aI1
aI0
aI1
aI1
aI0
aI0
aI1
aI0
aI4
aI3
aa(lp39
V0021100153
p40
aVJAN 11, 2012
p41
aVLAC vs. MIA
p42
aVW
p43
aI5
aI0
aI2
aF0.0
aI0
aI0
aF0.0
aI0
aI0
aF0.0
aI0
aI1
aI1
aI1
aI1
aI0
aI0
aI0
aI0
aI-3
aa(lp44
V0021100180
p45
aVJAN 14, 2012
p46
aVLAC vs. LAL
p47
aVW
p48
aI16
aI0
aI2
aF0.0
aI0
aI0
aF0.0
aI1
aI2
aF0.5
aI0
aI3
aI3
aI1
aI0
aI0
aI0
aI1
aI1
aI3
aa(lp49
V0021100191
p50
aVJAN 16, 2012
p51
aVLAC vs. NJN
p52
aVW
p53
aI23
aI1
aI2
aF0.5
aI1
aI1
aF1.0
aI2
aI2
aF1.0
aI0
aI2
aI2
aI0
aI0
aI0
aI0
aI4
aI5
aI0
aa(lp54
V0021100201
p55
aVJAN 17, 2012
p56
aVLAC @ UTA
p57
aVL
p58
aI28
aI4
aI6
aF0.667
aI0
aI2
aF0.0
aI0
aI0
aF0.0
aI1
aI1
aI2
aI1
aI1
aI0
aI0
aI1
aI8
aI-18
aa(lp59
V0021100212
p60
aVJAN 18, 2012
p61
aVLAC vs. DAL
p62
aVW
p63
aI12
aI0
aI2
aF0.0
aI0
aI1
aF0.0
aI0
aI0
aF0.0
aI0
aI2
aI2
aI1
aI1
aI0
aI1
aI1
aI0
aI0
aa(lp64
V0021100225
p65
aVJAN 20, 2012
p66
aVLAC vs. MIN
p67
aVL
p68
aI36
aI4
aI12
aF0.333
aI2
aI5
aF0.4
aI1
aI2
aF0.5
aI0
aI6
aI6
aI0
aI1
aI0
aI0
aI2
aI11
aI0
aa(lp69
V0021100238
p70
aVJAN 22, 2012
p71
aVLAC vs. TOR
p72
aVW
p73
aI24
aI1
aI5
aF0.2
aI0
aI1
aF0.0
aI0
aI0
aF0.0
aI1
aI7
aI8
aI2
aI3
aI0
aI0
aI2
aI2
aI-6
aa(lp74
V0021100268
p75
aVJAN 25, 2012
p76
aVLAC @ LAL
p77
aVL
p78
aI15
aI1
aI2
aF0.5
aI0
aI1
aF0.0
aI0
aI0
aF0.0
aI0
aI0
aI0
aI0
aI0
aI0
aI1
aI1
aI2
aI-9
aa(lp79
V0021100271
p80
aVJAN 26, 2012
p81
aVLAC vs. MEM
p82
aVW
p83
aI11
aI0
aI4
aF0.0
aI0
aI2
aF0.0
aI0
aI0
aF0.0
aI0
aI1
aI1
aI0
aI2
aI0
aI2
aI0
aI0
aI0
aa(lp84
V0021100298
p85
aVJAN 29, 2012
p86
aVLAC @ DEN
p87
aVW
p88
aI4
aI0
aI1
aF0.0
aI0
aI0
aF0.0
aI0
aI0
aF0.0
aI0
aI0
aI0
aI0
aI0
aI0
aI0
aI0
aI0
aI-8
aa(lp89
V0021100325
p90
aVFEB 01, 2012
p91
aVLAC @ UTA
p92
aVW
p93
aI21
aI0
aI3
aF0.0
aI0
aI2
aF0.0
aI0
aI0
aF0.0
aI0
aI0
aI0
aI0
aI1
aI0
aI0
aI3
aI0
aI4
aa(lp94
V0021100330
p95
aVFEB 02, 2012
p96
aVLAC vs. DEN
p97
aVL
p98
aI11
aI1
aI2
aF0.5
aI0
aI0
aF0.0
aI0
aI0
aF0.0
aI0
aI0
aI0
aI0
aI0
aI0
aI0
aI0
aI2
aI0
aa(lp99
V0021100342
p100
aVFEB 04, 2012
p101
aVLAC @ WAS
p102
aVW
p103
aI21
aI1
aI3
aF0.333
aI0
aI1
aF0.0
aI0
aI0
aF0.0
aI2
aI3
aI5
aI1
aI0
aI0
aI1
aI4
aI2
aI2
aa(lp104
V0021100359
p105
aVFEB 06, 2012
p106
aVLAC @ ORL
p107
aVW
p108
aI10
aI1
aI4
aF0.25
aI0
aI0
aF0.0
aI2
aI2
aF1.0
aI1
aI0
aI1
aI0
aI2
aI0
aI0
aI0
aI4
aI3
aa(lp109
V0021100377
p110
aVFEB 08, 2012
p111
aVLAC @ CLE
p112
aVL
p113
aI9
aI1
aI2
aF0.5
aI0
aI0
aF0.0
aI0
aI0
aF0.0
aI0
aI2
aI2
aI0
aI0
aI0
aI0
aI0
aI2
aI-8
aa(lp114
V0021100389
p115
aVFEB 10, 2012
p116
aVLAC @ PHI
p117
aVW
p118
aI8
aI0
aI2
aF0.0
aI0
aI0
aF0.0
aI0
aI0
aF0.0
aI0
aI2
aI2
aI0
aI1
aI0
aI1
aI1
aI0
aI-2
aa(lp119
V0021100400
p120
aVFEB 11, 2012
p121
aVLAC @ CHA
p122
aVW
p123
aI22
aI1
aI5
aF0.2
aI0
aI2
aF0.0
aI0
aI0
aF0.0
aI1
aI3
aI4
aI1
aI1
aI0
aI0
aI3
aI2
aI2
aa(lp124
V0021100418
p125
aVFEB 13, 2012
p126
aVLAC @ DAL
p127
aVL
p128
aI7
aI1
aI2
aF0.5
aI0
aI1
aF0.0
aI0
aI0
aF0.0
aI0
aI0
aI0
aI0
aI0
aI0
aI0
aI1
aI2
aI1
aa(lp129
V0021100441
p130
aVFEB 15, 2012
p131
aVLAC vs. WAS
p132
aVW
p133
aI2
aI0
aI0
aF0.0
aI0
aI0
aF0.0
aI0
aI0
aF0.0
aI0
aI1
aI1
aI0
aI0
aI0
aI0
aI0
aI0
aI-5
aa(lp134
V0021100444
p135
aVFEB 16, 2012
p136
aVLAC @ POR
p137
aVW
p138
aI7
aI0
aI1
aF0.0
aI0
aI0
aF0.0
aI0
aI0
aF0.0
aI1
aI0
aI1
aI0
aI0
aI0
aI0
aI0
aI0
aI-3
aa(lp139
V0021100456
p140
aVFEB 18, 2012
p141
aVLAC vs. SAS
p142
aVL
p143
aI8
aI1
aI2
aF0.5
aI0
aI0
aF0.0
aI2
aI2
aF1.0
aI0
aI1
aI1
aI0
aI0
aI0
aI0
aI0
aI4
aI-8
aa(lp144
V0021100498
p145
aVFEB 22, 2012
p146
aVLAC vs. DEN
p147
aVW
p148
aI9
aI1
aI3
aF0.333
aI0
aI1
aF0.0
aI0
aI0
aF0.0
aI1
aI1
aI2
aI0
aI0
aI0
aI0
aI1
aI2
aI-1
aa(lp149
V0021100526
p150
aVMAR 01, 2012
p151
aVLAC @ SAC
p152
aVW
p153
aI3
aI0
aI1
aF0.0
aI0
aI1
aF0.0
aI0
aI0
aF0.0
aI0
aI0
aI0
aI0
aI0
aI0
aI0
aI0
aI0
aI-9
aa(lp154
V0021100676
p155
aVMAR 20, 2012
p156
aVLAC @ IND
p157
aVL
p158
aI2
aI0
aI1
aF0.0
aI0
aI1
aF0.0
aI0
aI0
aF0.0
aI0
aI1
aI1
aI0
aI0
aI0
aI1
aI0
aI0
aI1
aa(lp159
V0021100689
p160
aVMAR 21, 2012
p161
aVLAC @ OKC
p162
aVL
p163
aI4
aI0
aI1
aF0.0
aI0
aI0
aF0.0
aI0
aI0
aF0.0
aI0
aI0
aI0
aI0
aI0
aI0
aI0
aI1
aI0
aI-1
aasS'name'
p164
VRyan Gomes
p165
sS'experience'
p166
I6
s.