(dp0
S'age'
p1
I24
sS'stats'
p2
(lp3
(lp4
V0021100009
p5
aVDEC 26, 2011
p6
aVTOR @ CLE
p7
aVW
p8
aI33
aI5
aI7
aF0.714
aI0
aI0
aF0.0
aI3
aI4
aF0.75
aI4
aI9
aI13
aI3
aI1
aI3
aI3
aI4
aI13
aI8
aa(lp9
V0021100023
p10
aVDEC 28, 2011
p11
aVTOR vs. IND
p12
aVL
p13
aI29
aI1
aI2
aF0.5
aI0
aI0
aF0.0
aI0
aI0
aF0.0
aI5
aI5
aI10
aI3
aI2
aI0
aI3
aI4
aI2
aI-3
aa(lp14
V0021100047
p15
aVDEC 30, 2011
p16
aVTOR @ DAL
p17
aVL
p18
aI28
aI3
aI3
aF1.0
aI0
aI0
aF0.0
aI0
aI0
aF0.0
aI1
aI3
aI4
aI1
aI0
aI0
aI2
aI5
aI6
aI5
aa(lp19
V0021100058
p20
aVJAN 01, 2012
p21
aVTOR @ ORL
p22
aVL
p23
aI25
aI3
aI5
aF0.6
aI0
aI0
aF0.0
aI2
aI2
aF1.0
aI1
aI1
aI2
aI0
aI0
aI1
aI1
aI4
aI8
aI-21
aa(lp24
V0021100069
p25
aVJAN 02, 2012
p26
aVTOR @ NYK
p27
aVW
p28
aI25
aI2
aI4
aF0.5
aI0
aI0
aF0.0
aI1
aI2
aF0.5
aI0
aI3
aI3
aI1
aI2
aI4
aI4
aI5
aI5
aI13
aa(lp29
V0021100082
p30
aVJAN 04, 2012
p31
aVTOR vs. CLE
p32
aVW
p33
aI27
aI3
aI6
aF0.5
aI0
aI0
aF0.0
aI0
aI0
aF0.0
aI2
aI2
aI4
aI1
aI2
aI0
aI2
aI3
aI6
aI3
aa(lp34
V0021100098
p35
aVJAN 06, 2012
p36
aVTOR vs. NJN
p37
aVL
p38
aI25
aI4
aI8
aF0.5
aI0
aI0
aF0.0
aI0
aI1
aF0.0
aI4
aI6
aI10
aI0
aI0
aI2
aI3
aI2
aI8
aI-1
aa(lp39
V0021100114
p40
aVJAN 07, 2012
p41
aVTOR @ PHI
p42
aVL
p43
aI32
aI6
aI11
aF0.545
aI0
aI0
aF0.0
aI0
aI0
aF0.0
aI6
aI8
aI14
aI0
aI0
aI0
aI3
aI4
aI12
aI-16
aa(lp44
V0021100126
p45
aVJAN 09, 2012
p46
aVTOR vs. MIN
p47
aVW
p48
aI30
aI7
aI9
aF0.778
aI0
aI0
aF0.0
aI5
aI6
aF0.833
aI8
aI3
aI11
aI3
aI1
aI1
aI1
aI5
aI19
aI31
aa(lp49
V0021100133
p50
aVJAN 10, 2012
p51
aVTOR @ WAS
p52
aVL
p53
aI28
aI1
aI3
aF0.333
aI0
aI0
aF0.0
aI2
aI2
aF1.0
aI5
aI5
aI10
aI1
aI1
aI0
aI2
aI4
aI4
aI-7
aa(lp54
V0021100143
p55
aVJAN 11, 2012
p56
aVTOR vs. SAC
p57
aVL
p58
aI28
aI4
aI7
aF0.571
aI1
aI1
aF1.0
aI0
aI0
aF0.0
aI2
aI4
aI6
aI1
aI1
aI0
aI1
aI6
aI9
aI0
aa(lp59
V0021100159
p60
aVJAN 13, 2012
p61
aVTOR vs. IND
p62
aVL
p63
aI27
aI4
aI7
aF0.571
aI0
aI1
aF0.0
aI1
aI3
aF0.333
aI2
aI3
aI5
aI3
aI1
aI0
aI2
aI6
aI9
aI-1
aa(lp64
V0021100174
p65
aVJAN 14, 2012
p66
aVTOR @ CHI
p67
aVL
p68
aI28
aI3
aI11
aF0.273
aI0
aI0
aF0.0
aI0
aI2
aF0.0
aI6
aI7
aI13
aI2
aI0
aI0
aI0
aI3
aI6
aI-5
aa(lp69
V0021100189
p70
aVJAN 16, 2012
p71
aVTOR @ ATL
p72
aVL
p73
aI25
aI5
aI9
aF0.556
aI0
aI0
aF0.0
aI3
aI5
aF0.6
aI5
aI5
aI10
aI2
aI1
aI1
aI3
aI5
aI13
aI1
aa(lp74
V0021100205
p75
aVJAN 18, 2012
p76
aVTOR @ BOS
p77
aVL
p78
aI20
aI2
aI3
aF0.667
aI0
aI0
aF0.0
aI0
aI0
aF0.0
aI2
aI4
aI6
aI3
aI0
aI0
aI1
aI5
aI4
aI-9
aa(lp79
V0021100216
p80
aVJAN 20, 2012
p81
aVTOR vs. POR
p82
aVL
p83
aI24
aI0
aI1
aF0.0
aI0
aI0
aF0.0
aI0
aI0
aF0.0
aI0
aI4
aI4
aI0
aI0
aI2
aI2
aI3
aI0
aI-1
aa(lp84
V0021100238
p85
aVJAN 22, 2012
p86
aVTOR @ LAC
p87
aVL
p88
aI7
aI0
aI0
aF0.0
aI0
aI0
aF0.0
aI1
aI2
aF0.5
aI0
aI1
aI1
aI0
aI0
aI0
aI1
aI2
aI1
aI-11
aa(lp89
V0021100255
p90
aVJAN 24, 2012
p91
aVTOR @ PHX
p92
aVW
p93
aI13
aI2
aI5
aF0.4
aI0
aI0
aF0.0
aI1
aI2
aF0.5
aI2
aI1
aI3
aI0
aI0
aI0
aI1
aI3
aI5
aI-1
aa(lp94
V0021100266
p95
aVJAN 25, 2012
p96
aVTOR @ UTA
p97
aVW
p98
aI24
aI3
aI5
aF0.6
aI0
aI0
aF0.0
aI0
aI0
aF0.0
aI1
aI0
aI1
aI0
aI1
aI3
aI3
aI4
aI6
aI7
aa(lp99
V0021100282
p100
aVJAN 27, 2012
p101
aVTOR @ DEN
p102
aVL
p103
aI15
aI2
aI4
aF0.5
aI0
aI0
aF0.0
aI0
aI0
aF0.0
aI1
aI1
aI2
aI1
aI0
aI1
aI0
aI4
aI4
aI-7
aa(lp104
V0021100293
p105
aVJAN 29, 2012
p106
aVTOR @ NJN
p107
aVW
p108
aI19
aI3
aI3
aF1.0
aI0
aI0
aF0.0
aI0
aI0
aF0.0
aI2
aI2
aI4
aI2
aI0
aI0
aI2
aI0
aI6
aI6
aa(lp109
V0021100308
p110
aVJAN 31, 2012
p111
aVTOR vs. ATL
p112
aVL
p113
aI14
aI1
aI1
aF1.0
aI0
aI0
aF0.0
aI0
aI0
aF0.0
aI0
aI1
aI1
aI0
aI1
aI0
aI0
aI1
aI2
aI-14
aa(lp114
V0021100317
p115
aVFEB 01, 2012
p116
aVTOR @ BOS
p117
aVL
p118
aI19
aI0
aI2
aF0.0
aI0
aI0
aF0.0
aI0
aI0
aF0.0
aI1
aI2
aI3
aI0
aI1
aI0
aI0
aI1
aI0
aI-10
aa(lp119
V0021100332
p120
aVFEB 03, 2012
p121
aVTOR vs. WAS
p122
aVW
p123
aI27
aI8
aI13
aF0.615
aI0
aI1
aF0.0
aI2
aI2
aF1.0
aI7
aI6
aI13
aI2
aI0
aI3
aI0
aI3
aI18
aI23
aa(lp124
V0021100356
p125
aVFEB 05, 2012
p126
aVTOR @ MIA
p127
aVL
p128
aI19
aI1
aI3
aF0.333
aI0
aI0
aF0.0
aI0
aI0
aF0.0
aI1
aI5
aI6
aI0
aI0
aI0
aI0
aI5
aI2
aI7
aa(lp129
V0021100358
p130
aVFEB 06, 2012
p131
aVTOR @ WAS
p132
aVL
p133
aI21
aI1
aI7
aF0.143
aI0
aI0
aF0.0
aI4
aI4
aF1.0
aI9
aI1
aI10
aI0
aI0
aI0
aI1
aI5
aI6
aI-12
aa(lp134
V0021100373
p135
aVFEB 08, 2012
p136
aVTOR vs. MIL
p137
aVL
p138
aI25
aI3
aI5
aF0.6
aI0
aI0
aF0.0
aI1
aI1
aF1.0
aI1
aI5
aI6
aI1
aI0
aI1
aI2
aI4
aI7
aI2
aa(lp139
V0021100388
p140
aVFEB 10, 2012
p141
aVTOR vs. BOS
p142
aVW
p143
aI37
aI4
aI4
aF1.0
aI0
aI0
aF0.0
aI4
aI6
aF0.667
aI4
aI8
aI12
aI1
aI1
aI2
aI1
aI3
aI12
aI14
aa(lp144
V0021100408
p145
aVFEB 12, 2012
p146
aVTOR vs. LAL
p147
aVL
p148
aI16
aI0
aI0
aF0.0
aI0
aI0
aF0.0
aI0
aI0
aF0.0
aI0
aI2
aI2
aI0
aI1
aI0
aI0
aI2
aI0
aI-11
aa(lp149
V0021100420
p150
aVFEB 14, 2012
p151
aVTOR vs. NYK
p152
aVL
p153
aI32
aI5
aI7
aF0.714
aI0
aI0
aF0.0
aI0
aI2
aF0.0
aI0
aI4
aI4
aI2
aI0
aI5
aI1
aI4
aI10
aI-4
aa(lp154
V0021100429
p155
aVFEB 15, 2012
p156
aVTOR vs. SAS
p157
aVL
p158
aI23
aI5
aI5
aF1.0
aI0
aI0
aF0.0
aI0
aI0
aF0.0
aI1
aI6
aI7
aI3
aI1
aI0
aI2
aI4
aI10
aI-9
aa(lp159
V0021100445
p160
aVFEB 17, 2012
p161
aVTOR vs. CHA
p162
aVL
p163
aI38
aI3
aI9
aF0.333
aI0
aI0
aF0.0
aI0
aI0
aF0.0
aI7
aI8
aI15
aI3
aI0
aI2
aI1
aI3
aI6
aI-4
aa(lp164
V0021100486
p165
aVFEB 22, 2012
p166
aVTOR vs. DET
p167
aVW
p168
aI25
aI5
aI7
aF0.714
aI0
aI0
aF0.0
aI1
aI1
aF1.0
aI0
aI4
aI4
aI1
aI0
aI2
aI1
aI3
aI11
aI10
aa(lp169
V0021100508
p170
aVFEB 28, 2012
p171
aVTOR @ HOU
p172
aVL
p173
aI29
aI5
aI7
aF0.714
aI0
aI0
aF0.0
aI0
aI0
aF0.0
aI1
aI5
aI6
aI0
aI0
aI1
aI2
aI2
aI10
aI-4
aa(lp174
V0021100519
p175
aVFEB 29, 2012
p176
aVTOR @ NOH
p177
aVW
p178
aI35
aI2
aI6
aF0.333
aI0
aI0
aF0.0
aI3
aI4
aF0.75
aI4
aI3
aI7
aI4
aI2
aI5
aI2
aI4
aI7
aI4
aa(lp179
V0021100528
p180
aVMAR 02, 2012
p181
aVTOR vs. MEM
p182
aVL
p183
aI25
aI5
aI7
aF0.714
aI0
aI1
aF0.0
aI0
aI0
aF0.0
aI0
aI5
aI5
aI3
aI0
aI0
aI2
aI5
aI10
aI-2
aa(lp184
V0021100548
p185
aVMAR 04, 2012
p186
aVTOR vs. GSW
p187
aVW
p188
aI30
aI4
aI8
aF0.5
aI0
aI0
aF0.0
aI3
aI4
aF0.75
aI0
aI13
aI13
aI1
aI0
aI3
aI2
aI1
aI11
aI3
aa(lp189
V0021100569
p190
aVMAR 07, 2012
p191
aVTOR vs. HOU
p192
aVW
p193
aI29
aI7
aI10
aF0.7
aI0
aI0
aF0.0
aI0
aI0
aF0.0
aI1
aI7
aI8
aI2
aI0
aI3
aI1
aI4
aI14
aI22
aa(lp194
V0021100596
p195
aVMAR 10, 2012
p196
aVTOR @ DET
p197
aVL
p198
aI17
aI1
aI2
aF0.5
aI0
aI0
aF0.0
aI4
aI4
aF1.0
aI0
aI5
aI5
aI0
aI0
aI0
aI1
aI1
aI6
aI-10
aa(lp199
V0021100605
p200
aVMAR 11, 2012
p201
aVTOR vs. MIL
p202
aVL
p203
aI26
aI6
aI7
aF0.857
aI0
aI0
aF0.0
aI0
aI0
aF0.0
aI4
aI2
aI6
aI2
aI0
aI0
aI1
aI5
aI12
aI0
aa(lp204
V0021100619
p205
aVMAR 13, 2012
p206
aVTOR @ CLE
p207
aVW
p208
aI23
aI4
aI4
aF1.0
aI0
aI0
aF0.0
aI2
aI4
aF0.5
aI2
aI7
aI9
aI3
aI0
aI1
aI4
aI4
aI10
aI9
aa(lp209
V0021100627
p210
aVMAR 14, 2012
p211
aVTOR @ NJN
p212
aVL
p213
aI25
aI2
aI7
aF0.286
aI0
aI0
aF0.0
aI2
aI2
aF1.0
aI4
aI5
aI9
aI0
aI1
aI0
aI2
aI1
aI6
aI-1
aa(lp214
V0021100648
p215
aVMAR 16, 2012
p216
aVTOR @ MEM
p217
aVW
p218
aI26
aI4
aI4
aF1.0
aI0
aI0
aF0.0
aI1
aI2
aF0.5
aI2
aI3
aI5
aI0
aI1
aI1
aI1
aI5
aI9
aI1
aa(lp219
V0021100655
p220
aVMAR 17, 2012
p221
aVTOR @ CHA
p222
aVL
p223
aI18
aI1
aI1
aF1.0
aI0
aI0
aF0.0
aI4
aI4
aF1.0
aI2
aI1
aI3
aI4
aI1
aI3
aI2
aI3
aI6
aI14
aa(lp224
V0021100677
p225
aVMAR 20, 2012
p226
aVTOR @ NYK
p227
aVL
p228
aI23
aI3
aI4
aF0.75
aI0
aI0
aF0.0
aI0
aI0
aF0.0
aI0
aI3
aI3
aI1
aI1
aI0
aI3
aI0
aI6
aI-2
aa(lp229
V0021100683
p230
aVMAR 21, 2012
p231
aVTOR vs. CHI
p232
aVL
p233
aI25
aI3
aI6
aF0.5
aI0
aI0
aF0.0
aI0
aI0
aF0.0
aI2
aI3
aI5
aI1
aI2
aI1
aI0
aI2
aI6
aI-4
aa(lp234
V0021100699
p235
aVMAR 23, 2012
p236
aVTOR vs. NYK
p237
aVW
p238
aI26
aI2
aI5
aF0.4
aI0
aI0
aF0.0
aI0
aI0
aF0.0
aI2
aI4
aI6
aI0
aI0
aI4
aI3
aI3
aI4
aI10
aa(lp239
V0021100714
p240
aVMAR 24, 2012
p241
aVTOR @ CHI
p242
aVL
p243
aI29
aI4
aI6
aF0.667
aI0
aI0
aF0.0
aI2
aI2
aF1.0
aI4
aI4
aI8
aI0
aI0
aI2
aI0
aI3
aI10
aI-6
aa(lp244
V0021100727
p245
aVMAR 26, 2012
p246
aVTOR vs. ORL
p247
aVL
p248
aI18
aI2
aI5
aF0.4
aI0
aI0
aF0.0
aI0
aI0
aF0.0
aI2
aI3
aI5
aI3
aI1
aI0
aI0
aI4
aI4
aI-8
aa(lp249
V0021100743
p250
aVMAR 28, 2012
p251
aVTOR vs. DEN
p252
aVW
p253
aI25
aI2
aI5
aF0.4
aI0
aI0
aF0.0
aI0
aI0
aF0.0
aI3
aI5
aI8
aI0
aI0
aI2
aI1
aI4
aI4
aI6
aa(lp254
V0021100757
p255
aVMAR 30, 2012
p256
aVTOR vs. MIA
p257
aVL
p258
aI30
aI6
aI8
aF0.75
aI0
aI0
aF0.0
aI0
aI0
aF0.0
aI6
aI6
aI12
aI2
aI1
aI0
aI2
aI3
aI12
aI12
aa(lp259
V0021100779
p260
aVAPR 01, 2012
p261
aVTOR vs. WAS
p262
aVW
p263
aI28
aI5
aI7
aF0.714
aI0
aI0
aF0.0
aI0
aI0
aF0.0
aI3
aI3
aI6
aI0
aI1
aI0
aI1
aI3
aI10
aI1
aa(lp264
V0021100791
p265
aVAPR 03, 2012
p266
aVTOR vs. CHA
p267
aVW
p268
aI12
aI0
aI0
aF0.0
aI0
aI0
aF0.0
aI0
aI0
aF0.0
aI0
aI3
aI3
aI1
aI0
aI0
aI0
aI4
aI0
aI2
aa(lp269
V0021100799
p270
aVAPR 04, 2012
p271
aVTOR @ PHI
p272
aVW
p273
aI15
aI2
aI2
aF1.0
aI0
aI0
aF0.0
aI0
aI0
aF0.0
aI1
aI3
aI4
aI0
aI0
aI0
aI1
aI0
aI4
aI-1
aa(lp274
V0021100816
p275
aVAPR 06, 2012
p276
aVTOR vs. CLE
p277
aVL
p278
aI21
aI1
aI1
aF1.0
aI0
aI0
aF0.0
aI1
aI4
aF0.25
aI1
aI4
aI5
aI1
aI2
aI1
aI0
aI4
aI3
aI6
aa(lp279
V0021100840
p280
aVAPR 08, 2012
p281
aVTOR @ OKC
p282
aVL
p283
aI15
aI1
aI2
aF0.5
aI0
aI0
aF0.0
aI0
aI0
aF0.0
aI1
aI3
aI4
aI0
aI0
aI2
aI3
aI3
aI2
aI-5
aa(lp284
V0021100844
p285
aVAPR 09, 2012
p286
aVTOR @ IND
p287
aVL
p288
aI33
aI7
aI9
aF0.778
aI1
aI1
aF1.0
aI1
aI2
aF0.5
aI3
aI4
aI7
aI3
aI1
aI0
aI0
aI2
aI16
aI-1
aa(lp289
V0021100858
p290
aVAPR 11, 2012
p291
aVTOR vs. PHI
p292
aVL
p293
aI26
aI1
aI8
aF0.125
aI0
aI0
aF0.0
aI0
aI0
aF0.0
aI1
aI5
aI6
aI0
aI0
aI3
aI1
aI4
aI2
aI-9
aa(lp294
V0021100874
p295
aVAPR 13, 2012
p296
aVTOR vs. BOS
p297
aVW
p298
aI40
aI4
aI8
aF0.5
aI0
aI0
aF0.0
aI2
aI2
aF1.0
aI3
aI6
aI9
aI1
aI1
aI2
aI1
aI4
aI10
aI7
aa(lp299
V0021100896
p300
aVAPR 15, 2012
p301
aVTOR @ ATL
p302
aVW
p303
aI22
aI4
aI6
aF0.667
aI0
aI0
aF0.0
aI0
aI0
aF0.0
aI1
aI3
aI4
aI2
aI0
aI1
aI1
aI4
aI8
aI6
aa(lp304
V0021100902
p305
aVAPR 16, 2012
p306
aVTOR vs. ATL
p307
aVL
p308
aI24
aI4
aI8
aF0.5
aI0
aI0
aF0.0
aI0
aI0
aF0.0
aI2
aI6
aI8
aI1
aI0
aI0
aI2
aI3
aI8
aI-13
aa(lp309
V0021100923
p310
aVAPR 18, 2012
p311
aVTOR @ MIA
p312
aVL
p313
aI21
aI1
aI4
aF0.25
aI0
aI0
aF0.0
aI1
aI1
aF1.0
aI2
aI2
aI4
aI1
aI0
aI0
aI3
aI1
aI3
aI-8
aa(lp314
V0021100955
p315
aVAPR 22, 2012
p316
aVTOR @ DET
p317
aVL
p318
aI14
aI1
aI3
aF0.333
aI0
aI0
aF0.0
aI0
aI0
aF0.0
aI0
aI2
aI2
aI1
aI0
aI1
aI1
aI1
aI2
aI-8
aa(lp319
V0021100963
p320
aVAPR 23, 2012
p321
aVTOR @ MIL
p322
aVL
p323
aI16
aI3
aI4
aF0.75
aI0
aI0
aF0.0
aI1
aI2
aF0.5
aI2
aI2
aI4
aI2
aI0
aI0
aI2
aI3
aI7
aI10
aasS'name'
p324
VAmir Johnson
p325
sS'experience'
p326
I6
s.