(dp0
S'age'
p1
I27
sS'stats'
p2
(lp3
(lp4
V0021100965
p5
aVAPR 23, 2012
p6
aVPOR @ SAS
p7
aVL
p8
aI34
aI5
aI16
aF0.313
aI1
aI2
aF0.5
aI2
aI2
aF1.0
aI1
aI2
aI3
aI7
aI2
aI0
aI4
aI2
aI13
aI-29
aa(lp9
V0021100899
p10
aVAPR 15, 2012
p11
aVPOR @ SAC
p12
aVL
p13
aI29
aI8
aI17
aF0.471
aI2
aI7
aF0.286
aI1
aI1
aF1.0
aI0
aI2
aI2
aI4
aI1
aI0
aI4
aI1
aI19
aI-3
aa(lp14
V0021100885
p15
aVAPR 13, 2012
p16
aVPOR vs. DAL
p17
aVL
p18
aI36
aI5
aI11
aF0.455
aI0
aI3
aF0.0
aI2
aI2
aF1.0
aI0
aI0
aI0
aI4
aI0
aI0
aI5
aI1
aI12
aI-9
aa(lp19
V0021100868
p20
aVAPR 11, 2012
p21
aVPOR vs. GSW
p22
aVW
p23
aI33
aI6
aI11
aF0.545
aI2
aI3
aF0.667
aI2
aI2
aF1.0
aI1
aI0
aI1
aI10
aI1
aI0
aI4
aI0
aI16
aI14
aa(lp24
V0021100851
p25
aVAPR 09, 2012
p26
aVPOR vs. HOU
p27
aVL
p28
aI32
aI6
aI11
aF0.545
aI2
aI3
aF0.667
aI0
aI0
aF0.0
aI0
aI2
aI2
aI8
aI2
aI0
aI3
aI3
aI14
aI14
aa(lp29
V0021100831
p30
aVAPR 07, 2012
p31
aVPOR @ MIL
p32
aVL
p33
aI32
aI4
aI11
aF0.364
aI0
aI3
aF0.0
aI2
aI2
aF1.0
aI0
aI0
aI0
aI10
aI1
aI0
aI5
aI1
aI10
aI-9
aa(lp34
V0021100821
p35
aVAPR 06, 2012
p36
aVPOR @ DAL
p37
aVW
p38
aI43
aI12
aI18
aF0.667
aI5
aI8
aF0.625
aI1
aI1
aF1.0
aI1
aI6
aI7
aI6
aI2
aI0
aI2
aI1
aI30
aI20
aa(lp39
V0021100809
p40
aVAPR 04, 2012
p41
aVPOR vs. NJN
p42
aVW
p43
aI33
aI5
aI8
aF0.625
aI3
aI4
aF0.75
aI1
aI2
aF0.5
aI0
aI8
aI8
aI9
aI2
aI1
aI3
aI0
aI14
aI38
aa(lp44
V0021100790
p45
aVAPR 02, 2012
p46
aVPOR vs. UTA
p47
aVL
p48
aI34
aI2
aI10
aF0.2
aI0
aI2
aF0.0
aI0
aI0
aF0.0
aI1
aI8
aI9
aI8
aI1
aI0
aI4
aI3
aI4
aI-4
aa(lp49
V0021100783
p50
aVAPR 01, 2012
p51
aVPOR vs. MIN
p52
aVW
p53
aI30
aI4
aI11
aF0.364
aI1
aI3
aF0.333
aI1
aI1
aF1.0
aI4
aI4
aI8
aI11
aI1
aI0
aI2
aI2
aI10
aI3
aa(lp54
V0021100767
p55
aVMAR 30, 2012
p56
aVPOR @ LAC
p57
aVL
p58
aI33
aI3
aI9
aF0.333
aI1
aI2
aF0.5
aI2
aI2
aF1.0
aI2
aI0
aI2
aI8
aI1
aI0
aI4
aI3
aI9
aI-11
aa(lp59
V0021100755
p60
aVMAR 29, 2012
p61
aVPOR vs. NOH
p62
aVW
p63
aI33
aI5
aI10
aF0.5
aI2
aI3
aF0.667
aI0
aI2
aF0.0
aI0
aI4
aI4
aI10
aI3
aI0
aI2
aI1
aI12
aI10
aa(lp64
V0021100725
p65
aVMAR 25, 2012
p66
aVPOR vs. GSW
p67
aVW
p68
aI34
aI9
aI17
aF0.529
aI4
aI7
aF0.571
aI2
aI4
aF0.5
aI2
aI3
aI5
aI7
aI2
aI1
aI1
aI1
aI24
aI15
aa(lp69
V0021100709
p70
aVMAR 23, 2012
p71
aVPOR @ LAL
p72
aVL
p73
aI31
aI2
aI11
aF0.182
aI1
aI2
aF0.5
aI1
aI1
aF1.0
aI0
aI2
aI2
aI6
aI0
aI0
aI2
aI3
aI6
aI-15
aa(lp74
V0021100698
p75
aVMAR 22, 2012
p76
aVPOR vs. MEM
p77
aVW
p78
aI33
aI5
aI13
aF0.385
aI0
aI2
aF0.0
aI3
aI3
aF1.0
aI0
aI4
aI4
aI9
aI1
aI1
aI0
aI3
aI13
aI-4
aa(lp79
V0021100682
p80
aVMAR 20, 2012
p81
aVPOR vs. MIL
p82
aVL
p83
aI32
aI7
aI11
aF0.636
aI1
aI3
aF0.333
aI3
aI4
aF0.75
aI0
aI0
aI0
aI9
aI1
aI1
aI6
aI2
aI18
aI-9
aa(lp84
V0021100668
p85
aVMAR 18, 2012
p86
aVPOR @ OKC
p87
aVL
p88
aI34
aI6
aI10
aF0.6
aI2
aI3
aF0.667
aI5
aI7
aF0.714
aI1
aI2
aI3
aI7
aI2
aI0
aI4
aI0
aI19
aI-17
aa(lp89
V0021100647
p90
aVMAR 16, 2012
p91
aVPOR @ CHI
p92
aVW
p93
aI30
aI6
aI11
aF0.545
aI1
aI2
aF0.5
aI3
aI3
aF1.0
aI0
aI1
aI1
aI5
aI0
aI1
aI1
aI1
aI16
aI5
aa(lp94
V0021100628
p95
aVMAR 14, 2012
p96
aVPOR @ NYK
p97
aVL
p98
aI33
aI2
aI10
aF0.2
aI0
aI3
aF0.0
aI5
aI6
aF0.833
aI1
aI2
aI3
aI3
aI6
aI1
aI5
aI2
aI9
aI-14
aa(lp99
V0021100620
p100
aVMAR 13, 2012
p101
aVPOR @ IND
p102
aVL
p103
aI27
aI2
aI8
aF0.25
aI0
aI2
aF0.0
aI1
aI1
aF1.0
aI0
aI3
aI3
aI2
aI0
aI0
aI3
aI1
aI5
aI-12
aa(lp104
V0021100594
p105
aVMAR 10, 2012
p106
aVPOR @ WAS
p107
aVW
p108
aI32
aI6
aI14
aF0.429
aI0
aI2
aF0.0
aI9
aI10
aF0.9
aI0
aI2
aI2
aI5
aI2
aI0
aI0
aI4
aI21
aI8
aa(lp109
V0021100586
p110
aVMAR 09, 2012
p111
aVPOR @ BOS
p112
aVL
p113
aI27
aI2
aI5
aF0.4
aI2
aI3
aF0.667
aI2
aI2
aF1.0
aI0
aI1
aI1
aI4
aI1
aI0
aI5
aI3
aI8
aI-27
aa(lp114
V0021100577
p115
aVMAR 07, 2012
p116
aVPOR @ MIN
p117
aVL
p118
aI34
aI11
aI18
aF0.611
aI1
aI4
aF0.25
aI0
aI0
aF0.0
aI1
aI3
aI4
aI9
aI0
aI0
aI3
aI4
aI23
aI-15
aa(lp119
V0021100562
p120
aVMAR 05, 2012
p121
aVPOR vs. NOH
p122
aVW
p123
aI30
aI5
aI10
aF0.5
aI1
aI5
aF0.2
aI0
aI0
aF0.0
aI0
aI0
aI0
aI10
aI2
aI0
aI1
aI2
aI11
aI23
aa(lp124
V0021100545
p125
aVMAR 03, 2012
p126
aVPOR vs. MIN
p127
aVL
p128
aI31
aI1
aI9
aF0.111
aI0
aI3
aF0.0
aI0
aI0
aF0.0
aI0
aI1
aI1
aI4
aI1
aI0
aI1
aI3
aI2
aI2
aa(lp129
V0021100527
p130
aVMAR 01, 2012
p131
aVPOR vs. MIA
p132
aVL
p133
aI16
aI1
aI4
aF0.25
aI1
aI2
aF0.5
aI0
aI0
aF0.0
aI0
aI0
aI0
aI3
aI1
aI0
aI1
aI2
aI3
aI5
aa(lp134
V0021100521
p135
aVFEB 29, 2012
p136
aVPOR @ DEN
p137
aVL
p138
aI24
aI3
aI8
aF0.375
aI0
aI0
aF0.0
aI0
aI0
aF0.0
aI0
aI2
aI2
aI7
aI1
aI0
aI1
aI3
aI6
aI0
aa(lp139
V0021100485
p140
aVFEB 21, 2012
p141
aVPOR vs. SAS
p142
aVW
p143
aI21
aI6
aI11
aF0.545
aI4
aI8
aF0.5
aI0
aI0
aF0.0
aI0
aI1
aI1
aI4
aI0
aI0
aI1
aI2
aI16
aI29
aa(lp144
V0021100479
p145
aVFEB 20, 2012
p146
aVPOR @ LAL
p147
aVL
p148
aI19
aI3
aI4
aF0.75
aI2
aI2
aF1.0
aI1
aI2
aF0.5
aI0
aI0
aI0
aI4
aI2
aI0
aI4
aI2
aI9
aI-13
aa(lp149
V0021100459
p150
aVFEB 18, 2012
p151
aVPOR vs. ATL
p152
aVW
p153
aI33
aI6
aI11
aF0.545
aI2
aI5
aF0.4
aI0
aI0
aF0.0
aI0
aI3
aI3
aI8
aI0
aI0
aI2
aI0
aI14
aI13
aa(lp154
V0021100444
p155
aVFEB 16, 2012
p156
aVPOR vs. LAC
p157
aVL
p158
aI24
aI0
aI7
aF0.0
aI0
aI1
aF0.0
aI0
aI0
aF0.0
aI1
aI1
aI2
aI2
aI1
aI0
aI5
aI0
aI0
aI3
aa(lp159
V0021100440
p160
aVFEB 15, 2012
p161
aVPOR @ GSW
p162
aVW
p163
aI39
aI4
aI15
aF0.267
aI2
aI5
aF0.4
aI0
aI0
aF0.0
aI2
aI1
aI3
aI6
aI1
aI0
aI2
aI1
aI10
aI5
aa(lp164
V0021100427
p165
aVFEB 14, 2012
p166
aVPOR vs. WAS
p167
aVL
p168
aI28
aI2
aI5
aF0.4
aI0
aI1
aF0.0
aI0
aI0
aF0.0
aI0
aI1
aI1
aI6
aI1
aI0
aI2
aI3
aI4
aI1
aa(lp169
V0021100405
p170
aVFEB 11, 2012
p171
aVPOR @ DAL
p172
aVL
p173
aI39
aI4
aI17
aF0.235
aI1
aI6
aF0.167
aI0
aI1
aF0.0
aI0
aI2
aI2
aI2
aI2
aI0
aI3
aI0
aI9
aI-5
aa(lp174
V0021100397
p175
aVFEB 10, 2012
p176
aVPOR @ NOH
p177
aVW
p178
aI35
aI6
aI10
aF0.6
aI1
aI2
aF0.5
aI5
aI5
aF1.0
aI1
aI0
aI1
aI6
aI1
aI0
aI5
aI3
aI18
aI7
aa(lp179
V0021100383
p180
aVFEB 08, 2012
p181
aVPOR vs. HOU
p182
aVL
p183
aI33
aI4
aI11
aF0.364
aI0
aI3
aF0.0
aI1
aI3
aF0.333
aI0
aI0
aI0
aI6
aI1
aI0
aI5
aI2
aI9
aI-2
aa(lp184
V0021100354
p185
aVFEB 04, 2012
p186
aVPOR vs. DEN
p187
aVW
p188
aI24
aI2
aI6
aF0.333
aI1
aI3
aF0.333
aI1
aI1
aF1.0
aI0
aI0
aI0
aI4
aI1
aI0
aI1
aI1
aI6
aI1
aa(lp189
V0021100329
p190
aVFEB 02, 2012
p191
aVPOR @ SAC
p192
aVL
p193
aI36
aI7
aI17
aF0.412
aI1
aI7
aF0.143
aI0
aI0
aF0.0
aI0
aI4
aI4
aI10
aI3
aI0
aI1
aI3
aI15
aI-13
aa(lp194
V0021100324
p195
aVFEB 01, 2012
p196
aVPOR vs. CHA
p197
aVW
p198
aI31
aI5
aI8
aF0.625
aI1
aI3
aF0.333
aI0
aI0
aF0.0
aI0
aI3
aI3
aI7
aI2
aI0
aI3
aI3
aI11
aI41
aa(lp199
V0021100305
p200
aVJAN 30, 2012
p201
aVPOR @ UTA
p202
aVL
p203
aI30
aI2
aI9
aF0.222
aI1
aI5
aF0.2
aI3
aI3
aF1.0
aI1
aI3
aI4
aI7
aI2
aI0
aI2
aI2
aI8
aI-4
aa(lp204
V0021100283
p205
aVJAN 27, 2012
p206
aVPOR vs. PHX
p207
aVW
p208
aI23
aI2
aI7
aF0.286
aI0
aI1
aF0.0
aI0
aI0
aF0.0
aI1
aI1
aI2
aI3
aI3
aI0
aI4
aI3
aI4
aI17
aa(lp209
V0021100269
p210
aVJAN 25, 2012
p211
aVPOR @ GSW
p212
aVL
p213
aI30
aI2
aI10
aF0.2
aI1
aI4
aF0.25
aI0
aI0
aF0.0
aI0
aI0
aI0
aI7
aI1
aI1
aI1
aI4
aI5
aI6
aa(lp214
V0021100256
p215
aVJAN 24, 2012
p216
aVPOR vs. MEM
p217
aVW
p218
aI30
aI2
aI6
aF0.333
aI1
aI4
aF0.25
aI5
aI6
aF0.833
aI0
aI0
aI0
aI2
aI0
aI0
aI6
aI1
aI10
aI17
aa(lp219
V0021100250
p220
aVJAN 23, 2012
p221
aVPOR vs. SAC
p222
aVW
p223
aI33
aI5
aI12
aF0.417
aI1
aI4
aF0.25
aI0
aI0
aF0.0
aI1
aI4
aI5
aI5
aI1
aI0
aI2
aI2
aI11
aI12
aa(lp224
V0021100230
p225
aVJAN 21, 2012
p226
aVPOR @ DET
p227
aVL
p228
aI38
aI6
aI9
aF0.667
aI1
aI4
aF0.25
aI7
aI8
aF0.875
aI0
aI1
aI1
aI9
aI2
aI0
aI2
aI0
aI20
aI6
aa(lp229
V0021100216
p230
aVJAN 20, 2012
p231
aVPOR @ TOR
p232
aVW
p233
aI35
aI6
aI9
aF0.667
aI2
aI4
aF0.5
aI0
aI0
aF0.0
aI0
aI1
aI1
aI5
aI0
aI0
aI2
aI3
aI14
aI6
aa(lp234
V0021100208
p235
aVJAN 18, 2012
p236
aVPOR @ ATL
p237
aVL
p238
aI30
aI3
aI9
aF0.333
aI1
aI2
aF0.5
aI2
aI2
aF1.0
aI0
aI1
aI1
aI8
aI1
aI0
aI1
aI2
aI9
aI-5
aa(lp239
V0021100190
p240
aVJAN 16, 2012
p241
aVPOR @ NOH
p242
aVW
p243
aI37
aI1
aI8
aF0.125
aI0
aI3
aF0.0
aI0
aI0
aF0.0
aI0
aI4
aI4
aI12
aI3
aI0
aI8
aI3
aI2
aI7
aa(lp244
V0021100176
p245
aVJAN 14, 2012
p246
aVPOR @ HOU
p247
aVL
p248
aI40
aI6
aI12
aF0.5
aI0
aI6
aF0.0
aI1
aI2
aF0.5
aI1
aI3
aI4
aI5
aI0
aI2
aI2
aI4
aI13
aI2
aa(lp249
V0021100166
p250
aVJAN 13, 2012
p251
aVPOR @ SAS
p252
aVL
p253
aI36
aI6
aI17
aF0.353
aI1
aI4
aF0.25
aI0
aI0
aF0.0
aI0
aI1
aI1
aI7
aI5
aI1
aI1
aI3
aI13
aI1
aa(lp254
V0021100152
p255
aVJAN 11, 2012
p256
aVPOR vs. ORL
p257
aVL
p258
aI30
aI2
aI11
aF0.182
aI1
aI3
aF0.333
aI2
aI2
aF1.0
aI0
aI2
aI2
aI8
aI0
aI0
aI2
aI1
aI7
aI-14
aa(lp259
V0021100140
p260
aVJAN 10, 2012
p261
aVPOR vs. LAC
p262
aVW
p263
aI38
aI5
aI10
aF0.5
aI1
aI2
aF0.5
aI6
aI8
aF0.75
aI0
aI1
aI1
aI8
aI3
aI0
aI3
aI3
aI17
aI3
aa(lp264
V0021100124
p265
aVJAN 08, 2012
p266
aVPOR vs. CLE
p267
aVW
p268
aI30
aI1
aI9
aF0.111
aI0
aI3
aF0.0
aI0
aI0
aF0.0
aI2
aI2
aI4
aI7
aI1
aI0
aI5
aI2
aI2
aI16
aa(lp269
V0021100108
p270
aVJAN 06, 2012
p271
aVPOR @ PHX
p272
aVL
p273
aI28
aI3
aI7
aF0.429
aI0
aI3
aF0.0
aI3
aI4
aF0.75
aI0
aI1
aI1
aI2
aI1
aI0
aI1
aI2
aI9
aI-19
aa(lp274
V0021100097
p275
aVJAN 05, 2012
p276
aVPOR vs. LAL
p277
aVW
p278
aI41
aI3
aI14
aF0.214
aI0
aI3
aF0.0
aI2
aI2
aF1.0
aI0
aI4
aI4
aI10
aI0
aI0
aI1
aI1
aI8
aI11
aa(lp279
V0021100079
p280
aVJAN 03, 2012
p281
aVPOR @ OKC
p282
aVW
p283
aI36
aI4
aI11
aF0.364
aI1
aI3
aF0.333
aI3
aI4
aF0.75
aI1
aI3
aI4
aI7
aI0
aI0
aI2
aI1
aI12
aI10
aa(lp284
V0021100065
p285
aVJAN 01, 2012
p286
aVPOR @ LAC
p287
aVL
p288
aI38
aI4
aI10
aF0.4
aI0
aI4
aF0.0
aI4
aI4
aF1.0
aI0
aI1
aI1
aI8
aI0
aI0
aI6
aI3
aI12
aI1
aa(lp289
V0021100037
p290
aVDEC 29, 2011
p291
aVPOR vs. DEN
p292
aVW
p293
aI34
aI10
aI16
aF0.625
aI1
aI3
aF0.333
aI2
aI2
aF1.0
aI1
aI4
aI5
aI6
aI0
aI0
aI4
aI3
aI23
aI7
aa(lp294
V0021100021
p295
aVDEC 27, 2011
p296
aVPOR vs. SAC
p297
aVW
p298
aI26
aI2
aI8
aF0.25
aI1
aI3
aF0.333
aI0
aI1
aF0.0
aI0
aI1
aI1
aI6
aI2
aI0
aI2
aI3
aI5
aI9
aa(lp299
V0021100016
p300
aVDEC 26, 2011
p301
aVPOR vs. PHI
p302
aVW
p303
aI35
aI4
aI14
aF0.286
aI0
aI3
aF0.0
aI4
aI6
aF0.667
aI0
aI6
aI6
aI8
aI1
aI0
aI3
aI4
aI12
aI6
aasS'name'
p304
VRaymond Felton
p305
sS'experience'
p306
I6
s.