(dp0
S'stats'
p1
(lp2
(lp3
V0021100727
p4
aVMAR 26, 2012
p5
aVTOR vs. ORL
p6
aVL
p7
aI8
aI0
aI1
aF0.0
aI0
aI0
aF0.0
aI2
aI2
aF1.0
aI0
aI1
aI1
aI1
aI0
aI0
aI0
aI0
aI2
aI-5
aa(lp8
V0021100743
p9
aVMAR 28, 2012
p10
aVTOR vs. DEN
p11
aVW
p12
aI13
aI2
aI5
aF0.4
aI1
aI2
aF0.5
aI2
aI2
aF1.0
aI1
aI0
aI1
aI1
aI0
aI0
aI1
aI1
aI7
aI7
aa(lp13
V0021100757
p14
aVMAR 30, 2012
p15
aVTOR vs. MIA
p16
aVL
p17
aI13
aI1
aI2
aF0.5
aI0
aI1
aF0.0
aI0
aI0
aF0.0
aI2
aI1
aI3
aI3
aI1
aI0
aI1
aI1
aI2
aI-9
aa(lp18
V0021100779
p19
aVAPR 01, 2012
p20
aVTOR vs. WAS
p21
aVW
p22
aI12
aI2
aI5
aF0.4
aI1
aI2
aF0.5
aI4
aI4
aF1.0
aI1
aI1
aI2
aI0
aI0
aI0
aI0
aI2
aI9
aI2
aa(lp23
V0021100791
p24
aVAPR 03, 2012
p25
aVTOR vs. CHA
p26
aVW
p27
aI18
aI1
aI3
aF0.333
aI0
aI1
aF0.0
aI0
aI0
aF0.0
aI1
aI0
aI1
aI0
aI0
aI0
aI1
aI0
aI2
aI-4
aa(lp28
V0021100799
p29
aVAPR 04, 2012
p30
aVTOR @ PHI
p31
aVW
p32
aI31
aI5
aI7
aF0.714
aI3
aI4
aF0.75
aI0
aI0
aF0.0
aI0
aI4
aI4
aI0
aI0
aI0
aI1
aI2
aI13
aI18
aa(lp33
V0021100816
p34
aVAPR 06, 2012
p35
aVTOR vs. CLE
p36
aVL
p37
aI30
aI0
aI4
aF0.0
aI0
aI1
aF0.0
aI0
aI0
aF0.0
aI1
aI3
aI4
aI0
aI0
aI0
aI2
aI3
aI0
aI-13
aa(lp38
V0021100840
p39
aVAPR 08, 2012
p40
aVTOR @ OKC
p41
aVL
p42
aI19
aI3
aI7
aF0.429
aI1
aI3
aF0.333
aI1
aI2
aF0.5
aI0
aI0
aI0
aI1
aI0
aI1
aI1
aI3
aI8
aI-6
aa(lp43
V0021100844
p44
aVAPR 09, 2012
p45
aVTOR @ IND
p46
aVL
p47
aI26
aI6
aI9
aF0.667
aI4
aI4
aF1.0
aI1
aI2
aF0.5
aI1
aI0
aI1
aI0
aI0
aI0
aI3
aI3
aI17
aI-9
aa(lp48
V0021100858
p49
aVAPR 11, 2012
p50
aVTOR vs. PHI
p51
aVL
p52
aI34
aI4
aI12
aF0.333
aI1
aI4
aF0.25
aI4
aI5
aF0.8
aI0
aI3
aI3
aI1
aI0
aI0
aI0
aI3
aI13
aI-11
aa(lp53
V0021100874
p54
aVAPR 13, 2012
p55
aVTOR vs. BOS
p56
aVW
p57
aI30
aI3
aI11
aF0.273
aI3
aI7
aF0.429
aI3
aI4
aF0.75
aI0
aI0
aI0
aI4
aI1
aI1
aI1
aI2
aI12
aI4
aa(lp58
V0021100896
p59
aVAPR 15, 2012
p60
aVTOR @ ATL
p61
aVW
p62
aI34
aI6
aI9
aF0.667
aI3
aI4
aF0.75
aI1
aI1
aF1.0
aI0
aI2
aI2
aI2
aI0
aI0
aI2
aI1
aI16
aI15
aa(lp63
V0021100902
p64
aVAPR 16, 2012
p65
aVTOR vs. ATL
p66
aVL
p67
aI25
aI4
aI8
aF0.5
aI2
aI4
aF0.5
aI2
aI2
aF1.0
aI0
aI4
aI4
aI0
aI0
aI1
aI1
aI4
aI12
aI-10
aa(lp68
V0021100923
p69
aVAPR 18, 2012
p70
aVTOR @ MIA
p71
aVL
p72
aI45
aI7
aI18
aF0.389
aI0
aI8
aF0.0
aI1
aI2
aF0.5
aI0
aI2
aI2
aI3
aI1
aI0
aI2
aI1
aI15
aI-26
aa(lp73
V0021100955
p74
aVAPR 22, 2012
p75
aVTOR @ DET
p76
aVL
p77
aI35
aI2
aI12
aF0.167
aI0
aI4
aF0.0
aI0
aI0
aF0.0
aI0
aI2
aI2
aI3
aI0
aI0
aI2
aI3
aI4
aI-6
aa(lp78
V0021100963
p79
aVAPR 23, 2012
p80
aVTOR @ MIL
p81
aVL
p82
aI42
aI3
aI13
aF0.231
aI0
aI3
aF0.0
aI5
aI5
aF1.0
aI0
aI0
aI0
aI3
aI2
aI0
aI4
aI4
aI11
aI-4
aa(lp83
V0021100980
p84
aVAPR 26, 2012
p85
aVTOR vs. NJN
p86
aVW
p87
aI45
aI6
aI16
aF0.375
aI5
aI9
aF0.556
aI3
aI3
aF1.0
aI1
aI3
aI4
aI4
aI0
aI0
aI3
aI2
aI20
aI32
aasS'name'
p88
VAlan Anderson
p89
sS'weight'
p90
V220
p91
sS'age'
p92
I29
sS'experience'
p93
I6
sS'height'
p94
V6-6
p95
sS'position'
p96
VForward-Guard
p97
s.