(dp0
S'age'
p1
I32
sS'stats'
p2
(lp3
(lp4
V0021100983
p5
aVAPR 26, 2012
p6
aVATL vs. DAL
p7
aVW
p8
aI14
aI1
aI3
aF0.333
aI0
aI2
aF0.0
aI0
aI0
aF0.0
aI1
aI7
aI8
aI4
aI0
aI0
aI0
aI0
aI2
aI10
aa(lp9
V0021100966
p10
aVAPR 24, 2012
p11
aVATL vs. LAC
p12
aVW
p13
aI20
aI2
aI5
aF0.4
aI0
aI0
aF0.0
aI0
aI0
aF0.0
aI2
aI2
aI4
aI3
aI1
aI0
aI2
aI0
aI4
aI3
aa(lp14
V0021100951
p15
aVAPR 22, 2012
p16
aVATL vs. NYK
p17
aVL
p18
aI13
aI1
aI3
aF0.333
aI0
aI0
aF0.0
aI0
aI0
aF0.0
aI0
aI0
aI0
aI2
aI1
aI0
aI1
aI0
aI2
aI1
aa(lp19
V0021100938
p20
aVAPR 20, 2012
p21
aVATL vs. BOS
p22
aVW
p23
aI14
aI0
aI2
aF0.0
aI0
aI0
aF0.0
aI1
aI2
aF0.5
aI1
aI3
aI4
aI2
aI0
aI1
aI5
aI0
aI1
aI-1
aa(lp24
V0021100922
p25
aVAPR 18, 2012
p26
aVATL vs. DET
p27
aVW
p28
aI17
aI6
aI10
aF0.6
aI1
aI2
aF0.5
aI4
aI5
aF0.8
aI1
aI3
aI4
aI4
aI1
aI1
aI1
aI0
aI17
aI27
aa(lp29
V0021100902
p30
aVAPR 16, 2012
p31
aVATL @ TOR
p32
aVW
p33
aI21
aI3
aI7
aF0.429
aI1
aI3
aF0.333
aI4
aI6
aF0.667
aI0
aI4
aI4
aI4
aI1
aI0
aI2
aI0
aI11
aI10
aa(lp34
V0021100876
p35
aVAPR 13, 2012
p36
aVATL @ ORL
p37
aVW
p38
aI25
aI5
aI7
aF0.714
aI1
aI2
aF0.5
aI0
aI0
aF0.0
aI0
aI6
aI6
aI2
aI1
aI0
aI1
aI1
aI11
aI31
aa(lp39
V0021100860
p40
aVAPR 11, 2012
p41
aVATL @ BOS
p42
aVL
p43
aI14
aI1
aI3
aF0.333
aI0
aI1
aF0.0
aI3
aI4
aF0.75
aI1
aI1
aI2
aI0
aI0
aI0
aI1
aI1
aI5
aI-8
aa(lp44
V0021100818
p45
aVAPR 06, 2012
p46
aVATL vs. DET
p47
aVW
p48
aI7
aI0
aI0
aF0.0
aI0
aI0
aF0.0
aI2
aI2
aF1.0
aI0
aI2
aI2
aI1
aI0
aI0
aI0
aI0
aI2
aI-14
aa(lp49
V0021100802
p50
aVAPR 04, 2012
p51
aVATL vs. CHA
p52
aVW
p53
aI21
aI0
aI3
aF0.0
aI0
aI1
aF0.0
aI0
aI0
aF0.0
aI0
aI6
aI6
aI5
aI1
aI0
aI0
aI3
aI0
aI13
aa(lp54
V0021100749
p55
aVMAR 28, 2012
p56
aVATL vs. CHI
p57
aVL
p58
aI5
aI0
aI0
aF0.0
aI0
aI0
aF0.0
aI0
aI0
aF0.0
aI1
aI0
aI1
aI0
aI0
aI0
aI0
aI0
aI0
aI-3
aa(lp59
V0021100737
p60
aVMAR 27, 2012
p61
aVATL @ MIL
p62
aVL
p63
aI7
aI0
aI2
aF0.0
aI0
aI0
aF0.0
aI0
aI0
aF0.0
aI1
aI1
aI2
aI1
aI0
aI0
aI0
aI1
aI0
aI-2
aa(lp64
V0021100703
p65
aVMAR 23, 2012
p66
aVATL vs. NJN
p67
aVW
p68
aI7
aI0
aI1
aF0.0
aI0
aI0
aF0.0
aI0
aI0
aF0.0
aI0
aI1
aI1
aI0
aI0
aI0
aI0
aI0
aI0
aI-2
aa(lp69
V0021100687
p70
aVMAR 21, 2012
p71
aVATL vs. CLE
p72
aVW
p73
aI8
aI0
aI2
aF0.0
aI0
aI0
aF0.0
aI0
aI0
aF0.0
aI0
aI1
aI1
aI0
aI0
aI0
aI0
aI1
aI0
aI-3
aa(lp74
V0021100672
p75
aVMAR 19, 2012
p76
aVATL vs. BOS
p77
aVL
p78
aI14
aI2
aI4
aF0.5
aI0
aI0
aF0.0
aI0
aI0
aF0.0
aI0
aI1
aI1
aI0
aI0
aI1
aI0
aI1
aI4
aI-7
aa(lp79
V0021100662
p80
aVMAR 18, 2012
p81
aVATL @ CLE
p82
aVW
p83
aI26
aI4
aI9
aF0.444
aI0
aI1
aF0.0
aI0
aI0
aF0.0
aI1
aI5
aI6
aI1
aI1
aI0
aI1
aI0
aI8
aI14
aa(lp84
V0021100646
p85
aVMAR 16, 2012
p86
aVATL vs. WAS
p87
aVW
p88
aI9
aI1
aI3
aF0.333
aI0
aI1
aF0.0
aI0
aI0
aF0.0
aI0
aI0
aI0
aI0
aI0
aI0
aI1
aI0
aI2
aI-1
aa(lp89
V0021100636
p90
aVMAR 14, 2012
p91
aVATL @ LAC
p92
aVL
p93
aI25
aI3
aI6
aF0.5
aI2
aI3
aF0.667
aI1
aI2
aF0.5
aI1
aI3
aI4
aI3
aI1
aI0
aI4
aI3
aI9
aI-9
aa(lp94
V0021100587
p95
aVMAR 09, 2012
p96
aVATL @ DET
p97
aVL
p98
aI16
aI0
aI2
aF0.0
aI0
aI1
aF0.0
aI0
aI0
aF0.0
aI0
aI0
aI0
aI3
aI1
aI0
aI1
aI0
aI0
aI-17
aa(lp99
V0021100564
p100
aVMAR 06, 2012
p101
aVATL @ IND
p102
aVW
p103
aI20
aI2
aI5
aF0.4
aI0
aI0
aF0.0
aI1
aI2
aF0.5
aI1
aI1
aI2
aI6
aI1
aI1
aI0
aI4
aI5
aI-7
aa(lp104
V0021100540
p105
aVMAR 03, 2012
p106
aVATL vs. OKC
p107
aVW
p108
aI2
aI0
aI1
aF0.0
aI0
aI0
aF0.0
aI0
aI2
aF0.0
aI0
aI0
aI0
aI0
aI0
aI0
aI0
aI0
aI0
aI1
aa(lp109
V0021100530
p110
aVMAR 02, 2012
p111
aVATL vs. MIL
p112
aVW
p113
aI26
aI4
aI9
aF0.444
aI1
aI1
aF1.0
aI0
aI0
aF0.0
aI4
aI7
aI11
aI5
aI0
aI0
aI2
aI1
aI9
aI11
aa(lp114
V0021100516
p115
aVFEB 29, 2012
p116
aVATL vs. GSW
p117
aVL
p118
aI7
aI0
aI2
aF0.0
aI0
aI1
aF0.0
aI1
aI4
aF0.25
aI0
aI1
aI1
aI1
aI0
aI0
aI0
aI0
aI1
aI-9
aa(lp119
V0021100500
p120
aVFEB 23, 2012
p121
aVATL vs. ORL
p122
aVW
p123
aI8
aI0
aI1
aF0.0
aI0
aI0
aF0.0
aI0
aI0
aF0.0
aI0
aI1
aI1
aI3
aI0
aI0
aI1
aI0
aI0
aI6
aa(lp124
V0021100492
p125
aVFEB 22, 2012
p126
aVATL @ NYK
p127
aVL
p128
aI15
aI3
aI5
aF0.6
aI0
aI0
aF0.0
aI0
aI0
aF0.0
aI0
aI2
aI2
aI1
aI0
aI0
aI1
aI1
aI6
aI-21
aa(lp129
V0021100470
p130
aVFEB 20, 2012
p131
aVATL @ CHI
p132
aVL
p133
aI22
aI2
aI3
aF0.667
aI1
aI1
aF1.0
aI1
aI4
aF0.25
aI0
aI5
aI5
aI3
aI0
aI3
aI2
aI0
aI6
aI10
aa(lp134
V0021100459
p135
aVFEB 18, 2012
p136
aVATL @ POR
p137
aVL
p138
aI5
aI0
aI1
aF0.0
aI0
aI0
aF0.0
aI0
aI0
aF0.0
aI0
aI1
aI1
aI1
aI0
aI0
aI1
aI1
aI0
aI-3
aa(lp139
V0021100428
p140
aVFEB 14, 2012
p141
aVATL @ LAL
p142
aVL
p143
aI15
aI2
aI6
aF0.333
aI1
aI1
aF1.0
aI0
aI0
aF0.0
aI3
aI3
aI6
aI0
aI0
aI0
aI2
aI2
aI5
aI-6
aa(lp144
V0021100411
p145
aVFEB 12, 2012
p146
aVATL vs. MIA
p147
aVL
p148
aI10
aI1
aI4
aF0.25
aI0
aI0
aF0.0
aI0
aI0
aF0.0
aI0
aI1
aI1
aI1
aI0
aI0
aI1
aI1
aI2
aI-6
aa(lp149
V0021100392
p150
aVFEB 10, 2012
p151
aVATL @ ORL
p152
aVW
p153
aI16
aI4
aI7
aF0.571
aI0
aI0
aF0.0
aI1
aI2
aF0.5
aI0
aI1
aI1
aI2
aI0
aI0
aI2
aI0
aI9
aI-2
aa(lp154
V0021100379
p155
aVFEB 08, 2012
p156
aVATL vs. IND
p157
aVW
p158
aI22
aI4
aI6
aF0.667
aI1
aI2
aF0.5
aI4
aI4
aF1.0
aI1
aI1
aI2
aI2
aI0
aI0
aI1
aI1
aI13
aI5
aa(lp159
V0021100362
p160
aVFEB 06, 2012
p161
aVATL vs. PHX
p162
aVL
p163
aI8
aI0
aI2
aF0.0
aI0
aI0
aF0.0
aI2
aI2
aF1.0
aI0
aI0
aI0
aI0
aI0
aI0
aI0
aI0
aI2
aI-13
aa(lp164
V0021100343
p165
aVFEB 04, 2012
p166
aVATL vs. PHI
p167
aVL
p168
aI17
aI2
aI6
aF0.333
aI0
aI1
aF0.0
aI3
aI4
aF0.75
aI0
aI3
aI3
aI3
aI0
aI0
aI0
aI1
aI7
aI-3
aa(lp169
V0021100326
p170
aVFEB 02, 2012
p171
aVATL vs. MEM
p172
aVL
p173
aI13
aI0
aI1
aF0.0
aI0
aI0
aF0.0
aI0
aI0
aF0.0
aI0
aI1
aI1
aI4
aI0
aI1
aI1
aI1
aI0
aI-5
aa(lp174
V0021100308
p175
aVJAN 31, 2012
p176
aVATL @ TOR
p177
aVW
p178
aI21
aI5
aI7
aF0.714
aI1
aI2
aF0.5
aI4
aI4
aF1.0
aI0
aI4
aI4
aI1
aI1
aI1
aI4
aI1
aI15
aI15
aa(lp179
V0021100296
p180
aVJAN 29, 2012
p181
aVATL @ NOH
p182
aVW
p183
aI19
aI2
aI6
aF0.333
aI0
aI0
aF0.0
aI0
aI0
aF0.0
aI1
aI2
aI3
aI3
aI1
aI0
aI1
aI0
aI4
aI16
aa(lp184
V0021100274
p185
aVJAN 27, 2012
p186
aVATL @ DET
p187
aVW
p188
aI18
aI3
aI5
aF0.6
aI0
aI0
aF0.0
aI1
aI1
aF1.0
aI0
aI5
aI5
aI3
aI0
aI0
aI1
aI0
aI7
aI2
aa(lp189
V0021100265
p190
aVJAN 25, 2012
p191
aVATL @ SAS
p192
aVL
p193
aI15
aI1
aI4
aF0.25
aI0
aI0
aF0.0
aI0
aI0
aF0.0
aI0
aI0
aI0
aI3
aI0
aI0
aI0
aI0
aI2
aI-18
aa(lp194
V0021100245
p195
aVJAN 23, 2012
p196
aVATL @ MIL
p197
aVW
p198
aI26
aI2
aI5
aF0.4
aI0
aI0
aF0.0
aI0
aI0
aF0.0
aI0
aI3
aI3
aI5
aI0
aI0
aI0
aI3
aI4
aI1
aa(lp199
V0021100227
p200
aVJAN 21, 2012
p201
aVATL vs. CLE
p202
aVW
p203
aI22
aI2
aI6
aF0.333
aI0
aI1
aF0.0
aI0
aI0
aF0.0
aI0
aI1
aI1
aI3
aI0
aI1
aI1
aI0
aI4
aI15
aa(lp204
V0021100217
p205
aVJAN 20, 2012
p206
aVATL @ PHI
p207
aVL
p208
aI18
aI3
aI7
aF0.429
aI0
aI0
aF0.0
aI4
aI4
aF1.0
aI0
aI4
aI4
aI2
aI0
aI0
aI2
aI2
aI10
aI-3
aa(lp209
V0021100208
p210
aVJAN 18, 2012
p211
aVATL vs. POR
p212
aVW
p213
aI27
aI3
aI6
aF0.5
aI0
aI0
aF0.0
aI2
aI3
aF0.667
aI1
aI5
aI6
aI2
aI0
aI1
aI1
aI1
aI8
aI8
aa(lp214
V0021100189
p215
aVJAN 16, 2012
p216
aVATL vs. TOR
p217
aVW
p218
aI8
aI0
aI0
aF0.0
aI0
aI0
aF0.0
aI0
aI0
aF0.0
aI0
aI0
aI0
aI3
aI0
aI1
aI0
aI0
aI0
aI10
aa(lp219
V0021100128
p220
aVJAN 09, 2012
p221
aVATL @ NJN
p222
aVW
p223
aI9
aI1
aI2
aF0.5
aI0
aI0
aF0.0
aI0
aI0
aF0.0
aI0
aI1
aI1
aI1
aI0
aI0
aI0
aI1
aI2
aI2
aa(lp224
V0021100110
p225
aVJAN 07, 2012
p226
aVATL vs. CHI
p227
aVW
p228
aI8
aI0
aI1
aF0.0
aI0
aI0
aF0.0
aI0
aI0
aF0.0
aI0
aI0
aI0
aI3
aI0
aI0
aI1
aI0
aI0
aI2
aa(lp229
V0021100094
p230
aVJAN 05, 2012
p231
aVATL vs. MIA
p232
aVL
p233
aI30
aI4
aI8
aF0.5
aI1
aI1
aF1.0
aI5
aI8
aF0.625
aI1
aI6
aI7
aI5
aI1
aI2
aI1
aI0
aI14
aI12
aa(lp234
V0021100077
p235
aVJAN 03, 2012
p236
aVATL @ CHI
p237
aVL
p238
aI15
aI1
aI4
aF0.25
aI0
aI0
aF0.0
aI0
aI0
aF0.0
aI0
aI6
aI6
aI2
aI0
aI0
aI3
aI0
aI2
aI-9
aa(lp239
V0021100070
p240
aVJAN 02, 2012
p241
aVATL @ MIA
p242
aVW
p243
aI26
aI5
aI8
aF0.625
aI3
aI3
aF1.0
aI3
aI7
aF0.429
aI1
aI6
aI7
aI4
aI1
aI0
aI1
aI0
aI16
aI7
aa(lp244
V0021100052
p245
aVDEC 31, 2011
p246
aVATL @ HOU
p247
aVL
p248
aI25
aI6
aI11
aF0.545
aI1
aI2
aF0.5
aI0
aI0
aF0.0
aI0
aI6
aI6
aI1
aI0
aI0
aI1
aI1
aI13
aI7
aa(lp249
V0021100042
p250
aVDEC 30, 2011
p251
aVATL vs. NJN
p252
aVW
p253
aI23
aI2
aI5
aF0.4
aI0
aI0
aF0.0
aI2
aI3
aF0.667
aI0
aI2
aI2
aI1
aI1
aI0
aI0
aI0
aI6
aI6
aa(lp254
V0021100025
p255
aVDEC 28, 2011
p256
aVATL vs. WAS
p257
aVW
p258
aI19
aI3
aI5
aF0.6
aI0
aI0
aF0.0
aI5
aI6
aF0.833
aI0
aI4
aI4
aI1
aI0
aI0
aI1
aI1
aI11
aI-5
aa(lp259
V0021100018
p260
aVDEC 27, 2011
p261
aVATL @ NJN
p262
aVW
p263
aI20
aI5
aI10
aF0.5
aI0
aI0
aF0.0
aI2
aI2
aF1.0
aI0
aI2
aI2
aI0
aI1
aI1
aI1
aI1
aI12
aI18
aasS'name'
p264
VTracy McGrady
p265
sS'experience'
p266
I14
s.