(dp0
S'age'
p1
I33
sS'stats'
p2
(lp3
(lp4
V0021100977
p5
aVAPR 25, 2012
p6
aVSAS @ PHX
p7
aVW
p8
aI26
aI3
aI7
aF0.429
aI1
aI3
aF0.333
aI2
aI2
aF1.0
aI0
aI4
aI4
aI6
aI0
aI0
aI1
aI2
aI9
aI5
aa(lp9
V0021100965
p10
aVAPR 23, 2012
p11
aVSAS vs. POR
p12
aVW
p13
aI23
aI6
aI10
aF0.6
aI0
aI1
aF0.0
aI0
aI0
aF0.0
aI0
aI3
aI3
aI4
aI5
aI2
aI1
aI1
aI12
aI13
aa(lp14
V0021100956
p15
aVAPR 22, 2012
p16
aVSAS vs. CLE
p17
aVW
p18
aI22
aI5
aI9
aF0.556
aI2
aI3
aF0.667
aI5
aI7
aF0.714
aI0
aI5
aI5
aI3
aI1
aI1
aI1
aI4
aI17
aI14
aa(lp19
V0021100941
p20
aVAPR 20, 2012
p21
aVSAS vs. LAL
p22
aVW
p23
aI22
aI1
aI3
aF0.333
aI0
aI1
aF0.0
aI2
aI2
aF1.0
aI0
aI3
aI3
aI1
aI1
aI0
aI1
aI4
aI4
aI-2
aa(lp24
V0021100929
p25
aVAPR 18, 2012
p26
aVSAS @ SAC
p27
aVW
p28
aI30
aI4
aI9
aF0.444
aI2
aI5
aF0.4
aI3
aI3
aF1.0
aI0
aI1
aI1
aI2
aI0
aI0
aI4
aI0
aI13
aI11
aa(lp29
V0021100917
p30
aVAPR 17, 2012
p31
aVSAS @ LAL
p32
aVW
p33
aI25
aI4
aI8
aF0.5
aI0
aI2
aF0.0
aI0
aI0
aF0.0
aI0
aI3
aI3
aI1
aI0
aI2
aI1
aI2
aI8
aI6
aa(lp34
V0021100912
p35
aVAPR 16, 2012
p36
aVSAS @ GSW
p37
aVW
p38
aI22
aI0
aI6
aF0.0
aI0
aI4
aF0.0
aI8
aI9
aF0.889
aI1
aI5
aI6
aI4
aI1
aI0
aI2
aI1
aI8
aI-6
aa(lp39
V0021100892
p40
aVAPR 14, 2012
p41
aVSAS vs. PHX
p42
aVW
p43
aI24
aI2
aI7
aF0.286
aI1
aI3
aF0.333
aI4
aI6
aF0.667
aI0
aI4
aI4
aI1
aI4
aI0
aI4
aI4
aI9
aI-10
aa(lp44
V0021100872
p45
aVAPR 12, 2012
p46
aVSAS vs. MEM
p47
aVW
p48
aI24
aI2
aI5
aF0.4
aI1
aI2
aF0.5
aI0
aI0
aF0.0
aI0
aI1
aI1
aI2
aI1
aI0
aI4
aI3
aI5
aI11
aa(lp49
V0021100866
p50
aVAPR 11, 2012
p51
aVSAS vs. LAL
p52
aVL
p53
aI25
aI2
aI4
aF0.5
aI2
aI3
aF0.667
aI0
aI0
aF0.0
aI0
aI5
aI5
aI2
aI1
aI0
aI1
aI2
aI6
aI-5
aa(lp54
V0021100850
p55
aVAPR 09, 2012
p56
aVSAS @ UTA
p57
aVL
p58
aI32
aI2
aI13
aF0.154
aI1
aI5
aF0.2
aI0
aI0
aF0.0
aI1
aI3
aI4
aI2
aI3
aI0
aI3
aI3
aI5
aI-15
aa(lp59
V0021100822
p60
aVAPR 06, 2012
p61
aVSAS vs. NOH
p62
aVW
p63
aI25
aI4
aI9
aF0.444
aI1
aI2
aF0.5
aI4
aI4
aF1.0
aI0
aI7
aI7
aI1
aI0
aI1
aI1
aI3
aI13
aI11
aa(lp64
V0021100801
p65
aVAPR 04, 2012
p66
aVSAS @ BOS
p67
aVW
p68
aI26
aI2
aI9
aF0.222
aI0
aI4
aF0.0
aI4
aI4
aF1.0
aI2
aI7
aI9
aI2
aI1
aI0
aI1
aI0
aI8
aI2
aa(lp69
V0021100792
p70
aVAPR 03, 2012
p71
aVSAS @ CLE
p72
aVW
p73
aI9
aI0
aI1
aF0.0
aI0
aI1
aF0.0
aI2
aI2
aF1.0
aI0
aI2
aI2
aI1
aI1
aI0
aI2
aI1
aI2
aI11
aa(lp74
V0021100774
p75
aVMAR 31, 2012
p76
aVSAS vs. IND
p77
aVW
p78
aI27
aI2
aI7
aF0.286
aI1
aI3
aF0.333
aI3
aI4
aF0.75
aI0
aI1
aI1
aI3
aI2
aI0
aI2
aI0
aI8
aI0
aa(lp79
V0021100750
p80
aVMAR 28, 2012
p81
aVSAS @ SAC
p82
aVW
p83
aI28
aI4
aI5
aF0.8
aI0
aI1
aF0.0
aI0
aI0
aF0.0
aI0
aI3
aI3
aI0
aI1
aI0
aI0
aI0
aI8
aI8
aa(lp84
V0021100723
p85
aVMAR 25, 2012
p86
aVSAS vs. PHI
p87
aVW
p88
aI20
aI2
aI6
aF0.333
aI1
aI4
aF0.25
aI2
aI4
aF0.5
aI1
aI5
aI6
aI1
aI2
aI1
aI5
aI3
aI7
aI-2
aa(lp89
V0021100715
p90
aVMAR 24, 2012
p91
aVSAS @ NOH
p92
aVW
p93
aI29
aI5
aI15
aF0.333
aI1
aI5
aF0.2
aI3
aI3
aF1.0
aI0
aI3
aI3
aI2
aI1
aI0
aI0
aI1
aI14
aI2
aa(lp94
V0021100707
p95
aVMAR 23, 2012
p96
aVSAS vs. DAL
p97
aVW
p98
aI22
aI4
aI7
aF0.571
aI1
aI4
aF0.25
aI1
aI2
aF0.5
aI1
aI7
aI8
aI1
aI1
aI0
aI0
aI1
aI10
aI17
aa(lp99
V0021100690
p100
aVMAR 21, 2012
p101
aVSAS vs. MIN
p102
aVW
p103
aI22
aI6
aI9
aF0.667
aI3
aI4
aF0.75
aI1
aI2
aF0.5
aI0
aI3
aI3
aI1
aI2
aI0
aI2
aI1
aI16
aI5
aa(lp104
V0021100659
p105
aVMAR 17, 2012
p106
aVSAS @ DAL
p107
aVL
p108
aI17
aI2
aI4
aF0.5
aI1
aI2
aF0.5
aI0
aI0
aF0.0
aI0
aI0
aI0
aI1
aI0
aI0
aI1
aI2
aI5
aI11
aa(lp109
V0021100465
p110
aVFEB 19, 2012
p111
aVMIL @ NJN
p112
aVW
p113
aI8
aI1
aI4
aF0.25
aI0
aI1
aF0.0
aI0
aI0
aF0.0
aI0
aI2
aI2
aI0
aI0
aI0
aI0
aI1
aI2
aI-2
aa(lp114
V0021100447
p115
aVFEB 17, 2012
p116
aVMIL @ ORL
p117
aVL
p118
aI12
aI1
aI6
aF0.167
aI0
aI1
aF0.0
aI0
aI0
aF0.0
aI1
aI3
aI4
aI0
aI0
aI0
aI2
aI0
aI2
aI-10
aa(lp119
V0021100435
p120
aVFEB 15, 2012
p121
aVMIL vs. NOH
p122
aVL
p123
aI20
aI0
aI2
aF0.0
aI0
aI1
aF0.0
aI2
aI2
aF1.0
aI0
aI2
aI2
aI5
aI1
aI0
aI2
aI2
aI2
aI4
aa(lp124
V0021100416
p125
aVFEB 13, 2012
p126
aVMIL vs. MIA
p127
aVL
p128
aI17
aI3
aI9
aF0.333
aI1
aI3
aF0.333
aI0
aI0
aF0.0
aI1
aI2
aI3
aI0
aI1
aI0
aI1
aI2
aI7
aI-12
aa(lp129
V0021100406
p130
aVFEB 11, 2012
p131
aVMIL vs. ORL
p132
aVL
p133
aI20
aI2
aI8
aF0.25
aI0
aI4
aF0.0
aI0
aI0
aF0.0
aI1
aI2
aI3
aI5
aI0
aI0
aI0
aI0
aI4
aI4
aa(lp134
V0021100394
p135
aVFEB 10, 2012
p136
aVMIL @ CLE
p137
aVW
p138
aI23
aI4
aI11
aF0.364
aI0
aI3
aF0.0
aI2
aI3
aF0.667
aI1
aI3
aI4
aI5
aI0
aI0
aI2
aI1
aI10
aI3
aa(lp139
V0021100373
p140
aVFEB 08, 2012
p141
aVMIL @ TOR
p142
aVW
p143
aI33
aI6
aI11
aF0.545
aI2
aI5
aF0.4
aI3
aI6
aF0.5
aI0
aI4
aI4
aI3
aI1
aI1
aI2
aI3
aI17
aI17
aa(lp144
V0021100370
p145
aVFEB 07, 2012
p146
aVMIL vs. PHX
p147
aVL
p148
aI30
aI4
aI11
aF0.364
aI2
aI4
aF0.5
aI2
aI2
aF1.0
aI0
aI2
aI2
aI4
aI0
aI0
aI2
aI2
aI12
aI6
aa(lp149
V0021100319
p150
aVFEB 01, 2012
p151
aVMIL vs. MIA
p152
aVW
p153
aI9
aI0
aI3
aF0.0
aI0
aI1
aF0.0
aI0
aI0
aF0.0
aI1
aI0
aI1
aI0
aI1
aI0
aI1
aI1
aI0
aI-16
aa(lp154
V0021100277
p155
aVJAN 27, 2012
p156
aVMIL @ CHI
p157
aVL
p158
aI35
aI4
aI14
aF0.286
aI1
aI6
aF0.167
aI1
aI1
aF1.0
aI0
aI4
aI4
aI5
aI0
aI0
aI2
aI3
aI10
aI6
aa(lp159
V0021100262
p160
aVJAN 25, 2012
p161
aVMIL @ HOU
p162
aVW
p163
aI30
aI8
aI16
aF0.5
aI3
aI6
aF0.5
aI1
aI2
aF0.5
aI0
aI1
aI1
aI3
aI2
aI1
aI1
aI1
aI20
aI8
aa(lp164
V0021100245
p165
aVJAN 23, 2012
p166
aVMIL vs. ATL
p167
aVL
p168
aI28
aI0
aI1
aF0.0
aI0
aI0
aF0.0
aI0
aI0
aF0.0
aI0
aI1
aI1
aI2
aI1
aI2
aI0
aI1
aI0
aI-1
aa(lp169
V0021100240
p170
aVJAN 22, 2012
p171
aVMIL @ MIA
p172
aVW
p173
aI26
aI4
aI13
aF0.308
aI2
aI8
aF0.25
aI0
aI0
aF0.0
aI0
aI4
aI4
aI1
aI0
aI0
aI4
aI3
aI10
aI12
aa(lp174
V0021100199
p175
aVJAN 17, 2012
p176
aVMIL vs. DEN
p177
aVL
p178
aI17
aI0
aI6
aF0.0
aI0
aI2
aF0.0
aI2
aI2
aF1.0
aI0
aI0
aI0
aI1
aI0
aI0
aI1
aI1
aI2
aI-20
aa(lp179
V0021100186
p180
aVJAN 16, 2012
p181
aVMIL @ PHI
p182
aVL
p183
aI39
aI3
aI12
aF0.25
aI1
aI5
aF0.2
aI2
aI2
aF1.0
aI2
aI7
aI9
aI4
aI3
aI0
aI1
aI4
aI9
aI-7
aa(lp184
V0021100165
p185
aVJAN 13, 2012
p186
aVMIL @ DAL
p187
aVL
p188
aI29
aI3
aI8
aF0.375
aI1
aI5
aF0.2
aI0
aI0
aF0.0
aI0
aI5
aI5
aI2
aI2
aI0
aI5
aI4
aI7
aI-17
aa(lp189
V0021100155
p190
aVJAN 12, 2012
p191
aVMIL vs. DET
p192
aVW
p193
aI43
aI9
aI17
aF0.529
aI3
aI7
aF0.429
aI4
aI4
aF1.0
aI0
aI6
aI6
aI6
aI3
aI0
aI6
aI3
aI25
aI8
aa(lp194
V0021100136
p195
aVJAN 10, 2012
p196
aVMIL vs. SAS
p197
aVW
p198
aI42
aI12
aI17
aF0.706
aI3
aI4
aF0.75
aI7
aI7
aF1.0
aI0
aI1
aI1
aI8
aI0
aI0
aI3
aI3
aI34
aI-1
aa(lp199
V0021100123
p200
aVJAN 08, 2012
p201
aVMIL @ PHX
p202
aVL
p203
aI23
aI3
aI7
aF0.429
aI1
aI2
aF0.5
aI1
aI2
aF0.5
aI0
aI0
aI0
aI1
aI1
aI0
aI2
aI1
aI8
aI-23
aa(lp204
V0021100118
p205
aVJAN 07, 2012
p206
aVMIL @ LAC
p207
aVL
p208
aI45
aI4
aI18
aF0.222
aI3
aI9
aF0.333
aI7
aI8
aF0.875
aI2
aI2
aI4
aI2
aI2
aI0
aI4
aI3
aI18
aI-10
aa(lp209
V0021100096
p210
aVJAN 05, 2012
p211
aVMIL @ SAC
p212
aVL
p213
aI39
aI4
aI10
aF0.4
aI2
aI5
aF0.4
aI3
aI3
aF1.0
aI0
aI5
aI5
aI4
aI0
aI1
aI7
aI5
aI13
aI-9
aa(lp214
V0021100080
p215
aVJAN 03, 2012
p216
aVMIL @ UTA
p217
aVL
p218
aI35
aI5
aI17
aF0.294
aI1
aI7
aF0.143
aI5
aI6
aF0.833
aI2
aI4
aI6
aI5
aI2
aI0
aI6
aI2
aI16
aI-12
aa(lp219
V0021100074
p220
aVJAN 02, 2012
p221
aVMIL @ DEN
p222
aVL
p223
aI36
aI7
aI18
aF0.389
aI1
aI5
aF0.2
aI2
aI2
aF1.0
aI2
aI1
aI3
aI4
aI2
aI0
aI3
aI1
aI17
aI-4
aa(lp224
V0021100046
p225
aVDEC 30, 2011
p226
aVMIL vs. WAS
p227
aVW
p228
aI22
aI2
aI8
aF0.25
aI1
aI4
aF0.25
aI2
aI2
aF1.0
aI0
aI2
aI2
aI4
aI0
aI1
aI4
aI4
aI7
aI11
aa(lp229
V0021100020
p230
aVDEC 27, 2011
p231
aVMIL vs. MIN
p232
aVW
p233
aI36
aI7
aI20
aF0.35
aI1
aI6
aF0.167
aI1
aI3
aF0.333
aI3
aI2
aI5
aI2
aI3
aI0
aI2
aI4
aI16
aI10
aa(lp234
V0021100007
p235
aVDEC 26, 2011
p236
aVMIL @ CHA
p237
aVL
p238
aI17
aI1
aI5
aF0.2
aI1
aI4
aF0.25
aI3
aI3
aF1.0
aI0
aI1
aI1
aI1
aI1
aI0
aI3
aI6
aI6
aI0
aasS'name'
p239
VStephen Jackson
p240
sS'experience'
p241
I11
s.