(dp0
S'age'
p1
I35
sS'stats'
p2
(lp3
(lp4
V0021100009
p5
aVDEC 26, 2011
p6
aVCLE vs. TOR
p7
aVL
p8
aI31
aI6
aI20
aF0.3
aI0
aI4
aF0.0
aI3
aI6
aF0.5
aI3
aI4
aI7
aI2
aI0
aI0
aI0
aI1
aI15
aI-11
aa(lp9
V0021100026
p10
aVDEC 28, 2011
p11
aVCLE @ DET
p12
aVW
p13
aI23
aI6
aI9
aF0.667
aI1
aI1
aF1.0
aI2
aI3
aF0.667
aI0
aI1
aI1
aI0
aI1
aI0
aI2
aI3
aI15
aI1
aa(lp14
V0021100040
p15
aVDEC 30, 2011
p16
aVCLE @ IND
p17
aVL
p18
aI36
aI4
aI14
aF0.286
aI0
aI5
aF0.0
aI4
aI6
aF0.667
aI0
aI5
aI5
aI0
aI0
aI3
aI2
aI5
aI12
aI-3
aa(lp19
V0021100060
p20
aVJAN 01, 2012
p21
aVCLE vs. NJN
p22
aVW
p23
aI31
aI10
aI15
aF0.667
aI3
aI3
aF1.0
aI0
aI0
aF0.0
aI1
aI4
aI5
aI2
aI3
aI2
aI3
aI2
aI23
aI22
aa(lp24
V0021100076
p25
aVJAN 03, 2012
p26
aVCLE vs. CHA
p27
aVW
p28
aI26
aI7
aI16
aF0.438
aI2
aI5
aF0.4
aI3
aI5
aF0.6
aI1
aI5
aI6
aI1
aI2
aI2
aI0
aI1
aI19
aI11
aa(lp29
V0021100082
p30
aVJAN 04, 2012
p31
aVCLE @ TOR
p32
aVL
p33
aI32
aI8
aI19
aF0.421
aI1
aI5
aF0.2
aI2
aI4
aF0.5
aI1
aI5
aI6
aI0
aI0
aI1
aI2
aI1
aI19
aI-10
aa(lp34
V0021100106
p35
aVJAN 06, 2012
p36
aVCLE @ MIN
p37
aVW
p38
aI35
aI10
aI22
aF0.455
aI2
aI6
aF0.333
aI0
aI2
aF0.0
aI0
aI6
aI6
aI0
aI1
aI2
aI1
aI2
aI22
aI7
aa(lp39
V0021100124
p40
aVJAN 08, 2012
p41
aVCLE @ POR
p42
aVL
p43
aI26
aI1
aI8
aF0.125
aI1
aI4
aF0.25
aI0
aI0
aF0.0
aI1
aI10
aI11
aI2
aI1
aI0
aI2
aI4
aI3
aI-22
aa(lp44
V0021100139
p45
aVJAN 10, 2012
p46
aVCLE @ UTA
p47
aVL
p48
aI32
aI7
aI18
aF0.389
aI1
aI5
aF0.2
aI7
aI11
aF0.636
aI3
aI4
aI7
aI1
aI1
aI2
aI0
aI3
aI22
aI-1
aa(lp49
V0021100157
p50
aVJAN 12, 2012
p51
aVCLE @ PHX
p52
aVW
p53
aI33
aI10
aI22
aF0.455
aI3
aI5
aF0.6
aI0
aI0
aF0.0
aI0
aI4
aI4
aI2
aI2
aI0
aI0
aI2
aI23
aI19
aa(lp54
V0021100169
p55
aVJAN 13, 2012
p56
aVCLE @ LAL
p57
aVL
p58
aI29
aI4
aI16
aF0.25
aI1
aI3
aF0.333
aI0
aI0
aF0.0
aI0
aI3
aI3
aI2
aI1
aI0
aI0
aI3
aI9
aI-9
aa(lp59
V0021100188
p60
aVJAN 16, 2012
p61
aVCLE @ CHA
p62
aVW
p63
aI34
aI9
aI16
aF0.563
aI2
aI6
aF0.333
aI0
aI1
aF0.0
aI1
aI6
aI7
aI5
aI2
aI1
aI2
aI1
aI20
aI10
aa(lp64
V0021100196
p65
aVJAN 17, 2012
p66
aVCLE vs. GSW
p67
aVL
p68
aI31
aI7
aI14
aF0.5
aI2
aI3
aF0.667
aI3
aI3
aF1.0
aI2
aI3
aI5
aI1
aI0
aI1
aI1
aI3
aI19
aI-6
aa(lp69
V0021100222
p70
aVJAN 20, 2012
p71
aVCLE vs. CHI
p72
aVL
p73
aI31
aI1
aI10
aF0.1
aI0
aI2
aF0.0
aI2
aI3
aF0.667
aI1
aI7
aI8
aI2
aI1
aI2
aI1
aI3
aI4
aI-14
aa(lp74
V0021100227
p75
aVJAN 21, 2012
p76
aVCLE @ ATL
p77
aVL
p78
aI26
aI3
aI7
aF0.429
aI2
aI4
aF0.5
aI2
aI2
aF1.0
aI0
aI3
aI3
aI2
aI0
aI0
aI2
aI2
aI10
aI-18
aa(lp79
V0021100254
p80
aVJAN 24, 2012
p81
aVCLE @ MIA
p82
aVL
p83
aI31
aI2
aI6
aF0.333
aI1
aI1
aF1.0
aI0
aI0
aF0.0
aI1
aI1
aI2
aI4
aI4
aI0
aI1
aI2
aI5
aI-13
aa(lp84
V0021100259
p85
aVJAN 25, 2012
p86
aVCLE vs. NYK
p87
aVW
p88
aI30
aI6
aI15
aF0.4
aI3
aI4
aF0.75
aI0
aI0
aF0.0
aI2
aI3
aI5
aI3
aI1
aI0
aI1
aI2
aI15
aI4
aa(lp89
V0021100275
p90
aVJAN 27, 2012
p91
aVCLE vs. NJN
p92
aVL
p93
aI31
aI8
aI18
aF0.444
aI2
aI3
aF0.667
aI2
aI4
aF0.5
aI2
aI4
aI6
aI1
aI1
aI1
aI1
aI2
aI20
aI3
aa(lp94
V0021100292
p95
aVJAN 29, 2012
p96
aVCLE @ BOS
p97
aVW
p98
aI31
aI3
aI13
aF0.231
aI1
aI4
aF0.25
aI3
aI3
aF1.0
aI1
aI2
aI3
aI1
aI0
aI0
aI2
aI4
aI10
aI6
aa(lp99
V0021100309
p100
aVJAN 31, 2012
p101
aVCLE vs. BOS
p102
aVL
p103
aI35
aI5
aI11
aF0.455
aI1
aI5
aF0.2
aI1
aI2
aF0.5
aI0
aI2
aI2
aI3
aI1
aI1
aI1
aI3
aI12
aI-1
aa(lp104
V0021100334
p105
aVFEB 03, 2012
p106
aVCLE @ ORL
p107
aVL
p108
aI34
aI6
aI19
aF0.316
aI1
aI6
aF0.167
aI3
aI7
aF0.429
aI3
aI9
aI12
aI0
aI1
aI1
aI0
aI4
aI16
aI-7
aa(lp109
V0021100347
p110
aVFEB 04, 2012
p111
aVCLE vs. DAL
p112
aVW
p113
aI33
aI6
aI18
aF0.333
aI0
aI3
aF0.0
aI7
aI9
aF0.778
aI3
aI6
aI9
aI4
aI3
aI0
aI1
aI1
aI19
aI21
aa(lp114
V0021100369
p115
aVFEB 07, 2012
p116
aVCLE @ MIA
p117
aVL
p118
aI34
aI11
aI22
aF0.5
aI2
aI5
aF0.4
aI1
aI2
aF0.5
aI4
aI5
aI9
aI0
aI2
aI0
aI1
aI4
aI25
aI6
aa(lp119
V0021100377
p120
aVFEB 08, 2012
p121
aVCLE vs. LAC
p122
aVW
p123
aI38
aI10
aI18
aF0.556
aI1
aI3
aF0.333
aI6
aI9
aF0.667
aI3
aI5
aI8
aI3
aI0
aI1
aI1
aI3
aI27
aI7
aa(lp124
V0021100394
p125
aVFEB 10, 2012
p126
aVCLE vs. MIL
p127
aVL
p128
aI44
aI14
aI21
aF0.667
aI2
aI3
aF0.667
aI4
aI8
aF0.5
aI2
aI9
aI11
aI3
aI0
aI1
aI0
aI3
aI34
aI2
aa(lp129
V0021100402
p130
aVFEB 11, 2012
p131
aVCLE vs. PHI
p132
aVL
p133
aI31
aI8
aI16
aF0.5
aI0
aI1
aF0.0
aI4
aI7
aF0.571
aI3
aI5
aI8
aI1
aI0
aI0
aI1
aI1
aI20
aI-7
aa(lp134
V0021100434
p135
aVFEB 15, 2012
p136
aVCLE vs. IND
p137
aVW
p138
aI36
aI6
aI18
aF0.333
aI0
aI6
aF0.0
aI1
aI1
aF1.0
aI1
aI7
aI8
aI4
aI1
aI2
aI0
aI4
aI13
aI9
aa(lp139
V0021100449
p140
aVFEB 17, 2012
p141
aVCLE vs. MIA
p142
aVL
p143
aI30
aI5
aI11
aF0.455
aI3
aI3
aF1.0
aI0
aI0
aF0.0
aI1
aI3
aI4
aI3
aI2
aI1
aI3
aI3
aI13
aI-25
aa(lp144
V0021100463
p145
aVFEB 19, 2012
p146
aVCLE vs. SAC
p147
aVW
p148
aI39
aI7
aI21
aF0.333
aI2
aI6
aF0.333
aI5
aI7
aF0.714
aI3
aI5
aI8
aI3
aI0
aI1
aI2
aI3
aI21
aI11
aa(lp149
V0021100481
p150
aVFEB 21, 2012
p151
aVCLE vs. DET
p152
aVW
p153
aI40
aI11
aI22
aF0.5
aI3
aI5
aF0.6
aI7
aI14
aF0.5
aI4
aI6
aI10
aI2
aI1
aI0
aI0
aI2
aI32
aI-5
aa(lp154
V0021100489
p155
aVFEB 22, 2012
p156
aVCLE vs. NOH
p157
aVL
p158
aI37
aI8
aI22
aF0.364
aI2
aI8
aF0.25
aI4
aI7
aF0.571
aI6
aI6
aI12
aI1
aI2
aI0
aI2
aI4
aI22
aI-14
aa(lp159
V0021100503
p160
aVFEB 28, 2012
p161
aVCLE vs. BOS
p162
aVL
p163
aI37
aI4
aI15
aF0.267
aI0
aI3
aF0.0
aI0
aI0
aF0.0
aI2
aI6
aI8
aI1
aI2
aI0
aI3
aI3
aI8
aI-6
aa(lp164
V0021100515
p165
aVFEB 29, 2012
p166
aVCLE @ NYK
p167
aVL
p168
aI38
aI9
aI20
aF0.45
aI2
aI4
aF0.5
aI3
aI7
aF0.429
aI2
aI8
aI10
aI2
aI1
aI1
aI3
aI4
aI23
aI-17
aa(lp169
V0021100531
p170
aVMAR 02, 2012
p171
aVCLE vs. CHI
p172
aVL
p173
aI30
aI8
aI17
aF0.471
aI1
aI6
aF0.167
aI5
aI5
aF1.0
aI1
aI3
aI4
aI0
aI0
aI1
aI1
aI2
aI22
aI-17
aa(lp174
V0021100539
p175
aVMAR 03, 2012
p176
aVCLE @ WAS
p177
aVL
p178
aI38
aI11
aI24
aF0.458
aI1
aI3
aF0.333
aI6
aI8
aF0.75
aI2
aI7
aI9
aI5
aI4
aI2
aI1
aI1
aI29
aI12
aa(lp179
V0021100556
p180
aVMAR 05, 2012
p181
aVCLE vs. UTA
p182
aVL
p183
aI34
aI8
aI18
aF0.444
aI1
aI6
aF0.167
aI5
aI6
aF0.833
aI3
aI1
aI4
aI6
aI1
aI0
aI3
aI4
aI22
aI-11
aa(lp184
V0021100579
p185
aVMAR 07, 2012
p186
aVCLE @ DEN
p187
aVW
p188
aI37
aI11
aI21
aF0.524
aI3
aI6
aF0.5
aI8
aI9
aF0.889
aI2
aI7
aI9
aI1
aI0
aI0
aI1
aI4
aI33
aI5
aa(lp189
V0021100588
p190
aVMAR 09, 2012
p191
aVCLE @ OKC
p192
aVW
p193
aI34
aI9
aI25
aF0.36
aI1
aI6
aF0.167
aI2
aI3
aF0.667
aI2
aI6
aI8
aI3
aI1
aI0
aI2
aI2
aI21
aI0
aa(lp194
V0021100607
p195
aVMAR 11, 2012
p196
aVCLE vs. HOU
p197
aVW
p198
aI29
aI8
aI16
aF0.5
aI4
aI7
aF0.571
aI8
aI8
aF1.0
aI1
aI4
aI5
aI2
aI0
aI1
aI0
aI3
aI28
aI7
aa(lp199
V0021100619
p200
aVMAR 13, 2012
p201
aVCLE vs. TOR
p202
aVL
p203
aI36
aI8
aI18
aF0.444
aI0
aI2
aF0.0
aI4
aI4
aF1.0
aI0
aI0
aI0
aI1
aI0
aI0
aI0
aI3
aI20
aI-5
aa(lp204
V0021100630
p205
aVMAR 14, 2012
p206
aVCLE @ MIL
p207
aVL
p208
aI37
aI4
aI15
aF0.267
aI2
aI4
aF0.5
aI3
aI4
aF0.75
aI1
aI4
aI5
aI0
aI0
aI1
aI0
aI3
aI13
aI-10
aa(lp209
V0021100662
p210
aVMAR 18, 2012
p211
aVCLE vs. ATL
p212
aVL
p213
aI38
aI6
aI22
aF0.273
aI1
aI4
aF0.25
aI4
aI4
aF1.0
aI4
aI3
aI7
aI2
aI0
aI1
aI0
aI1
aI17
aI-12
aa(lp214
V0021100671
p215
aVMAR 19, 2012
p216
aVCLE @ NJN
p217
aVW
p218
aI39
aI5
aI20
aF0.25
aI1
aI3
aF0.333
aI2
aI2
aF1.0
aI6
aI7
aI13
aI3
aI0
aI1
aI1
aI2
aI13
aI11
aa(lp219
V0021100687
p220
aVMAR 21, 2012
p221
aVCLE @ ATL
p222
aVL
p223
aI47
aI9
aI17
aF0.529
aI3
aI6
aF0.5
aI2
aI2
aF1.0
aI4
aI8
aI12
aI2
aI0
aI0
aI2
aI5
aI23
aI4
aa(lp224
V0021100701
p225
aVMAR 23, 2012
p226
aVCLE @ ORL
p227
aVL
p228
aI36
aI8
aI18
aF0.444
aI0
aI1
aF0.0
aI0
aI2
aF0.0
aI5
aI4
aI9
aI1
aI0
aI0
aI2
aI1
aI16
aI-16
aa(lp229
V0021100719
p230
aVMAR 25, 2012
p231
aVCLE vs. PHX
p232
aVL
p233
aI20
aI1
aI8
aF0.125
aI0
aI5
aF0.0
aI0
aI0
aF0.0
aI0
aI1
aI1
aI0
aI1
aI0
aI1
aI3
aI2
aI-17
aa(lp234
V0021100736
p235
aVMAR 27, 2012
p236
aVCLE @ PHI
p237
aVL
p238
aI33
aI5
aI14
aF0.357
aI0
aI3
aF0.0
aI3
aI4
aF0.75
aI0
aI6
aI6
aI1
aI0
aI0
aI0
aI2
aI13
aI-11
aa(lp239
V0021100746
p240
aVMAR 28, 2012
p241
aVCLE vs. DET
p242
aVL
p243
aI37
aI7
aI21
aF0.333
aI2
aI4
aF0.5
aI1
aI1
aF1.0
aI3
aI1
aI4
aI2
aI0
aI3
aI3
aI2
aI17
aI-6
aa(lp244
V0021100761
p245
aVMAR 30, 2012
p246
aVCLE vs. MIL
p247
aVL
p248
aI30
aI1
aI4
aF0.25
aI0
aI3
aF0.0
aI0
aI0
aF0.0
aI0
aI5
aI5
aI3
aI0
aI1
aI0
aI1
aI2
aI-21
aa(lp249
V0021100770
p250
aVMAR 31, 2012
p251
aVCLE @ NYK
p252
aVL
p253
aI35
aI5
aI15
aF0.333
aI1
aI2
aF0.5
aI2
aI5
aF0.4
aI2
aI5
aI7
aI0
aI1
aI0
aI4
aI4
aI13
aI-19
aa(lp254
V0021100792
p255
aVAPR 03, 2012
p256
aVCLE vs. SAS
p257
aVL
p258
aI30
aI5
aI13
aF0.385
aI3
aI3
aF1.0
aI2
aI3
aF0.667
aI2
aI2
aI4
aI1
aI1
aI0
aI1
aI0
aI15
aI-26
aa(lp259
V0021100804
p260
aVAPR 04, 2012
p261
aVCLE @ MIL
p262
aVL
p263
aI39
aI6
aI17
aF0.353
aI3
aI7
aF0.429
aI2
aI2
aF1.0
aI4
aI3
aI7
aI3
aI0
aI0
aI4
aI4
aI17
aI-3
aa(lp264
V0021100816
p265
aVAPR 06, 2012
p266
aVCLE @ TOR
p267
aVW
p268
aI39
aI8
aI16
aF0.5
aI3
aI5
aF0.6
aI6
aI8
aF0.75
aI1
aI7
aI8
aI1
aI0
aI2
aI1
aI1
aI25
aI8
aa(lp269
V0021100837
p270
aVAPR 08, 2012
p271
aVCLE @ NJN
p272
aVL
p273
aI44
aI12
aI19
aF0.632
aI4
aI5
aF0.8
aI6
aI7
aF0.857
aI1
aI2
aI3
aI3
aI1
aI1
aI5
aI2
aI34
aI-2
aa(lp274
V0021100854
p275
aVAPR 10, 2012
p276
aVCLE vs. CHA
p277
aVW
p278
aI28
aI7
aI19
aF0.368
aI1
aI2
aF0.5
aI2
aI4
aF0.5
aI2
aI1
aI3
aI4
aI0
aI0
aI1
aI1
aI17
aI2
aa(lp279
V0021100859
p280
aVAPR 11, 2012
p281
aVCLE vs. IND
p282
aVL
p283
aI41
aI8
aI18
aF0.444
aI0
aI2
aF0.0
aI5
aI8
aF0.625
aI3
aI5
aI8
aI3
aI0
aI0
aI3
aI3
aI21
aI-16
aa(lp284
V0021100877
p285
aVAPR 13, 2012
p286
aVCLE @ IND
p287
aVL
p288
aI24
aI5
aI12
aF0.417
aI1
aI4
aF0.25
aI1
aI2
aF0.5
aI0
aI4
aI4
aI0
aI0
aI0
aI1
aI4
aI12
aI-23
aa(lp289
V0021100898
p290
aVAPR 15, 2012
p291
aVCLE vs. ORL
p292
aVL
p293
aI34
aI5
aI13
aF0.385
aI1
aI3
aF0.333
aI10
aI12
aF0.833
aI1
aI4
aI5
aI6
aI1
aI1
aI4
aI5
aI21
aI-9
aa(lp294
V0021100914
p295
aVAPR 17, 2012
p296
aVCLE @ DET
p297
aVL
p298
aI29
aI0
aI10
aF0.0
aI0
aI4
aF0.0
aI3
aI4
aF0.75
aI1
aI3
aI4
aI2
aI0
aI0
aI4
aI1
aI3
aI-47
aa(lp299
V0021100920
p300
aVAPR 18, 2012
p301
aVCLE vs. PHI
p302
aVL
p303
aI28
aI5
aI13
aF0.385
aI0
aI2
aF0.0
aI1
aI2
aF0.5
aI1
aI3
aI4
aI3
aI0
aI1
aI3
aI2
aI11
aI-15
aa(lp304
V0021100939
p305
aVAPR 20, 2012
p306
aVCLE vs. NYK
p307
aVW
p308
aI29
aI3
aI9
aF0.333
aI0
aI2
aF0.0
aI2
aI6
aF0.333
aI4
aI4
aI8
aI5
aI1
aI1
aI0
aI2
aI8
aI12
aa(lp309
V0021100956
p310
aVAPR 22, 2012
p311
aVCLE @ SAS
p312
aVL
p313
aI31
aI8
aI20
aF0.4
aI3
aI10
aF0.3
aI2
aI3
aF0.667
aI0
aI3
aI3
aI3
aI0
aI0
aI0
aI1
aI21
aI-1
aa(lp314
V0021100964
p315
aVAPR 23, 2012
p316
aVCLE @ MEM
p317
aVL
p318
aI33
aI6
aI14
aF0.429
aI3
aI6
aF0.5
aI2
aI2
aF1.0
aI4
aI5
aI9
aI3
aI0
aI0
aI0
aI2
aI17
aI6
aa(lp319
V0021100972
p320
aVAPR 25, 2012
p321
aVCLE vs. WAS
p322
aVL
p323
aI17
aI3
aI8
aF0.375
aI0
aI2
aF0.0
aI4
aI4
aF1.0
aI3
aI1
aI4
aI0
aI1
aI0
aI1
aI3
aI10
aI-6
aa(lp324
V0021100984
p325
aVAPR 26, 2012
p326
aVCLE @ CHI
p327
aVL
p328
aI28
aI4
aI18
aF0.222
aI1
aI5
aF0.2
aI3
aI4
aF0.75
aI3
aI4
aI7
aI1
aI1
aI0
aI0
aI2
aI12
aI-24
aasS'name'
p329
VAntawn Jamison
p330
sS'experience'
p331
I13
s.