(dp0
S'age'
p1
I33
sS'stats'
p2
(lp3
(lp4
V0021100983
p5
aVAPR 26, 2012
p6
aVDAL @ ATL
p7
aVL
p8
aI26
aI7
aI12
aF0.583
aI1
aI1
aF1.0
aI7
aI7
aF1.0
aI0
aI3
aI3
aI1
aI0
aI0
aI4
aI2
aI22
aI-7
aa(lp9
V0021100946
p10
aVAPR 21, 2012
p11
aVDAL @ CHI
p12
aVL
p13
aI33
aI6
aI15
aF0.4
aI1
aI4
aF0.25
aI4
aI5
aF0.8
aI1
aI6
aI7
aI0
aI0
aI0
aI0
aI3
aI17
aI10
aa(lp14
V0021100940
p15
aVAPR 20, 2012
p16
aVDAL vs. GSW
p17
aVW
p18
aI27
aI7
aI14
aF0.5
aI0
aI1
aF0.0
aI2
aI2
aF1.0
aI1
aI4
aI5
aI2
aI0
aI0
aI4
aI3
aI16
aI6
aa(lp19
V0021100926
p20
aVAPR 18, 2012
p21
aVDAL vs. HOU
p22
aVW
p23
aI39
aI10
aI18
aF0.556
aI3
aI4
aF0.75
aI12
aI12
aF1.0
aI0
aI4
aI4
aI2
aI1
aI0
aI0
aI3
aI35
aI17
aa(lp24
V0021100909
p25
aVAPR 16, 2012
p26
aVDAL @ UTA
p27
aVL
p28
aI53
aI13
aI26
aF0.5
aI2
aI7
aF0.286
aI12
aI12
aF1.0
aI1
aI8
aI9
aI6
aI0
aI0
aI3
aI4
aI40
aI8
aa(lp29
V0021100894
p30
aVAPR 15, 2012
p31
aVDAL @ LAL
p32
aVL
p33
aI43
aI9
aI28
aF0.321
aI3
aI8
aF0.375
aI3
aI3
aF1.0
aI0
aI14
aI14
aI1
aI0
aI1
aI2
aI0
aI24
aI5
aa(lp34
V0021100885
p35
aVAPR 13, 2012
p36
aVDAL @ POR
p37
aVW
p38
aI37
aI8
aI14
aF0.571
aI4
aI5
aF0.8
aI4
aI4
aF1.0
aI0
aI9
aI9
aI3
aI1
aI1
aI5
aI3
aI24
aI1
aa(lp39
V0021100873
p40
aVAPR 12, 2012
p41
aVDAL @ GSW
p42
aVW
p43
aI37
aI10
aI23
aF0.435
aI1
aI5
aF0.2
aI6
aI7
aF0.857
aI0
aI1
aI1
aI3
aI1
aI0
aI2
aI5
aI27
aI21
aa(lp44
V0021100856
p45
aVAPR 10, 2012
p46
aVDAL vs. SAC
p47
aVW
p48
aI29
aI4
aI14
aF0.286
aI1
aI3
aF0.333
aI6
aI6
aF1.0
aI2
aI6
aI8
aI0
aI0
aI1
aI1
aI4
aI15
aI8
aa(lp49
V0021100829
p50
aVAPR 07, 2012
p51
aVDAL @ MEM
p52
aVL
p53
aI36
aI5
aI16
aF0.313
aI3
aI7
aF0.429
aI4
aI4
aF1.0
aI0
aI8
aI8
aI2
aI0
aI0
aI3
aI0
aI17
aI3
aa(lp54
V0021100821
p55
aVAPR 06, 2012
p56
aVDAL vs. POR
p57
aVL
p58
aI43
aI9
aI16
aF0.563
aI1
aI5
aF0.2
aI4
aI4
aF1.0
aI1
aI13
aI14
aI2
aI0
aI1
aI1
aI1
aI23
aI6
aa(lp59
V0021100807
p60
aVAPR 04, 2012
p61
aVDAL vs. MEM
p62
aVW
p63
aI38
aI10
aI18
aF0.556
aI0
aI1
aF0.0
aI3
aI5
aF0.6
aI2
aI8
aI10
aI2
aI1
aI1
aI0
aI1
aI23
aI20
aa(lp64
V0021100788
p65
aVAPR 02, 2012
p66
aVDAL vs. LAC
p67
aVL
p68
aI36
aI7
aI14
aF0.5
aI1
aI2
aF0.5
aI4
aI4
aF1.0
aI0
aI4
aI4
aI0
aI1
aI1
aI2
aI1
aI19
aI-16
aa(lp69
V0021100762
p70
aVMAR 30, 2012
p71
aVDAL @ ORL
p72
aVW
p73
aI37
aI9
aI18
aF0.5
aI2
aI3
aF0.667
aI8
aI8
aF1.0
aI0
aI3
aI3
aI2
aI0
aI1
aI1
aI3
aI28
aI3
aa(lp74
V0021100754
p75
aVMAR 29, 2012
p76
aVDAL @ MIA
p77
aVL
p78
aI34
aI9
aI19
aF0.474
aI0
aI1
aF0.0
aI7
aI7
aF1.0
aI1
aI5
aI6
aI3
aI1
aI1
aI3
aI3
aI25
aI-9
aa(lp79
V0021100739
p80
aVMAR 27, 2012
p81
aVDAL vs. HOU
p82
aVW
p83
aI35
aI5
aI17
aF0.294
aI0
aI3
aF0.0
aI11
aI12
aF0.917
aI0
aI6
aI6
aI3
aI0
aI0
aI1
aI1
aI21
aI5
aa(lp84
V0021100716
p85
aVMAR 24, 2012
p86
aVDAL @ HOU
p87
aVW
p88
aI39
aI10
aI20
aF0.5
aI2
aI6
aF0.333
aI9
aI10
aF0.9
aI0
aI7
aI7
aI3
aI0
aI2
aI0
aI3
aI31
aI10
aa(lp89
V0021100707
p90
aVMAR 23, 2012
p91
aVDAL @ SAS
p92
aVL
p93
aI37
aI5
aI21
aF0.238
aI0
aI2
aF0.0
aI6
aI6
aF1.0
aI0
aI2
aI2
aI2
aI0
aI0
aI2
aI1
aI16
aI-6
aa(lp94
V0021100692
p95
aVMAR 21, 2012
p96
aVDAL vs. LAL
p97
aVL
p98
aI36
aI10
aI23
aF0.435
aI2
aI5
aF0.4
aI4
aI5
aF0.8
aI3
aI7
aI10
aI4
aI2
aI0
aI1
aI2
aI26
aI-15
aa(lp99
V0021100674
p100
aVMAR 19, 2012
p101
aVDAL @ DEN
p102
aVW
p103
aI31
aI12
aI19
aF0.632
aI3
aI4
aF0.75
aI6
aI8
aF0.75
aI1
aI10
aI11
aI6
aI0
aI1
aI3
aI2
aI33
aI23
aa(lp104
V0021100659
p105
aVMAR 17, 2012
p106
aVDAL vs. SAS
p107
aVW
p108
aI36
aI9
aI19
aF0.474
aI2
aI3
aF0.667
aI7
aI7
aF1.0
aI1
aI5
aI6
aI4
aI0
aI0
aI4
aI2
aI27
aI5
aa(lp109
V0021100639
p110
aVMAR 15, 2012
p111
aVDAL vs. CHA
p112
aVW
p113
aI33
aI9
aI21
aF0.429
aI3
aI7
aF0.429
aI6
aI7
aF0.857
aI0
aI6
aI6
aI5
aI0
aI0
aI1
aI2
aI27
aI10
aa(lp114
V0021100623
p115
aVMAR 13, 2012
p116
aVDAL vs. WAS
p117
aVW
p118
aI28
aI10
aI14
aF0.714
aI2
aI5
aF0.4
aI5
aI6
aF0.833
aI0
aI4
aI4
aI3
aI0
aI0
aI2
aI5
aI27
aI19
aa(lp119
V0021100602
p120
aVMAR 10, 2012
p121
aVDAL @ GSW
p122
aVL
p123
aI30
aI7
aI16
aF0.438
aI1
aI1
aF1.0
aI7
aI8
aF0.875
aI1
aI3
aI4
aI0
aI1
aI0
aI2
aI0
aI22
aI-4
aa(lp124
V0021100593
p125
aVMAR 09, 2012
p126
aVDAL @ SAC
p127
aVL
p128
aI29
aI5
aI13
aF0.385
aI0
aI0
aF0.0
aI3
aI3
aF1.0
aI1
aI8
aI9
aI1
aI1
aI1
aI3
aI1
aI13
aI-21
aa(lp129
V0021100583
p130
aVMAR 08, 2012
p131
aVDAL @ PHX
p132
aVL
p133
aI36
aI8
aI15
aF0.533
aI0
aI2
aF0.0
aI2
aI2
aF1.0
aI1
aI6
aI7
aI2
aI1
aI0
aI1
aI3
aI18
aI-5
aa(lp134
V0021100568
p135
aVMAR 06, 2012
p136
aVDAL vs. NYK
p137
aVW
p138
aI34
aI8
aI18
aF0.444
aI0
aI1
aF0.0
aI12
aI12
aF1.0
aI0
aI3
aI3
aI1
aI1
aI0
aI2
aI1
aI28
aI16
aa(lp139
V0021100559
p140
aVMAR 05, 2012
p141
aVDAL @ OKC
p142
aVL
p143
aI38
aI10
aI22
aF0.455
aI4
aI6
aF0.667
aI3
aI3
aF1.0
aI0
aI5
aI5
aI0
aI0
aI0
aI3
aI3
aI27
aI-7
aa(lp144
V0021100544
p145
aVMAR 03, 2012
p146
aVDAL vs. UTA
p147
aVW
p148
aI29
aI14
aI21
aF0.667
aI3
aI8
aF0.375
aI9
aI10
aF0.9
aI1
aI5
aI6
aI0
aI1
aI0
aI4
aI2
aI40
aI8
aa(lp149
V0021100533
p150
aVMAR 02, 2012
p151
aVDAL @ NOH
p152
aVL
p153
aI35
aI7
aI19
aF0.368
aI5
aI8
aF0.625
aI0
aI0
aF0.0
aI3
aI6
aI9
aI2
aI1
aI0
aI6
aI2
aI19
aI-5
aa(lp154
V0021100518
p155
aVFEB 29, 2012
p156
aVDAL @ MEM
p157
aVL
p158
aI10
aI0
aI1
aF0.0
aI0
aI0
aF0.0
aI1
aI2
aF0.5
aI1
aI3
aI4
aI1
aI0
aI0
aI2
aI0
aI1
aI1
aa(lp159
V0021100509
p160
aVFEB 28, 2012
p161
aVDAL vs. NJN
p162
aVL
p163
aI36
aI7
aI19
aF0.368
aI3
aI4
aF0.75
aI7
aI11
aF0.636
aI4
aI6
aI10
aI1
aI3
aI0
aI1
aI0
aI24
aI6
aa(lp164
V0021100497
p165
aVFEB 22, 2012
p166
aVDAL vs. LAL
p167
aVL
p168
aI36
aI9
aI22
aF0.409
aI1
aI6
aF0.167
aI6
aI8
aF0.75
aI2
aI10
aI12
aI2
aI1
aI0
aI0
aI3
aI25
aI-12
aa(lp169
V0021100474
p170
aVFEB 20, 2012
p171
aVDAL vs. BOS
p172
aVW
p173
aI30
aI10
aI24
aF0.417
aI1
aI3
aF0.333
aI5
aI5
aF1.0
aI2
aI14
aI16
aI1
aI1
aI2
aI1
aI1
aI26
aI27
aa(lp174
V0021100460
p175
aVFEB 19, 2012
p176
aVDAL @ NYK
p177
aVL
p178
aI38
aI11
aI20
aF0.55
aI4
aI5
aF0.8
aI8
aI9
aF0.889
aI1
aI4
aI5
aI3
aI2
aI0
aI4
aI2
aI34
aI10
aa(lp179
V0021100446
p180
aVFEB 17, 2012
p181
aVDAL @ PHI
p182
aVW
p183
aI37
aI10
aI22
aF0.455
aI2
aI4
aF0.5
aI6
aI6
aF1.0
aI0
aI12
aI12
aI2
aI0
aI0
aI0
aI0
aI28
aI18
aa(lp184
V0021100438
p185
aVFEB 15, 2012
p186
aVDAL vs. DEN
p187
aVW
p188
aI25
aI5
aI12
aF0.417
aI0
aI2
aF0.0
aI2
aI2
aF1.0
aI0
aI3
aI3
aI4
aI1
aI1
aI2
aI3
aI12
aI16
aa(lp189
V0021100418
p190
aVFEB 13, 2012
p191
aVDAL vs. LAC
p192
aVW
p193
aI32
aI5
aI15
aF0.333
aI1
aI3
aF0.333
aI11
aI15
aF0.733
aI0
aI7
aI7
aI2
aI2
aI0
aI1
aI3
aI22
aI-1
aa(lp194
V0021100405
p195
aVFEB 11, 2012
p196
aVDAL vs. POR
p197
aVW
p198
aI44
aI7
aI20
aF0.35
aI0
aI3
aF0.0
aI6
aI6
aF1.0
aI1
aI8
aI9
aI1
aI0
aI0
aI2
aI1
aI20
aI-5
aa(lp199
V0021100398
p200
aVFEB 10, 2012
p201
aVDAL @ MIN
p202
aVW
p203
aI35
aI11
aI19
aF0.579
aI4
aI7
aF0.571
aI7
aI10
aF0.7
aI1
aI3
aI4
aI3
aI1
aI3
aI1
aI3
aI33
aI22
aa(lp204
V0021100382
p205
aVFEB 08, 2012
p206
aVDAL @ DEN
p207
aVW
p208
aI35
aI11
aI20
aF0.55
aI1
aI6
aF0.167
aI2
aI2
aF1.0
aI0
aI9
aI9
aI3
aI1
aI1
aI1
aI2
aI25
aI12
aa(lp209
V0021100347
p210
aVFEB 04, 2012
p211
aVDAL @ CLE
p212
aVL
p213
aI35
aI9
aI15
aF0.6
aI2
aI2
aF1.0
aI4
aI5
aF0.8
aI1
aI7
aI8
aI3
aI0
aI2
aI5
aI1
aI24
aI-2
aa(lp214
V0021100340
p215
aVFEB 03, 2012
p216
aVDAL vs. IND
p217
aVL
p218
aI33
aI12
aI17
aF0.706
aI1
aI4
aF0.25
aI5
aI6
aF0.833
aI0
aI7
aI7
aI2
aI0
aI0
aI4
aI3
aI30
aI-6
aa(lp219
V0021100321
p220
aVFEB 01, 2012
p221
aVDAL vs. OKC
p222
aVL
p223
aI38
aI2
aI15
aF0.133
aI0
aI5
aF0.0
aI4
aI4
aF1.0
aI0
aI8
aI8
aI2
aI2
aI0
aI0
aI4
aI8
aI-10
aa(lp224
V0021100306
p225
aVJAN 30, 2012
p226
aVDAL @ PHX
p227
aVW
p228
aI28
aI4
aI10
aF0.4
aI0
aI3
aF0.0
aI2
aI2
aF1.0
aI1
aI3
aI4
aI4
aI0
aI0
aI0
aI0
aI10
aI9
aa(lp229
V0021100295
p230
aVJAN 29, 2012
p231
aVDAL vs. SAS
p232
aVW
p233
aI38
aI5
aI14
aF0.357
aI0
aI3
aF0.0
aI0
aI0
aF0.0
aI1
aI12
aI13
aI1
aI1
aI0
aI0
aI3
aI10
aI6
aa(lp234
V0021100215
p235
aVJAN 19, 2012
p236
aVDAL @ UTA
p237
aVW
p238
aI37
aI5
aI12
aF0.417
aI0
aI2
aF0.0
aI2
aI2
aF1.0
aI1
aI4
aI5
aI1
aI0
aI0
aI1
aI1
aI12
aI11
aa(lp239
V0021100212
p240
aVJAN 18, 2012
p241
aVDAL @ LAC
p242
aVL
p243
aI33
aI6
aI18
aF0.333
aI3
aI6
aF0.5
aI2
aI2
aF1.0
aI0
aI7
aI7
aI1
aI1
aI3
aI2
aI4
aI17
aI-5
aa(lp244
V0021100194
p245
aVJAN 16, 2012
p246
aVDAL @ LAL
p247
aVL
p248
aI33
aI8
aI17
aF0.471
aI0
aI1
aF0.0
aI5
aI6
aF0.833
aI1
aI6
aI7
aI1
aI0
aI0
aI3
aI1
aI21
aI0
aa(lp249
V0021100178
p250
aVJAN 14, 2012
p251
aVDAL vs. SAC
p252
aVW
p253
aI20
aI6
aI14
aF0.429
aI0
aI2
aF0.0
aI2
aI2
aF1.0
aI0
aI2
aI2
aI1
aI1
aI2
aI0
aI4
aI14
aI4
aa(lp254
V0021100165
p255
aVJAN 13, 2012
p256
aVDAL vs. MIL
p257
aVW
p258
aI22
aI4
aI7
aF0.571
aI1
aI2
aF0.5
aI2
aI2
aF1.0
aI0
aI5
aI5
aI2
aI0
aI0
aI0
aI0
aI11
aI14
aa(lp259
V0021100146
p260
aVJAN 11, 2012
p261
aVDAL @ BOS
p262
aVW
p263
aI38
aI5
aI11
aF0.455
aI0
aI1
aF0.0
aI6
aI6
aF1.0
aI2
aI5
aI7
aI4
aI1
aI1
aI3
aI2
aI16
aI4
aa(lp264
V0021100135
p265
aVJAN 10, 2012
p266
aVDAL @ DET
p267
aVW
p268
aI28
aI9
aI10
aF0.9
aI0
aI0
aF0.0
aI0
aI1
aF0.0
aI0
aI7
aI7
aI1
aI0
aI1
aI2
aI3
aI18
aI42
aa(lp269
V0021100117
p270
aVJAN 07, 2012
p271
aVDAL vs. NOH
p272
aVW
p273
aI30
aI2
aI11
aF0.182
aI0
aI2
aF0.0
aI6
aI6
aF1.0
aI0
aI2
aI2
aI4
aI2
aI0
aI0
aI2
aI10
aI14
aa(lp274
V0021100095
p275
aVJAN 05, 2012
p276
aVDAL @ SAS
p277
aVL
p278
aI24
aI3
aI11
aF0.273
aI0
aI3
aF0.0
aI0
aI1
aF0.0
aI1
aI5
aI6
aI0
aI1
aI1
aI2
aI0
aI6
aI-18
aa(lp279
V0021100090
p280
aVJAN 04, 2012
p281
aVDAL vs. PHX
p282
aVW
p283
aI35
aI7
aI17
aF0.412
aI0
aI0
aF0.0
aI6
aI7
aF0.857
aI1
aI5
aI6
aI7
aI0
aI0
aI3
aI2
aI20
aI8
aa(lp284
V0021100073
p285
aVJAN 02, 2012
p286
aVDAL vs. OKC
p287
aVW
p288
aI36
aI10
aI16
aF0.625
aI1
aI5
aF0.2
aI5
aI6
aF0.833
aI1
aI5
aI6
aI3
aI2
aI0
aI2
aI2
aI26
aI24
aa(lp289
V0021100061
p290
aVJAN 01, 2012
p291
aVDAL @ MIN
p292
aVL
p293
aI32
aI9
aI20
aF0.45
aI2
aI3
aF0.667
aI1
aI1
aF1.0
aI0
aI4
aI4
aI0
aI1
aI0
aI0
aI2
aI21
aI-12
aa(lp294
V0021100047
p295
aVDEC 30, 2011
p296
aVDAL vs. TOR
p297
aVW
p298
aI31
aI7
aI16
aF0.438
aI0
aI1
aF0.0
aI4
aI5
aF0.8
aI0
aI4
aI4
aI4
aI4
aI1
aI2
aI0
aI18
aI5
aa(lp299
V0021100035
p300
aVDEC 29, 2011
p301
aVDAL @ OKC
p302
aVL
p303
aI39
aI9
aI17
aF0.529
aI1
aI4
aF0.25
aI10
aI10
aF1.0
aI2
aI8
aI10
aI4
aI0
aI0
aI4
aI5
aI29
aI19
aa(lp304
V0021100012
p305
aVDEC 26, 2011
p306
aVDAL vs. DEN
p307
aVL
p308
aI26
aI7
aI14
aF0.5
aI0
aI2
aF0.0
aI6
aI6
aF1.0
aI0
aI4
aI4
aI0
aI0
aI0
aI1
aI2
aI20
aI-21
aa(lp309
V0021100002
p310
aVDEC 25, 2011
p311
aVDAL vs. MIA
p312
aVL
p313
aI29
aI6
aI15
aF0.4
aI0
aI0
aF0.0
aI9
aI10
aF0.9
aI1
aI4
aI5
aI3
aI0
aI0
aI2
aI4
aI21
aI-28
aasS'name'
p314
VDirk Nowitzki
p315
sS'experience'
p316
I13
s.