(dp0
S'age'
p1
I26
sS'stats'
p2
(lp3
(lp4
V0021100840
p5
aVAPR 08, 2012
p6
aVTOR @ OKC
p7
aVL
p8
aI13
aI1
aI3
aF0.333
aI0
aI0
aF0.0
aI5
aI6
aF0.833
aI1
aI4
aI5
aI0
aI0
aI1
aI0
aI0
aI7
aI-1
aa(lp9
V0021100816
p10
aVAPR 06, 2012
p11
aVTOR vs. CLE
p12
aVL
p13
aI36
aI8
aI22
aF0.364
aI1
aI5
aF0.2
aI2
aI4
aF0.5
aI1
aI6
aI7
aI2
aI2
aI0
aI0
aI3
aI19
aI-3
aa(lp14
V0021100799
p15
aVAPR 04, 2012
p16
aVTOR @ PHI
p17
aVW
p18
aI34
aI8
aI15
aF0.533
aI3
aI7
aF0.429
aI5
aI5
aF1.0
aI0
aI5
aI5
aI2
aI0
aI0
aI2
aI0
aI24
aI21
aa(lp19
V0021100791
p20
aVAPR 03, 2012
p21
aVTOR vs. CHA
p22
aVW
p23
aI34
aI11
aI22
aF0.5
aI2
aI6
aF0.333
aI6
aI6
aF1.0
aI0
aI3
aI3
aI1
aI1
aI0
aI2
aI4
aI30
aI9
aa(lp24
V0021100779
p25
aVAPR 01, 2012
p26
aVTOR vs. WAS
p27
aVW
p28
aI31
aI6
aI15
aF0.4
aI0
aI3
aF0.0
aI6
aI6
aF1.0
aI0
aI8
aI8
aI4
aI3
aI0
aI1
aI1
aI18
aI0
aa(lp29
V0021100757
p30
aVMAR 30, 2012
p31
aVTOR vs. MIA
p32
aVL
p33
aI39
aI10
aI17
aF0.588
aI3
aI4
aF0.75
aI4
aI4
aF1.0
aI0
aI1
aI1
aI1
aI0
aI1
aI2
aI1
aI27
aI-22
aa(lp34
V0021100743
p35
aVMAR 28, 2012
p36
aVTOR vs. DEN
p37
aVW
p38
aI36
aI7
aI14
aF0.5
aI2
aI4
aF0.5
aI10
aI12
aF0.833
aI2
aI3
aI5
aI2
aI1
aI1
aI2
aI1
aI26
aI8
aa(lp39
V0021100727
p40
aVMAR 26, 2012
p41
aVTOR vs. ORL
p42
aVL
p43
aI24
aI3
aI11
aF0.273
aI0
aI1
aF0.0
aI2
aI2
aF1.0
aI1
aI2
aI3
aI0
aI0
aI0
aI1
aI3
aI8
aI-14
aa(lp44
V0021100714
p45
aVMAR 24, 2012
p46
aVTOR @ CHI
p47
aVL
p48
aI36
aI4
aI18
aF0.222
aI1
aI6
aF0.167
aI8
aI10
aF0.8
aI1
aI6
aI7
aI3
aI0
aI1
aI2
aI1
aI17
aI8
aa(lp49
V0021100699
p50
aVMAR 23, 2012
p51
aVTOR vs. NYK
p52
aVW
p53
aI34
aI9
aI20
aF0.45
aI1
aI5
aF0.2
aI2
aI2
aF1.0
aI0
aI7
aI7
aI1
aI0
aI0
aI4
aI2
aI21
aI23
aa(lp54
V0021100683
p55
aVMAR 21, 2012
p56
aVTOR vs. CHI
p57
aVL
p58
aI33
aI2
aI10
aF0.2
aI0
aI3
aF0.0
aI4
aI4
aF1.0
aI0
aI5
aI5
aI6
aI1
aI0
aI1
aI2
aI8
aI-2
aa(lp59
V0021100677
p60
aVMAR 20, 2012
p61
aVTOR @ NYK
p62
aVL
p63
aI33
aI5
aI15
aF0.333
aI0
aI4
aF0.0
aI5
aI5
aF1.0
aI0
aI2
aI2
aI1
aI0
aI0
aI2
aI2
aI15
aI-22
aa(lp64
V0021100655
p65
aVMAR 17, 2012
p66
aVTOR @ CHA
p67
aVL
p68
aI28
aI4
aI10
aF0.4
aI1
aI2
aF0.5
aI2
aI2
aF1.0
aI0
aI3
aI3
aI1
aI2
aI0
aI7
aI3
aI11
aI-17
aa(lp69
V0021100648
p70
aVMAR 16, 2012
p71
aVTOR @ MEM
p72
aVW
p73
aI39
aI4
aI17
aF0.235
aI2
aI5
aF0.4
aI8
aI9
aF0.889
aI2
aI5
aI7
aI1
aI0
aI0
aI5
aI3
aI18
aI6
aa(lp74
V0021100627
p75
aVMAR 14, 2012
p76
aVTOR @ NJN
p77
aVL
p78
aI33
aI4
aI13
aF0.308
aI0
aI2
aF0.0
aI2
aI2
aF1.0
aI1
aI1
aI2
aI3
aI1
aI1
aI2
aI2
aI10
aI-11
aa(lp79
V0021100619
p80
aVMAR 13, 2012
p81
aVTOR @ CLE
p82
aVW
p83
aI29
aI8
aI15
aF0.533
aI0
aI1
aF0.0
aI3
aI3
aF1.0
aI1
aI7
aI8
aI1
aI0
aI1
aI3
aI2
aI19
aI5
aa(lp84
V0021100605
p85
aVMAR 11, 2012
p86
aVTOR vs. MIL
p87
aVL
p88
aI30
aI4
aI10
aF0.4
aI0
aI3
aF0.0
aI3
aI4
aF0.75
aI2
aI6
aI8
aI2
aI1
aI0
aI3
aI1
aI11
aI5
aa(lp89
V0021100596
p90
aVMAR 10, 2012
p91
aVTOR @ DET
p92
aVL
p93
aI19
aI2
aI8
aF0.25
aI0
aI1
aF0.0
aI4
aI4
aF1.0
aI1
aI2
aI3
aI3
aI1
aI0
aI1
aI0
aI8
aI-10
aa(lp94
V0021100266
p95
aVJAN 25, 2012
p96
aVTOR @ UTA
p97
aVW
p98
aI40
aI10
aI26
aF0.385
aI3
aI8
aF0.375
aI2
aI4
aF0.5
aI2
aI3
aI5
aI4
aI0
aI1
aI5
aI1
aI25
aI-2
aa(lp99
V0021100255
p100
aVJAN 24, 2012
p101
aVTOR @ PHX
p102
aVW
p103
aI42
aI10
aI21
aF0.476
aI4
aI6
aF0.667
aI12
aI12
aF1.0
aI1
aI5
aI6
aI2
aI2
aI1
aI2
aI2
aI36
aI1
aa(lp104
V0021100143
p105
aVJAN 11, 2012
p106
aVTOR vs. SAC
p107
aVL
p108
aI28
aI2
aI13
aF0.154
aI0
aI3
aF0.0
aI6
aI6
aF1.0
aI1
aI9
aI10
aI0
aI0
aI0
aI2
aI0
aI10
aI-2
aa(lp109
V0021100133
p110
aVJAN 10, 2012
p111
aVTOR @ WAS
p112
aVL
p113
aI29
aI9
aI16
aF0.563
aI0
aI3
aF0.0
aI4
aI4
aF1.0
aI1
aI1
aI2
aI2
aI0
aI0
aI2
aI2
aI22
aI-15
aa(lp114
V0021100126
p115
aVJAN 09, 2012
p116
aVTOR vs. MIN
p117
aVW
p118
aI45
aI11
aI25
aF0.44
aI1
aI6
aF0.167
aI8
aI9
aF0.889
aI1
aI8
aI9
aI0
aI0
aI1
aI2
aI3
aI31
aI9
aa(lp119
V0021100114
p120
aVJAN 07, 2012
p121
aVTOR @ PHI
p122
aVL
p123
aI32
aI8
aI19
aF0.421
aI1
aI4
aF0.25
aI4
aI6
aF0.667
aI3
aI8
aI11
aI1
aI1
aI0
aI1
aI2
aI21
aI-25
aa(lp124
V0021100098
p125
aVJAN 06, 2012
p126
aVTOR vs. NJN
p127
aVL
p128
aI36
aI6
aI12
aF0.5
aI1
aI1
aF1.0
aI4
aI5
aF0.8
aI1
aI3
aI4
aI3
aI0
aI2
aI1
aI1
aI17
aI-11
aa(lp129
V0021100082
p130
aVJAN 04, 2012
p131
aVTOR vs. CLE
p132
aVW
p133
aI34
aI11
aI16
aF0.688
aI3
aI7
aF0.429
aI6
aI7
aF0.857
aI0
aI7
aI7
aI3
aI0
aI1
aI2
aI1
aI31
aI22
aa(lp134
V0021100069
p135
aVJAN 02, 2012
p136
aVTOR @ NYK
p137
aVW
p138
aI38
aI7
aI13
aF0.538
aI0
aI2
aF0.0
aI7
aI8
aF0.875
aI0
aI5
aI5
aI1
aI0
aI0
aI3
aI3
aI21
aI-6
aa(lp139
V0021100058
p140
aVJAN 01, 2012
p141
aVTOR @ ORL
p142
aVL
p143
aI41
aI10
aI21
aF0.476
aI1
aI3
aF0.333
aI7
aI7
aF1.0
aI0
aI7
aI7
aI3
aI1
aI0
aI2
aI1
aI28
aI-2
aa(lp144
V0021100047
p145
aVDEC 30, 2011
p146
aVTOR @ DAL
p147
aVL
p148
aI42
aI11
aI18
aF0.611
aI2
aI3
aF0.667
aI6
aI8
aF0.75
aI0
aI7
aI7
aI1
aI0
aI1
aI3
aI0
aI30
aI-4
aa(lp149
V0021100023
p150
aVDEC 28, 2011
p151
aVTOR vs. IND
p152
aVL
p153
aI32
aI9
aI17
aF0.529
aI1
aI3
aF0.333
aI2
aI5
aF0.4
aI1
aI3
aI4
aI5
aI1
aI2
aI4
aI3
aI21
aI-1
aa(lp154
V0021100009
p155
aVDEC 26, 2011
p156
aVTOR @ CLE
p157
aVW
p158
aI30
aI5
aI12
aF0.417
aI1
aI4
aF0.25
aI2
aI2
aF1.0
aI0
aI6
aI6
aI2
aI0
aI0
aI0
aI2
aI13
aI9
aasS'name'
p159
VAndrea Bargnani
p160
sS'experience'
p161
I5
s.