(dp0
S'stats'
p1
(lp2
(lp3
V0021100022
p4
aVDEC 27, 2011
p5
aVUTA @ LAL
p6
aVL
p7
aI27
aI7
aI15
aF0.467
aI0
aI1
aF0.0
aI4
aI6
aF0.667
aI6
aI2
aI8
aI0
aI0
aI1
aI1
aI3
aI18
aI3
aa(lp8
V0021100030
p9
aVDEC 28, 2011
p10
aVUTA @ DEN
p11
aVL
p12
aI22
aI6
aI9
aF0.667
aI1
aI1
aF1.0
aI0
aI0
aF0.0
aI1
aI7
aI8
aI1
aI2
aI0
aI1
aI1
aI13
aI-20
aa(lp13
V0021100048
p14
aVDEC 30, 2011
p15
aVUTA vs. PHI
p16
aVW
p17
aI35
aI4
aI16
aF0.25
aI1
aI3
aF0.333
aI5
aI8
aF0.625
aI2
aI12
aI14
aI2
aI3
aI2
aI0
aI3
aI14
aI7
aa(lp18
V0021100055
p19
aVDEC 31, 2011
p20
aVUTA @ SAS
p21
aVL
p22
aI25
aI4
aI7
aF0.571
aI0
aI0
aF0.0
aI0
aI0
aF0.0
aI3
aI4
aI7
aI2
aI3
aI0
aI0
aI4
aI8
aI1
aa(lp23
V0021100075
p24
aVJAN 02, 2012
p25
aVUTA vs. NOH
p26
aVW
p27
aI25
aI3
aI7
aF0.429
aI0
aI1
aF0.0
aI0
aI0
aF0.0
aI2
aI4
aI6
aI1
aI3
aI0
aI1
aI1
aI6
aI0
aa(lp28
V0021100080
p29
aVJAN 03, 2012
p30
aVUTA vs. MIL
p31
aVW
p32
aI26
aI6
aI7
aF0.857
aI0
aI0
aF0.0
aI1
aI2
aF0.5
aI2
aI10
aI12
aI2
aI1
aI2
aI3
aI4
aI13
aI0
aa(lp33
V0021100107
p34
aVJAN 06, 2012
p35
aVUTA vs. MEM
p36
aVW
p37
aI36
aI7
aI9
aF0.778
aI0
aI0
aF0.0
aI0
aI0
aF0.0
aI2
aI6
aI8
aI4
aI1
aI2
aI1
aI1
aI14
aI2
aa(lp38
V0021100119
p39
aVJAN 07, 2012
p40
aVUTA @ GSW
p41
aVW
p42
aI22
aI4
aI12
aF0.333
aI0
aI1
aF0.0
aI1
aI2
aF0.5
aI2
aI2
aI4
aI4
aI1
aI0
aI0
aI5
aI9
aI18
aa(lp43
V0021100139
p44
aVJAN 10, 2012
p45
aVUTA vs. CLE
p46
aVW
p47
aI26
aI9
aI10
aF0.9
aI0
aI0
aF0.0
aI1
aI2
aF0.5
aI1
aI2
aI3
aI0
aI0
aI1
aI2
aI6
aI19
aI9
aa(lp48
V0021100151
p49
aVJAN 11, 2012
p50
aVUTA vs. LAL
p51
aVL
p52
aI41
aI14
aI24
aF0.583
aI0
aI0
aF0.0
aI1
aI2
aF0.5
aI2
aI7
aI9
aI1
aI3
aI0
aI1
aI2
aI29
aI-3
aa(lp53
V0021100179
p54
aVJAN 14, 2012
p55
aVUTA vs. NJN
p56
aVW
p57
aI28
aI6
aI13
aF0.462
aI0
aI1
aF0.0
aI6
aI6
aF1.0
aI6
aI6
aI12
aI3
aI4
aI0
aI3
aI1
aI18
aI15
aa(lp58
V0021100182
p59
aVJAN 15, 2012
p60
aVUTA @ DEN
p61
aVW
p62
aI35
aI12
aI19
aF0.632
aI0
aI0
aF0.0
aI2
aI5
aF0.4
aI3
aI9
aI12
aI3
aI1
aI1
aI1
aI4
aI26
aI7
aa(lp63
V0021100201
p64
aVJAN 17, 2012
p65
aVUTA vs. LAC
p66
aVW
p67
aI30
aI7
aI11
aF0.636
aI0
aI0
aF0.0
aI6
aI6
aF1.0
aI1
aI5
aI6
aI1
aI2
aI0
aI0
aI3
aI20
aI22
aa(lp68
V0021100215
p69
aVJAN 19, 2012
p70
aVUTA vs. DAL
p71
aVL
p72
aI40
aI6
aI16
aF0.375
aI0
aI1
aF0.0
aI4
aI4
aF1.0
aI8
aI5
aI13
aI2
aI1
aI1
aI2
aI4
aI16
aI1
aa(lp73
V0021100236
p74
aVJAN 21, 2012
p75
aVUTA vs. MIN
p76
aVW
p77
aI33
aI12
aI18
aF0.667
aI0
aI0
aF0.0
aI2
aI2
aF1.0
aI4
aI5
aI9
aI4
aI1
aI0
aI2
aI5
aI26
aI19
aa(lp78
V0021100266
p79
aVJAN 25, 2012
p80
aVUTA vs. TOR
p81
aVL
p82
aI49
aI12
aI24
aF0.5
aI1
aI2
aF0.5
aI6
aI8
aF0.75
aI2
aI9
aI11
aI2
aI1
aI1
aI3
aI5
aI31
aI-2
aa(lp83
V0021100281
p84
aVJAN 27, 2012
p85
aVUTA @ DAL
p86
aVL
p87
aI33
aI7
aI13
aF0.538
aI0
aI1
aF0.0
aI6
aI6
aF1.0
aI2
aI5
aI7
aI2
aI2
aI1
aI1
aI4
aI20
aI-14
aa(lp88
V0021100289
p89
aVJAN 28, 2012
p90
aVUTA vs. SAC
p91
aVW
p92
aI33
aI2
aI10
aF0.2
aI0
aI0
aF0.0
aI2
aI2
aF1.0
aI5
aI9
aI14
aI1
aI1
aI2
aI1
aI3
aI6
aI1
aa(lp93
V0021100305
p94
aVJAN 30, 2012
p95
aVUTA vs. POR
p96
aVW
p97
aI39
aI6
aI15
aF0.4
aI0
aI0
aF0.0
aI7
aI8
aF0.875
aI3
aI12
aI15
aI1
aI1
aI2
aI1
aI3
aI19
aI8
aa(lp98
V0021100325
p99
aVFEB 01, 2012
p100
aVUTA vs. LAC
p101
aVL
p102
aI30
aI5
aI12
aF0.417
aI1
aI1
aF1.0
aI3
aI4
aF0.75
aI4
aI3
aI7
aI0
aI1
aI0
aI1
aI5
aI14
aI-8
aa(lp103
V0021100331
p104
aVFEB 02, 2012
p105
aVUTA @ GSW
p106
aVL
p107
aI29
aI7
aI12
aF0.583
aI0
aI0
aF0.0
aI1
aI1
aF1.0
aI5
aI6
aI11
aI2
aI1
aI0
aI4
aI4
aI15
aI-5
aa(lp108
V0021100351
p109
aVFEB 04, 2012
p110
aVUTA vs. LAL
p111
aVW
p112
aI26
aI7
aI12
aF0.583
aI0
aI0
aF0.0
aI2
aI2
aF1.0
aI6
aI7
aI13
aI4
aI1
aI2
aI3
aI4
aI16
aI-1
aa(lp113
V0021100361
p114
aVFEB 06, 2012
p115
aVUTA @ NYK
p116
aVL
p117
aI29
aI3
aI10
aF0.3
aI0
aI0
aF0.0
aI3
aI4
aF0.75
aI5
aI8
aI13
aI1
aI0
aI0
aI5
aI6
aI9
aI0
aa(lp118
V0021100367
p119
aVFEB 07, 2012
p120
aVUTA @ IND
p121
aVL
p122
aI32
aI5
aI7
aF0.714
aI0
aI0
aF0.0
aI8
aI8
aF1.0
aI1
aI9
aI10
aI4
aI0
aI0
aI2
aI4
aI18
aI-8
aa(lp123
V0021100399
p124
aVFEB 10, 2012
p125
aVUTA vs. OKC
p126
aVL
p127
aI34
aI4
aI15
aF0.267
aI0
aI0
aF0.0
aI2
aI2
aF1.0
aI2
aI7
aI9
aI4
aI2
aI0
aI2
aI3
aI10
aI-9
aa(lp128
V0021100413
p129
aVFEB 12, 2012
p130
aVUTA @ MEM
p131
aVW
p132
aI35
aI7
aI11
aF0.636
aI0
aI0
aF0.0
aI2
aI3
aF0.667
aI4
aI4
aI8
aI4
aI1
aI3
aI2
aI2
aI16
aI12
aa(lp133
V0021100417
p134
aVFEB 13, 2012
p135
aVUTA @ NOH
p136
aVL
p137
aI22
aI2
aI9
aF0.222
aI0
aI0
aF0.0
aI0
aI0
aF0.0
aI3
aI2
aI5
aI1
aI2
aI0
aI2
aI2
aI4
aI-16
aa(lp138
V0021100425
p139
aVFEB 14, 2012
p140
aVUTA @ OKC
p141
aVL
p142
aI24
aI4
aI9
aF0.444
aI0
aI0
aF0.0
aI2
aI2
aF1.0
aI3
aI5
aI8
aI3
aI1
aI0
aI1
aI2
aI10
aI-20
aa(lp143
V0021100454
p144
aVFEB 17, 2012
p145
aVUTA vs. WAS
p146
aVW
p147
aI27
aI5
aI13
aF0.385
aI0
aI0
aF0.0
aI4
aI4
aF1.0
aI6
aI6
aI12
aI3
aI0
aI0
aI0
aI3
aI14
aI14
aa(lp148
V0021100466
p149
aVFEB 19, 2012
p150
aVUTA @ HOU
p151
aVL
p152
aI35
aI8
aI16
aF0.5
aI0
aI2
aF0.0
aI6
aI6
aF1.0
aI2
aI2
aI4
aI1
aI3
aI1
aI3
aI4
aI22
aI-5
aa(lp153
V0021100477
p154
aVFEB 20, 2012
p155
aVUTA vs. SAS
p156
aVL
p157
aI36
aI6
aI17
aF0.353
aI0
aI1
aF0.0
aI4
aI6
aF0.667
aI4
aI7
aI11
aI0
aI2
aI0
aI1
aI2
aI16
aI1
aa(lp158
V0021100495
p159
aVFEB 22, 2012
p160
aVUTA @ MIN
p161
aVL
p162
aI38
aI10
aI17
aF0.588
aI0
aI0
aF0.0
aI5
aI5
aF1.0
aI1
aI8
aI9
aI2
aI2
aI2
aI1
aI4
aI25
aI-4
aa(lp163
V0021100510
p164
aVFEB 28, 2012
p165
aVUTA @ SAC
p166
aVL
p167
aI25
aI2
aI6
aF0.333
aI0
aI0
aF0.0
aI0
aI0
aF0.0
aI0
aI2
aI2
aI4
aI1
aI1
aI3
aI3
aI4
aI-6
aa(lp168
V0021100536
p169
aVMAR 02, 2012
p170
aVUTA vs. MIA
p171
aVW
p172
aI30
aI3
aI7
aF0.429
aI0
aI1
aF0.0
aI2
aI2
aF1.0
aI2
aI6
aI8
aI0
aI0
aI1
aI0
aI2
aI8
aI-2
aa(lp173
V0021100544
p174
aVMAR 03, 2012
p175
aVUTA @ DAL
p176
aVL
p177
aI30
aI11
aI17
aF0.647
aI1
aI4
aF0.25
aI1
aI1
aF1.0
aI3
aI3
aI6
aI2
aI4
aI0
aI0
aI5
aI24
aI4
aa(lp178
V0021100556
p179
aVMAR 05, 2012
p180
aVUTA @ CLE
p181
aVW
p182
aI35
aI5
aI12
aF0.417
aI0
aI0
aF0.0
aI3
aI5
aF0.6
aI3
aI6
aI9
aI5
aI1
aI2
aI2
aI4
aI13
aI16
aa(lp183
V0021100572
p184
aVMAR 07, 2012
p185
aVUTA @ CHA
p186
aVW
p187
aI29
aI7
aI15
aF0.467
aI0
aI0
aF0.0
aI2
aI2
aF1.0
aI2
aI3
aI5
aI2
aI2
aI1
aI1
aI3
aI16
aI18
aa(lp188
V0021100584
p189
aVMAR 09, 2012
p190
aVUTA @ PHI
p191
aVL
p192
aI29
aI4
aI9
aF0.444
aI0
aI1
aF0.0
aI7
aI8
aF0.875
aI4
aI5
aI9
aI4
aI3
aI1
aI1
aI2
aI15
aI-6
aa(lp193
V0021100598
p194
aVMAR 10, 2012
p195
aVUTA @ CHI
p196
aVL
p197
aI35
aI11
aI17
aF0.647
aI0
aI1
aF0.0
aI4
aI5
aF0.8
aI4
aI3
aI7
aI1
aI4
aI0
aI1
aI2
aI26
aI0
aa(lp198
V0021100615
p199
aVMAR 12, 2012
p200
aVUTA vs. DET
p201
aVW
p202
aI34
aI4
aI11
aF0.364
aI0
aI0
aF0.0
aI4
aI6
aF0.667
aI2
aI8
aI10
aI5
aI5
aI0
aI2
aI3
aI12
aI22
aa(lp203
V0021100635
p204
aVMAR 14, 2012
p205
aVUTA @ PHX
p206
aVL
p207
aI34
aI8
aI16
aF0.5
aI0
aI1
aF0.0
aI2
aI3
aF0.667
aI3
aI7
aI10
aI3
aI3
aI0
aI1
aI3
aI18
aI-24
aa(lp208
V0021100641
p209
aVMAR 15, 2012
p210
aVUTA vs. MIN
p211
aVW
p212
aI38
aI7
aI17
aF0.412
aI0
aI0
aF0.0
aI2
aI3
aF0.667
aI2
aI9
aI11
aI4
aI8
aI2
aI2
aI4
aI16
aI5
aa(lp213
V0021100661
p214
aVMAR 17, 2012
p215
aVUTA vs. GSW
p216
aVW
p217
aI40
aI6
aI18
aF0.333
aI0
aI0
aF0.0
aI1
aI2
aF0.5
aI3
aI9
aI12
aI3
aI1
aI2
aI3
aI5
aI13
aI11
aa(lp218
V0021100669
p219
aVMAR 18, 2012
p220
aVUTA @ LAL
p221
aVW
p222
aI37
aI10
aI21
aF0.476
aI0
aI0
aF0.0
aI4
aI5
aF0.8
aI1
aI8
aI9
aI5
aI5
aI2
aI0
aI2
aI24
aI7
aa(lp223
V0021100680
p224
aVMAR 20, 2012
p225
aVUTA vs. OKC
p226
aVW
p227
aI32
aI10
aI16
aF0.625
aI0
aI0
aF0.0
aI0
aI2
aF0.0
aI1
aI4
aI5
aI2
aI0
aI1
aI0
aI4
aI20
aI6
aa(lp228
V0021100697
p229
aVMAR 22, 2012
p230
aVUTA @ SAC
p231
aVW
p232
aI26
aI5
aI8
aF0.625
aI0
aI0
aF0.0
aI0
aI0
aF0.0
aI2
aI5
aI7
aI0
aI1
aI1
aI4
aI4
aI10
aI-8
aa(lp233
V0021100708
p234
aVMAR 23, 2012
p235
aVUTA vs. DEN
p236
aVW
p237
aI28
aI6
aI10
aF0.6
aI0
aI0
aF0.0
aI2
aI4
aF0.5
aI1
aI5
aI6
aI1
aI2
aI1
aI1
aI3
aI14
aI12
aa(lp238
V0021100722
p239
aVMAR 25, 2012
p240
aVUTA @ ATL
p241
aVL
p242
aI52
aI10
aI25
aF0.4
aI0
aI0
aF0.0
aI5
aI7
aF0.714
aI4
aI9
aI13
aI4
aI2
aI1
aI2
aI6
aI25
aI1
aa(lp243
V0021100731
p244
aVMAR 26, 2012
p245
aVUTA @ NJN
p246
aVW
p247
aI33
aI10
aI14
aF0.714
aI1
aI1
aF1.0
aI3
aI3
aF1.0
aI3
aI10
aI13
aI3
aI1
aI0
aI3
aI5
aI24
aI27
aa(lp248
V0021100747
p249
aVMAR 28, 2012
p250
aVUTA @ BOS
p251
aVL
p252
aI27
aI6
aI10
aF0.6
aI0
aI1
aF0.0
aI4
aI5
aF0.8
aI5
aI2
aI7
aI2
aI1
aI0
aI4
aI3
aI16
aI-5
aa(lp253
V0021100766
p254
aVMAR 30, 2012
p255
aVUTA vs. SAC
p256
aVL
p257
aI30
aI3
aI6
aF0.5
aI0
aI0
aF0.0
aI6
aI6
aF1.0
aI0
aI5
aI5
aI0
aI1
aI3
aI1
aI6
aI12
aI-1
aa(lp258
V0021100776
p259
aVMAR 31, 2012
p260
aVUTA @ LAC
p261
aVL
p262
aI30
aI6
aI14
aF0.429
aI0
aI1
aF0.0
aI6
aI6
aF1.0
aI4
aI5
aI9
aI5
aI0
aI0
aI1
aI4
aI18
aI-1
aa(lp263
V0021100790
p264
aVAPR 02, 2012
p265
aVUTA @ POR
p266
aVW
p267
aI34
aI14
aI20
aF0.7
aI0
aI0
aF0.0
aI3
aI3
aF1.0
aI4
aI7
aI11
aI0
aI0
aI0
aI3
aI1
aI31
aI13
aa(lp268
V0021100808
p269
aVAPR 04, 2012
p270
aVUTA vs. PHX
p271
aVL
p272
aI35
aI9
aI15
aF0.6
aI0
aI0
aF0.0
aI7
aI8
aF0.875
aI3
aI5
aI8
aI6
aI3
aI2
aI4
aI4
aI25
aI6
aa(lp273
V0021100824
p274
aVAPR 06, 2012
p275
aVUTA vs. GSW
p276
aVW
p277
aI39
aI5
aI11
aF0.455
aI0
aI0
aF0.0
aI2
aI2
aF1.0
aI1
aI6
aI7
aI2
aI2
aI0
aI3
aI2
aI12
aI3
aa(lp278
V0021100839
p279
aVAPR 08, 2012
p280
aVUTA @ SAS
p281
aVL
p282
aI21
aI1
aI8
aF0.125
aI0
aI0
aF0.0
aI0
aI0
aF0.0
aI1
aI2
aI3
aI1
aI0
aI0
aI3
aI3
aI2
aI-7
aa(lp283
V0021100850
p284
aVAPR 09, 2012
p285
aVUTA vs. SAS
p286
aVW
p287
aI35
aI6
aI11
aF0.545
aI0
aI0
aF0.0
aI6
aI8
aF0.75
aI4
aI6
aI10
aI0
aI2
aI2
aI4
aI4
aI18
aI12
aa(lp288
V0021100864
p289
aVAPR 11, 2012
p290
aVUTA @ HOU
p291
aVW
p292
aI41
aI9
aI19
aF0.474
aI0
aI0
aF0.0
aI3
aI6
aF0.5
aI0
aI7
aI7
aI4
aI3
aI1
aI1
aI3
aI21
aI13
aa(lp293
V0021100881
p294
aVAPR 13, 2012
p295
aVUTA @ NOH
p296
aVL
p297
aI39
aI11
aI21
aF0.524
aI0
aI1
aF0.0
aI5
aI6
aF0.833
aI3
aI5
aI8
aI3
aI3
aI1
aI2
aI5
aI27
aI-9
aa(lp298
V0021100889
p299
aVAPR 14, 2012
p300
aVUTA @ MEM
p301
aVL
p302
aI38
aI8
aI15
aF0.533
aI1
aI1
aF1.0
aI0
aI2
aF0.0
aI2
aI5
aI7
aI1
aI3
aI0
aI0
aI6
aI17
aI0
aa(lp303
V0021100909
p304
aVAPR 16, 2012
p305
aVUTA vs. DAL
p306
aVW
p307
aI53
aI5
aI18
aF0.278
aI0
aI1
aF0.0
aI6
aI8
aF0.75
aI4
aI5
aI9
aI6
aI1
aI1
aI4
aI5
aI16
aI-5
aa(lp308
V0021100930
p309
aVAPR 18, 2012
p310
aVUTA @ POR
p311
aVW
p312
aI25
aI2
aI8
aF0.25
aI0
aI0
aF0.0
aI2
aI2
aF1.0
aI0
aI8
aI8
aI2
aI2
aI0
aI2
aI3
aI6
aI24
aa(lp313
V0021100950
p314
aVAPR 21, 2012
p315
aVUTA vs. ORL
p316
aVW
p317
aI46
aI5
aI13
aF0.385
aI0
aI0
aF0.0
aI8
aI8
aF1.0
aI2
aI7
aI9
aI1
aI4
aI1
aI1
aI2
aI18
aI23
aa(lp318
V0021100969
p319
aVAPR 24, 2012
p320
aVUTA vs. PHX
p321
aVW
p322
aI41
aI10
aI18
aF0.556
aI0
aI1
aF0.0
aI6
aI11
aF0.545
aI4
aI11
aI15
aI4
aI3
aI1
aI2
aI4
aI26
aI21
aasS'name'
p323
VPaul Millsap
p324
sS'weight'
p325
V246
p326
sS'age'
p327
I26
sS'experience'
p328
I5
sS'height'
p329
V6-8
p330
sS'position'
p331
VForward
p332
s.