(dp0
S'stats'
p1
(lp2
(lp3
V0021100003
p4
aVDEC 25, 2011
p5
aVCHI @ LAL
p6
aVW
p7
aI25
aI3
aI6
aF0.5
aI0
aI0
aF0.0
aI0
aI1
aF0.0
aI0
aI3
aI3
aI2
aI1
aI0
aI2
aI3
aI6
aI1
aa(lp8
V0021100017
p9
aVDEC 26, 2011
p10
aVCHI @ GSW
p11
aVL
p12
aI15
aI1
aI4
aF0.25
aI0
aI0
aF0.0
aI2
aI6
aF0.333
aI1
aI3
aI4
aI1
aI0
aI0
aI0
aI0
aI4
aI-16
aa(lp13
V0021100036
p14
aVDEC 29, 2011
p15
aVCHI @ SAC
p16
aVW
p17
aI12
aI5
aI5
aF1.0
aI2
aI2
aF1.0
aI0
aI0
aF0.0
aI0
aI1
aI1
aI0
aI1
aI0
aI0
aI1
aI12
aI2
aa(lp18
V0021100049
p19
aVDEC 30, 2011
p20
aVCHI @ LAC
p21
aVW
p22
aI14
aI2
aI2
aF1.0
aI1
aI1
aF1.0
aI2
aI2
aF1.0
aI0
aI2
aI2
aI0
aI1
aI0
aI0
aI0
aI7
aI15
aa(lp23
V0021100062
p24
aVJAN 01, 2012
p25
aVCHI vs. MEM
p26
aVW
p27
aI35
aI6
aI10
aF0.6
aI1
aI1
aF1.0
aI4
aI4
aF1.0
aI1
aI6
aI7
aI5
aI2
aI0
aI3
aI2
aI17
aI48
aa(lp28
V0021100077
p29
aVJAN 03, 2012
p30
aVCHI vs. ATL
p31
aVW
p32
aI23
aI2
aI8
aF0.25
aI0
aI1
aF0.0
aI0
aI0
aF0.0
aI1
aI3
aI4
aI1
aI0
aI1
aI0
aI1
aI4
aI-18
aa(lp33
V0021100087
p34
aVJAN 04, 2012
p35
aVCHI @ DET
p36
aVW
p37
aI16
aI4
aI6
aF0.667
aI1
aI1
aF1.0
aI0
aI2
aF0.0
aI1
aI0
aI1
aI3
aI1
aI0
aI1
aI0
aI9
aI2
aa(lp38
V0021100103
p39
aVJAN 06, 2012
p40
aVCHI @ ORL
p41
aVW
p42
aI24
aI1
aI6
aF0.167
aI0
aI0
aF0.0
aI0
aI0
aF0.0
aI1
aI0
aI1
aI2
aI1
aI0
aI1
aI0
aI2
aI-4
aa(lp43
V0021100110
p44
aVJAN 07, 2012
p45
aVCHI @ ATL
p46
aVL
p47
aI19
aI1
aI2
aF0.5
aI1
aI1
aF1.0
aI0
aI0
aF0.0
aI1
aI1
aI2
aI3
aI0
aI0
aI1
aI0
aI3
aI-14
aa(lp48
V0021100130
p49
aVJAN 09, 2012
p50
aVCHI vs. DET
p51
aVW
p52
aI27
aI6
aI9
aF0.667
aI0
aI1
aF0.0
aI0
aI2
aF0.0
aI1
aI1
aI2
aI4
aI0
aI0
aI1
aI2
aI12
aI18
aa(lp53
V0021100138
p54
aVJAN 10, 2012
p55
aVCHI @ MIN
p56
aVW
p57
aI35
aI5
aI10
aF0.5
aI1
aI3
aF0.333
aI6
aI7
aF0.857
aI1
aI3
aI4
aI3
aI1
aI0
aI2
aI0
aI17
aI15
aa(lp58
V0021100147
p59
aVJAN 11, 2012
p60
aVCHI vs. WAS
p61
aVW
p62
aI21
aI1
aI6
aF0.167
aI0
aI0
aF0.0
aI0
aI0
aF0.0
aI1
aI2
aI3
aI0
aI2
aI0
aI2
aI0
aI2
aI-14
aa(lp63
V0021100162
p64
aVJAN 13, 2012
p65
aVCHI @ BOS
p66
aVW
p67
aI37
aI5
aI7
aF0.714
aI0
aI1
aF0.0
aI2
aI2
aF1.0
aI1
aI3
aI4
aI4
aI3
aI0
aI2
aI2
aI12
aI15
aa(lp68
V0021100174
p69
aVJAN 14, 2012
p70
aVCHI vs. TOR
p71
aVW
p72
aI28
aI1
aI5
aF0.2
aI0
aI0
aF0.0
aI0
aI0
aF0.0
aI0
aI3
aI3
aI2
aI0
aI1
aI0
aI0
aI2
aI10
aa(lp73
V0021100185
p74
aVJAN 16, 2012
p75
aVCHI @ MEM
p76
aVL
p77
aI37
aI3
aI9
aF0.333
aI0
aI1
aF0.0
aI0
aI0
aF0.0
aI1
aI0
aI1
aI1
aI3
aI0
aI2
aI3
aI6
aI-6
aa(lp78
V0021100198
p79
aVJAN 17, 2012
p80
aVCHI vs. PHX
p81
aVW
p82
aI24
aI2
aI6
aF0.333
aI0
aI1
aF0.0
aI2
aI2
aF1.0
aI1
aI1
aI2
aI3
aI0
aI0
aI0
aI2
aI6
aI5
aa(lp83
V0021100222
p84
aVJAN 20, 2012
p85
aVCHI @ CLE
p86
aVW
p87
aI21
aI2
aI7
aF0.286
aI0
aI0
aF0.0
aI0
aI0
aF0.0
aI0
aI1
aI1
aI5
aI0
aI1
aI0
aI1
aI4
aI27
aa(lp88
V0021100232
p89
aVJAN 21, 2012
p90
aVCHI vs. CHA
p91
aVW
p92
aI16
aI0
aI3
aF0.0
aI0
aI0
aF0.0
aI0
aI0
aF0.0
aI1
aI0
aI1
aI0
aI1
aI1
aI0
aI0
aI0
aI-3
aa(lp93
V0021100244
p94
aVJAN 23, 2012
p95
aVCHI vs. NJN
p96
aVW
p97
aI27
aI4
aI10
aF0.4
aI1
aI2
aF0.5
aI2
aI4
aF0.5
aI3
aI2
aI5
aI1
aI0
aI1
aI0
aI0
aI11
aI10
aa(lp98
V0021100261
p99
aVJAN 25, 2012
p100
aVCHI vs. IND
p101
aVL
p102
aI42
aI8
aI15
aF0.533
aI0
aI3
aF0.0
aI4
aI5
aF0.8
aI4
aI6
aI10
aI5
aI3
aI0
aI2
aI2
aI20
aI0
aa(lp103
V0021100277
p104
aVJAN 27, 2012
p105
aVCHI vs. MIL
p106
aVW
p107
aI43
aI2
aI13
aF0.154
aI0
aI3
aF0.0
aI4
aI5
aF0.8
aI1
aI3
aI4
aI6
aI0
aI1
aI1
aI0
aI8
aI0
aa(lp108
V0021100291
p109
aVJAN 29, 2012
p110
aVCHI @ MIA
p111
aVL
p112
aI42
aI4
aI8
aF0.5
aI0
aI0
aF0.0
aI2
aI4
aF0.5
aI4
aI2
aI6
aI0
aI3
aI0
aI0
aI4
aI10
aI-8
aa(lp113
V0021100300
p114
aVJAN 30, 2012
p115
aVCHI @ WAS
p116
aVW
p117
aI38
aI2
aI10
aF0.2
aI0
aI3
aF0.0
aI2
aI2
aF1.0
aI2
aI4
aI6
aI0
aI2
aI0
aI2
aI0
aI6
aI12
aa(lp118
V0021100315
p119
aVFEB 01, 2012
p120
aVCHI @ PHI
p121
aVL
p122
aI25
aI3
aI8
aF0.375
aI0
aI1
aF0.0
aI0
aI0
aF0.0
aI0
aI2
aI2
aI1
aI1
aI0
aI1
aI0
aI6
aI-12
aa(lp123
V0021100327
p124
aVFEB 02, 2012
p125
aVCHI @ NYK
p126
aVW
p127
aI28
aI2
aI3
aF0.667
aI0
aI0
aF0.0
aI2
aI4
aF0.5
aI0
aI3
aI3
aI2
aI1
aI1
aI1
aI2
aI6
aI-3
aa(lp128
V0021100349
p129
aVFEB 04, 2012
p130
aVCHI @ MIL
p131
aVW
p132
aI19
aI2
aI5
aF0.4
aI1
aI2
aF0.5
aI0
aI0
aF0.0
aI0
aI4
aI4
aI2
aI1
aI1
aI1
aI2
aI5
aI11
aa(lp133
V0021100360
p134
aVFEB 06, 2012
p135
aVCHI @ NJN
p136
aVW
p137
aI25
aI5
aI11
aF0.455
aI2
aI4
aF0.5
aI0
aI1
aF0.0
aI0
aI1
aI1
aI1
aI0
aI0
aI0
aI1
aI12
aI24
aa(lp138
V0021100381
p139
aVFEB 08, 2012
p140
aVCHI @ NOH
p141
aVW
p142
aI25
aI2
aI9
aF0.222
aI0
aI1
aF0.0
aI1
aI4
aF0.25
aI0
aI2
aI2
aI4
aI4
aI0
aI1
aI0
aI5
aI27
aa(lp143
V0021100391
p144
aVFEB 10, 2012
p145
aVCHI @ CHA
p146
aVW
p147
aI22
aI3
aI7
aF0.429
aI0
aI1
aF0.0
aI1
aI1
aF1.0
aI1
aI1
aI2
aI1
aI0
aI0
aI0
aI1
aI7
aI20
aa(lp148
V0021100409
p149
aVFEB 12, 2012
p150
aVCHI @ BOS
p151
aVL
p152
aI31
aI2
aI4
aF0.5
aI0
aI2
aF0.0
aI1
aI2
aF0.5
aI1
aI2
aI3
aI6
aI4
aI0
aI1
aI0
aI5
aI1
aa(lp153
V0021100423
p154
aVFEB 14, 2012
p155
aVCHI vs. SAC
p156
aVW
p157
aI28
aI3
aI6
aF0.5
aI0
aI2
aF0.0
aI0
aI0
aF0.0
aI3
aI2
aI5
aI1
aI1
aI0
aI2
aI0
aI6
aI-5
aa(lp158
V0021100443
p159
aVFEB 16, 2012
p160
aVCHI vs. BOS
p161
aVW
p162
aI20
aI0
aI3
aF0.0
aI0
aI0
aF0.0
aI0
aI0
aF0.0
aI0
aI1
aI1
aI1
aI0
aI1
aI0
aI0
aI0
aI11
aa(lp163
V0021100457
p164
aVFEB 18, 2012
p165
aVCHI vs. NJN
p166
aVL
p167
aI28
aI2
aI5
aF0.4
aI0
aI1
aF0.0
aI1
aI2
aF0.5
aI0
aI1
aI1
aI1
aI0
aI0
aI2
aI2
aI5
aI-12
aa(lp168
V0021100470
p169
aVFEB 20, 2012
p170
aVCHI vs. ATL
p171
aVW
p172
aI27
aI4
aI9
aF0.444
aI1
aI2
aF0.5
aI4
aI4
aF1.0
aI3
aI3
aI6
aI1
aI2
aI1
aI0
aI1
aI13
aI21
aa(lp173
V0021100493
p174
aVFEB 22, 2012
p175
aVCHI vs. MIL
p176
aVW
p177
aI26
aI7
aI10
aF0.7
aI1
aI2
aF0.5
aI0
aI2
aF0.0
aI0
aI2
aI2
aI2
aI1
aI0
aI2
aI0
aI15
aI14
aa(lp178
V0021100506
p179
aVFEB 28, 2012
p180
aVCHI vs. NOH
p181
aVW
p182
aI16
aI3
aI6
aF0.5
aI0
aI1
aF0.0
aI0
aI0
aF0.0
aI0
aI2
aI2
aI0
aI1
aI0
aI0
aI1
aI6
aI-4
aa(lp183
V0021100520
p184
aVFEB 29, 2012
p185
aVCHI @ SAS
p186
aVW
p187
aI29
aI4
aI9
aF0.444
aI0
aI1
aF0.0
aI0
aI2
aF0.0
aI1
aI4
aI5
aI1
aI1
aI0
aI2
aI3
aI8
aI12
aa(lp188
V0021100531
p189
aVMAR 02, 2012
p190
aVCHI @ CLE
p191
aVW
p192
aI23
aI6
aI12
aF0.5
aI1
aI3
aF0.333
aI0
aI0
aF0.0
aI1
aI3
aI4
aI1
aI2
aI1
aI1
aI0
aI13
aI20
aa(lp193
V0021100550
p194
aVMAR 04, 2012
p195
aVCHI @ PHI
p196
aVW
p197
aI15
aI3
aI4
aF0.75
aI0
aI0
aF0.0
aI0
aI0
aF0.0
aI2
aI4
aI6
aI0
aI0
aI2
aI0
aI1
aI6
aI-13
aa(lp198
V0021100557
p199
aVMAR 05, 2012
p200
aVCHI vs. IND
p201
aVW
p202
aI39
aI6
aI11
aF0.545
aI0
aI1
aF0.0
aI0
aI0
aF0.0
aI3
aI4
aI7
aI2
aI0
aI1
aI3
aI4
aI12
aI13
aa(lp203
V0021100575
p204
aVMAR 07, 2012
p205
aVCHI @ MIL
p206
aVW
p207
aI32
aI3
aI7
aF0.429
aI1
aI3
aF0.333
aI0
aI0
aF0.0
aI2
aI3
aI5
aI5
aI0
aI1
aI0
aI1
aI7
aI-7
aa(lp208
V0021100582
p209
aVMAR 08, 2012
p210
aVCHI vs. ORL
p211
aVL
p212
aI19
aI1
aI3
aF0.333
aI0
aI0
aF0.0
aI1
aI3
aF0.333
aI1
aI2
aI3
aI2
aI0
aI0
aI0
aI2
aI3
aI-13
aa(lp213
V0021100598
p214
aVMAR 10, 2012
p215
aVCHI vs. UTA
p216
aVW
p217
aI29
aI4
aI11
aF0.364
aI0
aI1
aF0.0
aI3
aI4
aF0.75
aI2
aI3
aI5
aI3
aI1
aI0
aI0
aI1
aI11
aI2
aa(lp218
V0021100612
p219
aVMAR 12, 2012
p220
aVCHI vs. NYK
p221
aVW
p222
aI32
aI5
aI8
aF0.625
aI1
aI1
aF1.0
aI0
aI0
aF0.0
aI1
aI6
aI7
aI7
aI1
aI1
aI4
aI1
aI11
aI-8
aa(lp223
V0021100629
p224
aVMAR 14, 2012
p225
aVCHI vs. MIA
p226
aVW
p227
aI34
aI5
aI10
aF0.5
aI1
aI1
aF1.0
aI1
aI1
aF1.0
aI3
aI3
aI6
aI3
aI2
aI0
aI1
aI3
aI12
aI-7
aa(lp228
V0021100647
p229
aVMAR 16, 2012
p230
aVCHI vs. POR
p231
aVL
p232
aI25
aI1
aI2
aF0.5
aI1
aI1
aF1.0
aI0
aI0
aF0.0
aI0
aI1
aI1
aI0
aI1
aI0
aI0
aI1
aI3
aI-1
aa(lp233
V0021100658
p234
aVMAR 17, 2012
p235
aVCHI vs. PHI
p236
aVW
p237
aI21
aI3
aI6
aF0.5
aI0
aI1
aF0.0
aI1
aI4
aF0.25
aI1
aI5
aI6
aI1
aI1
aI1
aI1
aI0
aI7
aI2
aa(lp238
V0021100673
p239
aVMAR 19, 2012
p240
aVCHI @ ORL
p241
aVW
p242
aI23
aI1
aI4
aF0.25
aI0
aI1
aF0.0
aI1
aI2
aF0.5
aI0
aI5
aI5
aI3
aI1
aI1
aI0
aI0
aI3
aI12
aa(lp243
V0021100683
p244
aVMAR 21, 2012
p245
aVCHI @ TOR
p246
aVW
p247
aI32
aI6
aI11
aF0.545
aI0
aI1
aF0.0
aI0
aI0
aF0.0
aI2
aI4
aI6
aI2
aI2
aI0
aI1
aI1
aI12
aI-2
aa(lp248
V0021100714
p249
aVMAR 24, 2012
p250
aVCHI vs. TOR
p251
aVW
p252
aI30
aI2
aI8
aF0.25
aI0
aI1
aF0.0
aI0
aI2
aF0.0
aI0
aI3
aI3
aI3
aI0
aI0
aI0
aI0
aI4
aI-13
aa(lp253
V0021100733
p254
aVMAR 26, 2012
p255
aVCHI vs. DEN
p256
aVL
p257
aI19
aI2
aI6
aF0.333
aI1
aI2
aF0.5
aI0
aI0
aF0.0
aI0
aI0
aI0
aI0
aI1
aI0
aI0
aI0
aI5
aI-13
aa(lp258
V0021100749
p259
aVMAR 28, 2012
p260
aVCHI @ ATL
p261
aVW
p262
aI38
aI2
aI7
aF0.286
aI0
aI1
aF0.0
aI0
aI0
aF0.0
aI4
aI3
aI7
aI4
aI1
aI0
aI1
aI3
aI4
aI13
aa(lp263
V0021100763
p264
aVMAR 30, 2012
p265
aVCHI vs. DET
p266
aVW
p267
aI25
aI2
aI6
aF0.333
aI0
aI2
aF0.0
aI0
aI0
aF0.0
aI0
aI0
aI0
aI2
aI1
aI0
aI2
aI2
aI4
aI2
aa(lp268
V0021100777
p269
aVAPR 01, 2012
p270
aVCHI @ OKC
p271
aVL
p272
aI23
aI3
aI8
aF0.375
aI0
aI0
aF0.0
aI1
aI2
aF0.5
aI1
aI2
aI3
aI2
aI2
aI0
aI3
aI2
aI7
aI5
aa(lp273
V0021100786
p274
aVAPR 02, 2012
p275
aVCHI vs. HOU
p276
aVL
p277
aI15
aI3
aI7
aF0.429
aI0
aI2
aF0.0
aI0
aI0
aF0.0
aI0
aI2
aI2
aI3
aI2
aI0
aI0
aI1
aI6
aI-3
aa(lp278
V0021100813
p279
aVAPR 05, 2012
p280
aVCHI vs. BOS
p281
aVW
p282
aI21
aI1
aI3
aF0.333
aI0
aI1
aF0.0
aI0
aI0
aF0.0
aI1
aI0
aI1
aI1
aI0
aI0
aI0
aI1
aI2
aI1
aa(lp283
V0021100835
p284
aVAPR 08, 2012
p285
aVCHI @ NYK
p286
aVL
p287
aI14
aI1
aI2
aF0.5
aI0
aI0
aF0.0
aI0
aI0
aF0.0
aI0
aI3
aI3
aI0
aI1
aI0
aI0
aI0
aI2
aI-4
aa(lp288
V0021100857
p289
aVAPR 10, 2012
p290
aVCHI vs. NYK
p291
aVW
p292
aI11
aI3
aI6
aF0.5
aI0
aI0
aF0.0
aI0
aI0
aF0.0
aI1
aI2
aI3
aI0
aI1
aI1
aI0
aI0
aI6
aI8
aa(lp293
V0021100870
p294
aVAPR 12, 2012
p295
aVCHI vs. MIA
p296
aVW
p297
aI20
aI1
aI2
aF0.5
aI0
aI1
aF0.0
aI1
aI2
aF0.5
aI3
aI0
aI3
aI2
aI3
aI0
aI2
aI0
aI3
aI0
aa(lp298
V0021100897
p299
aVAPR 15, 2012
p300
aVCHI @ DET
p301
aVW
p302
aI13
aI1
aI5
aF0.2
aI0
aI0
aF0.0
aI1
aI2
aF0.5
aI1
aI1
aI2
aI0
aI0
aI0
aI0
aI1
aI3
aI-14
aa(lp303
V0021100907
p304
aVAPR 16, 2012
p305
aVCHI vs. WAS
p306
aVL
p307
aI28
aI3
aI9
aF0.333
aI0
aI0
aF0.0
aI0
aI2
aF0.0
aI2
aI2
aI4
aI2
aI5
aI1
aI2
aI3
aI6
aI4
aa(lp308
V0021100919
p309
aVAPR 18, 2012
p310
aVCHI @ CHA
p311
aVW
p312
aI24
aI2
aI3
aF0.667
aI0
aI0
aF0.0
aI1
aI2
aF0.5
aI0
aI5
aI5
aI5
aI0
aI0
aI0
aI0
aI5
aI17
aa(lp313
V0021100934
p314
aVAPR 19, 2012
p315
aVCHI @ MIA
p316
aVL
p317
aI12
aI1
aI6
aF0.167
aI0
aI0
aF0.0
aI1
aI2
aF0.5
aI1
aI2
aI3
aI2
aI0
aI0
aI0
aI0
aI3
aI-3
aa(lp318
V0021100946
p319
aVAPR 21, 2012
p320
aVCHI vs. DAL
p321
aVW
p322
aI6
aI1
aI2
aF0.5
aI0
aI0
aF0.0
aI2
aI2
aF1.0
aI0
aI2
aI2
aI0
aI1
aI0
aI0
aI0
aI4
aI-11
aa(lp323
V0021100973
p324
aVAPR 25, 2012
p325
aVCHI @ IND
p326
aVW
p327
aI14
aI2
aI4
aF0.5
aI0
aI0
aF0.0
aI0
aI0
aF0.0
aI1
aI2
aI3
aI4
aI0
aI0
aI3
aI0
aI4
aI2
aa(lp328
V0021100984
p329
aVAPR 26, 2012
p330
aVCHI vs. CLE
p331
aVW
p332
aI24
aI4
aI10
aF0.4
aI0
aI0
aF0.0
aI0
aI0
aF0.0
aI3
aI7
aI10
aI3
aI1
aI1
aI0
aI0
aI8
aI4
aasS'name'
p333
VRonnie Brewer
p334
sS'weight'
p335
V235
p336
sS'age'
p337
I26
sS'experience'
p338
I5
sS'height'
p339
V6-7
p340
sS'position'
p341
VForward
p342
s.