(dp0
S'stats'
p1
(lp2
(lp3
V0021100013
p4
aVDEC 26, 2011
p5
aVMEM @ SAS
p6
aVL
p7
aI35
aI8
aI18
aF0.444
aI1
aI1
aF1.0
aI2
aI3
aF0.667
aI0
aI10
aI10
aI2
aI2
aI1
aI3
aI2
aI19
aI-10
aa(lp8
V0021100027
p9
aVDEC 28, 2011
p10
aVMEM vs. OKC
p11
aVL
p12
aI36
aI9
aI24
aF0.375
aI0
aI5
aF0.0
aI1
aI4
aF0.25
aI4
aI8
aI12
aI2
aI1
aI1
aI3
aI4
aI19
aI-4
aa(lp13
V0021100043
p14
aVDEC 30, 2011
p15
aVMEM vs. HOU
p16
aVW
p17
aI31
aI4
aI11
aF0.364
aI0
aI0
aF0.0
aI2
aI2
aF1.0
aI1
aI7
aI8
aI2
aI1
aI1
aI3
aI3
aI10
aI5
aa(lp18
V0021100062
p19
aVJAN 01, 2012
p20
aVMEM @ CHI
p21
aVL
p22
aI28
aI2
aI12
aF0.167
aI0
aI0
aF0.0
aI1
aI1
aF1.0
aI1
aI2
aI3
aI1
aI1
aI0
aI2
aI2
aI5
aI-36
aa(lp23
V0021100078
p24
aVJAN 03, 2012
p25
aVMEM vs. SAC
p26
aVW
p27
aI35
aI10
aI16
aF0.625
aI0
aI1
aF0.0
aI3
aI5
aF0.6
aI2
aI6
aI8
aI2
aI1
aI1
aI2
aI1
aI23
aI21
aa(lp28
V0021100089
p29
aVJAN 04, 2012
p30
aVMEM @ MIN
p31
aVW
p32
aI40
aI7
aI17
aF0.412
aI1
aI3
aF0.333
aI4
aI4
aF1.0
aI4
aI4
aI8
aI1
aI3
aI1
aI2
aI2
aI19
aI7
aa(lp33
V0021100107
p34
aVJAN 06, 2012
p35
aVMEM @ UTA
p36
aVL
p37
aI37
aI6
aI13
aF0.462
aI1
aI4
aF0.25
aI4
aI5
aF0.8
aI3
aI4
aI7
aI1
aI1
aI0
aI4
aI2
aI17
aI1
aa(lp38
V0021100125
p39
aVJAN 08, 2012
p40
aVMEM @ LAL
p41
aVL
p42
aI40
aI9
aI19
aF0.474
aI0
aI1
aF0.0
aI1
aI1
aF1.0
aI1
aI3
aI4
aI3
aI2
aI1
aI1
aI1
aI19
aI-13
aa(lp43
V0021100137
p44
aVJAN 10, 2012
p45
aVMEM vs. OKC
p46
aVL
p47
aI38
aI7
aI21
aF0.333
aI1
aI4
aF0.25
aI1
aI5
aF0.2
aI2
aI1
aI3
aI0
aI1
aI0
aI2
aI5
aI16
aI-6
aa(lp48
V0021100156
p49
aVJAN 12, 2012
p50
aVMEM vs. NYK
p51
aVW
p52
aI35
aI11
aI16
aF0.688
aI1
aI2
aF0.5
aI3
aI4
aF0.75
aI1
aI4
aI5
aI2
aI1
aI1
aI2
aI0
aI26
aI14
aa(lp53
V0021100175
p54
aVJAN 14, 2012
p55
aVMEM vs. NOH
p56
aVW
p57
aI40
aI9
aI19
aF0.474
aI2
aI3
aF0.667
aI3
aI4
aF0.75
aI2
aI3
aI5
aI2
aI2
aI0
aI1
aI0
aI23
aI2
aa(lp58
V0021100185
p59
aVJAN 16, 2012
p60
aVMEM vs. CHI
p61
aVW
p62
aI37
aI11
aI18
aF0.611
aI1
aI2
aF0.5
aI1
aI3
aF0.333
aI0
aI5
aI5
aI5
aI2
aI1
aI5
aI0
aI24
aI22
aa(lp63
V0021100209
p64
aVJAN 18, 2012
p65
aVMEM @ NOH
p66
aVW
p67
aI40
aI5
aI11
aF0.455
aI0
aI2
aF0.0
aI2
aI3
aF0.667
aI2
aI3
aI5
aI1
aI1
aI1
aI4
aI2
aI12
aI3
aa(lp68
V0021100221
p69
aVJAN 20, 2012
p70
aVMEM @ DET
p71
aVW
p72
aI32
aI10
aI17
aF0.588
aI2
aI4
aF0.5
aI2
aI2
aF1.0
aI0
aI4
aI4
aI0
aI0
aI0
aI1
aI3
aI24
aI17
aa(lp73
V0021100233
p74
aVJAN 21, 2012
p75
aVMEM vs. SAC
p76
aVW
p77
aI35
aI9
aI17
aF0.529
aI0
aI1
aF0.0
aI5
aI7
aF0.714
aI1
aI2
aI3
aI4
aI4
aI1
aI3
aI0
aI23
aI22
aa(lp78
V0021100251
p79
aVJAN 23, 2012
p80
aVMEM @ GSW
p81
aVW
p82
aI44
aI10
aI21
aF0.476
aI0
aI1
aF0.0
aI3
aI6
aF0.5
aI3
aI6
aI9
aI4
aI3
aI2
aI4
aI2
aI23
aI5
aa(lp83
V0021100256
p84
aVJAN 24, 2012
p85
aVMEM @ POR
p86
aVL
p87
aI34
aI5
aI15
aF0.333
aI1
aI2
aF0.5
aI0
aI0
aF0.0
aI1
aI4
aI5
aI1
aI2
aI1
aI1
aI5
aI11
aI-17
aa(lp88
V0021100271
p89
aVJAN 26, 2012
p90
aVMEM @ LAC
p91
aVL
p92
aI42
aI9
aI18
aF0.5
aI3
aI5
aF0.6
aI3
aI5
aF0.6
aI1
aI6
aI7
aI2
aI0
aI1
aI6
aI3
aI24
aI-4
aa(lp93
V0021100290
p94
aVJAN 28, 2012
p95
aVMEM @ PHX
p96
aVL
p97
aI41
aI7
aI15
aF0.467
aI1
aI1
aF1.0
aI3
aI4
aF0.75
aI1
aI5
aI6
aI0
aI2
aI1
aI4
aI2
aI18
aI-1
aa(lp98
V0021100303
p99
aVJAN 30, 2012
p100
aVMEM vs. SAS
p101
aVL
p102
aI35
aI0
aI7
aF0.0
aI0
aI0
aF0.0
aI1
aI2
aF0.5
aI1
aI5
aI6
aI2
aI2
aI0
aI3
aI3
aI1
aI-11
aa(lp103
V0021100312
p104
aVJAN 31, 2012
p105
aVMEM vs. DEN
p106
aVW
p107
aI44
aI7
aI20
aF0.35
aI2
aI3
aF0.667
aI4
aI4
aF1.0
aI3
aI10
aI13
aI5
aI2
aI2
aI5
aI4
aI20
aI15
aa(lp108
V0021100326
p109
aVFEB 02, 2012
p110
aVMEM @ ATL
p111
aVW
p112
aI34
aI9
aI18
aF0.5
aI0
aI2
aF0.0
aI3
aI5
aF0.6
aI1
aI5
aI6
aI3
aI3
aI0
aI1
aI1
aI21
aI21
aa(lp113
V0021100339
p114
aVFEB 03, 2012
p115
aVMEM @ OKC
p116
aVL
p117
aI43
aI9
aI20
aF0.45
aI1
aI2
aF0.5
aI4
aI4
aF1.0
aI5
aI3
aI8
aI2
aI1
aI0
aI3
aI4
aI23
aI-10
aa(lp118
V0021100355
p119
aVFEB 05, 2012
p120
aVMEM @ BOS
p121
aVL
p122
aI39
aI8
aI16
aF0.5
aI1
aI3
aF0.333
aI4
aI4
aF1.0
aI3
aI4
aI7
aI3
aI1
aI1
aI1
aI3
aI21
aI-30
aa(lp123
V0021100363
p124
aVFEB 06, 2012
p125
aVMEM vs. SAS
p126
aVL
p127
aI45
aI9
aI26
aF0.346
aI0
aI3
aF0.0
aI0
aI0
aF0.0
aI3
aI5
aI8
aI0
aI4
aI0
aI4
aI2
aI18
aI-4
aa(lp128
V0021100380
p129
aVFEB 08, 2012
p130
aVMEM vs. MIN
p131
aVW
p132
aI38
aI9
aI21
aF0.429
aI1
aI2
aF0.5
aI0
aI0
aF0.0
aI2
aI7
aI9
aI3
aI3
aI1
aI2
aI1
aI19
aI10
aa(lp133
V0021100396
p134
aVFEB 10, 2012
p135
aVMEM vs. IND
p136
aVW
p137
aI38
aI8
aI15
aF0.533
aI0
aI1
aF0.0
aI5
aI6
aF0.833
aI0
aI3
aI3
aI2
aI0
aI0
aI4
aI4
aI21
aI11
aa(lp138
V0021100413
p139
aVFEB 12, 2012
p140
aVMEM vs. UTA
p141
aVL
p142
aI38
aI10
aI19
aF0.526
aI2
aI3
aF0.667
aI0
aI0
aF0.0
aI1
aI5
aI6
aI2
aI1
aI1
aI5
aI4
aI22
aI-11
aa(lp143
V0021100424
p144
aVFEB 14, 2012
p145
aVMEM vs. HOU
p146
aVW
p147
aI39
aI8
aI15
aF0.533
aI0
aI1
aF0.0
aI4
aI4
aF1.0
aI3
aI5
aI8
aI3
aI3
aI0
aI3
aI3
aI20
aI7
aa(lp148
V0021100432
p149
aVFEB 15, 2012
p150
aVMEM @ NJN
p151
aVW
p152
aI40
aI8
aI15
aF0.533
aI3
aI3
aF1.0
aI6
aI6
aF1.0
aI3
aI3
aI6
aI2
aI1
aI0
aI1
aI1
aI25
aI11
aa(lp153
V0021100451
p154
aVFEB 17, 2012
p155
aVMEM vs. DEN
p156
aVW
p157
aI41
aI8
aI19
aF0.421
aI1
aI2
aF0.5
aI3
aI4
aF0.75
aI3
aI5
aI8
aI6
aI0
aI3
aI1
aI2
aI20
aI0
aa(lp158
V0021100458
p159
aVFEB 18, 2012
p160
aVMEM vs. GSW
p161
aVW
p162
aI36
aI8
aI16
aF0.5
aI0
aI0
aF0.0
aI3
aI7
aF0.429
aI3
aI3
aI6
aI3
aI2
aI1
aI2
aI4
aI19
aI-4
aa(lp163
V0021100473
p164
aVFEB 20, 2012
p165
aVMEM @ HOU
p166
aVL
p167
aI41
aI9
aI22
aF0.409
aI0
aI2
aF0.0
aI5
aI5
aF1.0
aI2
aI5
aI7
aI3
aI1
aI1
aI2
aI2
aI23
aI2
aa(lp168
V0021100484
p169
aVFEB 21, 2012
p170
aVMEM vs. PHI
p171
aVW
p172
aI38
aI3
aI10
aF0.3
aI2
aI2
aF1.0
aI6
aI9
aF0.667
aI2
aI5
aI7
aI4
aI1
aI2
aI1
aI1
aI14
aI7
aa(lp173
V0021100518
p174
aVFEB 29, 2012
p175
aVMEM vs. DAL
p176
aVW
p177
aI39
aI8
aI19
aF0.421
aI0
aI4
aF0.0
aI2
aI2
aF1.0
aI1
aI6
aI7
aI1
aI3
aI1
aI3
aI0
aI18
aI14
aa(lp178
V0021100528
p179
aVMAR 02, 2012
p180
aVMEM @ TOR
p181
aVW
p182
aI40
aI8
aI15
aF0.533
aI0
aI1
aF0.0
aI7
aI7
aF1.0
aI2
aI10
aI12
aI4
aI1
aI1
aI2
aI4
aI23
aI21
aa(lp183
V0021100542
p184
aVMAR 03, 2012
p185
aVMEM vs. DET
p186
aVW
p187
aI31
aI6
aI12
aF0.5
aI1
aI1
aF1.0
aI2
aI2
aF1.0
aI2
aI3
aI5
aI2
aI0
aI1
aI5
aI4
aI15
aI14
aa(lp188
V0021100581
p189
aVMAR 07, 2012
p190
aVMEM @ GSW
p191
aVW
p192
aI39
aI10
aI20
aF0.5
aI2
aI6
aF0.333
aI4
aI4
aF1.0
aI5
aI7
aI12
aI5
aI1
aI1
aI0
aI2
aI26
aI18
aa(lp193
V0021100601
p194
aVMAR 10, 2012
p195
aVMEM @ PHX
p196
aVL
p197
aI38
aI7
aI20
aF0.35
aI1
aI4
aF0.25
aI4
aI4
aF1.0
aI2
aI3
aI5
aI5
aI2
aI0
aI0
aI0
aI19
aI-12
aa(lp198
V0021100608
p199
aVMAR 11, 2012
p200
aVMEM @ DEN
p201
aVW
p202
aI32
aI3
aI13
aF0.231
aI0
aI2
aF0.0
aI1
aI3
aF0.333
aI0
aI3
aI3
aI2
aI4
aI1
aI3
aI2
aI7
aI-4
aa(lp203
V0021100648
p204
aVMAR 16, 2012
p205
aVMEM vs. TOR
p206
aVL
p207
aI40
aI10
aI20
aF0.5
aI3
aI5
aF0.6
aI3
aI4
aF0.75
aI2
aI9
aI11
aI2
aI1
aI1
aI4
aI6
aI26
aI6
aa(lp208
V0021100664
p209
aVMAR 18, 2012
p210
aVMEM vs. WAS
p211
aVW
p212
aI44
aI8
aI17
aF0.471
aI1
aI4
aF0.25
aI10
aI12
aF0.833
aI3
aI6
aI9
aI2
aI2
aI1
aI2
aI1
aI27
aI-3
aa(lp213
V0021100681
p214
aVMAR 20, 2012
p215
aVMEM @ SAC
p216
aVL
p217
aI42
aI8
aI15
aF0.533
aI0
aI5
aF0.0
aI7
aI7
aF1.0
aI2
aI4
aI6
aI2
aI0
aI0
aI3
aI1
aI23
aI-4
aa(lp218
V0021100698
p219
aVMAR 22, 2012
p220
aVMEM @ POR
p221
aVL
p222
aI30
aI4
aI10
aF0.4
aI1
aI3
aF0.333
aI1
aI2
aF0.5
aI2
aI3
aI5
aI1
aI1
aI1
aI3
aI4
aI10
aI1
aa(lp223
V0021100710
p224
aVMAR 24, 2012
p225
aVMEM @ LAC
p226
aVL
p227
aI27
aI4
aI9
aF0.444
aI1
aI2
aF0.5
aI2
aI3
aF0.667
aI1
aI1
aI2
aI1
aI0
aI0
aI2
aI2
aI11
aI-21
aa(lp228
V0021100726
p229
aVMAR 25, 2012
p230
aVMEM @ LAL
p231
aVW
p232
aI38
aI8
aI14
aF0.571
aI2
aI4
aF0.5
aI0
aI0
aF0.0
aI0
aI2
aI2
aI2
aI1
aI2
aI1
aI1
aI18
aI-11
aa(lp233
V0021100738
p234
aVMAR 27, 2012
p235
aVMEM vs. MIN
p236
aVW
p237
aI38
aI7
aI20
aF0.35
aI0
aI4
aF0.0
aI7
aI7
aF1.0
aI3
aI2
aI5
aI2
aI0
aI2
aI3
aI2
aI21
aI8
aa(lp238
V0021100764
p239
aVMAR 30, 2012
p240
aVMEM @ HOU
p241
aVL
p242
aI40
aI9
aI19
aF0.474
aI0
aI3
aF0.0
aI2
aI2
aF1.0
aI4
aI1
aI5
aI1
aI2
aI0
aI0
aI0
aI20
aI-8
aa(lp243
V0021100773
p244
aVMAR 31, 2012
p245
aVMEM @ MIL
p246
aVW
p247
aI37
aI7
aI18
aF0.389
aI0
aI2
aF0.0
aI3
aI4
aF0.75
aI2
aI8
aI10
aI2
aI1
aI1
aI3
aI4
aI17
aI3
aa(lp248
V0021100787
p249
aVAPR 02, 2012
p250
aVMEM @ OKC
p251
aVW
p252
aI36
aI4
aI15
aF0.267
aI0
aI1
aF0.0
aI4
aI4
aF1.0
aI4
aI4
aI8
aI2
aI0
aI0
aI1
aI2
aI12
aI8
aa(lp253
V0021100796
p254
aVAPR 03, 2012
p255
aVMEM vs. GSW
p256
aVW
p257
aI36
aI3
aI13
aF0.231
aI0
aI3
aF0.0
aI5
aI6
aF0.833
aI1
aI3
aI4
aI2
aI2
aI2
aI1
aI1
aI11
aI-15
aa(lp258
V0021100807
p259
aVAPR 04, 2012
p260
aVMEM @ DAL
p261
aVL
p262
aI36
aI4
aI12
aF0.333
aI0
aI2
aF0.0
aI0
aI0
aF0.0
aI0
aI2
aI2
aI4
aI1
aI1
aI3
aI0
aI8
aI-13
aa(lp263
V0021100819
p264
aVAPR 06, 2012
p265
aVMEM @ MIA
p266
aVW
p267
aI37
aI8
aI19
aF0.421
aI0
aI2
aF0.0
aI1
aI2
aF0.5
aI2
aI1
aI3
aI1
aI3
aI0
aI2
aI3
aI17
aI1
aa(lp268
V0021100829
p269
aVAPR 07, 2012
p270
aVMEM vs. DAL
p271
aVW
p272
aI33
aI9
aI15
aF0.6
aI3
aI5
aF0.6
aI4
aI5
aF0.8
aI1
aI4
aI5
aI3
aI1
aI0
aI4
aI4
aI25
aI11
aa(lp273
V0021100846
p274
aVAPR 09, 2012
p275
aVMEM vs. LAC
p276
aVW
p277
aI38
aI6
aI10
aF0.6
aI1
aI4
aF0.25
aI3
aI4
aF0.75
aI2
aI4
aI6
aI1
aI1
aI0
aI6
aI1
aI16
aI2
aa(lp278
V0021100862
p279
aVAPR 11, 2012
p280
aVMEM vs. PHX
p281
aVW
p282
aI42
aI13
aI20
aF0.65
aI0
aI1
aF0.0
aI6
aI6
aF1.0
aI4
aI3
aI7
aI1
aI2
aI1
aI0
aI2
aI32
aI23
aa(lp283
V0021100872
p284
aVAPR 12, 2012
p285
aVMEM @ SAS
p286
aVL
p287
aI44
aI7
aI22
aF0.318
aI0
aI3
aF0.0
aI5
aI7
aF0.714
aI4
aI1
aI5
aI4
aI1
aI1
aI2
aI2
aI19
aI-7
aa(lp288
V0021100889
p289
aVAPR 14, 2012
p290
aVMEM vs. UTA
p291
aVW
p292
aI40
aI8
aI16
aF0.5
aI1
aI4
aF0.25
aI9
aI10
aF0.9
aI4
aI8
aI12
aI1
aI1
aI2
aI1
aI1
aI26
aI-1
aa(lp293
V0021100900
p294
aVAPR 15, 2012
p295
aVMEM @ NOH
p296
aVL
p297
aI37
aI9
aI17
aF0.529
aI2
aI4
aF0.5
aI4
aI4
aF1.0
aI2
aI2
aI4
aI0
aI1
aI1
aI4
aI1
aI24
aI-19
aa(lp298
V0021100916
p299
aVAPR 17, 2012
p300
aVMEM @ MIN
p301
aVW
p302
aI39
aI12
aI25
aF0.48
aI2
aI5
aF0.4
aI2
aI3
aF0.667
aI2
aI7
aI9
aI4
aI1
aI0
aI3
aI1
aI28
aI17
aa(lp303
V0021100925
p304
aVAPR 18, 2012
p305
aVMEM vs. NOH
p306
aVW
p307
aI30
aI9
aI14
aF0.643
aI3
aI5
aF0.6
aI5
aI5
aF1.0
aI3
aI2
aI5
aI4
aI1
aI2
aI1
aI0
aI26
aI27
aa(lp308
V0021100937
p309
aVAPR 20, 2012
p310
aVMEM @ CHA
p311
aVW
p312
aI31
aI4
aI14
aF0.286
aI0
aI3
aF0.0
aI1
aI2
aF0.5
aI3
aI3
aI6
aI1
aI3
aI1
aI2
aI3
aI9
aI-12
aa(lp313
V0021100947
p314
aVAPR 21, 2012
p315
aVMEM vs. POR
p316
aVW
p317
aI33
aI9
aI16
aF0.563
aI1
aI4
aF0.25
aI2
aI2
aF1.0
aI0
aI6
aI6
aI3
aI1
aI1
aI1
aI3
aI21
aI4
aa(lp318
V0021100964
p319
aVAPR 23, 2012
p320
aVMEM vs. CLE
p321
aVW
p322
aI34
aI4
aI10
aF0.4
aI0
aI2
aF0.0
aI7
aI8
aF0.875
aI2
aI4
aI6
aI4
aI0
aI2
aI2
aI2
aI15
aI-1
aa(lp323
V0021100985
p324
aVAPR 26, 2012
p325
aVMEM vs. ORL
p326
aVW
p327
aI34
aI8
aI11
aF0.727
aI1
aI4
aF0.25
aI3
aI4
aF0.75
aI0
aI5
aI5
aI0
aI2
aI1
aI3
aI1
aI20
aI7
aasS'name'
p328
VRudy Gay
p329
sS'weight'
p330
V230
p331
sS'age'
p332
I25
sS'experience'
p333
I5
sS'height'
p334
V6-8
p335
sS'position'
p336
VForward
p337
s.