(dp0
S'stats'
p1
(lp2
(lp3
V0021100004
p4
aVDEC 25, 2011
p5
aVORL @ OKC
p6
aVL
p7
aI23
aI0
aI3
aF0.0
aI0
aI2
aF0.0
aI8
aI8
aF1.0
aI0
aI3
aI3
aI1
aI0
aI0
aI0
aI1
aI8
aI-7
aa(lp8
V0021100008
p9
aVDEC 26, 2011
p10
aVORL vs. HOU
p11
aVW
p12
aI28
aI8
aI12
aF0.667
aI3
aI4
aF0.75
aI1
aI1
aF1.0
aI0
aI2
aI2
aI2
aI0
aI0
aI0
aI1
aI20
aI5
aa(lp13
V0021100033
p14
aVDEC 29, 2011
p15
aVORL vs. NJN
p16
aVW
p17
aI23
aI6
aI11
aF0.545
aI2
aI3
aF0.667
aI1
aI2
aF0.5
aI0
aI2
aI2
aI3
aI1
aI0
aI0
aI2
aI15
aI7
aa(lp18
V0021100039
p19
aVDEC 30, 2011
p20
aVORL @ CHA
p21
aVW
p22
aI23
aI4
aI7
aF0.571
aI0
aI2
aF0.0
aI3
aI3
aF1.0
aI1
aI2
aI3
aI2
aI0
aI1
aI2
aI2
aI11
aI3
aa(lp23
V0021100058
p24
aVJAN 01, 2012
p25
aVORL vs. TOR
p26
aVW
p27
aI34
aI6
aI10
aF0.6
aI3
aI5
aF0.6
aI6
aI7
aF0.857
aI0
aI3
aI3
aI3
aI0
aI0
aI0
aI3
aI21
aI26
aa(lp28
V0021100071
p29
aVJAN 02, 2012
p30
aVORL @ DET
p31
aVL
p32
aI25
aI3
aI10
aF0.3
aI0
aI4
aF0.0
aI2
aI2
aF1.0
aI0
aI1
aI1
aI4
aI0
aI0
aI1
aI4
aI8
aI0
aa(lp33
V0021100083
p34
aVJAN 04, 2012
p35
aVORL vs. WAS
p36
aVW
p37
aI23
aI5
aI11
aF0.455
aI1
aI4
aF0.25
aI3
aI3
aF1.0
aI0
aI1
aI1
aI2
aI1
aI0
aI2
aI0
aI14
aI10
aa(lp38
V0021100103
p39
aVJAN 06, 2012
p40
aVORL vs. CHI
p41
aVL
p42
aI22
aI0
aI4
aF0.0
aI0
aI1
aF0.0
aI1
aI1
aF1.0
aI1
aI1
aI2
aI1
aI0
aI0
aI1
aI2
aI1
aI0
aa(lp43
V0021100121
p44
aVJAN 08, 2012
p45
aVORL @ SAC
p46
aVW
p47
aI20
aI2
aI9
aF0.222
aI1
aI3
aF0.333
aI1
aI1
aF1.0
aI0
aI3
aI3
aI2
aI2
aI0
aI1
aI0
aI6
aI10
aa(lp48
V0021100152
p49
aVJAN 11, 2012
p50
aVORL @ POR
p51
aVW
p52
aI27
aI5
aI11
aF0.455
aI3
aI7
aF0.429
aI4
aI4
aF1.0
aI0
aI4
aI4
aI4
aI0
aI0
aI1
aI1
aI17
aI-6
aa(lp53
V0021100158
p54
aVJAN 12, 2012
p55
aVORL @ GSW
p56
aVW
p57
aI34
aI3
aI7
aF0.429
aI1
aI3
aF0.333
aI6
aI6
aF1.0
aI0
aI3
aI3
aI3
aI0
aI0
aI0
aI4
aI13
aI10
aa(lp58
V0021100184
p59
aVJAN 16, 2012
p60
aVORL @ NYK
p61
aVW
p62
aI37
aI8
aI12
aF0.667
aI3
aI6
aF0.5
aI2
aI2
aF1.0
aI1
aI2
aI3
aI1
aI0
aI0
aI0
aI2
aI21
aI10
aa(lp63
V0021100195
p64
aVJAN 17, 2012
p65
aVORL vs. CHA
p66
aVW
p67
aI30
aI2
aI9
aF0.222
aI1
aI1
aF1.0
aI0
aI0
aF0.0
aI1
aI3
aI4
aI2
aI2
aI0
aI0
aI0
aI5
aI-4
aa(lp68
V0021100204
p69
aVJAN 18, 2012
p70
aVORL vs. SAS
p71
aVL
p72
aI32
aI4
aI11
aF0.364
aI0
aI2
aF0.0
aI5
aI6
aF0.833
aI1
aI2
aI3
aI1
aI0
aI0
aI1
aI0
aI13
aI3
aa(lp73
V0021100223
p74
aVJAN 20, 2012
p75
aVORL vs. LAL
p76
aVW
p77
aI33
aI5
aI11
aF0.455
aI3
aI6
aF0.5
aI2
aI2
aF1.0
aI0
aI2
aI2
aI6
aI0
aI0
aI1
aI2
aI15
aI5
aa(lp78
V0021100243
p79
aVJAN 23, 2012
p80
aVORL @ BOS
p81
aVL
p82
aI18
aI0
aI2
aF0.0
aI0
aI0
aF0.0
aI2
aI2
aF1.0
aI1
aI0
aI1
aI2
aI1
aI0
aI1
aI1
aI2
aI-10
aa(lp83
V0021100253
p84
aVJAN 24, 2012
p85
aVORL @ IND
p86
aVW
p87
aI27
aI6
aI13
aF0.462
aI1
aI4
aF0.25
aI2
aI2
aF1.0
aI0
aI3
aI3
aI2
aI1
aI1
aI2
aI1
aI15
aI19
aa(lp88
V0021100270
p89
aVJAN 26, 2012
p90
aVORL vs. BOS
p91
aVL
p92
aI16
aI2
aI6
aF0.333
aI0
aI0
aF0.0
aI3
aI3
aF1.0
aI0
aI2
aI2
aI2
aI0
aI0
aI1
aI2
aI7
aI-9
aa(lp93
V0021100278
p94
aVJAN 27, 2012
p95
aVORL @ NOH
p96
aVL
p97
aI25
aI3
aI5
aF0.6
aI3
aI5
aF0.6
aI0
aI0
aF0.0
aI0
aI2
aI2
aI2
aI1
aI0
aI3
aI2
aI9
aI-8
aa(lp98
V0021100294
p99
aVJAN 29, 2012
p100
aVORL vs. IND
p101
aVL
p102
aI21
aI3
aI7
aF0.429
aI1
aI2
aF0.5
aI2
aI2
aF1.0
aI0
aI1
aI1
aI1
aI0
aI0
aI0
aI1
aI9
aI-20
aa(lp103
V0021100299
p104
aVJAN 30, 2012
p105
aVORL @ PHI
p106
aVL
p107
aI31
aI3
aI13
aF0.231
aI3
aI5
aF0.6
aI1
aI1
aF1.0
aI1
aI4
aI5
aI2
aI1
aI0
aI1
aI1
aI10
aI-13
aa(lp108
V0021100316
p109
aVFEB 01, 2012
p110
aVORL vs. WAS
p111
aVW
p112
aI28
aI5
aI7
aF0.714
aI3
aI4
aF0.75
aI8
aI8
aF1.0
aI0
aI2
aI2
aI2
aI0
aI0
aI2
aI0
aI21
aI15
aa(lp113
V0021100334
p114
aVFEB 03, 2012
p115
aVORL vs. CLE
p116
aVW
p117
aI23
aI0
aI5
aF0.0
aI0
aI4
aF0.0
aI0
aI0
aF0.0
aI0
aI0
aI0
aI1
aI0
aI0
aI0
aI1
aI0
aI-14
aa(lp118
V0021100344
p119
aVFEB 04, 2012
p120
aVORL @ IND
p121
aVW
p122
aI18
aI2
aI5
aF0.4
aI2
aI2
aF1.0
aI1
aI1
aF1.0
aI0
aI4
aI4
aI2
aI0
aI2
aI3
aI0
aI7
aI-10
aa(lp123
V0021100359
p124
aVFEB 06, 2012
p125
aVORL vs. LAC
p126
aVL
p127
aI26
aI3
aI7
aF0.429
aI2
aI4
aF0.5
aI0
aI0
aF0.0
aI0
aI0
aI0
aI3
aI0
aI0
aI1
aI1
aI8
aI-7
aa(lp128
V0021100376
p129
aVFEB 08, 2012
p130
aVORL vs. MIA
p131
aVW
p132
aI16
aI4
aI10
aF0.4
aI3
aI7
aF0.429
aI0
aI0
aF0.0
aI0
aI1
aI1
aI4
aI0
aI0
aI0
aI0
aI11
aI-4
aa(lp133
V0021100392
p134
aVFEB 10, 2012
p135
aVORL vs. ATL
p136
aVL
p137
aI17
aI1
aI6
aF0.167
aI1
aI1
aF1.0
aI0
aI0
aF0.0
aI0
aI1
aI1
aI1
aI0
aI0
aI0
aI2
aI3
aI0
aa(lp138
V0021100406
p139
aVFEB 11, 2012
p140
aVORL @ MIL
p141
aVW
p142
aI22
aI4
aI10
aF0.4
aI1
aI5
aF0.2
aI5
aI5
aF1.0
aI0
aI3
aI3
aI1
aI0
aI0
aI0
aI0
aI14
aI-14
aa(lp143
V0021100415
p144
aVFEB 13, 2012
p145
aVORL vs. MIN
p146
aVW
p147
aI25
aI5
aI9
aF0.556
aI2
aI5
aF0.4
aI2
aI2
aF1.0
aI0
aI4
aI4
aI1
aI0
aI0
aI0
aI1
aI14
aI6
aa(lp148
V0021100430
p149
aVFEB 15, 2012
p150
aVORL vs. PHI
p151
aVW
p152
aI18
aI5
aI12
aF0.417
aI2
aI3
aF0.667
aI0
aI0
aF0.0
aI0
aI1
aI1
aI1
aI0
aI0
aI1
aI0
aI12
aI-7
aa(lp153
V0021100447
p154
aVFEB 17, 2012
p155
aVORL vs. MIL
p156
aVW
p157
aI30
aI5
aI13
aF0.385
aI1
aI5
aF0.2
aI0
aI0
aF0.0
aI0
aI1
aI1
aI3
aI0
aI0
aI0
aI2
aI11
aI19
aa(lp158
V0021100461
p159
aVFEB 19, 2012
p160
aVORL @ MIA
p161
aVL
p162
aI34
aI6
aI10
aF0.6
aI5
aI7
aF0.714
aI0
aI0
aF0.0
aI0
aI0
aI0
aI1
aI0
aI0
aI2
aI1
aI17
aI-19
aa(lp163
V0021100472
p164
aVFEB 20, 2012
p165
aVORL @ MIL
p166
aVW
p167
aI35
aI4
aI9
aF0.444
aI2
aI5
aF0.4
aI1
aI1
aF1.0
aI0
aI3
aI3
aI2
aI0
aI0
aI4
aI2
aI11
aI4
aa(lp168
V0021100491
p169
aVFEB 22, 2012
p170
aVORL @ NJN
p171
aVW
p172
aI27
aI4
aI9
aF0.444
aI4
aI7
aF0.571
aI0
aI0
aF0.0
aI0
aI3
aI3
aI6
aI0
aI0
aI1
aI1
aI12
aI26
aa(lp173
V0021100500
p174
aVFEB 23, 2012
p175
aVORL @ ATL
p176
aVL
p177
aI25
aI5
aI10
aF0.5
aI2
aI4
aF0.5
aI1
aI2
aF0.5
aI1
aI1
aI2
aI1
aI1
aI0
aI0
aI1
aI13
aI-4
aa(lp178
V0021100513
p179
aVFEB 29, 2012
p180
aVORL @ WAS
p181
aVW
p182
aI18
aI5
aI8
aF0.625
aI2
aI3
aF0.667
aI3
aI3
aF1.0
aI1
aI0
aI1
aI0
aI0
aI0
aI0
aI2
aI15
aI2
aa(lp183
V0021100524
p184
aVMAR 01, 2012
p185
aVORL vs. OKC
p186
aVL
p187
aI22
aI1
aI6
aF0.167
aI0
aI2
aF0.0
aI0
aI0
aF0.0
aI1
aI1
aI2
aI5
aI0
aI0
aI2
aI3
aI2
aI-5
aa(lp188
V0021100541
p189
aVMAR 03, 2012
p190
aVORL vs. MIL
p191
aVW
p192
aI29
aI5
aI11
aF0.455
aI2
aI4
aF0.5
aI2
aI2
aF1.0
aI0
aI2
aI2
aI1
aI0
aI0
aI0
aI2
aI14
aI4
aa(lp193
V0021100554
p194
aVMAR 05, 2012
p195
aVORL @ TOR
p196
aVW
p197
aI32
aI3
aI10
aF0.3
aI3
aI4
aF0.75
aI4
aI6
aF0.667
aI1
aI1
aI2
aI6
aI0
aI1
aI0
aI2
aI13
aI12
aa(lp198
V0021100563
p199
aVMAR 06, 2012
p200
aVORL @ CHA
p201
aVL
p202
aI25
aI5
aI11
aF0.455
aI4
aI7
aF0.571
aI0
aI0
aF0.0
aI1
aI3
aI4
aI3
aI0
aI0
aI2
aI5
aI14
aI-7
aa(lp203
V0021100582
p204
aVMAR 08, 2012
p205
aVORL @ CHI
p206
aVW
p207
aI19
aI2
aI4
aF0.5
aI1
aI2
aF0.5
aI4
aI6
aF0.667
aI0
aI1
aI1
aI1
aI0
aI0
aI0
aI1
aI9
aI3
aa(lp208
V0021100606
p209
aVMAR 11, 2012
p210
aVORL vs. IND
p211
aVW
p212
aI32
aI7
aI14
aF0.5
aI3
aI7
aF0.429
aI1
aI1
aF1.0
aI0
aI3
aI3
aI9
aI0
aI0
aI0
aI1
aI18
aI35
aa(lp213
V0021100618
p214
aVMAR 13, 2012
p215
aVORL vs. MIA
p216
aVW
p217
aI43
aI4
aI10
aF0.4
aI3
aI8
aF0.375
aI6
aI7
aF0.857
aI0
aI1
aI1
aI3
aI2
aI0
aI3
aI2
aI17
aI26
aa(lp218
V0021100633
p219
aVMAR 14, 2012
p220
aVORL @ SAS
p221
aVL
p222
aI34
aI3
aI8
aF0.375
aI0
aI3
aF0.0
aI0
aI0
aF0.0
aI0
aI2
aI2
aI1
aI0
aI0
aI1
aI3
aI6
aI-11
aa(lp223
V0021100644
p224
aVMAR 16, 2012
p225
aVORL vs. NJN
p226
aVW
p227
aI27
aI2
aI7
aF0.286
aI1
aI5
aF0.2
aI1
aI2
aF0.5
aI0
aI4
aI4
aI2
aI1
aI0
aI1
aI2
aI6
aI-6
aa(lp228
V0021100666
p229
aVMAR 18, 2012
p230
aVORL @ MIA
p231
aVL
p232
aI18
aI1
aI4
aF0.25
aI0
aI1
aF0.0
aI2
aI2
aF1.0
aI1
aI3
aI4
aI3
aI0
aI0
aI4
aI1
aI4
aI2
aa(lp233
V0021100673
p234
aVMAR 19, 2012
p235
aVORL vs. CHI
p236
aVL
p237
aI20
aI1
aI7
aF0.143
aI0
aI2
aF0.0
aI1
aI2
aF0.5
aI0
aI1
aI1
aI2
aI1
aI0
aI1
aI0
aI3
aI-13
aa(lp238
V0021100685
p239
aVMAR 21, 2012
p240
aVORL vs. PHX
p241
aVW
p242
aI24
aI4
aI8
aF0.5
aI2
aI4
aF0.5
aI0
aI0
aF0.0
aI0
aI1
aI1
aI4
aI1
aI0
aI4
aI1
aI10
aI10
aa(lp243
V0021100701
p244
aVMAR 23, 2012
p245
aVORL vs. CLE
p246
aVW
p247
aI26
aI3
aI7
aF0.429
aI2
aI3
aF0.667
aI0
aI0
aF0.0
aI0
aI2
aI2
aI4
aI0
aI0
aI0
aI2
aI8
aI12
aa(lp248
V0021100727
p249
aVMAR 26, 2012
p250
aVORL @ TOR
p251
aVW
p252
aI22
aI5
aI8
aF0.625
aI2
aI5
aF0.4
aI0
aI0
aF0.0
aI0
aI2
aI2
aI4
aI0
aI0
aI1
aI3
aI12
aI3
aa(lp253
V0021100744
p254
aVMAR 28, 2012
p255
aVORL @ NYK
p256
aVL
p257
aI26
aI5
aI8
aF0.625
aI3
aI5
aF0.6
aI2
aI3
aF0.667
aI0
aI4
aI4
aI1
aI0
aI0
aI1
aI1
aI15
aI-12
aa(lp258
V0021100762
p259
aVMAR 30, 2012
p260
aVORL vs. DAL
p261
aVL
p262
aI25
aI0
aI6
aF0.0
aI0
aI5
aF0.0
aI2
aI3
aF0.667
aI0
aI2
aI2
aI2
aI0
aI0
aI3
aI1
aI2
aI-11
aa(lp263
V0021100780
p264
aVAPR 01, 2012
p265
aVORL vs. DEN
p266
aVL
p267
aI28
aI4
aI8
aF0.5
aI2
aI3
aF0.667
aI5
aI5
aF1.0
aI0
aI1
aI1
aI3
aI0
aI0
aI2
aI1
aI15
aI-5
aa(lp268
V0021100795
p269
aVAPR 03, 2012
p270
aVORL @ DET
p271
aVL
p272
aI31
aI1
aI9
aF0.111
aI0
aI4
aF0.0
aI2
aI2
aF1.0
aI0
aI2
aI2
aI2
aI1
aI0
aI1
aI1
aI4
aI-5
aa(lp273
V0021100811
p274
aVAPR 05, 2012
p275
aVORL vs. NYK
p276
aVL
p277
aI39
aI2
aI7
aF0.286
aI1
aI5
aF0.2
aI5
aI5
aF1.0
aI0
aI0
aI0
aI1
aI0
aI0
aI0
aI1
aI10
aI-23
aa(lp278
V0021100828
p279
aVAPR 07, 2012
p280
aVORL @ PHI
p281
aVW
p282
aI41
aI7
aI13
aF0.538
aI1
aI4
aF0.25
aI4
aI4
aF1.0
aI0
aI4
aI4
aI1
aI2
aI0
aI0
aI0
aI19
aI13
aa(lp283
V0021100843
p284
aVAPR 09, 2012
p285
aVORL vs. DET
p286
aVW
p287
aI28
aI7
aI10
aF0.7
aI4
aI7
aF0.571
aI2
aI2
aF1.0
aI0
aI2
aI2
aI3
aI0
aI0
aI0
aI1
aI20
aI11
aa(lp288
V0021100852
p289
aVAPR 10, 2012
p290
aVORL @ WAS
p291
aVL
p292
aI35
aI6
aI14
aF0.429
aI2
aI7
aF0.286
aI1
aI1
aF1.0
aI0
aI4
aI4
aI3
aI3
aI0
aI2
aI2
aI15
aI0
aa(lp293
V0021100876
p294
aVAPR 13, 2012
p295
aVORL vs. ATL
p296
aVL
p297
aI21
aI2
aI7
aF0.286
aI1
aI4
aF0.25
aI2
aI2
aF1.0
aI0
aI3
aI3
aI1
aI1
aI0
aI0
aI3
aI7
aI-20
aa(lp298
V0021100898
p299
aVAPR 15, 2012
p300
aVORL @ CLE
p301
aVW
p302
aI33
aI4
aI12
aF0.333
aI3
aI8
aF0.375
aI2
aI2
aF1.0
aI1
aI1
aI2
aI4
aI0
aI1
aI1
aI0
aI13
aI13
aa(lp303
V0021100904
p304
aVAPR 16, 2012
p305
aVORL vs. PHI
p306
aVW
p307
aI36
aI8
aI16
aF0.5
aI2
aI4
aF0.5
aI0
aI0
aF0.0
aI0
aI3
aI3
aI4
aI0
aI0
aI0
aI0
aI18
aI5
aa(lp308
V0021100924
p309
aVAPR 18, 2012
p310
aVORL @ BOS
p311
aVL
p312
aI37
aI2
aI6
aF0.333
aI1
aI3
aF0.333
aI8
aI9
aF0.889
aI1
aI3
aI4
aI5
aI0
aI0
aI3
aI1
aI13
aI-2
aa(lp313
V0021100950
p314
aVAPR 21, 2012
p315
aVORL @ UTA
p316
aVL
p317
aI31
aI5
aI9
aF0.556
aI1
aI3
aF0.333
aI4
aI4
aF1.0
aI1
aI3
aI4
aI3
aI0
aI0
aI0
aI1
aI15
aI-10
aa(lp318
V0021100958
p319
aVAPR 22, 2012
p320
aVORL @ DEN
p321
aVL
p322
aI29
aI4
aI11
aF0.364
aI1
aI4
aF0.25
aI0
aI0
aF0.0
aI0
aI2
aI2
aI3
aI3
aI0
aI2
aI1
aI9
aI-28
aa(lp323
V0021100971
p324
aVAPR 25, 2012
p325
aVORL vs. CHA
p326
aVW
p327
aI37
aI9
aI19
aF0.474
aI6
aI10
aF0.6
aI7
aI7
aF1.0
aI2
aI1
aI3
aI3
aI1
aI0
aI2
aI4
aI31
aI11
aasS'name'
p328
VJJ Redick
p329
sS'weight'
p330
V190
p331
sS'age'
p332
I27
sS'experience'
p333
I5
sS'height'
p334
V6-4
p335
sS'position'
p336
VGuard
p337
s.