(dp0
S'stats'
p1
(lp2
(lp3
V0021100977
p4
aVAPR 25, 2012
p5
aVSAS @ PHX
p6
aVW
p7
aI4
aI1
aI2
aF0.5
aI0
aI0
aF0.0
aI0
aI0
aF0.0
aI2
aI1
aI3
aI0
aI0
aI0
aI0
aI0
aI2
aI-3
aa(lp8
V0021100990
p9
aVAPR 26, 2012
p10
aVSAS @ GSW
p11
aVW
p12
aI33
aI2
aI9
aF0.222
aI0
aI6
aF0.0
aI4
aI4
aF1.0
aI4
aI4
aI8
aI1
aI2
aI0
aI0
aI2
aI8
aI-5
aasS'name'
p13
VDerrick Byars
p14
sS'weight'
p15
V220
p16
sS'age'
p17
I27
sS'experience'
p18
I0
sS'height'
p19
V6-7
p20
sS'position'
p21
VGuard-Forward
p22
s.