(dp0
S'age'
p1
I27
sS'stats'
p2
(lp3
(lp4
V0021100018
p5
aVDEC 27, 2011
p6
aVATL @ NJN
p7
aVW
p8
aI6
aI1
aI2
aF0.5
aI0
aI0
aF0.0
aI0
aI0
aF0.0
aI1
aI3
aI4
aI1
aI0
aI0
aI0
aI1
aI2
aI3
aa(lp9
V0021100025
p10
aVDEC 28, 2011
p11
aVATL vs. WAS
p12
aVW
p13
aI2
aI0
aI0
aF0.0
aI0
aI0
aF0.0
aI0
aI0
aF0.0
aI0
aI0
aI0
aI0
aI0
aI0
aI0
aI1
aI0
aI0
aa(lp14
V0021100094
p15
aVJAN 05, 2012
p16
aVATL vs. MIA
p17
aVL
p18
aI21
aI5
aI7
aF0.714
aI0
aI0
aF0.0
aI3
aI5
aF0.6
aI2
aI2
aI4
aI0
aI1
aI0
aI5
aI6
aI13
aI17
aa(lp19
V0021100101
p20
aVJAN 06, 2012
p21
aVATL @ CHA
p22
aVW
p23
aI12
aI0
aI1
aF0.0
aI0
aI0
aF0.0
aI0
aI0
aF0.0
aI0
aI2
aI2
aI0
aI2
aI0
aI1
aI3
aI0
aI4
aa(lp24
V0021100110
p25
aVJAN 07, 2012
p26
aVATL vs. CHI
p27
aVW
p28
aI12
aI1
aI5
aF0.2
aI0
aI0
aF0.0
aI1
aI1
aF1.0
aI1
aI2
aI3
aI2
aI0
aI0
aI2
aI2
aI3
aI-9
aa(lp29
V0021100128
p30
aVJAN 09, 2012
p31
aVATL @ NJN
p32
aVW
p33
aI2
aI0
aI1
aF0.0
aI0
aI0
aF0.0
aI0
aI0
aF0.0
aI0
aI0
aI0
aI0
aI0
aI0
aI0
aI0
aI0
aI0
aa(lp34
V0021100144
p35
aVJAN 11, 2012
p36
aVATL @ IND
p37
aVL
p38
aI17
aI1
aI6
aF0.167
aI0
aI0
aF0.0
aI3
aI3
aF1.0
aI1
aI2
aI3
aI0
aI2
aI1
aI2
aI2
aI5
aI-3
aa(lp39
V0021100154
p40
aVJAN 12, 2012
p41
aVATL vs. CHA
p42
aVW
p43
aI21
aI4
aI9
aF0.444
aI0
aI0
aF0.0
aI4
aI5
aF0.8
aI4
aI3
aI7
aI0
aI0
aI1
aI1
aI6
aI12
aI3
aa(lp44
V0021100172
p45
aVJAN 14, 2012
p46
aVATL vs. MIN
p47
aVW
p48
aI26
aI1
aI4
aF0.25
aI0
aI0
aF0.0
aI8
aI8
aF1.0
aI4
aI7
aI11
aI0
aI2
aI0
aI0
aI2
aI10
aI19
aa(lp49
V0021100189
p50
aVJAN 16, 2012
p51
aVATL vs. TOR
p52
aVW
p53
aI22
aI1
aI3
aF0.333
aI0
aI0
aF0.0
aI2
aI2
aF1.0
aI0
aI2
aI2
aI0
aI0
aI0
aI0
aI2
aI4
aI4
aa(lp54
V0021100208
p55
aVJAN 18, 2012
p56
aVATL vs. POR
p57
aVW
p58
aI13
aI1
aI1
aF1.0
aI0
aI0
aF0.0
aI0
aI0
aF0.0
aI0
aI1
aI1
aI0
aI0
aI0
aI0
aI1
aI2
aI-1
aa(lp59
V0021100217
p60
aVJAN 20, 2012
p61
aVATL @ PHI
p62
aVL
p63
aI4
aI1
aI2
aF0.5
aI0
aI0
aF0.0
aI0
aI0
aF0.0
aI0
aI0
aI0
aI0
aI0
aI0
aI0
aI0
aI2
aI1
aa(lp64
V0021100227
p65
aVJAN 21, 2012
p66
aVATL vs. CLE
p67
aVW
p68
aI24
aI5
aI8
aF0.625
aI0
aI0
aF0.0
aI1
aI1
aF1.0
aI1
aI5
aI6
aI0
aI1
aI0
aI0
aI3
aI11
aI6
aa(lp69
V0021100245
p70
aVJAN 23, 2012
p71
aVATL @ MIL
p72
aVW
p73
aI9
aI1
aI2
aF0.5
aI0
aI0
aF0.0
aI2
aI4
aF0.5
aI0
aI0
aI0
aI2
aI0
aI0
aI1
aI2
aI4
aI0
aa(lp74
V0021100265
p75
aVJAN 25, 2012
p76
aVATL @ SAS
p77
aVL
p78
aI21
aI3
aI6
aF0.5
aI0
aI0
aF0.0
aI2
aI2
aF1.0
aI0
aI3
aI3
aI2
aI1
aI2
aI2
aI4
aI8
aI-19
aa(lp79
V0021100274
p80
aVJAN 27, 2012
p81
aVATL @ DET
p82
aVW
p83
aI8
aI1
aI3
aF0.333
aI0
aI0
aF0.0
aI0
aI0
aF0.0
aI0
aI2
aI2
aI0
aI0
aI0
aI1
aI0
aI2
aI-2
aa(lp84
V0021100296
p85
aVJAN 29, 2012
p86
aVATL @ NOH
p87
aVW
p88
aI18
aI3
aI6
aF0.5
aI0
aI0
aF0.0
aI3
aI3
aF1.0
aI1
aI2
aI3
aI2
aI2
aI1
aI2
aI2
aI9
aI12
aa(lp89
V0021100308
p90
aVJAN 31, 2012
p91
aVATL @ TOR
p92
aVW
p93
aI22
aI2
aI6
aF0.333
aI0
aI0
aF0.0
aI1
aI2
aF0.5
aI2
aI4
aI6
aI2
aI0
aI1
aI2
aI3
aI5
aI7
aa(lp94
V0021100326
p95
aVFEB 02, 2012
p96
aVATL vs. MEM
p97
aVL
p98
aI29
aI4
aI11
aF0.364
aI0
aI0
aF0.0
aI2
aI2
aF1.0
aI2
aI7
aI9
aI0
aI0
aI2
aI2
aI2
aI10
aI2
aa(lp99
V0021100343
p100
aVFEB 04, 2012
p101
aVATL vs. PHI
p102
aVL
p103
aI25
aI7
aI11
aF0.636
aI0
aI0
aF0.0
aI0
aI1
aF0.0
aI6
aI7
aI13
aI0
aI0
aI0
aI2
aI1
aI14
aI3
aa(lp104
V0021100362
p105
aVFEB 06, 2012
p106
aVATL vs. PHX
p107
aVL
p108
aI15
aI4
aI9
aF0.444
aI0
aI0
aF0.0
aI1
aI2
aF0.5
aI2
aI3
aI5
aI0
aI0
aI0
aI0
aI2
aI9
aI-8
aa(lp109
V0021100379
p110
aVFEB 08, 2012
p111
aVATL vs. IND
p112
aVW
p113
aI10
aI0
aI1
aF0.0
aI0
aI0
aF0.0
aI0
aI0
aF0.0
aI1
aI2
aI3
aI0
aI1
aI0
aI2
aI2
aI0
aI-6
aa(lp114
V0021100392
p115
aVFEB 10, 2012
p116
aVATL @ ORL
p117
aVW
p118
aI6
aI1
aI1
aF1.0
aI0
aI0
aF0.0
aI0
aI1
aF0.0
aI0
aI2
aI2
aI0
aI0
aI0
aI0
aI3
aI2
aI-4
aa(lp119
V0021100411
p120
aVFEB 12, 2012
p121
aVATL vs. MIA
p122
aVL
p123
aI10
aI2
aI6
aF0.333
aI0
aI0
aF0.0
aI2
aI2
aF1.0
aI1
aI1
aI2
aI0
aI2
aI0
aI1
aI1
aI6
aI-10
aa(lp124
V0021100439
p125
aVFEB 15, 2012
p126
aVATL @ PHX
p127
aVW
p128
aI7
aI0
aI1
aF0.0
aI0
aI0
aF0.0
aI0
aI0
aF0.0
aI0
aI1
aI1
aI0
aI1
aI0
aI0
aI0
aI0
aI-8
aa(lp129
V0021100459
p130
aVFEB 18, 2012
p131
aVATL @ POR
p132
aVL
p133
aI5
aI1
aI3
aF0.333
aI0
aI0
aF0.0
aI1
aI2
aF0.5
aI0
aI0
aI0
aI0
aI0
aI0
aI0
aI0
aI3
aI-7
aa(lp134
V0021100470
p135
aVFEB 20, 2012
p136
aVATL @ CHI
p137
aVL
p138
aI2
aI0
aI0
aF0.0
aI0
aI0
aF0.0
aI0
aI0
aF0.0
aI0
aI0
aI0
aI0
aI0
aI0
aI0
aI0
aI0
aI1
aa(lp139
V0021100492
p140
aVFEB 22, 2012
p141
aVATL @ NYK
p142
aVL
p143
aI17
aI1
aI5
aF0.2
aI0
aI1
aF0.0
aI0
aI0
aF0.0
aI2
aI6
aI8
aI2
aI1
aI0
aI5
aI3
aI2
aI-3
aa(lp144
V0021100500
p145
aVFEB 23, 2012
p146
aVATL vs. ORL
p147
aVW
p148
aI5
aI1
aI1
aF1.0
aI0
aI0
aF0.0
aI0
aI0
aF0.0
aI0
aI0
aI0
aI0
aI0
aI0
aI0
aI0
aI2
aI1
aa(lp149
V0021100516
p150
aVFEB 29, 2012
p151
aVATL vs. GSW
p152
aVL
p153
aI6
aI2
aI3
aF0.667
aI0
aI0
aF0.0
aI0
aI0
aF0.0
aI0
aI0
aI0
aI0
aI0
aI1
aI1
aI0
aI4
aI-7
aa(lp154
V0021100530
p155
aVMAR 02, 2012
p156
aVATL vs. MIL
p157
aVW
p158
aI16
aI1
aI2
aF0.5
aI0
aI0
aF0.0
aI0
aI0
aF0.0
aI2
aI1
aI3
aI1
aI2
aI0
aI2
aI3
aI2
aI5
aa(lp159
V0021100540
p160
aVMAR 03, 2012
p161
aVATL vs. OKC
p162
aVW
p163
aI21
aI4
aI10
aF0.4
aI0
aI0
aF0.0
aI0
aI0
aF0.0
aI0
aI5
aI5
aI3
aI1
aI0
aI1
aI3
aI8
aI5
aa(lp164
V0021100564
p165
aVMAR 06, 2012
p166
aVATL @ IND
p167
aVW
p168
aI11
aI3
aI5
aF0.6
aI0
aI0
aF0.0
aI3
aI3
aF1.0
aI2
aI2
aI4
aI0
aI0
aI0
aI2
aI4
aI9
aI-1
aa(lp169
V0021100573
p170
aVMAR 07, 2012
p171
aVATL @ MIA
p172
aVL
p173
aI19
aI1
aI4
aF0.25
aI0
aI0
aF0.0
aI0
aI0
aF0.0
aI2
aI3
aI5
aI0
aI0
aI0
aI2
aI3
aI2
aI-7
aa(lp174
V0021100587
p175
aVMAR 09, 2012
p176
aVATL @ DET
p177
aVL
p178
aI30
aI5
aI7
aF0.714
aI0
aI0
aF0.0
aI0
aI2
aF0.0
aI2
aI2
aI4
aI2
aI5
aI0
aI1
aI0
aI10
aI0
aa(lp179
V0021100646
p180
aVMAR 16, 2012
p181
aVATL vs. WAS
p182
aVW
p183
aI15
aI3
aI6
aF0.5
aI0
aI0
aF0.0
aI0
aI0
aF0.0
aI1
aI1
aI2
aI0
aI1
aI0
aI0
aI2
aI6
aI-4
aa(lp184
V0021100662
p185
aVMAR 18, 2012
p186
aVATL @ CLE
p187
aVW
p188
aI24
aI5
aI5
aF1.0
aI0
aI0
aF0.0
aI0
aI1
aF0.0
aI2
aI2
aI4
aI2
aI0
aI2
aI2
aI4
aI10
aI10
aa(lp189
V0021100672
p190
aVMAR 19, 2012
p191
aVATL vs. BOS
p192
aVL
p193
aI10
aI0
aI2
aF0.0
aI0
aI0
aF0.0
aI0
aI0
aF0.0
aI1
aI1
aI2
aI0
aI0
aI0
aI0
aI2
aI0
aI-3
aa(lp194
V0021100703
p195
aVMAR 23, 2012
p196
aVATL vs. NJN
p197
aVW
p198
aI21
aI2
aI6
aF0.333
aI0
aI1
aF0.0
aI1
aI2
aF0.5
aI1
aI6
aI7
aI1
aI0
aI0
aI4
aI4
aI5
aI-14
aa(lp199
V0021100711
p200
aVMAR 24, 2012
p201
aVATL @ WAS
p202
aVW
p203
aI18
aI2
aI2
aF1.0
aI0
aI0
aF0.0
aI1
aI2
aF0.5
aI0
aI6
aI6
aI1
aI0
aI0
aI0
aI2
aI5
aI8
aa(lp204
V0021100722
p205
aVMAR 25, 2012
p206
aVATL vs. UTA
p207
aVW
p208
aI26
aI3
aI6
aF0.5
aI0
aI0
aF0.0
aI3
aI4
aF0.75
aI0
aI5
aI5
aI1
aI0
aI1
aI1
aI2
aI9
aI1
aa(lp209
V0021100737
p210
aVMAR 27, 2012
p211
aVATL @ MIL
p212
aVL
p213
aI23
aI7
aI7
aF1.0
aI1
aI1
aF1.0
aI2
aI4
aF0.5
aI0
aI3
aI3
aI1
aI2
aI0
aI0
aI2
aI17
aI-12
aa(lp214
V0021100749
p215
aVMAR 28, 2012
p216
aVATL vs. CHI
p217
aVL
p218
aI11
aI2
aI5
aF0.4
aI0
aI0
aF0.0
aI0
aI0
aF0.0
aI1
aI2
aI3
aI1
aI0
aI1
aI0
aI3
aI4
aI-12
aa(lp219
V0021100760
p220
aVMAR 30, 2012
p221
aVATL vs. NYK
p222
aVW
p223
aI9
aI0
aI0
aF0.0
aI0
aI0
aF0.0
aI0
aI0
aF0.0
aI1
aI1
aI2
aI0
aI0
aI0
aI1
aI1
aI0
aI-6
aa(lp224
V0021100771
p225
aVMAR 31, 2012
p226
aVATL @ PHI
p227
aVL
p228
aI16
aI3
aI5
aF0.6
aI0
aI0
aF0.0
aI1
aI1
aF1.0
aI1
aI5
aI6
aI0
aI0
aI0
aI1
aI2
aI7
aI2
aa(lp229
V0021100802
p230
aVAPR 04, 2012
p231
aVATL vs. CHA
p232
aVW
p233
aI19
aI3
aI5
aF0.6
aI0
aI0
aF0.0
aI1
aI2
aF0.5
aI0
aI2
aI2
aI0
aI1
aI0
aI1
aI1
aI7
aI18
aa(lp234
V0021100818
p235
aVAPR 06, 2012
p236
aVATL vs. DET
p237
aVW
p238
aI29
aI8
aI12
aF0.667
aI0
aI0
aF0.0
aI0
aI1
aF0.0
aI2
aI4
aI6
aI1
aI2
aI1
aI4
aI2
aI16
aI17
aa(lp239
V0021100826
p240
aVAPR 07, 2012
p241
aVATL @ CHA
p242
aVW
p243
aI31
aI5
aI10
aF0.5
aI1
aI1
aF1.0
aI6
aI6
aF1.0
aI1
aI5
aI6
aI1
aI1
aI1
aI4
aI3
aI17
aI11
aa(lp244
V0021100860
p245
aVAPR 11, 2012
p246
aVATL @ BOS
p247
aVL
p248
aI13
aI2
aI4
aF0.5
aI0
aI1
aF0.0
aI0
aI0
aF0.0
aI2
aI3
aI5
aI0
aI2
aI0
aI0
aI1
aI4
aI-17
aa(lp249
V0021100896
p250
aVAPR 15, 2012
p251
aVATL vs. TOR
p252
aVL
p253
aI30
aI4
aI9
aF0.444
aI0
aI0
aF0.0
aI6
aI9
aF0.667
aI3
aI4
aI7
aI3
aI3
aI0
aI2
aI3
aI14
aI0
aa(lp254
V0021100902
p255
aVAPR 16, 2012
p256
aVATL @ TOR
p257
aVW
p258
aI27
aI9
aI13
aF0.692
aI0
aI0
aF0.0
aI3
aI4
aF0.75
aI3
aI5
aI8
aI0
aI0
aI0
aI1
aI0
aI21
aI6
aa(lp259
V0021100922
p260
aVAPR 18, 2012
p261
aVATL vs. DET
p262
aVW
p263
aI33
aI6
aI10
aF0.6
aI0
aI0
aF0.0
aI4
aI6
aF0.667
aI1
aI9
aI10
aI0
aI1
aI0
aI1
aI4
aI16
aI22
aa(lp264
V0021100938
p265
aVAPR 20, 2012
p266
aVATL vs. BOS
p267
aVW
p268
aI27
aI3
aI3
aF1.0
aI0
aI0
aF0.0
aI0
aI0
aF0.0
aI1
aI3
aI4
aI0
aI1
aI0
aI1
aI2
aI6
aI-8
aa(lp269
V0021100951
p270
aVAPR 22, 2012
p271
aVATL vs. NYK
p272
aVL
p273
aI13
aI0
aI2
aF0.0
aI0
aI0
aF0.0
aI1
aI2
aF0.5
aI2
aI2
aI4
aI0
aI3
aI0
aI2
aI2
aI1
aI-4
aa(lp274
V0021100966
p275
aVAPR 24, 2012
p276
aVATL vs. LAC
p277
aVW
p278
aI25
aI2
aI5
aF0.4
aI0
aI0
aF0.0
aI2
aI2
aF1.0
aI2
aI5
aI7
aI0
aI0
aI2
aI3
aI3
aI6
aI6
aa(lp279
V0021100983
p280
aVAPR 26, 2012
p281
aVATL vs. DAL
p282
aVW
p283
aI22
aI4
aI6
aF0.667
aI0
aI1
aF0.0
aI2
aI3
aF0.667
aI1
aI5
aI6
aI1
aI2
aI1
aI1
aI4
aI10
aI13
aasS'name'
p284
VIvan Johnson
p285
sS'experience'
p286
I0
s.