(dp0
S'age'
p1
I27
sS'stats'
p2
(lp3
(lp4
V0021100028
p5
aVDEC 28, 2011
p6
aVNOH vs. BOS
p7
aVW
p8
aI2
aI0
aI1
aF0.0
aI0
aI0
aF0.0
aI0
aI0
aF0.0
aI0
aI0
aI0
aI0
aI0
aI0
aI0
aI0
aI0
aI-2
aa(lp9
V0021100044
p10
aVDEC 30, 2011
p11
aVNOH vs. PHX
p12
aVL
p13
aI4
aI0
aI1
aF0.0
aI0
aI0
aF0.0
aI2
aI2
aF1.0
aI0
aI1
aI1
aI0
aI0
aI0
aI0
aI0
aI2
aI-3
aa(lp14
V0021100064
p15
aVJAN 01, 2012
p16
aVNOH @ SAC
p17
aVL
p18
aI1
aI2
aI2
aF1.0
aI0
aI0
aF0.0
aI0
aI0
aF0.0
aI2
aI0
aI2
aI0
aI0
aI0
aI0
aI0
aI4
aI2
aa(lp19
V0021100075
p20
aVJAN 02, 2012
p21
aVNOH @ UTA
p22
aVL
p23
aI11
aI1
aI2
aF0.5
aI0
aI0
aF0.0
aI0
aI0
aF0.0
aI0
aI2
aI2
aI3
aI0
aI0
aI0
aI2
aI2
aI0
aa(lp24
V0021100088
p25
aVJAN 04, 2012
p26
aVNOH vs. PHI
p27
aVL
p28
aI12
aI1
aI1
aF1.0
aI0
aI0
aF0.0
aI0
aI0
aF0.0
aI0
aI1
aI1
aI1
aI1
aI0
aI1
aI2
aI2
aI-7
aa(lp29
V0021100104
p30
aVJAN 06, 2012
p31
aVNOH vs. DEN
p32
aVL
p33
aI6
aI1
aI1
aF1.0
aI0
aI0
aF0.0
aI0
aI0
aF0.0
aI0
aI1
aI1
aI0
aI0
aI0
aI1
aI3
aI2
aI5
aa(lp34
V0021100117
p35
aVJAN 07, 2012
p36
aVNOH @ DAL
p37
aVL
p38
aI8
aI1
aI4
aF0.25
aI0
aI0
aF0.0
aI0
aI0
aF0.0
aI1
aI2
aI3
aI0
aI0
aI0
aI0
aI1
aI2
aI0
aa(lp39
V0021100131
p40
aVJAN 09, 2012
p41
aVNOH @ DEN
p42
aVW
p43
aI1
aI0
aI0
aF0.0
aI0
aI0
aF0.0
aI0
aI0
aF0.0
aI0
aI0
aI0
aI0
aI0
aI0
aI0
aI0
aI0
aI-4
aa(lp44
V0021100175
p45
aVJAN 14, 2012
p46
aVNOH @ MEM
p47
aVL
p48
aI8
aI1
aI1
aF1.0
aI0
aI0
aF0.0
aI3
aI3
aF1.0
aI0
aI1
aI1
aI0
aI0
aI0
aI1
aI1
aI5
aI12
aa(lp49
V0021100190
p50
aVJAN 16, 2012
p51
aVNOH vs. POR
p52
aVL
p53
aI2
aI0
aI0
aF0.0
aI0
aI0
aF0.0
aI0
aI0
aF0.0
aI0
aI1
aI1
aI0
aI0
aI0
aI1
aI0
aI0
aI-4
aa(lp54
V0021100209
p55
aVJAN 18, 2012
p56
aVNOH vs. MEM
p57
aVL
p58
aI5
aI1
aI1
aF1.0
aI0
aI0
aF0.0
aI0
aI0
aF0.0
aI0
aI0
aI0
aI0
aI0
aI0
aI1
aI1
aI2
aI-3
aasS'name'
p59
VTrey Johnson
p60
sS'experience'
p61
I3
s.