(dp0
S'stats'
p1
(lp2
(lp3
V0021100889
p4
aVAPR 14, 2012
p5
aVUTA @ MEM
p6
aVL
p7
aI5
aI0
aI1
aF0.0
aI0
aI1
aF0.0
aI0
aI0
aF0.0
aI0
aI2
aI2
aI1
aI0
aI0
aI0
aI0
aI0
aI0
aa(lp8
V0021100909
p9
aVAPR 16, 2012
p10
aVUTA vs. DAL
p11
aVW
p12
aI5
aI1
aI2
aF0.5
aI1
aI2
aF0.5
aI0
aI0
aF0.0
aI0
aI0
aI0
aI0
aI0
aI0
aI1
aI1
aI3
aI3
aa(lp13
V0021100930
p14
aVAPR 18, 2012
p15
aVUTA @ POR
p16
aVW
p17
aI5
aI0
aI3
aF0.0
aI0
aI2
aF0.0
aI0
aI0
aF0.0
aI0
aI0
aI0
aI0
aI0
aI0
aI1
aI1
aI0
aI-4
aa(lp18
V0021100988
p19
aVAPR 26, 2012
p20
aVUTA vs. POR
p21
aVW
p22
aI15
aI3
aI8
aF0.375
aI1
aI4
aF0.25
aI0
aI0
aF0.0
aI0
aI0
aI0
aI0
aI0
aI0
aI3
aI2
aI7
aI-11
aasS'name'
p23
VBlake Ahearn
p24
sS'weight'
p25
V190
p26
sS'age'
p27
I27
sS'experience'
p28
I4
sS'height'
p29
V6-2
p30
sS'position'
p31
VGuard
p32
s.