(dp0
S'stats'
p1
(lp2
(lp3
V0021100004
p4
aVDEC 25, 2011
p5
aVORL @ OKC
p6
aVL
p7
aI34
aI9
aI17
aF0.529
aI6
aI12
aF0.5
aI1
aI1
aF1.0
aI4
aI6
aI10
aI1
aI2
aI0
aI2
aI4
aI25
aI-7
aa(lp8
V0021100008
p9
aVDEC 26, 2011
p10
aVORL vs. HOU
p11
aVW
p12
aI28
aI3
aI9
aF0.333
aI2
aI8
aF0.25
aI0
aI0
aF0.0
aI2
aI3
aI5
aI1
aI0
aI1
aI0
aI2
aI8
aI8
aa(lp13
V0021100033
p14
aVDEC 29, 2011
p15
aVORL vs. NJN
p16
aVW
p17
aI33
aI7
aI14
aF0.5
aI3
aI5
aF0.6
aI5
aI6
aF0.833
aI2
aI1
aI3
aI0
aI0
aI0
aI0
aI3
aI22
aI10
aa(lp18
V0021100039
p19
aVDEC 30, 2011
p20
aVORL @ CHA
p21
aVW
p22
aI35
aI8
aI18
aF0.444
aI5
aI12
aF0.417
aI2
aI2
aF1.0
aI4
aI4
aI8
aI2
aI0
aI2
aI0
aI3
aI23
aI22
aa(lp23
V0021100058
p24
aVJAN 01, 2012
p25
aVORL vs. TOR
p26
aVW
p27
aI30
aI9
aI16
aF0.563
aI5
aI8
aF0.625
aI1
aI1
aF1.0
aI2
aI3
aI5
aI2
aI0
aI0
aI0
aI3
aI24
aI16
aa(lp28
V0021100071
p29
aVJAN 02, 2012
p30
aVORL @ DET
p31
aVL
p32
aI31
aI5
aI10
aF0.5
aI1
aI5
aF0.2
aI2
aI2
aF1.0
aI0
aI6
aI6
aI0
aI0
aI0
aI0
aI2
aI13
aI-9
aa(lp33
V0021100083
p34
aVJAN 04, 2012
p35
aVORL vs. WAS
p36
aVW
p37
aI28
aI7
aI16
aF0.438
aI3
aI5
aF0.6
aI6
aI6
aF1.0
aI7
aI8
aI15
aI0
aI0
aI0
aI0
aI1
aI23
aI24
aa(lp38
V0021100103
p39
aVJAN 06, 2012
p40
aVORL vs. CHI
p41
aVL
p42
aI25
aI2
aI10
aF0.2
aI1
aI7
aF0.143
aI0
aI0
aF0.0
aI1
aI2
aI3
aI1
aI0
aI0
aI0
aI1
aI5
aI-10
aa(lp43
V0021100121
p44
aVJAN 08, 2012
p45
aVORL @ SAC
p46
aVW
p47
aI33
aI5
aI16
aF0.313
aI3
aI11
aF0.273
aI6
aI8
aF0.75
aI6
aI5
aI11
aI1
aI4
aI0
aI0
aI2
aI19
aI10
aa(lp48
V0021100152
p49
aVJAN 11, 2012
p50
aVORL @ POR
p51
aVW
p52
aI29
aI6
aI11
aF0.545
aI4
aI7
aF0.571
aI0
aI0
aF0.0
aI2
aI7
aI9
aI1
aI1
aI0
aI2
aI2
aI16
aI13
aa(lp53
V0021100158
p54
aVJAN 12, 2012
p55
aVORL @ GSW
p56
aVW
p57
aI23
aI3
aI4
aF0.75
aI3
aI3
aF1.0
aI2
aI2
aF1.0
aI2
aI3
aI5
aI1
aI0
aI0
aI1
aI2
aI11
aI14
aa(lp58
V0021100184
p59
aVJAN 16, 2012
p60
aVORL @ NYK
p61
aVW
p62
aI35
aI11
aI19
aF0.579
aI7
aI13
aF0.538
aI1
aI1
aF1.0
aI3
aI4
aI7
aI0
aI1
aI0
aI1
aI2
aI30
aI15
aa(lp63
V0021100195
p64
aVJAN 17, 2012
p65
aVORL vs. CHA
p66
aVW
p67
aI27
aI4
aI13
aF0.308
aI2
aI9
aF0.222
aI3
aI4
aF0.75
aI1
aI2
aI3
aI0
aI3
aI0
aI1
aI1
aI13
aI-5
aa(lp68
V0021100204
p69
aVJAN 18, 2012
p70
aVORL vs. SAS
p71
aVL
p72
aI39
aI3
aI13
aF0.231
aI1
aI6
aF0.167
aI10
aI10
aF1.0
aI4
aI7
aI11
aI1
aI1
aI0
aI0
aI3
aI17
aI0
aa(lp73
V0021100223
p74
aVJAN 20, 2012
p75
aVORL vs. LAL
p76
aVW
p77
aI31
aI5
aI10
aF0.5
aI3
aI6
aF0.5
aI0
aI0
aF0.0
aI4
aI4
aI8
aI0
aI4
aI0
aI0
aI2
aI13
aI12
aa(lp78
V0021100243
p79
aVJAN 23, 2012
p80
aVORL @ BOS
p81
aVL
p82
aI23
aI0
aI8
aF0.0
aI0
aI4
aF0.0
aI0
aI0
aF0.0
aI0
aI0
aI0
aI2
aI0
aI0
aI1
aI3
aI0
aI-10
aa(lp83
V0021100253
p84
aVJAN 24, 2012
p85
aVORL @ IND
p86
aVW
p87
aI33
aI8
aI14
aF0.571
aI5
aI7
aF0.714
aI3
aI5
aF0.6
aI6
aI2
aI8
aI0
aI1
aI1
aI0
aI2
aI24
aI11
aa(lp88
V0021100270
p89
aVJAN 26, 2012
p90
aVORL vs. BOS
p91
aVL
p92
aI27
aI5
aI12
aF0.417
aI1
aI2
aF0.5
aI1
aI1
aF1.0
aI2
aI2
aI4
aI1
aI0
aI1
aI0
aI3
aI12
aI8
aa(lp93
V0021100294
p94
aVJAN 29, 2012
p95
aVORL vs. IND
p96
aVL
p97
aI28
aI3
aI8
aF0.375
aI3
aI5
aF0.6
aI2
aI2
aF1.0
aI0
aI2
aI2
aI0
aI0
aI1
aI1
aI1
aI11
aI-3
aa(lp98
V0021100299
p99
aVJAN 30, 2012
p100
aVORL @ PHI
p101
aVL
p102
aI27
aI6
aI13
aF0.462
aI0
aI4
aF0.0
aI2
aI4
aF0.5
aI11
aI9
aI20
aI0
aI0
aI0
aI1
aI2
aI14
aI5
aa(lp103
V0021100316
p104
aVFEB 01, 2012
p105
aVORL vs. WAS
p106
aVW
p107
aI33
aI7
aI12
aF0.583
aI6
aI9
aF0.667
aI3
aI4
aF0.75
aI4
aI3
aI7
aI1
aI1
aI0
aI2
aI1
aI23
aI14
aa(lp108
V0021100334
p109
aVFEB 03, 2012
p110
aVORL vs. CLE
p111
aVW
p112
aI34
aI5
aI14
aF0.357
aI2
aI6
aF0.333
aI5
aI6
aF0.833
aI5
aI3
aI8
aI1
aI0
aI1
aI0
aI3
aI17
aI14
aa(lp113
V0021100344
p114
aVFEB 04, 2012
p115
aVORL @ IND
p116
aVW
p117
aI39
aI3
aI6
aF0.5
aI1
aI2
aF0.5
aI5
aI5
aF1.0
aI1
aI6
aI7
aI1
aI1
aI0
aI2
aI4
aI12
aI13
aa(lp118
V0021100359
p119
aVFEB 06, 2012
p120
aVORL vs. LAC
p121
aVL
p122
aI30
aI3
aI10
aF0.3
aI2
aI5
aF0.4
aI2
aI2
aF1.0
aI5
aI4
aI9
aI1
aI0
aI0
aI0
aI5
aI10
aI2
aa(lp123
V0021100376
p124
aVFEB 08, 2012
p125
aVORL vs. MIA
p126
aVW
p127
aI34
aI8
aI19
aF0.421
aI5
aI11
aF0.455
aI6
aI9
aF0.667
aI7
aI4
aI11
aI3
aI0
aI0
aI1
aI1
aI27
aI6
aa(lp128
V0021100392
p129
aVFEB 10, 2012
p130
aVORL vs. ATL
p131
aVL
p132
aI40
aI8
aI13
aF0.615
aI2
aI4
aF0.5
aI3
aI3
aF1.0
aI6
aI3
aI9
aI1
aI1
aI0
aI1
aI3
aI21
aI-2
aa(lp133
V0021100406
p134
aVFEB 11, 2012
p135
aVORL @ MIL
p136
aVW
p137
aI34
aI3
aI8
aF0.375
aI1
aI6
aF0.167
aI2
aI2
aF1.0
aI4
aI3
aI7
aI1
aI0
aI0
aI1
aI2
aI9
aI16
aa(lp138
V0021100415
p139
aVFEB 13, 2012
p140
aVORL vs. MIN
p141
aVW
p142
aI30
aI5
aI12
aF0.417
aI3
aI8
aF0.375
aI0
aI0
aF0.0
aI4
aI1
aI5
aI0
aI2
aI0
aI0
aI3
aI13
aI16
aa(lp143
V0021100430
p144
aVFEB 15, 2012
p145
aVORL vs. PHI
p146
aVW
p147
aI30
aI9
aI12
aF0.75
aI7
aI10
aF0.7
aI2
aI2
aF1.0
aI1
aI1
aI2
aI0
aI1
aI0
aI1
aI1
aI27
aI17
aa(lp148
V0021100447
p149
aVFEB 17, 2012
p150
aVORL vs. MIL
p151
aVW
p152
aI36
aI8
aI15
aF0.533
aI4
aI7
aF0.571
aI3
aI4
aF0.75
aI5
aI4
aI9
aI3
aI1
aI0
aI1
aI2
aI23
aI-4
aa(lp153
V0021100461
p154
aVFEB 19, 2012
p155
aVORL @ MIA
p156
aVL
p157
aI31
aI3
aI8
aF0.375
aI2
aI5
aF0.4
aI1
aI2
aF0.5
aI2
aI4
aI6
aI0
aI1
aI0
aI1
aI2
aI9
aI-23
aa(lp158
V0021100472
p159
aVFEB 20, 2012
p160
aVORL @ MIL
p161
aVW
p162
aI32
aI3
aI7
aF0.429
aI2
aI4
aF0.5
aI1
aI2
aF0.5
aI6
aI5
aI11
aI0
aI1
aI1
aI1
aI3
aI9
aI8
aa(lp163
V0021100491
p164
aVFEB 22, 2012
p165
aVORL @ NJN
p166
aVW
p167
aI24
aI5
aI15
aF0.333
aI2
aI6
aF0.333
aI2
aI2
aF1.0
aI7
aI2
aI9
aI3
aI2
aI1
aI0
aI0
aI14
aI16
aa(lp168
V0021100500
p169
aVFEB 23, 2012
p170
aVORL @ ATL
p171
aVL
p172
aI31
aI4
aI13
aF0.308
aI2
aI6
aF0.333
aI0
aI0
aF0.0
aI3
aI2
aI5
aI0
aI1
aI1
aI1
aI3
aI10
aI1
aa(lp173
V0021100513
p174
aVFEB 29, 2012
p175
aVORL @ WAS
p176
aVW
p177
aI37
aI6
aI14
aF0.429
aI4
aI10
aF0.4
aI7
aI7
aF1.0
aI5
aI10
aI15
aI3
aI0
aI0
aI2
aI3
aI23
aI12
aa(lp178
V0021100524
p179
aVMAR 01, 2012
p180
aVORL vs. OKC
p181
aVL
p182
aI31
aI6
aI12
aF0.5
aI3
aI7
aF0.429
aI0
aI0
aF0.0
aI0
aI4
aI4
aI2
aI0
aI0
aI1
aI3
aI15
aI-1
aa(lp183
V0021100541
p184
aVMAR 03, 2012
p185
aVORL vs. MIL
p186
aVW
p187
aI27
aI4
aI9
aF0.444
aI3
aI6
aF0.5
aI5
aI5
aF1.0
aI1
aI5
aI6
aI1
aI5
aI1
aI1
aI3
aI16
aI9
aa(lp188
V0021100554
p189
aVMAR 05, 2012
p190
aVORL @ TOR
p191
aVW
p192
aI30
aI7
aI16
aF0.438
aI1
aI5
aF0.2
aI4
aI4
aF1.0
aI7
aI6
aI13
aI0
aI0
aI0
aI2
aI2
aI19
aI-8
aa(lp193
V0021100563
p194
aVMAR 06, 2012
p195
aVORL @ CHA
p196
aVL
p197
aI35
aI5
aI15
aF0.333
aI2
aI10
aF0.2
aI2
aI2
aF1.0
aI4
aI7
aI11
aI3
aI0
aI1
aI1
aI3
aI14
aI-17
aa(lp198
V0021100582
p199
aVMAR 08, 2012
p200
aVORL @ CHI
p201
aVW
p202
aI25
aI3
aI9
aF0.333
aI3
aI8
aF0.375
aI2
aI2
aF1.0
aI4
aI6
aI10
aI0
aI1
aI0
aI2
aI4
aI11
aI-6
aa(lp203
V0021100606
p204
aVMAR 11, 2012
p205
aVORL vs. IND
p206
aVW
p207
aI29
aI4
aI11
aF0.364
aI2
aI6
aF0.333
aI2
aI2
aF1.0
aI4
aI5
aI9
aI0
aI0
aI1
aI1
aI2
aI12
aI26
aa(lp208
V0021100618
p209
aVMAR 13, 2012
p210
aVORL vs. MIA
p211
aVW
p212
aI40
aI6
aI11
aF0.545
aI2
aI5
aF0.4
aI2
aI3
aF0.667
aI7
aI5
aI12
aI2
aI2
aI0
aI4
aI0
aI16
aI-1
aa(lp213
V0021100633
p214
aVMAR 14, 2012
p215
aVORL @ SAS
p216
aVL
p217
aI35
aI8
aI15
aF0.533
aI2
aI5
aF0.4
aI1
aI1
aF1.0
aI4
aI4
aI8
aI2
aI1
aI2
aI0
aI4
aI19
aI-1
aa(lp218
V0021100644
p219
aVMAR 16, 2012
p220
aVORL vs. NJN
p221
aVW
p222
aI35
aI4
aI11
aF0.364
aI1
aI7
aF0.143
aI3
aI4
aF0.75
aI2
aI9
aI11
aI2
aI1
aI2
aI2
aI2
aI12
aI22
aa(lp223
V0021100666
p224
aVMAR 18, 2012
p225
aVORL @ MIA
p226
aVL
p227
aI23
aI2
aI6
aF0.333
aI1
aI3
aF0.333
aI0
aI0
aF0.0
aI2
aI1
aI3
aI0
aI0
aI2
aI0
aI3
aI5
aI-9
aa(lp228
V0021100673
p229
aVMAR 19, 2012
p230
aVORL vs. CHI
p231
aVL
p232
aI30
aI4
aI13
aF0.308
aI2
aI8
aF0.25
aI0
aI0
aF0.0
aI2
aI3
aI5
aI0
aI0
aI0
aI1
aI1
aI10
aI-11
aa(lp233
V0021100685
p234
aVMAR 21, 2012
p235
aVORL vs. PHX
p236
aVW
p237
aI38
aI9
aI16
aF0.563
aI7
aI12
aF0.583
aI4
aI6
aF0.667
aI2
aI2
aI4
aI1
aI0
aI0
aI3
aI1
aI29
aI7
aa(lp238
V0021100701
p239
aVMAR 23, 2012
p240
aVORL vs. CLE
p241
aVW
p242
aI36
aI5
aI14
aF0.357
aI3
aI11
aF0.273
aI4
aI4
aF1.0
aI5
aI3
aI8
aI0
aI3
aI2
aI1
aI2
aI17
aI15
aa(lp243
V0021100727
p244
aVMAR 26, 2012
p245
aVORL @ TOR
p246
aVW
p247
aI35
aI9
aI15
aF0.6
aI8
aI13
aF0.615
aI2
aI2
aF1.0
aI2
aI4
aI6
aI0
aI0
aI0
aI1
aI2
aI28
aI28
aa(lp248
V0021100744
p249
aVMAR 28, 2012
p250
aVORL @ NYK
p251
aVL
p252
aI16
aI1
aI4
aF0.25
aI1
aI3
aF0.333
aI0
aI0
aF0.0
aI2
aI0
aI2
aI0
aI0
aI0
aI2
aI1
aI3
aI-10
aa(lp253
V0021100762
p254
aVMAR 30, 2012
p255
aVORL vs. DAL
p256
aVL
p257
aI32
aI6
aI12
aF0.5
aI3
aI6
aF0.5
aI6
aI6
aF1.0
aI4
aI2
aI6
aI1
aI1
aI0
aI0
aI5
aI21
aI0
aa(lp258
V0021100780
p259
aVAPR 01, 2012
p260
aVORL vs. DEN
p261
aVL
p262
aI39
aI7
aI18
aF0.389
aI3
aI10
aF0.3
aI3
aI3
aF1.0
aI5
aI4
aI9
aI1
aI1
aI0
aI0
aI0
aI20
aI8
aa(lp263
V0021100843
p264
aVAPR 09, 2012
p265
aVORL vs. DET
p266
aVW
p267
aI23
aI6
aI9
aF0.667
aI2
aI5
aF0.4
aI0
aI0
aF0.0
aI1
aI6
aI7
aI2
aI0
aI1
aI2
aI4
aI14
aI12
aa(lp268
V0021100852
p269
aVAPR 10, 2012
p270
aVORL @ WAS
p271
aVL
p272
aI39
aI2
aI10
aF0.2
aI1
aI7
aF0.143
aI2
aI2
aF1.0
aI2
aI2
aI4
aI0
aI2
aI0
aI3
aI3
aI7
aI-7
aa(lp273
V0021100876
p274
aVAPR 13, 2012
p275
aVORL vs. ATL
p276
aVL
p277
aI34
aI2
aI12
aF0.167
aI0
aI8
aF0.0
aI2
aI2
aF1.0
aI3
aI2
aI5
aI0
aI0
aI0
aI0
aI1
aI6
aI-21
aa(lp278
V0021100898
p279
aVAPR 15, 2012
p280
aVORL @ CLE
p281
aVW
p282
aI36
aI3
aI11
aF0.273
aI1
aI4
aF0.25
aI2
aI2
aF1.0
aI4
aI9
aI13
aI2
aI1
aI1
aI0
aI4
aI9
aI18
aa(lp283
V0021100904
p284
aVAPR 16, 2012
p285
aVORL vs. PHI
p286
aVW
p287
aI39
aI11
aI16
aF0.688
aI2
aI2
aF1.0
aI2
aI2
aF1.0
aI8
aI8
aI16
aI1
aI0
aI1
aI2
aI4
aI26
aI14
aa(lp288
V0021100924
p289
aVAPR 18, 2012
p290
aVORL @ BOS
p291
aVL
p292
aI39
aI4
aI11
aF0.364
aI0
aI4
aF0.0
aI4
aI4
aF1.0
aI5
aI4
aI9
aI0
aI1
aI0
aI2
aI3
aI12
aI5
aa(lp293
V0021100950
p294
aVAPR 21, 2012
p295
aVORL @ UTA
p296
aVL
p297
aI42
aI8
aI19
aF0.421
aI5
aI12
aF0.417
aI0
aI0
aF0.0
aI4
aI1
aI5
aI0
aI0
aI1
aI0
aI2
aI21
aI-19
aa(lp298
V0021100958
p299
aVAPR 22, 2012
p300
aVORL @ DEN
p301
aVL
p302
aI38
aI9
aI18
aF0.5
aI3
aI9
aF0.333
aI3
aI3
aF1.0
aI5
aI4
aI9
aI1
aI1
aI1
aI1
aI4
aI24
aI-14
aa(lp303
V0021100971
p304
aVAPR 25, 2012
p305
aVORL vs. CHA
p306
aVW
p307
aI42
aI8
aI15
aF0.533
aI2
aI8
aF0.25
aI6
aI7
aF0.857
aI7
aI6
aI13
aI1
aI1
aI0
aI1
aI3
aI24
aI5
aasS'name'
p308
VRyan Anderson
p309
sS'weight'
p310
V240
p311
sS'age'
p312
I23
sS'experience'
p313
I3
sS'height'
p314
V6-10
p315
sS'position'
p316
VForward
p317
s.