(dp0
S'stats'
p1
(lp2
(lp3
V0021100015
p4
aVDEC 26, 2011
p5
aVSAC vs. LAL
p6
aVW
p7
aI7
aI0
aI0
aF0.0
aI0
aI0
aF0.0
aI1
aI2
aF0.5
aI0
aI1
aI1
aI0
aI0
aI0
aI0
aI0
aI1
aI-1
aa(lp8
V0021100021
p9
aVDEC 27, 2011
p10
aVSAC @ POR
p11
aVL
p12
aI14
aI5
aI6
aF0.833
aI0
aI0
aF0.0
aI1
aI2
aF0.5
aI1
aI1
aI2
aI1
aI0
aI1
aI0
aI3
aI11
aI-5
aa(lp13
V0021100036
p14
aVDEC 29, 2011
p15
aVSAC vs. CHI
p16
aVL
p17
aI13
aI1
aI2
aF0.5
aI0
aI0
aF0.0
aI0
aI0
aF0.0
aI0
aI2
aI2
aI1
aI0
aI0
aI0
aI0
aI2
aI-1
aa(lp18
V0021100054
p19
aVDEC 31, 2011
p20
aVSAC vs. NYK
p21
aVL
p22
aI24
aI5
aI10
aF0.5
aI0
aI0
aF0.0
aI3
aI8
aF0.375
aI4
aI3
aI7
aI1
aI0
aI0
aI0
aI2
aI13
aI3
aa(lp23
V0021100064
p24
aVJAN 01, 2012
p25
aVSAC vs. NOH
p26
aVW
p27
aI21
aI2
aI7
aF0.286
aI0
aI0
aF0.0
aI0
aI0
aF0.0
aI2
aI3
aI5
aI1
aI1
aI1
aI0
aI1
aI4
aI-5
aa(lp28
V0021100078
p29
aVJAN 03, 2012
p30
aVSAC @ MEM
p31
aVL
p32
aI19
aI4
aI7
aF0.571
aI0
aI0
aF0.0
aI0
aI0
aF0.0
aI2
aI1
aI3
aI0
aI0
aI0
aI2
aI3
aI8
aI-3
aa(lp33
V0021100092
p34
aVJAN 04, 2012
p35
aVSAC @ DEN
p36
aVL
p37
aI17
aI0
aI3
aF0.0
aI0
aI0
aF0.0
aI0
aI1
aF0.0
aI2
aI3
aI5
aI0
aI2
aI0
aI2
aI2
aI0
aI-29
aa(lp38
V0021100096
p39
aVJAN 05, 2012
p40
aVSAC vs. MIL
p41
aVW
p42
aI23
aI1
aI1
aF1.0
aI0
aI0
aF0.0
aI0
aI0
aF0.0
aI0
aI2
aI2
aI2
aI2
aI0
aI1
aI1
aI2
aI3
aa(lp43
V0021100121
p44
aVJAN 08, 2012
p45
aVSAC vs. ORL
p46
aVL
p47
aI20
aI4
aI5
aF0.8
aI0
aI0
aF0.0
aI2
aI2
aF1.0
aI2
aI4
aI6
aI0
aI0
aI0
aI1
aI2
aI10
aI0
aa(lp48
V0021100132
p49
aVJAN 10, 2012
p50
aVSAC @ PHI
p51
aVL
p52
aI17
aI6
aI7
aF0.857
aI0
aI0
aF0.0
aI1
aI5
aF0.2
aI0
aI4
aI4
aI1
aI0
aI0
aI0
aI0
aI13
aI-8
aa(lp53
V0021100143
p54
aVJAN 11, 2012
p55
aVSAC @ TOR
p56
aVW
p57
aI7
aI0
aI1
aF0.0
aI0
aI0
aF0.0
aI0
aI0
aF0.0
aI0
aI0
aI0
aI1
aI0
aI0
aI0
aI1
aI0
aI-3
aa(lp58
V0021100164
p59
aVJAN 13, 2012
p60
aVSAC @ HOU
p61
aVL
p62
aI20
aI3
aI6
aF0.5
aI0
aI0
aF0.0
aI1
aI2
aF0.5
aI2
aI2
aI4
aI1
aI0
aI0
aI1
aI2
aI7
aI8
aa(lp63
V0021100178
p64
aVJAN 14, 2012
p65
aVSAC @ DAL
p66
aVL
p67
aI18
aI4
aI8
aF0.5
aI0
aI0
aF0.0
aI1
aI2
aF0.5
aI4
aI4
aI8
aI1
aI1
aI0
aI1
aI5
aI9
aI-14
aa(lp68
V0021100193
p69
aVJAN 16, 2012
p70
aVSAC @ MIN
p71
aVL
p72
aI26
aI6
aI9
aF0.667
aI0
aI0
aF0.0
aI0
aI3
aF0.0
aI2
aI2
aI4
aI2
aI0
aI1
aI0
aI2
aI12
aI-9
aa(lp73
V0021100211
p74
aVJAN 18, 2012
p75
aVSAC vs. IND
p76
aVW
p77
aI26
aI4
aI8
aF0.5
aI0
aI0
aF0.0
aI1
aI4
aF0.25
aI6
aI4
aI10
aI1
aI2
aI0
aI1
aI2
aI9
aI-8
aa(lp78
V0021100224
p79
aVJAN 20, 2012
p80
aVSAC @ SAS
p81
aVW
p82
aI30
aI3
aI6
aF0.5
aI0
aI0
aF0.0
aI4
aI6
aF0.667
aI2
aI8
aI10
aI1
aI0
aI1
aI2
aI2
aI10
aI4
aa(lp83
V0021100233
p84
aVJAN 21, 2012
p85
aVSAC @ MEM
p86
aVL
p87
aI26
aI2
aI9
aF0.222
aI0
aI0
aF0.0
aI3
aI4
aF0.75
aI4
aI2
aI6
aI0
aI0
aI1
aI2
aI3
aI7
aI-26
aa(lp88
V0021100250
p89
aVJAN 23, 2012
p90
aVSAC @ POR
p91
aVL
p92
aI25
aI4
aI6
aF0.667
aI0
aI0
aF0.0
aI0
aI0
aF0.0
aI2
aI6
aI8
aI2
aI1
aI0
aI1
aI5
aI8
aI5
aa(lp93
V0021100267
p94
aVJAN 25, 2012
p95
aVSAC vs. DEN
p96
aVL
p97
aI29
aI2
aI3
aF0.667
aI0
aI0
aF0.0
aI5
aI6
aF0.833
aI3
aI2
aI5
aI0
aI0
aI1
aI1
aI2
aI9
aI-16
aa(lp98
V0021100289
p99
aVJAN 28, 2012
p100
aVSAC @ UTA
p101
aVL
p102
aI29
aI7
aI11
aF0.636
aI0
aI0
aF0.0
aI0
aI0
aF0.0
aI2
aI2
aI4
aI0
aI0
aI2
aI0
aI2
aI14
aI-7
aa(lp103
V0021100314
p104
aVJAN 31, 2012
p105
aVSAC @ GSW
p106
aVL
p107
aI31
aI5
aI12
aF0.417
aI0
aI0
aF0.0
aI3
aI3
aF1.0
aI5
aI6
aI11
aI1
aI1
aI0
aI1
aI0
aI13
aI-6
aa(lp108
V0021100329
p109
aVFEB 02, 2012
p110
aVSAC vs. POR
p111
aVW
p112
aI33
aI5
aI7
aF0.714
aI0
aI0
aF0.0
aI3
aI4
aF0.75
aI4
aI8
aI12
aI1
aI0
aI1
aI4
aI3
aI13
aI13
aa(lp113
V0021100353
p114
aVFEB 04, 2012
p115
aVSAC vs. GSW
p116
aVW
p117
aI40
aI7
aI13
aF0.538
aI0
aI1
aF0.0
aI1
aI1
aF1.0
aI7
aI9
aI16
aI1
aI0
aI1
aI3
aI1
aI15
aI14
aa(lp118
V0021100364
p119
aVFEB 06, 2012
p120
aVSAC @ NOH
p121
aVW
p122
aI17
aI2
aI2
aF1.0
aI0
aI0
aF0.0
aI0
aI0
aF0.0
aI1
aI1
aI2
aI0
aI0
aI0
aI1
aI4
aI4
aI-4
aa(lp123
V0021100371
p124
aVFEB 07, 2012
p125
aVSAC @ MIN
p126
aVL
p127
aI25
aI3
aI5
aF0.6
aI0
aI0
aF0.0
aI1
aI2
aF0.5
aI1
aI2
aI3
aI2
aI1
aI0
aI2
aI3
aI7
aI-6
aa(lp128
V0021100387
p129
aVFEB 09, 2012
p130
aVSAC vs. OKC
p131
aVW
p132
aI30
aI4
aI8
aF0.5
aI0
aI0
aF0.0
aI3
aI6
aF0.5
aI3
aI7
aI10
aI3
aI1
aI0
aI1
aI2
aI11
aI-4
aa(lp133
V0021100407
p134
aVFEB 11, 2012
p135
aVSAC vs. PHX
p136
aVL
p137
aI19
aI1
aI6
aF0.167
aI0
aI0
aF0.0
aI0
aI0
aF0.0
aI4
aI2
aI6
aI1
aI0
aI0
aI0
aI3
aI2
aI-10
aa(lp138
V0021100423
p139
aVFEB 14, 2012
p140
aVSAC @ CHI
p141
aVL
p142
aI30
aI3
aI6
aF0.5
aI0
aI0
aF0.0
aI2
aI4
aF0.5
aI6
aI5
aI11
aI2
aI1
aI0
aI0
aI6
aI8
aI8
aa(lp143
V0021100433
p144
aVFEB 15, 2012
p145
aVSAC @ NYK
p146
aVL
p147
aI30
aI0
aI3
aF0.0
aI0
aI1
aF0.0
aI1
aI4
aF0.25
aI0
aI4
aI4
aI1
aI0
aI2
aI1
aI3
aI1
aI-23
aa(lp148
V0021100448
p149
aVFEB 17, 2012
p150
aVSAC @ DET
p151
aVL
p152
aI31
aI6
aI12
aF0.5
aI0
aI0
aF0.0
aI1
aI1
aF1.0
aI0
aI4
aI4
aI1
aI0
aI3
aI1
aI3
aI13
aI1
aa(lp153
V0021100463
p154
aVFEB 19, 2012
p155
aVSAC @ CLE
p156
aVL
p157
aI16
aI1
aI4
aF0.25
aI0
aI0
aF0.0
aI1
aI2
aF0.5
aI3
aI6
aI9
aI0
aI0
aI0
aI0
aI3
aI3
aI5
aa(lp158
V0021100483
p159
aVFEB 21, 2012
p160
aVSAC @ MIA
p161
aVL
p162
aI33
aI7
aI12
aF0.583
aI0
aI0
aF0.0
aI2
aI4
aF0.5
aI4
aI6
aI10
aI1
aI0
aI0
aI2
aI1
aI16
aI4
aa(lp163
V0021100487
p164
aVFEB 22, 2012
p165
aVSAC @ WAS
p166
aVW
p167
aI41
aI2
aI8
aF0.25
aI0
aI0
aF0.0
aI5
aI5
aF1.0
aI3
aI8
aI11
aI1
aI0
aI1
aI1
aI3
aI9
aI11
aa(lp168
V0021100510
p169
aVFEB 28, 2012
p170
aVSAC vs. UTA
p171
aVW
p172
aI36
aI4
aI7
aF0.571
aI0
aI0
aF0.0
aI2
aI3
aF0.667
aI4
aI4
aI8
aI1
aI0
aI3
aI2
aI3
aI10
aI1
aa(lp173
V0021100526
p174
aVMAR 01, 2012
p175
aVSAC vs. LAC
p176
aVL
p177
aI28
aI1
aI1
aF1.0
aI0
aI0
aF0.0
aI2
aI6
aF0.333
aI0
aI1
aI1
aI0
aI1
aI0
aI0
aI3
aI4
aI-4
aa(lp178
V0021100538
p179
aVMAR 02, 2012
p180
aVSAC @ LAL
p181
aVL
p182
aI17
aI1
aI8
aF0.125
aI0
aI0
aF0.0
aI1
aI2
aF0.5
aI2
aI1
aI3
aI0
aI0
aI0
aI1
aI4
aI3
aI-5
aa(lp183
V0021100552
p184
aVMAR 04, 2012
p185
aVSAC @ PHX
p186
aVL
p187
aI15
aI3
aI6
aF0.5
aI0
aI0
aF0.0
aI1
aI2
aF0.5
aI2
aI1
aI3
aI1
aI0
aI1
aI1
aI1
aI7
aI5
aa(lp188
V0021100561
p189
aVMAR 05, 2012
p190
aVSAC @ DEN
p191
aVL
p192
aI31
aI5
aI9
aF0.556
aI0
aI0
aF0.0
aI3
aI3
aF1.0
aI2
aI6
aI8
aI4
aI1
aI0
aI1
aI4
aI13
aI-4
aa(lp193
V0021100580
p194
aVMAR 07, 2012
p195
aVSAC vs. NOH
p196
aVW
p197
aI32
aI3
aI5
aF0.6
aI0
aI0
aF0.0
aI6
aI9
aF0.667
aI2
aI6
aI8
aI1
aI2
aI0
aI4
aI1
aI12
aI4
aa(lp198
V0021100593
p199
aVMAR 09, 2012
p200
aVSAC vs. DAL
p201
aVW
p202
aI19
aI2
aI7
aF0.286
aI0
aI0
aF0.0
aI0
aI0
aF0.0
aI4
aI4
aI8
aI2
aI0
aI0
aI2
aI1
aI4
aI-3
aa(lp203
V0021100609
p204
aVMAR 11, 2012
p205
aVSAC vs. ATL
p206
aVL
p207
aI17
aI2
aI5
aF0.4
aI0
aI0
aF0.0
aI0
aI0
aF0.0
aI2
aI1
aI3
aI0
aI1
aI0
aI0
aI3
aI4
aI-3
aa(lp208
V0021100625
p209
aVMAR 13, 2012
p210
aVSAC vs. GSW
p211
aVL
p212
aI15
aI1
aI4
aF0.25
aI0
aI0
aF0.0
aI0
aI2
aF0.0
aI2
aI7
aI9
aI1
aI0
aI1
aI0
aI1
aI2
aI-6
aa(lp213
V0021100634
p214
aVMAR 14, 2012
p215
aVSAC vs. DET
p216
aVL
p217
aI40
aI10
aI12
aF0.833
aI0
aI0
aF0.0
aI1
aI3
aF0.333
aI5
aI10
aI15
aI4
aI1
aI1
aI2
aI4
aI21
aI-8
aa(lp218
V0021100651
p219
aVMAR 16, 2012
p220
aVSAC vs. BOS
p221
aVW
p222
aI34
aI9
aI11
aF0.818
aI0
aI0
aF0.0
aI3
aI3
aF1.0
aI4
aI11
aI15
aI4
aI1
aI0
aI1
aI2
aI21
aI25
aa(lp223
V0021100665
p224
aVMAR 18, 2012
p225
aVSAC vs. MIN
p226
aVW
p227
aI27
aI5
aI6
aF0.833
aI0
aI0
aF0.0
aI3
aI3
aF1.0
aI2
aI8
aI10
aI2
aI1
aI0
aI2
aI2
aI13
aI8
aa(lp228
V0021100681
p229
aVMAR 20, 2012
p230
aVSAC vs. MEM
p231
aVW
p232
aI41
aI6
aI14
aF0.429
aI0
aI0
aF0.0
aI2
aI3
aF0.667
aI5
aI8
aI13
aI4
aI1
aI1
aI1
aI3
aI14
aI7
aa(lp233
V0021100697
p234
aVMAR 22, 2012
p235
aVSAC vs. UTA
p236
aVL
p237
aI32
aI8
aI15
aF0.533
aI0
aI0
aF0.0
aI3
aI5
aF0.6
aI8
aI7
aI15
aI1
aI2
aI1
aI1
aI1
aI19
aI-9
aa(lp238
V0021100750
p239
aVMAR 28, 2012
p240
aVSAC vs. SAS
p241
aVL
p242
aI37
aI6
aI6
aF1.0
aI0
aI0
aF0.0
aI3
aI4
aF0.75
aI2
aI5
aI7
aI2
aI3
aI3
aI1
aI1
aI15
aI0
aa(lp243
V0021100766
p244
aVMAR 30, 2012
p245
aVSAC @ UTA
p246
aVW
p247
aI26
aI0
aI5
aF0.0
aI0
aI0
aF0.0
aI4
aI4
aF1.0
aI2
aI7
aI9
aI1
aI0
aI1
aI2
aI2
aI4
aI4
aa(lp248
V0021100775
p249
aVMAR 31, 2012
p250
aVSAC vs. NJN
p251
aVL
p252
aI31
aI4
aI8
aF0.5
aI0
aI0
aF0.0
aI2
aI4
aF0.5
aI5
aI5
aI10
aI1
aI1
aI1
aI2
aI4
aI10
aI-3
aa(lp253
V0021100789
p254
aVAPR 02, 2012
p255
aVSAC vs. MIN
p256
aVW
p257
aI21
aI4
aI6
aF0.667
aI0
aI0
aF0.0
aI1
aI2
aF0.5
aI0
aI1
aI1
aI0
aI1
aI1
aI1
aI1
aI9
aI-8
aa(lp258
V0021100797
p259
aVAPR 03, 2012
p260
aVSAC vs. PHX
p261
aVL
p262
aI17
aI1
aI4
aF0.25
aI0
aI0
aF0.0
aI0
aI0
aF0.0
aI0
aI4
aI4
aI0
aI0
aI1
aI0
aI4
aI2
aI1
aa(lp263
V0021100814
p264
aVAPR 05, 2012
p265
aVSAC vs. LAC
p266
aVL
p267
aI38
aI6
aI11
aF0.545
aI0
aI0
aF0.0
aI3
aI4
aF0.75
aI8
aI8
aI16
aI1
aI0
aI2
aI1
aI2
aI15
aI6
aa(lp268
V0021100833
p269
aVAPR 07, 2012
p270
aVSAC @ LAC
p271
aVL
p272
aI15
aI0
aI1
aF0.0
aI0
aI0
aF0.0
aI0
aI0
aF0.0
aI0
aI1
aI1
aI0
aI0
aI0
aI0
aI5
aI0
aI-11
aa(lp273
V0021100841
p274
aVAPR 08, 2012
p275
aVSAC vs. HOU
p276
aVL
p277
aI21
aI2
aI3
aF0.667
aI0
aI0
aF0.0
aI0
aI0
aF0.0
aI4
aI2
aI6
aI1
aI1
aI0
aI1
aI0
aI4
aI-17
aa(lp278
V0021100856
p279
aVAPR 10, 2012
p280
aVSAC @ DAL
p281
aVL
p282
aI25
aI2
aI5
aF0.4
aI0
aI0
aF0.0
aI4
aI7
aF0.571
aI2
aI3
aI5
aI1
aI0
aI2
aI0
aI5
aI8
aI-5
aa(lp283
V0021100863
p284
aVAPR 11, 2012
p285
aVSAC @ NOH
p286
aVL
p287
aI32
aI8
aI12
aF0.667
aI0
aI0
aF0.0
aI2
aI3
aF0.667
aI3
aI4
aI7
aI1
aI1
aI1
aI1
aI4
aI18
aI1
aa(lp288
V0021100883
p289
aVAPR 13, 2012
p290
aVSAC @ OKC
p291
aVL
p292
aI27
aI3
aI7
aF0.429
aI0
aI0
aF0.0
aI2
aI3
aF0.667
aI2
aI5
aI7
aI2
aI1
aI0
aI4
aI5
aI8
aI-18
aa(lp293
V0021100899
p294
aVAPR 15, 2012
p295
aVSAC vs. POR
p296
aVW
p297
aI27
aI1
aI2
aF0.5
aI0
aI0
aF0.0
aI1
aI2
aF0.5
aI2
aI3
aI5
aI1
aI2
aI0
aI0
aI2
aI3
aI2
aa(lp298
V0021100929
p299
aVAPR 18, 2012
p300
aVSAC vs. SAS
p301
aVL
p302
aI31
aI4
aI8
aF0.5
aI0
aI0
aF0.0
aI2
aI2
aF1.0
aI2
aI4
aI6
aI1
aI1
aI2
aI2
aI2
aI10
aI-10
aa(lp303
V0021100942
p304
aVAPR 20, 2012
p305
aVSAC vs. OKC
p306
aVL
p307
aI28
aI5
aI12
aF0.417
aI0
aI0
aF0.0
aI3
aI4
aF0.75
aI3
aI5
aI8
aI0
aI0
aI2
aI2
aI3
aI13
aI9
aa(lp308
V0021100953
p309
aVAPR 22, 2012
p310
aVSAC @ CHA
p311
aVW
p312
aI37
aI6
aI8
aF0.75
aI0
aI0
aF0.0
aI2
aI5
aF0.4
aI2
aI9
aI11
aI7
aI5
aI1
aI1
aI1
aI14
aI28
aa(lp313
V0021100968
p314
aVAPR 24, 2012
p315
aVSAC @ OKC
p316
aVL
p317
aI40
aI9
aI11
aF0.818
aI0
aI0
aF0.0
aI4
aI6
aF0.667
aI1
aI5
aI6
aI1
aI1
aI1
aI0
aI0
aI22
aI-5
aa(lp318
V0021100989
p319
aVAPR 26, 2012
p320
aVSAC vs. LAL
p321
aVW
p322
aI36
aI7
aI11
aF0.636
aI0
aI0
aF0.0
aI3
aI4
aF0.75
aI3
aI7
aI10
aI3
aI2
aI2
aI0
aI0
aI17
aI22
aasS'name'
p323
VJason Thompson
p324
sS'weight'
p325
V250
p326
sS'age'
p327
I25
sS'experience'
p328
I3
sS'height'
p329
V6-11
p330
sS'position'
p331
VForward-Center
p332
s.