(dp0
S'stats'
p1
(lp2
(lp3
V0021100010
p4
aVDEC 26, 2011
p5
aVIND vs. DET
p6
aVW
p7
aI24
aI2
aI7
aF0.286
aI0
aI4
aF0.0
aI0
aI0
aF0.0
aI0
aI1
aI1
aI4
aI2
aI0
aI1
aI3
aI4
aI-2
aa(lp8
V0021100023
p9
aVDEC 28, 2011
p10
aVIND @ TOR
p11
aVW
p12
aI19
aI0
aI5
aF0.0
aI0
aI2
aF0.0
aI3
aI3
aF1.0
aI1
aI1
aI2
aI2
aI0
aI0
aI0
aI0
aI3
aI-8
aa(lp13
V0021100040
p14
aVDEC 30, 2011
p15
aVIND vs. CLE
p16
aVW
p17
aI34
aI6
aI15
aF0.4
aI0
aI2
aF0.0
aI3
aI4
aF0.75
aI2
aI3
aI5
aI2
aI4
aI1
aI1
aI3
aI15
aI-8
aa(lp18
V0021100051
p19
aVDEC 31, 2011
p20
aVIND @ DET
p21
aVL
p22
aI29
aI7
aI11
aF0.636
aI1
aI3
aF0.333
aI1
aI2
aF0.5
aI0
aI5
aI5
aI1
aI0
aI0
aI1
aI3
aI16
aI-4
aa(lp23
V0021100068
p24
aVJAN 02, 2012
p25
aVIND @ NJN
p26
aVW
p27
aI20
aI3
aI5
aF0.6
aI2
aI2
aF1.0
aI0
aI0
aF0.0
aI0
aI1
aI1
aI2
aI0
aI0
aI1
aI4
aI8
aI13
aa(lp28
V0021100086
p29
aVJAN 04, 2012
p30
aVIND @ MIA
p31
aVL
p32
aI22
aI1
aI5
aF0.2
aI1
aI3
aF0.333
aI6
aI7
aF0.857
aI0
aI1
aI1
aI1
aI0
aI0
aI3
aI1
aI9
aI-29
aa(lp33
V0021100102
p34
aVJAN 06, 2012
p35
aVIND @ BOS
p36
aVW
p37
aI25
aI5
aI10
aF0.5
aI2
aI3
aF0.667
aI1
aI2
aF0.5
aI1
aI5
aI6
aI0
aI2
aI0
aI1
aI3
aI13
aI16
aa(lp38
V0021100111
p39
aVJAN 07, 2012
p40
aVIND vs. CHA
p41
aVW
p42
aI24
aI6
aI8
aF0.75
aI1
aI1
aF1.0
aI0
aI0
aF0.0
aI1
aI3
aI4
aI2
aI1
aI0
aI0
aI2
aI13
aI11
aa(lp43
V0021100144
p44
aVJAN 11, 2012
p45
aVIND vs. ATL
p46
aVW
p47
aI24
aI2
aI4
aF0.5
aI0
aI1
aF0.0
aI0
aI0
aF0.0
aI1
aI0
aI1
aI1
aI2
aI0
aI1
aI1
aI4
aI6
aa(lp48
V0021100159
p49
aVJAN 13, 2012
p50
aVIND @ TOR
p51
aVW
p52
aI31
aI7
aI11
aF0.636
aI2
aI4
aF0.5
aI6
aI6
aF1.0
aI0
aI2
aI2
aI1
aI5
aI1
aI1
aI2
aI22
aI3
aa(lp53
V0021100173
p54
aVJAN 14, 2012
p55
aVIND vs. BOS
p56
aVW
p57
aI25
aI2
aI5
aF0.4
aI2
aI3
aF0.667
aI2
aI2
aF1.0
aI1
aI2
aI3
aI2
aI3
aI1
aI2
aI3
aI8
aI4
aa(lp58
V0021100211
p59
aVJAN 18, 2012
p60
aVIND @ SAC
p61
aVL
p62
aI24
aI3
aI6
aF0.5
aI0
aI2
aF0.0
aI2
aI2
aF1.0
aI1
aI4
aI5
aI0
aI0
aI0
aI2
aI2
aI8
aI-13
aa(lp63
V0021100226
p64
aVJAN 20, 2012
p65
aVIND @ GSW
p66
aVW
p67
aI31
aI5
aI9
aF0.556
aI3
aI6
aF0.5
aI1
aI1
aF1.0
aI1
aI2
aI3
aI1
aI2
aI2
aI2
aI1
aI14
aI3
aa(lp68
V0021100241
p69
aVJAN 22, 2012
p70
aVIND @ LAL
p71
aVW
p72
aI19
aI4
aI6
aF0.667
aI3
aI4
aF0.75
aI0
aI0
aF0.0
aI1
aI2
aI3
aI1
aI0
aI0
aI1
aI4
aI11
aI-10
aa(lp73
V0021100253
p74
aVJAN 24, 2012
p75
aVIND vs. ORL
p76
aVL
p77
aI21
aI1
aI4
aF0.25
aI0
aI0
aF0.0
aI0
aI0
aF0.0
aI0
aI1
aI1
aI0
aI0
aI1
aI0
aI1
aI2
aI-19
aa(lp78
V0021100261
p79
aVJAN 25, 2012
p80
aVIND @ CHI
p81
aVW
p82
aI25
aI1
aI5
aF0.2
aI0
aI2
aF0.0
aI0
aI0
aF0.0
aI0
aI0
aI0
aI2
aI1
aI0
aI0
aI3
aI2
aI0
aa(lp83
V0021100273
p84
aVJAN 27, 2012
p85
aVIND @ BOS
p86
aVL
p87
aI22
aI1
aI8
aF0.125
aI0
aI4
aF0.0
aI4
aI4
aF1.0
aI0
aI2
aI2
aI2
aI0
aI0
aI1
aI0
aI6
aI-18
aa(lp88
V0021100294
p89
aVJAN 29, 2012
p90
aVIND @ ORL
p91
aVW
p92
aI25
aI6
aI9
aF0.667
aI2
aI3
aF0.667
aI2
aI3
aF0.667
aI1
aI5
aI6
aI4
aI1
aI0
aI0
aI2
aI16
aI16
aa(lp93
V0021100310
p94
aVJAN 31, 2012
p95
aVIND vs. NJN
p96
aVW
p97
aI24
aI1
aI5
aF0.2
aI0
aI1
aF0.0
aI0
aI2
aF0.0
aI0
aI2
aI2
aI3
aI0
aI0
aI0
aI3
aI2
aI13
aa(lp98
V0021100488
p99
aVFEB 22, 2012
p100
aVIND @ CHA
p101
aVW
p102
aI20
aI2
aI7
aF0.286
aI0
aI1
aF0.0
aI0
aI0
aF0.0
aI2
aI2
aI4
aI3
aI0
aI0
aI2
aI2
aI4
aI23
aa(lp103
V0021100504
p104
aVFEB 28, 2012
p105
aVIND vs. GSW
p106
aVW
p107
aI22
aI1
aI6
aF0.167
aI0
aI2
aF0.0
aI0
aI2
aF0.0
aI0
aI0
aI0
aI2
aI0
aI0
aI1
aI2
aI2
aI-11
aa(lp108
V0021100543
p109
aVMAR 03, 2012
p110
aVIND @ NOH
p111
aVW
p112
aI21
aI3
aI5
aF0.6
aI1
aI2
aF0.5
aI3
aI3
aF1.0
aI0
aI4
aI4
aI3
aI1
aI0
aI1
aI2
aI10
aI17
aa(lp113
V0021100557
p114
aVMAR 05, 2012
p115
aVIND @ CHI
p116
aVL
p117
aI25
aI6
aI12
aF0.5
aI2
aI5
aF0.4
aI3
aI3
aF1.0
aI1
aI0
aI1
aI2
aI1
aI0
aI1
aI3
aI17
aI-10
aa(lp118
V0021100564
p119
aVMAR 06, 2012
p120
aVIND vs. ATL
p121
aVL
p122
aI26
aI5
aI10
aF0.5
aI1
aI3
aF0.333
aI4
aI4
aF1.0
aI0
aI6
aI6
aI0
aI1
aI0
aI1
aI2
aI15
aI-6
aa(lp123
V0021100620
p124
aVMAR 13, 2012
p125
aVIND vs. POR
p126
aVW
p127
aI24
aI5
aI9
aF0.556
aI1
aI2
aF0.5
aI0
aI4
aF0.0
aI1
aI1
aI2
aI3
aI1
aI0
aI1
aI1
aI11
aI16
aa(lp128
V0021100626
p129
aVMAR 14, 2012
p130
aVIND vs. PHI
p131
aVW
p132
aI29
aI7
aI10
aF0.7
aI3
aI3
aF1.0
aI0
aI0
aF0.0
aI1
aI6
aI7
aI4
aI2
aI0
aI1
aI0
aI17
aI14
aa(lp133
V0021100645
p134
aVMAR 16, 2012
p135
aVIND @ NYK
p136
aVL
p137
aI22
aI3
aI6
aF0.5
aI1
aI2
aF0.5
aI5
aI6
aF0.833
aI1
aI2
aI3
aI4
aI1
aI0
aI1
aI1
aI12
aI-18
aa(lp138
V0021100656
p139
aVMAR 17, 2012
p140
aVIND vs. NYK
p141
aVL
p142
aI28
aI1
aI7
aF0.143
aI1
aI5
aF0.2
aI1
aI2
aF0.5
aI1
aI2
aI3
aI1
aI0
aI0
aI0
aI2
aI4
aI-17
aa(lp143
V0021100676
p144
aVMAR 20, 2012
p145
aVIND vs. LAC
p146
aVW
p147
aI28
aI6
aI7
aF0.857
aI3
aI3
aF1.0
aI0
aI0
aF0.0
aI0
aI4
aI4
aI6
aI0
aI0
aI0
aI2
aI15
aI14
aa(lp148
V0021100693
p149
aVMAR 22, 2012
p150
aVIND @ WAS
p151
aVW
p152
aI18
aI0
aI5
aF0.0
aI0
aI2
aF0.0
aI0
aI0
aF0.0
aI1
aI0
aI1
aI0
aI0
aI2
aI1
aI2
aI0
aI-3
aa(lp153
V0021100702
p154
aVMAR 23, 2012
p155
aVIND vs. PHX
p156
aVL
p157
aI22
aI3
aI7
aF0.429
aI2
aI4
aF0.5
aI0
aI0
aF0.0
aI0
aI3
aI3
aI2
aI0
aI0
aI2
aI6
aI8
aI-3
aa(lp158
V0021100717
p159
aVMAR 24, 2012
p160
aVIND @ MIL
p161
aVW
p162
aI28
aI7
aI9
aF0.778
aI3
aI4
aF0.75
aI7
aI8
aF0.875
aI0
aI3
aI3
aI5
aI1
aI0
aI2
aI1
aI24
aI13
aa(lp163
V0021100730
p164
aVMAR 26, 2012
p165
aVIND vs. MIA
p166
aVW
p167
aI15
aI0
aI2
aF0.0
aI0
aI0
aF0.0
aI0
aI0
aF0.0
aI0
aI1
aI1
aI3
aI1
aI0
aI0
aI2
aI0
aI-3
aa(lp168
V0021100748
p169
aVMAR 28, 2012
p170
aVIND @ NJN
p171
aVL
p172
aI21
aI0
aI4
aF0.0
aI0
aI3
aF0.0
aI0
aI0
aF0.0
aI0
aI3
aI3
aI3
aI1
aI0
aI2
aI2
aI0
aI-21
aa(lp173
V0021100753
p174
aVMAR 29, 2012
p175
aVIND vs. WAS
p176
aVW
p177
aI20
aI4
aI7
aF0.571
aI1
aI3
aF0.333
aI5
aI5
aF1.0
aI0
aI0
aI0
aI1
aI1
aI1
aI1
aI1
aI14
aI4
aa(lp178
V0021100774
p179
aVMAR 31, 2012
p180
aVIND @ SAS
p181
aVL
p182
aI30
aI3
aI8
aF0.375
aI1
aI3
aF0.333
aI2
aI2
aF1.0
aI0
aI7
aI7
aI6
aI0
aI0
aI2
aI2
aI9
aI-8
aa(lp183
V0021100781
p184
aVAPR 01, 2012
p185
aVIND @ HOU
p186
aVW
p187
aI19
aI1
aI2
aF0.5
aI0
aI0
aF0.0
aI0
aI0
aF0.0
aI0
aI4
aI4
aI1
aI0
aI0
aI2
aI1
aI2
aI-10
aa(lp188
V0021100793
p189
aVAPR 03, 2012
p190
aVIND vs. NYK
p191
aVW
p192
aI28
aI3
aI7
aF0.429
aI0
aI4
aF0.0
aI0
aI0
aF0.0
aI0
aI3
aI3
aI6
aI2
aI0
aI1
aI2
aI6
aI14
aa(lp193
V0021100800
p194
aVAPR 04, 2012
p195
aVIND @ WAS
p196
aVW
p197
aI20
aI1
aI7
aF0.143
aI0
aI3
aF0.0
aI0
aI0
aF0.0
aI0
aI2
aI2
aI5
aI0
aI1
aI2
aI0
aI2
aI7
aa(lp198
V0021100815
p199
aVAPR 06, 2012
p200
aVIND vs. OKC
p201
aVW
p202
aI28
aI2
aI5
aF0.4
aI2
aI4
aF0.5
aI2
aI4
aF0.5
aI0
aI1
aI1
aI4
aI1
aI0
aI2
aI2
aI8
aI-3
aa(lp203
V0021100827
p204
aVAPR 07, 2012
p205
aVIND vs. BOS
p206
aVL
p207
aI19
aI0
aI6
aF0.0
aI0
aI3
aF0.0
aI0
aI0
aF0.0
aI1
aI2
aI3
aI2
aI0
aI2
aI0
aI1
aI0
aI-7
aa(lp208
V0021100844
p209
aVAPR 09, 2012
p210
aVIND vs. TOR
p211
aVW
p212
aI36
aI5
aI9
aF0.556
aI1
aI3
aF0.333
aI7
aI7
aF1.0
aI1
aI6
aI7
aI4
aI1
aI0
aI0
aI3
aI18
aI1
aa(lp213
V0021100859
p214
aVAPR 11, 2012
p215
aVIND @ CLE
p216
aVW
p217
aI41
aI7
aI14
aF0.5
aI2
aI5
aF0.4
aI1
aI4
aF0.25
aI0
aI3
aI3
aI5
aI0
aI2
aI1
aI3
aI17
aI9
aa(lp218
V0021100877
p219
aVAPR 13, 2012
p220
aVIND vs. CLE
p221
aVW
p222
aI26
aI4
aI11
aF0.364
aI2
aI7
aF0.286
aI5
aI5
aF1.0
aI1
aI3
aI4
aI7
aI0
aI0
aI1
aI2
aI15
aI19
aa(lp223
V0021100891
p224
aVAPR 14, 2012
p225
aVIND @ MIL
p226
aVW
p227
aI32
aI4
aI11
aF0.364
aI2
aI2
aF1.0
aI3
aI3
aF1.0
aI1
aI0
aI1
aI3
aI0
aI0
aI1
aI3
aI13
aI17
aa(lp228
V0021100905
p229
aVAPR 16, 2012
p230
aVIND vs. MIN
p231
aVW
p232
aI22
aI3
aI8
aF0.375
aI1
aI5
aF0.2
aI4
aI4
aF1.0
aI2
aI1
aI3
aI4
aI1
aI0
aI1
aI2
aI11
aI36
aa(lp233
V0021100913
p234
aVAPR 17, 2012
p235
aVIND @ PHI
p236
aVW
p237
aI37
aI4
aI11
aF0.364
aI2
aI5
aF0.4
aI2
aI2
aF1.0
aI2
aI2
aI4
aI7
aI1
aI1
aI1
aI1
aI12
aI0
aa(lp238
V0021100932
p239
aVAPR 19, 2012
p240
aVIND vs. MIL
p241
aVW
p242
aI38
aI8
aI12
aF0.667
aI2
aI3
aF0.667
aI4
aI7
aF0.571
aI1
aI4
aI5
aI8
aI1
aI0
aI1
aI2
aI22
aI23
aa(lp243
V0021100944
p244
aVAPR 21, 2012
p245
aVIND vs. PHI
p246
aVL
p247
aI37
aI4
aI11
aF0.364
aI0
aI4
aF0.0
aI2
aI4
aF0.5
aI2
aI1
aI3
aI5
aI1
aI1
aI1
aI2
aI10
aI2
aa(lp248
V0021100973
p249
aVAPR 25, 2012
p250
aVIND vs. CHI
p251
aVL
p252
aI24
aI3
aI7
aF0.429
aI1
aI2
aF0.5
aI0
aI0
aF0.0
aI1
aI2
aI3
aI5
aI0
aI1
aI1
aI0
aI7
aI-6
aasS'name'
p253
VGeorge Hill
p254
sS'weight'
p255
V188
p256
sS'age'
p257
I25
sS'experience'
p258
I3
sS'height'
p259
V6-3
p260
sS'position'
p261
VGuard
p262
s.