(dp0
S'age'
p1
I26
sS'stats'
p2
(lp3
(lp4
V0021100023
p5
aVDEC 28, 2011
p6
aVTOR vs. IND
p7
aVL
p8
aI3
aI0
aI3
aF0.0
aI0
aI2
aF0.0
aI0
aI0
aF0.0
aI0
aI0
aI0
aI0
aI1
aI0
aI1
aI0
aI0
aI-6
aa(lp9
V0021100047
p10
aVDEC 30, 2011
p11
aVTOR @ DAL
p12
aVL
p13
aI4
aI0
aI1
aF0.0
aI0
aI0
aF0.0
aI0
aI0
aF0.0
aI1
aI1
aI2
aI1
aI1
aI0
aI0
aI0
aI0
aI4
aa(lp14
V0021100058
p15
aVJAN 01, 2012
p16
aVTOR @ ORL
p17
aVL
p18
aI1
aI0
aI0
aF0.0
aI0
aI0
aF0.0
aI0
aI0
aF0.0
aI0
aI0
aI0
aI0
aI0
aI0
aI0
aI0
aI0
aI0
aa(lp19
V0021100082
p20
aVJAN 04, 2012
p21
aVTOR vs. CLE
p22
aVW
p23
aI2
aI1
aI2
aF0.5
aI0
aI0
aF0.0
aI0
aI0
aF0.0
aI0
aI0
aI0
aI1
aI0
aI0
aI0
aI0
aI2
aI-2
aa(lp24
V0021100098
p25
aVJAN 06, 2012
p26
aVTOR vs. NJN
p27
aVL
p28
aI8
aI1
aI5
aF0.2
aI0
aI1
aF0.0
aI0
aI0
aF0.0
aI1
aI2
aI3
aI0
aI0
aI0
aI0
aI2
aI2
aI1
aa(lp29
V0021100114
p30
aVJAN 07, 2012
p31
aVTOR @ PHI
p32
aVL
p33
aI8
aI0
aI3
aF0.0
aI0
aI0
aF0.0
aI0
aI0
aF0.0
aI0
aI0
aI0
aI0
aI0
aI0
aI0
aI0
aI0
aI-5
aa(lp34
V0021100133
p35
aVJAN 10, 2012
p36
aVTOR @ WAS
p37
aVL
p38
aI12
aI1
aI2
aF0.5
aI0
aI0
aF0.0
aI0
aI0
aF0.0
aI1
aI0
aI1
aI0
aI1
aI0
aI1
aI2
aI2
aI4
aa(lp39
V0021100159
p40
aVJAN 13, 2012
p41
aVTOR vs. IND
p42
aVL
p43
aI7
aI2
aI2
aF1.0
aI0
aI0
aF0.0
aI3
aI3
aF1.0
aI0
aI2
aI2
aI1
aI0
aI0
aI1
aI1
aI7
aI-1
aa(lp44
V0021100174
p45
aVJAN 14, 2012
p46
aVTOR @ CHI
p47
aVL
p48
aI16
aI2
aI6
aF0.333
aI1
aI2
aF0.5
aI0
aI0
aF0.0
aI2
aI6
aI8
aI5
aI1
aI0
aI1
aI1
aI5
aI-1
aa(lp49
V0021100189
p50
aVJAN 16, 2012
p51
aVTOR @ ATL
p52
aVL
p53
aI14
aI1
aI8
aF0.125
aI0
aI1
aF0.0
aI3
aI4
aF0.75
aI1
aI0
aI1
aI3
aI0
aI0
aI0
aI2
aI5
aI-8
aa(lp54
V0021100205
p55
aVJAN 18, 2012
p56
aVTOR @ BOS
p57
aVL
p58
aI19
aI5
aI6
aF0.833
aI1
aI1
aF1.0
aI7
aI8
aF0.875
aI1
aI0
aI1
aI1
aI1
aI1
aI0
aI2
aI18
aI7
aa(lp59
V0021100216
p60
aVJAN 20, 2012
p61
aVTOR vs. POR
p62
aVL
p63
aI11
aI1
aI5
aF0.2
aI0
aI1
aF0.0
aI1
aI2
aF0.5
aI0
aI3
aI3
aI0
aI1
aI0
aI3
aI1
aI3
aI-4
aa(lp64
V0021100238
p65
aVJAN 22, 2012
p66
aVTOR @ LAC
p67
aVL
p68
aI8
aI2
aI4
aF0.5
aI0
aI2
aF0.0
aI3
aI4
aF0.75
aI0
aI0
aI0
aI1
aI1
aI0
aI2
aI1
aI7
aI3
aa(lp69
V0021100255
p70
aVJAN 24, 2012
p71
aVTOR @ PHX
p72
aVW
p73
aI3
aI0
aI0
aF0.0
aI0
aI0
aF0.0
aI0
aI0
aF0.0
aI0
aI0
aI0
aI1
aI0
aI0
aI0
aI0
aI0
aI4
aa(lp74
V0021100266
p75
aVJAN 25, 2012
p76
aVTOR @ UTA
p77
aVW
p78
aI1
aI0
aI0
aF0.0
aI0
aI0
aF0.0
aI0
aI0
aF0.0
aI0
aI1
aI1
aI0
aI0
aI0
aI1
aI0
aI0
aI0
aa(lp79
V0021100282
p80
aVJAN 27, 2012
p81
aVTOR @ DEN
p82
aVL
p83
aI5
aI0
aI3
aF0.0
aI0
aI2
aF0.0
aI0
aI0
aF0.0
aI0
aI0
aI0
aI0
aI0
aI0
aI1
aI0
aI0
aI-1
aa(lp84
V0021100293
p85
aVJAN 29, 2012
p86
aVTOR @ NJN
p87
aVW
p88
aI22
aI2
aI5
aF0.4
aI1
aI3
aF0.333
aI0
aI0
aF0.0
aI0
aI3
aI3
aI1
aI1
aI0
aI2
aI3
aI5
aI8
aa(lp89
V0021100308
p90
aVJAN 31, 2012
p91
aVTOR vs. ATL
p92
aVL
p93
aI16
aI2
aI6
aF0.333
aI0
aI1
aF0.0
aI6
aI6
aF1.0
aI0
aI2
aI2
aI1
aI1
aI0
aI1
aI3
aI10
aI-7
aa(lp94
V0021100317
p95
aVFEB 01, 2012
p96
aVTOR @ BOS
p97
aVL
p98
aI15
aI2
aI8
aF0.25
aI1
aI2
aF0.5
aI1
aI2
aF0.5
aI1
aI2
aI3
aI1
aI0
aI0
aI1
aI0
aI6
aI-6
aa(lp99
V0021100332
p100
aVFEB 03, 2012
p101
aVTOR vs. WAS
p102
aVW
p103
aI10
aI0
aI2
aF0.0
aI0
aI1
aF0.0
aI0
aI0
aF0.0
aI2
aI4
aI6
aI2
aI0
aI0
aI1
aI0
aI0
aI-3
aa(lp104
V0021100356
p105
aVFEB 05, 2012
p106
aVTOR @ MIA
p107
aVL
p108
aI5
aI1
aI1
aF1.0
aI0
aI0
aF0.0
aI0
aI0
aF0.0
aI0
aI1
aI1
aI0
aI0
aI0
aI1
aI1
aI2
aI-5
aa(lp109
V0021100358
p110
aVFEB 06, 2012
p111
aVTOR @ WAS
p112
aVL
p113
aI4
aI0
aI0
aF0.0
aI0
aI0
aF0.0
aI0
aI0
aF0.0
aI0
aI0
aI0
aI0
aI0
aI0
aI2
aI0
aI0
aI6
aa(lp114
V0021100429
p115
aVFEB 15, 2012
p116
aVTOR vs. SAS
p117
aVL
p118
aI14
aI2
aI8
aF0.25
aI0
aI2
aF0.0
aI2
aI2
aF1.0
aI0
aI1
aI1
aI1
aI0
aI1
aI2
aI1
aI6
aI-7
aa(lp119
V0021100445
p120
aVFEB 17, 2012
p121
aVTOR vs. CHA
p122
aVL
p123
aI3
aI0
aI2
aF0.0
aI0
aI2
aF0.0
aI0
aI0
aF0.0
aI0
aI0
aI0
aI0
aI0
aI0
aI0
aI0
aI0
aI-9
aa(lp124
V0021100596
p125
aVMAR 10, 2012
p126
aVTOR @ DET
p127
aVL
p128
aI16
aI4
aI6
aF0.667
aI2
aI3
aF0.667
aI2
aI3
aF0.667
aI0
aI2
aI2
aI2
aI1
aI0
aI1
aI2
aI12
aI9
aa(lp129
V0021100605
p130
aVMAR 11, 2012
p131
aVTOR vs. MIL
p132
aVL
p133
aI19
aI2
aI7
aF0.286
aI0
aI0
aF0.0
aI3
aI4
aF0.75
aI0
aI1
aI1
aI2
aI0
aI0
aI1
aI0
aI7
aI-4
aa(lp134
V0021100619
p135
aVMAR 13, 2012
p136
aVTOR @ CLE
p137
aVW
p138
aI11
aI2
aI3
aF0.667
aI0
aI0
aF0.0
aI0
aI0
aF0.0
aI0
aI3
aI3
aI1
aI2
aI0
aI0
aI1
aI4
aI2
aa(lp139
V0021100627
p140
aVMAR 14, 2012
p141
aVTOR @ NJN
p142
aVL
p143
aI9
aI0
aI3
aF0.0
aI0
aI2
aF0.0
aI3
aI4
aF0.75
aI0
aI0
aI0
aI1
aI0
aI0
aI2
aI0
aI3
aI-8
aa(lp144
V0021100648
p145
aVMAR 16, 2012
p146
aVTOR @ MEM
p147
aVW
p148
aI22
aI6
aI9
aF0.667
aI1
aI1
aF1.0
aI7
aI11
aF0.636
aI1
aI3
aI4
aI2
aI0
aI0
aI1
aI1
aI20
aI8
aa(lp149
V0021100655
p150
aVMAR 17, 2012
p151
aVTOR @ CHA
p152
aVL
p153
aI27
aI4
aI10
aF0.4
aI1
aI5
aF0.2
aI0
aI0
aF0.0
aI1
aI2
aI3
aI1
aI1
aI0
aI2
aI4
aI9
aI4
aa(lp154
V0021100677
p155
aVMAR 20, 2012
p156
aVTOR @ NYK
p157
aVL
p158
aI15
aI2
aI5
aF0.4
aI0
aI2
aF0.0
aI2
aI2
aF1.0
aI0
aI0
aI0
aI0
aI0
aI0
aI2
aI1
aI6
aI5
aa(lp159
V0021100683
p160
aVMAR 21, 2012
p161
aVTOR vs. CHI
p162
aVL
p163
aI19
aI1
aI4
aF0.25
aI0
aI0
aF0.0
aI2
aI2
aF1.0
aI0
aI1
aI1
aI5
aI3
aI0
aI0
aI0
aI4
aI3
aa(lp164
V0021100699
p165
aVMAR 23, 2012
p166
aVTOR vs. NYK
p167
aVW
p168
aI20
aI8
aI12
aF0.667
aI0
aI2
aF0.0
aI3
aI4
aF0.75
aI4
aI2
aI6
aI2
aI1
aI0
aI0
aI2
aI19
aI-3
aa(lp169
V0021100714
p170
aVMAR 24, 2012
p171
aVTOR @ CHI
p172
aVL
p173
aI47
aI6
aI16
aF0.375
aI0
aI1
aF0.0
aI0
aI2
aF0.0
aI5
aI8
aI13
aI2
aI1
aI1
aI1
aI4
aI12
aI7
aa(lp174
V0021100727
p175
aVMAR 26, 2012
p176
aVTOR vs. ORL
p177
aVL
p178
aI33
aI7
aI14
aF0.5
aI4
aI7
aF0.571
aI3
aI4
aF0.75
aI0
aI2
aI2
aI0
aI0
aI0
aI2
aI3
aI21
aI-24
aa(lp179
V0021100743
p180
aVMAR 28, 2012
p181
aVTOR vs. DEN
p182
aVW
p183
aI19
aI4
aI8
aF0.5
aI3
aI4
aF0.75
aI0
aI0
aF0.0
aI3
aI7
aI10
aI2
aI0
aI0
aI1
aI1
aI11
aI1
aa(lp184
V0021100757
p185
aVMAR 30, 2012
p186
aVTOR vs. MIA
p187
aVL
p188
aI19
aI3
aI5
aF0.6
aI1
aI2
aF0.5
aI1
aI1
aF1.0
aI0
aI1
aI1
aI0
aI0
aI0
aI0
aI1
aI8
aI-2
aa(lp189
V0021100779
p190
aVAPR 01, 2012
p191
aVTOR vs. WAS
p192
aVW
p193
aI24
aI3
aI6
aF0.5
aI0
aI0
aF0.0
aI3
aI3
aF1.0
aI1
aI2
aI3
aI0
aI0
aI0
aI1
aI3
aI9
aI12
aa(lp194
V0021100840
p195
aVAPR 08, 2012
p196
aVTOR @ OKC
p197
aVL
p198
aI15
aI3
aI5
aF0.6
aI2
aI3
aF0.667
aI0
aI2
aF0.0
aI0
aI1
aI1
aI0
aI1
aI0
aI1
aI0
aI8
aI-6
aa(lp199
V0021100844
p200
aVAPR 09, 2012
p201
aVTOR @ IND
p202
aVL
p203
aI21
aI4
aI10
aF0.4
aI1
aI4
aF0.25
aI0
aI0
aF0.0
aI0
aI0
aI0
aI1
aI0
aI1
aI1
aI4
aI9
aI-3
aa(lp204
V0021100858
p205
aVAPR 11, 2012
p206
aVTOR vs. PHI
p207
aVL
p208
aI19
aI4
aI10
aF0.4
aI2
aI4
aF0.5
aI0
aI0
aF0.0
aI0
aI0
aI0
aI0
aI0
aI0
aI2
aI0
aI10
aI-10
aa(lp209
V0021100874
p210
aVAPR 13, 2012
p211
aVTOR vs. BOS
p212
aVW
p213
aI5
aI0
aI1
aF0.0
aI0
aI0
aF0.0
aI1
aI2
aF0.5
aI0
aI0
aI0
aI0
aI0
aI0
aI1
aI1
aI1
aI-4
aa(lp214
V0021100896
p215
aVAPR 15, 2012
p216
aVTOR @ ATL
p217
aVW
p218
aI2
aI0
aI0
aF0.0
aI0
aI0
aF0.0
aI0
aI0
aF0.0
aI0
aI0
aI0
aI0
aI0
aI0
aI0
aI0
aI0
aI-3
aa(lp219
V0021100902
p220
aVAPR 16, 2012
p221
aVTOR vs. ATL
p222
aVL
p223
aI23
aI3
aI12
aF0.25
aI0
aI3
aF0.0
aI3
aI4
aF0.75
aI0
aI0
aI0
aI0
aI2
aI0
aI4
aI3
aI9
aI-13
aa(lp224
V0021100923
p225
aVAPR 18, 2012
p226
aVTOR @ MIA
p227
aVL
p228
aI29
aI4
aI10
aF0.4
aI0
aI4
aF0.0
aI1
aI2
aF0.5
aI1
aI1
aI2
aI1
aI0
aI0
aI2
aI1
aI9
aI-19
aa(lp229
V0021100955
p230
aVAPR 22, 2012
p231
aVTOR @ DET
p232
aVL
p233
aI17
aI3
aI3
aF1.0
aI1
aI1
aF1.0
aI3
aI4
aF0.75
aI0
aI3
aI3
aI4
aI1
aI0
aI5
aI2
aI10
aI5
aa(lp234
V0021100963
p235
aVAPR 23, 2012
p236
aVTOR @ MIL
p237
aVL
p238
aI25
aI6
aI9
aF0.667
aI2
aI3
aF0.667
aI1
aI2
aF0.5
aI1
aI2
aI3
aI5
aI0
aI0
aI2
aI0
aI15
aI-7
aa(lp239
V0021100980
p240
aVAPR 26, 2012
p241
aVTOR vs. NJN
p242
aVW
p243
aI41
aI8
aI21
aF0.381
aI5
aI9
aF0.556
aI2
aI4
aF0.5
aI0
aI6
aI6
aI3
aI2
aI0
aI1
aI2
aI23
aI18
aasS'name'
p244
VGary Forbes
p245
sS'experience'
p246
I1
s.