(dp0
S'age'
p1
I23
sS'stats'
p2
(lp3
(lp4
V0021100005
p5
aVDEC 25, 2011
p6
aVGSW vs. LAC
p7
aVL
p8
aI33
aI2
aI12
aF0.167
aI0
aI4
aF0.0
aI0
aI1
aF0.0
aI2
aI3
aI5
aI4
aI2
aI2
aI5
aI4
aI4
aI-5
aa(lp9
V0021100017
p10
aVDEC 26, 2011
p11
aVGSW vs. CHI
p12
aVW
p13
aI37
aI7
aI12
aF0.583
aI1
aI3
aF0.333
aI6
aI7
aF0.857
aI1
aI6
aI7
aI10
aI6
aI0
aI4
aI4
aI21
aI11
aa(lp14
V0021100056
p15
aVDEC 31, 2011
p16
aVGSW vs. PHI
p17
aVL
p18
aI30
aI9
aI15
aF0.6
aI3
aI8
aF0.375
aI0
aI0
aF0.0
aI0
aI4
aI4
aI4
aI0
aI0
aI5
aI3
aI21
aI-22
aa(lp19
V0021100066
p20
aVJAN 02, 2012
p21
aVGSW @ PHX
p22
aVL
p23
aI23
aI4
aI8
aF0.5
aI2
aI3
aF0.667
aI0
aI0
aF0.0
aI0
aI2
aI2
aI2
aI1
aI0
aI2
aI5
aI10
aI-3
aa(lp24
V0021100091
p25
aVJAN 04, 2012
p26
aVGSW @ SAS
p27
aVL
p28
aI30
aI7
aI11
aF0.636
aI3
aI4
aF0.75
aI3
aI3
aF1.0
aI0
aI3
aI3
aI8
aI0
aI0
aI2
aI2
aI20
aI2
aa(lp29
V0021100226
p30
aVJAN 20, 2012
p31
aVGSW vs. IND
p32
aVL
p33
aI29
aI5
aI15
aF0.333
aI2
aI6
aF0.333
aI0
aI0
aF0.0
aI1
aI1
aI2
aI3
aI0
aI0
aI3
aI2
aI12
aI-4
aa(lp34
V0021100251
p35
aVJAN 23, 2012
p36
aVGSW vs. MEM
p37
aVL
p38
aI36
aI8
aI18
aF0.444
aI2
aI7
aF0.286
aI0
aI0
aF0.0
aI3
aI3
aI6
aI5
aI3
aI0
aI5
aI3
aI18
aI-7
aa(lp39
V0021100269
p40
aVJAN 25, 2012
p41
aVGSW vs. POR
p42
aVW
p43
aI38
aI12
aI19
aF0.632
aI6
aI8
aF0.75
aI2
aI3
aF0.667
aI0
aI6
aI6
aI7
aI4
aI0
aI1
aI0
aI32
aI7
aa(lp44
V0021100284
p45
aVJAN 27, 2012
p46
aVGSW vs. OKC
p47
aVL
p48
aI27
aI6
aI16
aF0.375
aI2
aI7
aF0.286
aI1
aI1
aF1.0
aI0
aI2
aI2
aI6
aI2
aI0
aI4
aI4
aI15
aI-9
aa(lp49
V0021100314
p50
aVJAN 31, 2012
p51
aVGSW vs. SAC
p52
aVW
p53
aI26
aI1
aI7
aF0.143
aI0
aI3
aF0.0
aI1
aI2
aF0.5
aI0
aI3
aI3
aI8
aI1
aI1
aI0
aI1
aI3
aI3
aa(lp54
V0021100331
p55
aVFEB 02, 2012
p56
aVGSW vs. UTA
p57
aVW
p58
aI38
aI10
aI14
aF0.714
aI2
aI5
aF0.4
aI7
aI8
aF0.875
aI0
aI5
aI5
aI12
aI3
aI0
aI3
aI4
aI29
aI18
aa(lp59
V0021100353
p60
aVFEB 04, 2012
p61
aVGSW @ SAC
p62
aVL
p63
aI29
aI4
aI14
aF0.286
aI3
aI8
aF0.375
aI0
aI0
aF0.0
aI2
aI0
aI2
aI9
aI4
aI0
aI5
aI1
aI11
aI-11
aa(lp64
V0021100372
p65
aVFEB 07, 2012
p66
aVGSW vs. OKC
p67
aVL
p68
aI43
aI7
aI9
aF0.778
aI1
aI2
aF0.5
aI1
aI2
aF0.5
aI1
aI6
aI7
aI10
aI2
aI0
aI3
aI3
aI16
aI13
aa(lp69
V0021100385
p70
aVFEB 09, 2012
p71
aVGSW @ DEN
p72
aVW
p73
aI36
aI13
aI17
aF0.765
aI6
aI9
aF0.667
aI4
aI7
aF0.571
aI0
aI7
aI7
aI7
aI0
aI2
aI1
aI3
aI36
aI15
aa(lp74
V0021100412
p75
aVFEB 12, 2012
p76
aVGSW vs. HOU
p77
aVW
p78
aI34
aI5
aI14
aF0.357
aI3
aI6
aF0.5
aI1
aI1
aF1.0
aI0
aI0
aI0
aI5
aI2
aI0
aI2
aI4
aI14
aI4
aa(lp79
V0021100419
p80
aVFEB 13, 2012
p81
aVGSW vs. PHX
p82
aVW
p83
aI32
aI3
aI10
aF0.3
aI1
aI4
aF0.25
aI2
aI2
aF1.0
aI2
aI5
aI7
aI5
aI1
aI0
aI2
aI2
aI9
aI2
aa(lp84
V0021100440
p85
aVFEB 15, 2012
p86
aVGSW vs. POR
p87
aVL
p88
aI38
aI3
aI10
aF0.3
aI0
aI2
aF0.0
aI2
aI2
aF1.0
aI1
aI2
aI3
aI8
aI2
aI2
aI2
aI2
aI8
aI7
aa(lp89
V0021100453
p90
aVFEB 17, 2012
p91
aVGSW @ OKC
p92
aVL
p93
aI28
aI4
aI13
aF0.308
aI3
aI5
aF0.6
aI0
aI0
aF0.0
aI1
aI1
aI2
aI4
aI0
aI0
aI4
aI2
aI11
aI-12
aa(lp94
V0021100458
p95
aVFEB 18, 2012
p96
aVGSW @ MEM
p97
aVL
p98
aI40
aI13
aI21
aF0.619
aI6
aI9
aF0.667
aI4
aI4
aF1.0
aI1
aI1
aI2
aI6
aI2
aI0
aI2
aI5
aI36
aI9
aa(lp99
V0021100480
p100
aVFEB 20, 2012
p101
aVGSW vs. LAC
p102
aVW
p103
aI33
aI3
aI6
aF0.5
aI3
aI5
aF0.6
aI2
aI2
aF1.0
aI0
aI3
aI3
aI6
aI0
aI1
aI3
aI3
aI11
aI16
aa(lp104
V0021100496
p105
aVFEB 22, 2012
p106
aVGSW @ PHX
p107
aVW
p108
aI10
aI3
aI7
aF0.429
aI1
aI3
aF0.333
aI2
aI2
aF1.0
aI0
aI0
aI0
aI2
aI2
aI0
aI1
aI1
aI9
aI13
aa(lp109
V0021100516
p110
aVFEB 29, 2012
p111
aVGSW @ ATL
p112
aVW
p113
aI0
aI0
aI0
aF0.0
aI0
aI0
aF0.0
aI0
aI0
aF0.0
aI0
aI0
aI0
aI0
aI0
aI0
aI0
aI0
aI0
aI2
aa(lp114
V0021100555
p115
aVMAR 05, 2012
p116
aVGSW @ WAS
p117
aVW
p118
aI9
aI5
aI7
aF0.714
aI2
aI3
aF0.667
aI0
aI0
aF0.0
aI0
aI1
aI1
aI1
aI1
aI0
aI0
aI1
aI12
aI10
aa(lp119
V0021100581
p120
aVMAR 07, 2012
p121
aVGSW vs. MEM
p122
aVL
p123
aI24
aI7
aI11
aF0.636
aI1
aI2
aF0.5
aI0
aI0
aF0.0
aI0
aI4
aI4
aI3
aI0
aI0
aI2
aI3
aI15
aI4
aa(lp124
V0021100602
p125
aVMAR 10, 2012
p126
aVGSW vs. DAL
p127
aVW
p128
aI16
aI4
aI7
aF0.571
aI2
aI4
aF0.5
aI0
aI0
aF0.0
aI0
aI2
aI2
aI2
aI1
aI0
aI3
aI0
aI10
aI10
aa(lp129
V0021100610
p130
aVMAR 11, 2012
p131
aVGSW @ LAC
p132
aVW
p133
aI9
aI0
aI3
aF0.0
aI0
aI1
aF0.0
aI0
aI0
aF0.0
aI0
aI3
aI3
aI1
aI0
aI0
aI1
aI0
aI0
aI6
aasS'name'
p134
VStephen Curry
p135
sS'experience'
p136
I2
s.