(dp0
S'stats'
p1
(lp2
(lp3
V0021100008
p4
aVDEC 26, 2011
p5
aVHOU @ ORL
p6
aVL
p7
aI20
aI3
aI3
aF1.0
aI0
aI0
aF0.0
aI0
aI0
aF0.0
aI4
aI2
aI6
aI1
aI0
aI1
aI1
aI2
aI6
aI0
aa(lp8
V0021100034
p9
aVDEC 29, 2011
p10
aVHOU vs. SAS
p11
aVW
p12
aI21
aI2
aI4
aF0.5
aI0
aI0
aF0.0
aI2
aI3
aF0.667
aI2
aI5
aI7
aI0
aI0
aI0
aI1
aI5
aI6
aI-1
aa(lp13
V0021100043
p14
aVDEC 30, 2011
p15
aVHOU @ MEM
p16
aVL
p17
aI13
aI1
aI4
aF0.25
aI0
aI0
aF0.0
aI0
aI0
aF0.0
aI0
aI5
aI5
aI0
aI0
aI0
aI1
aI2
aI2
aI-13
aa(lp18
V0021100052
p19
aVDEC 31, 2011
p20
aVHOU vs. ATL
p21
aVW
p22
aI28
aI5
aI8
aF0.625
aI0
aI0
aF0.0
aI1
aI2
aF0.5
aI4
aI11
aI15
aI1
aI1
aI1
aI1
aI3
aI11
aI10
aa(lp23
V0021100081
p24
aVJAN 03, 2012
p25
aVHOU @ LAL
p26
aVL
p27
aI19
aI1
aI4
aF0.25
aI0
aI0
aF0.0
aI0
aI0
aF0.0
aI1
aI3
aI4
aI2
aI0
aI0
aI0
aI2
aI2
aI0
aa(lp28
V0021100093
p29
aVJAN 04, 2012
p30
aVHOU @ LAC
p31
aVL
p32
aI12
aI0
aI1
aF0.0
aI0
aI0
aF0.0
aI1
aI2
aF0.5
aI0
aI2
aI2
aI0
aI1
aI0
aI1
aI3
aI1
aI-14
aa(lp33
V0021100105
p34
aVJAN 06, 2012
p35
aVHOU @ OKC
p36
aVL
p37
aI23
aI2
aI3
aF0.667
aI0
aI0
aF0.0
aI2
aI2
aF1.0
aI1
aI1
aI2
aI1
aI0
aI1
aI3
aI4
aI6
aI-6
aa(lp38
V0021100115
p39
aVJAN 07, 2012
p40
aVHOU vs. OKC
p41
aVL
p42
aI13
aI3
aI5
aF0.6
aI0
aI0
aF0.0
aI0
aI0
aF0.0
aI0
aI3
aI3
aI0
aI0
aI2
aI1
aI1
aI6
aI-9
aa(lp43
V0021100134
p44
aVJAN 10, 2012
p45
aVHOU @ CHA
p46
aVW
p47
aI18
aI5
aI9
aF0.556
aI0
aI0
aF0.0
aI2
aI3
aF0.667
aI7
aI5
aI12
aI1
aI0
aI5
aI3
aI1
aI12
aI-4
aa(lp48
V0021100149
p49
aVJAN 11, 2012
p50
aVHOU @ SAS
p51
aVL
p52
aI18
aI2
aI6
aF0.333
aI0
aI1
aF0.0
aI0
aI0
aF0.0
aI3
aI5
aI8
aI0
aI0
aI0
aI2
aI2
aI4
aI1
aa(lp53
V0021100164
p54
aVJAN 13, 2012
p55
aVHOU vs. SAC
p56
aVW
p57
aI11
aI0
aI2
aF0.0
aI0
aI0
aF0.0
aI0
aI0
aF0.0
aI0
aI1
aI1
aI0
aI0
aI0
aI1
aI1
aI0
aI-10
aa(lp58
V0021100176
p59
aVJAN 14, 2012
p60
aVHOU vs. POR
p61
aVW
p62
aI21
aI3
aI6
aF0.5
aI0
aI0
aF0.0
aI1
aI2
aF0.5
aI1
aI6
aI7
aI0
aI0
aI2
aI0
aI1
aI7
aI8
aa(lp63
V0021100187
p64
aVJAN 16, 2012
p65
aVHOU @ WAS
p66
aVW
p67
aI11
aI3
aI8
aF0.375
aI0
aI0
aF0.0
aI0
aI0
aF0.0
aI3
aI1
aI4
aI0
aI0
aI1
aI1
aI3
aI6
aI-6
aa(lp68
V0021100200
p69
aVJAN 17, 2012
p70
aVHOU vs. DET
p71
aVW
p72
aI8
aI0
aI0
aF0.0
aI0
aI0
aF0.0
aI0
aI0
aF0.0
aI0
aI0
aI0
aI1
aI0
aI1
aI0
aI0
aI0
aI-5
aa(lp73
V0021100235
p74
aVJAN 21, 2012
p75
aVHOU vs. SAS
p76
aVW
p77
aI8
aI1
aI2
aF0.5
aI0
aI0
aF0.0
aI0
aI0
aF0.0
aI0
aI2
aI2
aI0
aI0
aI0
aI1
aI1
aI2
aI-6
aa(lp78
V0021100248
p79
aVJAN 23, 2012
p80
aVHOU @ MIN
p81
aVW
p82
aI6
aI0
aI0
aF0.0
aI0
aI0
aF0.0
aI0
aI0
aF0.0
aI0
aI1
aI1
aI0
aI0
aI0
aI0
aI2
aI0
aI-5
aa(lp83
V0021100279
p84
aVJAN 27, 2012
p85
aVHOU vs. WAS
p86
aVW
p87
aI19
aI4
aI11
aF0.364
aI0
aI1
aF0.0
aI2
aI6
aF0.333
aI1
aI9
aI10
aI0
aI2
aI1
aI0
aI1
aI10
aI12
aa(lp88
V0021100287
p89
aVJAN 28, 2012
p90
aVHOU vs. NYK
p91
aVW
p92
aI22
aI6
aI7
aF0.857
aI0
aI0
aF0.0
aI2
aI2
aF1.0
aI3
aI8
aI11
aI0
aI1
aI0
aI2
aI4
aI14
aI12
aa(lp93
V0021100304
p94
aVJAN 30, 2012
p95
aVHOU vs. MIN
p96
aVL
p97
aI13
aI4
aI6
aF0.667
aI0
aI0
aF0.0
aI0
aI0
aF0.0
aI0
aI5
aI5
aI0
aI0
aI0
aI0
aI1
aI8
aI8
aa(lp98
V0021100323
p99
aVFEB 01, 2012
p100
aVHOU @ SAS
p101
aVL
p102
aI23
aI2
aI3
aF0.667
aI0
aI0
aF0.0
aI2
aI2
aF1.0
aI4
aI6
aI10
aI0
aI1
aI0
aI0
aI3
aI6
aI-3
aa(lp103
V0021100338
p104
aVFEB 03, 2012
p105
aVHOU vs. PHX
p106
aVW
p107
aI23
aI0
aI2
aF0.0
aI0
aI0
aF0.0
aI4
aI4
aF1.0
aI1
aI2
aI3
aI1
aI1
aI3
aI2
aI3
aI4
aI9
aa(lp108
V0021100348
p109
aVFEB 04, 2012
p110
aVHOU @ MIN
p111
aVL
p112
aI6
aI0
aI2
aF0.0
aI0
aI1
aF0.0
aI0
aI0
aF0.0
aI0
aI2
aI2
aI0
aI1
aI0
aI0
aI1
aI0
aI-7
aa(lp113
V0021100365
p114
aVFEB 06, 2012
p115
aVHOU @ DEN
p116
aVW
p117
aI8
aI0
aI2
aF0.0
aI0
aI0
aF0.0
aI0
aI0
aF0.0
aI1
aI1
aI2
aI0
aI0
aI0
aI0
aI2
aI0
aI-6
aa(lp118
V0021100383
p119
aVFEB 08, 2012
p120
aVHOU @ POR
p121
aVW
p122
aI17
aI3
aI4
aF0.75
aI0
aI0
aF0.0
aI1
aI2
aF0.5
aI1
aI3
aI4
aI3
aI0
aI0
aI1
aI1
aI7
aI11
aa(lp123
V0021100386
p124
aVFEB 09, 2012
p125
aVHOU @ PHX
p126
aVW
p127
aI24
aI5
aI8
aF0.625
aI0
aI0
aF0.0
aI0
aI0
aF0.0
aI1
aI5
aI6
aI0
aI0
aI0
aI0
aI0
aI10
aI17
aa(lp128
V0021100412
p129
aVFEB 12, 2012
p130
aVHOU @ GSW
p131
aVL
p132
aI8
aI1
aI1
aF1.0
aI0
aI0
aF0.0
aI0
aI2
aF0.0
aI0
aI2
aI2
aI0
aI0
aI0
aI1
aI2
aI2
aI-9
aa(lp133
V0021100424
p134
aVFEB 14, 2012
p135
aVHOU @ MEM
p136
aVL
p137
aI4
aI1
aI1
aF1.0
aI0
aI0
aF0.0
aI0
aI0
aF0.0
aI0
aI1
aI1
aI0
aI0
aI0
aI0
aI1
aI2
aI-1
aa(lp138
V0021100436
p139
aVFEB 15, 2012
p140
aVHOU vs. OKC
p141
aVW
p142
aI12
aI2
aI3
aF0.667
aI0
aI0
aF0.0
aI2
aI2
aF1.0
aI3
aI1
aI4
aI1
aI1
aI0
aI0
aI1
aI6
aI0
aa(lp143
V0021100452
p144
aVFEB 17, 2012
p145
aVHOU vs. MIN
p146
aVL
p147
aI11
aI2
aI4
aF0.5
aI0
aI0
aF0.0
aI0
aI0
aF0.0
aI1
aI2
aI3
aI0
aI0
aI1
aI0
aI2
aI4
aI-5
aa(lp148
V0021100597
p149
aVMAR 10, 2012
p150
aVHOU @ NJN
p151
aVW
p152
aI9
aI1
aI1
aF1.0
aI0
aI0
aF0.0
aI0
aI0
aF0.0
aI0
aI2
aI2
aI1
aI0
aI1
aI0
aI1
aI2
aI-1
aa(lp153
V0021100607
p154
aVMAR 11, 2012
p155
aVHOU @ CLE
p156
aVL
p157
aI7
aI0
aI4
aF0.0
aI0
aI0
aF0.0
aI1
aI2
aF0.5
aI1
aI2
aI3
aI0
aI0
aI0
aI1
aI4
aI1
aI-15
aa(lp158
V0021100632
p159
aVMAR 14, 2012
p160
aVHOU vs. CHA
p161
aVW
p162
aI15
aI6
aI11
aF0.545
aI0
aI0
aF0.0
aI2
aI3
aF0.667
aI4
aI4
aI8
aI1
aI0
aI1
aI0
aI0
aI14
aI-1
aa(lp163
V0021100679
p164
aVMAR 20, 2012
p165
aVLAL @ HOU
p166
aVL
p167
aI1
aI0
aI1
aF0.0
aI0
aI0
aF0.0
aI0
aI0
aF0.0
aI1
aI1
aI2
aI0
aI0
aI0
aI0
aI0
aI0
aI2
aa(lp168
V0021100692
p169
aVMAR 21, 2012
p170
aVLAL @ DAL
p171
aVW
p172
aI2
aI1
aI2
aF0.5
aI0
aI0
aF0.0
aI0
aI0
aF0.0
aI1
aI0
aI1
aI0
aI0
aI0
aI0
aI0
aI2
aI-3
aa(lp173
V0021100917
p174
aVAPR 17, 2012
p175
aVLAL vs. SAS
p176
aVL
p177
aI4
aI2
aI2
aF1.0
aI0
aI0
aF0.0
aI0
aI0
aF0.0
aI1
aI1
aI2
aI0
aI1
aI1
aI0
aI1
aI4
aI1
aa(lp178
V0021100931
p179
aVAPR 18, 2012
p180
aVLAL @ GSW
p181
aVW
p182
aI3
aI0
aI1
aF0.0
aI0
aI0
aF0.0
aI0
aI0
aF0.0
aI2
aI0
aI2
aI0
aI0
aI0
aI2
aI1
aI0
aI-7
aa(lp183
V0021100941
p184
aVAPR 20, 2012
p185
aVLAL @ SAS
p186
aVL
p187
aI8
aI1
aI1
aF1.0
aI0
aI0
aF0.0
aI3
aI4
aF0.75
aI1
aI0
aI1
aI0
aI0
aI1
aI1
aI0
aI5
aI-3
aa(lp188
V0021100952
p189
aVAPR 22, 2012
p190
aVLAL vs. OKC
p191
aVW
p192
aI35
aI6
aI11
aF0.545
aI0
aI0
aF0.0
aI2
aI4
aF0.5
aI6
aI9
aI15
aI0
aI1
aI3
aI2
aI5
aI14
aI27
aa(lp193
V0021100989
p194
aVAPR 26, 2012
p195
aVLAL @ SAC
p196
aVL
p197
aI30
aI4
aI12
aF0.333
aI0
aI0
aF0.0
aI0
aI0
aF0.0
aI2
aI6
aI8
aI2
aI3
aI1
aI2
aI4
aI8
aI-12
aasS'name'
p198
VJordan Hill
p199
sS'weight'
p200
V235
p201
sS'age'
p202
I24
sS'experience'
p203
I2
sS'height'
p204
V6-10
p205
sS'position'
p206
VCenter
p207
s.