(dp0
S'age'
p1
I23
sS'stats'
p2
(lp3
(lp4
V0021100010
p5
aVDEC 26, 2011
p6
aVDET @ IND
p7
aVL
p8
aI14
aI0
aI3
aF0.0
aI0
aI1
aF0.0
aI0
aI0
aF0.0
aI0
aI7
aI7
aI1
aI0
aI0
aI1
aI2
aI0
aI-5
aa(lp9
V0021100026
p10
aVDEC 28, 2011
p11
aVDET vs. CLE
p12
aVL
p13
aI14
aI0
aI5
aF0.0
aI0
aI1
aF0.0
aI0
aI0
aF0.0
aI0
aI0
aI0
aI0
aI2
aI1
aI3
aI2
aI0
aI-5
aa(lp14
V0021100041
p15
aVDEC 30, 2011
p16
aVDET @ BOS
p17
aVL
p18
aI16
aI5
aI11
aF0.455
aI0
aI2
aF0.0
aI1
aI1
aF1.0
aI1
aI4
aI5
aI0
aI0
aI0
aI1
aI3
aI11
aI5
aa(lp19
V0021100051
p20
aVDEC 31, 2011
p21
aVDET vs. IND
p22
aVW
p23
aI6
aI0
aI3
aF0.0
aI0
aI1
aF0.0
aI0
aI0
aF0.0
aI0
aI0
aI0
aI0
aI0
aI1
aI1
aI0
aI0
aI8
aa(lp24
V0021100071
p25
aVJAN 02, 2012
p26
aVDET vs. ORL
p27
aVW
p28
aI0
aI0
aI0
aF0.0
aI0
aI0
aF0.0
aI0
aI0
aF0.0
aI0
aI0
aI0
aI0
aI0
aI0
aI0
aI0
aI0
aI2
aa(lp29
V0021100099
p30
aVJAN 06, 2012
p31
aVDET @ PHI
p32
aVL
p33
aI24
aI2
aI11
aF0.182
aI0
aI3
aF0.0
aI0
aI0
aF0.0
aI0
aI2
aI2
aI3
aI1
aI1
aI1
aI2
aI4
aI-10
aa(lp34
V0021100130
p35
aVJAN 09, 2012
p36
aVDET @ CHI
p37
aVL
p38
aI13
aI1
aI4
aF0.25
aI0
aI0
aF0.0
aI0
aI0
aF0.0
aI0
aI1
aI1
aI0
aI0
aI0
aI1
aI2
aI2
aI-9
aa(lp39
V0021100135
p40
aVJAN 10, 2012
p41
aVDET vs. DAL
p42
aVL
p43
aI18
aI1
aI6
aF0.167
aI0
aI2
aF0.0
aI5
aI5
aF1.0
aI0
aI3
aI3
aI4
aI0
aI0
aI3
aI2
aI7
aI12
aa(lp44
V0021100161
p45
aVJAN 13, 2012
p46
aVDET @ CHA
p47
aVW
p48
aI3
aI0
aI1
aF0.0
aI0
aI0
aF0.0
aI0
aI0
aF0.0
aI0
aI1
aI1
aI0
aI0
aI0
aI0
aI1
aI0
aI-3
aa(lp49
V0021100181
p50
aVJAN 15, 2012
p51
aVDET vs. GSW
p52
aVL
p53
aI12
aI1
aI5
aF0.2
aI0
aI3
aF0.0
aI1
aI2
aF0.5
aI1
aI0
aI1
aI1
aI1
aI0
aI1
aI0
aI3
aI2
aa(lp54
V0021100210
p55
aVJAN 18, 2012
p56
aVDET @ MIN
p57
aVL
p58
aI1
aI0
aI0
aF0.0
aI0
aI0
aF0.0
aI0
aI0
aF0.0
aI0
aI0
aI0
aI0
aI0
aI0
aI0
aI0
aI0
aI0
aa(lp59
V0021100221
p60
aVJAN 20, 2012
p61
aVDET vs. MEM
p62
aVL
p63
aI18
aI4
aI7
aF0.571
aI0
aI1
aF0.0
aI1
aI2
aF0.5
aI1
aI2
aI3
aI2
aI0
aI2
aI4
aI1
aI9
aI-17
aa(lp64
V0021100247
p65
aVJAN 23, 2012
p66
aVDET @ OKC
p67
aVL
p68
aI20
aI3
aI10
aF0.3
aI1
aI3
aF0.333
aI2
aI2
aF1.0
aI1
aI6
aI7
aI2
aI0
aI0
aI0
aI1
aI9
aI-1
aa(lp69
V0021100260
p70
aVJAN 25, 2012
p71
aVDET vs. MIA
p72
aVL
p73
aI30
aI10
aI18
aF0.556
aI4
aI8
aF0.5
aI4
aI4
aF1.0
aI3
aI3
aI6
aI3
aI1
aI0
aI2
aI2
aI28
aI2
aa(lp74
V0021100274
p75
aVJAN 27, 2012
p76
aVDET vs. ATL
p77
aVL
p78
aI27
aI4
aI11
aF0.364
aI2
aI4
aF0.5
aI2
aI2
aF1.0
aI0
aI3
aI3
aI1
aI1
aI1
aI2
aI6
aI12
aI-5
aa(lp79
V0021100285
p80
aVJAN 28, 2012
p81
aVDET @ PHI
p82
aVL
p83
aI27
aI5
aI8
aF0.625
aI1
aI2
aF0.5
aI1
aI2
aF0.5
aI0
aI3
aI3
aI2
aI0
aI1
aI1
aI2
aI12
aI-10
aa(lp84
V0021100302
p85
aVJAN 30, 2012
p86
aVDET @ MIL
p87
aVL
p88
aI37
aI4
aI14
aF0.286
aI0
aI3
aF0.0
aI2
aI2
aF1.0
aI1
aI4
aI5
aI3
aI2
aI2
aI2
aI2
aI10
aI-7
aa(lp89
V0021100311
p90
aVJAN 31, 2012
p91
aVDET @ NYK
p92
aVL
p93
aI25
aI2
aI7
aF0.286
aI1
aI3
aF0.333
aI2
aI2
aF1.0
aI0
aI3
aI3
aI2
aI1
aI1
aI3
aI2
aI7
aI-9
aa(lp94
V0021100318
p95
aVFEB 01, 2012
p96
aVDET @ NJN
p97
aVL
p98
aI11
aI0
aI3
aF0.0
aI0
aI0
aF0.0
aI0
aI0
aF0.0
aI0
aI0
aI0
aI0
aI0
aI0
aI0
aI1
aI0
aI-11
aa(lp99
V0021100336
p100
aVFEB 03, 2012
p101
aVDET vs. MIL
p102
aVW
p103
aI10
aI0
aI3
aF0.0
aI0
aI0
aF0.0
aI4
aI4
aF1.0
aI0
aI2
aI2
aI0
aI0
aI2
aI2
aI2
aI4
aI-17
aa(lp104
V0021100346
p105
aVFEB 04, 2012
p106
aVDET vs. NOH
p107
aVW
p108
aI20
aI1
aI5
aF0.2
aI0
aI3
aF0.0
aI2
aI2
aF1.0
aI0
aI3
aI3
aI0
aI1
aI0
aI1
aI1
aI4
aI-2
aa(lp109
V0021100378
p110
aVFEB 08, 2012
p111
aVDET @ NJN
p112
aVW
p113
aI7
aI0
aI1
aF0.0
aI0
aI0
aF0.0
aI0
aI0
aF0.0
aI0
aI1
aI1
aI1
aI0
aI0
aI0
aI0
aI0
aI9
aa(lp114
V0021100393
p115
aVFEB 10, 2012
p116
aVDET vs. NJN
p117
aVW
p118
aI19
aI1
aI7
aF0.143
aI0
aI2
aF0.0
aI0
aI0
aF0.0
aI1
aI0
aI1
aI0
aI0
aI0
aI0
aI1
aI2
aI-6
aa(lp119
V0021100410
p120
aVFEB 12, 2012
p121
aVDET vs. WAS
p122
aVL
p123
aI14
aI2
aI9
aF0.222
aI0
aI1
aF0.0
aI0
aI0
aF0.0
aI1
aI4
aI5
aI0
aI1
aI1
aI0
aI1
aI4
aI-9
aa(lp124
V0021100422
p125
aVFEB 14, 2012
p126
aVDET vs. SAS
p127
aVL
p128
aI7
aI1
aI2
aF0.5
aI0
aI1
aF0.0
aI0
aI0
aF0.0
aI0
aI3
aI3
aI0
aI0
aI1
aI2
aI2
aI2
aI-2
aa(lp129
V0021100505
p130
aVFEB 28, 2012
p131
aVDET vs. PHI
p132
aVL
p133
aI5
aI0
aI2
aF0.0
aI0
aI2
aF0.0
aI0
aI0
aF0.0
aI0
aI0
aI0
aI2
aI0
aI0
aI1
aI0
aI0
aI0
aa(lp134
V0021100542
p135
aVMAR 03, 2012
p136
aVDET @ MEM
p137
aVL
p138
aI1
aI0
aI0
aF0.0
aI0
aI0
aF0.0
aI0
aI0
aF0.0
aI0
aI0
aI0
aI0
aI0
aI0
aI0
aI0
aI0
aI-2
aa(lp139
V0021100596
p140
aVMAR 10, 2012
p141
aVDET vs. TOR
p142
aVW
p143
aI3
aI0
aI0
aF0.0
aI0
aI0
aF0.0
aI0
aI0
aF0.0
aI0
aI0
aI0
aI0
aI1
aI0
aI0
aI0
aI0
aI-3
aa(lp144
V0021100704
p145
aVMAR 23, 2012
p146
aVDET vs. MIA
p147
aVL
p148
aI8
aI3
aI4
aF0.75
aI0
aI0
aF0.0
aI0
aI0
aF0.0
aI1
aI0
aI1
aI0
aI0
aI0
aI0
aI2
aI6
aI0
aa(lp149
V0021100713
p150
aVMAR 24, 2012
p151
aVDET @ NYK
p152
aVL
p153
aI16
aI3
aI7
aF0.429
aI1
aI2
aF0.5
aI0
aI0
aF0.0
aI1
aI2
aI3
aI1
aI0
aI0
aI0
aI0
aI7
aI-10
aa(lp154
V0021100728
p155
aVMAR 26, 2012
p156
aVDET @ WAS
p157
aVW
p158
aI5
aI0
aI3
aF0.0
aI0
aI1
aF0.0
aI0
aI0
aF0.0
aI0
aI2
aI2
aI0
aI0
aI0
aI0
aI1
aI0
aI2
aa(lp159
V0021100746
p160
aVMAR 28, 2012
p161
aVDET @ CLE
p162
aVW
p163
aI29
aI3
aI7
aF0.429
aI1
aI4
aF0.25
aI1
aI2
aF0.5
aI1
aI1
aI2
aI2
aI2
aI2
aI1
aI1
aI8
aI16
aa(lp164
V0021100763
p165
aVMAR 30, 2012
p166
aVDET @ CHI
p167
aVL
p168
aI33
aI5
aI14
aF0.357
aI1
aI2
aF0.5
aI0
aI0
aF0.0
aI0
aI2
aI2
aI1
aI3
aI2
aI2
aI4
aI11
aI-11
aa(lp169
V0021100772
p170
aVMAR 31, 2012
p171
aVDET vs. CHA
p172
aVW
p173
aI20
aI1
aI3
aF0.333
aI0
aI0
aF0.0
aI3
aI3
aF1.0
aI0
aI2
aI2
aI0
aI2
aI0
aI1
aI4
aI5
aI2
aa(lp174
V0021100838
p175
aVAPR 08, 2012
p176
aVDET @ MIA
p177
aVL
p178
aI13
aI2
aI6
aF0.333
aI0
aI2
aF0.0
aI0
aI0
aF0.0
aI0
aI0
aI0
aI1
aI0
aI0
aI2
aI2
aI4
aI1
aa(lp179
V0021100843
p180
aVAPR 09, 2012
p181
aVDET @ ORL
p182
aVL
p183
aI12
aI2
aI4
aF0.5
aI0
aI1
aF0.0
aI0
aI0
aF0.0
aI0
aI3
aI3
aI0
aI0
aI1
aI1
aI2
aI4
aI-7
aa(lp184
V0021100869
p185
aVAPR 12, 2012
p186
aVDET @ CHA
p187
aVW
p188
aI5
aI0
aI1
aF0.0
aI0
aI0
aF0.0
aI0
aI0
aF0.0
aI0
aI1
aI1
aI0
aI0
aI0
aI0
aI0
aI0
aI-10
aa(lp189
V0021100914
p190
aVAPR 17, 2012
p191
aVDET vs. CLE
p192
aVW
p193
aI7
aI1
aI2
aF0.5
aI0
aI0
aF0.0
aI0
aI0
aF0.0
aI0
aI0
aI0
aI0
aI2
aI0
aI0
aI3
aI2
aI-7
aa(lp194
V0021100922
p195
aVAPR 18, 2012
p196
aVDET @ ATL
p197
aVL
p198
aI30
aI1
aI11
aF0.091
aI0
aI2
aF0.0
aI2
aI5
aF0.4
aI1
aI4
aI5
aI0
aI0
aI1
aI0
aI0
aI4
aI-19
aa(lp199
V0021100961
p200
aVAPR 23, 2012
p201
aVDET @ IND
p202
aVL
p203
aI19
aI4
aI7
aF0.571
aI1
aI2
aF0.5
aI2
aI3
aF0.667
aI0
aI4
aI4
aI1
aI1
aI1
aI1
aI5
aI11
aI-4
aa(lp204
V0021100978
p205
aVAPR 26, 2012
p206
aVDET vs. PHI
p207
aVW
p208
aI5
aI1
aI2
aF0.5
aI0
aI0
aF0.0
aI0
aI0
aF0.0
aI0
aI1
aI1
aI0
aI0
aI0
aI0
aI0
aI2
aI-2
aasS'name'
p209
VAustin Daye
p210
sS'experience'
p211
I2
s.