(dp0
S'age'
p1
I22
sS'stats'
p2
(lp3
(lp4
V0021100988
p5
aVAPR 26, 2012
p6
aVPOR @ UTA
p7
aVL
p8
aI34
aI6
aI14
aF0.429
aI1
aI3
aF0.333
aI5
aI5
aF1.0
aI1
aI4
aI5
aI11
aI0
aI0
aI3
aI0
aI18
aI4
aa(lp9
V0021100965
p10
aVAPR 23, 2012
p11
aVPOR @ SAS
p12
aVL
p13
aI18
aI4
aI9
aF0.444
aI1
aI3
aF0.333
aI0
aI0
aF0.0
aI0
aI1
aI1
aI3
aI0
aI1
aI3
aI1
aI9
aI-8
aa(lp14
V0021100947
p15
aVAPR 21, 2012
p16
aVPOR @ MEM
p17
aVL
p18
aI13
aI0
aI5
aF0.0
aI0
aI2
aF0.0
aI2
aI2
aF1.0
aI1
aI2
aI3
aI3
aI0
aI0
aI0
aI2
aI2
aI-1
aa(lp19
V0021100930
p20
aVAPR 18, 2012
p21
aVPOR vs. UTA
p22
aVL
p23
aI25
aI3
aI7
aF0.429
aI0
aI0
aF0.0
aI5
aI7
aF0.714
aI1
aI1
aI2
aI7
aI0
aI0
aI2
aI1
aI11
aI0
aa(lp24
V0021100910
p25
aVAPR 16, 2012
p26
aVPOR @ PHX
p27
aVL
p28
aI24
aI2
aI5
aF0.4
aI0
aI1
aF0.0
aI0
aI2
aF0.0
aI0
aI2
aI2
aI6
aI1
aI0
aI2
aI2
aI4
aI-4
aa(lp29
V0021100899
p30
aVAPR 15, 2012
p31
aVPOR @ SAC
p32
aVL
p33
aI19
aI4
aI9
aF0.444
aI1
aI4
aF0.25
aI0
aI0
aF0.0
aI0
aI4
aI4
aI5
aI0
aI0
aI3
aI0
aI9
aI2
aa(lp34
V0021100885
p35
aVAPR 13, 2012
p36
aVPOR vs. DAL
p37
aVL
p38
aI13
aI1
aI2
aF0.5
aI0
aI1
aF0.0
aI0
aI0
aF0.0
aI0
aI0
aI0
aI5
aI0
aI0
aI1
aI0
aI2
aI6
aa(lp39
V0021100851
p40
aVAPR 09, 2012
p41
aVPOR vs. HOU
p42
aVL
p43
aI4
aI2
aI5
aF0.4
aI0
aI1
aF0.0
aI0
aI0
aF0.0
aI1
aI0
aI1
aI0
aI0
aI0
aI2
aI0
aI4
aI-5
aa(lp44
V0021100831
p45
aVAPR 07, 2012
p46
aVPOR @ MIL
p47
aVL
p48
aI12
aI1
aI3
aF0.333
aI0
aI1
aF0.0
aI0
aI0
aF0.0
aI1
aI2
aI3
aI1
aI0
aI0
aI3
aI1
aI2
aI-13
aa(lp49
V0021100821
p50
aVAPR 06, 2012
p51
aVPOR @ DAL
p52
aVW
p53
aI10
aI1
aI4
aF0.25
aI1
aI1
aF1.0
aI0
aI0
aF0.0
aI0
aI1
aI1
aI0
aI1
aI0
aI0
aI1
aI3
aI-18
aa(lp54
V0021100809
p55
aVAPR 04, 2012
p56
aVPOR vs. NJN
p57
aVW
p58
aI15
aI2
aI6
aF0.333
aI1
aI2
aF0.5
aI0
aI0
aF0.0
aI0
aI1
aI1
aI1
aI1
aI0
aI3
aI0
aI5
aI-25
aa(lp59
V0021100790
p60
aVAPR 02, 2012
p61
aVPOR vs. UTA
p62
aVL
p63
aI14
aI1
aI5
aF0.2
aI1
aI1
aF1.0
aI2
aI3
aF0.667
aI0
aI1
aI1
aI6
aI0
aI0
aI0
aI0
aI5
aI-1
aa(lp64
V0021100783
p65
aVAPR 01, 2012
p66
aVPOR vs. MIN
p67
aVW
p68
aI18
aI2
aI3
aF0.667
aI0
aI1
aF0.0
aI0
aI0
aF0.0
aI0
aI3
aI3
aI7
aI0
aI0
aI2
aI3
aI4
aI10
aa(lp69
V0021100767
p70
aVMAR 30, 2012
p71
aVPOR @ LAC
p72
aVL
p73
aI15
aI2
aI4
aF0.5
aI1
aI2
aF0.5
aI0
aI0
aF0.0
aI1
aI0
aI1
aI3
aI0
aI0
aI1
aI1
aI5
aI10
aa(lp74
V0021100755
p75
aVMAR 29, 2012
p76
aVPOR vs. NOH
p77
aVW
p78
aI15
aI0
aI2
aF0.0
aI0
aI0
aF0.0
aI0
aI0
aF0.0
aI0
aI0
aI0
aI3
aI0
aI0
aI1
aI1
aI0
aI-4
aa(lp79
V0021100741
p80
aVMAR 27, 2012
p81
aVPOR vs. OKC
p82
aVL
p83
aI25
aI3
aI6
aF0.5
aI1
aI2
aF0.5
aI3
aI4
aF0.75
aI1
aI2
aI3
aI5
aI0
aI0
aI1
aI2
aI10
aI-5
aa(lp84
V0021100698
p85
aVMAR 22, 2012
p86
aVPOR vs. MEM
p87
aVW
p88
aI4
aI0
aI0
aF0.0
aI0
aI0
aF0.0
aI0
aI0
aF0.0
aI0
aI0
aI0
aI2
aI0
aI0
aI0
aI0
aI0
aI1
aa(lp89
V0021100682
p90
aVMAR 20, 2012
p91
aVPOR vs. MIL
p92
aVL
p93
aI4
aI0
aI1
aF0.0
aI0
aI0
aF0.0
aI1
aI2
aF0.5
aI0
aI0
aI0
aI0
aI0
aI0
aI0
aI0
aI1
aI-6
aa(lp94
V0021100632
p95
aVMAR 14, 2012
p96
aVHOU vs. CHA
p97
aVW
p98
aI20
aI3
aI7
aF0.429
aI1
aI1
aF1.0
aI0
aI0
aF0.0
aI0
aI0
aI0
aI3
aI0
aI1
aI0
aI0
aI7
aI-12
aa(lp99
V0021100622
p100
aVMAR 13, 2012
p101
aVHOU @ OKC
p102
aVW
p103
aI10
aI1
aI2
aF0.5
aI0
aI1
aF0.0
aI0
aI0
aF0.0
aI0
aI0
aI0
aI3
aI0
aI0
aI1
aI1
aI2
aI-3
aa(lp104
V0021100607
p105
aVMAR 11, 2012
p106
aVHOU @ CLE
p107
aVL
p108
aI14
aI1
aI4
aF0.25
aI0
aI1
aF0.0
aI2
aI2
aF1.0
aI0
aI0
aI0
aI2
aI0
aI0
aI0
aI2
aI4
aI-19
aa(lp109
V0021100597
p110
aVMAR 10, 2012
p111
aVHOU @ NJN
p112
aVW
p113
aI11
aI1
aI5
aF0.2
aI0
aI0
aF0.0
aI0
aI0
aF0.0
aI0
aI0
aI0
aI3
aI0
aI0
aI1
aI0
aI2
aI-8
aa(lp114
V0021100287
p115
aVJAN 28, 2012
p116
aVHOU vs. NYK
p117
aVW
p118
aI4
aI0
aI1
aF0.0
aI0
aI0
aF0.0
aI2
aI2
aF1.0
aI0
aI0
aI0
aI0
aI0
aI0
aI0
aI0
aI2
aI-7
aa(lp119
V0021100279
p120
aVJAN 27, 2012
p121
aVHOU vs. WAS
p122
aVW
p123
aI6
aI0
aI2
aF0.0
aI0
aI1
aF0.0
aI2
aI2
aF1.0
aI0
aI0
aI0
aI0
aI1
aI0
aI1
aI0
aI2
aI-1
aa(lp124
V0021100115
p125
aVJAN 07, 2012
p126
aVHOU vs. OKC
p127
aVL
p128
aI10
aI1
aI2
aF0.5
aI0
aI0
aF0.0
aI0
aI0
aF0.0
aI0
aI1
aI1
aI3
aI0
aI0
aI0
aI3
aI2
aI-2
aa(lp129
V0021100105
p130
aVJAN 06, 2012
p131
aVHOU @ OKC
p132
aVL
p133
aI20
aI2
aI8
aF0.25
aI0
aI1
aF0.0
aI3
aI4
aF0.75
aI1
aI3
aI4
aI6
aI1
aI0
aI0
aI2
aI7
aI-3
aa(lp134
V0021100093
p135
aVJAN 04, 2012
p136
aVHOU @ LAC
p137
aVL
p138
aI12
aI0
aI3
aF0.0
aI0
aI0
aF0.0
aI1
aI2
aF0.5
aI0
aI2
aI2
aI2
aI1
aI0
aI2
aI0
aI1
aI-13
aa(lp139
V0021100043
p140
aVDEC 30, 2011
p141
aVHOU @ MEM
p142
aVL
p143
aI20
aI3
aI7
aF0.429
aI1
aI4
aF0.25
aI1
aI2
aF0.5
aI0
aI1
aI1
aI4
aI0
aI0
aI2
aI0
aI8
aI-3
aa(lp144
V0021100034
p145
aVDEC 29, 2011
p146
aVHOU vs. SAS
p147
aVW
p148
aI8
aI0
aI0
aF0.0
aI0
aI0
aF0.0
aI0
aI0
aF0.0
aI0
aI0
aI0
aI2
aI0
aI0
aI2
aI0
aI0
aI-3
aasS'name'
p149
VJonny Flynn
p150
sS'experience'
p151
I2
s.