(dp0
S'age'
p1
I24
sS'stats'
p2
(lp3
(lp4
V0021100144
p5
aVJAN 11, 2012
p6
aVIND vs. ATL
p7
aVW
p8
aI5
aI0
aI4
aF0.0
aI0
aI0
aF0.0
aI0
aI0
aF0.0
aI1
aI1
aI2
aI0
aI0
aI0
aI0
aI1
aI0
aI-10
aa(lp9
V0021100173
p10
aVJAN 14, 2012
p11
aVIND vs. BOS
p12
aVW
p13
aI3
aI1
aI2
aF0.5
aI0
aI0
aF0.0
aI0
aI0
aF0.0
aI1
aI0
aI1
aI0
aI0
aI0
aI0
aI1
aI2
aI-4
aa(lp14
V0021100253
p15
aVJAN 24, 2012
p16
aVIND vs. ORL
p17
aVL
p18
aI1
aI0
aI0
aF0.0
aI0
aI0
aF0.0
aI0
aI0
aF0.0
aI0
aI0
aI0
aI0
aI0
aI0
aI0
aI0
aI0
aI-1
aa(lp19
V0021100294
p20
aVJAN 29, 2012
p21
aVIND @ ORL
p22
aVW
p23
aI3
aI2
aI3
aF0.667
aI0
aI0
aF0.0
aI0
aI0
aF0.0
aI0
aI0
aI0
aI0
aI0
aI0
aI0
aI1
aI4
aI0
aa(lp24
V0021100421
p25
aVFEB 14, 2012
p26
aVIND vs. MIA
p27
aVL
p28
aI5
aI0
aI0
aF0.0
aI0
aI0
aF0.0
aI0
aI0
aF0.0
aI0
aI0
aI0
aI0
aI0
aI0
aI1
aI1
aI0
aI13
aa(lp29
V0021100434
p30
aVFEB 15, 2012
p31
aVIND @ CLE
p32
aVL
p33
aI3
aI0
aI0
aF0.0
aI0
aI0
aF0.0
aI0
aI0
aF0.0
aI0
aI0
aI0
aI0
aI0
aI0
aI0
aI0
aI0
aI5
aa(lp34
V0021100464
p35
aVFEB 19, 2012
p36
aVIND vs. CHA
p37
aVW
p38
aI6
aI1
aI1
aF1.0
aI0
aI0
aF0.0
aI1
aI2
aF0.5
aI0
aI1
aI1
aI1
aI0
aI0
aI1
aI1
aI3
aI-7
aa(lp39
V0021100488
p40
aVFEB 22, 2012
p41
aVIND @ CHA
p42
aVW
p43
aI4
aI0
aI0
aF0.0
aI0
aI0
aF0.0
aI0
aI0
aF0.0
aI0
aI0
aI0
aI0
aI1
aI0
aI0
aI0
aI0
aI-6
aa(lp44
V0021100504
p45
aVFEB 28, 2012
p46
aVIND vs. GSW
p47
aVW
p48
aI6
aI1
aI3
aF0.333
aI0
aI0
aF0.0
aI0
aI0
aF0.0
aI3
aI1
aI4
aI0
aI0
aI0
aI0
aI2
aI2
aI-7
aa(lp49
V0021100543
p50
aVMAR 03, 2012
p51
aVIND @ NOH
p52
aVW
p53
aI6
aI1
aI4
aF0.25
aI0
aI0
aF0.0
aI0
aI0
aF0.0
aI2
aI0
aI2
aI0
aI0
aI0
aI0
aI3
aI2
aI-12
aa(lp54
V0021100606
p55
aVMAR 11, 2012
p56
aVIND @ ORL
p57
aVL
p58
aI9
aI1
aI2
aF0.5
aI0
aI0
aF0.0
aI0
aI0
aF0.0
aI0
aI4
aI4
aI0
aI0
aI0
aI0
aI1
aI2
aI14
aa(lp59
V0021100620
p60
aVMAR 13, 2012
p61
aVIND vs. POR
p62
aVW
p63
aI6
aI0
aI0
aF0.0
aI0
aI0
aF0.0
aI0
aI0
aF0.0
aI0
aI2
aI2
aI1
aI1
aI0
aI0
aI2
aI0
aI-8
aa(lp64
V0021100645
p65
aVMAR 16, 2012
p66
aVIND @ NYK
p67
aVL
p68
aI6
aI0
aI1
aF0.0
aI0
aI0
aF0.0
aI0
aI0
aF0.0
aI0
aI4
aI4
aI1
aI0
aI0
aI0
aI1
aI0
aI12
aa(lp69
V0021100717
p70
aVMAR 24, 2012
p71
aVIND @ MIL
p72
aVW
p73
aI6
aI1
aI1
aF1.0
aI0
aI0
aF0.0
aI0
aI0
aF0.0
aI0
aI1
aI1
aI0
aI1
aI0
aI0
aI0
aI2
aI-2
aa(lp74
V0021100748
p75
aVMAR 28, 2012
p76
aVIND @ NJN
p77
aVL
p78
aI3
aI1
aI2
aF0.5
aI0
aI0
aF0.0
aI2
aI3
aF0.667
aI0
aI1
aI1
aI0
aI0
aI0
aI0
aI0
aI4
aI5
aa(lp79
V0021100800
p80
aVAPR 04, 2012
p81
aVIND @ WAS
p82
aVW
p83
aI4
aI0
aI0
aF0.0
aI0
aI0
aF0.0
aI0
aI0
aF0.0
aI0
aI1
aI1
aI0
aI0
aI0
aI0
aI0
aI0
aI-6
aa(lp84
V0021100877
p85
aVAPR 13, 2012
p86
aVIND vs. CLE
p87
aVW
p88
aI3
aI1
aI1
aF1.0
aI0
aI0
aF0.0
aI1
aI2
aF0.5
aI1
aI1
aI2
aI0
aI0
aI0
aI0
aI0
aI3
aI2
aa(lp89
V0021100905
p90
aVAPR 16, 2012
p91
aVIND vs. MIN
p92
aVW
p93
aI4
aI0
aI1
aF0.0
aI0
aI0
aF0.0
aI0
aI0
aF0.0
aI1
aI0
aI1
aI0
aI0
aI0
aI0
aI0
aI0
aI5
aa(lp94
V0021100961
p95
aVAPR 23, 2012
p96
aVIND vs. DET
p97
aVW
p98
aI18
aI5
aI10
aF0.5
aI0
aI0
aF0.0
aI0
aI0
aF0.0
aI3
aI4
aI7
aI1
aI0
aI2
aI0
aI2
aI10
aI7
aa(lp99
V0021100973
p100
aVAPR 25, 2012
p101
aVIND vs. CHI
p102
aVL
p103
aI4
aI0
aI1
aF0.0
aI0
aI0
aF0.0
aI0
aI0
aF0.0
aI0
aI0
aI0
aI0
aI0
aI0
aI0
aI0
aI0
aI7
aasS'name'
p104
VJeff Ayres
p105
sS'experience'
p106
I2
s.