(dp0
S'stats'
p1
(lp2
(lp3
V0021100144
p4
aVJAN 11, 2012
p5
aVATL @ IND
p6
aVL
p7
aI5
aI3
aI4
aF0.75
aI0
aI0
aF0.0
aI0
aI0
aF0.0
aI1
aI3
aI4
aI1
aI0
aI0
aI0
aI0
aI6
aI10
aa(lp8
V0021100154
p9
aVJAN 12, 2012
p10
aVATL vs. CHA
p11
aVW
p12
aI3
aI0
aI2
aF0.0
aI0
aI0
aF0.0
aI0
aI0
aF0.0
aI0
aI0
aI0
aI2
aI1
aI0
aI0
aI1
aI0
aI8
aa(lp13
V0021100172
p14
aVJAN 14, 2012
p15
aVATL vs. MIN
p16
aVW
p17
aI1
aI0
aI0
aF0.0
aI0
aI0
aF0.0
aI0
aI0
aF0.0
aI0
aI1
aI1
aI0
aI0
aI0
aI1
aI1
aI0
aI4
aa(lp18
V0021100217
p19
aVJAN 20, 2012
p20
aVATL @ PHI
p21
aVL
p22
aI3
aI0
aI1
aF0.0
aI0
aI1
aF0.0
aI0
aI0
aF0.0
aI0
aI0
aI0
aI0
aI0
aI0
aI0
aI0
aI0
aI0
aa(lp23
V0021100227
p24
aVJAN 21, 2012
p25
aVATL vs. CLE
p26
aVW
p27
aI6
aI0
aI1
aF0.0
aI0
aI0
aF0.0
aI0
aI0
aF0.0
aI0
aI0
aI0
aI2
aI0
aI0
aI1
aI1
aI0
aI-4
aa(lp28
V0021100397
p29
aVFEB 10, 2012
p30
aVNOH vs. POR
p31
aVL
p32
aI11
aI3
aI5
aF0.6
aI0
aI0
aF0.0
aI1
aI2
aF0.5
aI0
aI0
aI0
aI2
aI0
aI0
aI0
aI2
aI7
aI0
aa(lp33
V0021100417
p34
aVFEB 13, 2012
p35
aVNOH vs. UTA
p36
aVW
p37
aI8
aI1
aI4
aF0.25
aI0
aI0
aF0.0
aI0
aI0
aF0.0
aI1
aI1
aI2
aI2
aI1
aI0
aI2
aI0
aI2
aI-3
aa(lp38
V0021100435
p39
aVFEB 15, 2012
p40
aVNOH @ MIL
p41
aVW
p42
aI22
aI1
aI5
aF0.2
aI0
aI2
aF0.0
aI1
aI2
aF0.5
aI1
aI0
aI1
aI4
aI1
aI0
aI3
aI0
aI3
aI5
aa(lp43
V0021100662
p44
aVMAR 18, 2012
p45
aVCLE vs. ATL
p46
aVL
p47
aI1
aI0
aI0
aF0.0
aI0
aI0
aF0.0
aI0
aI0
aF0.0
aI0
aI0
aI0
aI1
aI0
aI0
aI0
aI0
aI0
aI0
aa(lp48
V0021100671
p49
aVMAR 19, 2012
p50
aVCLE @ NJN
p51
aVW
p52
aI20
aI4
aI6
aF0.667
aI1
aI1
aF1.0
aI2
aI2
aF1.0
aI1
aI2
aI3
aI1
aI0
aI0
aI0
aI4
aI11
aI7
aa(lp53
V0021100687
p54
aVMAR 21, 2012
p55
aVCLE @ ATL
p56
aVL
p57
aI11
aI1
aI3
aF0.333
aI0
aI0
aF0.0
aI0
aI0
aF0.0
aI0
aI0
aI0
aI2
aI0
aI0
aI0
aI1
aI2
aI-8
aa(lp58
V0021100701
p59
aVMAR 23, 2012
p60
aVCLE @ ORL
p61
aVL
p62
aI16
aI1
aI3
aF0.333
aI0
aI1
aF0.0
aI1
aI2
aF0.5
aI1
aI2
aI3
aI2
aI1
aI0
aI3
aI1
aI3
aI-1
aa(lp63
V0021100719
p64
aVMAR 25, 2012
p65
aVCLE vs. PHX
p66
aVL
p67
aI20
aI3
aI8
aF0.375
aI0
aI3
aF0.0
aI0
aI0
aF0.0
aI0
aI4
aI4
aI4
aI0
aI0
aI3
aI2
aI6
aI-1
aa(lp68
V0021100736
p69
aVMAR 27, 2012
p70
aVCLE @ PHI
p71
aVL
p72
aI16
aI1
aI4
aF0.25
aI0
aI2
aF0.0
aI0
aI0
aF0.0
aI0
aI3
aI3
aI3
aI1
aI0
aI2
aI2
aI2
aI-9
aa(lp73
V0021100746
p74
aVMAR 28, 2012
p75
aVCLE vs. DET
p76
aVL
p77
aI11
aI1
aI4
aF0.25
aI0
aI0
aF0.0
aI0
aI0
aF0.0
aI0
aI1
aI1
aI2
aI1
aI2
aI0
aI0
aI2
aI-2
aa(lp78
V0021100761
p79
aVMAR 30, 2012
p80
aVCLE vs. MIL
p81
aVL
p82
aI16
aI0
aI4
aF0.0
aI0
aI1
aF0.0
aI0
aI0
aF0.0
aI0
aI0
aI0
aI0
aI0
aI0
aI0
aI0
aI0
aI-27
aa(lp83
V0021100770
p84
aVMAR 31, 2012
p85
aVCLE @ NYK
p86
aVL
p87
aI35
aI5
aI10
aF0.5
aI0
aI1
aF0.0
aI0
aI0
aF0.0
aI2
aI5
aI7
aI4
aI2
aI0
aI3
aI1
aI10
aI-19
aa(lp88
V0021100792
p89
aVAPR 03, 2012
p90
aVCLE vs. SAS
p91
aVL
p92
aI15
aI1
aI4
aF0.25
aI0
aI1
aF0.0
aI0
aI0
aF0.0
aI0
aI0
aI0
aI1
aI0
aI0
aI0
aI1
aI2
aI-14
aa(lp93
V0021100804
p94
aVAPR 04, 2012
p95
aVCLE @ MIL
p96
aVL
p97
aI36
aI5
aI12
aF0.417
aI0
aI1
aF0.0
aI2
aI2
aF1.0
aI1
aI0
aI1
aI8
aI0
aI0
aI2
aI1
aI12
aI-20
aa(lp98
V0021100816
p99
aVAPR 06, 2012
p100
aVCLE @ TOR
p101
aVW
p102
aI34
aI2
aI8
aF0.25
aI0
aI1
aF0.0
aI1
aI2
aF0.5
aI2
aI5
aI7
aI2
aI1
aI0
aI0
aI0
aI5
aI-10
aa(lp103
V0021100837
p104
aVAPR 08, 2012
p105
aVCLE @ NJN
p106
aVL
p107
aI45
aI3
aI13
aF0.231
aI0
aI1
aF0.0
aI0
aI0
aF0.0
aI1
aI0
aI1
aI14
aI1
aI0
aI2
aI5
aI6
aI2
aa(lp108
V0021100854
p109
aVAPR 10, 2012
p110
aVCLE vs. CHA
p111
aVW
p112
aI29
aI2
aI5
aF0.4
aI0
aI0
aF0.0
aI0
aI0
aF0.0
aI1
aI2
aI3
aI5
aI2
aI0
aI1
aI3
aI4
aI0
aa(lp113
V0021100859
p114
aVAPR 11, 2012
p115
aVCLE vs. IND
p116
aVL
p117
aI23
aI4
aI6
aF0.667
aI0
aI0
aF0.0
aI0
aI0
aF0.0
aI0
aI0
aI0
aI6
aI0
aI0
aI0
aI1
aI8
aI-1
aa(lp118
V0021100877
p119
aVAPR 13, 2012
p120
aVCLE @ IND
p121
aVL
p122
aI31
aI5
aI9
aF0.556
aI0
aI1
aF0.0
aI2
aI2
aF1.0
aI1
aI3
aI4
aI5
aI0
aI0
aI4
aI2
aI12
aI-29
aa(lp123
V0021100887
p124
aVAPR 14, 2012
p125
aVCLE @ WAS
p126
aVW
p127
aI31
aI6
aI10
aF0.6
aI0
aI0
aF0.0
aI1
aI2
aF0.5
aI0
aI3
aI3
aI4
aI0
aI0
aI4
aI1
aI13
aI0
aa(lp128
V0021100898
p129
aVAPR 15, 2012
p130
aVCLE vs. ORL
p131
aVL
p132
aI32
aI5
aI10
aF0.5
aI1
aI3
aF0.333
aI4
aI5
aF0.8
aI1
aI3
aI4
aI5
aI0
aI0
aI3
aI1
aI15
aI-13
aa(lp133
V0021100914
p134
aVAPR 17, 2012
p135
aVCLE @ DET
p136
aVL
p137
aI28
aI3
aI8
aF0.375
aI0
aI0
aF0.0
aI0
aI0
aF0.0
aI2
aI0
aI2
aI4
aI0
aI0
aI1
aI1
aI6
aI-46
aa(lp138
V0021100920
p139
aVAPR 18, 2012
p140
aVCLE vs. PHI
p141
aVL
p142
aI29
aI2
aI5
aF0.4
aI0
aI0
aF0.0
aI0
aI0
aF0.0
aI0
aI2
aI2
aI7
aI0
aI0
aI2
aI0
aI4
aI-10
aa(lp143
V0021100939
p144
aVAPR 20, 2012
p145
aVCLE vs. NYK
p146
aVW
p147
aI22
aI3
aI9
aF0.333
aI0
aI1
aF0.0
aI0
aI0
aF0.0
aI1
aI2
aI3
aI1
aI0
aI0
aI2
aI0
aI6
aI1
aa(lp148
V0021100956
p149
aVAPR 22, 2012
p150
aVCLE @ SAS
p151
aVL
p152
aI19
aI2
aI4
aF0.5
aI0
aI1
aF0.0
aI3
aI4
aF0.75
aI0
aI1
aI1
aI0
aI0
aI0
aI2
aI1
aI7
aI-15
aa(lp153
V0021100964
p154
aVAPR 23, 2012
p155
aVCLE @ MEM
p156
aVL
p157
aI19
aI3
aI6
aF0.5
aI0
aI1
aF0.0
aI3
aI3
aF1.0
aI0
aI0
aI0
aI2
aI0
aI0
aI2
aI0
aI9
aI-9
aa(lp158
V0021100972
p159
aVAPR 25, 2012
p160
aVCLE vs. WAS
p161
aVL
p162
aI29
aI3
aI8
aF0.375
aI0
aI2
aF0.0
aI2
aI2
aF1.0
aI0
aI3
aI3
aI7
aI0
aI0
aI3
aI3
aI8
aI-7
aa(lp163
V0021100984
p164
aVAPR 26, 2012
p165
aVCLE @ CHI
p166
aVL
p167
aI42
aI6
aI17
aF0.353
aI0
aI0
aF0.0
aI0
aI0
aF0.0
aI1
aI3
aI4
aI2
aI1
aI1
aI3
aI1
aI12
aI-28
aasS'name'
p168
VDonald Sloan
p169
sS'weight'
p170
V205
p171
sS'age'
p172
I23
sS'experience'
p173
I0
sS'height'
p174
V6-3
p175
sS'position'
p176
VGuard
p177
s.