(dp0
S'age'
p1
I23
sS'stats'
p2
(lp3
(lp4
V0021100007
p5
aVDEC 26, 2011
p6
aVMIL @ CHA
p7
aVL
p8
aI11
aI2
aI2
aF1.0
aI0
aI0
aF0.0
aI0
aI0
aF0.0
aI0
aI4
aI4
aI0
aI0
aI0
aI1
aI4
aI4
aI0
aa(lp9
V0021100020
p10
aVDEC 27, 2011
p11
aVMIL vs. MIN
p12
aVW
p13
aI16
aI2
aI5
aF0.4
aI0
aI1
aF0.0
aI0
aI0
aF0.0
aI2
aI4
aI6
aI0
aI3
aI1
aI1
aI3
aI4
aI3
aa(lp14
V0021100046
p15
aVDEC 30, 2011
p16
aVMIL vs. WAS
p17
aVW
p18
aI6
aI0
aI1
aF0.0
aI0
aI0
aF0.0
aI0
aI0
aF0.0
aI0
aI2
aI2
aI1
aI0
aI1
aI0
aI2
aI0
aI2
aa(lp19
V0021100074
p20
aVJAN 02, 2012
p21
aVMIL @ DEN
p22
aVL
p23
aI3
aI0
aI0
aF0.0
aI0
aI0
aF0.0
aI0
aI0
aF0.0
aI0
aI0
aI0
aI0
aI0
aI0
aI0
aI1
aI0
aI-3
aa(lp24
V0021100080
p25
aVJAN 03, 2012
p26
aVMIL @ UTA
p27
aVL
p28
aI16
aI2
aI5
aF0.4
aI0
aI0
aF0.0
aI1
aI2
aF0.5
aI3
aI0
aI3
aI0
aI0
aI2
aI0
aI3
aI5
aI-7
aa(lp29
V0021100096
p30
aVJAN 05, 2012
p31
aVMIL @ SAC
p32
aVL
p33
aI21
aI4
aI7
aF0.571
aI0
aI0
aF0.0
aI0
aI0
aF0.0
aI0
aI3
aI3
aI4
aI2
aI1
aI1
aI4
aI8
aI10
aa(lp34
V0021100118
p35
aVJAN 07, 2012
p36
aVMIL @ LAC
p37
aVL
p38
aI12
aI0
aI1
aF0.0
aI0
aI0
aF0.0
aI2
aI2
aF1.0
aI0
aI0
aI0
aI1
aI0
aI0
aI0
aI3
aI2
aI0
aa(lp39
V0021100123
p40
aVJAN 08, 2012
p41
aVMIL @ PHX
p42
aVL
p43
aI25
aI4
aI7
aF0.571
aI0
aI0
aF0.0
aI0
aI0
aF0.0
aI3
aI4
aI7
aI3
aI0
aI1
aI3
aI4
aI8
aI6
aa(lp44
V0021100155
p45
aVJAN 12, 2012
p46
aVMIL vs. DET
p47
aVW
p48
aI6
aI0
aI2
aF0.0
aI0
aI0
aF0.0
aI0
aI0
aF0.0
aI3
aI0
aI3
aI0
aI0
aI1
aI0
aI2
aI0
aI-7
aa(lp49
V0021100165
p50
aVJAN 13, 2012
p51
aVMIL @ DAL
p52
aVL
p53
aI18
aI0
aI2
aF0.0
aI0
aI0
aF0.0
aI1
aI2
aF0.5
aI0
aI1
aI1
aI2
aI1
aI0
aI1
aI6
aI1
aI-18
aa(lp54
V0021100199
p55
aVJAN 17, 2012
p56
aVMIL vs. DEN
p57
aVL
p58
aI10
aI1
aI1
aF1.0
aI0
aI0
aF0.0
aI0
aI0
aF0.0
aI1
aI0
aI1
aI0
aI0
aI2
aI0
aI3
aI2
aI1
aa(lp59
V0021100262
p60
aVJAN 25, 2012
p61
aVMIL @ HOU
p62
aVW
p63
aI8
aI1
aI2
aF0.5
aI0
aI0
aF0.0
aI0
aI0
aF0.0
aI1
aI2
aI3
aI0
aI0
aI1
aI0
aI2
aI2
aI20
aa(lp64
V0021100277
p65
aVJAN 27, 2012
p66
aVMIL @ CHI
p67
aVL
p68
aI12
aI0
aI1
aF0.0
aI0
aI0
aF0.0
aI0
aI0
aF0.0
aI1
aI0
aI1
aI2
aI0
aI1
aI1
aI1
aI0
aI-8
aa(lp69
V0021100288
p70
aVJAN 28, 2012
p71
aVMIL vs. LAL
p72
aVW
p73
aI13
aI0
aI5
aF0.0
aI0
aI1
aF0.0
aI1
aI2
aF0.5
aI2
aI2
aI4
aI0
aI0
aI3
aI2
aI2
aI1
aI-4
aa(lp74
V0021100302
p75
aVJAN 30, 2012
p76
aVMIL vs. DET
p77
aVW
p78
aI12
aI2
aI3
aF0.667
aI0
aI0
aF0.0
aI2
aI4
aF0.5
aI1
aI2
aI3
aI0
aI0
aI0
aI1
aI4
aI6
aI14
aa(lp79
V0021100319
p80
aVFEB 01, 2012
p81
aVMIL vs. MIA
p82
aVW
p83
aI8
aI0
aI0
aF0.0
aI0
aI0
aF0.0
aI0
aI0
aF0.0
aI1
aI0
aI1
aI1
aI0
aI0
aI1
aI4
aI0
aI1
aa(lp84
V0021100336
p85
aVFEB 03, 2012
p86
aVMIL @ DET
p87
aVL
p88
aI20
aI1
aI4
aF0.25
aI0
aI0
aF0.0
aI2
aI4
aF0.5
aI1
aI2
aI3
aI1
aI0
aI0
aI1
aI3
aI4
aI7
aa(lp89
V0021100370
p90
aVFEB 07, 2012
p91
aVMIL vs. PHX
p92
aVL
p93
aI13
aI1
aI5
aF0.2
aI0
aI0
aF0.0
aI0
aI0
aF0.0
aI0
aI3
aI3
aI1
aI1
aI2
aI1
aI2
aI2
aI8
aa(lp94
V0021100373
p95
aVFEB 08, 2012
p96
aVMIL @ TOR
p97
aVW
p98
aI12
aI0
aI1
aF0.0
aI0
aI0
aF0.0
aI0
aI0
aF0.0
aI0
aI2
aI2
aI0
aI1
aI4
aI1
aI1
aI0
aI-1
aa(lp99
V0021100416
p100
aVFEB 13, 2012
p101
aVMIL vs. MIA
p102
aVL
p103
aI5
aI1
aI1
aF1.0
aI0
aI0
aF0.0
aI0
aI0
aF0.0
aI0
aI1
aI1
aI1
aI0
aI0
aI0
aI0
aI2
aI1
aa(lp104
V0021100435
p105
aVFEB 15, 2012
p106
aVMIL vs. NOH
p107
aVL
p108
aI6
aI0
aI3
aF0.0
aI0
aI0
aF0.0
aI0
aI0
aF0.0
aI3
aI1
aI4
aI0
aI1
aI3
aI1
aI1
aI0
aI-8
aa(lp109
V0021100447
p110
aVFEB 17, 2012
p111
aVMIL @ ORL
p112
aVL
p113
aI19
aI1
aI4
aF0.25
aI0
aI0
aF0.0
aI0
aI0
aF0.0
aI0
aI3
aI3
aI0
aI1
aI2
aI0
aI6
aI2
aI16
aa(lp114
V0021100465
p115
aVFEB 19, 2012
p116
aVMIL @ NJN
p117
aVW
p118
aI4
aI0
aI0
aF0.0
aI0
aI0
aF0.0
aI0
aI0
aF0.0
aI0
aI0
aI0
aI0
aI0
aI0
aI0
aI2
aI0
aI-1
aa(lp119
V0021100472
p120
aVFEB 20, 2012
p121
aVMIL vs. ORL
p122
aVL
p123
aI28
aI6
aI12
aF0.5
aI0
aI0
aF0.0
aI1
aI1
aF1.0
aI7
aI5
aI12
aI2
aI2
aI3
aI3
aI4
aI13
aI2
aa(lp124
V0021100493
p125
aVFEB 22, 2012
p126
aVMIL @ CHI
p127
aVL
p128
aI21
aI2
aI8
aF0.25
aI0
aI0
aF0.0
aI0
aI0
aF0.0
aI2
aI0
aI2
aI0
aI1
aI2
aI1
aI4
aI4
aI-4
aa(lp129
V0021100514
p130
aVFEB 29, 2012
p131
aVMIL @ BOS
p132
aVL
p133
aI13
aI4
aI7
aF0.571
aI0
aI0
aF0.0
aI0
aI0
aF0.0
aI5
aI2
aI7
aI0
aI1
aI1
aI1
aI2
aI8
aI5
aa(lp134
V0021100541
p135
aVMAR 03, 2012
p136
aVMIL @ ORL
p137
aVL
p138
aI12
aI4
aI5
aF0.8
aI0
aI0
aF0.0
aI0
aI1
aF0.0
aI0
aI1
aI1
aI0
aI0
aI2
aI0
aI4
aI8
aI10
aa(lp139
V0021100558
p140
aVMAR 05, 2012
p141
aVMIL vs. PHI
p142
aVW
p143
aI11
aI1
aI3
aF0.333
aI0
aI0
aF0.0
aI1
aI2
aF0.5
aI1
aI0
aI1
aI1
aI1
aI2
aI2
aI3
aI3
aI-5
aa(lp144
V0021100575
p145
aVMAR 07, 2012
p146
aVMIL vs. CHI
p147
aVL
p148
aI14
aI2
aI3
aF0.667
aI0
aI0
aF0.0
aI0
aI0
aF0.0
aI0
aI0
aI0
aI1
aI0
aI1
aI0
aI2
aI4
aI-4
aa(lp149
V0021100590
p150
aVMAR 09, 2012
p151
aVMIL vs. NYK
p152
aVW
p153
aI16
aI4
aI9
aF0.444
aI0
aI0
aF0.0
aI1
aI2
aF0.5
aI6
aI5
aI11
aI1
aI0
aI3
aI2
aI5
aI9
aI17
aa(lp154
V0021100605
p155
aVMAR 11, 2012
p156
aVMIL @ TOR
p157
aVW
p158
aI14
aI2
aI3
aF0.667
aI0
aI0
aF0.0
aI3
aI4
aF0.75
aI2
aI3
aI5
aI0
aI0
aI4
aI1
aI3
aI7
aI6
aa(lp159
V0021100611
p160
aVMAR 12, 2012
p161
aVMIL @ NJN
p162
aVW
p163
aI0
aI0
aI0
aF0.0
aI0
aI0
aF0.0
aI0
aI0
aF0.0
aI0
aI0
aI0
aI0
aI0
aI0
aI0
aI2
aI0
aI-4
aa(lp164
V0021100630
p165
aVMAR 14, 2012
p166
aVMIL vs. CLE
p167
aVW
p168
aI9
aI1
aI4
aF0.25
aI0
aI0
aF0.0
aI0
aI0
aF0.0
aI1
aI2
aI3
aI0
aI1
aI2
aI1
aI1
aI2
aI-5
aa(lp169
V0021100653
p170
aVMAR 16, 2012
p171
aVMIL @ GSW
p172
aVW
p173
aI4
aI0
aI1
aF0.0
aI0
aI0
aF0.0
aI0
aI0
aF0.0
aI0
aI2
aI2
aI0
aI0
aI1
aI0
aI2
aI0
aI0
aa(lp174
V0021100682
p175
aVMAR 20, 2012
p176
aVMIL @ POR
p177
aVW
p178
aI4
aI0
aI1
aF0.0
aI0
aI0
aF0.0
aI0
aI0
aF0.0
aI0
aI0
aI0
aI1
aI0
aI0
aI1
aI1
aI0
aI6
aa(lp179
V0021100694
p180
aVMAR 22, 2012
p181
aVMIL vs. BOS
p182
aVL
p183
aI2
aI1
aI1
aF1.0
aI0
aI0
aF0.0
aI0
aI0
aF0.0
aI0
aI1
aI1
aI0
aI0
aI1
aI0
aI0
aI2
aI2
aa(lp184
V0021100700
p185
aVMAR 23, 2012
p186
aVMIL @ CHA
p187
aVW
p188
aI4
aI1
aI2
aF0.5
aI0
aI0
aF0.0
aI0
aI0
aF0.0
aI0
aI1
aI1
aI0
aI0
aI0
aI0
aI0
aI2
aI-3
aa(lp189
V0021100717
p190
aVMAR 24, 2012
p191
aVMIL vs. IND
p192
aVL
p193
aI6
aI1
aI1
aF1.0
aI0
aI0
aF0.0
aI0
aI0
aF0.0
aI0
aI0
aI0
aI0
aI0
aI0
aI0
aI1
aI2
aI2
aa(lp194
V0021100737
p195
aVMAR 27, 2012
p196
aVMIL vs. ATL
p197
aVW
p198
aI14
aI2
aI5
aF0.4
aI0
aI0
aF0.0
aI0
aI0
aF0.0
aI2
aI3
aI5
aI1
aI1
aI3
aI1
aI1
aI4
aI9
aa(lp199
V0021100761
p200
aVMAR 30, 2012
p201
aVMIL @ CLE
p202
aVW
p203
aI13
aI1
aI3
aF0.333
aI0
aI0
aF0.0
aI0
aI0
aF0.0
aI0
aI4
aI4
aI0
aI0
aI0
aI0
aI2
aI2
aI17
aa(lp204
V0021100773
p205
aVMAR 31, 2012
p206
aVMIL vs. MEM
p207
aVL
p208
aI3
aI1
aI2
aF0.5
aI0
aI0
aF0.0
aI0
aI0
aF0.0
aI1
aI0
aI1
aI0
aI0
aI0
aI1
aI2
aI2
aI-7
aa(lp209
V0021100785
p210
aVAPR 02, 2012
p211
aVMIL @ WAS
p212
aVW
p213
aI3
aI1
aI2
aF0.5
aI0
aI0
aF0.0
aI0
aI0
aF0.0
aI0
aI0
aI0
aI0
aI0
aI0
aI1
aI0
aI2
aI-7
aa(lp214
V0021100804
p215
aVAPR 04, 2012
p216
aVMIL vs. CLE
p217
aVW
p218
aI13
aI2
aI2
aF1.0
aI0
aI0
aF0.0
aI0
aI2
aF0.0
aI3
aI4
aI7
aI0
aI0
aI2
aI1
aI2
aI4
aI8
aa(lp219
V0021100820
p220
aVAPR 06, 2012
p221
aVMIL vs. CHA
p222
aVW
p223
aI10
aI2
aI4
aF0.5
aI0
aI0
aF0.0
aI1
aI2
aF0.5
aI2
aI2
aI4
aI0
aI2
aI1
aI1
aI5
aI5
aI2
aa(lp224
V0021100831
p225
aVAPR 07, 2012
p226
aVMIL vs. POR
p227
aVW
p228
aI17
aI7
aI8
aF0.875
aI0
aI0
aF0.0
aI0
aI0
aF0.0
aI2
aI5
aI7
aI2
aI0
aI2
aI2
aI4
aI14
aI22
aa(lp229
V0021100845
p230
aVAPR 09, 2012
p231
aVMIL vs. OKC
p232
aVL
p233
aI14
aI1
aI3
aF0.333
aI0
aI0
aF0.0
aI0
aI0
aF0.0
aI0
aI3
aI3
aI0
aI1
aI1
aI0
aI3
aI2
aI-9
aa(lp234
V0021100861
p235
aVAPR 11, 2012
p236
aVMIL vs. NYK
p237
aVL
p238
aI12
aI2
aI2
aF1.0
aI0
aI0
aF0.0
aI0
aI0
aF0.0
aI1
aI1
aI2
aI0
aI1
aI3
aI1
aI3
aI4
aI10
aa(lp239
V0021100880
p240
aVAPR 13, 2012
p241
aVMIL @ DET
p242
aVW
p243
aI13
aI2
aI6
aF0.333
aI0
aI0
aF0.0
aI0
aI0
aF0.0
aI1
aI6
aI7
aI0
aI1
aI2
aI1
aI1
aI4
aI-1
aa(lp244
V0021100891
p245
aVAPR 14, 2012
p246
aVMIL vs. IND
p247
aVL
p248
aI25
aI3
aI3
aF1.0
aI0
aI0
aF0.0
aI2
aI6
aF0.333
aI3
aI3
aI6
aI2
aI1
aI3
aI1
aI3
aI8
aI-1
aa(lp249
V0021100932
p250
aVAPR 19, 2012
p251
aVMIL @ IND
p252
aVL
p253
aI18
aI2
aI4
aF0.5
aI0
aI0
aF0.0
aI0
aI0
aF0.0
aI1
aI3
aI4
aI2
aI2
aI4
aI1
aI6
aI4
aI4
aa(lp254
V0021100975
p255
aVAPR 25, 2012
p256
aVMIL vs. PHI
p257
aVL
p258
aI32
aI6
aI12
aF0.5
aI0
aI0
aF0.0
aI0
aI2
aF0.0
aI0
aI4
aI4
aI3
aI4
aI5
aI3
aI2
aI12
aI5
aa(lp259
V0021100979
p260
aVAPR 26, 2012
p261
aVMIL @ BOS
p262
aVL
p263
aI24
aI1
aI6
aF0.167
aI0
aI0
aF0.0
aI0
aI0
aF0.0
aI0
aI2
aI2
aI0
aI3
aI3
aI1
aI2
aI2
aI-7
aasS'name'
p264
VLarry Sanders
p265
sS'experience'
p266
I1
s.