(dp0
S'age'
p1
I23
sS'stats'
p2
(lp3
(lp4
V0021100982
p5
aVAPR 26, 2012
p6
aVNYK @ CHA
p7
aVW
p8
aI31
aI3
aI10
aF0.3
aI0
aI2
aF0.0
aI0
aI0
aF0.0
aI0
aI5
aI5
aI7
aI0
aI0
aI1
aI3
aI6
aI7
aa(lp9
V0021100974
p10
aVAPR 25, 2012
p11
aVNYK vs. LAC
p12
aVW
p13
aI22
aI4
aI8
aF0.5
aI0
aI0
aF0.0
aI0
aI1
aF0.0
aI1
aI2
aI3
aI1
aI0
aI0
aI0
aI1
aI8
aI2
aa(lp14
V0021100951
p15
aVAPR 22, 2012
p16
aVNYK @ ATL
p17
aVW
p18
aI30
aI7
aI8
aF0.875
aI3
aI3
aF1.0
aI1
aI1
aF1.0
aI1
aI3
aI4
aI1
aI1
aI0
aI0
aI3
aI18
aI6
aa(lp19
V0021100939
p20
aVAPR 20, 2012
p21
aVNYK @ CLE
p22
aVL
p23
aI22
aI4
aI10
aF0.4
aI0
aI3
aF0.0
aI0
aI2
aF0.0
aI2
aI3
aI5
aI1
aI1
aI0
aI0
aI1
aI8
aI-3
aa(lp24
V0021100921
p25
aVAPR 18, 2012
p26
aVNYK @ NJN
p27
aVW
p28
aI19
aI1
aI5
aF0.2
aI0
aI1
aF0.0
aI1
aI2
aF0.5
aI1
aI2
aI3
aI1
aI1
aI0
aI2
aI0
aI3
aI14
aa(lp29
V0021100915
p30
aVAPR 17, 2012
p31
aVNYK vs. BOS
p32
aVW
p33
aI19
aI1
aI3
aF0.333
aI0
aI0
aF0.0
aI0
aI0
aF0.0
aI0
aI5
aI5
aI2
aI0
aI0
aI0
aI4
aI2
aI-4
aa(lp34
V0021100893
p35
aVAPR 15, 2012
p36
aVNYK vs. MIA
p37
aVL
p38
aI23
aI2
aI8
aF0.25
aI0
aI1
aF0.0
aI0
aI0
aF0.0
aI0
aI2
aI2
aI3
aI0
aI0
aI2
aI1
aI4
aI-15
aa(lp39
V0021100878
p40
aVAPR 13, 2012
p41
aVNYK vs. WAS
p42
aVW
p43
aI32
aI2
aI7
aF0.286
aI0
aI0
aF0.0
aI0
aI0
aF0.0
aI0
aI7
aI7
aI4
aI2
aI2
aI1
aI3
aI4
aI36
aa(lp44
V0021100861
p45
aVAPR 11, 2012
p46
aVNYK @ MIL
p47
aVW
p48
aI31
aI5
aI7
aF0.714
aI0
aI1
aF0.0
aI1
aI2
aF0.5
aI2
aI3
aI5
aI6
aI2
aI0
aI1
aI2
aI11
aI14
aa(lp49
V0021100857
p50
aVAPR 10, 2012
p51
aVNYK @ CHI
p52
aVL
p53
aI28
aI4
aI13
aF0.308
aI0
aI2
aF0.0
aI1
aI1
aF1.0
aI0
aI4
aI4
aI0
aI1
aI1
aI1
aI0
aI9
aI1
aa(lp54
V0021100835
p55
aVAPR 08, 2012
p56
aVNYK vs. CHI
p57
aVW
p58
aI29
aI5
aI11
aF0.455
aI0
aI1
aF0.0
aI0
aI0
aF0.0
aI0
aI4
aI4
aI2
aI1
aI0
aI2
aI0
aI10
aI11
aa(lp59
V0021100811
p60
aVAPR 05, 2012
p61
aVNYK @ ORL
p62
aVW
p63
aI26
aI4
aI9
aF0.444
aI2
aI4
aF0.5
aI0
aI6
aF0.0
aI0
aI0
aI0
aI0
aI1
aI0
aI2
aI1
aI10
aI3
aa(lp64
V0021100793
p65
aVAPR 03, 2012
p66
aVNYK @ IND
p67
aVL
p68
aI23
aI5
aI8
aF0.625
aI2
aI3
aF0.667
aI3
aI4
aF0.75
aI0
aI4
aI4
aI2
aI2
aI1
aI1
aI1
aI15
aI6
aa(lp69
V0021100770
p70
aVMAR 31, 2012
p71
aVNYK vs. CLE
p72
aVW
p73
aI22
aI2
aI8
aF0.25
aI0
aI1
aF0.0
aI0
aI0
aF0.0
aI2
aI3
aI5
aI1
aI1
aI0
aI6
aI2
aI4
aI6
aa(lp74
V0021100760
p75
aVMAR 30, 2012
p76
aVNYK @ ATL
p77
aVL
p78
aI27
aI3
aI4
aF0.75
aI0
aI0
aF0.0
aI1
aI2
aF0.5
aI0
aI2
aI2
aI2
aI0
aI0
aI2
aI2
aI7
aI2
aa(lp79
V0021100744
p80
aVMAR 28, 2012
p81
aVNYK vs. ORL
p82
aVW
p83
aI28
aI3
aI6
aF0.5
aI0
aI2
aF0.0
aI0
aI0
aF0.0
aI1
aI2
aI3
aI2
aI1
aI0
aI3
aI1
aI6
aI0
aa(lp84
V0021100732
p85
aVMAR 26, 2012
p86
aVNYK vs. MIL
p87
aVW
p88
aI24
aI1
aI5
aF0.2
aI0
aI2
aF0.0
aI0
aI0
aF0.0
aI2
aI6
aI8
aI2
aI3
aI0
aI1
aI0
aI2
aI1
aa(lp89
V0021100713
p90
aVMAR 24, 2012
p91
aVNYK vs. DET
p92
aVW
p93
aI21
aI1
aI3
aF0.333
aI0
aI0
aF0.0
aI0
aI0
aF0.0
aI0
aI2
aI2
aI4
aI0
aI1
aI1
aI1
aI2
aI6
aa(lp94
V0021100699
p95
aVMAR 23, 2012
p96
aVNYK @ TOR
p97
aVL
p98
aI22
aI1
aI6
aF0.167
aI0
aI1
aF0.0
aI1
aI2
aF0.5
aI0
aI2
aI2
aI2
aI1
aI0
aI1
aI1
aI3
aI-4
aa(lp99
V0021100684
p100
aVMAR 21, 2012
p101
aVNYK @ PHI
p102
aVW
p103
aI18
aI3
aI3
aF1.0
aI0
aI0
aF0.0
aI2
aI3
aF0.667
aI0
aI2
aI2
aI1
aI0
aI0
aI0
aI2
aI8
aI0
aa(lp104
V0021100677
p105
aVMAR 20, 2012
p106
aVNYK vs. TOR
p107
aVW
p108
aI23
aI2
aI4
aF0.5
aI0
aI1
aF0.0
aI2
aI4
aF0.5
aI0
aI2
aI2
aI1
aI2
aI0
aI0
aI0
aI6
aI20
aa(lp109
V0021100656
p110
aVMAR 17, 2012
p111
aVNYK @ IND
p112
aVW
p113
aI20
aI3
aI7
aF0.429
aI0
aI2
aF0.0
aI3
aI4
aF0.75
aI1
aI2
aI3
aI0
aI1
aI0
aI1
aI1
aI9
aI-4
aa(lp114
V0021100645
p115
aVMAR 16, 2012
p116
aVNYK vs. IND
p117
aVW
p118
aI33
aI1
aI5
aF0.2
aI0
aI2
aF0.0
aI5
aI8
aF0.625
aI1
aI6
aI7
aI4
aI2
aI0
aI1
aI1
aI7
aI3
aa(lp119
V0021100628
p120
aVMAR 14, 2012
p121
aVNYK vs. POR
p122
aVW
p123
aI22
aI0
aI6
aF0.0
aI0
aI0
aF0.0
aI1
aI4
aF0.25
aI2
aI1
aI3
aI0
aI3
aI0
aI1
aI1
aI1
aI14
aa(lp124
V0021100612
p125
aVMAR 12, 2012
p126
aVNYK @ CHI
p127
aVL
p128
aI28
aI5
aI11
aF0.455
aI0
aI1
aF0.0
aI2
aI4
aF0.5
aI1
aI3
aI4
aI3
aI1
aI1
aI1
aI0
aI12
aI-5
aa(lp129
V0021100603
p130
aVMAR 11, 2012
p131
aVNYK vs. PHI
p132
aVL
p133
aI33
aI6
aI9
aF0.667
aI1
aI1
aF1.0
aI0
aI0
aF0.0
aI0
aI3
aI3
aI1
aI2
aI1
aI3
aI1
aI13
aI2
aa(lp134
V0021100590
p135
aVMAR 09, 2012
p136
aVNYK @ MIL
p137
aVL
p138
aI37
aI9
aI12
aF0.75
aI0
aI1
aF0.0
aI0
aI0
aF0.0
aI2
aI5
aI7
aI3
aI1
aI1
aI3
aI2
aI18
aI10
aa(lp139
V0021100578
p140
aVMAR 07, 2012
p141
aVNYK @ SAS
p142
aVL
p143
aI21
aI4
aI8
aF0.5
aI0
aI0
aF0.0
aI0
aI0
aF0.0
aI2
aI1
aI3
aI2
aI0
aI0
aI0
aI1
aI8
aI-6
aa(lp144
V0021100568
p145
aVMAR 06, 2012
p146
aVNYK @ DAL
p147
aVL
p148
aI20
aI2
aI5
aF0.4
aI0
aI1
aF0.0
aI0
aI0
aF0.0
aI2
aI8
aI10
aI4
aI0
aI0
aI2
aI1
aI4
aI0
aa(lp149
V0021100546
p150
aVMAR 04, 2012
p151
aVNYK @ BOS
p152
aVL
p153
aI15
aI1
aI4
aF0.25
aI1
aI1
aF1.0
aI0
aI0
aF0.0
aI0
aI1
aI1
aI1
aI0
aI0
aI2
aI1
aI3
aI-16
aa(lp154
V0021100515
p155
aVFEB 29, 2012
p156
aVNYK vs. CLE
p157
aVW
p158
aI20
aI1
aI6
aF0.167
aI0
aI1
aF0.0
aI0
aI0
aF0.0
aI0
aI1
aI1
aI3
aI1
aI0
aI0
aI0
aI2
aI-4
aa(lp159
V0021100499
p160
aVFEB 23, 2012
p161
aVNYK @ MIA
p162
aVL
p163
aI27
aI4
aI9
aF0.444
aI0
aI0
aF0.0
aI0
aI0
aF0.0
aI3
aI3
aI6
aI1
aI1
aI0
aI1
aI1
aI8
aI-6
aa(lp164
V0021100492
p165
aVFEB 22, 2012
p166
aVNYK vs. ATL
p167
aVW
p168
aI33
aI7
aI12
aF0.583
aI0
aI1
aF0.0
aI2
aI3
aF0.667
aI2
aI5
aI7
aI1
aI1
aI1
aI2
aI3
aI16
aI-1
aa(lp169
V0021100471
p170
aVFEB 20, 2012
p171
aVNYK vs. NJN
p172
aVL
p173
aI32
aI5
aI10
aF0.5
aI0
aI2
aF0.0
aI0
aI1
aF0.0
aI3
aI8
aI11
aI1
aI1
aI0
aI1
aI2
aI10
aI9
aa(lp174
V0021100460
p175
aVFEB 19, 2012
p176
aVNYK vs. DAL
p177
aVW
p178
aI27
aI6
aI12
aF0.5
aI1
aI3
aF0.333
aI0
aI0
aF0.0
aI1
aI3
aI4
aI2
aI4
aI0
aI3
aI2
aI13
aI-11
aa(lp179
V0021100450
p180
aVFEB 17, 2012
p181
aVNYK vs. NOH
p182
aVL
p183
aI34
aI1
aI8
aF0.125
aI0
aI3
aF0.0
aI2
aI4
aF0.5
aI0
aI4
aI4
aI3
aI0
aI1
aI2
aI1
aI4
aI-18
aa(lp184
V0021100433
p185
aVFEB 15, 2012
p186
aVNYK vs. SAC
p187
aVW
p188
aI30
aI6
aI8
aF0.75
aI1
aI1
aF1.0
aI2
aI2
aF1.0
aI2
aI8
aI10
aI5
aI0
aI0
aI1
aI0
aI15
aI18
aa(lp189
V0021100420
p190
aVFEB 14, 2012
p191
aVNYK @ TOR
p192
aVW
p193
aI37
aI3
aI9
aF0.333
aI1
aI2
aF0.5
aI1
aI2
aF0.5
aI3
aI4
aI7
aI7
aI0
aI0
aI1
aI0
aI8
aI3
aa(lp194
V0021100404
p195
aVFEB 11, 2012
p196
aVNYK @ MIN
p197
aVW
p198
aI35
aI8
aI10
aF0.8
aI0
aI1
aF0.0
aI3
aI4
aF0.75
aI1
aI3
aI4
aI4
aI0
aI0
aI5
aI2
aI19
aI8
aa(lp199
V0021100395
p200
aVFEB 10, 2012
p201
aVNYK vs. LAL
p202
aVW
p203
aI33
aI1
aI7
aF0.143
aI0
aI2
aF0.0
aI4
aI8
aF0.5
aI0
aI4
aI4
aI1
aI1
aI0
aI0
aI3
aI6
aI3
aa(lp204
V0021100375
p205
aVFEB 08, 2012
p206
aVNYK @ WAS
p207
aVW
p208
aI37
aI6
aI11
aF0.545
aI0
aI1
aF0.0
aI4
aI7
aF0.571
aI2
aI6
aI8
aI2
aI1
aI0
aI2
aI1
aI16
aI10
aa(lp209
V0021100361
p210
aVFEB 06, 2012
p211
aVNYK vs. UTA
p212
aVW
p213
aI43
aI3
aI7
aF0.429
aI0
aI1
aF0.0
aI0
aI2
aF0.0
aI1
aI4
aI5
aI3
aI1
aI0
aI3
aI4
aI6
aI14
aa(lp214
V0021100345
p215
aVFEB 04, 2012
p216
aVNYK vs. NJN
p217
aVW
p218
aI22
aI3
aI8
aF0.375
aI0
aI2
aF0.0
aI0
aI0
aF0.0
aI1
aI4
aI5
aI1
aI1
aI0
aI2
aI1
aI6
aI-13
aa(lp219
V0021100337
p220
aVFEB 03, 2012
p221
aVNYK @ BOS
p222
aVL
p223
aI40
aI4
aI9
aF0.444
aI1
aI4
aF0.25
aI2
aI2
aF1.0
aI2
aI0
aI2
aI4
aI3
aI1
aI0
aI0
aI11
aI-1
aa(lp224
V0021100327
p225
aVFEB 02, 2012
p226
aVNYK vs. CHI
p227
aVL
p228
aI42
aI7
aI10
aF0.7
aI3
aI5
aF0.6
aI0
aI1
aF0.0
aI0
aI0
aI0
aI4
aI1
aI0
aI0
aI3
aI17
aI4
aa(lp229
V0021100311
p230
aVJAN 31, 2012
p231
aVNYK vs. DET
p232
aVW
p233
aI31
aI7
aI10
aF0.7
aI4
aI6
aF0.667
aI0
aI0
aF0.0
aI2
aI3
aI5
aI3
aI5
aI1
aI0
aI0
aI18
aI25
aa(lp234
V0021100287
p235
aVJAN 28, 2012
p236
aVNYK @ HOU
p237
aVL
p238
aI18
aI0
aI2
aF0.0
aI0
aI1
aF0.0
aI0
aI0
aF0.0
aI1
aI2
aI3
aI1
aI1
aI0
aI0
aI0
aI0
aI-4
aa(lp239
V0021100276
p240
aVJAN 27, 2012
p241
aVNYK @ MIA
p242
aVL
p243
aI34
aI4
aI12
aF0.333
aI2
aI5
aF0.4
aI4
aI4
aF1.0
aI0
aI7
aI7
aI5
aI1
aI0
aI1
aI2
aI14
aI-1
aa(lp244
V0021100259
p245
aVJAN 25, 2012
p246
aVNYK @ CLE
p247
aVL
p248
aI33
aI5
aI7
aF0.714
aI0
aI1
aF0.0
aI3
aI4
aF0.75
aI2
aI3
aI5
aI1
aI1
aI0
aI2
aI3
aI13
aI-4
aa(lp249
V0021100252
p250
aVJAN 24, 2012
p251
aVNYK @ CHA
p252
aVW
p253
aI30
aI6
aI12
aF0.5
aI1
aI3
aF0.333
aI5
aI6
aF0.833
aI2
aI2
aI4
aI5
aI2
aI2
aI0
aI3
aI18
aI29
aa(lp254
V0021100228
p255
aVJAN 21, 2012
p256
aVNYK vs. DEN
p257
aVL
p258
aI46
aI8
aI14
aF0.571
aI1
aI4
aF0.25
aI1
aI3
aF0.333
aI2
aI1
aI3
aI7
aI2
aI0
aI4
aI3
aI18
aI-7
aa(lp259
V0021100220
p260
aVJAN 20, 2012
p261
aVNYK vs. MIL
p262
aVL
p263
aI32
aI4
aI7
aF0.571
aI1
aI3
aF0.333
aI1
aI3
aF0.333
aI0
aI2
aI2
aI3
aI1
aI0
aI3
aI0
aI10
aI-9
aa(lp264
V0021100207
p265
aVJAN 18, 2012
p266
aVNYK vs. PHX
p267
aVL
p268
aI36
aI6
aI12
aF0.5
aI0
aI4
aF0.0
aI5
aI9
aF0.556
aI0
aI6
aI6
aI4
aI2
aI0
aI3
aI2
aI17
aI-4
aa(lp269
V0021100184
p270
aVJAN 16, 2012
p271
aVNYK vs. ORL
p272
aVL
p273
aI31
aI2
aI3
aF0.667
aI0
aI0
aF0.0
aI2
aI2
aF1.0
aI0
aI6
aI6
aI4
aI0
aI0
aI1
aI2
aI6
aI8
aa(lp274
V0021100177
p275
aVJAN 14, 2012
p276
aVNYK @ OKC
p277
aVL
p278
aI31
aI1
aI7
aF0.143
aI0
aI1
aF0.0
aI1
aI2
aF0.5
aI1
aI0
aI1
aI2
aI1
aI0
aI1
aI1
aI3
aI6
aa(lp279
V0021100156
p280
aVJAN 12, 2012
p281
aVNYK @ MEM
p282
aVL
p283
aI27
aI3
aI5
aF0.6
aI1
aI1
aF1.0
aI2
aI2
aF1.0
aI1
aI5
aI6
aI2
aI2
aI0
aI3
aI2
aI9
aI9
aa(lp284
V0021100145
p285
aVJAN 11, 2012
p286
aVNYK vs. PHI
p287
aVW
p288
aI35
aI2
aI5
aF0.4
aI0
aI2
aF0.0
aI0
aI0
aF0.0
aI0
aI3
aI3
aI2
aI3
aI0
aI3
aI1
aI4
aI-5
aa(lp289
V0021100129
p290
aVJAN 09, 2012
p291
aVNYK vs. CHA
p292
aVW
p293
aI37
aI2
aI6
aF0.333
aI0
aI0
aF0.0
aI1
aI2
aF0.5
aI0
aI6
aI6
aI5
aI1
aI0
aI1
aI2
aI5
aI5
aa(lp294
V0021100113
p295
aVJAN 07, 2012
p296
aVNYK @ DET
p297
aVW
p298
aI28
aI3
aI8
aF0.375
aI1
aI4
aF0.25
aI1
aI2
aF0.5
aI1
aI4
aI5
aI2
aI2
aI0
aI3
aI0
aI8
aI29
aa(lp299
V0021100100
p300
aVJAN 06, 2012
p301
aVNYK @ WAS
p302
aVW
p303
aI18
aI1
aI2
aF0.5
aI0
aI1
aF0.0
aI0
aI0
aF0.0
aI0
aI1
aI1
aI1
aI0
aI0
aI1
aI1
aI2
aI12
aa(lp304
V0021100085
p305
aVJAN 04, 2012
p306
aVNYK vs. CHA
p307
aVL
p308
aI25
aI2
aI5
aF0.4
aI1
aI3
aF0.333
aI0
aI2
aF0.0
aI0
aI5
aI5
aI2
aI0
aI0
aI3
aI1
aI5
aI-21
aa(lp309
V0021100069
p310
aVJAN 02, 2012
p311
aVNYK vs. TOR
p312
aVL
p313
aI32
aI1
aI7
aF0.143
aI0
aI2
aF0.0
aI3
aI4
aF0.75
aI0
aI3
aI3
aI5
aI2
aI2
aI2
aI5
aI5
aI13
aa(lp314
V0021100054
p315
aVDEC 31, 2011
p316
aVNYK @ SAC
p317
aVW
p318
aI40
aI10
aI16
aF0.625
aI0
aI4
aF0.0
aI1
aI2
aF0.5
aI2
aI3
aI5
aI1
aI1
aI1
aI1
aI3
aI21
aI26
aa(lp319
V0021100038
p320
aVDEC 29, 2011
p321
aVNYK @ LAL
p322
aVL
p323
aI24
aI2
aI7
aF0.286
aI1
aI3
aF0.333
aI0
aI0
aF0.0
aI0
aI2
aI2
aI3
aI1
aI0
aI0
aI4
aI5
aI0
aa(lp324
V0021100032
p325
aVDEC 28, 2011
p326
aVNYK @ GSW
p327
aVL
p328
aI29
aI5
aI10
aF0.5
aI1
aI4
aF0.25
aI3
aI4
aF0.75
aI0
aI2
aI2
aI3
aI3
aI0
aI4
aI0
aI14
aI-5
aa(lp329
V0021100001
p330
aVDEC 25, 2011
p331
aVNYK vs. BOS
p332
aVW
p333
aI34
aI3
aI7
aF0.429
aI1
aI3
aF0.333
aI0
aI0
aF0.0
aI1
aI1
aI2
aI3
aI2
aI0
aI2
aI3
aI7
aI-11
aasS'name'
p334
VLandry Fields
p335
sS'experience'
p336
I1
s.