(dp0
S'age'
p1
I22
sS'stats'
p2
(lp3
(lp4
V0021100981
p5
aVAPR 26, 2012
p6
aVWAS vs. MIA
p7
aVW
p8
aI25
aI6
aI10
aF0.6
aI0
aI0
aF0.0
aI3
aI4
aF0.75
aI1
aI2
aI3
aI0
aI0
aI0
aI1
aI1
aI15
aI16
aa(lp9
V0021100972
p10
aVAPR 25, 2012
p11
aVWAS @ CLE
p12
aVW
p13
aI23
aI6
aI12
aF0.5
aI0
aI0
aF0.0
aI0
aI0
aF0.0
aI4
aI2
aI6
aI1
aI1
aI2
aI0
aI3
aI12
aI12
aa(lp14
V0021100960
p15
aVAPR 23, 2012
p16
aVWAS vs. CHA
p17
aVW
p18
aI27
aI6
aI11
aF0.545
aI0
aI0
aF0.0
aI0
aI0
aF0.0
aI1
aI7
aI8
aI0
aI1
aI1
aI2
aI4
aI12
aI7
aa(lp19
V0021100945
p20
aVAPR 21, 2012
p21
aVWAS @ MIA
p22
aVW
p23
aI33
aI8
aI15
aF0.533
aI0
aI0
aF0.0
aI1
aI2
aF0.5
aI3
aI3
aI6
aI1
aI0
aI1
aI2
aI5
aI17
aI-12
aa(lp24
V0021100918
p25
aVAPR 18, 2012
p26
aVWAS vs. MIL
p27
aVW
p28
aI29
aI6
aI12
aF0.5
aI0
aI0
aF0.0
aI2
aI2
aF1.0
aI1
aI4
aI5
aI0
aI0
aI0
aI1
aI2
aI14
aI3
aa(lp29
V0021100907
p30
aVAPR 16, 2012
p31
aVWAS @ CHI
p32
aVW
p33
aI43
aI10
aI19
aF0.526
aI0
aI0
aF0.0
aI1
aI3
aF0.333
aI8
aI5
aI13
aI0
aI1
aI5
aI3
aI2
aI21
aI-4
aa(lp34
V0021100887
p35
aVAPR 14, 2012
p36
aVWAS vs. CLE
p37
aVL
p38
aI35
aI6
aI12
aF0.5
aI0
aI0
aF0.0
aI3
aI4
aF0.75
aI1
aI3
aI4
aI0
aI1
aI2
aI2
aI3
aI15
aI-14
aa(lp39
V0021100878
p40
aVAPR 13, 2012
p41
aVWAS @ NYK
p42
aVL
p43
aI41
aI6
aI15
aF0.4
aI0
aI0
aF0.0
aI0
aI0
aF0.0
aI2
aI3
aI5
aI1
aI0
aI5
aI4
aI1
aI12
aI-30
aa(lp44
V0021100852
p45
aVAPR 10, 2012
p46
aVWAS vs. ORL
p47
aVW
p48
aI40
aI11
aI16
aF0.688
aI0
aI0
aF0.0
aI2
aI2
aF1.0
aI2
aI11
aI13
aI2
aI0
aI4
aI1
aI2
aI24
aI14
aa(lp49
V0021100842
p50
aVAPR 09, 2012
p51
aVWAS @ CHA
p52
aVW
p53
aI28
aI4
aI10
aF0.4
aI0
aI0
aF0.0
aI2
aI2
aF1.0
aI1
aI3
aI4
aI3
aI1
aI2
aI4
aI4
aI10
aI14
aa(lp54
V0021100817
p55
aVAPR 06, 2012
p56
aVWAS @ NJN
p57
aVL
p58
aI35
aI6
aI13
aF0.462
aI0
aI0
aF0.0
aI3
aI4
aF0.75
aI6
aI3
aI9
aI1
aI0
aI3
aI2
aI2
aI15
aI-27
aa(lp59
V0021100812
p60
aVAPR 05, 2012
p61
aVWAS @ DET
p62
aVL
p63
aI30
aI7
aI12
aF0.583
aI0
aI0
aF0.0
aI1
aI2
aF0.5
aI5
aI4
aI9
aI0
aI2
aI0
aI1
aI6
aI15
aI4
aa(lp64
V0021100800
p65
aVAPR 04, 2012
p66
aVWAS vs. IND
p67
aVL
p68
aI32
aI9
aI16
aF0.563
aI0
aI0
aF0.0
aI1
aI2
aF0.5
aI5
aI5
aI10
aI3
aI0
aI0
aI2
aI3
aI19
aI-10
aa(lp69
V0021100785
p70
aVAPR 02, 2012
p71
aVWAS vs. MIL
p72
aVL
p73
aI33
aI7
aI14
aF0.5
aI0
aI0
aF0.0
aI1
aI1
aF1.0
aI1
aI2
aI3
aI2
aI1
aI0
aI3
aI4
aI15
aI-13
aa(lp74
V0021100779
p75
aVAPR 01, 2012
p76
aVWAS @ TOR
p77
aVL
p78
aI35
aI8
aI14
aF0.571
aI0
aI0
aF0.0
aI0
aI0
aF0.0
aI3
aI4
aI7
aI2
aI1
aI0
aI1
aI3
aI16
aI-9
aa(lp79
V0021100758
p80
aVMAR 30, 2012
p81
aVWAS vs. PHI
p82
aVW
p83
aI35
aI7
aI11
aF0.636
aI0
aI0
aF0.0
aI0
aI0
aF0.0
aI3
aI4
aI7
aI3
aI0
aI2
aI4
aI2
aI14
aI19
aa(lp84
V0021100753
p85
aVMAR 29, 2012
p86
aVWAS @ IND
p87
aVL
p88
aI21
aI4
aI8
aF0.5
aI0
aI0
aF0.0
aI0
aI0
aF0.0
aI1
aI3
aI4
aI1
aI0
aI3
aI1
aI2
aI8
aI-4
aa(lp89
V0021100728
p90
aVMAR 26, 2012
p91
aVWAS vs. DET
p92
aVL
p93
aI26
aI6
aI9
aF0.667
aI0
aI0
aF0.0
aI0
aI0
aF0.0
aI3
aI2
aI5
aI0
aI0
aI1
aI4
aI4
aI12
aI1
aa(lp94
V0021100721
p95
aVMAR 25, 2012
p96
aVWAS @ BOS
p97
aVL
p98
aI37
aI6
aI15
aF0.4
aI0
aI0
aF0.0
aI3
aI6
aF0.5
aI7
aI4
aI11
aI0
aI2
aI1
aI2
aI4
aI15
aI-13
aa(lp99
V0021100711
p100
aVMAR 24, 2012
p101
aVWAS vs. ATL
p102
aVL
p103
aI15
aI2
aI5
aF0.4
aI0
aI0
aF0.0
aI0
aI0
aF0.0
aI2
aI1
aI3
aI0
aI0
aI0
aI0
aI3
aI4
aI-6
aa(lp104
V0021100693
p105
aVMAR 22, 2012
p106
aVWAS vs. IND
p107
aVL
p108
aI19
aI3
aI5
aF0.6
aI0
aI0
aF0.0
aI2
aI2
aF1.0
aI1
aI2
aI3
aI0
aI0
aI1
aI1
aI2
aI8
aI4
aa(lp109
V0021100686
p110
aVMAR 21, 2012
p111
aVWAS @ NJN
p112
aVW
p113
aI16
aI6
aI7
aF0.857
aI0
aI0
aF0.0
aI0
aI0
aF0.0
aI2
aI1
aI3
aI1
aI0
aI2
aI1
aI5
aI12
aI10
aa(lp114
V0021100664
p115
aVMAR 18, 2012
p116
aVWAS @ MEM
p117
aVL
p118
aI38
aI5
aI10
aF0.5
aI0
aI1
aF0.0
aI2
aI2
aF1.0
aI1
aI11
aI12
aI1
aI1
aI2
aI1
aI3
aI12
aI-2
aa(lp119
V0021100646
p120
aVMAR 16, 2012
p121
aVWAS @ ATL
p122
aVL
p123
aI29
aI5
aI7
aF0.714
aI0
aI0
aF0.0
aI0
aI0
aF0.0
aI2
aI5
aI7
aI1
aI0
aI4
aI2
aI2
aI10
aI-3
aa(lp124
V0021100638
p125
aVMAR 15, 2012
p126
aVWAS @ NOH
p127
aVW
p128
aI29
aI5
aI7
aF0.714
aI0
aI0
aF0.0
aI2
aI2
aF1.0
aI1
aI8
aI9
aI1
aI0
aI2
aI2
aI5
aI12
aI5
aa(lp129
V0021100614
p130
aVMAR 12, 2012
p131
aVWAS @ SAS
p132
aVL
p133
aI2
aI0
aI0
aF0.0
aI0
aI0
aF0.0
aI0
aI0
aF0.0
aI0
aI0
aI0
aI0
aI0
aI0
aI0
aI0
aI0
aI0
aa(lp134
V0021100594
p135
aVMAR 10, 2012
p136
aVWAS vs. POR
p137
aVL
p138
aI18
aI2
aI3
aF0.667
aI0
aI0
aF0.0
aI2
aI2
aF1.0
aI2
aI1
aI3
aI0
aI0
aI0
aI1
aI4
aI6
aI0
aa(lp139
V0021100571
p140
aVMAR 07, 2012
p141
aVWAS vs. LAL
p142
aVW
p143
aI25
aI7
aI8
aF0.875
aI0
aI0
aF0.0
aI0
aI0
aF0.0
aI4
aI5
aI9
aI0
aI1
aI1
aI1
aI2
aI14
aI8
aa(lp144
V0021100555
p145
aVMAR 05, 2012
p146
aVWAS vs. GSW
p147
aVL
p148
aI6
aI1
aI1
aF1.0
aI0
aI0
aF0.0
aI0
aI1
aF0.0
aI0
aI1
aI1
aI1
aI0
aI1
aI0
aI1
aI2
aI0
aa(lp149
V0021100513
p150
aVFEB 29, 2012
p151
aVWAS vs. ORL
p152
aVL
p153
aI16
aI2
aI5
aF0.4
aI0
aI0
aF0.0
aI0
aI0
aF0.0
aI0
aI2
aI2
aI0
aI0
aI2
aI0
aI1
aI4
aI-5
aa(lp154
V0021100507
p155
aVFEB 28, 2012
p156
aVWAS @ MIL
p157
aVL
p158
aI12
aI1
aI2
aF0.5
aI0
aI0
aF0.0
aI0
aI0
aF0.0
aI1
aI0
aI1
aI0
aI0
aI0
aI0
aI4
aI2
aI1
aa(lp159
V0021100487
p160
aVFEB 22, 2012
p161
aVWAS vs. SAC
p162
aVL
p163
aI23
aI3
aI3
aF1.0
aI0
aI0
aF0.0
aI0
aI2
aF0.0
aI2
aI4
aI6
aI0
aI0
aI1
aI0
aI3
aI6
aI5
aa(lp164
V0021100478
p165
aVFEB 20, 2012
p166
aVWAS @ PHX
p167
aVL
p168
aI16
aI2
aI3
aF0.667
aI0
aI0
aF0.0
aI1
aI2
aF0.5
aI1
aI3
aI4
aI0
aI0
aI2
aI0
aI0
aI5
aI-3
aa(lp169
V0021100454
p170
aVFEB 17, 2012
p171
aVWAS @ UTA
p172
aVL
p173
aI19
aI2
aI6
aF0.333
aI0
aI0
aF0.0
aI2
aI2
aF1.0
aI1
aI2
aI3
aI0
aI0
aI2
aI1
aI3
aI6
aI12
aa(lp174
V0021100441
p175
aVFEB 15, 2012
p176
aVWAS @ LAC
p177
aVL
p178
aI9
aI2
aI3
aF0.667
aI0
aI0
aF0.0
aI0
aI0
aF0.0
aI1
aI4
aI5
aI0
aI0
aI0
aI1
aI4
aI4
aI-9
aa(lp179
V0021100410
p180
aVFEB 12, 2012
p181
aVWAS @ DET
p182
aVW
p183
aI3
aI0
aI1
aF0.0
aI0
aI0
aF0.0
aI0
aI0
aF0.0
aI0
aI2
aI2
aI0
aI0
aI0
aI0
aI0
aI0
aI-4
aa(lp184
V0021100390
p185
aVFEB 10, 2012
p186
aVWAS vs. MIA
p187
aVL
p188
aI2
aI0
aI0
aF0.0
aI0
aI0
aF0.0
aI0
aI0
aF0.0
aI0
aI0
aI0
aI0
aI0
aI0
aI0
aI0
aI0
aI3
aa(lp189
V0021100375
p190
aVFEB 08, 2012
p191
aVWAS vs. NYK
p192
aVL
p193
aI9
aI1
aI5
aF0.2
aI0
aI0
aF0.0
aI0
aI0
aF0.0
aI2
aI3
aI5
aI0
aI0
aI1
aI1
aI3
aI2
aI-4
aa(lp194
V0021100358
p195
aVFEB 06, 2012
p196
aVWAS vs. TOR
p197
aVW
p198
aI24
aI0
aI1
aF0.0
aI0
aI0
aF0.0
aI0
aI2
aF0.0
aI1
aI7
aI8
aI1
aI0
aI0
aI1
aI5
aI0
aI7
aa(lp199
V0021100342
p200
aVFEB 04, 2012
p201
aVWAS vs. LAC
p202
aVL
p203
aI25
aI3
aI8
aF0.375
aI0
aI0
aF0.0
aI2
aI4
aF0.5
aI5
aI3
aI8
aI0
aI2
aI0
aI1
aI2
aI8
aI-11
aa(lp204
V0021100332
p205
aVFEB 03, 2012
p206
aVWAS @ TOR
p207
aVL
p208
aI26
aI0
aI3
aF0.0
aI0
aI0
aF0.0
aI0
aI0
aF0.0
aI0
aI2
aI2
aI1
aI0
aI4
aI0
aI3
aI0
aI-2
aa(lp209
V0021100316
p210
aVFEB 01, 2012
p211
aVWAS @ ORL
p212
aVL
p213
aI22
aI6
aI7
aF0.857
aI0
aI0
aF0.0
aI0
aI0
aF0.0
aI3
aI4
aI7
aI0
aI0
aI2
aI1
aI2
aI12
aI13
aa(lp214
V0021100300
p215
aVJAN 30, 2012
p216
aVWAS vs. CHI
p217
aVL
p218
aI14
aI2
aI3
aF0.667
aI0
aI0
aF0.0
aI0
aI0
aF0.0
aI2
aI1
aI3
aI0
aI0
aI1
aI3
aI2
aI4
aI1
aa(lp219
V0021100286
p220
aVJAN 28, 2012
p221
aVWAS @ CHA
p222
aVW
p223
aI9
aI1
aI1
aF1.0
aI0
aI0
aF0.0
aI0
aI0
aF0.0
aI0
aI2
aI2
aI1
aI0
aI0
aI0
aI1
aI2
aI-7
aa(lp224
V0021100258
p225
aVJAN 25, 2012
p226
aVWAS vs. CHA
p227
aVW
p228
aI22
aI3
aI6
aF0.5
aI0
aI0
aF0.0
aI2
aI3
aF0.667
aI3
aI4
aI7
aI1
aI0
aI1
aI2
aI3
aI8
aI2
aa(lp229
V0021100242
p230
aVJAN 23, 2012
p231
aVWAS @ PHI
p232
aVL
p233
aI18
aI2
aI4
aF0.5
aI0
aI0
aF0.0
aI2
aI2
aF1.0
aI1
aI5
aI6
aI1
aI0
aI2
aI0
aI1
aI6
aI8
aa(lp234
V0021100237
p235
aVJAN 22, 2012
p236
aVWAS vs. BOS
p237
aVL
p238
aI12
aI1
aI1
aF1.0
aI0
aI0
aF0.0
aI2
aI2
aF1.0
aI2
aI3
aI5
aI0
aI0
aI2
aI0
aI3
aI4
aI8
aa(lp239
V0021100170
p240
aVJAN 14, 2012
p241
aVWAS vs. PHI
p242
aVL
p243
aI5
aI0
aI1
aF0.0
aI0
aI0
aF0.0
aI0
aI2
aF0.0
aI1
aI1
aI2
aI0
aI0
aI0
aI0
aI1
aI0
aI-13
aa(lp244
V0021100160
p245
aVJAN 13, 2012
p246
aVWAS @ PHI
p247
aVL
p248
aI22
aI5
aI8
aF0.625
aI0
aI0
aF0.0
aI2
aI2
aF1.0
aI1
aI4
aI5
aI2
aI0
aI3
aI1
aI1
aI12
aI-10
aa(lp249
V0021100147
p250
aVJAN 11, 2012
p251
aVWAS @ CHI
p252
aVL
p253
aI9
aI0
aI4
aF0.0
aI0
aI0
aF0.0
aI0
aI0
aF0.0
aI0
aI2
aI2
aI0
aI2
aI3
aI0
aI0
aI0
aI-5
aa(lp254
V0021100120
p255
aVJAN 08, 2012
p256
aVWAS vs. MIN
p257
aVL
p258
aI6
aI0
aI1
aF0.0
aI0
aI0
aF0.0
aI0
aI0
aF0.0
aI0
aI2
aI2
aI0
aI0
aI2
aI0
aI0
aI0
aI0
aa(lp259
V0021100100
p260
aVJAN 06, 2012
p261
aVWAS vs. NYK
p262
aVL
p263
aI10
aI0
aI2
aF0.0
aI0
aI0
aF0.0
aI0
aI0
aF0.0
aI2
aI0
aI2
aI0
aI0
aI2
aI2
aI3
aI0
aI0
aa(lp264
V0021100083
p265
aVJAN 04, 2012
p266
aVWAS @ ORL
p267
aVL
p268
aI17
aI0
aI2
aF0.0
aI0
aI0
aF0.0
aI3
aI4
aF0.75
aI1
aI3
aI4
aI0
aI0
aI1
aI1
aI3
aI3
aI-1
aa(lp269
V0021100067
p270
aVJAN 02, 2012
p271
aVWAS @ BOS
p272
aVL
p273
aI14
aI2
aI4
aF0.5
aI0
aI0
aF0.0
aI0
aI0
aF0.0
aI0
aI3
aI3
aI0
aI1
aI0
aI0
aI1
aI4
aI0
aa(lp274
V0021100057
p275
aVJAN 01, 2012
p276
aVWAS vs. BOS
p277
aVL
p278
aI2
aI0
aI0
aF0.0
aI0
aI0
aF0.0
aI0
aI0
aF0.0
aI0
aI0
aI0
aI1
aI1
aI0
aI0
aI0
aI0
aI7
aa(lp279
V0021100046
p280
aVDEC 30, 2011
p281
aVWAS @ MIL
p282
aVL
p283
aI2
aI0
aI0
aF0.0
aI0
aI0
aF0.0
aI0
aI0
aF0.0
aI0
aI0
aI0
aI0
aI0
aI0
aI0
aI0
aI0
aI-2
aa(lp284
V0021100025
p285
aVDEC 28, 2011
p286
aVWAS @ ATL
p287
aVL
p288
aI3
aI0
aI1
aF0.0
aI0
aI0
aF0.0
aI0
aI0
aF0.0
aI0
aI2
aI2
aI0
aI0
aI0
aI2
aI0
aI0
aI2
aasS'name'
p289
VKevin Seraphin
p290
sS'experience'
p291
I1
s.