(dp0
S'stats'
p1
(lp2
(lp3
V0021100005
p4
aVDEC 25, 2011
p5
aVGSW vs. LAC
p6
aVL
p7
aI5
aI3
aI4
aF0.75
aI1
aI1
aF1.0
aI0
aI0
aF0.0
aI0
aI0
aI0
aI0
aI0
aI0
aI0
aI2
aI7
aI0
aa(lp8
V0021100017
p9
aVDEC 26, 2011
p10
aVGSW vs. CHI
p11
aVW
p12
aI4
aI0
aI2
aF0.0
aI0
aI0
aF0.0
aI0
aI0
aF0.0
aI0
aI0
aI0
aI0
aI0
aI0
aI0
aI1
aI0
aI0
aa(lp13
V0021100032
p14
aVDEC 28, 2011
p15
aVGSW vs. NYK
p16
aVW
p17
aI29
aI5
aI13
aF0.385
aI1
aI2
aF0.5
aI0
aI0
aF0.0
aI1
aI5
aI6
aI4
aI2
aI0
aI1
aI0
aI11
aI2
aa(lp18
V0021100056
p19
aVDEC 31, 2011
p20
aVGSW vs. PHI
p21
aVL
p22
aI24
aI4
aI11
aF0.364
aI0
aI2
aF0.0
aI1
aI2
aF0.5
aI1
aI2
aI3
aI5
aI2
aI0
aI0
aI1
aI9
aI0
aa(lp23
V0021100066
p24
aVJAN 02, 2012
p25
aVGSW @ PHX
p26
aVL
p27
aI1
aI0
aI0
aF0.0
aI0
aI0
aF0.0
aI0
aI0
aF0.0
aI0
aI0
aI0
aI0
aI0
aI0
aI0
aI0
aI0
aI2
aa(lp28
V0021100091
p29
aVJAN 04, 2012
p30
aVGSW @ SAS
p31
aVL
p32
aI0
aI0
aI0
aF0.0
aI0
aI0
aF0.0
aI0
aI0
aF0.0
aI0
aI0
aI0
aI0
aI0
aI0
aI0
aI0
aI0
aI0
aa(lp33
V0021100334
p34
aVFEB 03, 2012
p35
aVORL vs. CLE
p36
aVW
p37
aI9
aI1
aI2
aF0.5
aI0
aI0
aF0.0
aI0
aI0
aF0.0
aI1
aI1
aI2
aI4
aI1
aI0
aI0
aI5
aI2
aI-2
aa(lp38
V0021100344
p39
aVFEB 04, 2012
p40
aVORL @ IND
p41
aVW
p42
aI6
aI0
aI1
aF0.0
aI0
aI0
aF0.0
aI0
aI0
aF0.0
aI0
aI0
aI0
aI0
aI0
aI0
aI2
aI1
aI0
aI-6
aa(lp43
V0021100491
p44
aVFEB 22, 2012
p45
aVORL @ NJN
p46
aVW
p47
aI2
aI0
aI0
aF0.0
aI0
aI0
aF0.0
aI0
aI0
aF0.0
aI0
aI0
aI0
aI1
aI0
aI0
aI0
aI0
aI0
aI-5
aa(lp48
V0021100500
p49
aVFEB 23, 2012
p50
aVORL @ ATL
p51
aVL
p52
aI19
aI2
aI7
aF0.286
aI0
aI2
aF0.0
aI4
aI4
aF1.0
aI2
aI3
aI5
aI4
aI2
aI0
aI0
aI0
aI8
aI-8
aa(lp53
V0021100541
p54
aVMAR 03, 2012
p55
aVORL vs. MIL
p56
aVW
p57
aI1
aI0
aI0
aF0.0
aI0
aI0
aF0.0
aI0
aI0
aF0.0
aI0
aI0
aI0
aI0
aI1
aI0
aI0
aI0
aI0
aI0
aa(lp58
V0021100606
p59
aVMAR 11, 2012
p60
aVORL vs. IND
p61
aVW
p62
aI3
aI0
aI0
aF0.0
aI0
aI0
aF0.0
aI0
aI0
aF0.0
aI0
aI0
aI0
aI0
aI0
aI0
aI1
aI0
aI0
aI-10
aa(lp63
V0021100673
p64
aVMAR 19, 2012
p65
aVORL vs. CHI
p66
aVL
p67
aI3
aI0
aI0
aF0.0
aI0
aI0
aF0.0
aI0
aI0
aF0.0
aI0
aI0
aI0
aI1
aI0
aI0
aI0
aI0
aI0
aI-4
aa(lp68
V0021100685
p69
aVMAR 21, 2012
p70
aVORL vs. PHX
p71
aVW
p72
aI2
aI0
aI0
aF0.0
aI0
aI0
aF0.0
aI0
aI0
aF0.0
aI0
aI0
aI0
aI0
aI0
aI0
aI0
aI0
aI0
aI-6
aa(lp73
V0021100701
p74
aVMAR 23, 2012
p75
aVORL vs. CLE
p76
aVW
p77
aI2
aI0
aI0
aF0.0
aI0
aI0
aF0.0
aI0
aI0
aF0.0
aI0
aI1
aI1
aI0
aI0
aI0
aI0
aI0
aI0
aI-4
aa(lp78
V0021100727
p79
aVMAR 26, 2012
p80
aVORL @ TOR
p81
aVW
p82
aI2
aI0
aI0
aF0.0
aI0
aI0
aF0.0
aI0
aI0
aF0.0
aI0
aI0
aI0
aI0
aI0
aI0
aI0
aI0
aI0
aI-1
aa(lp83
V0021100744
p84
aVMAR 28, 2012
p85
aVORL @ NYK
p86
aVL
p87
aI3
aI0
aI1
aF0.0
aI0
aI0
aF0.0
aI0
aI0
aF0.0
aI0
aI0
aI0
aI1
aI1
aI0
aI0
aI0
aI0
aI6
aa(lp88
V0021100795
p89
aVAPR 03, 2012
p90
aVORL @ DET
p91
aVL
p92
aI14
aI2
aI4
aF0.5
aI1
aI1
aF1.0
aI0
aI0
aF0.0
aI0
aI3
aI3
aI3
aI0
aI0
aI1
aI2
aI5
aI-8
aa(lp93
V0021100811
p94
aVAPR 05, 2012
p95
aVORL vs. NYK
p96
aVL
p97
aI3
aI0
aI1
aF0.0
aI0
aI0
aF0.0
aI0
aI0
aF0.0
aI0
aI0
aI0
aI0
aI0
aI0
aI0
aI0
aI0
aI1
aa(lp98
V0021100843
p99
aVAPR 09, 2012
p100
aVORL vs. DET
p101
aVW
p102
aI19
aI3
aI7
aF0.429
aI0
aI0
aF0.0
aI0
aI0
aF0.0
aI1
aI0
aI1
aI7
aI3
aI0
aI1
aI0
aI6
aI20
aa(lp103
V0021100852
p104
aVAPR 10, 2012
p105
aVORL @ WAS
p106
aVL
p107
aI16
aI4
aI8
aF0.5
aI0
aI0
aF0.0
aI0
aI0
aF0.0
aI0
aI5
aI5
aI3
aI0
aI1
aI1
aI0
aI8
aI-3
aa(lp108
V0021100876
p109
aVAPR 13, 2012
p110
aVORL vs. ATL
p111
aVL
p112
aI18
aI3
aI6
aF0.5
aI0
aI0
aF0.0
aI0
aI0
aF0.0
aI0
aI3
aI3
aI2
aI1
aI0
aI3
aI0
aI6
aI-1
aa(lp113
V0021100950
p114
aVAPR 21, 2012
p115
aVORL @ UTA
p116
aVL
p117
aI6
aI0
aI1
aF0.0
aI0
aI0
aF0.0
aI0
aI0
aF0.0
aI0
aI0
aI0
aI1
aI0
aI0
aI0
aI0
aI0
aI2
aa(lp118
V0021100958
p119
aVAPR 22, 2012
p120
aVORL @ DEN
p121
aVL
p122
aI21
aI3
aI9
aF0.333
aI0
aI0
aF0.0
aI0
aI0
aF0.0
aI0
aI2
aI2
aI2
aI1
aI1
aI2
aI1
aI6
aI-10
aa(lp123
V0021100971
p124
aVAPR 25, 2012
p125
aVORL vs. CHA
p126
aVW
p127
aI2
aI0
aI0
aF0.0
aI0
aI0
aF0.0
aI0
aI0
aF0.0
aI0
aI0
aI0
aI0
aI0
aI0
aI0
aI0
aI0
aI-2
aa(lp128
V0021100985
p129
aVAPR 26, 2012
p130
aVORL @ MEM
p131
aVL
p132
aI21
aI1
aI4
aF0.25
aI0
aI1
aF0.0
aI2
aI4
aF0.5
aI1
aI3
aI4
aI3
aI1
aI0
aI1
aI2
aI4
aI-3
aasS'name'
p133
VIsh Smith
p134
sS'weight'
p135
V175
p136
sS'age'
p137
I23
sS'experience'
p138
I1
sS'height'
p139
V6-0
p140
sS'position'
p141
VGuard
p142
s.