(dp0
S'stats'
p1
(lp2
(lp3
V0021100031
p4
aVDEC 28, 2011
p5
aVPHI @ PHX
p6
aVW
p7
aI3
aI1
aI2
aF0.5
aI0
aI1
aF0.0
aI0
aI0
aF0.0
aI0
aI0
aI0
aI0
aI0
aI0
aI0
aI0
aI2
aI-3
aa(lp8
V0021100056
p9
aVDEC 31, 2011
p10
aVPHI @ GSW
p11
aVW
p12
aI3
aI1
aI1
aF1.0
aI1
aI1
aF1.0
aI0
aI0
aF0.0
aI0
aI0
aI0
aI1
aI0
aI0
aI1
aI1
aI3
aI2
aa(lp13
V0021100099
p14
aVJAN 06, 2012
p15
aVPHI vs. DET
p16
aVW
p17
aI2
aI0
aI0
aF0.0
aI0
aI0
aF0.0
aI0
aI0
aF0.0
aI0
aI0
aI0
aI0
aI0
aI0
aI0
aI0
aI0
aI1
aa(lp18
V0021100114
p19
aVJAN 07, 2012
p20
aVPHI vs. TOR
p21
aVW
p22
aI2
aI0
aI1
aF0.0
aI0
aI0
aF0.0
aI0
aI0
aF0.0
aI0
aI0
aI0
aI0
aI0
aI0
aI0
aI0
aI0
aI2
aa(lp23
V0021100132
p24
aVJAN 10, 2012
p25
aVPHI vs. SAC
p26
aVW
p27
aI6
aI0
aI2
aF0.0
aI0
aI2
aF0.0
aI0
aI0
aF0.0
aI0
aI1
aI1
aI0
aI0
aI0
aI0
aI0
aI0
aI-6
aa(lp28
V0021100242
p29
aVJAN 23, 2012
p30
aVPHI vs. WAS
p31
aVW
p32
aI2
aI0
aI0
aF0.0
aI0
aI0
aF0.0
aI0
aI0
aF0.0
aI0
aI0
aI0
aI0
aI0
aI0
aI0
aI0
aI0
aI2
aa(lp33
V0021100272
p34
aVJAN 27, 2012
p35
aVPHI vs. CHA
p36
aVW
p37
aI7
aI0
aI1
aF0.0
aI0
aI0
aF0.0
aI0
aI0
aF0.0
aI0
aI1
aI1
aI0
aI0
aI1
aI1
aI1
aI0
aI-9
aa(lp38
V0021100285
p39
aVJAN 28, 2012
p40
aVPHI vs. DET
p41
aVW
p42
aI3
aI0
aI1
aF0.0
aI0
aI0
aF0.0
aI0
aI0
aF0.0
aI0
aI0
aI0
aI0
aI0
aI0
aI0
aI0
aI0
aI-6
aa(lp43
V0021100570
p44
aVMAR 07, 2012
p45
aVPHI vs. BOS
p46
aVW
p47
aI4
aI1
aI3
aF0.333
aI0
aI1
aF0.0
aI0
aI0
aF0.0
aI1
aI0
aI1
aI1
aI0
aI0
aI0
aI1
aI2
aI-3
aa(lp48
V0021100736
p49
aVMAR 27, 2012
p50
aVPHI vs. CLE
p51
aVW
p52
aI1
aI1
aI2
aF0.5
aI0
aI0
aF0.0
aI0
aI0
aF0.0
aI1
aI0
aI1
aI1
aI0
aI0
aI0
aI1
aI2
aI0
aa(lp53
V0021100836
p54
aVAPR 08, 2012
p55
aVPHI @ BOS
p56
aVL
p57
aI2
aI0
aI2
aF0.0
aI0
aI0
aF0.0
aI1
aI2
aF0.5
aI1
aI1
aI2
aI0
aI0
aI0
aI0
aI0
aI1
aI-4
aa(lp58
V0021100962
p59
aVAPR 23, 2012
p60
aVPHI @ NJN
p61
aVW
p62
aI1
aI0
aI0
aF0.0
aI0
aI0
aF0.0
aI0
aI0
aF0.0
aI0
aI0
aI0
aI0
aI0
aI0
aI0
aI0
aI0
aI1
aa(lp63
V0021100975
p64
aVAPR 25, 2012
p65
aVPHI @ MIL
p66
aVW
p67
aI19
aI1
aI6
aF0.167
aI0
aI0
aF0.0
aI0
aI0
aF0.0
aI0
aI3
aI3
aI2
aI0
aI0
aI0
aI2
aI2
aI-7
aa(lp68
V0021100978
p69
aVAPR 26, 2012
p70
aVPHI @ DET
p71
aVL
p72
aI33
aI4
aI12
aF0.333
aI2
aI4
aF0.5
aI0
aI0
aF0.0
aI2
aI4
aI6
aI3
aI0
aI0
aI2
aI0
aI10
aI-21
aasS'name'
p73
VCraig Brackins
p74
sS'weight'
p75
V230
p76
sS'age'
p77
I24
sS'experience'
p78
I1
sS'height'
p79
V6-10
p80
sS'position'
p81
VForward
p82
s.