(dp0
S'age'
p1
I21
sS'stats'
p2
(lp3
(lp4
V0021100989
p5
aVAPR 26, 2012
p6
aVSAC vs. LAL
p7
aVW
p8
aI15
aI3
aI5
aF0.6
aI1
aI1
aF1.0
aI0
aI0
aF0.0
aI1
aI4
aI5
aI2
aI0
aI0
aI0
aI0
aI7
aI-4
aa(lp9
V0021100968
p10
aVAPR 24, 2012
p11
aVSAC @ OKC
p12
aVL
p13
aI0
aI0
aI0
aF0.0
aI0
aI0
aF0.0
aI0
aI0
aF0.0
aI0
aI0
aI0
aI0
aI0
aI0
aI0
aI0
aI0
aI-2
aa(lp14
V0021100953
p15
aVAPR 22, 2012
p16
aVSAC @ CHA
p17
aVW
p18
aI14
aI1
aI3
aF0.333
aI0
aI0
aF0.0
aI0
aI0
aF0.0
aI0
aI2
aI2
aI1
aI0
aI1
aI0
aI1
aI2
aI3
aa(lp19
V0021100929
p20
aVAPR 18, 2012
p21
aVSAC vs. SAS
p22
aVL
p23
aI6
aI0
aI2
aF0.0
aI0
aI0
aF0.0
aI1
aI2
aF0.5
aI0
aI1
aI1
aI0
aI0
aI1
aI0
aI0
aI1
aI-6
aa(lp24
V0021100883
p25
aVAPR 13, 2012
p26
aVSAC @ OKC
p27
aVL
p28
aI18
aI1
aI4
aF0.25
aI0
aI1
aF0.0
aI0
aI0
aF0.0
aI1
aI3
aI4
aI3
aI1
aI0
aI0
aI1
aI2
aI-9
aa(lp29
V0021100841
p30
aVAPR 08, 2012
p31
aVSAC vs. HOU
p32
aVL
p33
aI1
aI0
aI0
aF0.0
aI0
aI0
aF0.0
aI0
aI0
aF0.0
aI0
aI0
aI0
aI0
aI0
aI0
aI0
aI0
aI0
aI0
aa(lp34
V0021100833
p35
aVAPR 07, 2012
p36
aVSAC @ LAC
p37
aVL
p38
aI4
aI0
aI1
aF0.0
aI0
aI0
aF0.0
aI0
aI0
aF0.0
aI0
aI0
aI0
aI1
aI0
aI0
aI1
aI0
aI0
aI6
aa(lp39
V0021100814
p40
aVAPR 05, 2012
p41
aVSAC vs. LAC
p42
aVL
p43
aI3
aI0
aI2
aF0.0
aI0
aI1
aF0.0
aI0
aI0
aF0.0
aI0
aI0
aI0
aI0
aI0
aI0
aI0
aI0
aI0
aI-6
aa(lp44
V0021100665
p45
aVMAR 18, 2012
p46
aVSAC vs. MIN
p47
aVW
p48
aI5
aI1
aI2
aF0.5
aI0
aI0
aF0.0
aI0
aI0
aF0.0
aI0
aI0
aI0
aI0
aI0
aI0
aI0
aI0
aI2
aI3
aa(lp49
V0021100651
p50
aVMAR 16, 2012
p51
aVSAC vs. BOS
p52
aVW
p53
aI10
aI1
aI3
aF0.333
aI0
aI0
aF0.0
aI0
aI0
aF0.0
aI0
aI0
aI0
aI0
aI1
aI1
aI0
aI1
aI2
aI0
aa(lp54
V0021100593
p55
aVMAR 09, 2012
p56
aVSAC vs. DAL
p57
aVW
p58
aI3
aI0
aI0
aF0.0
aI0
aI0
aF0.0
aI0
aI0
aF0.0
aI0
aI0
aI0
aI0
aI0
aI0
aI1
aI0
aI0
aI-5
aa(lp59
V0021100483
p60
aVFEB 21, 2012
p61
aVSAC @ MIA
p62
aVL
p63
aI1
aI0
aI0
aF0.0
aI0
aI0
aF0.0
aI0
aI0
aF0.0
aI0
aI0
aI0
aI0
aI0
aI0
aI0
aI0
aI0
aI4
aa(lp64
V0021100314
p65
aVJAN 31, 2012
p66
aVSAC @ GSW
p67
aVL
p68
aI0
aI0
aI0
aF0.0
aI0
aI0
aF0.0
aI0
aI0
aF0.0
aI0
aI0
aI0
aI0
aI0
aI0
aI0
aI0
aI0
aI-2
aa(lp69
V0021100267
p70
aVJAN 25, 2012
p71
aVSAC vs. DEN
p72
aVL
p73
aI4
aI1
aI2
aF0.5
aI0
aI0
aF0.0
aI0
aI1
aF0.0
aI1
aI0
aI1
aI0
aI2
aI0
aI0
aI0
aI2
aI6
aa(lp74
V0021100054
p75
aVDEC 31, 2011
p76
aVSAC vs. NYK
p77
aVL
p78
aI4
aI0
aI0
aF0.0
aI0
aI0
aF0.0
aI2
aI2
aF1.0
aI0
aI1
aI1
aI0
aI0
aI0
aI0
aI0
aI2
aI4
aasS'name'
p79
VTyler Honeycutt
p80
sS'experience'
p81
I0
s.