(dp0
S'age'
p1
I22
sS'stats'
p2
(lp3
(lp4
V0021100990
p5
aVAPR 26, 2012
p6
aVGSW vs. SAS
p7
aVL
p8
aI26
aI8
aI13
aF0.615
aI0
aI0
aF0.0
aI0
aI0
aF0.0
aI0
aI3
aI3
aI7
aI3
aI0
aI0
aI4
aI16
aI1
aa(lp9
V0021100970
p10
aVAPR 24, 2012
p11
aVGSW vs. NOH
p12
aVL
p13
aI42
aI4
aI16
aF0.25
aI0
aI2
aF0.0
aI2
aI2
aF1.0
aI0
aI5
aI5
aI10
aI0
aI0
aI4
aI3
aI10
aI-12
aa(lp14
V0021100957
p15
aVAPR 22, 2012
p16
aVGSW @ MIN
p17
aVW
p18
aI48
aI12
aI22
aF0.545
aI0
aI0
aF0.0
aI0
aI0
aF0.0
aI0
aI6
aI6
aI9
aI0
aI0
aI3
aI3
aI24
aI5
aa(lp19
V0021100948
p20
aVAPR 21, 2012
p21
aVGSW @ HOU
p22
aVL
p23
aI40
aI5
aI13
aF0.385
aI0
aI1
aF0.0
aI6
aI6
aF1.0
aI0
aI5
aI5
aI8
aI1
aI0
aI5
aI0
aI16
aI4
aa(lp24
V0021100940
p25
aVAPR 20, 2012
p26
aVGSW @ DAL
p27
aVL
p28
aI37
aI5
aI15
aF0.333
aI0
aI0
aF0.0
aI0
aI0
aF0.0
aI0
aI1
aI1
aI10
aI3
aI0
aI4
aI3
aI10
aI-4
aa(lp29
V0021100931
p30
aVAPR 18, 2012
p31
aVGSW vs. LAL
p32
aVL
p33
aI32
aI3
aI8
aF0.375
aI0
aI1
aF0.0
aI0
aI0
aF0.0
aI0
aI1
aI1
aI11
aI1
aI0
aI1
aI3
aI6
aI-3
aa(lp34
V0021100912
p35
aVAPR 16, 2012
p36
aVGSW vs. SAS
p37
aVL
p38
aI23
aI0
aI8
aF0.0
aI0
aI0
aF0.0
aI2
aI2
aF1.0
aI0
aI2
aI2
aI4
aI1
aI0
aI2
aI5
aI2
aI-5
aa(lp39
V0021100886
p40
aVAPR 14, 2012
p41
aVGSW @ LAC
p42
aVL
p43
aI12
aI0
aI4
aF0.0
aI0
aI0
aF0.0
aI1
aI2
aF0.5
aI0
aI1
aI1
aI1
aI1
aI1
aI3
aI2
aI1
aI-20
aa(lp44
V0021100873
p45
aVAPR 12, 2012
p46
aVGSW vs. DAL
p47
aVL
p48
aI24
aI3
aI6
aF0.5
aI0
aI0
aF0.0
aI2
aI2
aF1.0
aI1
aI4
aI5
aI4
aI1
aI0
aI3
aI1
aI8
aI-6
aa(lp49
V0021100868
p50
aVAPR 11, 2012
p51
aVGSW @ POR
p52
aVL
p53
aI19
aI2
aI6
aF0.333
aI0
aI0
aF0.0
aI1
aI1
aF1.0
aI0
aI0
aI0
aI2
aI0
aI0
aI1
aI1
aI5
aI-12
aa(lp54
V0021100849
p55
aVAPR 09, 2012
p56
aVGSW @ DEN
p57
aVL
p58
aI29
aI3
aI7
aF0.429
aI0
aI0
aF0.0
aI0
aI1
aF0.0
aI1
aI0
aI1
aI5
aI2
aI1
aI0
aI3
aI6
aI-37
aa(lp59
V0021100834
p60
aVAPR 07, 2012
p61
aVGSW vs. DEN
p62
aVW
p63
aI23
aI1
aI3
aF0.333
aI0
aI1
aF0.0
aI0
aI0
aF0.0
aI0
aI2
aI2
aI8
aI1
aI0
aI2
aI2
aI2
aI-2
aa(lp64
V0021100824
p65
aVAPR 06, 2012
p66
aVGSW @ UTA
p67
aVL
p68
aI25
aI4
aI9
aF0.444
aI0
aI0
aF0.0
aI0
aI0
aF0.0
aI1
aI0
aI1
aI7
aI1
aI0
aI1
aI4
aI8
aI-2
aa(lp69
V0021100806
p70
aVAPR 04, 2012
p71
aVGSW @ MIN
p72
aVW
p73
aI33
aI8
aI13
aF0.615
aI0
aI1
aF0.0
aI3
aI6
aF0.5
aI2
aI2
aI4
aI7
aI0
aI0
aI2
aI4
aI19
aI7
aa(lp74
V0021100796
p75
aVAPR 03, 2012
p76
aVGSW @ MEM
p77
aVL
p78
aI23
aI3
aI7
aF0.429
aI0
aI0
aF0.0
aI1
aI1
aF1.0
aI0
aI3
aI3
aI2
aI1
aI1
aI1
aI0
aI7
aI-2
aa(lp79
V0021100784
p80
aVAPR 01, 2012
p81
aVGSW @ LAL
p82
aVL
p83
aI22
aI4
aI6
aF0.667
aI0
aI0
aF0.0
aI2
aI2
aF1.0
aI0
aI1
aI1
aI6
aI2
aI0
aI0
aI1
aI10
aI-7
aa(lp84
V0021100768
p85
aVMAR 30, 2012
p86
aVGSW vs. NJN
p87
aVL
p88
aI37
aI6
aI12
aF0.5
aI1
aI2
aF0.5
aI5
aI5
aF1.0
aI0
aI2
aI2
aI12
aI2
aI0
aI3
aI1
aI18
aI-7
aa(lp89
V0021100752
p90
aVMAR 28, 2012
p91
aVGSW vs. NOH
p92
aVL
p93
aI15
aI2
aI3
aF0.667
aI0
aI0
aF0.0
aI0
aI0
aF0.0
aI0
aI1
aI1
aI1
aI0
aI0
aI0
aI4
aI4
aI-1
aa(lp94
V0021100742
p95
aVMAR 27, 2012
p96
aVGSW vs. LAL
p97
aVL
p98
aI25
aI4
aI9
aF0.444
aI0
aI0
aF0.0
aI4
aI4
aF1.0
aI0
aI1
aI1
aI3
aI1
aI0
aI1
aI1
aI12
aI-8
aa(lp99
V0021100725
p100
aVMAR 25, 2012
p101
aVGSW @ POR
p102
aVL
p103
aI40
aI13
aI22
aF0.591
aI1
aI4
aF0.25
aI0
aI0
aF0.0
aI0
aI2
aI2
aI6
aI0
aI0
aI4
aI2
aI27
aI3
aa(lp104
V0021100718
p105
aVMAR 24, 2012
p106
aVGSW vs. SAC
p107
aVW
p108
aI24
aI3
aI7
aF0.429
aI0
aI1
aF0.0
aI2
aI2
aF1.0
aI0
aI0
aI0
aI3
aI0
aI0
aI3
aI2
aI8
aI-4
aa(lp109
V0021100696
p110
aVMAR 22, 2012
p111
aVGSW @ HOU
p112
aVL
p113
aI20
aI2
aI6
aF0.333
aI0
aI1
aF0.0
aI0
aI0
aF0.0
aI0
aI2
aI2
aI6
aI1
aI0
aI1
aI2
aI4
aI-6
aa(lp114
V0021100688
p115
aVMAR 21, 2012
p116
aVGSW @ NOH
p117
aVW
p118
aI19
aI1
aI5
aF0.2
aI0
aI0
aF0.0
aI0
aI0
aF0.0
aI0
aI2
aI2
aI3
aI2
aI1
aI0
aI0
aI2
aI-1
aa(lp119
V0021100675
p120
aVMAR 19, 2012
p121
aVGSW vs. MIN
p122
aVL
p123
aI11
aI0
aI1
aF0.0
aI0
aI0
aF0.0
aI0
aI0
aF0.0
aI0
aI0
aI0
aI2
aI0
aI0
aI1
aI1
aI0
aI2
aa(lp124
V0021100661
p125
aVMAR 17, 2012
p126
aVGSW @ UTA
p127
aVL
p128
aI14
aI3
aI5
aF0.6
aI0
aI0
aF0.0
aI0
aI0
aF0.0
aI0
aI2
aI2
aI0
aI0
aI0
aI1
aI1
aI6
aI-1
aa(lp129
V0021100653
p130
aVMAR 16, 2012
p131
aVGSW vs. MIL
p132
aVL
p133
aI7
aI0
aI1
aF0.0
aI0
aI0
aF0.0
aI0
aI0
aF0.0
aI0
aI1
aI1
aI1
aI0
aI0
aI1
aI0
aI0
aI-13
aa(lp134
V0021100637
p135
aVMAR 14, 2012
p136
aVGSW vs. BOS
p137
aVL
p138
aI11
aI1
aI4
aF0.25
aI0
aI2
aF0.0
aI0
aI0
aF0.0
aI0
aI0
aI0
aI2
aI0
aI0
aI3
aI1
aI2
aI-23
aa(lp139
V0021100625
p140
aVMAR 13, 2012
p141
aVGSW @ SAC
p142
aVW
p143
aI19
aI7
aI10
aF0.7
aI1
aI1
aF1.0
aI0
aI0
aF0.0
aI0
aI0
aI0
aI2
aI1
aI0
aI2
aI5
aI15
aI17
aa(lp144
V0021100610
p145
aVMAR 11, 2012
p146
aVGSW @ LAC
p147
aVW
p148
aI2
aI0
aI0
aF0.0
aI0
aI0
aF0.0
aI0
aI0
aF0.0
aI0
aI0
aI0
aI0
aI0
aI0
aI1
aI1
aI0
aI-5
aa(lp149
V0021100602
p150
aVMAR 10, 2012
p151
aVGSW vs. DAL
p152
aVW
p153
aI5
aI3
aI3
aF1.0
aI0
aI0
aF0.0
aI0
aI0
aF0.0
aI0
aI1
aI1
aI0
aI0
aI0
aI0
aI0
aI6
aI5
aa(lp154
V0021100581
p155
aVMAR 07, 2012
p156
aVGSW vs. MEM
p157
aVL
p158
aI6
aI0
aI1
aF0.0
aI0
aI0
aF0.0
aI0
aI0
aF0.0
aI0
aI0
aI0
aI2
aI0
aI0
aI0
aI0
aI0
aI3
aa(lp159
V0021100555
p160
aVMAR 05, 2012
p161
aVGSW @ WAS
p162
aVW
p163
aI2
aI0
aI0
aF0.0
aI0
aI0
aF0.0
aI0
aI0
aF0.0
aI0
aI1
aI1
aI0
aI0
aI0
aI0
aI0
aI0
aI1
aa(lp164
V0021100532
p165
aVMAR 02, 2012
p166
aVGSW @ PHI
p167
aVL
p168
aI2
aI0
aI0
aF0.0
aI0
aI0
aF0.0
aI0
aI0
aF0.0
aI0
aI0
aI0
aI1
aI0
aI0
aI0
aI0
aI0
aI-4
aa(lp169
V0021100504
p170
aVFEB 28, 2012
p171
aVGSW @ IND
p172
aVL
p173
aI18
aI0
aI5
aF0.0
aI0
aI2
aF0.0
aI2
aI2
aF1.0
aI1
aI1
aI2
aI2
aI1
aI1
aI1
aI2
aI2
aI-9
aa(lp174
V0021100453
p175
aVFEB 17, 2012
p176
aVGSW @ OKC
p177
aVL
p178
aI8
aI1
aI2
aF0.5
aI0
aI0
aF0.0
aI0
aI0
aF0.0
aI0
aI1
aI1
aI1
aI1
aI0
aI2
aI1
aI2
aI3
aa(lp179
V0021100385
p180
aVFEB 09, 2012
p181
aVGSW @ DEN
p182
aVW
p183
aI3
aI0
aI1
aF0.0
aI0
aI0
aF0.0
aI0
aI0
aF0.0
aI0
aI0
aI0
aI0
aI0
aI0
aI0
aI0
aI0
aI-12
aa(lp184
V0021100372
p185
aVFEB 07, 2012
p186
aVGSW vs. OKC
p187
aVL
p188
aI3
aI0
aI0
aF0.0
aI0
aI0
aF0.0
aI0
aI0
aF0.0
aI0
aI0
aI0
aI0
aI0
aI0
aI1
aI1
aI0
aI-13
aa(lp189
V0021100353
p190
aVFEB 04, 2012
p191
aVGSW @ SAC
p192
aVL
p193
aI0
aI0
aI0
aF0.0
aI0
aI0
aF0.0
aI0
aI0
aF0.0
aI0
aI0
aI0
aI1
aI0
aI0
aI0
aI0
aI0
aI2
aa(lp194
V0021100331
p195
aVFEB 02, 2012
p196
aVGSW vs. UTA
p197
aVW
p198
aI3
aI1
aI3
aF0.333
aI0
aI0
aF0.0
aI0
aI0
aF0.0
aI0
aI1
aI1
aI0
aI0
aI0
aI0
aI0
aI2
aI0
aa(lp199
V0021100206
p200
aVJAN 18, 2012
p201
aVGSW @ NJN
p202
aVL
p203
aI11
aI1
aI4
aF0.25
aI0
aI0
aF0.0
aI0
aI0
aF0.0
aI0
aI0
aI0
aI2
aI1
aI0
aI1
aI3
aI2
aI-8
aa(lp204
V0021100196
p205
aVJAN 17, 2012
p206
aVGSW @ CLE
p207
aVW
p208
aI12
aI2
aI4
aF0.5
aI0
aI1
aF0.0
aI0
aI0
aF0.0
aI0
aI1
aI1
aI0
aI1
aI1
aI0
aI3
aI4
aI-7
aa(lp209
V0021100181
p210
aVJAN 15, 2012
p211
aVGSW @ DET
p212
aVW
p213
aI29
aI3
aI6
aF0.5
aI0
aI0
aF0.0
aI0
aI0
aF0.0
aI1
aI3
aI4
aI5
aI0
aI0
aI0
aI3
aI6
aI6
aa(lp214
V0021100171
p215
aVJAN 14, 2012
p216
aVGSW @ CHA
p217
aVL
p218
aI22
aI2
aI2
aF1.0
aI0
aI0
aF0.0
aI1
aI1
aF1.0
aI0
aI0
aI0
aI3
aI1
aI0
aI0
aI3
aI5
aI-3
aa(lp219
V0021100158
p220
aVJAN 12, 2012
p221
aVGSW vs. ORL
p222
aVL
p223
aI13
aI4
aI7
aF0.571
aI0
aI0
aF0.0
aI0
aI0
aF0.0
aI0
aI1
aI1
aI3
aI1
aI0
aI0
aI2
aI8
aI0
aa(lp224
V0021100142
p225
aVJAN 10, 2012
p226
aVGSW vs. MIA
p227
aVW
p228
aI11
aI1
aI3
aF0.333
aI0
aI0
aF0.0
aI0
aI0
aF0.0
aI0
aI0
aI0
aI4
aI1
aI0
aI2
aI1
aI2
aI-4
aa(lp229
V0021100119
p230
aVJAN 07, 2012
p231
aVGSW vs. UTA
p232
aVL
p233
aI10
aI1
aI3
aF0.333
aI0
aI0
aF0.0
aI0
aI0
aF0.0
aI1
aI0
aI1
aI1
aI0
aI0
aI0
aI0
aI2
aI-17
aa(lp234
V0021100109
p235
aVJAN 06, 2012
p236
aVGSW @ LAL
p237
aVL
p238
aI10
aI1
aI2
aF0.5
aI0
aI0
aF0.0
aI0
aI0
aF0.0
aI0
aI1
aI1
aI0
aI0
aI0
aI0
aI1
aI2
aI-5
aa(lp239
V0021100091
p240
aVJAN 04, 2012
p241
aVGSW @ SAS
p242
aVL
p243
aI3
aI0
aI1
aF0.0
aI0
aI0
aF0.0
aI0
aI0
aF0.0
aI0
aI0
aI0
aI0
aI0
aI0
aI0
aI3
aI0
aI2
aa(lp244
V0021100066
p245
aVJAN 02, 2012
p246
aVGSW @ PHX
p247
aVL
p248
aI14
aI3
aI3
aF1.0
aI0
aI0
aF0.0
aI0
aI0
aF0.0
aI0
aI0
aI0
aI1
aI0
aI0
aI0
aI2
aI6
aI-16
aa(lp249
V0021100032
p250
aVDEC 28, 2011
p251
aVGSW vs. NYK
p252
aVW
p253
aI5
aI0
aI0
aF0.0
aI0
aI0
aF0.0
aI0
aI0
aF0.0
aI0
aI0
aI0
aI1
aI1
aI0
aI0
aI0
aI0
aI-2
aa(lp254
V0021100005
p255
aVDEC 25, 2011
p256
aVGSW vs. LAC
p257
aVL
p258
aI1
aI0
aI0
aF0.0
aI0
aI0
aF0.0
aI0
aI0
aF0.0
aI0
aI0
aI0
aI1
aI0
aI0
aI0
aI0
aI0
aI-2
aasS'name'
p259
VCharles Jenkins
p260
sS'experience'
p261
I0
s.