(dp0
S'age'
p1
I21
sS'stats'
p2
(lp3
(lp4
V0021100029
p5
aVDEC 28, 2011
p6
aVLAC @ SAS
p7
aVL
p8
aI4
aI0
aI1
aF0.0
aI0
aI0
aF0.0
aI0
aI0
aF0.0
aI0
aI2
aI2
aI0
aI0
aI0
aI0
aI0
aI0
aI1
aa(lp9
V0021100093
p10
aVJAN 04, 2012
p11
aVLAC vs. HOU
p12
aVW
p13
aI5
aI1
aI1
aF1.0
aI0
aI0
aF0.0
aI2
aI4
aF0.5
aI0
aI0
aI0
aI0
aI1
aI0
aI0
aI0
aI4
aI-2
aa(lp14
V0021100201
p15
aVJAN 17, 2012
p16
aVLAC @ UTA
p17
aVL
p18
aI10
aI1
aI6
aF0.167
aI0
aI0
aF0.0
aI0
aI0
aF0.0
aI2
aI0
aI2
aI2
aI0
aI1
aI1
aI1
aI2
aI-9
aa(lp19
V0021100238
p20
aVJAN 22, 2012
p21
aVLAC vs. TOR
p22
aVW
p23
aI3
aI0
aI0
aF0.0
aI0
aI0
aF0.0
aI0
aI0
aF0.0
aI0
aI0
aI0
aI0
aI0
aI0
aI0
aI1
aI0
aI-6
aa(lp24
V0021100330
p25
aVFEB 02, 2012
p26
aVLAC vs. DEN
p27
aVL
p28
aI6
aI0
aI2
aF0.0
aI0
aI0
aF0.0
aI0
aI0
aF0.0
aI1
aI0
aI1
aI1
aI0
aI0
aI0
aI1
aI0
aI0
aa(lp29
V0021100342
p30
aVFEB 04, 2012
p31
aVLAC @ WAS
p32
aVW
p33
aI6
aI3
aI3
aF1.0
aI0
aI0
aF0.0
aI0
aI1
aF0.0
aI2
aI1
aI3
aI0
aI0
aI1
aI0
aI0
aI6
aI-6
aa(lp34
V0021100400
p35
aVFEB 11, 2012
p36
aVLAC @ CHA
p37
aVW
p38
aI4
aI0
aI0
aF0.0
aI0
aI0
aF0.0
aI0
aI0
aF0.0
aI0
aI0
aI0
aI1
aI0
aI0
aI0
aI0
aI0
aI-1
aa(lp39
V0021100441
p40
aVFEB 15, 2012
p41
aVLAC vs. WAS
p42
aVW
p43
aI2
aI0
aI0
aF0.0
aI0
aI0
aF0.0
aI0
aI0
aF0.0
aI0
aI0
aI0
aI0
aI0
aI0
aI1
aI0
aI0
aI0
aa(lp44
V0021100676
p45
aVMAR 20, 2012
p46
aVLAC @ IND
p47
aVL
p48
aI2
aI0
aI0
aF0.0
aI0
aI0
aF0.0
aI0
aI0
aF0.0
aI0
aI0
aI0
aI1
aI0
aI0
aI0
aI0
aI0
aI1
aa(lp49
V0021100689
p50
aVMAR 21, 2012
p51
aVLAC @ OKC
p52
aVL
p53
aI4
aI0
aI1
aF0.0
aI0
aI0
aF0.0
aI2
aI4
aF0.5
aI1
aI0
aI1
aI0
aI1
aI0
aI0
aI1
aI2
aI-1
aasS'name'
p54
VTravis Leslie
p55
sS'experience'
p56
I0
s.