(dp0
S'age'
p1
I31
sS'stats'
p2
(lp3
(lp4
V0021100001
p5
aVDEC 25, 2011
p6
aVBOS @ NYK
p7
aVL
p8
aI11
aI0
aI1
aF0.0
aI0
aI0
aF0.0
aI4
aI4
aF1.0
aI0
aI1
aI1
aI3
aI0
aI0
aI2
aI2
aI4
aI-4
aa(lp9
V0021100019
p10
aVDEC 27, 2011
p11
aVBOS @ MIA
p12
aVL
p13
aI24
aI5
aI10
aF0.5
aI4
aI6
aF0.667
aI4
aI4
aF1.0
aI0
aI0
aI0
aI0
aI1
aI0
aI3
aI4
aI18
aI12
aa(lp14
V0021100028
p15
aVDEC 28, 2011
p16
aVBOS @ NOH
p17
aVL
p18
aI23
aI2
aI6
aF0.333
aI1
aI4
aF0.25
aI5
aI5
aF1.0
aI1
aI2
aI3
aI0
aI0
aI0
aI3
aI4
aI10
aI-15
aa(lp19
V0021100041
p20
aVDEC 30, 2011
p21
aVBOS vs. DET
p22
aVW
p23
aI21
aI1
aI4
aF0.25
aI1
aI4
aF0.25
aI2
aI2
aF1.0
aI0
aI1
aI1
aI5
aI0
aI0
aI1
aI3
aI5
aI0
aa(lp24
V0021100057
p25
aVJAN 01, 2012
p26
aVBOS @ WAS
p27
aVW
p28
aI17
aI2
aI3
aF0.667
aI2
aI2
aF1.0
aI0
aI2
aF0.0
aI0
aI1
aI1
aI2
aI0
aI0
aI2
aI1
aI6
aI-8
aa(lp29
V0021100067
p30
aVJAN 02, 2012
p31
aVBOS vs. WAS
p32
aVW
p33
aI13
aI1
aI3
aF0.333
aI0
aI2
aF0.0
aI0
aI0
aF0.0
aI0
aI0
aI0
aI0
aI0
aI0
aI1
aI0
aI2
aI-5
aa(lp34
V0021100084
p35
aVJAN 04, 2012
p36
aVBOS vs. NJN
p37
aVW
p38
aI31
aI2
aI6
aF0.333
aI1
aI4
aF0.25
aI0
aI0
aF0.0
aI0
aI0
aI0
aI1
aI0
aI0
aI1
aI2
aI5
aI18
aa(lp39
V0021100102
p40
aVJAN 06, 2012
p41
aVBOS vs. IND
p42
aVL
p43
aI13
aI2
aI3
aF0.667
aI0
aI1
aF0.0
aI0
aI0
aF0.0
aI0
aI2
aI2
aI1
aI0
aI1
aI1
aI2
aI4
aI-9
aa(lp44
V0021100146
p45
aVJAN 11, 2012
p46
aVBOS vs. DAL
p47
aVL
p48
aI13
aI4
aI5
aF0.8
aI1
aI2
aF0.5
aI0
aI0
aF0.0
aI0
aI0
aI0
aI0
aI1
aI0
aI4
aI2
aI9
aI-2
aa(lp49
V0021100270
p50
aVJAN 26, 2012
p51
aVBOS @ ORL
p52
aVW
p53
aI9
aI1
aI2
aF0.5
aI1
aI2
aF0.5
aI0
aI0
aF0.0
aI0
aI0
aI0
aI0
aI0
aI0
aI0
aI0
aI3
aI-12
aa(lp54
V0021100409
p55
aVFEB 12, 2012
p56
aVBOS vs. CHI
p57
aVW
p58
aI9
aI0
aI2
aF0.0
aI0
aI2
aF0.0
aI0
aI0
aF0.0
aI0
aI2
aI2
aI0
aI0
aI0
aI0
aI0
aI0
aI-6
aa(lp59
V0021100431
p60
aVFEB 15, 2012
p61
aVBOS vs. DET
p62
aVL
p63
aI15
aI2
aI4
aF0.5
aI0
aI0
aF0.0
aI0
aI3
aF0.0
aI0
aI0
aI0
aI0
aI0
aI0
aI0
aI2
aI4
aI-8
aa(lp64
V0021100443
p65
aVFEB 16, 2012
p66
aVBOS @ CHI
p67
aVL
p68
aI9
aI0
aI1
aF0.0
aI0
aI0
aF0.0
aI2
aI2
aF1.0
aI0
aI0
aI0
aI0
aI0
aI0
aI0
aI1
aI2
aI-3
aa(lp69
V0021100462
p70
aVFEB 19, 2012
p71
aVBOS @ DET
p72
aVL
p73
aI14
aI1
aI4
aF0.25
aI1
aI3
aF0.333
aI1
aI2
aF0.5
aI0
aI0
aI0
aI1
aI1
aI0
aI0
aI2
aI4
aI-8
aa(lp74
V0021100474
p75
aVFEB 20, 2012
p76
aVBOS @ DAL
p77
aVL
p78
aI17
aI1
aI3
aF0.333
aI1
aI2
aF0.5
aI0
aI0
aF0.0
aI0
aI1
aI1
aI3
aI0
aI0
aI1
aI1
aI3
aI-1
aa(lp79
V0021100490
p80
aVFEB 22, 2012
p81
aVBOS @ OKC
p82
aVL
p83
aI16
aI1
aI4
aF0.25
aI1
aI3
aF0.333
aI0
aI0
aF0.0
aI0
aI0
aI0
aI1
aI1
aI0
aI1
aI0
aI3
aI-13
aa(lp84
V0021100503
p85
aVFEB 28, 2012
p86
aVBOS @ CLE
p87
aVW
p88
aI11
aI0
aI3
aF0.0
aI0
aI0
aF0.0
aI0
aI0
aF0.0
aI0
aI3
aI3
aI1
aI0
aI0
aI1
aI1
aI0
aI-1
aa(lp89
V0021100514
p90
aVFEB 29, 2012
p91
aVBOS vs. MIL
p92
aVW
p93
aI14
aI2
aI6
aF0.333
aI1
aI4
aF0.25
aI3
aI4
aF0.75
aI0
aI1
aI1
aI1
aI0
aI0
aI1
aI1
aI8
aI3
aa(lp94
V0021100529
p95
aVMAR 02, 2012
p96
aVBOS vs. NJN
p97
aVW
p98
aI26
aI2
aI10
aF0.2
aI0
aI5
aF0.0
aI0
aI0
aF0.0
aI0
aI0
aI0
aI5
aI1
aI0
aI1
aI2
aI4
aI-12
aa(lp99
V0021100546
p100
aVMAR 04, 2012
p101
aVBOS vs. NYK
p102
aVW
p103
aI9
aI1
aI2
aF0.5
aI0
aI0
aF0.0
aI0
aI0
aF0.0
aI0
aI0
aI0
aI1
aI1
aI0
aI1
aI0
aI2
aI-8
aa(lp104
V0021100565
p105
aVMAR 06, 2012
p106
aVBOS vs. HOU
p107
aVW
p108
aI8
aI0
aI2
aF0.0
aI0
aI1
aF0.0
aI0
aI0
aF0.0
aI0
aI0
aI0
aI1
aI0
aI0
aI1
aI1
aI0
aI-3
aa(lp109
V0021100570
p110
aVMAR 07, 2012
p111
aVBOS @ PHI
p112
aVL
p113
aI16
aI1
aI3
aF0.333
aI0
aI1
aF0.0
aI0
aI0
aF0.0
aI0
aI2
aI2
aI1
aI0
aI0
aI0
aI0
aI2
aI-16
aa(lp114
V0021100586
p115
aVMAR 09, 2012
p116
aVBOS vs. POR
p117
aVW
p118
aI15
aI2
aI5
aF0.4
aI0
aI2
aF0.0
aI0
aI0
aF0.0
aI0
aI2
aI2
aI1
aI0
aI0
aI0
aI3
aI4
aI-3
aa(lp119
V0021100604
p120
aVMAR 11, 2012
p121
aVBOS @ LAL
p122
aVL
p123
aI9
aI0
aI3
aF0.0
aI0
aI1
aF0.0
aI0
aI0
aF0.0
aI0
aI0
aI0
aI0
aI0
aI0
aI0
aI0
aI0
aI-5
aa(lp124
V0021100617
p125
aVMAR 12, 2012
p126
aVBOS @ LAC
p127
aVW
p128
aI4
aI0
aI0
aF0.0
aI0
aI0
aF0.0
aI0
aI0
aF0.0
aI0
aI0
aI0
aI0
aI0
aI0
aI0
aI0
aI0
aI-4
aa(lp129
V0021100637
p130
aVMAR 14, 2012
p131
aVBOS @ GSW
p132
aVW
p133
aI8
aI1
aI1
aF1.0
aI0
aI0
aF0.0
aI0
aI0
aF0.0
aI0
aI0
aI0
aI1
aI1
aI0
aI0
aI0
aI2
aI11
aa(lp134
V0021100651
p135
aVMAR 16, 2012
p136
aVBOS @ SAC
p137
aVL
p138
aI14
aI0
aI0
aF0.0
aI0
aI0
aF0.0
aI0
aI0
aF0.0
aI0
aI1
aI1
aI2
aI0
aI0
aI0
aI0
aI0
aI-3
aa(lp139
V0021100660
p140
aVMAR 17, 2012
p141
aVBOS @ DEN
p142
aVL
p143
aI6
aI0
aI0
aF0.0
aI0
aI0
aF0.0
aI0
aI0
aF0.0
aI0
aI0
aI0
aI0
aI0
aI0
aI0
aI2
aI0
aI-4
aa(lp144
V0021100672
p145
aVMAR 19, 2012
p146
aVBOS @ ATL
p147
aVW
p148
aI6
aI0
aI1
aF0.0
aI0
aI1
aF0.0
aI0
aI0
aF0.0
aI0
aI1
aI1
aI0
aI0
aI0
aI1
aI1
aI0
aI-3
aa(lp149
V0021100694
p150
aVMAR 22, 2012
p151
aVBOS @ MIL
p152
aVW
p153
aI14
aI4
aI4
aF1.0
aI0
aI0
aF0.0
aI0
aI0
aF0.0
aI0
aI0
aI0
aI2
aI0
aI0
aI0
aI0
aI8
aI3
aa(lp154
V0021100705
p155
aVMAR 23, 2012
p156
aVBOS @ PHI
p157
aVL
p158
aI20
aI1
aI3
aF0.333
aI0
aI2
aF0.0
aI0
aI0
aF0.0
aI0
aI2
aI2
aI1
aI0
aI1
aI1
aI1
aI2
aI-7
aa(lp159
V0021100721
p160
aVMAR 25, 2012
p161
aVBOS vs. WAS
p162
aVW
p163
aI17
aI2
aI4
aF0.5
aI0
aI1
aF0.0
aI0
aI0
aF0.0
aI0
aI2
aI2
aI1
aI1
aI0
aI0
aI2
aI4
aI11
aa(lp164
V0021100729
p165
aVMAR 26, 2012
p166
aVBOS @ CHA
p167
aVW
p168
aI16
aI1
aI2
aF0.5
aI1
aI1
aF1.0
aI0
aI0
aF0.0
aI0
aI1
aI1
aI1
aI0
aI0
aI0
aI3
aI3
aI-8
aa(lp169
V0021100747
p170
aVMAR 28, 2012
p171
aVBOS vs. UTA
p172
aVW
p173
aI17
aI3
aI6
aF0.5
aI1
aI2
aF0.5
aI0
aI0
aF0.0
aI1
aI1
aI2
aI3
aI1
aI0
aI2
aI3
aI7
aI10
aa(lp174
V0021100765
p175
aVMAR 30, 2012
p176
aVBOS @ MIN
p177
aVW
p178
aI19
aI3
aI7
aF0.429
aI2
aI4
aF0.5
aI0
aI0
aF0.0
aI0
aI1
aI1
aI3
aI0
aI0
aI0
aI2
aI8
aI2
aa(lp179
V0021100778
p180
aVAPR 01, 2012
p181
aVBOS vs. MIA
p182
aVW
p183
aI20
aI2
aI4
aF0.5
aI1
aI3
aF0.333
aI0
aI0
aF0.0
aI0
aI1
aI1
aI1
aI0
aI0
aI2
aI1
aI5
aI-3
aa(lp184
V0021100801
p185
aVAPR 04, 2012
p186
aVBOS vs. SAS
p187
aVL
p188
aI10
aI0
aI2
aF0.0
aI0
aI0
aF0.0
aI0
aI0
aF0.0
aI0
aI1
aI1
aI0
aI1
aI0
aI0
aI0
aI0
aI0
aa(lp189
V0021100813
p190
aVAPR 05, 2012
p191
aVBOS @ CHI
p192
aVL
p193
aI2
aI0
aI0
aF0.0
aI0
aI0
aF0.0
aI0
aI0
aF0.0
aI0
aI0
aI0
aI0
aI0
aI0
aI1
aI0
aI0
aI-4
aa(lp194
V0021100860
p195
aVAPR 11, 2012
p196
aVBOS vs. ATL
p197
aVW
p198
aI4
aI0
aI0
aF0.0
aI0
aI0
aF0.0
aI0
aI0
aF0.0
aI0
aI1
aI1
aI0
aI0
aI0
aI0
aI0
aI0
aI1
aa(lp199
V0021100874
p200
aVAPR 13, 2012
p201
aVBOS @ TOR
p202
aVL
p203
aI8
aI1
aI3
aF0.333
aI0
aI2
aF0.0
aI2
aI2
aF1.0
aI0
aI0
aI0
aI2
aI1
aI0
aI0
aI2
aI4
aI-2
aa(lp204
V0021100895
p205
aVAPR 15, 2012
p206
aVBOS @ CHA
p207
aVW
p208
aI14
aI1
aI4
aF0.25
aI0
aI0
aF0.0
aI0
aI0
aF0.0
aI0
aI1
aI1
aI1
aI0
aI0
aI0
aI0
aI2
aI-2
aa(lp209
V0021100915
p210
aVAPR 17, 2012
p211
aVBOS @ NYK
p212
aVL
p213
aI16
aI1
aI5
aF0.2
aI0
aI3
aF0.0
aI0
aI0
aF0.0
aI0
aI0
aI0
aI0
aI0
aI0
aI1
aI0
aI2
aI-12
aa(lp214
V0021100924
p215
aVAPR 18, 2012
p216
aVBOS vs. ORL
p217
aVW
p218
aI23
aI1
aI3
aF0.333
aI1
aI2
aF0.5
aI0
aI0
aF0.0
aI0
aI1
aI1
aI0
aI0
aI0
aI1
aI1
aI3
aI10
aa(lp219
V0021100938
p220
aVAPR 20, 2012
p221
aVBOS @ ATL
p222
aVL
p223
aI32
aI7
aI10
aF0.7
aI3
aI4
aF0.75
aI0
aI0
aF0.0
aI0
aI2
aI2
aI3
aI1
aI0
aI0
aI3
aI17
aI-15
aa(lp224
V0021100967
p225
aVAPR 24, 2012
p226
aVBOS vs. MIA
p227
aVW
p228
aI19
aI3
aI5
aF0.6
aI1
aI3
aF0.333
aI0
aI1
aF0.0
aI1
aI2
aI3
aI2
aI0
aI0
aI0
aI1
aI7
aI5
aa(lp229
V0021100979
p230
aVAPR 26, 2012
p231
aVBOS vs. MIL
p232
aVW
p233
aI11
aI2
aI4
aF0.5
aI2
aI2
aF1.0
aI0
aI0
aF0.0
aI0
aI0
aI0
aI0
aI1
aI0
aI0
aI1
aI6
aI1
aasS'name'
p234
VKeyon Dooling
p235
sS'experience'
p236
I11
s.