(dp0
S'age'
p1
I31
sS'stats'
p2
(lp3
(lp4
V0021100003
p5
aVDEC 25, 2011
p6
aVLAL vs. CHI
p7
aVL
p8
aI38
aI6
aI14
aF0.429
aI0
aI2
aF0.0
aI2
aI6
aF0.333
aI2
aI6
aI8
aI3
aI0
aI3
aI1
aI4
aI14
aI5
aa(lp9
V0021100015
p10
aVDEC 26, 2011
p11
aVLAL @ SAC
p12
aVL
p13
aI33
aI7
aI12
aF0.583
aI0
aI0
aF0.0
aI1
aI2
aF0.5
aI4
aI5
aI9
aI3
aI1
aI0
aI2
aI5
aI15
aI1
aa(lp14
V0021100022
p15
aVDEC 27, 2011
p16
aVLAL vs. UTA
p17
aVW
p18
aI37
aI6
aI11
aF0.545
aI0
aI0
aF0.0
aI10
aI12
aF0.833
aI2
aI7
aI9
aI0
aI2
aI5
aI3
aI2
aI22
aI24
aa(lp19
V0021100038
p20
aVDEC 29, 2011
p21
aVLAL vs. NYK
p22
aVW
p23
aI36
aI7
aI12
aF0.583
aI0
aI0
aF0.0
aI2
aI2
aF1.0
aI1
aI9
aI10
aI5
aI0
aI2
aI1
aI4
aI16
aI16
aa(lp24
V0021100050
p25
aVDEC 31, 2011
p26
aVLAL vs. DEN
p27
aVW
p28
aI36
aI7
aI10
aF0.7
aI0
aI1
aF0.0
aI3
aI4
aF0.75
aI1
aI4
aI5
aI1
aI1
aI1
aI3
aI1
aI17
aI3
aa(lp29
V0021100063
p30
aVJAN 01, 2012
p31
aVLAL @ DEN
p32
aVL
p33
aI36
aI8
aI15
aF0.533
aI0
aI0
aF0.0
aI4
aI4
aF1.0
aI4
aI7
aI11
aI2
aI0
aI1
aI3
aI1
aI20
aI-8
aa(lp34
V0021100081
p35
aVJAN 03, 2012
p36
aVLAL vs. HOU
p37
aVW
p38
aI36
aI7
aI11
aF0.636
aI0
aI0
aF0.0
aI0
aI0
aF0.0
aI1
aI7
aI8
aI1
aI0
aI0
aI3
aI2
aI14
aI1
aa(lp39
V0021100097
p40
aVJAN 05, 2012
p41
aVLAL @ POR
p42
aVL
p43
aI31
aI7
aI10
aF0.7
aI0
aI0
aF0.0
aI5
aI5
aF1.0
aI3
aI4
aI7
aI1
aI0
aI2
aI1
aI2
aI19
aI-2
aa(lp44
V0021100109
p45
aVJAN 06, 2012
p46
aVLAL vs. GSW
p47
aVW
p48
aI37
aI8
aI15
aF0.533
aI0
aI0
aF0.0
aI1
aI2
aF0.5
aI5
aI6
aI11
aI3
aI3
aI3
aI3
aI1
aI17
aI8
aa(lp49
V0021100125
p50
aVJAN 08, 2012
p51
aVLAL vs. MEM
p52
aVW
p53
aI40
aI5
aI8
aF0.625
aI0
aI0
aF0.0
aI3
aI4
aF0.75
aI2
aI13
aI15
aI4
aI1
aI1
aI1
aI0
aI13
aI8
aa(lp54
V0021100141
p55
aVJAN 10, 2012
p56
aVLAL vs. PHX
p57
aVW
p58
aI39
aI7
aI13
aF0.538
aI0
aI0
aF0.0
aI2
aI2
aF1.0
aI4
aI8
aI12
aI2
aI0
aI0
aI3
aI1
aI16
aI18
aa(lp59
V0021100151
p60
aVJAN 11, 2012
p61
aVLAL @ UTA
p62
aVW
p63
aI47
aI5
aI14
aF0.357
aI1
aI1
aF1.0
aI3
aI4
aF0.75
aI3
aI8
aI11
aI1
aI0
aI0
aI5
aI1
aI14
aI9
aa(lp64
V0021100169
p65
aVJAN 13, 2012
p66
aVLAL vs. CLE
p67
aVW
p68
aI37
aI9
aI16
aF0.563
aI0
aI1
aF0.0
aI1
aI2
aF0.5
aI0
aI10
aI10
aI4
aI1
aI1
aI0
aI3
aI19
aI-3
aa(lp69
V0021100180
p70
aVJAN 14, 2012
p71
aVLAL @ LAC
p72
aVL
p73
aI40
aI7
aI17
aF0.412
aI0
aI1
aF0.0
aI0
aI0
aF0.0
aI1
aI9
aI10
aI3
aI0
aI1
aI0
aI4
aI14
aI-15
aa(lp74
V0021100194
p75
aVJAN 16, 2012
p76
aVLAL vs. DAL
p77
aVW
p78
aI35
aI3
aI11
aF0.273
aI0
aI0
aF0.0
aI2
aI2
aF1.0
aI1
aI5
aI6
aI2
aI0
aI1
aI0
aI1
aI8
aI1
aa(lp79
V0021100213
p80
aVJAN 19, 2012
p81
aVLAL @ MIA
p82
aVL
p83
aI37
aI11
aI19
aF0.579
aI1
aI4
aF0.25
aI3
aI3
aF1.0
aI4
aI4
aI8
aI2
aI0
aI1
aI1
aI1
aI26
aI-1
aa(lp84
V0021100223
p85
aVJAN 20, 2012
p86
aVLAL @ ORL
p87
aVL
p88
aI41
aI4
aI12
aF0.333
aI0
aI1
aF0.0
aI5
aI6
aF0.833
aI1
aI9
aI10
aI3
aI0
aI0
aI1
aI2
aI13
aI-5
aa(lp89
V0021100241
p90
aVJAN 22, 2012
p91
aVLAL vs. IND
p92
aVL
p93
aI36
aI4
aI12
aF0.333
aI0
aI0
aF0.0
aI0
aI0
aF0.0
aI4
aI4
aI8
aI10
aI1
aI3
aI0
aI0
aI8
aI-3
aa(lp94
V0021100268
p95
aVJAN 25, 2012
p96
aVLAL vs. LAC
p97
aVW
p98
aI41
aI9
aI13
aF0.692
aI0
aI0
aF0.0
aI5
aI8
aF0.625
aI3
aI7
aI10
aI4
aI1
aI1
aI3
aI4
aI23
aI3
aa(lp99
V0021100288
p100
aVJAN 28, 2012
p101
aVLAL @ MIL
p102
aVL
p103
aI39
aI6
aI18
aF0.333
aI0
aI1
aF0.0
aI0
aI0
aF0.0
aI7
aI8
aI15
aI5
aI1
aI1
aI1
aI1
aI12
aI-12
aa(lp104
V0021100297
p105
aVJAN 29, 2012
p106
aVLAL @ MIN
p107
aVW
p108
aI42
aI11
aI15
aF0.733
aI0
aI0
aF0.0
aI6
aI6
aF1.0
aI1
aI5
aI6
aI3
aI0
aI0
aI0
aI4
aI28
aI3
aa(lp109
V0021100313
p110
aVJAN 31, 2012
p111
aVLAL vs. CHA
p112
aVW
p113
aI29
aI5
aI12
aF0.417
aI0
aI0
aF0.0
aI0
aI0
aF0.0
aI3
aI6
aI9
aI3
aI0
aI0
aI1
aI1
aI10
aI10
aa(lp114
V0021100341
p115
aVFEB 03, 2012
p116
aVLAL @ DEN
p117
aVW
p118
aI36
aI5
aI10
aF0.5
aI0
aI0
aF0.0
aI3
aI4
aF0.75
aI3
aI14
aI17
aI4
aI0
aI1
aI2
aI1
aI13
aI6
aa(lp119
V0021100351
p120
aVFEB 04, 2012
p121
aVLAL @ UTA
p122
aVL
p123
aI36
aI9
aI20
aF0.45
aI0
aI0
aF0.0
aI6
aI7
aF0.857
aI6
aI10
aI16
aI4
aI0
aI2
aI3
aI1
aI24
aI-9
aa(lp124
V0021100357
p125
aVFEB 06, 2012
p126
aVLAL @ PHI
p127
aVL
p128
aI36
aI5
aI14
aF0.357
aI0
aI0
aF0.0
aI6
aI8
aF0.75
aI6
aI5
aI11
aI2
aI0
aI1
aI1
aI3
aI16
aI-8
aa(lp129
V0021100384
p130
aVFEB 09, 2012
p131
aVLAL @ BOS
p132
aVW
p133
aI41
aI12
aI20
aF0.6
aI0
aI1
aF0.0
aI1
aI1
aF1.0
aI4
aI10
aI14
aI3
aI0
aI2
aI2
aI1
aI25
aI-3
aa(lp134
V0021100395
p135
aVFEB 10, 2012
p136
aVLAL @ NYK
p137
aVL
p138
aI32
aI6
aI10
aF0.6
aI0
aI0
aF0.0
aI4
aI4
aF1.0
aI3
aI7
aI10
aI1
aI1
aI2
aI3
aI5
aI16
aI-4
aa(lp139
V0021100408
p140
aVFEB 12, 2012
p141
aVLAL @ TOR
p142
aVW
p143
aI37
aI6
aI15
aF0.4
aI0
aI0
aF0.0
aI4
aI4
aF1.0
aI5
aI12
aI17
aI6
aI0
aI0
aI3
aI1
aI16
aI8
aa(lp144
V0021100428
p145
aVFEB 14, 2012
p146
aVLAL vs. ATL
p147
aVW
p148
aI35
aI9
aI22
aF0.409
aI1
aI1
aF1.0
aI1
aI2
aF0.5
aI8
aI5
aI13
aI1
aI0
aI4
aI1
aI4
aI20
aI2
aa(lp149
V0021100455
p150
aVFEB 17, 2012
p151
aVLAL vs. PHX
p152
aVW
p153
aI37
aI4
aI13
aF0.308
aI0
aI0
aF0.0
aI2
aI4
aF0.5
aI5
aI8
aI13
aI4
aI2
aI1
aI2
aI0
aI10
aI5
aa(lp154
V0021100469
p155
aVFEB 19, 2012
p156
aVLAL @ PHX
p157
aVL
p158
aI36
aI6
aI11
aF0.545
aI0
aI0
aF0.0
aI5
aI6
aF0.833
aI1
aI11
aI12
aI6
aI1
aI0
aI2
aI2
aI17
aI-5
aa(lp159
V0021100479
p160
aVFEB 20, 2012
p161
aVLAL vs. POR
p162
aVW
p163
aI38
aI5
aI13
aF0.385
aI0
aI0
aF0.0
aI6
aI6
aF1.0
aI2
aI10
aI12
aI4
aI0
aI1
aI2
aI3
aI16
aI13
aa(lp164
V0021100497
p165
aVFEB 22, 2012
p166
aVLAL @ DAL
p167
aVW
p168
aI39
aI11
aI18
aF0.611
aI0
aI0
aF0.0
aI2
aI6
aF0.333
aI4
aI5
aI9
aI4
aI3
aI0
aI5
aI2
aI24
aI0
aa(lp169
V0021100502
p170
aVFEB 23, 2012
p171
aVLAL @ OKC
p172
aVL
p173
aI38
aI9
aI14
aF0.643
aI0
aI0
aF0.0
aI4
aI5
aF0.8
aI2
aI7
aI9
aI3
aI1
aI0
aI4
aI1
aI22
aI-14
aa(lp174
V0021100523
p175
aVFEB 29, 2012
p176
aVLAL vs. MIN
p177
aVW
p178
aI31
aI6
aI10
aF0.6
aI0
aI0
aF0.0
aI3
aI3
aF1.0
aI1
aI4
aI5
aI4
aI1
aI3
aI2
aI1
aI15
aI33
aa(lp179
V0021100538
p180
aVMAR 02, 2012
p181
aVLAL vs. SAC
p182
aVW
p183
aI37
aI6
aI11
aF0.545
aI0
aI0
aF0.0
aI3
aI4
aF0.75
aI0
aI7
aI7
aI4
aI0
aI1
aI3
aI1
aI15
aI6
aa(lp184
V0021100547
p185
aVMAR 04, 2012
p186
aVLAL vs. MIA
p187
aVW
p188
aI36
aI4
aI10
aF0.4
aI0
aI1
aF0.0
aI3
aI4
aF0.75
aI5
aI5
aI10
aI4
aI1
aI1
aI4
aI3
aI11
aI7
aa(lp189
V0021100567
p190
aVMAR 06, 2012
p191
aVLAL @ DET
p192
aVL
p193
aI40
aI8
aI14
aF0.571
aI0
aI0
aF0.0
aI4
aI4
aF1.0
aI3
aI7
aI10
aI6
aI0
aI4
aI5
aI2
aI20
aI-1
aa(lp194
V0021100571
p195
aVMAR 07, 2012
p196
aVLAL @ WAS
p197
aVL
p198
aI40
aI6
aI11
aF0.545
aI0
aI0
aF0.0
aI7
aI11
aF0.636
aI2
aI13
aI15
aI2
aI1
aI3
aI1
aI2
aI19
aI0
aa(lp199
V0021100589
p200
aVMAR 09, 2012
p201
aVLAL @ MIN
p202
aVW
p203
aI36
aI6
aI10
aF0.6
aI0
aI0
aF0.0
aI0
aI0
aF0.0
aI3
aI8
aI11
aI4
aI1
aI2
aI3
aI0
aI12
aI-8
aa(lp204
V0021100604
p205
aVMAR 11, 2012
p206
aVLAL vs. BOS
p207
aVW
p208
aI37
aI5
aI11
aF0.455
aI0
aI0
aF0.0
aI3
aI4
aF0.75
aI2
aI11
aI13
aI5
aI0
aI1
aI4
aI1
aI13
aI-1
aa(lp209
V0021100621
p210
aVMAR 13, 2012
p211
aVLAL @ MEM
p212
aVW
p213
aI46
aI6
aI14
aF0.429
aI0
aI0
aF0.0
aI2
aI2
aF1.0
aI0
aI5
aI5
aI8
aI1
aI2
aI3
aI2
aI14
aI-7
aa(lp214
V0021100631
p215
aVMAR 14, 2012
p216
aVLAL @ NOH
p217
aVW
p218
aI42
aI7
aI18
aF0.389
aI0
aI1
aF0.0
aI4
aI5
aF0.8
aI5
aI5
aI10
aI4
aI1
aI0
aI6
aI3
aI18
aI11
aa(lp219
V0021100652
p220
aVMAR 16, 2012
p221
aVLAL vs. MIN
p222
aVW
p223
aI32
aI6
aI13
aF0.462
aI0
aI0
aF0.0
aI5
aI6
aF0.833
aI4
aI7
aI11
aI2
aI0
aI3
aI1
aI3
aI17
aI1
aa(lp224
V0021100669
p225
aVMAR 18, 2012
p226
aVLAL vs. UTA
p227
aVL
p228
aI36
aI8
aI12
aF0.667
aI1
aI1
aF1.0
aI1
aI3
aF0.333
aI2
aI8
aI10
aI2
aI0
aI1
aI5
aI3
aI18
aI-11
aa(lp229
V0021100679
p230
aVMAR 20, 2012
p231
aVLAL @ HOU
p232
aVL
p233
aI36
aI10
aI14
aF0.714
aI0
aI0
aF0.0
aI1
aI2
aF0.5
aI0
aI4
aI4
aI2
aI1
aI0
aI0
aI5
aI21
aI-2
aa(lp234
V0021100692
p235
aVMAR 21, 2012
p236
aVLAL @ DAL
p237
aVW
p238
aI37
aI13
aI16
aF0.813
aI1
aI1
aF1.0
aI0
aI0
aF0.0
aI2
aI7
aI9
aI1
aI0
aI0
aI3
aI3
aI27
aI9
aa(lp239
V0021100709
p240
aVMAR 23, 2012
p241
aVLAL vs. POR
p242
aVW
p243
aI32
aI5
aI14
aF0.357
aI0
aI0
aF0.0
aI0
aI2
aF0.0
aI2
aI14
aI16
aI6
aI0
aI2
aI2
aI2
aI10
aI4
aa(lp244
V0021100726
p245
aVMAR 25, 2012
p246
aVLAL vs. MEM
p247
aVL
p248
aI38
aI4
aI15
aF0.267
aI0
aI1
aF0.0
aI8
aI8
aF1.0
aI3
aI11
aI14
aI3
aI2
aI1
aI2
aI1
aI16
aI2
aa(lp249
V0021100742
p250
aVMAR 27, 2012
p251
aVLAL @ GSW
p252
aVW
p253
aI39
aI8
aI16
aF0.5
aI0
aI0
aF0.0
aI3
aI3
aF1.0
aI4
aI13
aI17
aI3
aI1
aI1
aI1
aI1
aI19
aI7
aa(lp254
V0021100756
p255
aVMAR 29, 2012
p256
aVLAL vs. OKC
p257
aVL
p258
aI32
aI4
aI11
aF0.364
aI0
aI0
aF0.0
aI5
aI5
aF1.0
aI0
aI6
aI6
aI3
aI1
aI1
aI1
aI4
aI13
aI0
aa(lp259
V0021100769
p260
aVMAR 31, 2012
p261
aVLAL vs. NOH
p262
aVW
p263
aI36
aI8
aI14
aF0.571
aI0
aI0
aF0.0
aI5
aI7
aF0.714
aI2
aI9
aI11
aI3
aI0
aI2
aI3
aI1
aI21
aI12
aa(lp264
V0021100784
p265
aVAPR 01, 2012
p266
aVLAL vs. GSW
p267
aVW
p268
aI40
aI11
aI17
aF0.647
aI0
aI1
aF0.0
aI4
aI5
aF0.8
aI4
aI7
aI11
aI6
aI0
aI3
aI2
aI2
aI26
aI-3
aa(lp269
V0021100798
p270
aVAPR 03, 2012
p271
aVLAL vs. NJN
p272
aVW
p273
aI41
aI11
aI20
aF0.55
aI0
aI0
aF0.0
aI0
aI0
aF0.0
aI4
aI8
aI12
aI4
aI1
aI0
aI2
aI2
aI22
aI2
aa(lp274
V0021100810
p275
aVAPR 04, 2012
p276
aVLAL @ LAC
p277
aVW
p278
aI38
aI5
aI9
aF0.556
aI0
aI0
aF0.0
aI2
aI4
aF0.5
aI1
aI6
aI7
aI2
aI0
aI2
aI2
aI3
aI12
aI7
aa(lp279
V0021100825
p280
aVAPR 06, 2012
p281
aVLAL vs. HOU
p282
aVL
p283
aI37
aI5
aI11
aF0.455
aI0
aI0
aF0.0
aI4
aI4
aF1.0
aI3
aI7
aI10
aI5
aI0
aI1
aI2
aI2
aI14
aI0
aa(lp284
V0021100832
p285
aVAPR 07, 2012
p286
aVLAL @ PHX
p287
aVL
p288
aI38
aI14
aI25
aF0.56
aI0
aI0
aF0.0
aI2
aI2
aF1.0
aI4
aI9
aI13
aI3
aI0
aI0
aI2
aI2
aI30
aI-7
aa(lp289
V0021100847
p290
aVAPR 09, 2012
p291
aVLAL @ NOH
p292
aVW
p293
aI37
aI10
aI21
aF0.476
aI0
aI0
aF0.0
aI5
aI9
aF0.556
aI4
aI5
aI9
aI4
aI1
aI2
aI2
aI1
aI25
aI11
aa(lp294
V0021100866
p295
aVAPR 11, 2012
p296
aVLAL @ SAS
p297
aVW
p298
aI40
aI9
aI24
aF0.375
aI0
aI2
aF0.0
aI3
aI3
aF1.0
aI3
aI8
aI11
aI3
aI1
aI1
aI2
aI1
aI21
aI12
aa(lp299
V0021100884
p300
aVAPR 13, 2012
p301
aVLAL vs. DEN
p302
aVW
p303
aI38
aI6
aI13
aF0.462
aI0
aI1
aF0.0
aI2
aI4
aF0.5
aI3
aI7
aI10
aI5
aI0
aI3
aI6
aI0
aI14
aI12
aa(lp304
V0021100894
p305
aVAPR 15, 2012
p306
aVLAL vs. DAL
p307
aVW
p308
aI44
aI6
aI14
aF0.429
aI2
aI2
aF1.0
aI6
aI6
aF1.0
aI1
aI9
aI10
aI5
aI1
aI0
aI1
aI3
aI20
aI0
aa(lp309
V0021100917
p310
aVAPR 17, 2012
p311
aVLAL vs. SAS
p312
aVL
p313
aI34
aI8
aI15
aF0.533
aI0
aI0
aF0.0
aI0
aI0
aF0.0
aI1
aI6
aI7
aI5
aI0
aI1
aI3
aI0
aI16
aI-15
aa(lp314
V0021100931
p315
aVAPR 18, 2012
p316
aVLAL @ GSW
p317
aVW
p318
aI35
aI7
aI16
aF0.438
aI0
aI0
aF0.0
aI8
aI8
aF1.0
aI2
aI9
aI11
aI11
aI0
aI3
aI0
aI2
aI22
aI24
aa(lp319
V0021100941
p320
aVAPR 20, 2012
p321
aVLAL @ SAS
p322
aVL
p323
aI30
aI4
aI10
aF0.4
aI0
aI0
aF0.0
aI3
aI4
aF0.75
aI1
aI7
aI8
aI2
aI0
aI2
aI2
aI1
aI11
aI-13
aa(lp324
V0021100952
p325
aVAPR 22, 2012
p326
aVLAL vs. OKC
p327
aVW
p328
aI49
aI7
aI18
aF0.389
aI0
aI2
aF0.0
aI6
aI8
aF0.75
aI6
aI8
aI14
aI9
aI2
aI1
aI1
aI1
aI20
aI13
aasS'name'
p329
VPau Gasol
p330
sS'experience'
p331
I10
s.