(dp0
S'age'
p1
I30
sS'stats'
p2
(lp3
(lp4
V0021100971
p5
aVAPR 25, 2012
p6
aVORL vs. CHA
p7
aVW
p8
aI34
aI6
aI17
aF0.353
aI3
aI7
aF0.429
aI2
aI2
aF1.0
aI2
aI7
aI9
aI2
aI0
aI1
aI0
aI4
aI17
aI6
aa(lp9
V0021100958
p10
aVAPR 22, 2012
p11
aVORL @ DEN
p12
aVL
p13
aI27
aI4
aI13
aF0.308
aI1
aI4
aF0.25
aI0
aI0
aF0.0
aI2
aI3
aI5
aI4
aI2
aI0
aI1
aI1
aI9
aI-2
aa(lp14
V0021100950
p15
aVAPR 21, 2012
p16
aVORL @ UTA
p17
aVL
p18
aI40
aI8
aI17
aF0.471
aI5
aI9
aF0.556
aI0
aI0
aF0.0
aI2
aI5
aI7
aI0
aI0
aI0
aI0
aI2
aI21
aI10
aa(lp19
V0021100924
p20
aVAPR 18, 2012
p21
aVORL @ BOS
p22
aVL
p23
aI25
aI5
aI12
aF0.417
aI1
aI5
aF0.2
aI0
aI2
aF0.0
aI0
aI6
aI6
aI1
aI1
aI0
aI1
aI0
aI11
aI-9
aa(lp24
V0021100904
p25
aVAPR 16, 2012
p26
aVORL vs. PHI
p27
aVW
p28
aI27
aI6
aI10
aF0.6
aI2
aI3
aF0.667
aI3
aI3
aF1.0
aI0
aI2
aI2
aI3
aI1
aI0
aI0
aI0
aI17
aI6
aa(lp29
V0021100898
p30
aVAPR 15, 2012
p31
aVORL @ CLE
p32
aVW
p33
aI32
aI6
aI13
aF0.462
aI4
aI7
aF0.571
aI0
aI0
aF0.0
aI0
aI6
aI6
aI3
aI2
aI1
aI1
aI4
aI16
aI7
aa(lp34
V0021100876
p35
aVAPR 13, 2012
p36
aVORL vs. ATL
p37
aVL
p38
aI28
aI4
aI11
aF0.364
aI0
aI3
aF0.0
aI1
aI1
aF1.0
aI1
aI3
aI4
aI1
aI0
aI1
aI1
aI0
aI9
aI-19
aa(lp39
V0021100852
p40
aVAPR 10, 2012
p41
aVORL @ WAS
p42
aVL
p43
aI39
aI4
aI16
aF0.25
aI2
aI7
aF0.286
aI0
aI0
aF0.0
aI2
aI1
aI3
aI1
aI0
aI0
aI3
aI2
aI10
aI-16
aa(lp44
V0021100843
p45
aVAPR 09, 2012
p46
aVORL vs. DET
p47
aVW
p48
aI28
aI7
aI10
aF0.7
aI6
aI7
aF0.857
aI2
aI2
aF1.0
aI0
aI1
aI1
aI1
aI0
aI0
aI0
aI1
aI22
aI19
aa(lp49
V0021100828
p50
aVAPR 07, 2012
p51
aVORL @ PHI
p52
aVW
p53
aI42
aI4
aI10
aF0.4
aI2
aI6
aF0.333
aI0
aI0
aF0.0
aI2
aI6
aI8
aI5
aI1
aI0
aI1
aI2
aI10
aI7
aa(lp54
V0021100811
p55
aVAPR 05, 2012
p56
aVORL vs. NYK
p57
aVL
p58
aI37
aI7
aI18
aF0.389
aI2
aI9
aF0.222
aI0
aI0
aF0.0
aI0
aI4
aI4
aI4
aI1
aI0
aI1
aI2
aI16
aI-3
aa(lp59
V0021100795
p60
aVAPR 03, 2012
p61
aVORL @ DET
p62
aVL
p63
aI23
aI4
aI10
aF0.4
aI1
aI5
aF0.2
aI1
aI2
aF0.5
aI0
aI0
aI0
aI1
aI0
aI0
aI0
aI3
aI10
aI-3
aa(lp64
V0021100780
p65
aVAPR 01, 2012
p66
aVORL vs. DEN
p67
aVL
p68
aI32
aI3
aI12
aF0.25
aI0
aI6
aF0.0
aI0
aI0
aF0.0
aI0
aI3
aI3
aI1
aI1
aI2
aI1
aI2
aI6
aI5
aa(lp69
V0021100762
p70
aVMAR 30, 2012
p71
aVORL vs. DAL
p72
aVL
p73
aI33
aI2
aI7
aF0.286
aI2
aI6
aF0.333
aI0
aI0
aF0.0
aI0
aI5
aI5
aI2
aI1
aI3
aI1
aI2
aI6
aI5
aa(lp74
V0021100744
p75
aVMAR 28, 2012
p76
aVORL @ NYK
p77
aVL
p78
aI21
aI2
aI5
aF0.4
aI1
aI3
aF0.333
aI0
aI0
aF0.0
aI1
aI0
aI1
aI0
aI1
aI0
aI0
aI0
aI5
aI-20
aa(lp79
V0021100727
p80
aVMAR 26, 2012
p81
aVORL @ TOR
p82
aVW
p83
aI24
aI3
aI7
aF0.429
aI1
aI3
aF0.333
aI0
aI0
aF0.0
aI0
aI1
aI1
aI0
aI1
aI1
aI1
aI2
aI7
aI14
aa(lp84
V0021100701
p85
aVMAR 23, 2012
p86
aVORL vs. CLE
p87
aVW
p88
aI24
aI5
aI8
aF0.625
aI1
aI4
aF0.25
aI0
aI0
aF0.0
aI0
aI3
aI3
aI0
aI1
aI1
aI2
aI3
aI11
aI5
aa(lp89
V0021100685
p90
aVMAR 21, 2012
p91
aVORL vs. PHX
p92
aVW
p93
aI23
aI0
aI7
aF0.0
aI0
aI3
aF0.0
aI0
aI0
aF0.0
aI2
aI4
aI6
aI5
aI1
aI0
aI2
aI1
aI0
aI6
aa(lp94
V0021100673
p95
aVMAR 19, 2012
p96
aVORL vs. CHI
p97
aVL
p98
aI28
aI1
aI7
aF0.143
aI0
aI2
aF0.0
aI0
aI0
aF0.0
aI0
aI2
aI2
aI2
aI1
aI0
aI2
aI1
aI2
aI-13
aa(lp99
V0021100666
p100
aVMAR 18, 2012
p101
aVORL @ MIA
p102
aVL
p103
aI32
aI5
aI13
aF0.385
aI1
aI6
aF0.167
aI1
aI1
aF1.0
aI1
aI3
aI4
aI1
aI2
aI0
aI1
aI4
aI12
aI-11
aa(lp104
V0021100644
p105
aVMAR 16, 2012
p106
aVORL vs. NJN
p107
aVW
p108
aI36
aI4
aI9
aF0.444
aI2
aI5
aF0.4
aI0
aI0
aF0.0
aI0
aI5
aI5
aI3
aI3
aI1
aI2
aI2
aI10
aI24
aa(lp109
V0021100582
p110
aVMAR 08, 2012
p111
aVORL @ CHI
p112
aVW
p113
aI31
aI7
aI15
aF0.467
aI4
aI6
aF0.667
aI0
aI0
aF0.0
aI0
aI2
aI2
aI0
aI0
aI0
aI2
aI4
aI18
aI5
aa(lp114
V0021100563
p115
aVMAR 06, 2012
p116
aVORL @ CHA
p117
aVL
p118
aI22
aI3
aI10
aF0.3
aI1
aI5
aF0.2
aI2
aI3
aF0.667
aI0
aI1
aI1
aI2
aI0
aI0
aI2
aI4
aI9
aI-5
aa(lp119
V0021100554
p120
aVMAR 05, 2012
p121
aVORL @ TOR
p122
aVW
p123
aI37
aI2
aI10
aF0.2
aI1
aI7
aF0.143
aI1
aI2
aF0.5
aI0
aI5
aI5
aI2
aI0
aI0
aI1
aI1
aI6
aI-10
aa(lp124
V0021100541
p125
aVMAR 03, 2012
p126
aVORL vs. MIL
p127
aVW
p128
aI34
aI8
aI15
aF0.533
aI2
aI6
aF0.333
aI0
aI0
aF0.0
aI2
aI3
aI5
aI3
aI2
aI1
aI2
aI2
aI18
aI23
aa(lp129
V0021100524
p130
aVMAR 01, 2012
p131
aVORL vs. OKC
p132
aVL
p133
aI33
aI5
aI14
aF0.357
aI3
aI8
aF0.375
aI3
aI4
aF0.75
aI2
aI4
aI6
aI2
aI1
aI0
aI1
aI1
aI16
aI1
aa(lp134
V0021100513
p135
aVFEB 29, 2012
p136
aVORL @ WAS
p137
aVW
p138
aI30
aI5
aI13
aF0.385
aI2
aI6
aF0.333
aI0
aI0
aF0.0
aI0
aI2
aI2
aI2
aI1
aI0
aI1
aI2
aI12
aI5
aa(lp139
V0021100500
p140
aVFEB 23, 2012
p141
aVORL @ ATL
p142
aVL
p143
aI23
aI3
aI10
aF0.3
aI1
aI6
aF0.167
aI0
aI0
aF0.0
aI0
aI5
aI5
aI3
aI2
aI0
aI1
aI1
aI7
aI-1
aa(lp144
V0021100447
p145
aVFEB 17, 2012
p146
aVORL vs. MIL
p147
aVW
p148
aI20
aI2
aI11
aF0.182
aI2
aI6
aF0.333
aI0
aI0
aF0.0
aI1
aI1
aI2
aI1
aI0
aI0
aI2
aI1
aI6
aI-4
aa(lp149
V0021100430
p150
aVFEB 15, 2012
p151
aVORL vs. PHI
p152
aVW
p153
aI30
aI5
aI10
aF0.5
aI4
aI5
aF0.8
aI0
aI0
aF0.0
aI0
aI1
aI1
aI3
aI2
aI0
aI1
aI0
aI14
aI23
aa(lp154
V0021100415
p155
aVFEB 13, 2012
p156
aVORL vs. MIN
p157
aVW
p158
aI23
aI5
aI11
aF0.455
aI2
aI6
aF0.333
aI5
aI8
aF0.625
aI0
aI3
aI3
aI2
aI1
aI1
aI0
aI2
aI17
aI7
aa(lp159
V0021100406
p160
aVFEB 11, 2012
p161
aVORL @ MIL
p162
aVW
p163
aI26
aI11
aI18
aF0.611
aI9
aI11
aF0.818
aI0
aI4
aF0.0
aI0
aI4
aI4
aI1
aI2
aI0
aI0
aI1
aI31
aI19
aa(lp164
V0021100392
p165
aVFEB 10, 2012
p166
aVORL vs. ATL
p167
aVL
p168
aI38
aI5
aI10
aF0.5
aI3
aI6
aF0.5
aI1
aI3
aF0.333
aI0
aI5
aI5
aI0
aI1
aI2
aI0
aI3
aI14
aI-6
aa(lp169
V0021100376
p170
aVFEB 08, 2012
p171
aVORL vs. MIA
p172
aVW
p173
aI32
aI3
aI12
aF0.25
aI3
aI8
aF0.375
aI0
aI0
aF0.0
aI2
aI3
aI5
aI4
aI3
aI0
aI0
aI2
aI9
aI17
aa(lp174
V0021100359
p175
aVFEB 06, 2012
p176
aVORL vs. LAC
p177
aVL
p178
aI37
aI8
aI15
aF0.533
aI3
aI8
aF0.375
aI1
aI1
aF1.0
aI0
aI1
aI1
aI3
aI1
aI0
aI2
aI3
aI20
aI2
aa(lp179
V0021100344
p180
aVFEB 04, 2012
p181
aVORL @ IND
p182
aVW
p183
aI31
aI7
aI16
aF0.438
aI3
aI7
aF0.429
aI0
aI0
aF0.0
aI1
aI5
aI6
aI5
aI0
aI1
aI2
aI0
aI17
aI11
aa(lp184
V0021100334
p185
aVFEB 03, 2012
p186
aVORL vs. CLE
p187
aVW
p188
aI28
aI7
aI12
aF0.583
aI3
aI4
aF0.75
aI2
aI3
aF0.667
aI0
aI4
aI4
aI1
aI1
aI1
aI0
aI0
aI19
aI19
aa(lp189
V0021100294
p190
aVJAN 29, 2012
p191
aVORL vs. IND
p192
aVL
p193
aI27
aI5
aI11
aF0.455
aI2
aI4
aF0.5
aI1
aI2
aF0.5
aI0
aI7
aI7
aI3
aI2
aI1
aI3
aI0
aI13
aI-1
aa(lp194
V0021100278
p195
aVJAN 27, 2012
p196
aVORL @ NOH
p197
aVL
p198
aI24
aI1
aI6
aF0.167
aI0
aI2
aF0.0
aI0
aI0
aF0.0
aI1
aI4
aI5
aI3
aI0
aI0
aI1
aI2
aI2
aI-15
aa(lp199
V0021100270
p200
aVJAN 26, 2012
p201
aVORL vs. BOS
p202
aVL
p203
aI32
aI5
aI12
aF0.417
aI1
aI4
aF0.25
aI2
aI4
aF0.5
aI0
aI0
aI0
aI0
aI3
aI0
aI2
aI2
aI13
aI1
aa(lp204
V0021100253
p205
aVJAN 24, 2012
p206
aVORL @ IND
p207
aVW
p208
aI21
aI1
aI6
aF0.167
aI0
aI3
aF0.0
aI0
aI0
aF0.0
aI1
aI1
aI2
aI2
aI1
aI0
aI1
aI0
aI2
aI0
aa(lp209
V0021100243
p210
aVJAN 23, 2012
p211
aVORL @ BOS
p212
aVL
p213
aI21
aI2
aI5
aF0.4
aI0
aI2
aF0.0
aI1
aI2
aF0.5
aI1
aI2
aI3
aI2
aI2
aI0
aI0
aI0
aI5
aI-14
aa(lp214
V0021100223
p215
aVJAN 20, 2012
p216
aVORL vs. LAL
p217
aVW
p218
aI30
aI5
aI11
aF0.455
aI2
aI5
aF0.4
aI0
aI0
aF0.0
aI1
aI3
aI4
aI1
aI0
aI0
aI0
aI4
aI12
aI13
aa(lp219
V0021100158
p220
aVJAN 12, 2012
p221
aVORL @ GSW
p222
aVW
p223
aI20
aI3
aI7
aF0.429
aI1
aI4
aF0.25
aI0
aI0
aF0.0
aI0
aI1
aI1
aI0
aI1
aI1
aI1
aI0
aI7
aI-4
aa(lp224
V0021100152
p225
aVJAN 11, 2012
p226
aVORL @ POR
p227
aVW
p228
aI34
aI6
aI9
aF0.667
aI2
aI4
aF0.5
aI1
aI2
aF0.5
aI0
aI2
aI2
aI1
aI0
aI0
aI1
aI2
aI15
aI0
aa(lp229
V0021100121
p230
aVJAN 08, 2012
p231
aVORL @ SAC
p232
aVW
p233
aI33
aI9
aI16
aF0.563
aI3
aI6
aF0.5
aI1
aI2
aF0.5
aI3
aI1
aI4
aI5
aI1
aI0
aI0
aI3
aI22
aI0
aa(lp234
V0021100103
p235
aVJAN 06, 2012
p236
aVORL vs. CHI
p237
aVL
p238
aI36
aI6
aI13
aF0.462
aI3
aI6
aF0.5
aI2
aI2
aF1.0
aI0
aI3
aI3
aI2
aI1
aI1
aI4
aI1
aI17
aI-16
aa(lp239
V0021100083
p240
aVJAN 04, 2012
p241
aVORL vs. WAS
p242
aVW
p243
aI26
aI3
aI9
aF0.333
aI2
aI3
aF0.667
aI0
aI0
aF0.0
aI2
aI2
aI4
aI5
aI0
aI0
aI1
aI1
aI8
aI16
aa(lp244
V0021100071
p245
aVJAN 02, 2012
p246
aVORL @ DET
p247
aVL
p248
aI23
aI1
aI5
aF0.2
aI0
aI1
aF0.0
aI2
aI2
aF1.0
aI0
aI0
aI0
aI0
aI1
aI0
aI1
aI1
aI4
aI-11
aa(lp249
V0021100058
p250
aVJAN 01, 2012
p251
aVORL vs. TOR
p252
aVW
p253
aI28
aI1
aI8
aF0.125
aI1
aI5
aF0.2
aI2
aI4
aF0.5
aI1
aI4
aI5
aI1
aI1
aI2
aI0
aI1
aI5
aI-22
aa(lp254
V0021100039
p255
aVDEC 30, 2011
p256
aVORL @ CHA
p257
aVW
p258
aI30
aI7
aI12
aF0.583
aI2
aI4
aF0.5
aI0
aI2
aF0.0
aI0
aI1
aI1
aI3
aI1
aI0
aI0
aI2
aI16
aI16
aa(lp259
V0021100033
p260
aVDEC 29, 2011
p261
aVORL vs. NJN
p262
aVW
p263
aI33
aI6
aI14
aF0.429
aI0
aI3
aF0.0
aI4
aI6
aF0.667
aI3
aI2
aI5
aI2
aI2
aI0
aI2
aI2
aI16
aI10
aa(lp264
V0021100008
p265
aVDEC 26, 2011
p266
aVORL vs. HOU
p267
aVW
p268
aI33
aI5
aI8
aF0.625
aI0
aI2
aF0.0
aI0
aI0
aF0.0
aI0
aI3
aI3
aI1
aI0
aI0
aI2
aI3
aI10
aI6
aa(lp269
V0021100004
p270
aVDEC 25, 2011
p271
aVORL @ OKC
p272
aVL
p273
aI29
aI1
aI10
aF0.1
aI0
aI4
aF0.0
aI0
aI0
aF0.0
aI0
aI3
aI3
aI2
aI0
aI0
aI3
aI2
aI2
aI-8
aasS'name'
p274
VJason Richardson
p275
sS'experience'
p276
I10
s.