(dp0
S'age'
p1
I29
sS'stats'
p2
(lp3
(lp4
V0021100007
p5
aVDEC 26, 2011
p6
aVCHA vs. MIL
p7
aVW
p8
aI16
aI0
aI3
aF0.0
aI0
aI0
aF0.0
aI0
aI0
aF0.0
aI2
aI6
aI8
aI1
aI1
aI1
aI0
aI1
aI0
aI1
aa(lp9
V0021100039
p10
aVDEC 30, 2011
p11
aVCHA vs. ORL
p12
aVL
p13
aI20
aI0
aI1
aF0.0
aI0
aI0
aF0.0
aI0
aI0
aF0.0
aI2
aI5
aI7
aI1
aI0
aI2
aI1
aI4
aI0
aI-7
aa(lp14
V0021100059
p15
aVJAN 01, 2012
p16
aVCHA @ MIA
p17
aVL
p18
aI4
aI0
aI2
aF0.0
aI0
aI0
aF0.0
aI0
aI0
aF0.0
aI2
aI0
aI2
aI0
aI0
aI0
aI1
aI1
aI0
aI-7
aa(lp19
V0021100076
p20
aVJAN 03, 2012
p21
aVCHA @ CLE
p22
aVL
p23
aI7
aI0
aI1
aF0.0
aI0
aI0
aF0.0
aI0
aI0
aF0.0
aI0
aI2
aI2
aI0
aI0
aI0
aI0
aI0
aI0
aI3
aa(lp24
V0021100111
p25
aVJAN 07, 2012
p26
aVCHA @ IND
p27
aVL
p28
aI17
aI2
aI3
aF0.667
aI0
aI0
aF0.0
aI0
aI0
aF0.0
aI1
aI0
aI1
aI1
aI0
aI1
aI0
aI2
aI4
aI-3
aa(lp29
V0021100129
p30
aVJAN 09, 2012
p31
aVCHA @ NYK
p32
aVL
p33
aI20
aI1
aI2
aF0.5
aI0
aI0
aF0.0
aI0
aI0
aF0.0
aI1
aI4
aI5
aI2
aI0
aI1
aI1
aI1
aI2
aI0
aa(lp34
V0021100134
p35
aVJAN 10, 2012
p36
aVCHA vs. HOU
p37
aVL
p38
aI13
aI0
aI0
aF0.0
aI0
aI0
aF0.0
aI0
aI0
aF0.0
aI0
aI1
aI1
aI0
aI0
aI2
aI3
aI3
aI0
aI-12
aa(lp39
V0021100154
p40
aVJAN 12, 2012
p41
aVCHA @ ATL
p42
aVL
p43
aI3
aI0
aI1
aF0.0
aI0
aI0
aF0.0
aI0
aI0
aF0.0
aI0
aI1
aI1
aI0
aI0
aI0
aI0
aI0
aI0
aI4
aa(lp44
V0021100252
p45
aVJAN 24, 2012
p46
aVCHA vs. NYK
p47
aVL
p48
aI6
aI0
aI1
aF0.0
aI0
aI0
aF0.0
aI0
aI0
aF0.0
aI1
aI0
aI1
aI1
aI0
aI0
aI0
aI0
aI0
aI1
aa(lp49
V0021100258
p50
aVJAN 25, 2012
p51
aVCHA @ WAS
p52
aVL
p53
aI11
aI1
aI3
aF0.333
aI0
aI0
aF0.0
aI0
aI0
aF0.0
aI1
aI0
aI1
aI1
aI3
aI0
aI0
aI0
aI2
aI8
aa(lp54
V0021100272
p55
aVJAN 27, 2012
p56
aVCHA @ PHI
p57
aVL
p58
aI14
aI2
aI2
aF1.0
aI0
aI0
aF0.0
aI0
aI0
aF0.0
aI1
aI2
aI3
aI0
aI0
aI0
aI0
aI0
aI4
aI-6
aa(lp59
V0021100286
p60
aVJAN 28, 2012
p61
aVCHA vs. WAS
p62
aVL
p63
aI17
aI0
aI4
aF0.0
aI0
aI0
aF0.0
aI1
aI4
aF0.25
aI4
aI4
aI8
aI4
aI2
aI0
aI0
aI3
aI1
aI-8
aa(lp64
V0021100313
p65
aVJAN 31, 2012
p66
aVCHA @ LAL
p67
aVL
p68
aI17
aI0
aI2
aF0.0
aI0
aI0
aF0.0
aI0
aI0
aF0.0
aI3
aI5
aI8
aI2
aI0
aI1
aI1
aI2
aI0
aI7
aa(lp69
V0021100324
p70
aVFEB 01, 2012
p71
aVCHA @ POR
p72
aVL
p73
aI14
aI1
aI2
aF0.5
aI0
aI0
aF0.0
aI0
aI0
aF0.0
aI0
aI1
aI1
aI0
aI0
aI1
aI1
aI2
aI2
aI-16
aa(lp74
V0021100391
p75
aVFEB 10, 2012
p76
aVCHA vs. CHI
p77
aVL
p78
aI12
aI1
aI2
aF0.5
aI0
aI0
aF0.0
aI0
aI2
aF0.0
aI0
aI6
aI6
aI0
aI0
aI1
aI0
aI2
aI2
aI-3
aa(lp79
V0021100400
p80
aVFEB 11, 2012
p81
aVCHA vs. LAC
p82
aVL
p83
aI9
aI0
aI0
aF0.0
aI0
aI0
aF0.0
aI0
aI0
aF0.0
aI1
aI0
aI1
aI1
aI0
aI0
aI0
aI3
aI0
aI-3
aa(lp84
V0021100437
p85
aVFEB 15, 2012
p86
aVCHA @ MIN
p87
aVL
p88
aI6
aI0
aI0
aF0.0
aI0
aI0
aF0.0
aI0
aI0
aF0.0
aI3
aI0
aI3
aI0
aI0
aI0
aI0
aI0
aI0
aI-11
aa(lp89
V0021100464
p90
aVFEB 19, 2012
p91
aVCHA @ IND
p92
aVL
p93
aI16
aI0
aI1
aF0.0
aI0
aI0
aF0.0
aI0
aI0
aF0.0
aI0
aI2
aI2
aI1
aI0
aI0
aI4
aI1
aI0
aI-22
aa(lp94
V0021100488
p95
aVFEB 22, 2012
p96
aVCHA vs. IND
p97
aVL
p98
aI4
aI1
aI1
aF1.0
aI0
aI0
aF0.0
aI0
aI0
aF0.0
aI1
aI0
aI1
aI1
aI0
aI1
aI0
aI0
aI2
aI-2
aa(lp99
V0021100517
p100
aVFEB 29, 2012
p101
aVCHA @ DET
p102
aVL
p103
aI18
aI0
aI1
aF0.0
aI0
aI0
aF0.0
aI0
aI0
aF0.0
aI1
aI3
aI4
aI1
aI0
aI0
aI0
aI1
aI0
aI2
aa(lp104
V0021100535
p105
aVMAR 02, 2012
p106
aVCHA @ SAS
p107
aVL
p108
aI15
aI2
aI2
aF1.0
aI0
aI0
aF0.0
aI0
aI0
aF0.0
aI3
aI4
aI7
aI1
aI0
aI0
aI3
aI2
aI4
aI-6
aa(lp109
V0021100549
p110
aVMAR 04, 2012
p111
aVCHA vs. NJN
p112
aVL
p113
aI10
aI2
aI4
aF0.5
aI0
aI0
aF0.0
aI0
aI0
aF0.0
aI0
aI2
aI2
aI0
aI0
aI1
aI0
aI2
aI4
aI0
aa(lp114
V0021100869
p115
aVAPR 12, 2012
p116
aVCHA vs. DET
p117
aVL
p118
aI9
aI0
aI1
aF0.0
aI0
aI0
aF0.0
aI0
aI0
aF0.0
aI0
aI1
aI1
aI1
aI0
aI0
aI2
aI3
aI0
aI-8
aa(lp119
V0021100953
p120
aVAPR 22, 2012
p121
aVCHA vs. SAC
p122
aVL
p123
aI11
aI1
aI2
aF0.5
aI0
aI0
aF0.0
aI0
aI0
aF0.0
aI3
aI1
aI4
aI3
aI0
aI0
aI0
aI1
aI2
aI-7
aa(lp124
V0021100960
p125
aVAPR 23, 2012
p126
aVCHA @ WAS
p127
aVL
p128
aI14
aI0
aI0
aF0.0
aI0
aI0
aF0.0
aI0
aI0
aF0.0
aI1
aI1
aI2
aI1
aI0
aI0
aI1
aI1
aI0
aI-20
aa(lp129
V0021100971
p130
aVAPR 25, 2012
p131
aVCHA @ ORL
p132
aVL
p133
aI3
aI0
aI0
aF0.0
aI0
aI0
aF0.0
aI0
aI0
aF0.0
aI0
aI0
aI0
aI0
aI0
aI0
aI1
aI0
aI0
aI-3
aa(lp134
V0021100982
p135
aVAPR 26, 2012
p136
aVCHA vs. NYK
p137
aVL
p138
aI20
aI1
aI1
aF1.0
aI0
aI0
aF0.0
aI0
aI0
aF0.0
aI2
aI1
aI3
aI0
aI0
aI1
aI0
aI1
aI2
aI-1
aasS'name'
p139
VDeSagana Diop
p140
sS'experience'
p141
I10
s.