(dp0
S'age'
p1
I29
sS'stats'
p2
(lp3
(lp4
V0021100985
p5
aVAPR 26, 2012
p6
aVMEM vs. ORL
p7
aVW
p8
aI13
aI0
aI3
aF0.0
aI0
aI2
aF0.0
aI1
aI2
aF0.5
aI0
aI2
aI2
aI2
aI0
aI0
aI0
aI2
aI1
aI2
aa(lp9
V0021100947
p10
aVAPR 21, 2012
p11
aVMEM vs. POR
p12
aVW
p13
aI7
aI0
aI3
aF0.0
aI0
aI2
aF0.0
aI0
aI0
aF0.0
aI0
aI1
aI1
aI1
aI0
aI0
aI1
aI2
aI0
aI-3
aa(lp14
V0021100937
p15
aVAPR 20, 2012
p16
aVMEM @ CHA
p17
aVW
p18
aI1
aI0
aI0
aF0.0
aI0
aI0
aF0.0
aI0
aI0
aF0.0
aI0
aI0
aI0
aI0
aI0
aI0
aI0
aI0
aI0
aI0
aa(lp19
V0021100916
p20
aVAPR 17, 2012
p21
aVMEM @ MIN
p22
aVW
p23
aI5
aI0
aI1
aF0.0
aI0
aI1
aF0.0
aI0
aI0
aF0.0
aI0
aI0
aI0
aI0
aI0
aI0
aI0
aI0
aI0
aI2
aa(lp24
V0021100900
p25
aVAPR 15, 2012
p26
aVMEM @ NOH
p27
aVL
p28
aI11
aI2
aI3
aF0.667
aI2
aI3
aF0.667
aI0
aI0
aF0.0
aI0
aI0
aI0
aI2
aI2
aI0
aI0
aI0
aI6
aI10
aa(lp29
V0021100889
p30
aVAPR 14, 2012
p31
aVMEM vs. UTA
p32
aVW
p33
aI12
aI2
aI3
aF0.667
aI1
aI2
aF0.5
aI0
aI0
aF0.0
aI0
aI0
aI0
aI2
aI1
aI0
aI1
aI1
aI5
aI7
aa(lp34
V0021100872
p35
aVAPR 12, 2012
p36
aVMEM @ SAS
p37
aVL
p38
aI16
aI3
aI6
aF0.5
aI0
aI3
aF0.0
aI0
aI0
aF0.0
aI0
aI0
aI0
aI0
aI0
aI0
aI2
aI2
aI6
aI0
aa(lp39
V0021100862
p40
aVAPR 11, 2012
p41
aVMEM vs. PHX
p42
aVW
p43
aI10
aI0
aI3
aF0.0
aI0
aI2
aF0.0
aI0
aI0
aF0.0
aI0
aI1
aI1
aI0
aI0
aI0
aI1
aI0
aI0
aI-8
aa(lp44
V0021100846
p45
aVAPR 09, 2012
p46
aVMEM vs. LAC
p47
aVW
p48
aI14
aI1
aI3
aF0.333
aI0
aI1
aF0.0
aI0
aI0
aF0.0
aI0
aI0
aI0
aI1
aI1
aI0
aI1
aI3
aI2
aI4
aa(lp49
V0021100829
p50
aVAPR 07, 2012
p51
aVMEM vs. DAL
p52
aVW
p53
aI17
aI3
aI6
aF0.5
aI3
aI5
aF0.6
aI5
aI5
aF1.0
aI0
aI1
aI1
aI0
aI1
aI1
aI1
aI4
aI14
aI-1
aa(lp54
V0021100819
p55
aVAPR 06, 2012
p56
aVMEM @ MIA
p57
aVW
p58
aI12
aI4
aI5
aF0.8
aI4
aI5
aF0.8
aI0
aI0
aF0.0
aI0
aI0
aI0
aI1
aI0
aI0
aI1
aI4
aI12
aI10
aa(lp59
V0021100807
p60
aVAPR 04, 2012
p61
aVMEM @ DAL
p62
aVL
p63
aI11
aI3
aI6
aF0.5
aI2
aI4
aF0.5
aI0
aI0
aF0.0
aI0
aI2
aI2
aI0
aI0
aI0
aI0
aI4
aI8
aI2
aa(lp64
V0021100796
p65
aVAPR 03, 2012
p66
aVMEM vs. GSW
p67
aVW
p68
aI15
aI4
aI4
aF1.0
aI1
aI1
aF1.0
aI1
aI3
aF0.333
aI1
aI2
aI3
aI2
aI2
aI0
aI0
aI1
aI10
aI17
aa(lp69
V0021100787
p70
aVAPR 02, 2012
p71
aVMEM @ OKC
p72
aVW
p73
aI20
aI0
aI2
aF0.0
aI0
aI2
aF0.0
aI0
aI0
aF0.0
aI0
aI0
aI0
aI1
aI2
aI0
aI0
aI2
aI0
aI-6
aa(lp74
V0021100773
p75
aVMAR 31, 2012
p76
aVMEM @ MIL
p77
aVW
p78
aI17
aI2
aI7
aF0.286
aI0
aI4
aF0.0
aI0
aI0
aF0.0
aI1
aI5
aI6
aI2
aI0
aI0
aI0
aI4
aI4
aI13
aa(lp79
V0021100710
p80
aVMAR 24, 2012
p81
aVMEM @ LAC
p82
aVL
p83
aI19
aI1
aI5
aF0.2
aI0
aI1
aF0.0
aI0
aI0
aF0.0
aI0
aI1
aI1
aI1
aI0
aI0
aI2
aI3
aI2
aI-15
aa(lp84
V0021100698
p85
aVMAR 22, 2012
p86
aVMEM @ POR
p87
aVL
p88
aI12
aI1
aI4
aF0.25
aI0
aI1
aF0.0
aI0
aI0
aF0.0
aI0
aI1
aI1
aI3
aI2
aI0
aI2
aI3
aI2
aI-6
aasS'name'
p89
VGilbert Arenas
p90
sS'experience'
p91
I10
s.