(dp0
S'stats'
p1
(lp2
(lp3
V0021100012
p4
aVDEC 26, 2011
p5
aVDEN @ DAL
p6
aVW
p7
aI21
aI0
aI3
aF0.0
aI0
aI0
aF0.0
aI4
aI4
aF1.0
aI2
aI4
aI6
aI0
aI0
aI0
aI0
aI2
aI4
aI-8
aa(lp8
V0021100030
p9
aVDEC 28, 2011
p10
aVDEN vs. UTA
p11
aVW
p12
aI14
aI1
aI4
aF0.25
aI0
aI0
aF0.0
aI2
aI2
aF1.0
aI3
aI4
aI7
aI0
aI1
aI0
aI1
aI1
aI4
aI10
aa(lp13
V0021100037
p14
aVDEC 29, 2011
p15
aVDEN @ POR
p16
aVL
p17
aI7
aI2
aI2
aF1.0
aI0
aI0
aF0.0
aI0
aI0
aF0.0
aI0
aI2
aI2
aI0
aI0
aI0
aI1
aI1
aI4
aI-3
aa(lp18
V0021100050
p19
aVDEC 31, 2011
p20
aVDEN @ LAL
p21
aVL
p22
aI5
aI1
aI1
aF1.0
aI0
aI0
aF0.0
aI0
aI0
aF0.0
aI0
aI0
aI0
aI0
aI1
aI0
aI0
aI3
aI2
aI2
aa(lp23
V0021100063
p24
aVJAN 01, 2012
p25
aVDEN vs. LAL
p26
aVW
p27
aI20
aI5
aI6
aF0.833
aI0
aI0
aF0.0
aI2
aI2
aF1.0
aI3
aI6
aI9
aI0
aI1
aI1
aI0
aI1
aI12
aI17
aa(lp28
V0021100074
p29
aVJAN 02, 2012
p30
aVDEN vs. MIL
p31
aVW
p32
aI15
aI0
aI3
aF0.0
aI0
aI0
aF0.0
aI0
aI2
aF0.0
aI1
aI2
aI3
aI1
aI0
aI1
aI1
aI1
aI0
aI-14
aa(lp33
V0021100092
p34
aVJAN 04, 2012
p35
aVDEN vs. SAC
p36
aVW
p37
aI18
aI4
aI5
aF0.8
aI0
aI0
aF0.0
aI0
aI0
aF0.0
aI2
aI5
aI7
aI0
aI3
aI3
aI1
aI3
aI8
aI19
aa(lp38
V0021100104
p39
aVJAN 06, 2012
p40
aVDEN @ NOH
p41
aVW
p42
aI5
aI1
aI1
aF1.0
aI0
aI0
aF0.0
aI0
aI0
aF0.0
aI1
aI0
aI1
aI0
aI0
aI0
aI0
aI1
aI2
aI-7
aa(lp43
V0021100116
p44
aVJAN 07, 2012
p45
aVDEN @ SAS
p46
aVL
p47
aI5
aI0
aI0
aF0.0
aI0
aI0
aF0.0
aI1
aI2
aF0.5
aI0
aI1
aI1
aI0
aI0
aI1
aI0
aI0
aI1
aI-5
aa(lp48
V0021100131
p49
aVJAN 09, 2012
p50
aVDEN vs. NOH
p51
aVL
p52
aI5
aI0
aI1
aF0.0
aI0
aI0
aF0.0
aI0
aI0
aF0.0
aI1
aI1
aI2
aI0
aI0
aI0
aI0
aI0
aI0
aI-1
aa(lp53
V0021100150
p54
aVJAN 11, 2012
p55
aVDEN vs. NJN
p56
aVW
p57
aI18
aI3
aI5
aF0.6
aI0
aI0
aF0.0
aI3
aI3
aF1.0
aI2
aI4
aI6
aI0
aI2
aI2
aI1
aI1
aI9
aI10
aa(lp58
V0021100182
p59
aVJAN 15, 2012
p60
aVDEN vs. UTA
p61
aVL
p62
aI9
aI0
aI1
aF0.0
aI0
aI0
aF0.0
aI2
aI2
aF1.0
aI0
aI1
aI1
aI0
aI0
aI4
aI0
aI3
aI2
aI-2
aa(lp63
V0021100199
p64
aVJAN 17, 2012
p65
aVDEN @ MIL
p66
aVW
p67
aI22
aI1
aI2
aF0.5
aI0
aI0
aF0.0
aI3
aI6
aF0.5
aI2
aI3
aI5
aI0
aI2
aI0
aI0
aI2
aI5
aI-7
aa(lp68
V0021100202
p69
aVJAN 18, 2012
p70
aVDEN @ PHI
p71
aVW
p72
aI15
aI2
aI4
aF0.5
aI0
aI0
aF0.0
aI4
aI6
aF0.667
aI1
aI2
aI3
aI0
aI0
aI1
aI0
aI6
aI8
aI-5
aa(lp73
V0021100218
p74
aVJAN 20, 2012
p75
aVDEN @ WAS
p76
aVW
p77
aI23
aI2
aI5
aF0.4
aI0
aI0
aF0.0
aI3
aI7
aF0.429
aI1
aI7
aI8
aI0
aI0
aI2
aI0
aI2
aI7
aI-6
aa(lp78
V0021100267
p79
aVJAN 25, 2012
p80
aVDEN @ SAC
p81
aVW
p82
aI17
aI4
aI4
aF1.0
aI0
aI0
aF0.0
aI1
aI1
aF1.0
aI4
aI1
aI5
aI0
aI2
aI1
aI0
aI1
aI9
aI2
aa(lp83
V0021100282
p84
aVJAN 27, 2012
p85
aVDEN vs. TOR
p86
aVW
p87
aI8
aI0
aI0
aF0.0
aI0
aI0
aF0.0
aI0
aI0
aF0.0
aI0
aI1
aI1
aI1
aI0
aI1
aI0
aI0
aI0
aI2
aa(lp88
V0021100312
p89
aVJAN 31, 2012
p90
aVDEN @ MEM
p91
aVL
p92
aI7
aI1
aI3
aF0.333
aI0
aI0
aF0.0
aI0
aI0
aF0.0
aI0
aI1
aI1
aI0
aI1
aI0
aI1
aI0
aI2
aI6
aa(lp93
V0021100365
p94
aVFEB 06, 2012
p95
aVDEN vs. HOU
p96
aVL
p97
aI19
aI4
aI4
aF1.0
aI0
aI0
aF0.0
aI2
aI3
aF0.667
aI2
aI7
aI9
aI0
aI0
aI2
aI2
aI3
aI10
aI-7
aa(lp98
V0021100382
p99
aVFEB 08, 2012
p100
aVDEN vs. DAL
p101
aVL
p102
aI14
aI1
aI4
aF0.25
aI0
aI0
aF0.0
aI0
aI2
aF0.0
aI0
aI2
aI2
aI0
aI0
aI2
aI1
aI0
aI2
aI-13
aa(lp103
V0021100426
p104
aVFEB 14, 2012
p105
aVDEN vs. PHX
p106
aVW
p107
aI22
aI6
aI9
aF0.667
aI0
aI0
aF0.0
aI4
aI6
aF0.667
aI2
aI5
aI7
aI0
aI1
aI6
aI1
aI1
aI16
aI17
aa(lp108
V0021100438
p109
aVFEB 15, 2012
p110
aVDEN @ DAL
p111
aVL
p112
aI22
aI2
aI5
aF0.4
aI0
aI0
aF0.0
aI2
aI4
aF0.5
aI5
aI6
aI11
aI0
aI0
aI1
aI1
aI1
aI6
aI-4
aa(lp113
V0021100451
p114
aVFEB 17, 2012
p115
aVDEN @ MEM
p116
aVL
p117
aI24
aI3
aI6
aF0.5
aI0
aI0
aF0.0
aI1
aI2
aF0.5
aI4
aI3
aI7
aI2
aI0
aI2
aI2
aI3
aI7
aI5
aa(lp118
V0021100468
p119
aVFEB 19, 2012
p120
aVDEN @ OKC
p121
aVL
p122
aI29
aI5
aI6
aF0.833
aI0
aI0
aF0.0
aI1
aI2
aF0.5
aI3
aI3
aI6
aI0
aI0
aI3
aI0
aI3
aI11
aI17
aa(lp123
V0021100501
p124
aVFEB 23, 2012
p125
aVDEN vs. SAS
p126
aVL
p127
aI9
aI0
aI1
aF0.0
aI0
aI0
aF0.0
aI0
aI0
aF0.0
aI0
aI2
aI2
aI0
aI0
aI2
aI0
aI1
aI0
aI-12
aa(lp128
V0021100553
p129
aVMAR 04, 2012
p130
aVDEN @ SAS
p131
aVW
p132
aI19
aI2
aI2
aF1.0
aI0
aI0
aF0.0
aI1
aI3
aF0.333
aI2
aI6
aI8
aI0
aI1
aI2
aI1
aI3
aI5
aI3
aa(lp133
V0021100561
p134
aVMAR 05, 2012
p135
aVDEN vs. SAC
p136
aVW
p137
aI14
aI3
aI6
aF0.5
aI0
aI0
aF0.0
aI3
aI5
aF0.6
aI1
aI4
aI5
aI1
aI1
aI2
aI0
aI0
aI9
aI-4
aa(lp138
V0021100579
p139
aVMAR 07, 2012
p140
aVDEN vs. CLE
p141
aVL
p142
aI18
aI0
aI3
aF0.0
aI0
aI0
aF0.0
aI3
aI4
aF0.75
aI1
aI6
aI7
aI1
aI1
aI3
aI0
aI2
aI3
aI7
aa(lp143
V0021100592
p144
aVMAR 09, 2012
p145
aVDEN vs. NOH
p146
aVW
p147
aI22
aI3
aI3
aF1.0
aI0
aI0
aF0.0
aI0
aI2
aF0.0
aI0
aI2
aI2
aI0
aI1
aI3
aI0
aI3
aI6
aI12
aa(lp148
V0021100608
p149
aVMAR 11, 2012
p150
aVDEN vs. MEM
p151
aVL
p152
aI19
aI2
aI6
aF0.333
aI0
aI0
aF0.0
aI3
aI4
aF0.75
aI3
aI6
aI9
aI0
aI0
aI0
aI2
aI3
aI7
aI-3
aa(lp153
V0021100640
p154
aVMAR 15, 2012
p155
aVDEN vs. OKC
p156
aVL
p157
aI15
aI1
aI3
aF0.333
aI0
aI0
aF0.0
aI3
aI4
aF0.75
aI2
aI3
aI5
aI0
aI1
aI1
aI1
aI1
aI5
aI1
aa(lp158
V0021100720
p159
aVMAR 25, 2012
p160
aVDEN @ MIN
p161
aVL
p162
aI5
aI0
aI0
aF0.0
aI0
aI0
aF0.0
aI2
aI4
aF0.5
aI0
aI0
aI0
aI0
aI0
aI0
aI0
aI0
aI2
aI-3
aasS'name'
p163
VChris Andersen
p164
sS'weight'
p165
V245
p166
sS'age'
p167
I33
sS'experience'
p168
I10
sS'height'
p169
V6-10
p170
sS'position'
p171
VForward-Center
p172
s.