(dp0
S'age'
p1
I30
sS'stats'
p2
(lp3
(lp4
V0021100963
p5
aVAPR 23, 2012
p6
aVMIL vs. TOR
p7
aVW
p8
aI13
aI1
aI7
aF0.143
aI0
aI1
aF0.0
aI0
aI0
aF0.0
aI2
aI1
aI3
aI0
aI0
aI0
aI1
aI0
aI2
aI-17
aa(lp9
V0021100949
p10
aVAPR 21, 2012
p11
aVMIL vs. NJN
p12
aVW
p13
aI32
aI6
aI13
aF0.462
aI0
aI1
aF0.0
aI4
aI5
aF0.8
aI2
aI6
aI8
aI3
aI1
aI0
aI5
aI1
aI16
aI23
aa(lp14
V0021100932
p15
aVAPR 19, 2012
p16
aVMIL @ IND
p17
aVL
p18
aI26
aI6
aI15
aF0.4
aI0
aI1
aF0.0
aI3
aI4
aF0.75
aI2
aI5
aI7
aI2
aI0
aI1
aI0
aI3
aI15
aI-23
aa(lp19
V0021100918
p20
aVAPR 18, 2012
p21
aVMIL @ WAS
p22
aVL
p23
aI34
aI7
aI16
aF0.438
aI0
aI0
aF0.0
aI7
aI9
aF0.778
aI6
aI6
aI12
aI6
aI2
aI0
aI1
aI4
aI21
aI-5
aa(lp24
V0021100891
p25
aVAPR 14, 2012
p26
aVMIL vs. IND
p27
aVL
p28
aI26
aI2
aI10
aF0.2
aI0
aI0
aF0.0
aI3
aI4
aF0.75
aI4
aI4
aI8
aI0
aI1
aI0
aI3
aI1
aI7
aI-7
aa(lp29
V0021100880
p30
aVAPR 13, 2012
p31
aVMIL @ DET
p32
aVW
p33
aI35
aI12
aI18
aF0.667
aI0
aI1
aF0.0
aI2
aI2
aF1.0
aI2
aI3
aI5
aI8
aI1
aI1
aI1
aI2
aI26
aI17
aa(lp34
V0021100861
p35
aVAPR 11, 2012
p36
aVMIL vs. NYK
p37
aVL
p38
aI5
aI0
aI1
aF0.0
aI0
aI0
aF0.0
aI0
aI0
aF0.0
aI0
aI0
aI0
aI0
aI0
aI0
aI0
aI1
aI0
aI-5
aa(lp39
V0021100845
p40
aVAPR 09, 2012
p41
aVMIL vs. OKC
p42
aVL
p43
aI18
aI6
aI10
aF0.6
aI1
aI1
aF1.0
aI1
aI2
aF0.5
aI0
aI4
aI4
aI2
aI1
aI1
aI2
aI2
aI14
aI-7
aa(lp44
V0021100831
p45
aVAPR 07, 2012
p46
aVMIL vs. POR
p47
aVW
p48
aI21
aI3
aI9
aF0.333
aI0
aI0
aF0.0
aI1
aI1
aF1.0
aI4
aI4
aI8
aI4
aI1
aI0
aI3
aI1
aI7
aI-14
aa(lp49
V0021100785
p50
aVAPR 02, 2012
p51
aVMIL @ WAS
p52
aVW
p53
aI21
aI4
aI6
aF0.667
aI0
aI0
aF0.0
aI0
aI1
aF0.0
aI0
aI3
aI3
aI3
aI1
aI0
aI2
aI1
aI8
aI3
aa(lp54
V0021100773
p55
aVMAR 31, 2012
p56
aVMIL vs. MEM
p57
aVL
p58
aI38
aI9
aI16
aF0.563
aI0
aI1
aF0.0
aI2
aI3
aF0.667
aI1
aI4
aI5
aI2
aI5
aI1
aI5
aI3
aI20
aI2
aa(lp59
V0021100761
p60
aVMAR 30, 2012
p61
aVMIL @ CLE
p62
aVW
p63
aI24
aI4
aI11
aF0.364
aI0
aI0
aF0.0
aI1
aI2
aF0.5
aI4
aI1
aI5
aI2
aI1
aI1
aI0
aI1
aI9
aI15
aa(lp64
V0021100737
p65
aVMAR 27, 2012
p66
aVMIL vs. ATL
p67
aVW
p68
aI35
aI5
aI16
aF0.313
aI0
aI0
aF0.0
aI6
aI6
aF1.0
aI1
aI4
aI5
aI5
aI0
aI1
aI2
aI1
aI16
aI-4
aa(lp69
V0021100732
p70
aVMAR 26, 2012
p71
aVMIL @ NYK
p72
aVL
p73
aI22
aI2
aI9
aF0.222
aI0
aI1
aF0.0
aI2
aI2
aF1.0
aI3
aI2
aI5
aI1
aI2
aI0
aI0
aI4
aI6
aI-6
aa(lp74
V0021100717
p75
aVMAR 24, 2012
p76
aVMIL vs. IND
p77
aVL
p78
aI21
aI3
aI11
aF0.273
aI0
aI0
aF0.0
aI2
aI2
aF1.0
aI3
aI3
aI6
aI3
aI0
aI3
aI1
aI2
aI8
aI-3
aa(lp79
V0021100700
p80
aVMAR 23, 2012
p81
aVMIL @ CHA
p82
aVW
p83
aI25
aI7
aI14
aF0.5
aI0
aI0
aF0.0
aI0
aI0
aF0.0
aI6
aI6
aI12
aI4
aI0
aI1
aI1
aI4
aI14
aI7
aa(lp84
V0021100694
p85
aVMAR 22, 2012
p86
aVMIL vs. BOS
p87
aVL
p88
aI25
aI2
aI12
aF0.167
aI0
aI1
aF0.0
aI2
aI2
aF1.0
aI0
aI3
aI3
aI3
aI0
aI2
aI2
aI1
aI6
aI-4
aa(lp89
V0021100682
p90
aVMAR 20, 2012
p91
aVMIL @ POR
p92
aVW
p93
aI31
aI8
aI12
aF0.667
aI1
aI1
aF1.0
aI2
aI2
aF1.0
aI1
aI3
aI4
aI5
aI0
aI0
aI1
aI2
aI19
aI13
aa(lp94
V0021100653
p95
aVMAR 16, 2012
p96
aVMIL @ GSW
p97
aVW
p98
aI28
aI6
aI14
aF0.429
aI0
aI1
aF0.0
aI4
aI4
aF1.0
aI3
aI8
aI11
aI4
aI0
aI0
aI2
aI0
aI16
aI-2
aa(lp99
V0021100630
p100
aVMAR 14, 2012
p101
aVMIL vs. CLE
p102
aVW
p103
aI30
aI7
aI12
aF0.583
aI1
aI3
aF0.333
aI0
aI0
aF0.0
aI2
aI8
aI10
aI13
aI1
aI2
aI5
aI2
aI15
aI3
aa(lp104
V0021100611
p105
aVMAR 12, 2012
p106
aVMIL @ NJN
p107
aVW
p108
aI37
aI11
aI19
aF0.579
aI1
aI2
aF0.5
aI0
aI0
aF0.0
aI1
aI7
aI8
aI7
aI1
aI0
aI1
aI2
aI23
aI5
aa(lp109
V0021100605
p110
aVMAR 11, 2012
p111
aVMIL @ TOR
p112
aVW
p113
aI34
aI7
aI11
aF0.636
aI0
aI0
aF0.0
aI7
aI9
aF0.778
aI1
aI5
aI6
aI5
aI1
aI0
aI2
aI4
aI21
aI1
aa(lp114
V0021100590
p115
aVMAR 09, 2012
p116
aVMIL vs. NYK
p117
aVW
p118
aI32
aI4
aI12
aF0.333
aI0
aI2
aF0.0
aI4
aI6
aF0.667
aI5
aI5
aI10
aI5
aI2
aI0
aI6
aI2
aI12
aI-13
aa(lp119
V0021100575
p120
aVMAR 07, 2012
p121
aVMIL vs. CHI
p122
aVL
p123
aI37
aI11
aI21
aF0.524
aI2
aI4
aF0.5
aI3
aI4
aF0.75
aI5
aI1
aI6
aI1
aI2
aI1
aI1
aI1
aI27
aI4
aa(lp124
V0021100558
p125
aVMAR 05, 2012
p126
aVMIL vs. PHI
p127
aVW
p128
aI36
aI9
aI21
aF0.429
aI0
aI1
aF0.0
aI7
aI8
aF0.875
aI3
aI7
aI10
aI2
aI0
aI1
aI3
aI1
aI25
aI9
aa(lp129
V0021100541
p130
aVMAR 03, 2012
p131
aVMIL @ ORL
p132
aVL
p133
aI30
aI2
aI7
aF0.286
aI0
aI1
aF0.0
aI3
aI4
aF0.75
aI2
aI3
aI5
aI1
aI3
aI0
aI4
aI5
aI7
aI-14
aa(lp134
V0021100530
p135
aVMAR 02, 2012
p136
aVMIL @ ATL
p137
aVL
p138
aI38
aI8
aI21
aF0.381
aI1
aI2
aF0.5
aI9
aI9
aF1.0
aI2
aI8
aI10
aI1
aI2
aI0
aI2
aI3
aI26
aI-4
aa(lp139
V0021100514
p140
aVFEB 29, 2012
p141
aVMIL @ BOS
p142
aVL
p143
aI34
aI7
aI15
aF0.467
aI0
aI0
aF0.0
aI9
aI9
aF1.0
aI3
aI5
aI8
aI2
aI0
aI0
aI1
aI1
aI23
aI-14
aa(lp144
V0021100507
p145
aVFEB 28, 2012
p146
aVMIL vs. WAS
p147
aVW
p148
aI23
aI3
aI9
aF0.333
aI0
aI1
aF0.0
aI9
aI11
aF0.818
aI4
aI6
aI10
aI3
aI3
aI2
aI1
aI1
aI15
aI-3
aa(lp149
V0021100435
p150
aVFEB 15, 2012
p151
aVMIL vs. NOH
p152
aVL
p153
aI26
aI5
aI13
aF0.385
aI1
aI1
aF1.0
aI0
aI0
aF0.0
aI1
aI4
aI5
aI1
aI0
aI2
aI2
aI2
aI11
aI-5
aa(lp154
V0021100416
p155
aVFEB 13, 2012
p156
aVMIL vs. MIA
p157
aVL
p158
aI26
aI2
aI14
aF0.143
aI0
aI1
aF0.0
aI8
aI8
aF1.0
aI5
aI2
aI7
aI2
aI1
aI1
aI0
aI1
aI12
aI-12
aa(lp159
V0021100406
p160
aVFEB 11, 2012
p161
aVMIL vs. ORL
p162
aVL
p163
aI42
aI9
aI21
aF0.429
aI1
aI3
aF0.333
aI2
aI2
aF1.0
aI2
aI6
aI8
aI4
aI1
aI1
aI2
aI4
aI21
aI-5
aa(lp164
V0021100394
p165
aVFEB 10, 2012
p166
aVMIL @ CLE
p167
aVW
p168
aI31
aI6
aI13
aF0.462
aI2
aI3
aF0.667
aI5
aI6
aF0.833
aI1
aI5
aI6
aI2
aI1
aI2
aI3
aI3
aI19
aI-9
aa(lp169
V0021100373
p170
aVFEB 08, 2012
p171
aVMIL @ TOR
p172
aVW
p173
aI35
aI7
aI15
aF0.467
aI0
aI1
aF0.0
aI6
aI8
aF0.75
aI5
aI9
aI14
aI3
aI1
aI1
aI6
aI1
aI20
aI7
aa(lp174
V0021100370
p175
aVFEB 07, 2012
p176
aVMIL vs. PHX
p177
aVL
p178
aI29
aI12
aI21
aF0.571
aI0
aI1
aF0.0
aI1
aI2
aF0.5
aI2
aI2
aI4
aI2
aI0
aI1
aI2
aI4
aI25
aI-7
aa(lp179
V0021100349
p180
aVFEB 04, 2012
p181
aVMIL vs. CHI
p182
aVL
p183
aI29
aI7
aI13
aF0.538
aI0
aI1
aF0.0
aI10
aI10
aF1.0
aI0
aI3
aI3
aI0
aI1
aI1
aI1
aI1
aI24
aI-17
aa(lp184
V0021100336
p185
aVFEB 03, 2012
p186
aVMIL @ DET
p187
aVL
p188
aI23
aI1
aI8
aF0.125
aI0
aI2
aF0.0
aI2
aI2
aF1.0
aI2
aI2
aI4
aI2
aI0
aI1
aI1
aI3
aI4
aI-15
aa(lp189
V0021100319
p190
aVFEB 01, 2012
p191
aVMIL vs. MIA
p192
aVW
p193
aI39
aI7
aI12
aF0.583
aI0
aI1
aF0.0
aI3
aI4
aF0.75
aI2
aI7
aI9
aI5
aI2
aI0
aI5
aI2
aI17
aI5
aa(lp194
V0021100302
p195
aVJAN 30, 2012
p196
aVMIL vs. DET
p197
aVW
p198
aI25
aI7
aI9
aF0.778
aI0
aI1
aF0.0
aI2
aI3
aF0.667
aI1
aI4
aI5
aI1
aI0
aI1
aI1
aI3
aI16
aI13
aa(lp199
V0021100288
p200
aVJAN 28, 2012
p201
aVMIL vs. LAL
p202
aVW
p203
aI36
aI9
aI15
aF0.6
aI1
aI3
aF0.333
aI4
aI4
aF1.0
aI1
aI7
aI8
aI1
aI1
aI0
aI2
aI3
aI23
aI5
aa(lp204
V0021100277
p205
aVJAN 27, 2012
p206
aVMIL @ CHI
p207
aVL
p208
aI36
aI6
aI14
aF0.429
aI1
aI2
aF0.5
aI10
aI10
aF1.0
aI6
aI9
aI15
aI6
aI0
aI1
aI4
aI2
aI23
aI1
aa(lp209
V0021100262
p210
aVJAN 25, 2012
p211
aVMIL @ HOU
p212
aVW
p213
aI28
aI4
aI8
aF0.5
aI1
aI2
aF0.5
aI2
aI2
aF1.0
aI1
aI1
aI2
aI2
aI3
aI1
aI2
aI3
aI11
aI-16
aa(lp214
V0021100245
p215
aVJAN 23, 2012
p216
aVMIL vs. ATL
p217
aVL
p218
aI23
aI4
aI10
aF0.4
aI1
aI2
aF0.5
aI4
aI5
aF0.8
aI3
aI3
aI6
aI2
aI0
aI1
aI2
aI2
aI13
aI-5
aa(lp219
V0021100240
p220
aVJAN 22, 2012
p221
aVMIL @ MIA
p222
aVW
p223
aI14
aI1
aI6
aF0.167
aI0
aI0
aF0.0
aI0
aI0
aF0.0
aI2
aI1
aI3
aI2
aI0
aI0
aI1
aI0
aI2
aI4
aa(lp224
V0021100220
p225
aVJAN 20, 2012
p226
aVMIL @ NYK
p227
aVW
p228
aI22
aI2
aI9
aF0.222
aI0
aI0
aF0.0
aI6
aI8
aF0.75
aI3
aI8
aI11
aI0
aI0
aI0
aI2
aI1
aI10
aI2
aa(lp229
V0021100199
p230
aVJAN 17, 2012
p231
aVMIL vs. DEN
p232
aVL
p233
aI12
aI2
aI6
aF0.333
aI0
aI0
aF0.0
aI1
aI1
aF1.0
aI1
aI1
aI2
aI0
aI0
aI0
aI0
aI1
aI5
aI-2
aa(lp234
V0021100186
p235
aVJAN 16, 2012
p236
aVMIL @ PHI
p237
aVL
p238
aI4
aI1
aI3
aF0.333
aI0
aI0
aF0.0
aI0
aI0
aF0.0
aI0
aI2
aI2
aI0
aI0
aI0
aI1
aI1
aI2
aI-4
aa(lp239
V0021100165
p240
aVJAN 13, 2012
p241
aVMIL @ DAL
p242
aVL
p243
aI23
aI4
aI9
aF0.444
aI0
aI0
aF0.0
aI0
aI0
aF0.0
aI1
aI2
aI3
aI2
aI0
aI0
aI4
aI2
aI8
aI-8
aa(lp244
V0021100155
p245
aVJAN 12, 2012
p246
aVMIL vs. DET
p247
aVW
p248
aI5
aI0
aI0
aF0.0
aI0
aI0
aF0.0
aI0
aI0
aF0.0
aI0
aI0
aI0
aI0
aI0
aI0
aI0
aI3
aI0
aI-9
aa(lp249
V0021100136
p250
aVJAN 10, 2012
p251
aVMIL vs. SAS
p252
aVW
p253
aI13
aI1
aI4
aF0.25
aI0
aI1
aF0.0
aI0
aI0
aF0.0
aI0
aI2
aI2
aI2
aI0
aI0
aI0
aI1
aI2
aI9
aa(lp254
V0021100123
p255
aVJAN 08, 2012
p256
aVMIL @ PHX
p257
aVL
p258
aI18
aI3
aI12
aF0.25
aI0
aI1
aF0.0
aI2
aI2
aF1.0
aI3
aI3
aI6
aI3
aI1
aI0
aI2
aI1
aI8
aI-19
aa(lp259
V0021100118
p260
aVJAN 07, 2012
p261
aVMIL @ LAC
p262
aVL
p263
aI29
aI5
aI14
aF0.357
aI1
aI1
aF1.0
aI7
aI8
aF0.875
aI4
aI9
aI13
aI0
aI1
aI0
aI1
aI3
aI18
aI-17
aa(lp264
V0021100096
p265
aVJAN 05, 2012
p266
aVMIL @ SAC
p267
aVL
p268
aI34
aI6
aI13
aF0.462
aI0
aI0
aF0.0
aI6
aI10
aF0.6
aI4
aI5
aI9
aI2
aI2
aI0
aI4
aI4
aI18
aI-7
aa(lp269
V0021100080
p270
aVJAN 03, 2012
p271
aVMIL @ UTA
p272
aVL
p273
aI36
aI12
aI20
aF0.6
aI0
aI1
aF0.0
aI0
aI0
aF0.0
aI7
aI5
aI12
aI1
aI0
aI1
aI2
aI3
aI24
aI-6
aa(lp274
V0021100074
p275
aVJAN 02, 2012
p276
aVMIL @ DEN
p277
aVL
p278
aI6
aI1
aI3
aF0.333
aI0
aI0
aF0.0
aI0
aI0
aF0.0
aI1
aI1
aI2
aI0
aI0
aI0
aI0
aI1
aI2
aI4
aa(lp279
V0021100007
p280
aVDEC 26, 2011
p281
aVMIL @ CHA
p282
aVL
p283
aI14
aI1
aI4
aF0.25
aI0
aI1
aF0.0
aI2
aI2
aF1.0
aI0
aI5
aI5
aI2
aI0
aI1
aI1
aI1
aI4
aI-3
aasS'name'
p284
VDrew Gooden
p285
sS'experience'
p286
I9
s.