(dp0
S'age'
p1
I29
sS'stats'
p2
(lp3
(lp4
V0021100900
p5
aVAPR 15, 2012
p6
aVNOH vs. MEM
p7
aVW
p8
aI20
aI1
aI2
aF0.5
aI0
aI0
aF0.0
aI2
aI2
aF1.0
aI0
aI3
aI3
aI0
aI1
aI0
aI3
aI2
aI4
aI6
aa(lp9
V0021100881
p10
aVAPR 13, 2012
p11
aVNOH vs. UTA
p12
aVW
p13
aI33
aI8
aI16
aF0.5
aI0
aI0
aF0.0
aI3
aI4
aF0.75
aI2
aI2
aI4
aI2
aI1
aI0
aI2
aI3
aI19
aI11
aa(lp14
V0021100863
p15
aVAPR 11, 2012
p16
aVNOH vs. SAC
p17
aVW
p18
aI35
aI3
aI9
aF0.333
aI0
aI0
aF0.0
aI2
aI2
aF1.0
aI0
aI10
aI10
aI1
aI0
aI3
aI1
aI1
aI8
aI7
aa(lp19
V0021100847
p20
aVAPR 09, 2012
p21
aVNOH vs. LAL
p22
aVL
p23
aI29
aI7
aI13
aF0.538
aI0
aI0
aF0.0
aI2
aI2
aF1.0
aI1
aI3
aI4
aI3
aI1
aI5
aI2
aI5
aI16
aI4
aa(lp24
V0021100830
p25
aVAPR 07, 2012
p26
aVNOH vs. MIN
p27
aVW
p28
aI31
aI9
aI10
aF0.9
aI0
aI0
aF0.0
aI3
aI3
aF1.0
aI2
aI8
aI10
aI4
aI1
aI4
aI2
aI2
aI21
aI15
aa(lp29
V0021100822
p30
aVAPR 06, 2012
p31
aVNOH @ SAS
p32
aVL
p33
aI25
aI3
aI8
aF0.375
aI0
aI0
aF0.0
aI2
aI2
aF1.0
aI0
aI1
aI1
aI1
aI0
aI2
aI2
aI1
aI8
aI-13
aa(lp34
V0021100805
p35
aVAPR 04, 2012
p36
aVNOH vs. DEN
p37
aVW
p38
aI33
aI6
aI11
aF0.545
aI0
aI0
aF0.0
aI2
aI3
aF0.667
aI3
aI7
aI10
aI2
aI1
aI5
aI2
aI3
aI14
aI3
aa(lp39
V0021100782
p40
aVAPR 01, 2012
p41
aVNOH @ PHX
p42
aVL
p43
aI26
aI4
aI11
aF0.364
aI0
aI0
aF0.0
aI0
aI0
aF0.0
aI1
aI4
aI5
aI1
aI1
aI1
aI3
aI3
aI8
aI-10
aa(lp44
V0021100695
p45
aVMAR 22, 2012
p46
aVNOH vs. LAC
p47
aVW
p48
aI40
aI9
aI13
aF0.692
aI0
aI0
aF0.0
aI2
aI3
aF0.667
aI1
aI9
aI10
aI1
aI1
aI4
aI7
aI2
aI20
aI5
aa(lp49
V0021100688
p50
aVMAR 21, 2012
p51
aVNOH vs. GSW
p52
aVL
p53
aI33
aI5
aI13
aF0.385
aI0
aI0
aF0.0
aI3
aI4
aF0.75
aI3
aI6
aI9
aI5
aI0
aI4
aI4
aI3
aI13
aI-3
aa(lp54
V0021100657
p55
aVMAR 17, 2012
p56
aVNOH @ NJN
p57
aVW
p58
aI29
aI9
aI13
aF0.692
aI0
aI0
aF0.0
aI2
aI2
aF1.0
aI1
aI1
aI2
aI2
aI1
aI2
aI4
aI3
aI20
aI9
aa(lp59
V0021100638
p60
aVMAR 15, 2012
p61
aVNOH vs. WAS
p62
aVL
p63
aI37
aI9
aI15
aF0.6
aI0
aI0
aF0.0
aI2
aI4
aF0.5
aI3
aI4
aI7
aI4
aI2
aI0
aI1
aI1
aI20
aI-12
aa(lp64
V0021100631
p65
aVMAR 14, 2012
p66
aVNOH vs. LAL
p67
aVL
p68
aI45
aI9
aI20
aF0.45
aI0
aI0
aF0.0
aI3
aI4
aF0.75
aI2
aI10
aI12
aI3
aI1
aI0
aI6
aI5
aI21
aI-11
aa(lp69
V0021100613
p70
aVMAR 12, 2012
p71
aVNOH vs. CHA
p72
aVL
p73
aI41
aI6
aI19
aF0.316
aI0
aI0
aF0.0
aI0
aI0
aF0.0
aI2
aI14
aI16
aI3
aI0
aI3
aI2
aI1
aI12
aI3
aa(lp74
V0021100600
p75
aVMAR 10, 2012
p76
aVNOH @ MIN
p77
aVW
p78
aI36
aI10
aI21
aF0.476
aI0
aI0
aF0.0
aI0
aI0
aF0.0
aI2
aI4
aI6
aI4
aI2
aI3
aI1
aI3
aI20
aI-4
aa(lp79
V0021100592
p80
aVMAR 09, 2012
p81
aVNOH @ DEN
p82
aVL
p83
aI21
aI5
aI9
aF0.556
aI0
aI0
aF0.0
aI0
aI0
aF0.0
aI1
aI4
aI5
aI2
aI0
aI1
aI2
aI2
aI10
aI-7
aa(lp84
V0021100580
p85
aVMAR 07, 2012
p86
aVNOH @ SAC
p87
aVL
p88
aI46
aI7
aI14
aF0.5
aI0
aI0
aF0.0
aI4
aI5
aF0.8
aI3
aI8
aI11
aI8
aI0
aI2
aI4
aI2
aI18
aI0
aa(lp89
V0021100562
p90
aVMAR 05, 2012
p91
aVNOH @ POR
p92
aVL
p93
aI27
aI4
aI13
aF0.308
aI0
aI0
aF0.0
aI2
aI3
aF0.667
aI2
aI9
aI11
aI0
aI1
aI1
aI4
aI0
aI10
aI-10
aa(lp94
V0021100543
p95
aVMAR 03, 2012
p96
aVNOH vs. IND
p97
aVL
p98
aI26
aI5
aI15
aF0.333
aI0
aI0
aF0.0
aI0
aI0
aF0.0
aI2
aI4
aI6
aI3
aI0
aI2
aI4
aI3
aI10
aI-20
aa(lp99
V0021100533
p100
aVMAR 02, 2012
p101
aVNOH vs. DAL
p102
aVW
p103
aI39
aI9
aI18
aF0.5
aI0
aI0
aF0.0
aI2
aI3
aF0.667
aI3
aI10
aI13
aI3
aI0
aI0
aI1
aI3
aI20
aI-2
aa(lp104
V0021100519
p105
aVFEB 29, 2012
p106
aVNOH vs. TOR
p107
aVL
p108
aI26
aI6
aI14
aF0.429
aI0
aI0
aF0.0
aI5
aI6
aF0.833
aI3
aI7
aI10
aI1
aI0
aI2
aI1
aI2
aI17
aI8
aa(lp109
V0021100506
p110
aVFEB 28, 2012
p111
aVNOH @ CHI
p112
aVL
p113
aI39
aI7
aI18
aF0.389
aI0
aI0
aF0.0
aI3
aI4
aF0.75
aI2
aI9
aI11
aI5
aI0
aI1
aI4
aI3
aI17
aI-5
aa(lp114
V0021100489
p115
aVFEB 22, 2012
p116
aVNOH @ CLE
p117
aVW
p118
aI35
aI10
aI25
aF0.4
aI0
aI0
aF0.0
aI1
aI1
aF1.0
aI6
aI7
aI13
aI3
aI1
aI2
aI4
aI4
aI21
aI16
aa(lp119
V0021100482
p120
aVFEB 21, 2012
p121
aVNOH @ IND
p122
aVL
p123
aI39
aI8
aI14
aF0.571
aI0
aI0
aF0.0
aI1
aI4
aF0.25
aI1
aI1
aI2
aI1
aI0
aI2
aI5
aI3
aI17
aI-14
aa(lp124
V0021100475
p125
aVFEB 20, 2012
p126
aVNOH @ OKC
p127
aVL
p128
aI28
aI4
aI17
aF0.235
aI0
aI0
aF0.0
aI4
aI4
aF1.0
aI1
aI7
aI8
aI3
aI0
aI0
aI3
aI1
aI12
aI-14
aa(lp129
V0021100450
p130
aVFEB 17, 2012
p131
aVNOH @ NYK
p132
aVW
p133
aI37
aI3
aI12
aF0.25
aI0
aI0
aF0.0
aI6
aI6
aF1.0
aI1
aI7
aI8
aI6
aI0
aI0
aI2
aI3
aI12
aI14
aa(lp134
V0021100435
p135
aVFEB 15, 2012
p136
aVNOH @ MIL
p137
aVW
p138
aI37
aI8
aI23
aF0.348
aI0
aI0
aF0.0
aI2
aI4
aF0.5
aI4
aI6
aI10
aI2
aI0
aI1
aI4
aI1
aI18
aI7
aa(lp139
V0021100417
p140
aVFEB 13, 2012
p141
aVNOH vs. UTA
p142
aVW
p143
aI42
aI12
aI22
aF0.545
aI0
aI0
aF0.0
aI3
aI4
aF0.75
aI6
aI7
aI13
aI2
aI2
aI1
aI3
aI3
aI27
aI11
aa(lp144
V0021100381
p145
aVFEB 08, 2012
p146
aVNOH vs. CHI
p147
aVL
p148
aI31
aI6
aI17
aF0.353
aI0
aI0
aF0.0
aI5
aI5
aF1.0
aI2
aI7
aI9
aI2
aI0
aI3
aI4
aI0
aI17
aI-9
aa(lp149
V0021100364
p150
aVFEB 06, 2012
p151
aVNOH vs. SAC
p152
aVL
p153
aI22
aI4
aI12
aF0.333
aI0
aI0
aF0.0
aI2
aI4
aF0.5
aI2
aI10
aI12
aI1
aI0
aI2
aI2
aI2
aI10
aI-6
aa(lp154
V0021100246
p155
aVJAN 23, 2012
p156
aVNOH vs. SAS
p157
aVL
p158
aI14
aI3
aI8
aF0.375
aI0
aI0
aF0.0
aI0
aI0
aF0.0
aI1
aI3
aI4
aI0
aI1
aI2
aI1
aI0
aI6
aI1
aa(lp159
V0021100234
p160
aVJAN 21, 2012
p161
aVNOH vs. DAL
p162
aVL
p163
aI7
aI1
aI2
aF0.5
aI0
aI0
aF0.0
aI1
aI1
aF1.0
aI1
aI0
aI1
aI0
aI0
aI1
aI2
aI0
aI3
aI-3
aa(lp164
V0021100214
p165
aVJAN 19, 2012
p166
aVNOH @ HOU
p167
aVL
p168
aI27
aI2
aI9
aF0.222
aI0
aI0
aF0.0
aI1
aI2
aF0.5
aI1
aI7
aI8
aI1
aI2
aI1
aI4
aI1
aI5
aI1
aa(lp169
V0021100209
p170
aVJAN 18, 2012
p171
aVNOH vs. MEM
p172
aVL
p173
aI21
aI2
aI6
aF0.333
aI0
aI0
aF0.0
aI0
aI0
aF0.0
aI1
aI3
aI4
aI4
aI0
aI3
aI3
aI1
aI4
aI3
aa(lp174
V0021100190
p175
aVJAN 16, 2012
p176
aVNOH vs. POR
p177
aVL
p178
aI24
aI6
aI15
aF0.4
aI0
aI0
aF0.0
aI0
aI0
aF0.0
aI1
aI5
aI6
aI3
aI1
aI1
aI2
aI1
aI12
aI-2
aa(lp179
V0021100175
p180
aVJAN 14, 2012
p181
aVNOH @ MEM
p182
aVL
p183
aI16
aI3
aI6
aF0.5
aI0
aI0
aF0.0
aI1
aI2
aF0.5
aI1
aI1
aI2
aI2
aI1
aI1
aI1
aI4
aI7
aI-11
aa(lp184
V0021100163
p185
aVJAN 13, 2012
p186
aVNOH vs. MIN
p187
aVL
p188
aI18
aI0
aI10
aF0.0
aI0
aI0
aF0.0
aI2
aI2
aF1.0
aI3
aI6
aI9
aI0
aI1
aI1
aI1
aI1
aI2
aI-3
aa(lp189
V0021100148
p190
aVJAN 11, 2012
p191
aVNOH vs. OKC
p192
aVL
p193
aI31
aI8
aI16
aF0.5
aI0
aI0
aF0.0
aI1
aI2
aF0.5
aI2
aI7
aI9
aI2
aI0
aI2
aI3
aI2
aI17
aI1
aa(lp194
V0021100131
p195
aVJAN 09, 2012
p196
aVNOH @ DEN
p197
aVW
p198
aI28
aI10
aI16
aF0.625
aI0
aI0
aF0.0
aI0
aI0
aF0.0
aI1
aI6
aI7
aI1
aI0
aI1
aI2
aI4
aI20
aI8
aa(lp199
V0021100117
p200
aVJAN 07, 2012
p201
aVNOH @ DAL
p202
aVL
p203
aI25
aI4
aI8
aF0.5
aI0
aI0
aF0.0
aI2
aI2
aF1.0
aI2
aI4
aI6
aI2
aI0
aI0
aI2
aI4
aI10
aI-4
aa(lp204
V0021100104
p205
aVJAN 06, 2012
p206
aVNOH vs. DEN
p207
aVL
p208
aI28
aI3
aI9
aF0.333
aI0
aI0
aF0.0
aI0
aI0
aF0.0
aI0
aI12
aI12
aI2
aI0
aI1
aI4
aI1
aI6
aI-19
aa(lp209
V0021100088
p210
aVJAN 04, 2012
p211
aVNOH vs. PHI
p212
aVL
p213
aI24
aI5
aI7
aF0.714
aI0
aI0
aF0.0
aI0
aI0
aF0.0
aI0
aI8
aI8
aI2
aI0
aI0
aI2
aI2
aI10
aI-4
aa(lp214
V0021100075
p215
aVJAN 02, 2012
p216
aVNOH @ UTA
p217
aVL
p218
aI29
aI6
aI7
aF0.857
aI0
aI0
aF0.0
aI2
aI2
aF1.0
aI2
aI4
aI6
aI1
aI0
aI0
aI3
aI3
aI14
aI-7
aa(lp219
V0021100064
p220
aVJAN 01, 2012
p221
aVNOH @ SAC
p222
aVL
p223
aI27
aI5
aI13
aF0.385
aI0
aI0
aF0.0
aI4
aI4
aF1.0
aI3
aI12
aI15
aI1
aI0
aI1
aI3
aI4
aI14
aI-6
aa(lp224
V0021100044
p225
aVDEC 30, 2011
p226
aVNOH vs. PHX
p227
aVL
p228
aI20
aI1
aI5
aF0.2
aI0
aI0
aF0.0
aI2
aI2
aF1.0
aI2
aI0
aI2
aI1
aI0
aI3
aI3
aI1
aI4
aI-9
aa(lp229
V0021100028
p230
aVDEC 28, 2011
p231
aVNOH vs. BOS
p232
aVW
p233
aI27
aI6
aI15
aF0.4
aI0
aI0
aF0.0
aI0
aI0
aF0.0
aI3
aI6
aI9
aI1
aI1
aI3
aI1
aI3
aI12
aI14
aa(lp234
V0021100014
p235
aVDEC 26, 2011
p236
aVNOH @ PHX
p237
aVW
p238
aI21
aI5
aI8
aF0.625
aI0
aI0
aF0.0
aI0
aI0
aF0.0
aI3
aI2
aI5
aI0
aI1
aI0
aI3
aI4
aI10
aI4
aasS'name'
p239
VChris Kaman
p240
sS'experience'
p241
I8
s.