(dp0
S'age'
p1
I29
sS'stats'
p2
(lp3
(lp4
V0021100990
p5
aVAPR 26, 2012
p6
aVSAS @ GSW
p7
aVW
p8
aI20
aI2
aI2
aF1.0
aI1
aI1
aF1.0
aI0
aI0
aF0.0
aI0
aI7
aI7
aI4
aI0
aI0
aI3
aI2
aI5
aI10
aa(lp9
V0021100977
p10
aVAPR 25, 2012
p11
aVSAS @ PHX
p12
aVW
p13
aI21
aI1
aI1
aF1.0
aI1
aI1
aF1.0
aI0
aI2
aF0.0
aI0
aI4
aI4
aI4
aI0
aI0
aI3
aI3
aI3
aI0
aa(lp14
V0021100965
p15
aVAPR 23, 2012
p16
aVSAS vs. POR
p17
aVW
p18
aI25
aI3
aI5
aF0.6
aI0
aI0
aF0.0
aI0
aI0
aF0.0
aI2
aI5
aI7
aI6
aI0
aI1
aI1
aI1
aI6
aI21
aa(lp19
V0021100956
p20
aVAPR 22, 2012
p21
aVSAS vs. CLE
p22
aVW
p23
aI23
aI3
aI7
aF0.429
aI0
aI0
aF0.0
aI0
aI0
aF0.0
aI2
aI5
aI7
aI2
aI0
aI0
aI1
aI5
aI6
aI1
aa(lp24
V0021100941
p25
aVAPR 20, 2012
p26
aVSAS vs. LAL
p27
aVW
p28
aI24
aI3
aI4
aF0.75
aI0
aI0
aF0.0
aI2
aI2
aF1.0
aI1
aI4
aI5
aI1
aI1
aI0
aI1
aI0
aI8
aI19
aa(lp29
V0021100929
p30
aVAPR 18, 2012
p31
aVSAS @ SAC
p32
aVW
p33
aI24
aI3
aI5
aF0.6
aI2
aI2
aF1.0
aI0
aI0
aF0.0
aI1
aI4
aI5
aI1
aI0
aI0
aI2
aI2
aI8
aI3
aa(lp34
V0021100917
p35
aVAPR 17, 2012
p36
aVSAS @ LAL
p37
aVW
p38
aI19
aI2
aI2
aF1.0
aI0
aI0
aF0.0
aI0
aI0
aF0.0
aI0
aI0
aI0
aI2
aI1
aI0
aI0
aI2
aI4
aI21
aa(lp39
V0021100912
p40
aVAPR 16, 2012
p41
aVSAS @ GSW
p42
aVW
p43
aI22
aI2
aI6
aF0.333
aI1
aI1
aF1.0
aI0
aI0
aF0.0
aI5
aI4
aI9
aI1
aI0
aI1
aI2
aI3
aI5
aI-7
aa(lp44
V0021100892
p45
aVAPR 14, 2012
p46
aVSAS vs. PHX
p47
aVW
p48
aI17
aI2
aI3
aF0.667
aI1
aI1
aF1.0
aI0
aI0
aF0.0
aI1
aI1
aI2
aI1
aI2
aI0
aI1
aI1
aI5
aI-11
aa(lp49
V0021100872
p50
aVAPR 12, 2012
p51
aVSAS vs. MEM
p52
aVW
p53
aI14
aI2
aI3
aF0.667
aI1
aI1
aF1.0
aI0
aI0
aF0.0
aI1
aI4
aI5
aI1
aI0
aI0
aI2
aI3
aI5
aI-7
aa(lp54
V0021100866
p55
aVAPR 11, 2012
p56
aVSAS vs. LAL
p57
aVL
p58
aI17
aI0
aI0
aF0.0
aI0
aI0
aF0.0
aI0
aI0
aF0.0
aI0
aI2
aI2
aI3
aI0
aI0
aI0
aI3
aI0
aI-4
aa(lp59
V0021100850
p60
aVAPR 09, 2012
p61
aVSAS @ UTA
p62
aVL
p63
aI20
aI2
aI4
aF0.5
aI0
aI0
aF0.0
aI1
aI2
aF0.5
aI0
aI3
aI3
aI0
aI2
aI1
aI1
aI4
aI5
aI-6
aa(lp64
V0021100839
p65
aVAPR 08, 2012
p66
aVSAS vs. UTA
p67
aVW
p68
aI24
aI4
aI5
aF0.8
aI1
aI1
aF1.0
aI0
aI0
aF0.0
aI0
aI1
aI1
aI2
aI0
aI0
aI2
aI6
aI9
aI2
aa(lp69
V0021100822
p70
aVAPR 06, 2012
p71
aVSAS vs. NOH
p72
aVW
p73
aI22
aI3
aI5
aF0.6
aI0
aI0
aF0.0
aI0
aI0
aF0.0
aI3
aI1
aI4
aI0
aI0
aI1
aI1
aI4
aI6
aI7
aa(lp74
V0021100792
p75
aVAPR 03, 2012
p76
aVSAS @ CLE
p77
aVW
p78
aI25
aI3
aI4
aF0.75
aI0
aI1
aF0.0
aI0
aI0
aF0.0
aI4
aI2
aI6
aI9
aI1
aI0
aI1
aI2
aI6
aI18
aa(lp79
V0021100750
p80
aVMAR 28, 2012
p81
aVSAS @ SAC
p82
aVW
p83
aI18
aI0
aI2
aF0.0
aI0
aI2
aF0.0
aI0
aI0
aF0.0
aI0
aI4
aI4
aI2
aI1
aI1
aI0
aI2
aI0
aI-4
aa(lp84
V0021100740
p85
aVMAR 27, 2012
p86
aVSAS @ PHX
p87
aVW
p88
aI18
aI3
aI4
aF0.75
aI0
aI0
aF0.0
aI0
aI0
aF0.0
aI1
aI1
aI2
aI4
aI2
aI0
aI2
aI4
aI6
aI14
aa(lp89
V0021100723
p90
aVMAR 25, 2012
p91
aVSAS vs. PHI
p92
aVW
p93
aI27
aI0
aI3
aF0.0
aI0
aI2
aF0.0
aI2
aI2
aF1.0
aI1
aI6
aI7
aI2
aI3
aI0
aI1
aI1
aI2
aI12
aa(lp94
V0021100715
p95
aVMAR 24, 2012
p96
aVSAS @ NOH
p97
aVW
p98
aI11
aI1
aI2
aF0.5
aI0
aI0
aF0.0
aI0
aI0
aF0.0
aI1
aI1
aI2
aI1
aI1
aI0
aI2
aI2
aI2
aI1
aa(lp99
V0021100707
p100
aVMAR 23, 2012
p101
aVSAS vs. DAL
p102
aVW
p103
aI16
aI1
aI1
aF1.0
aI0
aI0
aF0.0
aI0
aI0
aF0.0
aI0
aI3
aI3
aI1
aI0
aI1
aI2
aI4
aI2
aI20
aa(lp104
V0021100632
p105
aVMAR 14, 2012
p106
aVCHA @ HOU
p107
aVL
p108
aI13
aI0
aI1
aF0.0
aI0
aI0
aF0.0
aI0
aI0
aF0.0
aI0
aI0
aI0
aI3
aI1
aI0
aI2
aI1
aI0
aI-3
aa(lp109
V0021100613
p110
aVMAR 12, 2012
p111
aVCHA @ NOH
p112
aVW
p113
aI11
aI1
aI4
aF0.25
aI0
aI1
aF0.0
aI0
aI0
aF0.0
aI0
aI0
aI0
aI0
aI0
aI0
aI1
aI0
aI2
aI-3
aa(lp114
V0021100549
p115
aVMAR 04, 2012
p116
aVCHA vs. NJN
p117
aVL
p118
aI40
aI1
aI4
aF0.25
aI0
aI1
aF0.0
aI0
aI0
aF0.0
aI3
aI3
aI6
aI8
aI2
aI0
aI2
aI2
aI2
aI-6
aa(lp119
V0021100535
p120
aVMAR 02, 2012
p121
aVCHA @ SAS
p122
aVL
p123
aI26
aI6
aI10
aF0.6
aI2
aI3
aF0.667
aI0
aI0
aF0.0
aI3
aI3
aI6
aI3
aI0
aI0
aI1
aI1
aI14
aI-12
aa(lp124
V0021100517
p125
aVFEB 29, 2012
p126
aVCHA @ DET
p127
aVL
p128
aI24
aI2
aI10
aF0.2
aI0
aI1
aF0.0
aI1
aI2
aF0.5
aI3
aI3
aI6
aI3
aI0
aI1
aI1
aI0
aI5
aI-12
aa(lp129
V0021100488
p130
aVFEB 22, 2012
p131
aVCHA vs. IND
p132
aVL
p133
aI29
aI1
aI6
aF0.167
aI0
aI1
aF0.0
aI2
aI2
aF1.0
aI3
aI8
aI11
aI8
aI0
aI0
aI3
aI4
aI4
aI-5
aa(lp134
V0021100464
p135
aVFEB 19, 2012
p136
aVCHA @ IND
p137
aVL
p138
aI17
aI0
aI3
aF0.0
aI0
aI0
aF0.0
aI0
aI0
aF0.0
aI1
aI1
aI2
aI4
aI0
aI0
aI4
aI2
aI0
aI-32
aa(lp139
V0021100445
p140
aVFEB 17, 2012
p141
aVCHA @ TOR
p142
aVW
p143
aI29
aI3
aI8
aF0.375
aI0
aI1
aF0.0
aI0
aI0
aF0.0
aI0
aI6
aI6
aI3
aI0
aI1
aI4
aI3
aI6
aI5
aa(lp144
V0021100437
p145
aVFEB 15, 2012
p146
aVCHA @ MIN
p147
aVL
p148
aI38
aI7
aI12
aF0.583
aI0
aI1
aF0.0
aI0
aI0
aF0.0
aI5
aI4
aI9
aI7
aI3
aI0
aI5
aI1
aI14
aI-7
aa(lp149
V0021100414
p150
aVFEB 13, 2012
p151
aVCHA vs. PHI
p152
aVL
p153
aI39
aI1
aI3
aF0.333
aI0
aI0
aF0.0
aI0
aI0
aF0.0
aI0
aI5
aI5
aI10
aI1
aI2
aI2
aI2
aI2
aI-3
aa(lp154
V0021100400
p155
aVFEB 11, 2012
p156
aVCHA vs. LAC
p157
aVL
p158
aI24
aI3
aI10
aF0.3
aI1
aI6
aF0.167
aI0
aI0
aF0.0
aI0
aI1
aI1
aI2
aI0
aI2
aI0
aI2
aI7
aI-22
aa(lp159
V0021100391
p160
aVFEB 10, 2012
p161
aVCHA vs. CHI
p162
aVL
p163
aI27
aI4
aI9
aF0.444
aI0
aI2
aF0.0
aI0
aI0
aF0.0
aI1
aI3
aI4
aI6
aI0
aI0
aI1
aI0
aI8
aI-19
aa(lp164
V0021100368
p165
aVFEB 07, 2012
p166
aVCHA @ BOS
p167
aVL
p168
aI29
aI2
aI6
aF0.333
aI0
aI3
aF0.0
aI0
aI0
aF0.0
aI0
aI6
aI6
aI3
aI0
aI0
aI1
aI2
aI4
aI-17
aa(lp169
V0021100352
p170
aVFEB 04, 2012
p171
aVCHA @ PHX
p172
aVL
p173
aI38
aI5
aI10
aF0.5
aI3
aI5
aF0.6
aI0
aI0
aF0.0
aI1
aI2
aI3
aI3
aI1
aI1
aI5
aI1
aI13
aI1
aa(lp174
V0021100324
p175
aVFEB 01, 2012
p176
aVCHA @ POR
p177
aVL
p178
aI29
aI1
aI7
aF0.143
aI0
aI3
aF0.0
aI1
aI2
aF0.5
aI1
aI5
aI6
aI3
aI0
aI1
aI1
aI1
aI3
aI-26
aa(lp179
V0021100313
p180
aVJAN 31, 2012
p181
aVCHA @ LAL
p182
aVL
p183
aI28
aI5
aI14
aF0.357
aI1
aI3
aF0.333
aI0
aI0
aF0.0
aI0
aI4
aI4
aI4
aI2
aI0
aI1
aI2
aI11
aI-14
aa(lp184
V0021100286
p185
aVJAN 28, 2012
p186
aVCHA vs. WAS
p187
aVL
p188
aI41
aI7
aI11
aF0.636
aI1
aI2
aF0.5
aI6
aI10
aF0.6
aI2
aI1
aI3
aI10
aI1
aI0
aI3
aI0
aI21
aI4
aa(lp189
V0021100272
p190
aVJAN 27, 2012
p191
aVCHA @ PHI
p192
aVL
p193
aI24
aI5
aI10
aF0.5
aI0
aI2
aF0.0
aI0
aI0
aF0.0
aI0
aI2
aI2
aI3
aI0
aI0
aI5
aI1
aI10
aI-13
aa(lp194
V0021100258
p195
aVJAN 25, 2012
p196
aVCHA @ WAS
p197
aVL
p198
aI21
aI2
aI8
aF0.25
aI0
aI2
aF0.0
aI0
aI0
aF0.0
aI3
aI2
aI5
aI2
aI1
aI0
aI1
aI0
aI4
aI-12
aa(lp199
V0021100252
p200
aVJAN 24, 2012
p201
aVCHA vs. NYK
p202
aVL
p203
aI24
aI1
aI6
aF0.167
aI0
aI3
aF0.0
aI2
aI2
aF1.0
aI2
aI4
aI6
aI1
aI0
aI0
aI2
aI2
aI4
aI-15
aa(lp204
V0021100239
p205
aVJAN 22, 2012
p206
aVCHA @ NJN
p207
aVL
p208
aI19
aI2
aI3
aF0.667
aI0
aI0
aF0.0
aI0
aI0
aF0.0
aI0
aI2
aI2
aI4
aI0
aI0
aI2
aI1
aI4
aI-19
aa(lp209
V0021100232
p210
aVJAN 21, 2012
p211
aVCHA @ CHI
p212
aVL
p213
aI16
aI3
aI6
aF0.5
aI0
aI3
aF0.0
aI1
aI3
aF0.333
aI0
aI3
aI3
aI1
aI0
aI0
aI0
aI1
aI7
aI0
aa(lp214
V0021100195
p215
aVJAN 17, 2012
p216
aVCHA @ ORL
p217
aVL
p218
aI24
aI4
aI8
aF0.5
aI1
aI4
aF0.25
aI0
aI0
aF0.0
aI1
aI5
aI6
aI3
aI1
aI0
aI0
aI1
aI9
aI6
aa(lp219
V0021100188
p220
aVJAN 16, 2012
p221
aVCHA vs. CLE
p222
aVL
p223
aI12
aI2
aI4
aF0.5
aI0
aI1
aF0.0
aI0
aI0
aF0.0
aI2
aI2
aI4
aI2
aI1
aI0
aI2
aI1
aI4
aI-5
aa(lp224
V0021100171
p225
aVJAN 14, 2012
p226
aVCHA vs. GSW
p227
aVW
p228
aI23
aI3
aI4
aF0.75
aI1
aI1
aF1.0
aI2
aI2
aF1.0
aI0
aI4
aI4
aI3
aI0
aI0
aI4
aI5
aI9
aI6
aa(lp229
V0021100161
p230
aVJAN 13, 2012
p231
aVCHA vs. DET
p232
aVL
p233
aI25
aI1
aI2
aF0.5
aI0
aI1
aF0.0
aI1
aI2
aF0.5
aI1
aI6
aI7
aI5
aI0
aI1
aI1
aI2
aI3
aI-10
aa(lp234
V0021100154
p235
aVJAN 12, 2012
p236
aVCHA @ ATL
p237
aVL
p238
aI26
aI0
aI3
aF0.0
aI0
aI2
aF0.0
aI0
aI0
aF0.0
aI0
aI6
aI6
aI4
aI0
aI1
aI2
aI2
aI0
aI-7
aa(lp239
V0021100134
p240
aVJAN 10, 2012
p241
aVCHA vs. HOU
p242
aVL
p243
aI38
aI2
aI14
aF0.143
aI0
aI4
aF0.0
aI0
aI0
aF0.0
aI1
aI7
aI8
aI3
aI1
aI2
aI3
aI4
aI4
aI-5
aa(lp244
V0021100129
p245
aVJAN 09, 2012
p246
aVCHA @ NYK
p247
aVL
p248
aI37
aI8
aI12
aF0.667
aI3
aI5
aF0.6
aI0
aI0
aF0.0
aI1
aI9
aI10
aI7
aI1
aI0
aI3
aI2
aI19
aI-7
aa(lp249
V0021100111
p250
aVJAN 07, 2012
p251
aVCHA @ IND
p252
aVL
p253
aI27
aI1
aI8
aF0.125
aI0
aI3
aF0.0
aI0
aI0
aF0.0
aI1
aI1
aI2
aI2
aI0
aI2
aI3
aI6
aI2
aI-17
aa(lp254
V0021100101
p255
aVJAN 06, 2012
p256
aVCHA vs. ATL
p257
aVL
p258
aI41
aI4
aI10
aF0.4
aI2
aI5
aF0.4
aI0
aI0
aF0.0
aI3
aI6
aI9
aI4
aI1
aI1
aI3
aI3
aI10
aI-8
aa(lp259
V0021100085
p260
aVJAN 04, 2012
p261
aVCHA @ NYK
p262
aVW
p263
aI39
aI12
aI15
aF0.8
aI3
aI3
aF1.0
aI0
aI0
aF0.0
aI1
aI2
aI3
aI6
aI1
aI0
aI5
aI1
aI27
aI10
aa(lp264
V0021100076
p265
aVJAN 03, 2012
p266
aVCHA @ CLE
p267
aVL
p268
aI18
aI0
aI5
aF0.0
aI0
aI3
aF0.0
aI0
aI0
aF0.0
aI0
aI5
aI5
aI2
aI0
aI1
aI0
aI5
aI0
aI-9
aa(lp269
V0021100059
p270
aVJAN 01, 2012
p271
aVCHA @ MIA
p272
aVL
p273
aI23
aI2
aI4
aF0.5
aI1
aI1
aF1.0
aI0
aI0
aF0.0
aI0
aI2
aI2
aI3
aI0
aI0
aI2
aI3
aI5
aI-17
aa(lp274
V0021100039
p275
aVDEC 30, 2011
p276
aVCHA vs. ORL
p277
aVL
p278
aI31
aI4
aI10
aF0.4
aI1
aI3
aF0.333
aI1
aI2
aF0.5
aI1
aI5
aI6
aI6
aI1
aI0
aI2
aI2
aI10
aI-13
aa(lp279
V0021100024
p280
aVDEC 28, 2011
p281
aVCHA vs. MIA
p282
aVL
p283
aI39
aI7
aI14
aF0.5
aI2
aI5
aF0.4
aI0
aI0
aF0.0
aI4
aI12
aI16
aI8
aI1
aI1
aI6
aI2
aI16
aI0
aa(lp284
V0021100007
p285
aVDEC 26, 2011
p286
aVCHA vs. MIL
p287
aVW
p288
aI30
aI4
aI9
aF0.444
aI1
aI2
aF0.5
aI0
aI0
aF0.0
aI3
aI8
aI11
aI9
aI0
aI2
aI1
aI3
aI9
aI1
aasS'name'
p289
VBoris Diaw
p290
sS'experience'
p291
I8
s.