(dp0
S'stats'
p1
(lp2
(lp3
V0021100005
p4
aVDEC 25, 2011
p5
aVLAC @ GSW
p6
aVW
p7
aI16
aI2
aI7
aF0.286
aI2
aI4
aF0.5
aI2
aI2
aF1.0
aI2
aI4
aI6
aI0
aI0
aI0
aI0
aI5
aI8
aI-6
aa(lp8
V0021100029
p9
aVDEC 28, 2011
p10
aVLAC @ SAS
p11
aVL
p12
aI8
aI0
aI1
aF0.0
aI0
aI0
aF0.0
aI2
aI2
aF1.0
aI0
aI1
aI1
aI0
aI1
aI1
aI0
aI1
aI2
aI-2
aa(lp13
V0021100049
p14
aVDEC 30, 2011
p15
aVLAC vs. CHI
p16
aVL
p17
aI17
aI1
aI3
aF0.333
aI0
aI2
aF0.0
aI0
aI0
aF0.0
aI0
aI3
aI3
aI0
aI0
aI0
aI0
aI5
aI2
aI-6
aa(lp18
V0021100065
p19
aVJAN 01, 2012
p20
aVLAC vs. POR
p21
aVW
p22
aI13
aI1
aI3
aF0.333
aI1
aI2
aF0.5
aI0
aI0
aF0.0
aI1
aI3
aI4
aI0
aI0
aI0
aI1
aI1
aI3
aI-2
aa(lp23
V0021100093
p24
aVJAN 04, 2012
p25
aVLAC vs. HOU
p26
aVW
p27
aI14
aI1
aI6
aF0.167
aI1
aI3
aF0.333
aI0
aI0
aF0.0
aI0
aI1
aI1
aI0
aI0
aI1
aI1
aI3
aI3
aI14
aa(lp28
V0021100118
p29
aVJAN 07, 2012
p30
aVLAC vs. MIL
p31
aVW
p32
aI8
aI1
aI5
aF0.2
aI0
aI3
aF0.0
aI0
aI0
aF0.0
aI0
aI3
aI3
aI0
aI0
aI1
aI0
aI1
aI2
aI-4
aa(lp33
V0021100140
p34
aVJAN 10, 2012
p35
aVLAC @ POR
p36
aVL
p37
aI5
aI0
aI3
aF0.0
aI0
aI2
aF0.0
aI0
aI0
aF0.0
aI0
aI0
aI0
aI0
aI0
aI0
aI0
aI1
aI0
aI-14
aa(lp38
V0021100153
p39
aVJAN 11, 2012
p40
aVLAC vs. MIA
p41
aVW
p42
aI4
aI0
aI2
aF0.0
aI0
aI1
aF0.0
aI0
aI0
aF0.0
aI0
aI1
aI1
aI0
aI0
aI0
aI0
aI1
aI0
aI-2
aa(lp43
V0021100180
p44
aVJAN 14, 2012
p45
aVLAC vs. LAL
p46
aVW
p47
aI6
aI0
aI3
aF0.0
aI0
aI2
aF0.0
aI0
aI0
aF0.0
aI0
aI0
aI0
aI0
aI0
aI1
aI0
aI0
aI0
aI-4
aa(lp48
V0021100330
p49
aVFEB 02, 2012
p50
aVLAC vs. DEN
p51
aVL
p52
aI12
aI0
aI4
aF0.0
aI0
aI3
aF0.0
aI0
aI0
aF0.0
aI0
aI1
aI1
aI0
aI1
aI0
aI1
aI2
aI0
aI-2
aa(lp53
V0021100342
p54
aVFEB 04, 2012
p55
aVLAC @ WAS
p56
aVW
p57
aI6
aI1
aI5
aF0.2
aI0
aI2
aF0.0
aI0
aI0
aF0.0
aI1
aI0
aI1
aI0
aI0
aI0
aI1
aI2
aI2
aI-6
aa(lp58
V0021100359
p59
aVFEB 06, 2012
p60
aVLAC @ ORL
p61
aVW
p62
aI1
aI0
aI0
aF0.0
aI0
aI0
aF0.0
aI0
aI0
aF0.0
aI0
aI0
aI0
aI0
aI0
aI0
aI0
aI0
aI0
aI5
aa(lp63
V0021100400
p64
aVFEB 11, 2012
p65
aVLAC @ CHA
p66
aVW
p67
aI6
aI2
aI4
aF0.5
aI1
aI3
aF0.333
aI0
aI0
aF0.0
aI0
aI1
aI1
aI2
aI0
aI0
aI0
aI4
aI5
aI-3
aa(lp68
V0021100441
p69
aVFEB 15, 2012
p70
aVLAC vs. WAS
p71
aVW
p72
aI2
aI1
aI2
aF0.5
aI0
aI0
aF0.0
aI0
aI0
aF0.0
aI0
aI0
aI0
aI0
aI0
aI0
aI0
aI0
aI2
aI0
aa(lp73
V0021100511
p74
aVFEB 28, 2012
p75
aVLAC vs. MIN
p76
aVL
p77
aI1
aI1
aI1
aF1.0
aI0
aI0
aF0.0
aI0
aI0
aF0.0
aI0
aI0
aI0
aI0
aI0
aI0
aI0
aI0
aI2
aI4
aa(lp78
V0021100526
p79
aVMAR 01, 2012
p80
aVLAC @ SAC
p81
aVW
p82
aI2
aI0
aI0
aF0.0
aI0
aI0
aF0.0
aI0
aI0
aF0.0
aI0
aI1
aI1
aI0
aI0
aI0
aI0
aI0
aI0
aI-7
aa(lp83
V0021100664
p84
aVMAR 18, 2012
p85
aVWAS @ MEM
p86
aVL
p87
aI8
aI1
aI4
aF0.25
aI1
aI4
aF0.25
aI0
aI0
aF0.0
aI0
aI1
aI1
aI0
aI0
aI0
aI0
aI3
aI3
aI6
aa(lp88
V0021100721
p89
aVMAR 25, 2012
p90
aVWAS @ BOS
p91
aVL
p92
aI4
aI0
aI3
aF0.0
aI0
aI1
aF0.0
aI0
aI0
aF0.0
aI0
aI3
aI3
aI1
aI1
aI0
aI0
aI2
aI0
aI5
aa(lp93
V0021100728
p94
aVMAR 26, 2012
p95
aVWAS vs. DET
p96
aVL
p97
aI14
aI2
aI3
aF0.667
aI1
aI1
aF1.0
aI0
aI0
aF0.0
aI0
aI2
aI2
aI1
aI1
aI0
aI1
aI4
aI5
aI2
aa(lp98
V0021100753
p99
aVMAR 29, 2012
p100
aVWAS @ IND
p101
aVL
p102
aI0
aI0
aI0
aF0.0
aI0
aI0
aF0.0
aI0
aI0
aF0.0
aI0
aI0
aI0
aI0
aI0
aI0
aI0
aI0
aI0
aI0
aa(lp103
V0021100779
p104
aVAPR 01, 2012
p105
aVWAS @ TOR
p106
aVL
p107
aI17
aI2
aI7
aF0.286
aI0
aI3
aF0.0
aI0
aI0
aF0.0
aI0
aI3
aI3
aI0
aI0
aI1
aI2
aI2
aI4
aI-7
aa(lp108
V0021100785
p109
aVAPR 02, 2012
p110
aVWAS vs. MIL
p111
aVL
p112
aI12
aI3
aI5
aF0.6
aI0
aI1
aF0.0
aI2
aI2
aF1.0
aI0
aI3
aI3
aI1
aI0
aI0
aI1
aI1
aI8
aI1
aa(lp113
V0021100800
p114
aVAPR 04, 2012
p115
aVWAS vs. IND
p116
aVL
p117
aI29
aI4
aI6
aF0.667
aI1
aI1
aF1.0
aI1
aI2
aF0.5
aI3
aI6
aI9
aI2
aI0
aI0
aI0
aI2
aI10
aI-1
aa(lp118
V0021100812
p119
aVAPR 05, 2012
p120
aVWAS @ DET
p121
aVL
p122
aI22
aI3
aI7
aF0.429
aI0
aI2
aF0.0
aI2
aI2
aF1.0
aI1
aI3
aI4
aI1
aI1
aI0
aI2
aI2
aI8
aI-9
aa(lp123
V0021100817
p124
aVAPR 06, 2012
p125
aVWAS @ NJN
p126
aVL
p127
aI12
aI0
aI1
aF0.0
aI0
aI0
aF0.0
aI0
aI0
aF0.0
aI0
aI3
aI3
aI1
aI0
aI0
aI0
aI2
aI0
aI11
aa(lp128
V0021100842
p129
aVAPR 09, 2012
p130
aVWAS @ CHA
p131
aVW
p132
aI4
aI1
aI3
aF0.333
aI0
aI2
aF0.0
aI0
aI0
aF0.0
aI0
aI1
aI1
aI0
aI0
aI0
aI0
aI0
aI2
aI1
aa(lp133
V0021100878
p134
aVAPR 13, 2012
p135
aVWAS @ NYK
p136
aVL
p137
aI4
aI0
aI1
aF0.0
aI0
aI1
aF0.0
aI0
aI0
aF0.0
aI0
aI0
aI0
aI0
aI0
aI0
aI0
aI0
aI0
aI0
aa(lp138
V0021100907
p139
aVAPR 16, 2012
p140
aVWAS @ CHI
p141
aVW
p142
aI14
aI2
aI4
aF0.5
aI2
aI4
aF0.5
aI0
aI0
aF0.0
aI1
aI7
aI8
aI1
aI1
aI0
aI0
aI2
aI6
aI7
aa(lp143
V0021100918
p144
aVAPR 18, 2012
p145
aVWAS vs. MIL
p146
aVW
p147
aI1
aI0
aI0
aF0.0
aI0
aI0
aF0.0
aI0
aI0
aF0.0
aI0
aI0
aI0
aI0
aI0
aI0
aI0
aI0
aI0
aI1
aa(lp148
V0021100960
p149
aVAPR 23, 2012
p150
aVWAS vs. CHA
p151
aVW
p152
aI4
aI0
aI1
aF0.0
aI0
aI1
aF0.0
aI0
aI0
aF0.0
aI0
aI1
aI1
aI0
aI0
aI0
aI1
aI1
aI0
aI8
aa(lp153
V0021100972
p154
aVAPR 25, 2012
p155
aVWAS @ CLE
p156
aVW
p157
aI2
aI0
aI1
aF0.0
aI0
aI1
aF0.0
aI0
aI0
aF0.0
aI0
aI1
aI1
aI0
aI0
aI0
aI0
aI0
aI0
aI-2
aa(lp158
V0021100981
p159
aVAPR 26, 2012
p160
aVWAS vs. MIA
p161
aVW
p162
aI7
aI2
aI3
aF0.667
aI0
aI1
aF0.0
aI0
aI0
aF0.0
aI1
aI0
aI1
aI0
aI0
aI0
aI0
aI1
aI4
aI4
aasS'name'
p163
VBrian Cook
p164
sS'weight'
p165
V250
p166
sS'age'
p167
I31
sS'experience'
p168
I8
sS'height'
p169
V6-9
p170
sS'position'
p171
VCenter-Forward
p172
s.