(dp0
S'age'
p1
I26
sS'stats'
p2
(lp3
(lp4
V0021100460
p5
aVFEB 19, 2012
p6
aVNYK vs. DAL
p7
aVW
p8
aI30
aI6
aI16
aF0.375
aI3
aI9
aF0.333
aI0
aI0
aF0.0
aI0
aI3
aI3
aI2
aI1
aI0
aI0
aI4
aI15
aI21
aa(lp9
V0021100471
p10
aVFEB 20, 2012
p11
aVNYK vs. NJN
p12
aVL
p13
aI24
aI2
aI8
aF0.25
aI0
aI5
aF0.0
aI0
aI0
aF0.0
aI0
aI4
aI4
aI3
aI1
aI0
aI1
aI2
aI4
aI-16
aa(lp14
V0021100492
p15
aVFEB 22, 2012
p16
aVNYK vs. ATL
p17
aVW
p18
aI25
aI4
aI8
aF0.5
aI1
aI4
aF0.25
aI3
aI6
aF0.5
aI1
aI4
aI5
aI1
aI5
aI0
aI2
aI1
aI12
aI13
aa(lp19
V0021100499
p20
aVFEB 23, 2012
p21
aVNYK @ MIA
p22
aVL
p23
aI29
aI5
aI11
aF0.455
aI2
aI5
aF0.4
aI2
aI4
aF0.5
aI1
aI2
aI3
aI3
aI3
aI0
aI0
aI2
aI14
aI-7
aa(lp24
V0021100515
p25
aVFEB 29, 2012
p26
aVNYK vs. CLE
p27
aVW
p28
aI20
aI3
aI7
aF0.429
aI0
aI4
aF0.0
aI3
aI6
aF0.5
aI0
aI1
aI1
aI0
aI0
aI1
aI1
aI2
aI9
aI15
aa(lp29
V0021100546
p30
aVMAR 04, 2012
p31
aVNYK @ BOS
p32
aVL
p33
aI20
aI1
aI6
aF0.167
aI0
aI3
aF0.0
aI0
aI0
aF0.0
aI0
aI0
aI0
aI1
aI1
aI1
aI0
aI3
aI2
aI-2
aa(lp34
V0021100568
p35
aVMAR 06, 2012
p36
aVNYK @ DAL
p37
aVL
p38
aI13
aI1
aI5
aF0.2
aI0
aI0
aF0.0
aI1
aI2
aF0.5
aI0
aI1
aI1
aI0
aI0
aI0
aI2
aI1
aI3
aI-12
aa(lp39
V0021100578
p40
aVMAR 07, 2012
p41
aVNYK @ SAS
p42
aVL
p43
aI22
aI6
aI12
aF0.5
aI4
aI7
aF0.571
aI2
aI2
aF1.0
aI1
aI3
aI4
aI0
aI2
aI0
aI1
aI3
aI18
aI-9
aa(lp44
V0021100590
p45
aVMAR 09, 2012
p46
aVNYK @ MIL
p47
aVL
p48
aI18
aI1
aI3
aF0.333
aI1
aI1
aF1.0
aI0
aI0
aF0.0
aI1
aI0
aI1
aI2
aI1
aI0
aI2
aI2
aI3
aI-6
aa(lp49
V0021100603
p50
aVMAR 11, 2012
p51
aVNYK vs. PHI
p52
aVL
p53
aI23
aI4
aI13
aF0.308
aI1
aI4
aF0.25
aI3
aI3
aF1.0
aI0
aI4
aI4
aI1
aI0
aI0
aI0
aI2
aI12
aI-4
aa(lp54
V0021100612
p55
aVMAR 12, 2012
p56
aVNYK @ CHI
p57
aVL
p58
aI9
aI0
aI1
aF0.0
aI0
aI0
aF0.0
aI0
aI0
aF0.0
aI0
aI0
aI0
aI0
aI0
aI0
aI2
aI1
aI0
aI-2
aa(lp59
V0021100628
p60
aVMAR 14, 2012
p61
aVNYK vs. POR
p62
aVW
p63
aI23
aI8
aI18
aF0.444
aI7
aI14
aF0.5
aI0
aI0
aF0.0
aI0
aI2
aI2
aI2
aI0
aI0
aI1
aI3
aI23
aI27
aa(lp64
V0021100645
p65
aVMAR 16, 2012
p66
aVNYK vs. IND
p67
aVW
p68
aI27
aI6
aI11
aF0.545
aI2
aI6
aF0.333
aI2
aI2
aF1.0
aI0
aI3
aI3
aI3
aI0
aI0
aI1
aI1
aI16
aI10
aa(lp69
V0021100656
p70
aVMAR 17, 2012
p71
aVNYK @ IND
p72
aVW
p73
aI30
aI4
aI12
aF0.333
aI3
aI8
aF0.375
aI0
aI0
aF0.0
aI0
aI3
aI3
aI0
aI1
aI1
aI1
aI1
aI11
aI20
aa(lp74
V0021100677
p75
aVMAR 20, 2012
p76
aVNYK vs. TOR
p77
aVW
p78
aI19
aI5
aI9
aF0.556
aI0
aI1
aF0.0
aI1
aI2
aF0.5
aI3
aI3
aI6
aI1
aI1
aI1
aI1
aI1
aI11
aI-10
aa(lp79
V0021100684
p80
aVMAR 21, 2012
p81
aVNYK @ PHI
p82
aVW
p83
aI29
aI3
aI11
aF0.273
aI1
aI4
aF0.25
aI1
aI2
aF0.5
aI2
aI3
aI5
aI1
aI2
aI0
aI2
aI3
aI8
aI-1
aa(lp84
V0021100699
p85
aVMAR 23, 2012
p86
aVNYK @ TOR
p87
aVL
p88
aI23
aI3
aI11
aF0.273
aI0
aI5
aF0.0
aI1
aI1
aF1.0
aI1
aI1
aI2
aI1
aI0
aI0
aI2
aI2
aI7
aI-14
aa(lp89
V0021100713
p90
aVMAR 24, 2012
p91
aVNYK vs. DET
p92
aVW
p93
aI27
aI6
aI14
aF0.429
aI1
aI6
aF0.167
aI1
aI1
aF1.0
aI3
aI4
aI7
aI2
aI1
aI0
aI1
aI4
aI14
aI16
aa(lp94
V0021100732
p95
aVMAR 26, 2012
p96
aVNYK vs. MIL
p97
aVW
p98
aI30
aI3
aI13
aF0.231
aI1
aI10
aF0.1
aI2
aI2
aF1.0
aI1
aI9
aI10
aI2
aI1
aI0
aI4
aI2
aI9
aI5
aa(lp99
V0021100744
p100
aVMAR 28, 2012
p101
aVNYK vs. ORL
p102
aVW
p103
aI30
aI5
aI10
aF0.5
aI1
aI3
aF0.333
aI1
aI1
aF1.0
aI0
aI3
aI3
aI3
aI2
aI0
aI1
aI4
aI12
aI2
aa(lp104
V0021100760
p105
aVMAR 30, 2012
p106
aVNYK @ ATL
p107
aVL
p108
aI33
aI2
aI10
aF0.2
aI1
aI4
aF0.25
aI0
aI2
aF0.0
aI1
aI2
aI3
aI0
aI1
aI0
aI2
aI4
aI5
aI-11
aa(lp109
V0021100770
p110
aVMAR 31, 2012
p111
aVNYK vs. CLE
p112
aVW
p113
aI35
aI8
aI15
aF0.533
aI3
aI7
aF0.429
aI1
aI2
aF0.5
aI2
aI7
aI9
aI2
aI5
aI0
aI2
aI1
aI20
aI19
aa(lp114
V0021100793
p115
aVAPR 03, 2012
p116
aVNYK @ IND
p117
aVL
p118
aI29
aI3
aI11
aF0.273
aI1
aI3
aF0.333
aI4
aI4
aF1.0
aI6
aI3
aI9
aI4
aI0
aI0
aI1
aI4
aI11
aI-6
aa(lp119
V0021100811
p120
aVAPR 05, 2012
p121
aVNYK @ ORL
p122
aVW
p123
aI34
aI6
aI12
aF0.5
aI3
aI4
aF0.75
aI0
aI0
aF0.0
aI1
aI3
aI4
aI9
aI1
aI0
aI1
aI3
aI15
aI19
aa(lp124
V0021100835
p125
aVAPR 08, 2012
p126
aVNYK vs. CHI
p127
aVW
p128
aI37
aI6
aI22
aF0.273
aI2
aI11
aF0.182
aI0
aI0
aF0.0
aI1
aI4
aI5
aI2
aI1
aI1
aI0
aI5
aI14
aI-6
aa(lp129
V0021100857
p130
aVAPR 10, 2012
p131
aVNYK @ CHI
p132
aVL
p133
aI34
aI6
aI13
aF0.462
aI2
aI4
aF0.5
aI0
aI0
aF0.0
aI0
aI2
aI2
aI1
aI2
aI0
aI2
aI3
aI14
aI-20
aa(lp134
V0021100861
p135
aVAPR 11, 2012
p136
aVNYK @ MIL
p137
aVW
p138
aI27
aI5
aI13
aF0.385
aI2
aI4
aF0.5
aI2
aI2
aF1.0
aI1
aI2
aI3
aI1
aI0
aI0
aI0
aI4
aI14
aI-12
aa(lp139
V0021100878
p140
aVAPR 13, 2012
p141
aVNYK vs. WAS
p142
aVW
p143
aI30
aI9
aI15
aF0.6
aI4
aI8
aF0.5
aI1
aI1
aF1.0
aI0
aI3
aI3
aI6
aI2
aI0
aI2
aI3
aI23
aI23
aa(lp144
V0021100893
p145
aVAPR 15, 2012
p146
aVNYK vs. MIA
p147
aVL
p148
aI36
aI6
aI15
aF0.4
aI4
aI9
aF0.444
aI0
aI0
aF0.0
aI2
aI5
aI7
aI2
aI3
aI1
aI3
aI1
aI16
aI3
aa(lp149
V0021100915
p150
aVAPR 17, 2012
p151
aVNYK vs. BOS
p152
aVW
p153
aI36
aI8
aI16
aF0.5
aI7
aI10
aF0.7
aI2
aI2
aF1.0
aI0
aI4
aI4
aI6
aI1
aI0
aI1
aI3
aI25
aI17
aa(lp154
V0021100921
p155
aVAPR 18, 2012
p156
aVNYK @ NJN
p157
aVW
p158
aI30
aI6
aI16
aF0.375
aI3
aI9
aF0.333
aI0
aI0
aF0.0
aI0
aI8
aI8
aI2
aI1
aI0
aI1
aI3
aI15
aI-7
aa(lp159
V0021100939
p160
aVAPR 20, 2012
p161
aVNYK @ CLE
p162
aVL
p163
aI36
aI4
aI12
aF0.333
aI2
aI6
aF0.333
aI1
aI2
aF0.5
aI0
aI3
aI3
aI6
aI3
aI0
aI0
aI1
aI11
aI-3
aa(lp164
V0021100951
p165
aVAPR 22, 2012
p166
aVNYK @ ATL
p167
aVW
p168
aI32
aI3
aI7
aF0.429
aI1
aI5
aF0.2
aI0
aI0
aF0.0
aI0
aI4
aI4
aI4
aI5
aI0
aI3
aI2
aI7
aI2
aa(lp169
V0021100974
p170
aVAPR 25, 2012
p171
aVNYK vs. LAC
p172
aVW
p173
aI30
aI7
aI13
aF0.538
aI3
aI7
aF0.429
aI4
aI4
aF1.0
aI1
aI1
aI2
aI5
aI4
aI0
aI2
aI3
aI21
aI13
aa(lp174
V0021100982
p175
aVAPR 26, 2012
p176
aVNYK @ CHA
p177
aVW
p178
aI36
aI10
aI16
aF0.625
aI1
aI3
aF0.333
aI1
aI2
aF0.5
aI0
aI3
aI3
aI6
aI3
aI0
aI1
aI3
aI22
aI18
aasS'name'
p179
VJ.R. Smith
p180
sS'experience'
p181
I7
s.