(dp0
S'age'
p1
I30
sS'stats'
p2
(lp3
(lp4
V0021100122
p5
aVJAN 08, 2012
p6
aVOKC vs. SAS
p7
aVW
p8
aI6
aI1
aI2
aF0.5
aI0
aI1
aF0.0
aI0
aI0
aF0.0
aI0
aI0
aI0
aI0
aI1
aI0
aI0
aI0
aI2
aI-11
aa(lp9
V0021100177
p10
aVJAN 14, 2012
p11
aVOKC vs. NYK
p12
aVW
p13
aI6
aI0
aI1
aF0.0
aI0
aI0
aF0.0
aI0
aI2
aF0.0
aI0
aI0
aI0
aI0
aI0
aI0
aI0
aI0
aI0
aI-12
aa(lp14
V0021100247
p15
aVJAN 23, 2012
p16
aVOKC vs. DET
p17
aVW
p18
aI8
aI0
aI1
aF0.0
aI0
aI0
aF0.0
aI0
aI0
aF0.0
aI0
aI1
aI1
aI1
aI0
aI0
aI2
aI1
aI0
aI-6
aa(lp19
V0021100350
p20
aVFEB 04, 2012
p21
aVOKC @ SAS
p22
aVL
p23
aI3
aI0
aI1
aF0.0
aI0
aI1
aF0.0
aI0
aI0
aF0.0
aI0
aI0
aI0
aI0
aI0
aI0
aI0
aI0
aI0
aI6
aa(lp24
V0021100425
p25
aVFEB 14, 2012
p26
aVOKC vs. UTA
p27
aVW
p28
aI4
aI1
aI2
aF0.5
aI0
aI0
aF0.0
aI0
aI1
aF0.0
aI0
aI0
aI0
aI0
aI0
aI0
aI0
aI0
aI2
aI3
aa(lp29
V0021100436
p30
aVFEB 15, 2012
p31
aVOKC @ HOU
p32
aVL
p33
aI10
aI0
aI0
aF0.0
aI0
aI0
aF0.0
aI0
aI0
aF0.0
aI0
aI1
aI1
aI0
aI0
aI0
aI0
aI1
aI0
aI10
aa(lp34
V0021100453
p35
aVFEB 17, 2012
p36
aVOKC vs. GSW
p37
aVW
p38
aI21
aI3
aI7
aF0.429
aI3
aI7
aF0.429
aI0
aI0
aF0.0
aI0
aI2
aI2
aI1
aI1
aI0
aI3
aI0
aI9
aI13
aa(lp39
V0021100468
p40
aVFEB 19, 2012
p41
aVOKC vs. DEN
p42
aVW
p43
aI8
aI0
aI4
aF0.0
aI0
aI3
aF0.0
aI0
aI0
aF0.0
aI0
aI1
aI1
aI0
aI0
aI0
aI0
aI1
aI0
aI-13
aa(lp44
V0021100475
p45
aVFEB 20, 2012
p46
aVOKC vs. NOH
p47
aVW
p48
aI22
aI2
aI6
aF0.333
aI2
aI6
aF0.333
aI0
aI0
aF0.0
aI0
aI1
aI1
aI0
aI1
aI0
aI0
aI0
aI6
aI6
aa(lp49
V0021100490
p50
aVFEB 22, 2012
p51
aVOKC vs. BOS
p52
aVW
p53
aI13
aI3
aI4
aF0.75
aI2
aI3
aF0.667
aI0
aI2
aF0.0
aI0
aI1
aI1
aI1
aI1
aI0
aI0
aI1
aI8
aI5
aa(lp54
V0021100502
p55
aVFEB 23, 2012
p56
aVOKC vs. LAL
p57
aVW
p58
aI10
aI0
aI1
aF0.0
aI0
aI1
aF0.0
aI0
aI0
aF0.0
aI0
aI1
aI1
aI0
aI0
aI0
aI0
aI0
aI0
aI2
aa(lp59
V0021100512
p60
aVFEB 29, 2012
p61
aVOKC @ PHI
p62
aVW
p63
aI12
aI2
aI3
aF0.667
aI1
aI2
aF0.5
aI0
aI0
aF0.0
aI0
aI1
aI1
aI0
aI1
aI0
aI0
aI2
aI5
aI3
aa(lp64
V0021100524
p65
aVMAR 01, 2012
p66
aVOKC @ ORL
p67
aVW
p68
aI18
aI2
aI4
aF0.5
aI2
aI4
aF0.5
aI0
aI0
aF0.0
aI0
aI0
aI0
aI0
aI0
aI0
aI1
aI0
aI6
aI8
aa(lp69
V0021100540
p70
aVMAR 03, 2012
p71
aVOKC @ ATL
p72
aVL
p73
aI16
aI0
aI1
aF0.0
aI0
aI1
aF0.0
aI0
aI0
aF0.0
aI0
aI0
aI0
aI0
aI1
aI0
aI0
aI3
aI0
aI0
aa(lp74
V0021100559
p75
aVMAR 05, 2012
p76
aVOKC vs. DAL
p77
aVW
p78
aI11
aI1
aI3
aF0.333
aI1
aI2
aF0.5
aI0
aI0
aF0.0
aI0
aI0
aI0
aI0
aI1
aI0
aI0
aI2
aI3
aI-3
aa(lp79
V0021100576
p80
aVMAR 07, 2012
p81
aVOKC vs. PHX
p82
aVW
p83
aI17
aI0
aI4
aF0.0
aI0
aI4
aF0.0
aI0
aI0
aF0.0
aI0
aI0
aI0
aI0
aI0
aI0
aI0
aI3
aI0
aI23
aa(lp84
V0021100588
p85
aVMAR 09, 2012
p86
aVOKC vs. CLE
p87
aVL
p88
aI19
aI1
aI1
aF1.0
aI1
aI1
aF1.0
aI0
aI0
aF0.0
aI0
aI3
aI3
aI0
aI2
aI0
aI0
aI4
aI3
aI-5
aa(lp89
V0021100599
p90
aVMAR 10, 2012
p91
aVOKC vs. CHA
p92
aVW
p93
aI23
aI1
aI2
aF0.5
aI1
aI2
aF0.5
aI0
aI0
aF0.0
aI0
aI4
aI4
aI1
aI0
aI0
aI0
aI1
aI3
aI15
aa(lp94
V0021100622
p95
aVMAR 13, 2012
p96
aVOKC vs. HOU
p97
aVL
p98
aI17
aI2
aI3
aF0.667
aI1
aI2
aF0.5
aI0
aI0
aF0.0
aI0
aI1
aI1
aI0
aI0
aI0
aI0
aI2
aI5
aI-5
aa(lp99
V0021100640
p100
aVMAR 15, 2012
p101
aVOKC @ DEN
p102
aVW
p103
aI1
aI0
aI0
aF0.0
aI0
aI0
aF0.0
aI0
aI0
aF0.0
aI0
aI0
aI0
aI0
aI0
aI0
aI0
aI1
aI0
aI-5
aa(lp104
V0021100649
p105
aVMAR 16, 2012
p106
aVOKC vs. SAS
p107
aVL
p108
aI24
aI2
aI3
aF0.667
aI2
aI3
aF0.667
aI0
aI0
aF0.0
aI0
aI0
aI0
aI0
aI0
aI0
aI0
aI2
aI6
aI-12
aa(lp109
V0021100680
p110
aVMAR 20, 2012
p111
aVOKC @ UTA
p112
aVL
p113
aI5
aI0
aI1
aF0.0
aI0
aI1
aF0.0
aI0
aI0
aF0.0
aI1
aI0
aI1
aI1
aI0
aI0
aI0
aI2
aI0
aI-2
aa(lp114
V0021100689
p115
aVMAR 21, 2012
p116
aVOKC vs. LAC
p117
aVW
p118
aI4
aI1
aI3
aF0.333
aI1
aI1
aF1.0
aI0
aI0
aF0.0
aI0
aI0
aI0
aI0
aI0
aI0
aI0
aI1
aI3
aI1
aa(lp119
V0021100724
p120
aVMAR 25, 2012
p121
aVOKC vs. MIA
p122
aVW
p123
aI1
aI0
aI0
aF0.0
aI0
aI0
aF0.0
aI0
aI0
aF0.0
aI0
aI0
aI0
aI0
aI0
aI0
aI0
aI0
aI0
aI0
aa(lp124
V0021100741
p125
aVMAR 27, 2012
p126
aVOKC @ POR
p127
aVW
p128
aI12
aI1
aI2
aF0.5
aI1
aI2
aF0.5
aI0
aI0
aF0.0
aI0
aI0
aI0
aI1
aI1
aI0
aI1
aI0
aI3
aI-3
aa(lp129
V0021100756
p130
aVMAR 29, 2012
p131
aVOKC @ LAL
p132
aVW
p133
aI6
aI0
aI1
aF0.0
aI0
aI1
aF0.0
aI0
aI0
aF0.0
aI0
aI0
aI0
aI0
aI1
aI0
aI0
aI1
aI0
aI6
aa(lp134
V0021100777
p135
aVAPR 01, 2012
p136
aVOKC vs. CHI
p137
aVW
p138
aI12
aI1
aI2
aF0.5
aI0
aI0
aF0.0
aI0
aI0
aF0.0
aI0
aI1
aI1
aI0
aI0
aI0
aI0
aI2
aI2
aI-15
aa(lp139
V0021100840
p140
aVAPR 08, 2012
p141
aVOKC vs. TOR
p142
aVW
p143
aI2
aI0
aI0
aF0.0
aI0
aI0
aF0.0
aI0
aI0
aF0.0
aI0
aI0
aI0
aI1
aI0
aI0
aI0
aI0
aI0
aI1
aa(lp144
V0021100845
p145
aVAPR 09, 2012
p146
aVOKC @ MIL
p147
aVW
p148
aI5
aI0
aI0
aF0.0
aI0
aI0
aF0.0
aI0
aI0
aF0.0
aI0
aI1
aI1
aI0
aI0
aI0
aI2
aI0
aI0
aI-6
aa(lp149
V0021100883
p150
aVAPR 13, 2012
p151
aVOKC vs. SAC
p152
aVW
p153
aI18
aI1
aI4
aF0.25
aI0
aI1
aF0.0
aI1
aI3
aF0.333
aI0
aI3
aI3
aI1
aI2
aI0
aI0
aI1
aI3
aI3
aa(lp154
V0021100911
p155
aVAPR 16, 2012
p156
aVOKC @ LAC
p157
aVL
p158
aI1
aI0
aI0
aF0.0
aI0
aI0
aF0.0
aI0
aI0
aF0.0
aI0
aI0
aI0
aI0
aI0
aI0
aI0
aI0
aI0
aI0
aa(lp159
V0021100952
p160
aVAPR 22, 2012
p161
aVOKC @ LAL
p162
aVL
p163
aI2
aI0
aI2
aF0.0
aI0
aI2
aF0.0
aI0
aI0
aF0.0
aI0
aI0
aI0
aI0
aI0
aI0
aI0
aI0
aI0
aI-4
aa(lp164
V0021100968
p165
aVAPR 24, 2012
p166
aVOKC vs. SAC
p167
aVW
p168
aI16
aI1
aI3
aF0.333
aI0
aI1
aF0.0
aI0
aI0
aF0.0
aI0
aI1
aI1
aI2
aI0
aI0
aI0
aI3
aI2
aI6
aa(lp169
V0021100976
p170
aVAPR 25, 2012
p171
aVOKC vs. DEN
p172
aVL
p173
aI6
aI0
aI2
aF0.0
aI0
aI1
aF0.0
aI0
aI0
aF0.0
aI0
aI0
aI0
aI0
aI1
aI0
aI0
aI2
aI0
aI-3
aasS'name'
p174
VRoyal Ivey
p175
sS'experience'
p176
I7
s.