(dp0
S'age'
p1
I29
sS'stats'
p2
(lp3
(lp4
V0021100985
p5
aVAPR 26, 2012
p6
aVORL @ MEM
p7
aVL
p8
aI27
aI2
aI5
aF0.4
aI1
aI3
aF0.333
aI0
aI0
aF0.0
aI0
aI2
aI2
aI3
aI2
aI0
aI3
aI2
aI5
aI-9
aa(lp9
V0021100971
p10
aVAPR 25, 2012
p11
aVORL vs. CHA
p12
aVW
p13
aI19
aI0
aI6
aF0.0
aI0
aI4
aF0.0
aI0
aI0
aF0.0
aI0
aI2
aI2
aI4
aI1
aI1
aI1
aI0
aI0
aI1
aa(lp14
V0021100958
p15
aVAPR 22, 2012
p16
aVORL @ DEN
p17
aVL
p18
aI25
aI1
aI4
aF0.25
aI1
aI4
aF0.25
aI0
aI0
aF0.0
aI1
aI1
aI2
aI3
aI1
aI0
aI0
aI2
aI3
aI-19
aa(lp19
V0021100950
p20
aVAPR 21, 2012
p21
aVORL @ UTA
p22
aVL
p23
aI9
aI0
aI0
aF0.0
aI0
aI0
aF0.0
aI0
aI0
aF0.0
aI0
aI2
aI2
aI1
aI0
aI0
aI1
aI0
aI0
aI-3
aa(lp24
V0021100924
p25
aVAPR 18, 2012
p26
aVORL @ BOS
p27
aVL
p28
aI11
aI0
aI0
aF0.0
aI0
aI0
aF0.0
aI0
aI0
aF0.0
aI0
aI1
aI1
aI1
aI0
aI0
aI2
aI2
aI0
aI-19
aa(lp29
V0021100904
p30
aVAPR 16, 2012
p31
aVORL vs. PHI
p32
aVW
p33
aI13
aI1
aI1
aF1.0
aI1
aI1
aF1.0
aI0
aI0
aF0.0
aI0
aI1
aI1
aI3
aI0
aI1
aI0
aI1
aI3
aI12
aa(lp34
V0021100898
p35
aVAPR 15, 2012
p36
aVORL @ CLE
p37
aVW
p38
aI19
aI2
aI7
aF0.286
aI1
aI5
aF0.2
aI0
aI0
aF0.0
aI0
aI1
aI1
aI2
aI1
aI0
aI0
aI1
aI5
aI1
aa(lp39
V0021100828
p40
aVAPR 07, 2012
p41
aVORL @ PHI
p42
aVW
p43
aI20
aI2
aI4
aF0.5
aI2
aI4
aF0.5
aI0
aI0
aF0.0
aI0
aI0
aI0
aI1
aI1
aI0
aI2
aI3
aI6
aI-8
aa(lp44
V0021100811
p45
aVAPR 05, 2012
p46
aVORL vs. NYK
p47
aVL
p48
aI14
aI0
aI0
aF0.0
aI0
aI0
aF0.0
aI0
aI0
aF0.0
aI1
aI0
aI1
aI2
aI0
aI0
aI2
aI0
aI0
aI-21
aa(lp49
V0021100795
p50
aVAPR 03, 2012
p51
aVORL @ DET
p52
aVL
p53
aI34
aI4
aI6
aF0.667
aI3
aI4
aF0.75
aI2
aI2
aF1.0
aI1
aI3
aI4
aI5
aI0
aI0
aI2
aI0
aI13
aI1
aa(lp54
V0021100780
p55
aVAPR 01, 2012
p56
aVORL vs. DEN
p57
aVL
p58
aI13
aI0
aI0
aF0.0
aI0
aI0
aF0.0
aI0
aI0
aF0.0
aI0
aI0
aI0
aI1
aI0
aI0
aI0
aI0
aI0
aI-5
aa(lp59
V0021100762
p60
aVMAR 30, 2012
p61
aVORL vs. DAL
p62
aVL
p63
aI16
aI2
aI4
aF0.5
aI2
aI3
aF0.667
aI0
aI0
aF0.0
aI0
aI0
aI0
aI1
aI0
aI0
aI2
aI0
aI6
aI-15
aa(lp64
V0021100744
p65
aVMAR 28, 2012
p66
aVORL @ NYK
p67
aVL
p68
aI16
aI3
aI3
aF1.0
aI1
aI1
aF1.0
aI0
aI0
aF0.0
aI1
aI2
aI3
aI3
aI0
aI0
aI1
aI0
aI7
aI-5
aa(lp69
V0021100727
p70
aVMAR 26, 2012
p71
aVORL @ TOR
p72
aVW
p73
aI19
aI3
aI5
aF0.6
aI1
aI2
aF0.5
aI0
aI0
aF0.0
aI0
aI1
aI1
aI2
aI1
aI1
aI0
aI0
aI7
aI0
aa(lp74
V0021100701
p75
aVMAR 23, 2012
p76
aVORL vs. CLE
p77
aVW
p78
aI18
aI1
aI2
aF0.5
aI1
aI2
aF0.5
aI0
aI0
aF0.0
aI0
aI3
aI3
aI2
aI2
aI0
aI2
aI2
aI3
aI4
aa(lp79
V0021100685
p80
aVMAR 21, 2012
p81
aVORL vs. PHX
p82
aVW
p83
aI20
aI1
aI6
aF0.167
aI0
aI0
aF0.0
aI0
aI0
aF0.0
aI0
aI2
aI2
aI3
aI0
aI0
aI1
aI0
aI2
aI10
aa(lp84
V0021100673
p85
aVMAR 19, 2012
p86
aVORL vs. CHI
p87
aVL
p88
aI15
aI0
aI3
aF0.0
aI0
aI2
aF0.0
aI1
aI1
aF1.0
aI0
aI3
aI3
aI0
aI1
aI0
aI2
aI0
aI1
aI-20
aa(lp89
V0021100666
p90
aVMAR 18, 2012
p91
aVORL @ MIA
p92
aVL
p93
aI14
aI1
aI2
aF0.5
aI1
aI1
aF1.0
aI0
aI0
aF0.0
aI1
aI0
aI1
aI1
aI1
aI0
aI2
aI0
aI3
aI-2
aa(lp94
V0021100644
p95
aVMAR 16, 2012
p96
aVORL vs. NJN
p97
aVW
p98
aI21
aI1
aI3
aF0.333
aI0
aI2
aF0.0
aI0
aI0
aF0.0
aI0
aI2
aI2
aI2
aI0
aI0
aI1
aI0
aI2
aI-6
aa(lp99
V0021100633
p100
aVMAR 14, 2012
p101
aVORL @ SAS
p102
aVL
p103
aI16
aI2
aI3
aF0.667
aI1
aI2
aF0.5
aI2
aI2
aF1.0
aI0
aI1
aI1
aI2
aI0
aI0
aI0
aI2
aI7
aI-8
aa(lp104
V0021100618
p105
aVMAR 13, 2012
p106
aVORL vs. MIA
p107
aVW
p108
aI15
aI0
aI2
aF0.0
aI0
aI2
aF0.0
aI0
aI0
aF0.0
aI0
aI0
aI0
aI2
aI1
aI0
aI2
aI3
aI0
aI9
aa(lp109
V0021100606
p110
aVMAR 11, 2012
p111
aVORL vs. IND
p112
aVW
p113
aI21
aI3
aI4
aF0.75
aI3
aI4
aF0.75
aI0
aI0
aF0.0
aI0
aI2
aI2
aI1
aI0
aI0
aI1
aI0
aI9
aI13
aa(lp114
V0021100582
p115
aVMAR 08, 2012
p116
aVORL @ CHI
p117
aVW
p118
aI16
aI0
aI3
aF0.0
aI0
aI1
aF0.0
aI0
aI0
aF0.0
aI0
aI1
aI1
aI2
aI0
aI0
aI2
aI1
aI0
aI-5
aa(lp119
V0021100563
p120
aVMAR 06, 2012
p121
aVORL @ CHA
p122
aVL
p123
aI16
aI1
aI1
aF1.0
aI1
aI1
aF1.0
aI0
aI0
aF0.0
aI0
aI0
aI0
aI2
aI1
aI0
aI1
aI2
aI3
aI0
aa(lp124
V0021100554
p125
aVMAR 05, 2012
p126
aVORL @ TOR
p127
aVW
p128
aI15
aI1
aI2
aF0.5
aI1
aI2
aF0.5
aI0
aI0
aF0.0
aI0
aI1
aI1
aI0
aI0
aI0
aI0
aI1
aI3
aI2
aa(lp129
V0021100541
p130
aVMAR 03, 2012
p131
aVORL vs. MIL
p132
aVW
p133
aI22
aI4
aI6
aF0.667
aI4
aI5
aF0.8
aI0
aI0
aF0.0
aI1
aI0
aI1
aI1
aI0
aI0
aI2
aI1
aI12
aI1
aa(lp134
V0021100524
p135
aVMAR 01, 2012
p136
aVORL vs. OKC
p137
aVL
p138
aI16
aI2
aI2
aF1.0
aI0
aI0
aF0.0
aI0
aI0
aF0.0
aI0
aI1
aI1
aI0
aI1
aI0
aI1
aI0
aI4
aI4
aa(lp139
V0021100513
p140
aVFEB 29, 2012
p141
aVORL @ WAS
p142
aVW
p143
aI16
aI1
aI2
aF0.5
aI1
aI2
aF0.5
aI0
aI0
aF0.0
aI0
aI0
aI0
aI4
aI0
aI1
aI5
aI2
aI3
aI-5
aa(lp144
V0021100500
p145
aVFEB 23, 2012
p146
aVORL @ ATL
p147
aVL
p148
aI28
aI3
aI9
aF0.333
aI0
aI4
aF0.0
aI0
aI0
aF0.0
aI1
aI2
aI3
aI4
aI1
aI1
aI2
aI5
aI6
aI1
aa(lp149
V0021100491
p150
aVFEB 22, 2012
p151
aVORL @ NJN
p152
aVW
p153
aI17
aI4
aI5
aF0.8
aI3
aI4
aF0.75
aI0
aI0
aF0.0
aI0
aI4
aI4
aI3
aI0
aI0
aI2
aI0
aI11
aI12
aa(lp154
V0021100472
p155
aVFEB 20, 2012
p156
aVORL @ MIL
p157
aVW
p158
aI18
aI0
aI2
aF0.0
aI0
aI0
aF0.0
aI0
aI0
aF0.0
aI0
aI3
aI3
aI2
aI1
aI0
aI0
aI2
aI0
aI2
aa(lp159
V0021100461
p160
aVFEB 19, 2012
p161
aVORL @ MIA
p162
aVL
p163
aI18
aI0
aI3
aF0.0
aI0
aI3
aF0.0
aI1
aI2
aF0.5
aI0
aI1
aI1
aI2
aI0
aI1
aI1
aI1
aI1
aI6
aa(lp164
V0021100447
p165
aVFEB 17, 2012
p166
aVORL vs. MIL
p167
aVW
p168
aI16
aI2
aI3
aF0.667
aI0
aI1
aF0.0
aI0
aI0
aF0.0
aI0
aI0
aI0
aI1
aI0
aI1
aI2
aI0
aI4
aI-6
aa(lp169
V0021100430
p170
aVFEB 15, 2012
p171
aVORL vs. PHI
p172
aVW
p173
aI19
aI2
aI3
aF0.667
aI0
aI1
aF0.0
aI0
aI0
aF0.0
aI0
aI1
aI1
aI1
aI1
aI0
aI2
aI2
aI4
aI-3
aa(lp174
V0021100415
p175
aVFEB 13, 2012
p176
aVORL vs. MIN
p177
aVW
p178
aI16
aI1
aI2
aF0.5
aI1
aI1
aF1.0
aI2
aI2
aF1.0
aI0
aI0
aI0
aI3
aI0
aI0
aI1
aI1
aI5
aI3
aa(lp179
V0021100406
p180
aVFEB 11, 2012
p181
aVORL @ MIL
p182
aVW
p183
aI18
aI0
aI2
aF0.0
aI0
aI0
aF0.0
aI0
aI0
aF0.0
aI1
aI0
aI1
aI6
aI1
aI0
aI1
aI1
aI0
aI-12
aa(lp184
V0021100392
p185
aVFEB 10, 2012
p186
aVORL vs. ATL
p187
aVL
p188
aI16
aI0
aI1
aF0.0
aI0
aI0
aF0.0
aI0
aI0
aF0.0
aI0
aI2
aI2
aI2
aI0
aI0
aI2
aI1
aI0
aI-8
aa(lp189
V0021100376
p190
aVFEB 08, 2012
p191
aVORL vs. MIA
p192
aVW
p193
aI16
aI1
aI2
aF0.5
aI1
aI2
aF0.5
aI0
aI0
aF0.0
aI0
aI1
aI1
aI2
aI0
aI0
aI2
aI1
aI3
aI0
aa(lp194
V0021100359
p195
aVFEB 06, 2012
p196
aVORL vs. LAC
p197
aVL
p198
aI17
aI0
aI1
aF0.0
aI0
aI1
aF0.0
aI0
aI0
aF0.0
aI0
aI2
aI2
aI2
aI0
aI0
aI0
aI3
aI0
aI-4
aa(lp199
V0021100344
p200
aVFEB 04, 2012
p201
aVORL @ IND
p202
aVW
p203
aI38
aI1
aI5
aF0.2
aI1
aI3
aF0.333
aI0
aI0
aF0.0
aI0
aI4
aI4
aI5
aI1
aI0
aI1
aI0
aI3
aI18
aa(lp204
V0021100334
p205
aVFEB 03, 2012
p206
aVORL vs. CLE
p207
aVW
p208
aI36
aI3
aI8
aF0.375
aI2
aI6
aF0.333
aI0
aI0
aF0.0
aI0
aI2
aI2
aI5
aI1
aI0
aI1
aI4
aI8
aI13
aa(lp209
V0021100316
p210
aVFEB 01, 2012
p211
aVORL vs. WAS
p212
aVW
p213
aI30
aI2
aI6
aF0.333
aI1
aI3
aF0.333
aI2
aI3
aF0.667
aI1
aI2
aI3
aI4
aI1
aI0
aI0
aI1
aI7
aI22
aa(lp214
V0021100299
p215
aVJAN 30, 2012
p216
aVORL @ PHI
p217
aVL
p218
aI35
aI1
aI4
aF0.25
aI1
aI3
aF0.333
aI0
aI0
aF0.0
aI1
aI2
aI3
aI2
aI1
aI1
aI1
aI2
aI3
aI-3
aa(lp219
V0021100294
p220
aVJAN 29, 2012
p221
aVORL vs. IND
p222
aVL
p223
aI33
aI6
aI10
aF0.6
aI2
aI5
aF0.4
aI0
aI0
aF0.0
aI0
aI3
aI3
aI5
aI2
aI0
aI4
aI2
aI14
aI-6
aa(lp224
V0021100278
p225
aVJAN 27, 2012
p226
aVORL @ NOH
p227
aVL
p228
aI31
aI2
aI6
aF0.333
aI1
aI3
aF0.333
aI1
aI2
aF0.5
aI0
aI3
aI3
aI5
aI0
aI0
aI3
aI0
aI6
aI-10
aa(lp229
V0021100270
p230
aVJAN 26, 2012
p231
aVORL vs. BOS
p232
aVL
p233
aI15
aI1
aI2
aF0.5
aI0
aI0
aF0.0
aI0
aI0
aF0.0
aI0
aI3
aI3
aI0
aI0
aI0
aI0
aI0
aI2
aI-6
aa(lp234
V0021100253
p235
aVJAN 24, 2012
p236
aVORL @ IND
p237
aVW
p238
aI25
aI3
aI5
aF0.6
aI2
aI3
aF0.667
aI0
aI0
aF0.0
aI0
aI1
aI1
aI4
aI3
aI0
aI1
aI1
aI8
aI17
aa(lp239
V0021100243
p240
aVJAN 23, 2012
p241
aVORL @ BOS
p242
aVL
p243
aI11
aI1
aI3
aF0.333
aI1
aI2
aF0.5
aI0
aI0
aF0.0
aI1
aI3
aI4
aI0
aI0
aI0
aI1
aI1
aI3
aI-9
aa(lp244
V0021100223
p245
aVJAN 20, 2012
p246
aVORL vs. LAL
p247
aVW
p248
aI20
aI1
aI4
aF0.25
aI0
aI2
aF0.0
aI1
aI1
aF1.0
aI0
aI3
aI3
aI1
aI1
aI0
aI0
aI1
aI3
aI4
aa(lp249
V0021100204
p250
aVJAN 18, 2012
p251
aVORL vs. SAS
p252
aVL
p253
aI15
aI0
aI3
aF0.0
aI0
aI0
aF0.0
aI0
aI0
aF0.0
aI0
aI1
aI1
aI2
aI0
aI0
aI1
aI0
aI0
aI-5
aa(lp254
V0021100195
p255
aVJAN 17, 2012
p256
aVORL vs. CHA
p257
aVW
p258
aI17
aI0
aI1
aF0.0
aI0
aI1
aF0.0
aI0
aI0
aF0.0
aI0
aI1
aI1
aI2
aI0
aI0
aI1
aI0
aI0
aI8
aa(lp259
V0021100184
p260
aVJAN 16, 2012
p261
aVORL @ NYK
p262
aVW
p263
aI17
aI1
aI1
aF1.0
aI1
aI1
aF1.0
aI0
aI0
aF0.0
aI1
aI0
aI1
aI3
aI0
aI0
aI0
aI0
aI3
aI5
aa(lp264
V0021100158
p265
aVJAN 12, 2012
p266
aVORL @ GSW
p267
aVW
p268
aI15
aI0
aI0
aF0.0
aI0
aI0
aF0.0
aI0
aI0
aF0.0
aI0
aI0
aI0
aI2
aI1
aI0
aI1
aI1
aI0
aI-3
aa(lp269
V0021100152
p270
aVJAN 11, 2012
p271
aVORL @ POR
p272
aVW
p273
aI16
aI1
aI1
aF1.0
aI1
aI1
aF1.0
aI0
aI0
aF0.0
aI0
aI1
aI1
aI2
aI0
aI0
aI1
aI3
aI3
aI-1
aa(lp274
V0021100121
p275
aVJAN 08, 2012
p276
aVORL @ SAC
p277
aVW
p278
aI18
aI1
aI4
aF0.25
aI0
aI3
aF0.0
aI0
aI0
aF0.0
aI0
aI2
aI2
aI2
aI0
aI0
aI1
aI0
aI2
aI-2
aa(lp279
V0021100103
p280
aVJAN 06, 2012
p281
aVORL vs. CHI
p282
aVL
p283
aI16
aI1
aI2
aF0.5
aI0
aI0
aF0.0
aI1
aI2
aF0.5
aI0
aI2
aI2
aI4
aI0
aI0
aI1
aI1
aI3
aI0
aa(lp284
V0021100083
p285
aVJAN 04, 2012
p286
aVORL vs. WAS
p287
aVW
p288
aI12
aI0
aI1
aF0.0
aI0
aI0
aF0.0
aI2
aI2
aF1.0
aI0
aI0
aI0
aI0
aI1
aI0
aI1
aI0
aI2
aI-1
aa(lp289
V0021100071
p290
aVJAN 02, 2012
p291
aVORL @ DET
p292
aVL
p293
aI17
aI2
aI2
aF1.0
aI2
aI2
aF1.0
aI2
aI2
aF1.0
aI1
aI2
aI3
aI3
aI2
aI1
aI2
aI1
aI8
aI3
aa(lp294
V0021100058
p295
aVJAN 01, 2012
p296
aVORL vs. TOR
p297
aVW
p298
aI16
aI1
aI3
aF0.333
aI0
aI1
aF0.0
aI0
aI0
aF0.0
aI0
aI0
aI0
aI2
aI1
aI0
aI1
aI0
aI2
aI4
aa(lp299
V0021100039
p300
aVDEC 30, 2011
p301
aVORL @ CHA
p302
aVW
p303
aI32
aI1
aI1
aF1.0
aI0
aI0
aF0.0
aI0
aI0
aF0.0
aI0
aI2
aI2
aI6
aI0
aI0
aI3
aI3
aI2
aI20
aa(lp304
V0021100033
p305
aVDEC 29, 2011
p306
aVORL vs. NJN
p307
aVW
p308
aI28
aI3
aI6
aF0.5
aI3
aI4
aF0.75
aI0
aI0
aF0.0
aI0
aI1
aI1
aI4
aI1
aI0
aI1
aI4
aI9
aI20
aa(lp309
V0021100008
p310
aVDEC 26, 2011
p311
aVORL vs. HOU
p312
aVW
p313
aI18
aI2
aI4
aF0.5
aI1
aI1
aF1.0
aI0
aI0
aF0.0
aI0
aI1
aI1
aI2
aI0
aI0
aI1
aI2
aI5
aI13
aa(lp314
V0021100004
p315
aVDEC 25, 2011
p316
aVORL @ OKC
p317
aVL
p318
aI17
aI0
aI2
aF0.0
aI0
aI1
aF0.0
aI0
aI0
aF0.0
aI1
aI1
aI2
aI4
aI1
aI0
aI1
aI2
aI0
aI-17
aasS'name'
p319
VChris Duhon
p320
sS'experience'
p321
I7
s.