(dp0
S'age'
p1
I36
sS'stats'
p2
(lp3
(lp4
V0021100853
p5
aVAPR 10, 2012
p6
aVBOS @ MIA
p7
aVW
p8
aI35
aI3
aI7
aF0.429
aI2
aI4
aF0.5
aI1
aI1
aF1.0
aI0
aI1
aI1
aI3
aI0
aI0
aI0
aI0
aI9
aI6
aa(lp9
V0021100836
p10
aVAPR 08, 2012
p11
aVBOS vs. PHI
p12
aVW
p13
aI28
aI4
aI9
aF0.444
aI2
aI6
aF0.333
aI0
aI0
aF0.0
aI0
aI2
aI2
aI0
aI0
aI0
aI1
aI2
aI10
aI11
aa(lp14
V0021100827
p15
aVAPR 07, 2012
p16
aVBOS @ IND
p17
aVW
p18
aI33
aI7
aI18
aF0.389
aI5
aI11
aF0.455
aI0
aI1
aF0.0
aI0
aI6
aI6
aI2
aI4
aI0
aI1
aI3
aI19
aI9
aa(lp19
V0021100813
p20
aVAPR 05, 2012
p21
aVBOS @ CHI
p22
aVL
p23
aI31
aI5
aI10
aF0.5
aI1
aI4
aF0.25
aI3
aI3
aF1.0
aI0
aI2
aI2
aI1
aI1
aI0
aI1
aI3
aI14
aI-1
aa(lp24
V0021100801
p25
aVAPR 04, 2012
p26
aVBOS vs. SAS
p27
aVL
p28
aI35
aI2
aI6
aF0.333
aI1
aI2
aF0.5
aI0
aI0
aF0.0
aI0
aI7
aI7
aI2
aI2
aI0
aI0
aI0
aI5
aI3
aa(lp29
V0021100694
p30
aVMAR 22, 2012
p31
aVBOS @ MIL
p32
aVW
p33
aI25
aI1
aI8
aF0.125
aI1
aI5
aF0.2
aI3
aI3
aF1.0
aI0
aI4
aI4
aI1
aI2
aI0
aI0
aI2
aI6
aI4
aa(lp34
V0021100672
p35
aVMAR 19, 2012
p36
aVBOS @ ATL
p37
aVW
p38
aI37
aI5
aI9
aF0.556
aI4
aI6
aF0.667
aI5
aI5
aF1.0
aI0
aI3
aI3
aI1
aI0
aI0
aI2
aI3
aI19
aI5
aa(lp39
V0021100660
p40
aVMAR 17, 2012
p41
aVBOS @ DEN
p42
aVL
p43
aI42
aI3
aI10
aF0.3
aI0
aI6
aF0.0
aI1
aI1
aF1.0
aI0
aI4
aI4
aI1
aI3
aI1
aI2
aI2
aI7
aI-2
aa(lp44
V0021100651
p45
aVMAR 16, 2012
p46
aVBOS @ SAC
p47
aVL
p48
aI33
aI9
aI16
aF0.563
aI5
aI10
aF0.5
aI3
aI3
aF1.0
aI0
aI4
aI4
aI1
aI1
aI0
aI1
aI0
aI26
aI-15
aa(lp49
V0021100637
p50
aVMAR 14, 2012
p51
aVBOS @ GSW
p52
aVW
p53
aI32
aI2
aI7
aF0.286
aI1
aI3
aF0.333
aI2
aI2
aF1.0
aI0
aI1
aI1
aI0
aI4
aI0
aI1
aI0
aI7
aI-7
aa(lp54
V0021100617
p55
aVMAR 12, 2012
p56
aVBOS @ LAC
p57
aVW
p58
aI40
aI5
aI12
aF0.417
aI2
aI3
aF0.667
aI3
aI4
aF0.75
aI2
aI2
aI4
aI1
aI1
aI0
aI1
aI2
aI15
aI8
aa(lp59
V0021100604
p60
aVMAR 11, 2012
p61
aVBOS @ LAL
p62
aVL
p63
aI39
aI6
aI14
aF0.429
aI3
aI8
aF0.375
aI2
aI2
aF1.0
aI0
aI4
aI4
aI6
aI0
aI1
aI0
aI5
aI17
aI3
aa(lp64
V0021100586
p65
aVMAR 09, 2012
p66
aVBOS vs. POR
p67
aVW
p68
aI26
aI8
aI12
aF0.667
aI4
aI7
aF0.571
aI2
aI2
aF1.0
aI0
aI2
aI2
aI2
aI0
aI0
aI0
aI2
aI22
aI21
aa(lp69
V0021100570
p70
aVMAR 07, 2012
p71
aVBOS @ PHI
p72
aVL
p73
aI28
aI0
aI5
aF0.0
aI0
aI2
aF0.0
aI2
aI2
aF1.0
aI0
aI4
aI4
aI2
aI2
aI1
aI1
aI0
aI2
aI-17
aa(lp74
V0021100565
p75
aVMAR 06, 2012
p76
aVBOS vs. HOU
p77
aVW
p78
aI41
aI7
aI15
aF0.467
aI3
aI8
aF0.375
aI4
aI5
aF0.8
aI0
aI3
aI3
aI4
aI2
aI0
aI1
aI0
aI21
aI19
aa(lp79
V0021100546
p80
aVMAR 04, 2012
p81
aVBOS vs. NYK
p82
aVW
p83
aI45
aI4
aI9
aF0.444
aI2
aI5
aF0.4
aI2
aI2
aF1.0
aI0
aI0
aI0
aI1
aI4
aI0
aI0
aI1
aI12
aI22
aa(lp84
V0021100514
p85
aVFEB 29, 2012
p86
aVBOS vs. MIL
p87
aVW
p88
aI32
aI5
aI10
aF0.5
aI2
aI4
aF0.5
aI3
aI4
aF0.75
aI0
aI2
aI2
aI1
aI1
aI1
aI0
aI1
aI15
aI9
aa(lp89
V0021100503
p90
aVFEB 28, 2012
p91
aVBOS @ CLE
p92
aVW
p93
aI35
aI8
aI13
aF0.615
aI4
aI8
aF0.5
aI2
aI2
aF1.0
aI0
aI1
aI1
aI2
aI0
aI0
aI1
aI3
aI22
aI8
aa(lp94
V0021100490
p95
aVFEB 22, 2012
p96
aVBOS @ OKC
p97
aVL
p98
aI42
aI7
aI14
aF0.5
aI3
aI5
aF0.6
aI4
aI4
aF1.0
aI0
aI2
aI2
aI7
aI1
aI0
aI3
aI4
aI21
aI-13
aa(lp99
V0021100474
p100
aVFEB 20, 2012
p101
aVBOS @ DAL
p102
aVL
p103
aI37
aI6
aI15
aF0.4
aI1
aI5
aF0.2
aI2
aI2
aF1.0
aI0
aI5
aI5
aI3
aI0
aI0
aI2
aI1
aI15
aI-25
aa(lp104
V0021100462
p105
aVFEB 19, 2012
p106
aVBOS @ DET
p107
aVL
p108
aI36
aI5
aI11
aF0.455
aI3
aI4
aF0.75
aI0
aI0
aF0.0
aI1
aI5
aI6
aI4
aI1
aI0
aI4
aI4
aI13
aI-17
aa(lp109
V0021100443
p110
aVFEB 16, 2012
p111
aVBOS @ CHI
p112
aVL
p113
aI37
aI4
aI13
aF0.308
aI3
aI8
aF0.375
aI1
aI1
aF1.0
aI0
aI3
aI3
aI0
aI1
aI0
aI0
aI1
aI12
aI-7
aa(lp114
V0021100431
p115
aVFEB 15, 2012
p116
aVBOS vs. DET
p117
aVL
p118
aI33
aI1
aI5
aF0.2
aI0
aI1
aF0.0
aI8
aI9
aF0.889
aI0
aI6
aI6
aI2
aI2
aI2
aI2
aI2
aI10
aI1
aa(lp119
V0021100409
p120
aVFEB 12, 2012
p121
aVBOS vs. CHI
p122
aVW
p123
aI35
aI3
aI9
aF0.333
aI1
aI5
aF0.2
aI4
aI4
aF1.0
aI0
aI0
aI0
aI2
aI1
aI0
aI1
aI1
aI11
aI3
aa(lp124
V0021100388
p125
aVFEB 10, 2012
p126
aVBOS @ TOR
p127
aVL
p128
aI32
aI3
aI8
aF0.375
aI0
aI1
aF0.0
aI0
aI0
aF0.0
aI0
aI2
aI2
aI3
aI0
aI0
aI2
aI3
aI6
aI-17
aa(lp129
V0021100384
p130
aVFEB 09, 2012
p131
aVBOS vs. LAL
p132
aVL
p133
aI39
aI9
aI20
aF0.45
aI2
aI6
aF0.333
aI2
aI2
aF1.0
aI1
aI5
aI6
aI2
aI0
aI1
aI1
aI3
aI22
aI0
aa(lp134
V0021100368
p135
aVFEB 07, 2012
p136
aVBOS vs. CHA
p137
aVW
p138
aI32
aI8
aI14
aF0.571
aI1
aI5
aF0.2
aI0
aI0
aF0.0
aI0
aI0
aI0
aI3
aI1
aI0
aI3
aI4
aI17
aI13
aa(lp139
V0021100355
p140
aVFEB 05, 2012
p141
aVBOS vs. MEM
p142
aVW
p143
aI29
aI4
aI14
aF0.286
aI3
aI9
aF0.333
aI1
aI1
aF1.0
aI0
aI4
aI4
aI1
aI0
aI0
aI2
aI1
aI12
aI2
aa(lp144
V0021100337
p145
aVFEB 03, 2012
p146
aVBOS vs. NYK
p147
aVW
p148
aI33
aI5
aI10
aF0.5
aI3
aI5
aF0.6
aI1
aI1
aF1.0
aI1
aI4
aI5
aI2
aI0
aI1
aI1
aI4
aI14
aI4
aa(lp149
V0021100317
p150
aVFEB 01, 2012
p151
aVBOS vs. TOR
p152
aVW
p153
aI23
aI5
aI9
aF0.556
aI2
aI3
aF0.667
aI0
aI0
aF0.0
aI0
aI1
aI1
aI5
aI1
aI0
aI1
aI2
aI12
aI23
aa(lp154
V0021100309
p155
aVJAN 31, 2012
p156
aVBOS @ CLE
p157
aVW
p158
aI38
aI4
aI10
aF0.4
aI2
aI5
aF0.4
aI2
aI2
aF1.0
aI0
aI2
aI2
aI8
aI2
aI0
aI4
aI3
aI12
aI6
aa(lp159
V0021100292
p160
aVJAN 29, 2012
p161
aVBOS vs. CLE
p162
aVL
p163
aI36
aI9
aI14
aF0.643
aI4
aI6
aF0.667
aI0
aI0
aF0.0
aI0
aI3
aI3
aI3
aI1
aI0
aI1
aI1
aI22
aI2
aa(lp164
V0021100237
p165
aVJAN 22, 2012
p166
aVBOS @ WAS
p167
aVW
p168
aI11
aI3
aI5
aF0.6
aI1
aI2
aF0.5
aI0
aI0
aF0.0
aI0
aI1
aI1
aI1
aI0
aI0
aI0
aI0
aI7
aI8
aa(lp169
V0021100219
p170
aVJAN 20, 2012
p171
aVBOS vs. PHX
p172
aVL
p173
aI38
aI4
aI8
aF0.5
aI2
aI3
aF0.667
aI4
aI4
aF1.0
aI2
aI4
aI6
aI5
aI2
aI0
aI5
aI3
aI14
aI1
aa(lp174
V0021100205
p175
aVJAN 18, 2012
p176
aVBOS vs. TOR
p177
aVW
p178
aI28
aI2
aI7
aF0.286
aI2
aI5
aF0.4
aI0
aI0
aF0.0
aI1
aI2
aI3
aI1
aI1
aI0
aI0
aI2
aI6
aI24
aa(lp179
V0021100192
p180
aVJAN 16, 2012
p181
aVBOS vs. OKC
p182
aVL
p183
aI39
aI2
aI7
aF0.286
aI1
aI2
aF0.5
aI1
aI1
aF1.0
aI0
aI2
aI2
aI2
aI1
aI0
aI3
aI0
aI6
aI2
aa(lp184
V0021100173
p185
aVJAN 14, 2012
p186
aVBOS @ IND
p187
aVL
p188
aI34
aI3
aI9
aF0.333
aI1
aI3
aF0.333
aI0
aI0
aF0.0
aI0
aI6
aI6
aI2
aI1
aI0
aI2
aI2
aI7
aI-19
aa(lp189
V0021100162
p190
aVJAN 13, 2012
p191
aVBOS vs. CHI
p192
aVL
p193
aI41
aI6
aI13
aF0.462
aI2
aI6
aF0.333
aI2
aI2
aF1.0
aI0
aI3
aI3
aI3
aI0
aI0
aI1
aI1
aI16
aI-5
aa(lp194
V0021100146
p195
aVJAN 11, 2012
p196
aVBOS vs. DAL
p197
aVL
p198
aI33
aI3
aI8
aF0.375
aI1
aI2
aF0.5
aI2
aI2
aF1.0
aI0
aI4
aI4
aI2
aI0
aI0
aI1
aI2
aI9
aI-7
aa(lp199
V0021100102
p200
aVJAN 06, 2012
p201
aVBOS vs. IND
p202
aVL
p203
aI38
aI7
aI11
aF0.636
aI4
aI5
aF0.8
aI5
aI6
aF0.833
aI1
aI2
aI3
aI0
aI0
aI0
aI2
aI1
aI23
aI-9
aa(lp204
V0021100067
p205
aVJAN 02, 2012
p206
aVBOS vs. WAS
p207
aVW
p208
aI35
aI9
aI16
aF0.563
aI6
aI7
aF0.857
aI3
aI5
aF0.6
aI0
aI2
aI2
aI2
aI1
aI0
aI0
aI2
aI27
aI12
aa(lp209
V0021100057
p210
aVJAN 01, 2012
p211
aVBOS @ WAS
p212
aVW
p213
aI35
aI5
aI10
aF0.5
aI2
aI5
aF0.4
aI1
aI2
aF0.5
aI1
aI2
aI3
aI1
aI1
aI0
aI2
aI1
aI13
aI16
aa(lp214
V0021100041
p215
aVDEC 30, 2011
p216
aVBOS vs. DET
p217
aVW
p218
aI29
aI5
aI9
aF0.556
aI2
aI5
aF0.4
aI5
aI5
aF1.0
aI1
aI0
aI1
aI4
aI1
aI0
aI2
aI0
aI17
aI23
aa(lp219
V0021100028
p220
aVDEC 28, 2011
p221
aVBOS @ NOH
p222
aVL
p223
aI30
aI5
aI10
aF0.5
aI4
aI8
aF0.5
aI1
aI1
aF1.0
aI0
aI2
aI2
aI3
aI1
aI0
aI3
aI3
aI15
aI-4
aa(lp224
V0021100019
p225
aVDEC 27, 2011
p226
aVBOS @ MIA
p227
aVL
p228
aI40
aI8
aI12
aF0.667
aI6
aI8
aF0.75
aI6
aI6
aF1.0
aI0
aI3
aI3
aI4
aI2
aI0
aI3
aI2
aI28
aI-12
aa(lp229
V0021100001
p230
aVDEC 25, 2011
p231
aVBOS @ NYK
p232
aVL
p233
aI38
aI7
aI12
aF0.583
aI2
aI3
aF0.667
aI4
aI4
aF1.0
aI3
aI1
aI4
aI3
aI0
aI0
aI4
aI1
aI20
aI6
aasS'name'
p234
VRay Allen
p235
sS'experience'
p236
I15
s.