(dp0
S'stats'
p1
(lp2
(lp3
V0021100003
p4
aVDEC 25, 2011
p5
aVLAL vs. CHI
p6
aVL
p7
aI23
aI1
aI5
aF0.2
aI0
aI2
aF0.0
aI0
aI0
aF0.0
aI0
aI3
aI3
aI3
aI2
aI2
aI3
aI3
aI2
aI6
aa(lp8
V0021100015
p9
aVDEC 26, 2011
p10
aVLAL @ SAC
p11
aVL
p12
aI30
aI3
aI10
aF0.3
aI0
aI3
aF0.0
aI0
aI0
aF0.0
aI0
aI2
aI2
aI2
aI2
aI0
aI2
aI4
aI6
aI1
aa(lp13
V0021100022
p14
aVDEC 27, 2011
p15
aVLAL vs. UTA
p16
aVW
p17
aI26
aI3
aI4
aF0.75
aI0
aI0
aF0.0
aI3
aI3
aF1.0
aI0
aI2
aI2
aI4
aI1
aI0
aI2
aI1
aI9
aI18
aa(lp18
V0021100038
p19
aVDEC 29, 2011
p20
aVLAL vs. NYK
p21
aVW
p22
aI22
aI2
aI7
aF0.286
aI1
aI2
aF0.5
aI0
aI2
aF0.0
aI1
aI1
aI2
aI1
aI0
aI0
aI2
aI0
aI5
aI2
aa(lp23
V0021100050
p24
aVDEC 31, 2011
p25
aVLAL vs. DEN
p26
aVW
p27
aI22
aI3
aI7
aF0.429
aI0
aI2
aF0.0
aI0
aI0
aF0.0
aI1
aI2
aI3
aI5
aI1
aI0
aI0
aI6
aI6
aI10
aa(lp28
V0021100063
p29
aVJAN 01, 2012
p30
aVLAL @ DEN
p31
aVL
p32
aI21
aI2
aI6
aF0.333
aI0
aI2
aF0.0
aI0
aI0
aF0.0
aI1
aI2
aI3
aI4
aI2
aI0
aI0
aI3
aI4
aI3
aa(lp33
V0021100081
p34
aVJAN 03, 2012
p35
aVLAL vs. HOU
p36
aVW
p37
aI21
aI2
aI4
aF0.5
aI0
aI0
aF0.0
aI2
aI2
aF1.0
aI0
aI3
aI3
aI7
aI0
aI0
aI2
aI3
aI6
aI-2
aa(lp38
V0021100097
p39
aVJAN 05, 2012
p40
aVLAL @ POR
p41
aVL
p42
aI22
aI2
aI2
aF1.0
aI0
aI0
aF0.0
aI2
aI2
aF1.0
aI0
aI1
aI1
aI6
aI2
aI0
aI0
aI0
aI6
aI4
aa(lp43
V0021100109
p44
aVJAN 06, 2012
p45
aVLAL vs. GSW
p46
aVW
p47
aI25
aI0
aI3
aF0.0
aI0
aI0
aF0.0
aI0
aI0
aF0.0
aI0
aI2
aI2
aI7
aI1
aI0
aI2
aI1
aI0
aI12
aa(lp48
V0021100125
p49
aVJAN 08, 2012
p50
aVLAL vs. MEM
p51
aVW
p52
aI24
aI0
aI3
aF0.0
aI0
aI1
aF0.0
aI0
aI0
aF0.0
aI0
aI1
aI1
aI5
aI0
aI0
aI5
aI2
aI0
aI3
aa(lp53
V0021100141
p54
aVJAN 10, 2012
p55
aVLAL vs. PHX
p56
aVW
p57
aI19
aI2
aI5
aF0.4
aI1
aI2
aF0.5
aI0
aI0
aF0.0
aI0
aI2
aI2
aI2
aI0
aI0
aI2
aI2
aI5
aI-17
aa(lp58
V0021100151
p59
aVJAN 11, 2012
p60
aVLAL @ UTA
p61
aVW
p62
aI36
aI1
aI5
aF0.2
aI0
aI1
aF0.0
aI0
aI0
aF0.0
aI0
aI2
aI2
aI7
aI0
aI0
aI0
aI2
aI2
aI14
aa(lp63
V0021100169
p64
aVJAN 13, 2012
p65
aVLAL vs. CLE
p66
aVW
p67
aI30
aI0
aI2
aF0.0
aI0
aI1
aF0.0
aI2
aI2
aF1.0
aI0
aI1
aI1
aI10
aI3
aI0
aI0
aI4
aI2
aI3
aa(lp68
V0021100180
p69
aVJAN 14, 2012
p70
aVLAL @ LAC
p71
aVL
p72
aI24
aI2
aI5
aF0.4
aI2
aI4
aF0.5
aI1
aI2
aF0.5
aI0
aI1
aI1
aI4
aI0
aI0
aI1
aI4
aI7
aI-3
aa(lp73
V0021100194
p74
aVJAN 16, 2012
p75
aVLAL vs. DAL
p76
aVW
p77
aI30
aI5
aI9
aF0.556
aI1
aI2
aF0.5
aI2
aI2
aF1.0
aI0
aI3
aI3
aI2
aI3
aI0
aI0
aI1
aI13
aI4
aa(lp78
V0021100213
p79
aVJAN 19, 2012
p80
aVLAL @ MIA
p81
aVL
p82
aI29
aI1
aI5
aF0.2
aI0
aI2
aF0.0
aI0
aI0
aF0.0
aI0
aI3
aI3
aI1
aI1
aI0
aI1
aI1
aI2
aI0
aa(lp83
V0021100223
p84
aVJAN 20, 2012
p85
aVLAL @ ORL
p86
aVL
p87
aI33
aI5
aI14
aF0.357
aI2
aI5
aF0.4
aI0
aI0
aF0.0
aI0
aI2
aI2
aI4
aI2
aI0
aI0
aI2
aI12
aI1
aa(lp88
V0021100241
p89
aVJAN 22, 2012
p90
aVLAL vs. IND
p91
aVL
p92
aI30
aI2
aI4
aF0.5
aI0
aI0
aF0.0
aI0
aI0
aF0.0
aI0
aI3
aI3
aI2
aI2
aI0
aI1
aI1
aI4
aI-4
aa(lp93
V0021100268
p94
aVJAN 25, 2012
p95
aVLAL vs. LAC
p96
aVW
p97
aI28
aI3
aI9
aF0.333
aI3
aI4
aF0.75
aI2
aI2
aF1.0
aI0
aI2
aI2
aI1
aI0
aI0
aI3
aI2
aI11
aI-5
aa(lp98
V0021100288
p99
aVJAN 28, 2012
p100
aVLAL @ MIL
p101
aVL
p102
aI25
aI3
aI5
aF0.6
aI1
aI1
aF1.0
aI0
aI0
aF0.0
aI0
aI0
aI0
aI2
aI2
aI0
aI1
aI2
aI7
aI2
aa(lp103
V0021100297
p104
aVJAN 29, 2012
p105
aVLAL @ MIN
p106
aVW
p107
aI33
aI1
aI4
aF0.25
aI0
aI2
aF0.0
aI3
aI4
aF0.75
aI0
aI2
aI2
aI7
aI0
aI0
aI0
aI0
aI5
aI12
aa(lp108
V0021100313
p109
aVJAN 31, 2012
p110
aVLAL vs. CHA
p111
aVW
p112
aI21
aI1
aI2
aF0.5
aI0
aI0
aF0.0
aI0
aI0
aF0.0
aI0
aI2
aI2
aI4
aI0
aI0
aI0
aI0
aI2
aI6
aa(lp113
V0021100341
p114
aVFEB 03, 2012
p115
aVLAL @ DEN
p116
aVW
p117
aI28
aI4
aI7
aF0.571
aI0
aI0
aF0.0
aI2
aI2
aF1.0
aI0
aI1
aI1
aI3
aI2
aI0
aI2
aI3
aI10
aI1
aa(lp118
V0021100351
p119
aVFEB 04, 2012
p120
aVLAL @ UTA
p121
aVL
p122
aI29
aI1
aI6
aF0.167
aI0
aI1
aF0.0
aI0
aI0
aF0.0
aI0
aI2
aI2
aI2
aI1
aI0
aI0
aI3
aI2
aI-11
aa(lp123
V0021100357
p124
aVFEB 06, 2012
p125
aVLAL @ PHI
p126
aVL
p127
aI27
aI3
aI7
aF0.429
aI0
aI3
aF0.0
aI0
aI0
aF0.0
aI1
aI5
aI6
aI3
aI1
aI0
aI1
aI1
aI6
aI-11
aa(lp128
V0021100384
p129
aVFEB 09, 2012
p130
aVLAL @ BOS
p131
aVW
p132
aI24
aI0
aI7
aF0.0
aI0
aI1
aF0.0
aI0
aI0
aF0.0
aI0
aI1
aI1
aI2
aI0
aI0
aI2
aI2
aI0
aI-10
aa(lp133
V0021100395
p134
aVFEB 10, 2012
p135
aVLAL @ NYK
p136
aVL
p137
aI23
aI2
aI7
aF0.286
aI0
aI1
aF0.0
aI2
aI2
aF1.0
aI0
aI0
aI0
aI2
aI0
aI0
aI0
aI1
aI6
aI-7
aa(lp138
V0021100408
p139
aVFEB 12, 2012
p140
aVLAL @ TOR
p141
aVW
p142
aI19
aI2
aI4
aF0.5
aI0
aI1
aF0.0
aI0
aI0
aF0.0
aI0
aI1
aI1
aI2
aI0
aI0
aI0
aI4
aI4
aI4
aa(lp143
V0021100428
p144
aVFEB 14, 2012
p145
aVLAL vs. ATL
p146
aVW
p147
aI19
aI1
aI4
aF0.25
aI0
aI0
aF0.0
aI1
aI2
aF0.5
aI0
aI3
aI3
aI3
aI0
aI0
aI2
aI1
aI3
aI-2
aa(lp148
V0021100455
p149
aVFEB 17, 2012
p150
aVLAL vs. PHX
p151
aVW
p152
aI25
aI5
aI8
aF0.625
aI1
aI2
aF0.5
aI1
aI2
aF0.5
aI1
aI1
aI2
aI2
aI0
aI0
aI3
aI2
aI12
aI7
aa(lp153
V0021100469
p154
aVFEB 19, 2012
p155
aVLAL @ PHX
p156
aVL
p157
aI18
aI0
aI1
aF0.0
aI0
aI0
aF0.0
aI0
aI0
aF0.0
aI0
aI1
aI1
aI1
aI1
aI0
aI1
aI1
aI0
aI-17
aa(lp158
V0021100479
p159
aVFEB 20, 2012
p160
aVLAL vs. POR
p161
aVW
p162
aI25
aI2
aI7
aF0.286
aI0
aI3
aF0.0
aI4
aI4
aF1.0
aI1
aI2
aI3
aI3
aI2
aI0
aI3
aI0
aI8
aI10
aa(lp163
V0021100497
p164
aVFEB 22, 2012
p165
aVLAL @ DAL
p166
aVW
p167
aI27
aI6
aI8
aF0.75
aI2
aI3
aF0.667
aI1
aI2
aF0.5
aI0
aI3
aI3
aI0
aI0
aI0
aI0
aI0
aI15
aI-1
aa(lp168
V0021100502
p169
aVFEB 23, 2012
p170
aVLAL @ OKC
p171
aVL
p172
aI26
aI2
aI8
aF0.25
aI1
aI2
aF0.5
aI0
aI0
aF0.0
aI1
aI0
aI1
aI2
aI0
aI0
aI1
aI1
aI5
aI-5
aa(lp173
V0021100523
p174
aVFEB 29, 2012
p175
aVLAL vs. MIN
p176
aVW
p177
aI20
aI3
aI5
aF0.6
aI1
aI2
aF0.5
aI0
aI0
aF0.0
aI0
aI3
aI3
aI3
aI1
aI0
aI3
aI3
aI7
aI18
aa(lp178
V0021100538
p179
aVMAR 02, 2012
p180
aVLAL vs. SAC
p181
aVW
p182
aI29
aI3
aI3
aF1.0
aI0
aI0
aF0.0
aI0
aI0
aF0.0
aI0
aI4
aI4
aI7
aI0
aI1
aI2
aI5
aI6
aI12
aa(lp183
V0021100547
p184
aVMAR 04, 2012
p185
aVLAL vs. MIA
p186
aVW
p187
aI19
aI1
aI4
aF0.25
aI0
aI1
aF0.0
aI2
aI2
aF1.0
aI0
aI2
aI2
aI1
aI0
aI0
aI3
aI4
aI4
aI8
aa(lp188
V0021100567
p189
aVMAR 06, 2012
p190
aVLAL @ DET
p191
aVL
p192
aI32
aI1
aI2
aF0.5
aI0
aI1
aF0.0
aI0
aI0
aF0.0
aI0
aI4
aI4
aI1
aI1
aI0
aI1
aI1
aI2
aI11
aa(lp193
V0021100571
p194
aVMAR 07, 2012
p195
aVLAL @ WAS
p196
aVL
p197
aI28
aI2
aI6
aF0.333
aI1
aI2
aF0.5
aI4
aI5
aF0.8
aI0
aI2
aI2
aI5
aI2
aI0
aI1
aI2
aI9
aI0
aa(lp198
V0021100589
p199
aVMAR 09, 2012
p200
aVLAL @ MIN
p201
aVW
p202
aI24
aI3
aI8
aF0.375
aI3
aI6
aF0.5
aI0
aI0
aF0.0
aI2
aI1
aI3
aI4
aI0
aI0
aI2
aI3
aI9
aI5
aa(lp203
V0021100604
p204
aVMAR 11, 2012
p205
aVLAL vs. BOS
p206
aVW
p207
aI25
aI2
aI5
aF0.4
aI1
aI2
aF0.5
aI4
aI4
aF1.0
aI1
aI1
aI2
aI2
aI2
aI0
aI2
aI2
aI9
aI-3
aa(lp208
V0021100621
p209
aVMAR 13, 2012
p210
aVLAL @ MEM
p211
aVW
p212
aI22
aI2
aI5
aF0.4
aI2
aI4
aF0.5
aI2
aI2
aF1.0
aI0
aI1
aI1
aI0
aI0
aI0
aI1
aI0
aI8
aI-18
aa(lp213
V0021100631
p214
aVMAR 14, 2012
p215
aVLAL @ NOH
p216
aVW
p217
aI35
aI3
aI8
aF0.375
aI1
aI3
aF0.333
aI4
aI5
aF0.8
aI0
aI2
aI2
aI4
aI3
aI0
aI1
aI2
aI11
aI13
aa(lp218
V0021100689
p219
aVMAR 21, 2012
p220
aVOKC vs. LAC
p221
aVW
p222
aI19
aI1
aI3
aF0.333
aI1
aI3
aF0.333
aI2
aI2
aF1.0
aI0
aI1
aI1
aI1
aI0
aI1
aI1
aI1
aI5
aI11
aa(lp223
V0021100706
p224
aVMAR 23, 2012
p225
aVOKC vs. MIN
p226
aVW
p227
aI36
aI2
aI11
aF0.182
aI1
aI5
aF0.2
aI0
aI0
aF0.0
aI0
aI2
aI2
aI3
aI1
aI0
aI0
aI4
aI5
aI7
aa(lp228
V0021100724
p229
aVMAR 25, 2012
p230
aVOKC vs. MIA
p231
aVW
p232
aI18
aI0
aI2
aF0.0
aI0
aI1
aF0.0
aI0
aI0
aF0.0
aI0
aI1
aI1
aI0
aI0
aI0
aI0
aI2
aI0
aI6
aa(lp233
V0021100741
p234
aVMAR 27, 2012
p235
aVOKC @ POR
p236
aVW
p237
aI16
aI2
aI6
aF0.333
aI1
aI3
aF0.333
aI0
aI0
aF0.0
aI0
aI1
aI1
aI0
aI0
aI0
aI0
aI0
aI5
aI16
aa(lp238
V0021100756
p239
aVMAR 29, 2012
p240
aVOKC @ LAL
p241
aVW
p242
aI16
aI3
aI6
aF0.5
aI0
aI0
aF0.0
aI1
aI1
aF1.0
aI0
aI2
aI2
aI1
aI0
aI0
aI1
aI1
aI7
aI7
aa(lp243
V0021100777
p244
aVAPR 01, 2012
p245
aVOKC vs. CHI
p246
aVW
p247
aI20
aI0
aI2
aF0.0
aI0
aI0
aF0.0
aI0
aI0
aF0.0
aI0
aI4
aI4
aI2
aI0
aI0
aI2
aI2
aI0
aI-9
aa(lp248
V0021100787
p249
aVAPR 02, 2012
p250
aVOKC vs. MEM
p251
aVL
p252
aI15
aI0
aI3
aF0.0
aI0
aI1
aF0.0
aI0
aI0
aF0.0
aI0
aI0
aI0
aI1
aI0
aI0
aI2
aI1
aI0
aI-3
aa(lp253
V0021100803
p254
aVAPR 04, 2012
p255
aVOKC @ MIA
p256
aVL
p257
aI17
aI1
aI4
aF0.25
aI0
aI2
aF0.0
aI0
aI0
aF0.0
aI0
aI1
aI1
aI2
aI1
aI0
aI0
aI1
aI2
aI5
aa(lp258
V0021100815
p259
aVAPR 06, 2012
p260
aVOKC @ IND
p261
aVL
p262
aI27
aI0
aI3
aF0.0
aI0
aI2
aF0.0
aI0
aI0
aF0.0
aI0
aI2
aI2
aI1
aI0
aI0
aI1
aI5
aI0
aI12
aa(lp263
V0021100840
p264
aVAPR 08, 2012
p265
aVOKC vs. TOR
p266
aVW
p267
aI22
aI2
aI8
aF0.25
aI2
aI3
aF0.667
aI1
aI2
aF0.5
aI0
aI1
aI1
aI1
aI0
aI0
aI2
aI3
aI7
aI16
aa(lp268
V0021100845
p269
aVAPR 09, 2012
p270
aVOKC @ MIL
p271
aVW
p272
aI22
aI3
aI6
aF0.5
aI0
aI2
aF0.0
aI0
aI0
aF0.0
aI1
aI1
aI2
aI1
aI0
aI0
aI3
aI0
aI6
aI3
aa(lp273
V0021100865
p274
aVAPR 11, 2012
p275
aVOKC vs. LAC
p276
aVL
p277
aI14
aI3
aI5
aF0.6
aI2
aI2
aF1.0
aI0
aI0
aF0.0
aI0
aI0
aI0
aI1
aI0
aI0
aI0
aI2
aI8
aI-4
aa(lp278
V0021100883
p279
aVAPR 13, 2012
p280
aVOKC vs. SAC
p281
aVW
p282
aI27
aI6
aI9
aF0.667
aI1
aI1
aF1.0
aI1
aI1
aF1.0
aI0
aI0
aI0
aI2
aI3
aI0
aI0
aI1
aI14
aI14
aa(lp283
V0021100890
p284
aVAPR 14, 2012
p285
aVOKC @ MIN
p286
aVW
p287
aI20
aI0
aI3
aF0.0
aI0
aI0
aF0.0
aI0
aI0
aF0.0
aI0
aI2
aI2
aI1
aI1
aI0
aI0
aI2
aI0
aI-11
aa(lp288
V0021100911
p289
aVAPR 16, 2012
p290
aVOKC @ LAC
p291
aVL
p292
aI17
aI2
aI8
aF0.25
aI1
aI2
aF0.5
aI2
aI2
aF1.0
aI0
aI2
aI2
aI1
aI2
aI0
aI0
aI0
aI7
aI-9
aa(lp293
V0021100928
p294
aVAPR 18, 2012
p295
aVOKC @ PHX
p296
aVW
p297
aI17
aI1
aI7
aF0.143
aI0
aI2
aF0.0
aI3
aI3
aF1.0
aI0
aI1
aI1
aI0
aI0
aI0
aI0
aI2
aI5
aI9
aa(lp298
V0021100942
p299
aVAPR 20, 2012
p300
aVOKC @ SAC
p301
aVW
p302
aI16
aI1
aI3
aF0.333
aI0
aI0
aF0.0
aI0
aI0
aF0.0
aI0
aI1
aI1
aI2
aI1
aI0
aI0
aI0
aI2
aI3
aa(lp303
V0021100952
p304
aVAPR 22, 2012
p305
aVOKC @ LAL
p306
aVL
p307
aI14
aI2
aI4
aF0.5
aI1
aI1
aF1.0
aI0
aI0
aF0.0
aI1
aI0
aI1
aI2
aI1
aI0
aI0
aI1
aI5
aI0
aa(lp308
V0021100968
p309
aVAPR 24, 2012
p310
aVOKC vs. SAC
p311
aVW
p312
aI29
aI4
aI6
aF0.667
aI0
aI1
aF0.0
aI3
aI3
aF1.0
aI0
aI1
aI1
aI5
aI1
aI0
aI1
aI1
aI11
aI13
aa(lp313
V0021100976
p314
aVAPR 25, 2012
p315
aVOKC vs. DEN
p316
aVL
p317
aI27
aI4
aI9
aF0.444
aI1
aI4
aF0.25
aI0
aI0
aF0.0
aI0
aI4
aI4
aI1
aI0
aI0
aI2
aI3
aI9
aI-8
aasS'name'
p318
VDerek Fisher
p319
sS'weight'
p320
V210
p321
sS'age'
p322
I37
sS'experience'
p323
I15
sS'height'
p324
V6-1
p325
sS'position'
p326
VGuard
p327
s.