(dp0
Vresource
p1
Vleaguedashplayerstats
p2
sVresultSets
p3
(lp4
(dp5
Vheaders
p6
(lp7
VPLAYER_ID
p8
aVPLAYER_NAME
p9
aVTEAM_ID
p10
aVTEAM_ABBREVIATION
p11
aVAGE
p12
aVGP
p13
aVW
p14
aVL
p15
aVW_PCT
p16
aVMIN
p17
aVFGM
p18
aVFGA
p19
aVFG_PCT
p20
aVFG3M
p21
aVFG3A
p22
aVFG3_PCT
p23
aVFTM
p24
aVFTA
p25
aVFT_PCT
p26
aVOREB
p27
aVDREB
p28
aVREB
p29
aVAST
p30
aVTOV
p31
aVSTL
p32
aVBLK
p33
aVBLKA
p34
aVPF
p35
aVPFD
p36
aVPTS
p37
aVPLUS_MINUS
p38
aVDD2
p39
aVTD3
p40
aVCFID
p41
aVCFPARAMS
p42
asVrowSet
p43
(lp44
(lp45
I201166
aVAaron Brooks
p46
aI1610612745
aVHOU
p47
aF24.0
aI80
aI52
aI28
aF0.65
aF25.0
aF4.0
aF9.8
aF0.404
aF1.4
aF3.9
aF0.366
aF1.9
aF2.2
aF0.866
aF0.4
aF1.6
aF2.0
aF3.0
aF1.6
aF0.6
aF0.1
aF0.7
aF1.9
aF1.9
aF11.2
aF2.1
aI2
aI0
aI5
aV201166,1610612745
p48
aa(lp49
I201189
aVAaron Gray
p50
aI1610612741
aVCHI
p51
aF24.0
aI56
aI26
aI30
aF0.464
aF12.8
aF1.4
aF3.0
aF0.485
aF0.0
aF0.0
aF0.0
aF0.6
aF1.1
aF0.576
aF1.5
aF2.4
aF3.9
aF0.8
aF0.7
aF0.3
aF0.3
aF0.4
aF2.4
aF0.9
aF3.5
aF-1.0
aI1
aI0
aI5
aV201189,1610612741
p52
aa(lp53
I201151
aVAcie Law
p54
aI1610612737
aVATL
p55
aF24.0
aI55
aI33
aI22
aF0.6
aF10.2
aF0.9
aF2.5
aF0.374
aF0.2
aF0.5
aF0.31
aF0.9
aF1.1
aF0.817
aF0.1
aF0.9
aF1.1
aF1.6
aF0.5
aF0.2
aF0.1
aF0.4
aF0.8
aF0.9
aF2.9
aF0.0
aI0
aI0
aI5
aV201151,1610612737
p56
aa(lp57
I200747
aVAdam Morrison
p58
aI1610612747
aVLAL
p59
aF24.0
aI52
aI23
aI29
aF0.442
aF13.7
aF1.5
aF4.3
aF0.359
aF0.6
aF1.8
aF0.333
aF0.3
aF0.4
aF0.739
aF0.3
aF1.2
aF1.5
aF0.8
aF0.6
aF0.2
aF0.1
aF0.2
aF1.5
aF0.5
aF4.0
aF-2.1
aI0
aI0
aI5
aV200747,1610612747
p60
aa(lp61
I1502
aVAdonal Foyle
p62
aI1610612753
aVORL
p63
aF34.0
aI10
aI6
aI4
aF0.6
aF6.2
aF0.7
aF1.1
aF0.636
aF0.0
aF0.0
aF0.0
aF0.3
aF0.6
aF0.5
aF0.9
aF1.7
aF2.6
aF0.1
aF0.3
aF0.0
aF0.8
aF0.0
aF0.5
aF0.2
aF1.7
aF-1.0
aI0
aI0
aI5
aV1502,1610612753
p64
aa(lp65
I1733
aVAl Harrington
p66
aI1610612752
aVNYK
p67
aF29.0
aI73
aI27
aI46
aF0.37
aF34.9
aF7.3
aF16.6
aF0.439
aF2.3
aF6.4
aF0.364
aF3.2
aF4.0
aF0.793
aF1.4
aF4.9
aF6.2
aF1.4
aF2.2
aF1.2
aF0.3
aF1.1
aF3.1
aF3.6
aF20.1
aF-1.0
aI10
aI0
aI5
aV1733,1610612752
p68
aa(lp69
I201143
aVAl Horford
p70
aI1610612737
aVATL
p71
aF23.0
aI67
aI41
aI26
aF0.612
aF33.5
aF4.7
aF8.9
aF0.525
aF0.0
aF0.0
aF0.0
aF2.2
aF3.1
aF0.727
aF2.2
aF7.1
aF9.3
aF2.4
aF1.5
aF0.8
aF1.4
aF0.4
aF2.8
aF2.5
aF11.5
aF0.2
aI20
aI0
aI5
aV201143,1610612737
p72
aa(lp73
I2744
aVAl Jefferson
p74
aI1610612750
aVMIN
p75
aF24.0
aI50
aI17
aI33
aF0.34
aF36.7
aF9.7
aF19.5
aF0.497
aF0.0
aF0.1
aF0.0
aF3.7
aF5.0
aF0.738
aF3.4
aF7.5
aF11.0
aF1.6
aF1.8
aF0.8
aF1.7
aF1.7
aF2.8
aF3.9
aF23.1
aF-2.1
aI30
aI0
aI5
aV2744,1610612750
p76
aa(lp77
I201154
aVAl Thornton
p78
aI1610612746
aVLAC
p79
aF25.0
aI71
aI16
aI55
aF0.225
aF37.4
aF6.6
aF14.8
aF0.446
aF0.3
aF1.1
aF0.253
aF3.3
aF4.4
aF0.754
aF1.7
aF3.5
aF5.2
aF1.5
aF1.8
aF0.8
aF0.9
aF1.0
aF3.2
aF3.8
aF16.8
aF-8.0
aI1
aI0
aI5
aV201154,1610612746
p80
aa(lp81
I201169
aVAlando Tucker
p82
aI1610612756
aVPHX
p83
aF25.0
aI30
aI15
aI15
aF0.5
aF9.4
aF1.7
aF4.0
aF0.43
aF0.3
aF0.8
aF0.348
aF0.9
aF1.1
aF0.788
aF0.6
aF0.4
aF1.0
aF0.4
aF0.5
aF0.2
aF0.0
aF0.3
aF0.5
aF0.9
aF4.6
aF0.6
aI0
aI0
aI5
aV201169,1610612756
p84
aa(lp85
I101165
aVAlex Acker
p86
aI1610612746
aVLAC
p87
aF26.0
aI25
aI4
aI21
aF0.16
aF8.0
aF1.2
aF3.0
aF0.395
aF0.3
aF0.8
aF0.35
aF0.2
aF0.4
aF0.5
aF0.3
aF0.6
aF1.0
aF0.5
aF0.3
aF0.2
aF0.2
aF0.1
aF0.4
aF0.4
aF2.9
aF0.0
aI0
aI0
aI5
aV101165,1610612746
p88
aa(lp89
I201582
aVAlexis Ajinca
p90
aI1610612766
aVCHA
p91
aF21.0
aI31
aI11
aI20
aF0.355
aF5.9
aF0.8
aF2.2
aF0.362
aF0.0
aF0.1
aF0.0
aF0.6
aF0.9
aF0.714
aF0.3
aF0.7
aF1.0
aF0.1
aF0.4
aF0.2
aF0.2
aF0.2
aF1.1
aF0.6
aF2.3
aF0.2
aI0
aI0
aI5
aV201582,1610612766
p92
aa(lp93
I947
aVAllen Iverson
p94
aI1610612765
aVDET
p95
aF34.0
aI57
aI25
aI32
aF0.439
aF36.7
aF6.1
aF14.6
aF0.417
aF0.5
aF1.7
aF0.283
aF4.8
aF6.1
aF0.781
aF0.5
aF2.5
aF3.0
aF5.0
aF2.6
aF1.5
aF0.1
aF0.7
aF1.5
aF5.5
aF17.5
aF-0.8
aI2
aI0
aI5
aV947,1610612765
p96
aa(lp97
I2405
aVAmar'e Stoudemire
p98
aI1610612756
aVPHX
p99
aF26.0
aI53
aI30
aI23
aF0.566
aF36.8
aF7.6
aF14.1
aF0.539
aF0.1
aF0.1
aF0.429
aF6.1
aF7.3
aF0.835
aF2.2
aF5.9
aF8.1
aF2.0
aF2.8
aF0.9
aF1.1
aF1.1
aF3.1
aF5.5
aF21.4
aF2.2
aI16
aI0
aI5
aV2405,1610612756
p100
aa(lp101
I101161
aVAmir Johnson
p102
aI1610612765
aVDET
p103
aF22.0
aI62
aI27
aI35
aF0.435
aF14.7
aF1.6
aF2.6
aF0.595
aF0.0
aF0.0
aF0.0
aF0.4
aF0.6
aF0.657
aF1.6
aF2.1
aF3.7
aF0.3
aF0.5
aF0.3
aF1.0
aF0.3
aF2.8
aF0.9
aF3.5
aF1.1
aI2
aI0
aI5
aV101161,1610612765
p104
aa(lp105
I2760
aVAnderson Varejao
p106
aI1610612739
aVCLE
p107
aF26.0
aI81
aI65
aI16
aF0.802
aF28.5
aF3.3
aF6.2
aF0.536
aF0.0
aF0.0
aF0.0
aF1.9
aF3.1
aF0.616
aF2.0
aF5.1
aF7.2
aF1.0
aF1.0
aF0.9
aF0.8
aF0.4
aF3.0
aF3.0
aF8.6
aF5.4
aI9
aI0
aI5
aV2760,1610612739
p108
aa(lp109
I101154
aVAndray Blatche
p110
aI1610612764
aVWAS
p111
aF22.0
aI71
aI17
aI54
aF0.239
aF24.0
aF4.2
aF8.9
aF0.471
aF0.1
aF0.3
aF0.238
aF1.6
aF2.3
aF0.704
aF1.8
aF3.5
aF5.3
aF1.7
aF1.6
aF0.7
aF1.0
aF0.8
aF3.0
aF1.9
aF10.0
aF-2.8
aI7
aI0
aI5
aV101154,1610612764
p112
aa(lp113
I2810
aVAndre Brown
p114
aI1610612766
aVCHA
p115
aF28.0
aI4
aI2
aI2
aF0.5
aF10.3
aF0.3
aF1.8
aF0.143
aF0.0
aF0.0
aF0.0
aF0.5
aF0.5
aF1.0
aF1.8
aF1.3
aF3.0
aF0.3
aF1.3
aF0.3
aF0.0
aF0.3
aF2.3
aF0.5
aF1.0
aF-1.3
aI0
aI0
aI5
aV2810,1610612766
p116
aa(lp117
I2738
aVAndre Iguodala
p118
aI1610612755
aVPHI
p119
aF25.0
aI82
aI41
aI41
aF0.5
aF39.9
aF6.6
aF14.0
aF0.473
aF1.0
aF3.2
aF0.307
aF4.6
aF6.4
aF0.724
aF1.1
aF4.6
aF5.7
aF5.3
aF2.7
aF1.6
aF0.4
aF0.5
aF1.9
aF4.8
aF18.8
aF1.5
aI11
aI0
aI5
aV2738,1610612755
p120
aa(lp121
I1889
aVAndre Miller
p122
aI1610612755
aVPHI
p123
aF33.0
aI82
aI41
aI41
aF0.5
aF36.3
aF6.0
aF12.7
aF0.473
aF0.2
aF0.6
aF0.283
aF4.1
aF5.0
aF0.826
aF1.5
aF3.0
aF4.5
aF6.5
aF2.4
aF1.3
aF0.2
aF1.0
aF2.4
aF3.7
aF16.3
aF1.4
aI12
aI2
aI5
aV1889,1610612755
p124
aa(lp125
I200745
aVAndrea Bargnani
p126
aI1610612761
aVTOR
p127
aF23.0
aI78
aI30
aI48
aF0.385
aF31.5
aF5.5
aF12.3
aF0.45
aF1.5
aF3.7
aF0.409
aF2.8
aF3.4
aF0.831
aF0.9
aF4.4
aF5.3
aF1.2
aF1.7
aF0.4
aF1.2
aF0.5
aF3.1
aF3.2
aF15.4
aF-3.2
aI6
aI0
aI5
aV200745,1610612761
p128
aa(lp129
I1905
aVAndrei Kirilenko
p130
aI1610612762
aVUTA
p131
aF28.0
aI67
aI42
aI25
aF0.627
aF27.3
aF3.8
aF8.5
aF0.449
aF0.3
aF1.1
aF0.274
aF3.6
aF4.6
aF0.785
aF1.3
aF3.5
aF4.8
aF2.6
aF1.8
aF1.2
aF1.1
aF0.6
aF1.9
aF3.6
aF11.6
aF3.9
aI6
aI0
aI5
aV1905,1610612762
p132
aa(lp133
I2804
aVAndres Nocioni
p134
aI1610612758
aVSAC
p135
aF29.0
aI76
aI27
aI49
aF0.355
aF26.2
aF3.9
aF9.2
aF0.427
aF1.6
aF4.1
aF0.399
aF1.9
aF2.4
aF0.792
aF0.7
aF4.0
aF4.8
aF1.3
aF1.5
aF0.5
aF0.4
aF0.5
aF3.4
aF2.2
aF11.4
aF0.0
aI3
aI0
aI5
aV2804,1610612758
p136
aa(lp137
I101106
aVAndrew Bogut
p138
aI1610612749
aVMIL
p139
aF24.0
aI36
aI19
aI17
aF0.528
aF31.2
aF5.1
aF8.8
aF0.577
aF0.0
aF0.0
aF0.0
aF1.6
aF2.7
aF0.571
aF3.3
aF7.0
aF10.3
aF2.0
aF2.4
aF0.6
aF1.0
aF0.7
aF3.6
aF3.9
aF11.7
aF2.5
aI16
aI0
aI5
aV101106,1610612749
p140
aa(lp141
I101115
aVAndrew Bynum
p142
aI1610612747
aVLAL
p143
aF21.0
aI50
aI40
aI10
aF0.8
aF28.9
aF5.6
aF10.0
aF0.56
aF0.0
aF0.0
aF0.0
aF3.0
aF4.3
aF0.707
aF2.7
aF5.2
aF8.0
aF1.4
aF1.7
aF0.4
aF1.8
aF0.7
aF3.1
aF3.3
aF14.3
aF4.7
aI16
aI0
aI5
aV101115,1610612747
p144
aa(lp145
I2740
aVAndris Biedrins
p146
aI1610612744
aVGSW
p147
aF23.0
aI62
aI20
aI42
aF0.323
aF30.1
aF5.0
aF8.6
aF0.578
aF0.0
aF0.0
aF0.0
aF1.9
aF3.5
aF0.551
aF3.6
aF7.6
aF11.2
aF2.0
aF1.8
aF1.0
aF1.5
aF0.8
aF3.8
aF3.0
aF11.9
aF-2.9
aI28
aI0
aI5
aV2740,1610612744
p148
aa(lp149
I1712
aVAntawn Jamison
p150
aI1610612764
aVWAS
p151
aF33.0
aI81
aI19
aI62
aF0.235
aF38.2
aF8.3
aF17.8
aF0.468
aF1.4
aF3.9
aF0.351
aF4.2
aF5.6
aF0.754
aF2.4
aF6.5
aF8.9
aF1.9
aF1.5
aF1.2
aF0.3
aF0.8
aF2.7
aF4.5
aF22.2
aF-5.9
aI38
aI0
aI5
aV1712,1610612764
p152
aa(lp153
I1853
aVAnthony Carter
p154
aI1610612743
aVDEN
p155
aF34.0
aI78
aI53
aI25
aF0.679
aF22.9
aF2.1
aF4.9
aF0.433
aF0.3
aF1.1
aF0.239
aF0.7
aF1.0
aF0.731
aF0.5
aF2.1
aF2.6
aF4.7
aF2.0
aF1.2
aF0.2
aF0.2
aF1.8
aF1.0
aF5.3
aF0.9
aI0
aI0
aI5
aV1853,1610612743
p156
aa(lp157
I1533
aVAnthony Johnson
p158
aI1610612753
aVORL
p159
aF34.0
aI80
aI58
aI22
aF0.725
aF18.5
aF1.9
aF4.8
aF0.404
aF0.7
aF1.7
aF0.391
aF0.8
aF1.0
aF0.753
aF0.4
aF1.5
aF1.8
aF2.5
aF1.0
aF0.6
aF0.1
aF0.2
aF1.4
aF1.0
aF5.3
aF1.3
aI0
aI0
aI5
aV1533,1610612753
p160
aa(lp161
I201627
aVAnthony Morrow
p162
aI1610612744
aVGSW
p163
aF23.0
aI67
aI23
aI44
aF0.343
aF22.6
aF3.8
aF8.0
aF0.478
aF1.3
aF2.7
aF0.467
aF1.2
aF1.4
aF0.87
aF1.2
aF1.8
aF3.0
aF1.2
aF0.8
aF0.5
aF0.2
aF0.3
aF1.9
aF1.1
aF10.1
aF-0.9
aI2
aI0
aI5
aV201627,1610612744
p164
aa(lp165
I1515
aVAnthony Parker
p166
aI1610612761
aVTOR
p167
aF34.0
aI80
aI31
aI49
aF0.388
aF33.0
aF4.0
aF9.4
aF0.426
aF1.2
aF3.0
aF0.39
aF1.5
aF1.8
aF0.834
aF0.6
aF3.4
aF4.0
aF3.4
aF1.4
aF1.3
aF0.2
aF0.4
aF1.8
aF1.8
aF10.7
aF-1.1
aI0
aI0
aI5
aV1515,1610612761
p168
aa(lp169
I201576
aVAnthony Randolph
p170
aI1610612744
aVGSW
p171
aF19.0
aI63
aI21
aI42
aF0.333
aF17.9
aF3.2
aF6.8
aF0.462
aF0.0
aF0.1
aF0.0
aF1.6
aF2.2
aF0.716
aF2.0
aF3.7
aF5.8
aF0.8
aF1.3
aF0.7
aF1.2
aF0.6
aF2.2
aF1.9
aF7.9
aF-1.5
aI8
aI0
aI5
aV201576,1610612744
p172
aa(lp173
I101194
aVAnthony Roberson
p174
aI1610612741
aVCHI
p175
aF26.0
aI29
aI11
aI18
aF0.379
aF9.5
aF1.5
aF4.1
aF0.367
aF0.9
aF2.8
aF0.321
aF0.2
aF0.2
aF1.0
aF0.2
aF0.6
aF0.8
aF0.7
aF0.3
aF0.3
aF0.0
aF0.1
aF0.6
aF0.2
aF4.1
aF-1.9
aI0
aI0
aI5
aV101194,1610612741
p176
aa(lp177
I201229
aVAnthony Tolliver
p178
aI1610612759
aVSAS
p179
aF24.0
aI19
aI14
aI5
aF0.737
aF11.0
aF1.0
aF3.4
aF0.292
aF0.5
aF2.2
aF0.22
aF0.3
aF0.5
aF0.5
aF0.6
aF1.5
aF2.2
aF0.9
aF0.4
aF0.3
aF0.1
aF0.1
aF0.8
aF0.6
aF2.7
aF0.3
aI0
aI0
aI5
aV201229,1610612759
p180
aa(lp181
I101120
aVAntoine Wright
p182
aI1610612742
aVDAL
p183
aF25.0
aI65
aI38
aI27
aF0.585
aF23.9
aF2.8
aF6.6
aF0.415
aF0.7
aF2.3
aF0.302
aF1.1
aF1.5
aF0.747
aF0.5
aF1.6
aF2.1
aF1.2
aF0.8
aF0.7
aF0.4
aF0.5
aF2.6
aF1.3
aF7.3
aF0.8
aI0
aI0
aI5
aV101120,1610612742
p184
aa(lp185
I1498
aVAntonio Daniels
p186
aI1610612740
aVNOH
p187
aF34.0
aI74
aI40
aI34
aF0.541
aF13.8
aF1.3
aF3.2
aF0.419
aF0.3
aF0.8
aF0.367
aF1.1
aF1.4
aF0.8
aF0.1
aF1.0
aF1.0
aF2.4
aF0.8
aF0.4
aF0.0
aF0.2
aF0.7
aF1.4
aF4.1
aF-2.9
aI0
aI0
aI5
aV1498,1610612740
p188
aa(lp189
I686
aVAntonio McDyess
p190
aI1610612765
aVDET
p191
aF34.0
aI62
aI28
aI34
aF0.452
aF30.1
aF4.3
aF8.5
aF0.51
aF0.0
aF0.0
aF0.0
aF1.0
aF1.4
aF0.698
aF3.0
aF6.8
aF9.8
aF1.3
aF0.8
aF0.7
aF0.8
aF0.2
aF3.1
aF1.8
aF9.6
aF-1.1
aI16
aI0
aI5
aV686,1610612765
p192
aa(lp193
I201167
aVArron Afflalo
p194
aI1610612765
aVDET
p195
aF23.0
aI74
aI36
aI38
aF0.486
aF16.7
aF1.8
aF4.1
aF0.437
aF0.6
aF1.4
aF0.402
aF0.8
aF1.0
aF0.817
aF0.4
aF1.4
aF1.8
aF0.6
aF0.6
aF0.4
aF0.2
aF0.2
aF1.9
aF0.6
aF4.9
aF-0.6
aI0
aI0
aI5
aV201167,1610612765
p196
aa(lp197
I1506
aVAustin Croshere
p198
aI1610612759
aVSAS
p199
aF34.0
aI14
aI7
aI7
aF0.5
aF7.1
aF1.0
aF2.8
aF0.359
aF0.4
aF1.1
aF0.333
aF0.5
aF0.9
aF0.583
aF0.8
aF1.6
aF2.4
aF0.6
aF0.4
aF0.1
aF0.1
aF0.4
aF0.4
aF0.6
aF2.9
aF-2.1
aI0
aI0
aI5
aV1506,1610612759
p200
aa(lp201
I1884
aVBaron Davis
p202
aI1610612746
aVLAC
p203
aF30.0
aI65
aI17
aI48
aF0.262
aF34.6
aF5.5
aF14.8
aF0.37
aF1.5
aF5.0
aF0.302
aF2.4
aF3.2
aF0.757
aF0.7
aF3.0
aF3.7
aF7.7
aF3.0
aF1.7
aF0.5
aF0.9
aF3.0
aF2.8
aF14.9
aF-5.4
aI13
aI0
aI5
aV1884,1610612746
p204
aa(lp205
I2732
aVBen Gordon
p206
aI1610612741
aVCHI
p207
aF26.0
aI82
aI41
aI41
aF0.5
aF36.6
aF7.3
aF16.0
aF0.455
aF2.1
aF5.1
aF0.41
aF4.0
aF4.7
aF0.864
aF0.6
aF2.8
aF3.5
aF3.4
aF2.4
aF0.9
aF0.3
aF0.8
aF2.2
aF3.5
aF20.7
aF0.3
aI0
aI0
aI5
aV2732,1610612741
p208
aa(lp209
I1112
aVBen Wallace
p210
aI1610612739
aVCLE
p211
aF34.0
aI56
aI45
aI11
aF0.804
aF23.5
aF1.2
aF2.8
aF0.445
aF0.0
aF0.0
aF0.0
aF0.5
aF1.1
aF0.422
aF2.4
aF4.0
aF6.5
aF0.8
aF0.6
aF0.9
aF1.3
aF0.2
aF1.5
aF1.0
aF2.9
aF7.7
aI0
aI0
aI5
aV1112,1610612739
p212
aa(lp213
I2757
aVBeno Udrih
p214
aI1610612758
aVSAC
p215
aF26.0
aI73
aI14
aI59
aF0.192
aF31.1
aF4.4
aF9.5
aF0.461
aF0.5
aF1.5
aF0.31
aF1.7
aF2.1
aF0.82
aF0.6
aF2.4
aF3.0
aF4.7
aF2.2
aF1.1
aF0.2
aF0.4
aF2.6
aF1.9
aF11.0
aF-4.9
aI1
aI0
aI5
aV2757,1610612758
p216
aa(lp217
I201336
aVBlake Ahearn
p218
aI1610612759
aVSAS
p219
aF25.0
aI3
aI2
aI1
aF0.667
aF6.3
aF0.7
aF2.0
aF0.333
aF0.7
aF1.3
aF0.5
aF0.7
aF0.7
aF1.0
aF0.0
aF0.3
aF0.3
aF0.7
aF0.3
aF0.3
aF0.0
aF0.3
aF1.0
aF0.7
aF2.7
aF2.7
aI0
aI0
aI5
aV201336,1610612759
p220
aa(lp221
I201628
aVBobby Brown
p222
aI1610612750
aVMIN
p223
aF24.0
aI68
aI13
aI55
aF0.191
aF13.7
aF2.1
aF5.3
aF0.392
aF0.7
aF1.9
aF0.346
aF0.5
aF0.6
aF0.791
aF0.2
aF0.6
aF0.8
aF1.7
aF0.9
aF0.3
aF0.0
aF0.3
aF1.4
aF0.8
aF5.3
aF-2.9
aI0
aI0
aI5
aV201628,1610612750
p224
aa(lp225
I1517
aVBobby Jackson
p226
aI1610612758
aVSAC
p227
aF36.0
aI71
aI16
aI55
aF0.225
aF20.9
aF2.7
aF6.8
aF0.398
aF0.8
aF2.8
aF0.305
aF1.2
aF1.4
aF0.851
aF0.6
aF2.2
aF2.8
aF2.0
aF0.9
aF0.9
aF0.1
aF0.1
aF1.4
aF1.4
aF7.5
aF-2.6
aI2
aI0
aI5
aV1517,1610612758
p228
aa(lp229
I2250
aVBobby Simmons
p230
aI1610612751
aVNJN
p231
aF29.0
aI71
aI30
aI41
aF0.423
aF24.4
aF2.8
aF6.2
aF0.449
aF1.6
aF3.7
aF0.447
aF0.6
aF0.8
aF0.741
aF1.0
aF2.9
aF3.9
aF1.3
aF0.9
aF0.7
aF0.1
aF0.2
aF2.6
aF0.9
aF7.8
aF0.2
aI1
aI0
aI5
aV2250,1610612751
p232
aa(lp233
I2564
aVBoris Diaw
p234
aI1610612766
aVCHA
p235
aF27.0
aI81
aI41
aI40
aF0.506
aF34.0
aF5.5
aF10.9
aF0.507
aF0.9
aF2.2
aF0.414
aF1.2
aF1.8
aF0.687
aF1.5
aF3.9
aF5.3
aF4.1
aF2.7
aF0.8
aF0.7
aF0.5
aF2.5
aF2.0
aF13.2
aF0.9
aI8
aI0
aI5
aV2564,1610612766
p236
aa(lp237
I1802
aVBrad Miller
p238
aI1610612741
aVCHI
p239
aF33.0
aI70
aI25
aI45
aF0.357
aF30.0
aF4.2
aF8.8
aF0.476
aF0.3
aF0.8
aF0.411
aF3.2
aF3.9
aF0.824
aF2.1
aF5.6
aF7.8
aF3.3
aF1.9
aF0.7
aF0.5
aF0.8
aF3.2
aF3.7
aF11.9
aF-1.8
aI16
aI0
aI5
aV1802,1610612741
p240
aa(lp241
I201148
aVBrandan Wright
p242
aI1610612744
aVGSW
p243
aF21.0
aI39
aI11
aI28
aF0.282
aF17.7
aF3.3
aF6.3
aF0.528
aF0.0
aF0.1
aF0.0
aF1.6
aF2.2
aF0.741
aF1.6
aF2.4
aF4.0
aF0.5
aF0.6
aF0.6
aF0.9
aF0.5
aF1.9
aF1.6
aF8.3
aF-1.7
aI2
aI0
aI5
aV201148,1610612744
p244
aa(lp245
I101138
aVBrandon Bass
p246
aI1610612742
aVDAL
p247
aF24.0
aI81
aI49
aI32
aF0.605
aF19.4
aF3.1
aF6.3
aF0.496
aF0.0
aF0.1
aF0.0
aF2.2
aF2.6
aF0.867
aF1.6
aF2.9
aF4.5
aF0.5
aF1.1
aF0.3
aF0.7
aF0.6
aF1.7
aF2.0
aF8.5
aF0.9
aI4
aI0
aI5
aV101138,1610612742
p248
aa(lp249
I200750
aVBrandon Roy
p250
aI1610612757
aVPOR
p251
aF24.0
aI78
aI52
aI26
aF0.667
aF37.2
aF8.1
aF16.9
aF0.48
aF1.1
aF2.8
aF0.377
aF5.3
aF6.5
aF0.824
aF1.3
aF3.4
aF4.7
aF5.1
aF1.9
aF1.1
aF0.3
aF0.7
aF1.6
aF5.3
aF22.6
aF6.5
aI3
aI0
aI5
aV200750,1610612757
p252
aa(lp253
I201575
aVBrandon Rush
p254
aI1610612754
aVIND
p255
aF23.0
aI75
aI33
aI42
aF0.44
aF24.0
aF3.2
aF7.7
aF0.423
aF1.0
aF2.8
aF0.373
aF0.6
aF0.9
aF0.697
aF0.5
aF2.7
aF3.1
aF0.9
aF1.0
aF0.5
aF0.5
aF0.5
aF1.7
aF0.9
aF8.1
aF-2.4
aI2
aI0
aI5
aV201575,1610612754
p256
aa(lp257
I2217
aVBrendan Haywood
p258
aI1610612764
aVWAS
p259
aF29.0
aI6
aI2
aI4
aF0.333
aF29.2
aF4.0
aF8.3
aF0.48
aF0.0
aF0.0
aF0.0
aF1.7
aF3.5
aF0.476
aF2.2
aF5.2
aF7.3
aF1.3
aF1.5
aF0.7
aF2.5
aF1.0
aF2.3
aF2.0
aF9.7
aF-4.7
aI2
aI0
aI5
aV2217,1610612764
p260
aa(lp261
I699
aVBrent Barry
p262
aI1610612745
aVHOU
p263
aF37.0
aI56
aI34
aI22
aF0.607
aF15.3
aF1.3
aF3.1
aF0.407
aF0.9
aF2.3
aF0.374
aF0.3
aF0.4
aF0.95
aF0.3
aF1.4
aF1.7
aF1.4
aF0.9
aF0.4
aF0.1
aF0.1
aF0.8
aF0.4
aF3.7
aF0.3
aI0
aI0
aI5
aV699,1610612745
p264
aa(lp265
I1510
aVBrevin Knight
p266
aI1610612762
aVUTA
p267
aF33.0
aI74
aI43
aI31
aF0.581
aF12.7
aF0.9
aF2.6
aF0.349
aF0.0
aF0.1
aF0.0
aF0.6
aF0.9
aF0.75
aF0.2
aF1.0
aF1.2
aF2.6
aF0.9
aF0.9
aF0.1
aF0.2
aF1.3
aF1.1
aF2.4
aF1.1
aI0
aI0
aI5
aV1510,1610612762
p268
aa(lp269
I2073
aVBrian Cardinal
p270
aI1610612750
aVMIN
p271
aF32.0
aI64
aI21
aI43
aF0.328
aF14.2
aF1.0
aF2.6
aF0.385
aF0.5
aF1.4
aF0.326
aF0.5
aF0.5
aF0.857
aF0.6
aF1.6
aF2.2
aF1.2
aF0.8
aF0.6
aF0.2
aF0.1
aF2.1
aF1.0
aF3.0
aF0.2
aI0
aI0
aI5
aV2073,1610612750
p272
aa(lp273
I2567
aVBrian Cook
p274
aI1610612745
aVHOU
p275
aF28.0
aI30
aI24
aI6
aF0.8
aF5.7
aF0.9
aF2.5
aF0.368
aF0.4
aF1.0
aF0.433
aF0.2
aF0.2
aF0.833
aF0.2
aF0.8
aF1.1
aF0.2
aF0.4
aF0.1
aF0.1
aF0.1
aF0.9
aF0.4
aF2.5
aF-1.5
aI0
aI0
aI5
aV2567,1610612745
p276
aa(lp277
I2243
aVBrian Scalabrine
p278
aI1610612738
aVBOS
p279
aF31.0
aI39
aI31
aI8
aF0.795
aF12.9
aF1.2
aF2.9
aF0.421
aF0.6
aF1.6
aF0.393
aF0.4
aF0.5
aF0.889
aF0.2
aF1.1
aF1.3
aF0.5
aF0.3
aF0.2
aF0.3
aF0.1
aF1.9
aF0.6
aF3.5
aF2.7
aI0
aI0
aI5
aV2243,1610612738
p280
aa(lp281
I1730
aVBrian Skinner
p282
aI1610612746
aVLAC
p283
aF33.0
aI51
aI8
aI43
aF0.157
aF16.5
aF1.8
aF4.0
aF0.449
aF0.0
aF0.0
aF0.0
aF0.6
aF0.9
aF0.638
aF1.4
aF2.6
aF4.0
aF0.5
aF0.8
aF0.3
aF1.0
aF0.4
aF1.8
aF0.8
aF4.2
aF-5.5
aI3
aI0
aI5
aV1730,1610612746
p284
aa(lp285
I201572
aVBrook Lopez
p286
aI1610612751
aVNJN
p287
aF21.0
aI82
aI34
aI48
aF0.415
aF30.5
aF5.5
aF10.3
aF0.531
aF0.0
aF0.0
aF0.0
aF2.1
aF2.6
aF0.793
aF2.7
aF5.4
aF8.1
aF1.0
aF1.8
aF0.5
aF1.8
aF0.9
aF3.1
aF2.3
aF13.0
aF-1.3
aI18
aI0
aI5
aV201572,1610612751
p288
aa(lp289
I1477
aVBruce Bowen
p290
aI1610612759
aVSAS
p291
aF38.0
aI80
aI54
aI26
aF0.675
aF18.8
aF1.0
aF2.3
aF0.422
aF0.5
aF1.2
aF0.429
aF0.2
aF0.3
aF0.538
aF0.2
aF1.6
aF1.8
aF0.5
aF0.3
aF0.5
aF0.2
aF0.1
aF1.5
aF0.7
aF2.7
aF-0.4
aI0
aI0
aI5
aV1477,1610612759
p292
aa(lp293
I101139
aVCJ Miles
p294
aI1610612762
aVUTA
p295
aF22.0
aI72
aI42
aI30
aF0.583
aF22.5
aF3.6
aF7.8
aF0.459
aF0.9
aF2.5
aF0.352
aF1.1
aF1.2
aF0.876
aF0.6
aF1.7
aF2.3
aF1.5
aF0.9
aF0.6
aF0.2
aF0.3
aF2.6
aF1.1
aF9.1
aF0.2
aI1
aI0
aI5
aV101139,1610612762
p296
aa(lp297
I201228
aVCJ Watson
p298
aI1610612744
aVGSW
p299
aF25.0
aI77
aI25
aI52
aF0.325
aF24.5
aF3.3
aF7.3
aF0.457
aF0.6
aF1.6
aF0.4
aF2.2
aF2.5
aF0.87
aF0.5
aF2.0
aF2.5
aF2.7
aF1.2
aF1.2
aF0.1
aF0.4
aF1.8
aF2.4
aF9.5
aF-1.2
aI1
aI0
aI5
aV201228,1610612744
p300
aa(lp301
I1916
aVCalvin Booth
p302
aI1610612758
aVSAC
p303
aF33.0
aI8
aI2
aI6
aF0.25
aF6.9
aF0.6
aF1.3
aF0.5
aF0.0
aF0.0
aF0.0
aF0.8
aF1.0
aF0.75
aF0.6
aF0.8
aF1.4
aF0.0
aF0.1
aF0.1
aF0.3
aF0.1
aF1.3
aF0.8
aF2.0
aF-2.8
aI0
aI0
aI5
aV1916,1610612758
p304
aa(lp305
I201171
aVCarl Landry
p306
aI1610612745
aVHOU
p307
aF25.0
aI69
aI44
aI25
aF0.638
aF21.3
aF3.5
aF6.1
aF0.574
aF0.0
aF0.0
aF0.333
aF2.3
aF2.8
aF0.813
aF1.8
aF3.2
aF5.0
aF0.6
aF1.0
aF0.4
aF0.4
aF0.6
aF2.4
aF2.2
aF9.2
aF0.5
aI2
aI0
aI5
aV201171,1610612745
p308
aa(lp309
I2430
aVCarlos Boozer
p310
aI1610612762
aVUTA
p311
aF27.0
aI37
aI22
aI15
aF0.595
aF32.3
aF6.8
aF13.8
aF0.49
aF0.0
aF0.0
aF0.0
aF2.6
aF3.8
aF0.698
aF3.0
aF7.4
aF10.4
aF2.1
aF2.1
aF1.1
aF0.2
aF1.4
aF3.6
aF2.8
aF16.2
aF-1.0
aI20
aI0
aI5
aV2430,1610612762
p312
aa(lp313
I2546
aVCarmelo Anthony
p314
aI1610612743
aVDEN
p315
aF25.0
aI66
aI45
aI21
aF0.682
aF34.5
aF8.1
aF18.3
aF0.443
aF1.0
aF2.6
aF0.371
aF5.6
aF7.1
aF0.793
aF1.6
aF5.2
aF6.8
aF3.4
aF3.0
aF1.1
aF0.4
aF1.2
aF3.0
aF5.4
aF22.8
aF4.6
aI12
aI0
aI5
aV2546,1610612743
p316
aa(lp317
I2406
aVCaron Butler
p318
aI1610612764
aVWAS
p319
aF29.0
aI67
aI15
aI52
aF0.224
aF38.6
aF7.3
aF16.2
aF0.453
aF1.0
aF3.1
aF0.31
aF5.1
aF6.0
aF0.858
aF1.8
aF4.4
aF6.2
aF4.3
aF3.1
aF1.6
aF0.3
aF1.0
aF2.5
aF4.5
aF20.8
aF-5.7
aI11
aI0
aI5
aV2406,1610612764
p320
aa(lp321
I201858
aVCartier Martin
p322
aI1610612766
aVCHA
p323
aF24.0
aI33
aI15
aI18
aF0.455
aF8.0
aF0.8
aF2.3
aF0.364
aF0.3
aF1.0
aF0.303
aF0.6
aF0.8
aF0.8
aF0.2
aF0.8
aF1.0
aF0.4
aF0.3
aF0.2
aF0.1
aF0.2
aF1.0
aF0.7
aF2.6
aF0.7
aI0
aI0
aI5
aV201858,1610612766
p324
aa(lp325
I200759
aVCedric Simmons
p326
aI1610612758
aVSAC
p327
aF23.0
aI18
aI6
aI12
aF0.333
aF4.7
aF0.6
aF1.4
aF0.44
aF0.0
aF0.0
aF0.0
aF0.4
aF0.9
aF0.438
aF0.3
aF0.6
aF0.9
aF0.1
aF0.1
aF0.1
aF0.2
aF0.2
aF0.4
aF0.8
aF1.6
aF-1.4
aI0
aI0
aI5
aV200759,1610612758
p328
aa(lp329
I101112
aVChanning Frye
p330
aI1610612757
aVPOR
p331
aF26.0
aI63
aI40
aI23
aF0.635
aF11.8
aF1.8
aF4.2
aF0.423
aF0.2
aF0.5
aF0.333
aF0.4
aF0.6
aF0.722
aF0.7
aF1.6
aF2.2
aF0.4
aF0.5
aF0.3
aF0.3
aF0.1
aF1.7
aF0.6
aF4.2
aF-1.9
aI0
aI0
aI5
aV101112,1610612757
p332
aa(lp333
I101236
aVCharles Hayes
p334
aI1610612745
aVHOU
p335
aF26.0
aI71
aI46
aI25
aF0.648
aF12.1
aF0.6
aF1.6
aF0.372
aF0.0
aF0.1
aF0.0
aF0.1
aF0.3
aF0.368
aF1.0
aF2.5
aF3.5
aF0.6
aF0.4
aF0.5
aF0.3
aF0.2
aF1.9
aF0.5
aF1.3
aF-0.8
aI0
aI0
aI5
aV101236,1610612745
p336
aa(lp337
I2294
aVCharlie Bell
p338
aI1610612749
aVMIL
p339
aF30.0
aI70
aI29
aI41
aF0.414
aF25.5
aF3.1
aF7.5
aF0.414
aF1.2
aF3.4
aF0.363
aF0.9
aF1.1
aF0.825
aF0.5
aF1.5
aF1.9
aF2.2
aF1.1
aF0.7
aF0.1
aF0.3
aF2.0
aF1.4
aF8.4
aF-1.6
aI0
aI0
aI5
aV2294,1610612749
p340
aa(lp341
I101111
aVCharlie Villanueva
p342
aI1610612749
aVMIL
p343
aF24.0
aI78
aI33
aI45
aF0.423
aF26.9
aF6.2
aF14.0
aF0.447
aF1.1
aF3.3
aF0.345
aF2.6
aF3.1
aF0.838
aF2.0
aF4.7
aF6.7
aF1.8
aF1.8
aF0.6
aF0.7
aF0.6
aF3.3
aF2.5
aF16.2
aF-0.9
aI14
aI0
aI5
aV101111,1610612749
p344
aa(lp345
I1497
aVChauncey Billups
p346
aI1610612743
aVDEN
p347
aF32.0
aI79
aI54
aI25
aF0.684
aF35.3
aF5.2
aF12.4
aF0.418
aF2.1
aF5.0
aF0.408
aF5.3
aF5.8
aF0.913
aF0.4
aF2.6
aF3.0
aF6.4
aF2.2
aF1.2
aF0.2
aF0.8
aF2.0
aF4.1
aF17.7
aF3.6
aI10
aI0
aI5
aV1497,1610612743
p348
aa(lp349
I200798
aVCheikh Samb
p350
aI1610612752
aVNYK
p351
aF24.0
aI18
aI8
aI10
aF0.444
aF4.6
aF0.3
aF1.8
aF0.188
aF0.0
aF0.2
aF0.0
aF0.2
aF0.4
aF0.429
aF0.6
aF0.8
aF1.3
aF0.1
aF0.2
aF0.2
aF0.6
aF0.2
aF0.4
aF0.3
aF0.8
aF0.0
aI0
aI0
aI5
aV200798,1610612752
p352
aa(lp353
I2365
aVChris Andersen
p354
aI1610612743
aVDEN
p355
aF30.0
aI71
aI45
aI26
aF0.634
aF20.6
aF2.3
aF4.1
aF0.548
aF0.0
aF0.1
aF0.2
aF1.8
aF2.5
aF0.718
aF2.3
aF3.9
aF6.2
aF0.4
aF1.0
aF0.6
aF2.5
aF0.4
aF2.5
aF2.4
aF6.4
aF1.4
aI5
aI0
aI5
aV2365,1610612743
p356
aa(lp357
I2547
aVChris Bosh
p358
aI1610612761
aVTOR
p359
aF25.0
aI77
aI31
aI46
aF0.403
aF38.0
aF8.0
aF16.4
aF0.487
aF0.2
aF0.6
aF0.245
aF6.5
aF8.0
aF0.817
aF2.8
aF7.2
aF10.0
aF2.5
aF2.3
aF0.9
aF1.0
aF1.1
aF2.5
aF6.3
aF22.7
aF-1.1
aI43
aI0
aI5
aV2547,1610612761
p360
aa(lp361
I201604
aVChris Douglas-Roberts
p362
aI1610612751
aVNJN
p363
aF22.0
aI44
aI15
aI29
aF0.341
aF13.3
aF1.8
aF4.0
aF0.46
aF0.1
aF0.3
aF0.25
aF1.2
aF1.4
aF0.823
aF0.3
aF0.8
aF1.1
aF1.2
aF0.7
aF0.3
aF0.2
aF0.3
aF0.8
aF1.0
aF4.9
aF0.9
aI0
aI0
aI5
aV201604,1610612751
p364
aa(lp365
I2768
aVChris Duhon
p366
aI1610612752
aVNYK
p367
aF26.0
aI79
aI31
aI48
aF0.392
aF36.8
aF3.6
aF8.6
aF0.421
aF1.6
aF4.1
aF0.391
aF2.3
aF2.6
aF0.856
aF0.6
aF2.5
aF3.1
aF7.2
aF2.8
aF0.9
aF0.1
aF0.5
aF1.6
aF2.2
aF11.1
aF-2.8
aI13
aI0
aI5
aV2768,1610612752
p368
aa(lp369
I2549
aVChris Kaman
p370
aI1610612746
aVLAC
p371
aF27.0
aI31
aI6
aI25
aF0.194
aF29.7
aF5.2
aF9.8
aF0.528
aF0.0
aF0.0
aF0.0
aF1.6
aF2.4
aF0.68
aF2.4
aF5.5
aF8.0
aF1.5
aF2.7
aF0.5
aF1.5
aF0.7
aF3.0
aF2.5
aF12.0
aF-5.3
aI9
aI0
aI5
aV2549,1610612746
p372
aa(lp373
I2036
aVChris Mihm
p374
aI1610612747
aVLAL
p375
aF29.0
aI18
aI17
aI1
aF0.944
aF5.8
aF0.8
aF2.2
aF0.375
aF0.0
aF0.0
aF0.0
aF0.3
aF0.4
aF0.857
aF0.8
aF1.1
aF1.9
aF0.6
aF0.6
aF0.1
aF0.3
aF0.3
aF1.3
aF0.4
aF2.0
aF-2.4
aI0
aI0
aI5
aV2036,1610612747
p376
aa(lp377
I101108
aVChris Paul
p378
aI1610612740
aVNOH
p379
aF24.0
aI78
aI47
aI31
aF0.603
aF38.5
aF8.1
aF16.1
aF0.503
aF0.8
aF2.3
aF0.364
aF5.8
aF6.7
aF0.868
aF0.9
aF4.7
aF5.5
aF11.0
aF3.0
aF2.8
aF0.1
aF0.7
aF2.7
aF6.7
aF22.8
aF4.5
aI50
aI6
aI5
aV101108,1610612740
p380
aa(lp381
I200809
aVChris Quinn
p382
aI1610612748
aVMIA
p383
aF25.0
aI66
aI33
aI33
aF0.5
aF14.6
aF1.8
aF4.4
aF0.408
aF0.8
aF2.1
aF0.409
aF0.7
aF0.9
aF0.81
aF0.1
aF1.0
aF1.1
aF2.0
aF0.5
aF0.4
aF0.0
aF0.2
aF1.2
aF1.2
aF5.1
aF0.1
aI0
aI0
aI5
aV200809,1610612748
p384
aa(lp385
I2404
aVChris Wilcox
p386
aI1610612752
aVNYK
p387
aF26.0
aI62
aI15
aI47
aF0.242
aF16.9
aF3.0
aF6.0
aF0.497
aF0.0
aF0.1
aF0.0
aF1.3
aF2.3
aF0.564
aF1.5
aF2.9
aF4.5
aF0.8
aF1.2
aF0.4
aF0.3
aF0.4
aF2.2
aF1.8
aF7.2
aF-2.9
aI3
aI0
aI5
aV2404,1610612752
p388
aa(lp389
I1088
aVChucky Atkins
p390
aI1610612760
aVOKC
p391
aF34.0
aI33
aI17
aI16
aF0.515
aF12.5
aF1.0
aF3.4
aF0.301
aF0.5
aF1.7
aF0.263
aF0.5
aF0.5
aF0.938
aF0.2
aF0.6
aF0.7
aF1.8
aF0.7
aF0.3
aF0.1
aF0.1
aF0.8
aF0.5
aF3.0
aF-1.9
aI0
aI0
aI5
aV1088,1610612760
p392
aa(lp393
I201147
aVCorey Brewer
p394
aI1610612750
aVMIN
p395
aF23.0
aI15
aI4
aI11
aF0.267
aF20.5
aF2.5
aF6.0
aF0.411
aF0.3
aF0.8
aF0.417
aF0.9
aF1.3
aF0.737
aF1.2
aF2.1
aF3.3
aF1.7
aF0.9
aF1.0
aF0.2
aF0.7
aF2.5
aF1.3
aF6.2
aF-0.3
aI0
aI0
aI5
aV201147,1610612750
p396
aa(lp397
I1894
aVCorey Maggette
p398
aI1610612744
aVGSW
p399
aF29.0
aI51
aI18
aI33
aF0.353
aF31.1
aF5.7
aF12.4
aF0.461
aF0.5
aF1.9
aF0.253
aF6.7
aF8.1
aF0.824
aF1.0
aF4.6
aF5.5
aF1.8
aF2.4
aF0.9
aF0.2
aF0.9
aF3.8
aF6.0
aF18.6
aF-2.9
aI4
aI0
aI5
aV1894,1610612744
p400
aa(lp401
I201584
aVCourtney Lee
p402
aI1610612753
aVORL
p403
aF23.0
aI77
aI56
aI21
aF0.727
aF25.2
aF3.2
aF7.0
aF0.45
aF1.1
aF2.6
aF0.404
aF1.0
aF1.2
aF0.83
aF0.2
aF2.1
aF2.3
aF1.2
aF0.9
aF1.0
aF0.2
aF0.4
aF2.0
aF0.9
aF8.4
aF3.1
aI0
aI0
aI5
aV201584,1610612753
p404
aa(lp405
I201235
aVCourtney Sims
p406
aI1610612752
aVNYK
p407
aF25.0
aI2
aI0
aI2
aF0.0
aF6.6
aF1.5
aF3.0
aF0.5
aF0.0
aF0.0
aF0.0
aF0.0
aF0.0
aF0.0
aF1.0
aF1.0
aF2.0
aF0.0
aF0.5
aF0.0
aF0.0
aF0.5
aF0.5
aF0.0
aF3.0
aF0.5
aI0
aI0
aI5
aV201235,1610612752
p408
aa(lp409
I200783
aVCraig Smith
p410
aI1610612750
aVMIN
p411
aF25.0
aI74
aI22
aI52
aF0.297
aF19.7
aF3.9
aF6.9
aF0.562
aF0.0
aF0.0
aF0.0
aF2.3
aF3.4
aF0.677
aF1.3
aF2.5
aF3.8
aF1.1
aF1.4
aF0.4
aF0.3
aF0.5
aF2.5
aF2.4
aF10.1
aF-2.3
aI1
aI0
aI5
aV200783,1610612750
p412
aa(lp413
I1749
aVCuttino Mobley
p414
aI1610612746
aVLAC
p415
aF33.0
aI11
aI2
aI9
aF0.182
aF33.1
aF5.7
aF13.3
aF0.432
aF1.1
aF3.2
aF0.343
aF1.2
aF1.6
aF0.722
aF0.8
aF1.8
aF2.6
aF1.1
aF1.6
aF1.4
aF0.2
aF0.8
aF1.9
aF1.8
aF13.7
aF-6.1
aI0
aI0
aI5
aV1749,1610612746
p416
aa(lp417
I201571
aVD.J. Augustin
p418
aI1610612766
aVCHA
p419
aF21.0
aI72
aI30
aI42
aF0.417
aF26.5
aF3.7
aF8.6
aF0.43
aF1.5
aF3.4
aF0.439
aF2.9
aF3.2
aF0.893
aF0.2
aF1.6
aF1.8
aF3.5
aF1.7
aF0.6
aF0.0
aF0.8
aF1.9
aF2.4
aF11.8
aF-0.5
aI1
aI0
aI5
aV201571,1610612766
p420
aa(lp421
I2788
aVDJ Mbenga
p422
aI1610612747
aVLAL
p423
aF28.0
aI23
aI17
aI6
aF0.739
aF7.9
aF1.2
aF2.5
aF0.474
aF0.0
aF0.0
aF0.0
aF0.3
aF0.3
aF0.875
aF0.4
aF1.0
aF1.3
aF0.4
aF0.6
aF0.4
aF1.0
aF0.2
aF1.4
aF0.3
aF2.7
aF0.0
aI0
aI0
aI5
aV2788,1610612747
p424
aa(lp425
I201591
aVDJ White
p426
aI1610612760
aVOKC
p427
aF22.0
aI7
aI2
aI5
aF0.286
aF18.5
aF3.7
aF7.1
aF0.52
aF0.0
aF0.0
aF0.0
aF1.4
aF1.9
aF0.769
aF1.4
aF3.1
aF4.6
aF0.9
aF0.4
aF0.4
aF0.7
aF1.0
aF1.4
aF1.4
aF8.9
aF0.0
aI1
aI0
aI5
aV201591,1610612760
p428
aa(lp429
I201161
aVDaequan Cook
p430
aI1610612748
aVMIA
p431
aF22.0
aI75
aI41
aI34
aF0.547
aF24.4
aF3.2
aF8.6
aF0.375
aF2.0
aF5.3
aF0.387
aF0.7
aF0.7
aF0.875
aF0.3
aF2.3
aF2.5
aF0.9
aF0.6
aF0.5
aF0.1
aF0.3
aF1.7
aF0.6
aF9.1
aF-0.1
aI0
aI0
aI5
aV201161,1610612748
p432
aa(lp433
I2563
aVDahntay Jones
p434
aI1610612743
aVDEN
p435
aF28.0
aI79
aI52
aI27
aF0.658
aF18.0
aF1.9
aF4.3
aF0.458
aF0.1
aF0.2
aF0.647
aF1.4
aF1.9
aF0.728
aF0.7
aF1.4
aF2.1
aF1.0
aF0.9
aF0.6
aF0.2
aF0.5
aF2.5
aF1.5
aF5.4
aF-1.1
aI0
aI0
aI5
aV2563,1610612743
p436
aa(lp437
I2863
aVDamien Wilkins
p438
aI1610612760
aVOKC
p439
aF29.0
aI41
aI12
aI29
aF0.293
aF15.5
aF1.9
aF5.2
aF0.362
aF0.7
aF1.8
aF0.375
aF0.9
aF1.1
aF0.804
aF0.5
aF1.2
aF1.7
aF0.9
aF0.9
aF0.5
aF0.2
aF0.2
aF1.3
aF1.0
aF5.3
aF-3.5
aI0
aI0
aI5
aV2863,1610612760
p440
aa(lp441
I1800
aVDamon Jones
p442
aI1610612749
aVMIL
p443
aF32.0
aI18
aI6
aI12
aF0.333
aF6.0
aF0.6
aF1.9
aF0.324
aF0.6
aF1.6
aF0.393
aF0.0
aF0.0
aF0.0
aF0.0
aF0.3
aF0.3
aF0.4
aF0.3
aF0.2
aF0.0
aF0.1
aF0.2
aF0.1
aF1.8
aF0.6
aI0
aI0
aI5
aV1800,1610612749
p444
aa(lp445
I2429
aVDan Gadzuric
p446
aI1610612749
aVMIL
p447
aF31.0
aI67
aI25
aI42
aF0.373
aF14.0
aF1.7
aF3.6
aF0.48
aF0.0
aF0.0
aF0.0
aF0.6
aF1.0
aF0.544
aF1.4
aF2.4
aF3.8
aF0.6
aF0.6
aF0.5
aF0.6
aF0.2
aF2.4
aF1.2
aF4.0
aF-0.8
aI4
aI0
aI5
aV2429,1610612749
p448
aa(lp449
I200789
aVDaniel Gibson
p450
aI1610612739
aVCLE
p451
aF23.0
aI75
aI60
aI15
aF0.8
aF23.9
aF2.7
aF7.0
aF0.391
aF1.4
aF3.8
aF0.382
aF0.9
aF1.1
aF0.767
aF0.4
aF1.7
aF2.1
aF1.8
aF0.8
aF0.6
aF0.2
aF0.4
aF2.2
aF1.1
aF7.8
aF2.8
aI0
aI0
aI5
aV200789,1610612739
p452
aa(lp453
I201568
aVDanilo Gallinari
p454
aI1610612752
aVNYK
p455
aF20.0
aI28
aI14
aI14
aF0.5
aF14.7
aF2.0
aF4.5
aF0.448
aF1.1
aF2.6
aF0.444
aF0.9
aF1.0
aF0.963
aF0.5
aF1.5
aF2.0
aF0.5
aF0.5
aF0.5
aF0.1
aF0.2
aF1.7
aF1.3
aF6.1
aF1.8
aI0
aI0
aI5
aV201568,1610612752
p456
aa(lp457
I101122
aVDanny Granger
p458
aI1610612754
aVIND
p459
aF26.0
aI67
aI27
aI40
aF0.403
aF36.2
aF8.5
aF19.1
aF0.447
aF2.7
aF6.7
aF0.404
aF6.0
aF6.9
aF0.878
aF0.7
aF4.4
aF5.1
aF2.7
aF2.5
aF1.0
aF1.4
aF1.1
aF3.1
aF4.9
aF25.8
aF1.0
aI6
aI0
aI5
aV101122,1610612754
p460
aa(lp461
I2032
aVDarius Miles
p462
aI1610612763
aVMEM
p463
aF27.0
aI34
aI7
aI27
aF0.206
aF8.8
aF1.4
aF2.9
aF0.485
aF0.0
aF0.2
aF0.167
aF0.7
aF0.9
aF0.742
aF0.6
aF1.1
aF1.7
aF0.5
aF0.6
aF0.3
aF0.6
aF0.1
aF0.9
aF0.6
aF3.5
aF-2.1
aI0
aI0
aI5
aV2032,1610612763
p464
aa(lp465
I2443
aVDarius Songaila
p466
aI1610612764
aVWAS
p467
aF31.0
aI77
aI18
aI59
aF0.234
aF19.8
aF3.2
aF5.9
aF0.532
aF0.0
aF0.0
aF0.0
aF1.0
aF1.2
aF0.889
aF1.0
aF2.0
aF2.9
aF1.2
aF1.0
aF0.8
aF0.3
aF0.4
aF2.6
aF1.3
aF7.4
aF-1.6
aI0
aI0
aI5
aV2443,1610612764
p468
aa(lp469
I2545
aVDarko Milicic
p470
aI1610612763
aVMEM
p471
aF24.0
aI61
aI22
aI39
aF0.361
aF17.0
aF2.2
aF4.4
aF0.515
aF0.0
aF0.0
aF0.0
aF1.0
aF1.7
aF0.562
aF1.4
aF3.0
aF4.3
aF0.6
aF0.8
aF0.4
aF0.8
aF0.4
aF2.2
aF1.5
aF5.5
aF-1.3
aI5
aI0
aI5
aV2545,1610612763
p472
aa(lp473
I201616
aVDarnell Jackson
p474
aI1610612739
aVCLE
p475
aF23.0
aI51
aI41
aI10
aF0.804
aF8.4
aF0.7
aF1.7
aF0.43
aF0.0
aF0.0
aF0.0
aF0.5
aF0.7
aF0.686
aF0.6
aF1.1
aF1.7
aF0.2
aF0.3
aF0.2
aF0.1
aF0.1
aF1.5
aF0.5
aF1.9
aF-1.4
aI0
aI0
aI5
aV201616,1610612739
p476
aa(lp477
I201589
aVDarrell Arthur
p478
aI1610612763
aVMEM
p479
aF21.0
aI76
aI21
aI55
aF0.276
aF19.3
aF2.5
aF5.7
aF0.438
aF0.0
aF0.0
aF0.0
aF0.5
aF0.8
aF0.667
aF1.4
aF3.1
aF4.6
aF0.6
aF0.6
aF0.7
aF0.7
aF0.5
aF2.7
aF0.9
aF5.6
aF-3.0
aI2
aI0
aI5
aV201589,1610612763
p480
aa(lp481
I101135
aVDavid Lee
p482
aI1610612752
aVNYK
p483
aF26.0
aI81
aI32
aI49
aF0.395
aF34.9
aF6.4
aF11.7
aF0.549
aF0.0
aF0.0
aF0.0
aF3.1
aF4.1
aF0.755
aF3.2
aF8.6
aF11.7
aF2.1
aF1.9
aF1.0
aF0.3
aF1.3
aF3.2
aF2.9
aF16.0
aF-2.4
aI65
aI0
aI5
aV101135,1610612752
p484
aa(lp485
I2561
aVDavid West
p486
aI1610612740
aVNOH
p487
aF28.0
aI76
aI45
aI31
aF0.592
aF39.2
aF8.0
aF17.0
aF0.472
aF0.1
aF0.3
aF0.24
aF4.8
aF5.5
aF0.884
aF2.1
aF6.4
aF8.5
aF2.3
aF2.1
aF0.6
aF0.9
aF0.7
aF2.7
aF4.0
aF21.0
aF3.0
aI29
aI0
aI5
aV2561,1610612740
p488
aa(lp489
I201599
aVDeAndre Jordan
p490
aI1610612746
aVLAC
p491
aF20.0
aI53
aI11
aI42
aF0.208
aF14.6
aF1.8
aF2.8
aF0.633
aF0.0
aF0.0
aF0.0
aF0.8
aF2.1
aF0.385
aF1.4
aF3.1
aF4.5
aF0.2
aF0.8
aF0.2
aF1.1
aF0.2
aF1.8
aF1.6
aF4.3
aF-4.6
aI3
aI0
aI5
aV201599,1610612746
p492
aa(lp493
I201634
aVDeMarcus Nelson
p494
aI1610612744
aVGSW
p495
aF23.0
aI13
aI3
aI10
aF0.231
aF13.1
aF1.8
aF4.2
aF0.444
aF0.0
aF0.2
aF0.0
aF0.4
aF1.1
aF0.357
aF0.5
aF1.4
aF1.8
aF1.0
aF1.2
aF0.7
aF0.2
aF0.3
aF1.8
aF1.6
aF4.1
aF-3.0
aI0
aI0
aI5
aV201634,1610612744
p496
aa(lp497
I2205
aVDeSagana Diop
p498
aI1610612766
aVCHA
p499
aF27.0
aI75
aI38
aI37
aF0.507
aF13.8
aF1.0
aF2.3
aF0.433
aF0.0
aF0.0
aF0.0
aF0.3
aF0.9
aF0.333
aF1.5
aF2.1
aF3.6
aF0.4
aF0.5
aF0.4
aF0.7
aF0.2
aF1.7
aF0.8
aF2.3
aF-2.0
aI0
aI0
aI5
aV2205,1610612766
p500
aa(lp501
I2052
aVDeShawn Stevenson
p502
aI1610612764
aVWAS
p503
aF28.0
aI32
aI7
aI25
aF0.219
aF27.7
aF2.3
aF7.2
aF0.312
aF1.1
aF4.0
aF0.271
aF1.0
aF1.9
aF0.533
aF0.3
aF2.0
aF2.4
aF3.1
aF1.0
aF0.7
aF0.1
aF0.3
aF1.3
aF1.7
aF6.6
aF-5.5
aI0
aI0
aI5
aV2052,1610612764
p504
aa(lp505
I200793
aVDee Brown
p506
aI1610612756
aVPHX
p507
aF24.0
aI19
aI5
aI14
aF0.263
aF13.7
aF0.9
aF2.6
aF0.367
aF0.4
aF1.3
aF0.292
aF0.2
aF0.3
aF0.6
aF0.4
aF1.2
aF1.5
aF1.9
aF0.9
aF0.5
aF0.0
aF0.1
aF1.5
aF0.4
aF2.4
aF-2.1
aI0
aI0
aI5
aV200793,1610612756
p508
aa(lp509
I2753
aVDelonte West
p510
aI1610612739
aVCLE
p511
aF25.0
aI64
aI52
aI12
aF0.813
aF33.6
aF4.5
aF9.8
aF0.457
aF1.4
aF3.6
aF0.399
aF1.4
aF1.7
aF0.833
aF0.5
aF2.7
aF3.2
aF3.5
aF1.4
aF1.5
aF0.2
aF0.5
aF2.0
aF1.4
aF11.7
aF9.5
aI0
aI0
aI5
aV2753,1610612739
p512
aa(lp513
I201193
aVDemetris Nichols
p514
aI1610612752
aVNYK
p515
aF24.0
aI4
aI1
aI3
aF0.25
aF3.6
aF0.8
aF2.3
aF0.333
aF0.0
aF0.5
aF0.0
aF0.3
aF0.5
aF0.5
aF0.0
aF0.5
aF0.5
aF0.3
aF0.0
aF0.0
aF0.3
aF0.0
aF0.3
aF0.3
aF1.8
aF2.8
aI0
aI0
aI5
aV201193,1610612752
p516
aa(lp517
I965
aVDerek Fisher
p518
aI1610612747
aVLAL
p519
aF34.0
aI82
aI65
aI17
aF0.793
aF29.8
aF3.6
aF8.4
aF0.424
aF1.5
aF3.7
aF0.397
aF1.3
aF1.6
aF0.846
aF0.3
aF2.0
aF2.3
aF3.2
aF0.9
aF1.2
aF0.1
aF0.3
aF2.3
aF1.9
aF9.9
aF6.6
aI1
aI0
aI5
aV965,1610612747
p520
aa(lp521
I101114
aVDeron Williams
p522
aI1610612762
aVUTA
p523
aF25.0
aI68
aI39
aI29
aF0.574
aF36.8
aF6.8
aF14.5
aF0.471
aF1.0
aF3.3
aF0.31
aF4.8
aF5.6
aF0.849
aF0.4
aF2.5
aF2.9
aF10.7
aF3.4
aF1.1
aF0.3
aF0.8
aF2.0
aF4.9
aF19.4
aF2.3
aI44
aI0
aI5
aV101114,1610612762
p524
aa(lp525
I201565
aVDerrick Rose
p526
aI1610612741
aVCHI
p527
aF20.0
aI81
aI40
aI41
aF0.494
aF37.0
aF7.1
aF14.9
aF0.475
aF0.2
aF0.9
aF0.222
aF2.4
aF3.1
aF0.788
aF1.2
aF2.7
aF3.9
aF6.3
aF2.5
aF0.8
aF0.2
aF1.1
aF1.5
aF2.8
aF16.8
aF-1.5
aI8
aI0
aI5
aV201565,1610612741
p528
aa(lp529
I2824
aVDesmon Farmer
p530
aI1610612759
aVSAS
p531
aF27.0
aI3
aI0
aI3
aF0.0
aF18.0
aF1.3
aF4.7
aF0.286
aF1.0
aF4.0
aF0.25
aF0.7
aF0.7
aF1.0
aF0.0
aF2.0
aF2.0
aF0.7
aF1.3
aF0.0
aF0.0
aF0.0
aF2.0
aF0.3
aF4.3
aF2.3
aI0
aI0
aI5
aV2824,1610612759
p532
aa(lp533
I2046
aVDesmond Mason
p534
aI1610612760
aVOKC
p535
aF31.0
aI39
aI11
aI28
aF0.282
aF27.3
aF3.2
aF7.3
aF0.435
aF0.0
aF0.1
aF0.0
aF1.2
aF2.2
aF0.541
aF1.1
aF3.0
aF4.0
aF1.2
aF1.4
aF0.4
aF0.8
aF0.4
aF2.5
aF2.3
aF7.5
aF-1.7
aI1
aI0
aI5
aV2046,1610612760
p536
aa(lp537
I1904
aVDevean George
p538
aI1610612742
aVDAL
p539
aF31.0
aI43
aI27
aI16
aF0.628
aF16.5
aF1.3
aF3.3
aF0.38
aF0.5
aF1.8
aF0.289
aF0.4
aF0.5
aF0.773
aF0.6
aF1.2
aF1.8
aF0.3
aF0.4
aF0.5
aF0.3
aF0.2
aF1.3
aF0.7
aF3.4
aF-2.2
aI0
aI0
aI5
aV1904,1610612742
p540
aa(lp541
I2484
aVDevin Brown
p542
aI1610612740
aVNOH
p543
aF30.0
aI63
aI38
aI25
aF0.603
aF13.8
aF1.8
aF5.0
aF0.355
aF0.4
aF1.5
aF0.289
aF1.2
aF1.6
aF0.78
aF0.5
aF1.4
aF1.9
aF0.9
aF0.9
aF0.5
aF0.1
aF0.5
aF1.3
aF1.1
aF5.2
aF0.0
aI0
aI0
aI5
aV2484,1610612740
p544
aa(lp545
I2734
aVDevin Harris
p546
aI1610612751
aVNJN
p547
aF26.0
aI69
aI30
aI39
aF0.435
aF36.1
aF6.6
aF15.1
aF0.438
aF0.9
aF3.2
aF0.291
aF7.2
aF8.8
aF0.82
aF0.4
aF2.9
aF3.3
aF6.9
aF3.1
aF1.7
aF0.2
aF1.2
aF2.4
aF6.7
aF21.3
aF-1.4
aI16
aI0
aI5
aV2734,1610612751
p548
aa(lp549
I87
aVDikembe Mutombo
p550
aI1610612745
aVHOU
p551
aF43.0
aI9
aI6
aI3
aF0.667
aF10.7
aF0.6
aF1.4
aF0.385
aF0.0
aF0.0
aF0.0
aF0.7
aF1.0
aF0.667
aF1.3
aF2.3
aF3.7
aF0.0
aF0.7
aF0.0
aF1.2
aF0.1
aF1.2
aF1.1
aF1.8
aF0.0
aI1
aI0
aI5
aV87,1610612745
p552
aa(lp553
I1717
aVDirk Nowitzki
p554
aI1610612742
aVDAL
p555
aF31.0
aI81
aI49
aI32
aF0.605
aF37.7
aF9.6
aF20.0
aF0.479
aF0.8
aF2.1
aF0.359
aF6.0
aF6.7
aF0.89
aF1.1
aF7.3
aF8.4
aF2.4
aF1.9
aF0.8
aF0.8
aF0.6
aF2.2
aF5.8
aF25.9
aF3.0
aI26
aI0
aI5
aV1717,1610612742
p556
aa(lp557
I201187
aVDominic McGuire
p558
aI1610612764
aVWAS
p559
aF23.0
aI79
aI18
aI61
aF0.228
aF26.2
aF1.8
aF4.1
aF0.432
aF0.0
aF0.1
aF0.5
aF0.9
aF1.3
aF0.725
aF1.4
aF4.0
aF5.4
aF2.5
aF1.2
aF0.8
aF0.9
aF0.4
aF1.9
aF1.0
aF4.5
aF-4.6
aI4
aI0
aI5
aV201187,1610612764
p560
aa(lp561
I201590
aVDonte Greene
p562
aI1610612758
aVSAC
p563
aF21.0
aI55
aI11
aI44
aF0.2
aF13.2
aF1.4
aF4.3
aF0.326
aF0.5
aF1.8
aF0.26
aF0.5
aF0.6
aF0.853
aF0.3
aF1.2
aF1.6
aF0.5
aF0.7
aF0.3
aF0.3
aF0.3
aF1.2
aF0.7
aF3.8
aF-3.0
aI0
aI0
aI5
aV201590,1610612758
p564
aa(lp565
I200971
aVDontell Jefferson
p566
aI1610612766
aVCHA
p567
aF25.0
aI6
aI1
aI5
aF0.167
aF14.0
aF1.8
aF3.7
aF0.5
aF0.2
aF0.3
aF0.5
aF1.0
aF1.5
aF0.667
aF0.2
aF1.8
aF2.0
aF1.5
aF1.0
aF0.7
aF0.2
aF0.3
aF1.5
aF0.8
aF4.8
aF-3.3
aI0
aI0
aI5
aV200971,1610612766
p568
aa(lp569
I923
aVDonyell Marshall
p570
aI1610612755
aVPHI
p571
aF36.0
aI25
aI12
aI13
aF0.48
aF7.6
aF1.3
aF2.9
aF0.452
aF1.0
aF2.2
aF0.455
aF0.1
aF0.2
aF0.5
aF0.2
aF1.4
aF1.6
aF0.6
aF0.2
aF0.2
aF0.2
aF0.0
aF1.0
aF0.3
aF3.8
aF1.6
aI0
aI0
aI5
aV923,1610612755
p572
aa(lp573
I2748
aVDorell Wright
p574
aI1610612748
aVMIA
p575
aF23.0
aI6
aI4
aI2
aF0.667
aF12.2
aF1.3
aF3.3
aF0.4
aF0.0
aF0.0
aF0.0
aF0.3
aF1.0
aF0.333
aF0.3
aF3.0
aF3.3
aF0.3
aF1.0
aF0.3
aF0.0
aF0.3
aF1.3
aF1.2
aF3.0
aF-3.2
aI0
aI0
aI5
aV2748,1610612748
p576
aa(lp577
I2400
aVDrew Gooden
p578
aI1610612759
aVSAS
p579
aF27.0
aI51
aI26
aI25
aF0.51
aF24.8
aF4.6
aF9.9
aF0.468
aF0.0
aF0.1
aF0.0
aF2.6
aF3.1
aF0.84
aF2.2
aF4.9
aF7.1
aF0.9
aF1.5
aF0.6
aF0.4
aF0.5
aF2.8
aF2.7
aF11.9
aF-2.5
aI12
aI0
aI5
aV2400,1610612759
p580
aa(lp581
I101204
aVDwayne Jones
p582
aI1610612766
aVCHA
p583
aF26.0
aI6
aI2
aI4
aF0.333
aF8.7
aF0.7
aF1.2
aF0.571
aF0.0
aF0.0
aF0.0
aF0.7
aF1.0
aF0.667
aF1.0
aF1.0
aF2.0
aF0.0
aF0.7
aF0.0
aF0.2
aF0.3
aF1.0
aF0.8
aF2.0
aF0.3
aI0
aI0
aI5
aV101204,1610612766
p584
aa(lp585
I2730
aVDwight Howard
p586
aI1610612753
aVORL
p587
aF23.0
aI79
aI57
aI22
aF0.722
aF35.7
aF7.1
aF12.4
aF0.572
aF0.0
aF0.0
aF0.0
aF6.4
aF10.7
aF0.594
aF4.3
aF9.6
aF13.8
aF1.4
aF3.0
aF1.0
aF2.9
aF1.1
aF3.4
aF8.8
aF20.6
aF7.0
aI63
aI1
aI5
aV2730,1610612753
p588
aa(lp589
I2548
aVDwyane Wade
p590
aI1610612748
aVMIA
p591
aF27.0
aI79
aI42
aI37
aF0.532
aF38.6
aF10.8
aF22.0
aF0.491
aF1.1
aF3.5
aF0.317
aF7.5
aF9.8
aF0.765
aF1.1
aF3.9
aF5.0
aF7.5
aF3.4
aF2.2
aF1.3
aF0.7
aF2.3
aF7.1
aF30.2
aF2.7
aI20
aI0
aI5
aV2548,1610612748
p592
aa(lp593
I2248
aVEarl Watson
p594
aI1610612760
aVOKC
p595
aF30.0
aI68
aI19
aI49
aF0.279
aF26.1
aF2.6
aF6.7
aF0.384
aF0.3
aF1.3
aF0.235
aF1.2
aF1.6
aF0.755
aF0.5
aF2.2
aF2.7
aF5.8
aF2.3
aF0.7
aF0.2
aF0.5
aF2.0
aF1.7
aF6.6
aF-3.7
aI2
aI0
aI5
aV2248,1610612760
p596
aa(lp597
I2109
aVEddie Gill
p598
aI1610612749
aVMIL
p599
aF30.0
aI6
aI4
aI2
aF0.667
aF7.2
aF1.0
aF1.5
aF0.667
aF0.3
aF0.5
aF0.667
aF0.0
aF0.0
aF0.0
aF0.0
aF0.7
aF0.7
aF1.8
aF0.8
aF0.5
aF0.2
aF0.0
aF1.7
aF0.5
aF2.3
aF-2.7
aI0
aI0
aI5
aV2109,1610612749
p600
aa(lp601
I2067
aVEddie House
p602
aI1610612738
aVBOS
p603
aF31.0
aI81
aI61
aI20
aF0.753
aF18.3
aF3.1
aF6.9
aF0.445
aF1.9
aF4.2
aF0.444
aF0.5
aF0.7
aF0.792
aF0.1
aF1.8
aF1.9
aF1.1
aF0.7
aF0.8
aF0.1
aF0.1
aF1.4
aF0.4
aF8.5
aF2.4
aI0
aI0
aI5
aV2067,1610612738
p604
aa(lp605
I2201
aVEddy Curry
p606
aI1610612752
aVNYK
p607
aF26.0
aI3
aI0
aI3
aF0.0
aF3.9
aF0.7
aF0.7
aF1.0
aF0.0
aF0.0
aF0.0
aF0.3
aF1.0
aF0.333
aF0.0
aF1.3
aF1.3
aF0.0
aF0.7
aF0.0
aF0.0
aF0.0
aF1.7
aF1.0
aF1.7
aF-4.7
aI0
aI0
aI5
aV2201,1610612752
p608
aa(lp609
I2059
aVEduardo Najera
p610
aI1610612751
aVNJN
p611
aF32.0
aI27
aI9
aI18
aF0.333
aF11.8
aF1.2
aF2.7
aF0.446
aF0.2
aF0.9
aF0.2
aF0.3
aF0.8
aF0.364
aF0.6
aF1.9
aF2.5
aF0.7
aF0.7
aF0.4
aF0.1
aF0.1
aF1.9
aF0.8
aF2.9
aF-3.4
aI0
aI0
aI5
aV2059,1610612751
p612
aa(lp613
I1882
aVElton Brand
p614
aI1610612755
aVPHI
p615
aF30.0
aI29
aI13
aI16
aF0.448
aF31.7
aF5.6
aF12.6
aF0.447
aF0.0
aF0.0
aF0.0
aF2.5
aF3.7
aF0.676
aF2.7
aF6.1
aF8.8
aF1.3
aF2.3
aF0.6
aF1.6
aF0.7
aF2.7
aF3.2
aF13.8
aF0.0
aI10
aI0
aI5
aV1882,1610612755
p616
aa(lp617
I2731
aVEmeka Okafor
p618
aI1610612766
aVCHA
p619
aF26.0
aI82
aI35
aI47
aF0.427
aF32.8
aF5.3
aF9.4
aF0.561
aF0.0
aF0.0
aF0.0
aF2.7
aF4.5
aF0.593
aF3.4
aF6.7
aF10.1
aF0.6
aF1.8
aF0.6
aF1.7
aF1.1
aF3.0
aF3.4
aF13.2
aF0.3
aI39
aI0
aI5
aV2731,1610612766
p620
aa(lp621
I201569
aVEric Gordon
p622
aI1610612746
aVLAC
p623
aF20.0
aI78
aI19
aI59
aF0.244
aF34.3
aF5.3
aF11.6
aF0.456
aF1.7
aF4.3
aF0.389
aF3.8
aF4.5
aF0.854
aF0.6
aF2.0
aF2.6
aF2.8
aF2.1
aF1.0
aF0.4
aF0.8
aF2.2
aF3.9
aF16.1
aF-5.9
aI0
aI0
aI5
aV201569,1610612746
p624
aa(lp625
I956
aVErick Dampier
p626
aI1610612742
aVDAL
p627
aF33.0
aI80
aI49
aI31
aF0.613
aF22.9
aF2.3
aF3.5
aF0.65
aF0.0
aF0.0
aF0.0
aF1.1
aF1.8
aF0.638
aF2.7
aF4.4
aF7.1
aF1.0
aF0.9
aF0.3
aF1.2
aF0.3
aF2.4
aF1.6
aF5.7
aF0.8
aI6
aI0
aI5
aV956,1610612742
p628
aa(lp629
I2041
aVEtan Thomas
p630
aI1610612764
aVWAS
p631
aF31.0
aI26
aI4
aI22
aF0.154
aF11.8
aF1.2
aF2.5
aF0.485
aF0.0
aF0.0
aF0.0
aF0.6
aF0.9
aF0.696
aF1.0
aF1.6
aF2.5
aF0.2
aF0.7
aF0.1
aF0.7
aF0.2
aF1.3
aF1.0
aF3.1
aF-3.9
aI0
aI0
aI5
aV2041,1610612764
p632
aa(lp633
I101177
aVFabricio Oberto
p634
aI1610612759
aVSAS
p635
aF34.0
aI54
aI37
aI17
aF0.685
aF12.5
aF1.1
aF1.9
aF0.587
aF0.0
aF0.0
aF0.0
aF0.4
aF0.6
aF0.571
aF1.2
aF1.4
aF2.6
aF1.1
aF0.7
aF0.1
aF0.2
aF0.2
aF1.8
aF1.1
aF2.6
aF-0.9
aI0
aI0
aI5
aV101177,1610612759
p636
aa(lp637
I1922
aVFrancisco Elson
p638
aI1610612749
aVMIL
p639
aF33.0
aI59
aI22
aI37
aF0.373
aF16.6
aF1.4
aF2.9
aF0.491
aF0.0
aF0.1
aF0.25
aF0.6
aF0.7
aF0.846
aF1.7
aF2.2
aF3.9
aF0.5
aF0.8
aF0.6
aF0.6
aF0.2
aF2.4
aF0.9
aF3.4
aF-1.1
aI1
aI0
aI5
aV1922,1610612749
p640
aa(lp641
I101128
aVFrancisco Garcia
p642
aI1610612758
aVSAC
p643
aF27.0
aI65
aI12
aI53
aF0.185
aF30.4
aF4.5
aF10.2
aF0.444
aF1.4
aF3.4
aF0.398
aF2.2
aF2.7
aF0.82
aF0.9
aF2.5
aF3.4
aF2.3
aF1.7
aF1.2
aF1.0
aF0.4
aF3.0
aF2.4
aF12.7
aF-6.6
aI0
aI0
aI5
aV101128,1610612758
p644
aa(lp645
I2410
aVFred Jones
p646
aI1610612746
aVLAC
p647
aF30.0
aI52
aI11
aI41
aF0.212
aF28.8
aF2.5
aF6.1
aF0.407
aF1.0
aF2.8
aF0.367
aF1.3
aF1.6
aF0.815
aF0.4
aF2.0
aF2.4
aF3.6
aF1.3
aF1.0
aF0.2
aF0.3
aF2.2
aF1.3
aF7.3
aF-5.0
aI1
aI0
aI5
aV2410,1610612746
p648
aa(lp649
I201172
aVGabe Pruitt
p650
aI1610612738
aVBOS
p651
aF23.0
aI47
aI33
aI14
aF0.702
aF7.8
aF0.7
aF2.1
aF0.307
aF0.3
aF1.0
aF0.292
aF0.4
aF0.4
aF0.81
aF0.2
aF0.7
aF0.9
aF0.8
aF0.4
aF0.3
aF0.1
aF0.1
aF0.7
aF0.3
aF2.0
aF0.1
aI0
aI0
aI5
aV201172,1610612738
p652
aa(lp653
I201588
aVGeorge Hill
p654
aI1610612759
aVSAS
p655
aF23.0
aI77
aI52
aI25
aF0.675
aF16.5
aF1.9
aF4.8
aF0.403
aF0.3
aF0.9
aF0.329
aF1.5
aF1.9
aF0.781
aF0.4
aF1.7
aF2.1
aF1.8
aF1.0
aF0.6
aF0.3
aF0.4
aF1.9
aF1.9
aF5.7
aF0.2
aI1
aI0
aI5
aV201588,1610612759
p656
aa(lp657
I101123
aVGerald Green
p658
aI1610612742
aVDAL
p659
aF23.0
aI38
aI20
aI18
aF0.526
aF9.9
aF2.1
aF4.7
aF0.439
aF0.4
aF1.2
aF0.304
aF0.7
aF0.8
aF0.844
aF0.4
aF1.1
aF1.4
aF0.4
aF0.9
aF0.3
aF0.1
aF0.1
aF1.3
aF0.7
aF5.2
aF-1.7
aI1
aI0
aI5
aV101123,1610612742
p660
aa(lp661
I2222
aVGerald Wallace
p662
aI1610612766
aVCHA
p663
aF26.0
aI71
aI32
aI39
aF0.451
aF37.6
aF5.5
aF11.4
aF0.48
aF0.5
aF1.8
aF0.298
aF5.1
aF6.4
aF0.804
aF1.6
aF6.2
aF7.8
aF2.7
aF2.1
aF1.7
aF0.9
aF1.5
aF3.0
aF5.6
aF16.6
aF0.7
aI20
aI0
aI5
aV2222,1610612766
p664
aa(lp665
I2240
aVGilbert Arenas
p666
aI1610612764
aVWAS
p667
aF27.0
aI2
aI1
aI1
aF0.5
aF31.3
aF3.0
aF11.5
aF0.261
aF1.0
aF3.5
aF0.286
aF6.0
aF8.0
aF0.75
aF0.5
aF4.0
aF4.5
aF10.0
aF0.5
aF0.0
aF0.5
aF1.0
aF2.0
aF5.0
aF13.0
aF1.0
aI2
aI0
aI5
aV2240,1610612764
p668
aa(lp669
I201175
aVGlen Davis
p670
aI1610612738
aVBOS
p671
aF23.0
aI76
aI59
aI17
aF0.776
aF21.5
aF2.6
aF5.9
aF0.442
aF0.0
aF0.1
aF0.4
aF1.7
aF2.3
aF0.73
aF1.6
aF2.4
aF4.0
aF0.9
aF0.9
aF0.7
aF0.3
aF0.5
aF3.0
aF2.2
aF7.0
aF1.2
aI3
aI0
aI5
aV201175,1610612738
p672
aa(lp673
I201609
aVGoran Dragic
p674
aI1610612756
aVPHX
p675
aF23.0
aI55
aI31
aI24
aF0.564
aF13.2
aF1.6
aF4.1
aF0.393
aF0.4
aF1.0
aF0.37
aF0.9
aF1.2
aF0.769
aF0.6
aF1.3
aF1.9
aF2.0
aF1.3
aF0.5
aF0.1
aF0.3
aF1.6
aF1.2
aF4.5
aF-0.3
aI0
aI0
aI5
aV201609,1610612756
p676
aa(lp677
I255
aVGrant Hill
p678
aI1610612756
aVPHX
p679
aF36.0
aI82
aI46
aI36
aF0.561
aF29.8
aF4.8
aF9.1
aF0.523
aF0.3
aF0.9
aF0.316
aF2.2
aF2.7
aF0.808
aF0.8
aF4.2
aF4.9
aF2.3
aF1.5
aF1.1
aF0.7
aF0.6
aF2.2
aF2.5
aF12.0
aF2.2
aI5
aI0
aI5
aV255,1610612756
p680
aa(lp681
I1761
aVGreg Buckner
p682
aI1610612763
aVMEM
p683
aF32.0
aI63
aI20
aI43
aF0.317
aF13.9
aF1.0
aF2.5
aF0.384
aF0.2
aF0.8
aF0.255
aF0.3
aF0.4
aF0.8
aF0.5
aF1.6
aF2.1
aF0.9
aF0.6
aF0.5
aF0.1
aF0.2
aF1.7
aF0.6
aF2.5
aF-0.8
aI0
aI0
aI5
aV1761,1610612763
p684
aa(lp685
I201141
aVGreg Oden
p686
aI1610612757
aVPOR
p687
aF21.0
aI61
aI40
aI21
aF0.656
aF21.5
aF3.2
aF5.8
aF0.564
aF0.0
aF0.0
aF0.0
aF2.4
aF3.7
aF0.637
aF2.8
aF4.2
aF7.0
aF0.5
aF1.4
aF0.4
aF1.1
aF0.6
aF3.9
aF3.3
aF8.9
aF2.8
aI16
aI0
aI5
aV201141,1610612757
p688
aa(lp689
I101124
aVHakim Warrick
p690
aI1610612763
aVMEM
p691
aF26.0
aI82
aI24
aI58
aF0.293
aF24.7
aF4.1
aF8.5
aF0.491
aF0.1
aF0.3
aF0.217
aF3.2
aF4.6
aF0.711
aF1.6
aF3.4
aF5.0
aF0.8
aF1.2
aF0.6
aF0.5
aF0.7
aF2.1
aF3.5
aF11.6
aF-2.1
aI5
aI0
aI5
aV101124,1610612763
p692
aa(lp693
I201632
aVHamed Haddadi
p694
aI1610612763
aVMEM
p695
aF24.0
aI19
aI8
aI11
aF0.421
aF6.3
aF0.8
aF1.6
aF0.484
aF0.0
aF0.0
aF0.0
aF0.9
aF1.6
aF0.6
aF0.8
aF1.6
aF2.5
aF0.4
aF0.5
aF0.1
aF0.6
aF0.1
aF1.1
aF1.1
aF2.5
aF2.6
aI0
aI0
aI5
aV201632,1610612763
p696
aa(lp697
I200801
aVHassan Adams
p698
aI1610612761
aVTOR
p699
aF25.0
aI12
aI4
aI8
aF0.333
aF4.3
aF0.3
aF1.1
aF0.308
aF0.0
aF0.0
aF0.0
aF0.3
aF0.5
aF0.5
aF0.1
aF0.5
aF0.6
aF0.1
aF0.3
aF0.1
aF0.1
aF0.3
aF0.3
aF0.4
aF0.9
aF-1.2
aI0
aI0
aI5
aV200801,1610612761
p700
aa(lp701
I2045
aVHedo Turkoglu
p702
aI1610612753
aVORL
p703
aF30.0
aI77
aI56
aI21
aF0.727
aF36.6
aF5.5
aF13.3
aF0.413
aF1.7
aF4.9
aF0.356
aF4.1
aF5.1
aF0.807
aF0.6
aF4.7
aF5.3
aF4.9
aF2.6
aF0.8
aF0.2
aF0.6
aF2.8
aF3.9
aF16.8
aF6.6
aI4
aI0
aI5
aV2045,1610612753
p704
aa(lp705
I201611
aVHenry Walker
p706
aI1610612738
aVBOS
p707
aF21.0
aI29
aI23
aI6
aF0.793
aF7.4
aF1.2
aF2.0
aF0.621
aF0.0
aF0.0
aF0.0
aF0.6
aF0.8
aF0.696
aF0.3
aF0.7
aF1.0
aF0.4
aF0.6
aF0.2
aF0.1
aF0.2
aF1.8
aF0.6
aF3.0
aF-2.1
aI0
aI0
aI5
aV201611,1610612738
p708
aa(lp709
I200756
aVHilton Armstrong
p710
aI1610612740
aVNOH
p711
aF24.0
aI70
aI40
aI30
aF0.571
aF15.6
aF2.0
aF3.5
aF0.561
aF0.0
aF0.0
aF0.0
aF0.9
aF1.4
aF0.633
aF1.2
aF1.6
aF2.8
aF0.4
aF1.1
aF0.4
aF0.6
aF0.3
aF2.6
aF1.5
aF4.8
aF-1.1
aI1
aI0
aI5
aV200756,1610612740
p712
aa(lp713
I101113
aVIke Diogu
p714
aI1610612758
aVSAC
p715
aF25.0
aI29
aI15
aI14
aF0.517
aF7.4
aF1.3
aF2.6
aF0.527
aF0.0
aF0.1
aF0.5
aF1.4
aF1.8
aF0.755
aF0.9
aF1.0
aF1.9
aF0.1
aF0.4
aF0.1
aF0.1
aF0.4
aF0.8
aF1.2
aF4.1
aF-3.2
aI2
aI0
aI5
aV101113,1610612758
p716
aa(lp717
I2137
aVIme Udoka
p718
aI1610612759
aVSAS
p719
aF31.0
aI67
aI42
aI25
aF0.627
aF15.5
aF1.6
aF4.3
aF0.383
aF0.6
aF1.9
aF0.328
aF0.4
aF0.7
aF0.609
aF0.4
aF2.4
aF2.8
aF0.8
aF0.6
aF0.5
aF0.2
aF0.2
aF1.3
aF0.8
aF4.3
aF1.7
aI0
aI0
aI5
aV2137,1610612759
p720
aa(lp721
I201592
aVJ.R. Giddens
p722
aI1610612738
aVBOS
p723
aF24.0
aI6
aI3
aI3
aF0.5
aF1.3
aF0.3
aF0.5
aF0.667
aF0.0
aF0.0
aF0.0
aF0.0
aF0.0
aF0.0
aF0.3
aF0.2
aF0.5
aF0.0
aF0.2
aF0.2
aF0.0
aF0.0
aF0.2
aF0.0
aF0.7
aF0.2
aI0
aI0
aI5
aV201592,1610612738
p724
aa(lp725
I2747
aVJ.R. Smith
p726
aI1610612743
aVDEN
p727
aF23.0
aI81
aI53
aI28
aF0.654
aF27.7
aF5.2
aF11.7
aF0.446
aF2.2
aF5.6
aF0.397
aF2.5
aF3.4
aF0.754
aF0.5
aF3.1
aF3.7
aF2.8
aF1.9
aF1.0
aF0.2
aF0.6
aF2.3
aF2.4
aF15.2
aF4.4
aI2
aI0
aI5
aV2747,1610612743
p728
aa(lp729
I201581
aVJJ Hickson
p730
aI1610612739
aVCLE
p731
aF20.0
aI62
aI49
aI13
aF0.79
aF11.4
aF1.6
aF3.1
aF0.515
aF0.0
aF0.0
aF0.0
aF0.7
aF1.1
aF0.672
aF0.8
aF1.8
aF2.7
aF0.1
aF0.7
aF0.2
aF0.5
aF0.5
aF1.3
aF0.7
aF4.0
aF-1.7
aI0
aI0
aI5
aV201581,1610612739
p732
aa(lp733
I200755
aVJJ Redick
p734
aI1610612753
aVORL
p735
aF25.0
aI64
aI48
aI16
aF0.75
aF17.3
aF1.8
aF4.7
aF0.391
aF1.0
aF2.8
aF0.374
aF1.3
aF1.5
aF0.871
aF0.1
aF1.6
aF1.7
aF1.1
aF0.8
aF0.3
aF0.0
aF0.1
aF1.1
aF1.2
aF6.0
aF1.9
aI0
aI0
aI5
aV200755,1610612753
p736
aa(lp737
I201580
aVJaVale McGee
p738
aI1610612764
aVWAS
p739
aF21.0
aI75
aI17
aI58
aF0.227
aF15.2
aF2.5
aF5.2
aF0.494
aF0.0
aF0.0
aF0.0
aF1.4
aF2.2
aF0.66
aF1.6
aF2.3
aF3.9
aF0.3
aF0.8
aF0.4
aF1.0
aF0.5
aF2.1
aF1.7
aF6.5
aF-3.9
aI4
aI0
aI5
aV201580,1610612764
p740
aa(lp741
I1521
aVJacque Vaughn
p742
aI1610612759
aVSAS
p743
aF34.0
aI30
aI17
aI13
aF0.567
aF9.7
aF0.8
aF2.5
aF0.32
aF0.0
aF0.0
aF1.0
aF0.5
aF0.6
aF0.889
aF0.1
aF0.6
aF0.7
aF1.8
aF0.5
aF0.2
aF0.0
aF0.3
aF0.9
aF0.6
aF2.2
aF-1.2
aI0
aI0
aI5
aV1521,1610612759
p744
aa(lp745
I2063
aVJake Voskuhl
p746
aI1610612761
aVTOR
p747
aF31.0
aI38
aI17
aI21
aF0.447
aF6.3
aF0.3
aF1.2
aF0.267
aF0.0
aF0.0
aF0.0
aF0.3
aF0.4
aF0.786
aF0.6
aF1.0
aF1.6
aF0.2
aF0.4
aF0.1
aF0.1
aF0.1
aF1.6
aF0.3
aF0.9
aF-0.1
aI0
aI0
aI5
aV2063,1610612761
p748
aa(lp749
I2048
aVJamaal Magloire
p750
aI1610612748
aVMIA
p751
aF31.0
aI55
aI28
aI27
aF0.509
aF12.9
aF1.2
aF2.4
aF0.496
aF0.0
aF0.0
aF0.0
aF0.5
aF1.1
aF0.483
aF1.5
aF2.5
aF4.0
aF0.4
aF0.6
aF0.2
aF0.5
aF0.3
aF2.2
aF1.6
aF2.9
aF0.6
aI1
aI0
aI5
aV2048,1610612748
p752
aa(lp753
I2037
aVJamal Crawford
p754
aI1610612744
aVGSW
p755
aF29.0
aI65
aI25
aI40
aF0.385
aF38.1
aF6.4
aF15.7
aF0.41
aF2.2
aF6.1
aF0.36
aF4.6
aF5.3
aF0.872
aF0.4
aF2.6
aF3.0
aF4.4
aF2.3
aF0.9
aF0.2
aF0.5
aF1.4
aF3.3
aF19.7
aF-3.2
aI1
aI0
aI5
aV2037,1610612744
p756
aa(lp757
I200081
aVJamario Moon
p758
aI1610612748
aVMIA
p759
aF29.0
aI80
aI33
aI47
aF0.413
aF25.9
aF2.8
aF5.9
aF0.468
aF0.8
aF2.3
aF0.355
aF0.9
aF1.0
aF0.85
aF0.7
aF3.8
aF4.6
aF1.2
aF0.5
aF1.1
aF0.8
aF0.1
aF1.7
aF0.8
aF7.2
aF-0.2
aI1
aI0
aI5
aV200081,1610612748
p760
aa(lp761
I2749
aVJameer Nelson
p762
aI1610612753
aVORL
p763
aF27.0
aI42
aI32
aI10
aF0.762
aF31.2
aF6.4
aF12.6
aF0.503
aF2.0
aF4.3
aF0.453
aF2.0
aF2.3
aF0.887
aF0.5
aF3.0
aF3.5
aF5.4
aF2.0
aF1.2
aF0.1
aF0.5
aF2.9
aF2.1
aF16.7
aF8.8
aI3
aI0
aI5
aV2749,1610612753
p764
aa(lp765
I2592
aVJames Jones
p766
aI1610612748
aVMIA
p767
aF28.0
aI40
aI20
aI20
aF0.5
aF15.7
aF1.4
aF3.7
aF0.369
aF0.8
aF2.4
aF0.344
aF0.7
aF0.8
aF0.839
aF0.3
aF1.3
aF1.6
aF0.5
aF0.3
aF0.3
aF0.4
aF0.1
aF1.5
aF1.0
aF4.2
aF1.0
aI0
aI0
aI5
aV2592,1610612748
p768
aa(lp769
I1899
aVJames Posey
p770
aI1610612740
aVNOH
p771
aF32.0
aI75
aI45
aI30
aF0.6
aF28.5
aF2.9
aF7.0
aF0.412
aF1.5
aF4.2
aF0.369
aF1.6
aF1.9
aF0.822
aF0.5
aF4.3
aF4.8
aF1.1
aF1.1
aF0.8
aF0.3
aF0.3
aF2.9
aF2.1
aF8.9
aF0.7
aI3
aI0
aI5
aV1899,1610612740
p772
aa(lp773
I101189
aVJames Singleton
p774
aI1610612742
aVDAL
p775
aF27.0
aI62
aI39
aI23
aF0.629
aF14.3
aF1.9
aF3.6
aF0.529
aF0.2
aF0.6
aF0.325
aF1.1
aF1.3
aF0.859
aF1.4
aF2.6
aF4.0
aF0.3
aF0.6
aF0.4
aF0.5
aF0.2
aF1.8
aF1.1
aF5.1
aF0.7
aI7
aI0
aI5
aV101189,1610612742
p776
aa(lp777
I200778
aVJames White
p778
aI1610612745
aVHOU
p779
aF26.0
aI4
aI2
aI2
aF0.5
aF2.8
aF0.8
aF1.3
aF0.6
aF0.3
aF0.5
aF0.5
aF0.0
aF0.0
aF0.0
aF0.0
aF0.0
aF0.0
aF0.3
aF0.8
aF0.3
aF0.3
aF0.0
aF0.5
aF0.3
aF1.8
aF-2.3
aI0
aI0
aI5
aV200778,1610612745
p780
aa(lp781
I201162
aVJared Dudley
p782
aI1610612756
aVPHX
p783
aF23.0
aI68
aI34
aI34
aF0.5
aF17.0
aF2.0
aF4.2
aF0.477
aF0.4
aF1.1
aF0.392
aF1.0
aF1.5
aF0.676
aF1.2
aF1.8
aF3.0
aF0.8
aF0.6
aF0.8
aF0.1
aF0.3
aF1.5
aF1.4
aF5.5
aF0.1
aI1
aI0
aI5
aV201162,1610612756
p784
aa(lp785
I2407
aVJared Jeffries
p786
aI1610612752
aVNYK
p787
aF27.0
aI56
aI22
aI34
aF0.393
aF23.4
aF2.1
aF4.9
aF0.44
aF0.0
aF0.2
aF0.083
aF1.0
aF1.6
aF0.611
aF2.3
aF1.8
aF4.1
aF1.4
aF1.2
aF0.8
aF0.6
aF0.5
aF2.7
aF1.8
aF5.3
aF-1.7
aI1
aI0
aI5
aV2407,1610612752
p788
aa(lp789
I101127
aVJarrett Jack
p790
aI1610612754
aVIND
p791
aF25.0
aI82
aI36
aI46
aF0.439
aF33.1
aF4.7
aF10.4
aF0.453
aF1.0
aF2.7
aF0.353
aF2.7
aF3.2
aF0.852
aF0.5
aF2.8
aF3.4
aF4.1
aF2.2
aF1.1
aF0.2
aF0.6
aF2.2
aF2.6
aF13.1
aF-0.4
aI0
aI0
aI5
aV101127,1610612754
p792
aa(lp793
I2260
aVJarron Collins
p794
aI1610612762
aVUTA
p795
aF30.0
aI26
aI16
aI10
aF0.615
aF7.7
aF0.6
aF1.3
aF0.457
aF0.0
aF0.0
aF0.0
aF0.3
aF0.4
aF0.727
aF0.8
aF0.7
aF1.4
aF0.3
aF0.3
aF0.1
aF0.0
aF0.3
aF1.3
aF0.5
aF1.5
aF-0.9
aI0
aI0
aI5
aV2260,1610612762
p796
aa(lp797
I2553
aVJarvis Hayes
p798
aI1610612751
aVNJN
p799
aF27.0
aI74
aI32
aI42
aF0.432
aF24.8
aF3.5
aF7.8
aF0.445
aF1.3
aF3.3
aF0.385
aF0.5
aF0.7
aF0.692
aF0.4
aF3.2
aF3.6
aF0.7
aF0.7
aF0.7
aF0.1
aF0.2
aF2.2
aF0.8
aF8.7
aF0.0
aI0
aI0
aI5
aV2553,1610612751
p800
aa(lp801
I2215
aVJason Collins
p802
aI1610612750
aVMIN
p803
aF30.0
aI31
aI6
aI25
aF0.194
aF13.6
aF0.7
aF2.3
aF0.314
aF0.0
aF0.0
aF0.0
aF0.4
aF0.9
aF0.464
aF0.9
aF1.4
aF2.3
aF0.4
aF0.4
aF0.3
aF0.4
aF0.3
aF2.4
aF1.3
aF1.8
aF-6.0
aI0
aI0
aI5
aV2215,1610612750
p804
aa(lp805
I2078
aVJason Hart
p806
aI1610612743
aVDEN
p807
aF31.0
aI39
aI16
aI23
aF0.41
aF8.9
aF0.8
aF2.4
aF0.319
aF0.0
aF0.2
aF0.0
aF0.5
aF0.6
aF0.783
aF0.3
aF0.8
aF1.2
aF1.2
aF0.6
aF0.3
aF0.1
aF0.2
aF1.0
aF0.5
aF2.0
aF-3.9
aI0
aI0
aI5
aV2078,1610612743
p808
aa(lp809
I2574
aVJason Kapono
p810
aI1610612761
aVTOR
p811
aF28.0
aI80
aI33
aI47
aF0.413
aF22.9
aF3.3
aF7.6
aF0.432
aF1.2
aF2.9
aF0.428
aF0.4
aF0.5
aF0.81
aF0.3
aF1.7
aF2.0
aF1.3
aF0.9
aF0.3
aF0.0
aF0.2
aF1.8
aF0.5
aF8.2
aF-1.7
aI0
aI0
aI5
aV2574,1610612761
p812
aa(lp813
I467
aVJason Kidd
p814
aI1610612742
aVDAL
p815
aF36.0
aI81
aI50
aI31
aF0.617
aF35.6
aF3.2
aF7.6
aF0.416
aF1.6
aF4.0
aF0.406
aF1.1
aF1.3
aF0.819
aF1.0
aF5.1
aF6.2
aF8.7
aF2.3
aF2.0
aF0.5
aF0.2
aF2.1
aF1.3
aF9.0
aF3.9
aI19
aI3
aI5
aV467,1610612742
p816
aa(lp817
I101131
aVJason Maxiell
p818
aI1610612765
aVDET
p819
aF26.0
aI78
aI39
aI39
aF0.5
aF18.0
aF2.4
aF4.1
aF0.575
aF0.0
aF0.0
aF0.0
aF1.1
aF2.0
aF0.532
aF2.2
aF2.0
aF4.2
aF0.3
aF0.6
aF0.3
aF0.8
aF0.3
aF2.0
aF1.6
aF5.8
aF-1.8
aI2
aI0
aI5
aV101131,1610612765
p820
aa(lp821
I2202
aVJason Richardson
p822
aI1610612756
aVPHX
p823
aF28.0
aI72
aI37
aI35
aF0.514
aF33.5
aF6.5
aF13.5
aF0.477
aF1.8
aF4.5
aF0.397
aF2.1
aF2.8
aF0.769
aF1.1
aF3.4
aF4.4
aF2.0
aF1.3
aF1.1
aF0.4
aF0.5
aF2.0
aF2.3
aF16.8
aF-0.3
aI1
aI0
aI5
aV2202,1610612756
p824
aa(lp825
I1891
aVJason Terry
p826
aI1610612742
aVDAL
p827
aF31.0
aI74
aI45
aI29
aF0.608
aF33.7
aF7.3
aF15.8
aF0.463
aF2.3
aF6.2
aF0.366
aF2.7
aF3.0
aF0.88
aF0.5
aF1.9
aF2.4
aF3.4
aF1.6
aF1.3
aF0.3
aF0.5
aF1.9
aF2.4
aF19.6
aF2.0
aI0
aI0
aI5
aV1891,1610612742
p828
aa(lp829
I201574
aVJason Thompson
p830
aI1610612758
aVSAC
p831
aF22.0
aI82
aI17
aI65
aF0.207
aF28.1
aF4.3
aF8.7
aF0.497
aF0.0
aF0.1
aF0.0
aF2.4
aF3.5
aF0.692
aF2.9
aF4.5
aF7.4
aF1.1
aF1.8
aF0.6
aF0.7
aF0.9
aF3.8
aF2.9
aF11.1
aF-3.5
aI17
aI0
aI5
aV201574,1610612758
p832
aa(lp833
I201159
aVJavaris Crittenton
p834
aI1610612764
aVWAS
p835
aF21.0
aI63
aI14
aI49
aF0.222
aF18.6
aF2.1
aF4.5
aF0.46
aF0.0
aF0.2
aF0.133
aF0.8
aF1.5
aF0.576
aF0.9
aF1.7
aF2.6
aF2.4
aF1.3
aF0.6
aF0.1
aF0.5
aF1.6
aF1.7
aF5.0
aF-3.4
aI1
aI0
aI5
aV201159,1610612764
p836
aa(lp837
I101214
aVJawad Williams
p838
aI1610612739
aVCLE
p839
aF26.0
aI10
aI7
aI3
aF0.7
aF2.0
aF0.5
aF1.2
aF0.417
aF0.2
aF0.6
aF0.333
aF0.0
aF0.0
aF0.0
aF0.1
aF0.1
aF0.2
aF0.0
aF0.1
aF0.1
aF0.0
aF0.2
aF0.2
aF0.0
aF1.2
aF0.3
aI0
aI0
aI5
aV101214,1610612739
p840
aa(lp841
I1902
aVJeff Foster
p842
aI1610612754
aVIND
p843
aF32.0
aI74
aI31
aI43
aF0.419
aF24.7
aF2.4
aF4.8
aF0.501
aF0.0
aF0.1
aF0.286
aF1.3
aF2.0
aF0.658
aF2.9
aF4.0
aF6.9
aF1.8
aF1.2
aF0.7
aF0.7
aF0.3
aF3.1
aF2.3
aF6.1
aF1.3
aI5
aI0
aI5
aV1902,1610612754
p844
aa(lp845
I201145
aVJeff Green
p846
aI1610612760
aVOKC
p847
aF22.0
aI78
aI20
aI58
aF0.256
aF36.8
aF6.1
aF13.7
aF0.446
aF1.2
aF3.2
aF0.389
aF3.1
aF3.9
aF0.788
aF1.5
aF5.1
aF6.7
aF2.0
aF2.2
aF1.0
aF0.4
aF0.8
aF2.6
aF3.1
aF16.5
aF-5.3
aI13
aI0
aI5
aV201145,1610612760
p848
aa(lp849
I200978
aVJeremy Richardson
p850
aI1610612753
aVORL
p851
aF25.0
aI12
aI9
aI3
aF0.75
aF7.7
aF1.2
aF4.1
aF0.286
aF0.5
aF1.4
aF0.353
aF0.3
aF0.5
aF0.5
aF0.1
aF1.1
aF1.2
aF0.3
aF0.3
aF0.0
aF0.0
aF0.2
aF0.5
aF0.3
aF3.1
aF-3.3
aI0
aI0
aI5
aV200978,1610612753
p852
aa(lp853
I979
aVJermaine O'Neal
p854
aI1610612748
aVMIA
p855
aF30.0
aI68
aI28
aI40
aF0.412
aF29.8
aF5.4
aF11.3
aF0.474
aF0.0
aF0.0
aF0.0
aF2.6
aF3.3
aF0.788
aF1.9
aF4.5
aF6.4
aF1.8
aF2.1
aF0.4
aF2.0
aF1.2
aF3.1
aF3.7
aF13.3
aF-1.7
aI8
aI0
aI5
aV979,1610612748
p856
aa(lp857
I201176
aVJermareo Davidson
p858
aI1610612744
aVGSW
p859
aF24.0
aI14
aI4
aI10
aF0.286
aF7.9
aF1.2
aF2.5
aF0.486
aF0.0
aF0.0
aF0.0
aF0.6
aF1.2
aF0.471
aF0.7
aF1.7
aF2.4
aF0.1
aF0.4
aF0.1
aF0.2
aF0.0
aF0.9
aF0.9
aF3.0
aF-1.3
aI1
aI0
aI5
aV201176,1610612744
p860
aa(lp861
I1744
aVJerome James
p862
aI1610612752
aVNYK
p863
aF33.0
aI2
aI1
aI1
aF0.5
aF4.9
aF1.5
aF4.0
aF0.375
aF0.0
aF0.0
aF0.0
aF0.0
aF0.0
aF0.0
aF0.5
aF1.0
aF1.5
aF0.0
aF0.5
aF0.5
aF0.5
aF0.0
aF1.0
aF0.0
aF3.0
aF0.0
aI0
aI0
aI5
aV1744,1610612752
p864
aa(lp865
I711
aVJerry Stackhouse
p866
aI1610612742
aVDAL
p867
aF34.0
aI10
aI3
aI7
aF0.3
aF16.2
aF1.6
aF6.0
aF0.267
aF0.3
aF1.9
aF0.158
aF0.7
aF0.7
aF1.0
aF0.5
aF1.2
aF1.7
aF1.2
aF0.9
aF0.4
aF0.1
aF0.3
aF0.6
aF0.9
aF4.2
aF-7.6
aI0
aI0
aI5
aV711,1610612742
p868
aa(lp869
I201573
aVJerryd Bayless
p870
aI1610612757
aVPOR
p871
aF20.0
aI53
aI34
aI19
aF0.642
aF12.4
aF1.3
aF3.6
aF0.365
aF0.1
aF0.5
aF0.259
aF1.6
aF1.9
aF0.806
aF0.2
aF0.9
aF1.1
aF1.5
aF1.1
aF0.3
aF0.0
aF0.5
aF1.5
aF1.5
aF4.3
aF-0.5
aI0
aI0
aI5
aV201573,1610612757
p872
aa(lp873
I201149
aVJoakim Noah
p874
aI1610612741
aVCHI
p875
aF24.0
aI80
aI39
aI41
aF0.488
aF24.2
aF2.6
aF4.7
aF0.556
aF0.0
aF0.0
aF0.0
aF1.5
aF2.3
aF0.676
aF3.1
aF4.5
aF7.6
aF1.3
aF1.0
aF0.6
aF1.4
aF0.6
aF3.0
aF2.2
aF6.7
aF0.8
aI10
aI0
aI5
aV201149,1610612741
p876
aa(lp877
I201570
aVJoe Alexander
p878
aI1610612749
aVMIL
p879
aF22.0
aI59
aI23
aI36
aF0.39
aF12.1
aF1.7
aF4.2
aF0.416
aF0.3
aF0.8
aF0.348
aF1.0
aF1.4
aF0.699
aF0.7
aF1.2
aF1.9
aF0.7
aF0.9
aF0.3
aF0.5
aF0.3
aF1.8
aF1.1
aF4.7
aF-0.5
aI0
aI0
aI5
aV201570,1610612749
p880
aa(lp881
I201621
aVJoe Crawford
p882
aI1610612752
aVNYK
p883
aF23.0
aI2
aI1
aI1
aF0.5
aF11.4
aF1.5
aF5.0
aF0.3
aF0.5
aF2.0
aF0.25
aF1.0
aF1.0
aF1.0
aF0.5
aF1.5
aF2.0
aF0.5
aF0.0
aF0.5
aF0.0
aF0.5
aF1.0
aF0.5
aF4.5
aF3.5
aI0
aI0
aI5
aV201621,1610612752
p884
aa(lp885
I2207
aVJoe Johnson
p886
aI1610612737
aVATL
p887
aF28.0
aI79
aI45
aI34
aF0.57
aF39.5
aF7.8
aF18.0
aF0.437
aF1.9
aF5.2
aF0.36
aF3.8
aF4.6
aF0.826
aF0.8
aF3.6
aF4.4
aF5.8
aF2.5
aF1.1
aF0.2
aF0.7
aF2.2
aF3.7
aF21.4
aF2.3
aI4
aI1
aI5
aV2207,1610612737
p888
aa(lp889
I693
aVJoe Smith
p890
aI1610612739
aVCLE
p891
aF33.0
aI57
aI25
aI32
aF0.439
aF19.3
aF2.7
aF5.8
aF0.468
aF0.1
aF0.1
aF0.429
aF1.0
aF1.4
aF0.72
aF1.6
aF3.1
aF4.6
aF0.7
aF0.4
aF0.3
aF0.7
aF0.4
aF2.1
aF1.5
aF6.6
aF-0.6
aI1
aI0
aI5
aV693,1610612739
p892
aa(lp893
I201202
aVJoel Anthony
p894
aI1610612748
aVMIA
p895
aF26.0
aI65
aI36
aI29
aF0.554
aF16.1
aF0.9
aF1.8
aF0.483
aF0.0
aF0.0
aF0.0
aF0.5
aF0.7
aF0.652
aF1.4
aF1.7
aF3.0
aF0.4
aF0.6
aF0.3
aF1.4
aF0.3
aF2.1
aF0.8
aF2.2
aF-1.3
aI1
aI0
aI5
aV201202,1610612748
p896
aa(lp897
I2038
aVJoel Przybilla
p898
aI1610612757
aVPOR
p899
aF29.0
aI82
aI54
aI28
aF0.659
aF23.8
aF2.0
aF3.3
aF0.625
aF0.0
aF0.0
aF0.0
aF1.4
aF2.1
aF0.663
aF2.5
aF6.3
aF8.7
aF0.3
aF1.0
aF0.4
aF1.2
aF0.3
aF2.6
aF2.0
aF5.5
aF3.6
aI11
aI0
aI5
aV2038,1610612757
p900
aa(lp901
I201595
aVJoey Dorsey
p902
aI1610612745
aVHOU
p903
aF25.0
aI3
aI2
aI1
aF0.667
aF2.1
aF0.3
aF0.7
aF0.5
aF0.0
aF0.0
aF0.0
aF0.0
aF0.0
aF0.0
aF0.0
aF0.3
aF0.3
aF0.3
aF0.0
aF0.0
aF0.0
aF0.3
aF0.0
aF0.0
aF0.7
aF-0.7
aI0
aI0
aI5
aV201595,1610612745
p904
aa(lp905
I101121
aVJoey Graham
p906
aI1610612761
aVTOR
p907
aF27.0
aI78
aI31
aI47
aF0.397
aF19.8
aF3.0
aF6.2
aF0.481
aF0.0
aF0.2
aF0.188
aF1.7
aF2.1
aF0.825
aF1.2
aF2.5
aF3.7
aF0.6
aF0.9
aF0.4
aF0.2
aF0.5
aF2.4
aF1.6
aF7.7
aF-1.6
aI1
aI0
aI5
aV101121,1610612761
p908
aa(lp909
I101130
aVJohan Petro
p910
aI1610612743
aVDEN
p911
aF23.0
aI49
aI20
aI29
aF0.408
aF11.4
aF1.5
aF3.6
aF0.415
aF0.0
aF0.0
aF0.0
aF0.3
aF0.6
aF0.552
aF0.9
aF2.4
aF3.2
aF0.3
aF0.6
aF0.4
aF0.3
aF0.1
aF2.2
aF0.5
aF3.3
aF-3.7
aI0
aI0
aI5
aV101130,1610612743
p912
aa(lp913
I2422
aVJohn Salmons
p914
aI1610612741
aVCHI
p915
aF29.0
aI79
aI27
aI52
aF0.342
aF37.5
aF6.5
aF13.8
aF0.472
aF1.6
aF3.8
aF0.417
aF3.6
aF4.4
aF0.83
aF0.7
aF3.5
aF4.2
aF3.2
aF2.1
aF1.1
aF0.3
aF1.0
aF2.3
aF3.1
aF18.3
aF-5.7
aI3
aI0
aI5
aV2422,1610612741
p916
aa(lp917
I200770
aVJordan Farmar
p918
aI1610612747
aVLAL
p919
aF22.0
aI65
aI52
aI13
aF0.8
aF18.3
aF2.5
aF6.3
aF0.391
aF0.8
aF2.2
aF0.336
aF0.7
aF1.2
aF0.584
aF0.3
aF1.5
aF1.8
aF2.4
aF1.3
aF0.9
aF0.2
aF0.4
aF1.6
aF1.2
aF6.4
aF0.3
aI0
aI0
aI5
aV200770,1610612747
p920
aa(lp921
I101181
aVJose Calderon
p922
aI1610612761
aVTOR
p923
aF27.0
aI68
aI28
aI40
aF0.412
aF34.3
aF4.7
aF9.5
aF0.497
aF1.2
aF3.0
aF0.406
aF2.2
aF2.3
aF0.981
aF0.2
aF2.6
aF2.9
aF8.9
aF2.1
aF1.1
aF0.1
aF0.3
aF1.7
aF2.1
aF12.8
aF-1.5
aI22
aI0
aI5
aV101181,1610612761
p924
aa(lp925
I200826
aVJose Juan Barea
p926
aI1610612742
aVDAL
p927
aF25.0
aI79
aI50
aI29
aF0.633
aF20.3
aF3.1
aF7.1
aF0.442
aF0.7
aF1.9
aF0.357
aF0.9
aF1.2
aF0.753
aF0.5
aF1.8
aF2.2
aF3.4
aF1.3
aF0.5
aF0.1
aF0.5
aF1.5
aF1.7
aF7.8
aF0.2
aI0
aI0
aI5
aV200826,1610612742
p928
aa(lp929
I200767
aVJosh Boone
p930
aI1610612751
aVNJN
p931
aF24.0
aI62
aI21
aI41
aF0.339
aF16.0
aF1.8
aF3.5
aF0.528
aF0.0
aF0.0
aF0.0
aF0.5
aF1.4
aF0.376
aF1.7
aF2.5
aF4.2
aF0.5
aF0.5
aF0.4
aF0.8
aF0.3
aF1.7
aF1.1
aF4.2
aF-0.7
aI2
aI0
aI5
aV200767,1610612751
p932
aa(lp933
I2572
aVJosh Howard
p934
aI1610612742
aVDAL
p935
aF29.0
aI52
aI33
aI19
aF0.635
aF32.0
aF6.8
aF15.1
aF0.451
aF1.1
aF3.2
aF0.345
aF3.3
aF4.2
aF0.782
aF1.1
aF3.9
aF5.1
aF1.6
aF1.7
aF1.1
aF0.6
aF0.5
aF2.6
aF3.3
aF18.0
aF4.0
aI6
aI0
aI5
aV2572,1610612742
p936
aa(lp937
I201177
aVJosh McRoberts
p938
aI1610612754
aVIND
p939
aF22.0
aI33
aI17
aI16
aF0.515
aF8.5
aF1.1
aF2.5
aF0.422
aF0.0
aF0.3
aF0.0
aF0.3
aF0.4
aF0.769
aF0.8
aF1.5
aF2.2
aF0.5
aF0.4
aF0.4
aF0.5
aF0.3
aF1.2
aF0.3
aF2.4
aF-0.7
aI1
aI0
aI5
aV201177,1610612754
p940
aa(lp941
I2694
aVJosh Powell
p942
aI1610612747
aVLAL
p943
aF26.0
aI60
aI49
aI11
aF0.817
aF11.7
aF1.8
aF4.0
aF0.444
aF0.0
aF0.0
aF0.0
aF0.6
aF0.8
aF0.76
aF1.2
aF1.8
aF2.9
aF0.5
aF0.9
aF0.2
aF0.3
aF0.4
aF1.6
aF0.8
aF4.2
aF-2.8
aI0
aI0
aI5
aV2694,1610612747
p944
aa(lp945
I2746
aVJosh Smith
p946
aI1610612737
aVATL
p947
aF23.0
aI69
aI41
aI28
aF0.594
aF35.1
aF6.1
aF12.3
aF0.492
aF0.4
aF1.3
aF0.299
aF3.1
aF5.2
aF0.588
aF1.9
aF5.3
aF7.2
aF2.4
aF2.3
aF1.4
aF1.6
aF0.7
aF2.7
aF4.3
aF15.6
aF2.2
aI20
aI0
aI5
aV2746,1610612737
p948
aa(lp949
I2413
aVJuan Dixon
p950
aI1610612764
aVWAS
p951
aF30.0
aI50
aI10
aI40
aF0.2
aF16.3
aF2.0
aF5.1
aF0.395
aF0.5
aF1.5
aF0.333
aF0.7
aF0.8
aF0.872
aF0.2
aF1.2
aF1.3
aF2.4
aF1.4
aF0.7
aF0.1
aF0.2
aF1.5
aF0.6
aF5.2
aF-2.8
aI0
aI0
aI5
aV2413,1610612764
p952
aa(lp953
I201153
aVJulian Wright
p954
aI1610612740
aVNOH
p955
aF22.0
aI54
aI30
aI24
aF0.556
aF14.3
aF2.0
aF4.3
aF0.466
aF0.0
aF0.4
aF0.095
aF0.3
aF0.6
aF0.567
aF0.9
aF2.0
aF2.8
aF0.8
aF0.8
aF0.6
aF0.4
aF0.1
aF0.9
aF0.7
aF4.4
aF0.1
aI1
aI0
aI5
aV201153,1610612740
p956
aa(lp957
I436
aVJuwan Howard
p958
aI1610612766
aVCHA
p959
aF36.0
aI42
aI19
aI23
aF0.452
aF11.2
aF1.8
aF3.5
aF0.51
aF0.0
aF0.0
aF0.0
aF0.5
aF0.8
aF0.676
aF0.7
aF1.1
aF1.8
aF0.6
aF0.6
aF0.2
aF0.1
aF0.3
aF1.7
aF0.9
aF4.1
aF-2.2
aI0
aI0
aI5
aV436,1610612766
p960
aa(lp961
I2416
aVKareem Rush
p962
aI1610612755
aVPHI
p963
aF28.0
aI25
aI11
aI14
aF0.44
aF8.0
aF0.8
aF2.3
aF0.345
aF0.4
aF1.3
aF0.303
aF0.2
aF0.2
aF1.0
aF0.0
aF0.6
aF0.6
aF0.6
aF0.4
aF0.2
aF0.0
aF0.0
aF0.4
aF0.1
aF2.2
aF-0.6
aI0
aI0
aI5
aV2416,1610612755
p964
aa(lp965
I2586
aVKeith Bogans
p966
aI1610612749
aVMIL
p967
aF29.0
aI65
aI37
aI28
aF0.569
aF19.6
aF1.8
aF5.0
aF0.367
aF1.1
aF3.4
aF0.339
aF0.8
aF0.9
aF0.912
aF0.5
aF2.6
aF3.1
aF1.0
aF0.6
aF0.7
aF0.1
aF0.2
aF1.6
aF0.9
aF5.6
aF1.3
aI0
aI0
aI5
aV2586,1610612749
p968
aa(lp969
I101235
aVKelenna Azubuike
p970
aI1610612744
aVGSW
p971
aF25.0
aI74
aI29
aI45
aF0.392
aF32.1
aF5.3
aF11.4
aF0.464
aF1.3
aF2.8
aF0.448
aF2.5
aF3.1
aF0.808
aF1.5
aF3.5
aF5.0
aF1.6
aF1.3
aF0.8
aF0.7
aF0.8
aF2.5
aF2.5
aF14.4
aF-1.7
aI5
aI0
aI5
aV101235,1610612744
p972
aa(lp973
I2570
aVKendrick Perkins
p974
aI1610612738
aVBOS
p975
aF24.0
aI76
aI57
aI19
aF0.75
aF29.6
aF3.6
aF6.3
aF0.577
aF0.0
aF0.0
aF0.0
aF1.3
aF2.1
aF0.6
aF2.7
aF5.5
aF8.1
aF1.3
aF2.2
aF0.3
aF2.0
aF0.6
aF3.3
aF2.0
aF8.5
aF4.5
aI12
aI0
aI5
aV2570,1610612738
p976
aa(lp977
I1903
aVKenny Thomas
p978
aI1610612758
aVSAC
p979
aF31.0
aI8
aI1
aI7
aF0.125
aF7.7
aF0.4
aF1.0
aF0.375
aF0.0
aF0.0
aF0.0
aF0.0
aF0.0
aF0.0
aF0.5
aF1.4
aF1.9
aF0.1
aF0.1
aF0.8
aF0.1
aF0.0
aF1.1
aF0.5
aF0.8
aF-0.8
aI0
aI0
aI5
aV1903,1610612758
p980
aa(lp981
I2030
aVKenyon Martin
p982
aI1610612743
aVDEN
p983
aF31.0
aI66
aI42
aI24
aF0.636
aF32.0
aF4.8
aF9.8
aF0.491
aF0.2
aF0.6
aF0.368
aF1.8
aF3.0
aF0.604
aF1.2
aF4.8
aF6.0
aF2.0
aF1.6
aF1.5
aF1.1
aF0.8
aF3.0
aF1.8
aF11.7
aF2.9
aI5
aI0
aI5
aV2030,1610612743
p984
aa(lp985
I201142
aVKevin Durant
p986
aI1610612760
aVOKC
p987
aF20.0
aI74
aI18
aI56
aF0.243
aF39.0
aF8.9
aF18.8
aF0.476
aF1.3
aF3.1
aF0.422
aF6.1
aF7.1
aF0.863
aF1.0
aF5.5
aF6.5
aF2.8
aF3.0
aF1.3
aF0.7
aF1.0
aF1.8
aF4.7
aF25.3
aF-6.8
aI15
aI0
aI5
aV201142,1610612760
p988
aa(lp989
I708
aVKevin Garnett
p990
aI1610612738
aVBOS
p991
aF33.0
aI57
aI44
aI13
aF0.772
aF31.1
aF6.9
aF13.0
aF0.531
aF0.0
aF0.1
aF0.25
aF1.9
aF2.3
aF0.841
aF1.4
aF7.1
aF8.5
aF2.5
aF1.6
aF1.1
aF1.2
aF0.2
aF2.2
aF2.4
aF15.8
aF8.4
aI22
aI0
aI5
aV708,1610612738
p992
aa(lp993
I201567
aVKevin Love
p994
aI1610612750
aVMIN
p995
aF20.0
aI81
aI24
aI57
aF0.296
aF25.3
aF3.9
aF8.5
aF0.459
aF0.0
aF0.2
aF0.105
aF3.3
aF4.1
aF0.789
aF3.4
aF5.7
aF9.1
aF1.0
aF1.5
aF0.4
aF0.6
aF1.0
aF2.5
aF3.3
aF11.1
aF-3.3
aI29
aI0
aI5
aV201567,1610612750
p996
aa(lp997
I2755
aVKevin Martin
p998
aI1610612758
aVSAC
p999
aF26.0
aI51
aI12
aI39
aF0.235
aF38.2
aF6.7
aF15.9
aF0.42
aF2.3
aF5.4
aF0.415
aF9.0
aF10.3
aF0.867
aF0.6
aF3.0
aF3.6
aF2.7
aF2.9
aF1.2
aF0.2
aF0.7
aF2.3
aF6.6
aF24.6
aF-5.9
aI1
aI0
aI5
aV2755,1610612758
p1000
aa(lp1001
I1563
aVKevin Ollie
p1002
aI1610612750
aVMIN
p1003
aF36.0
aI50
aI10
aI40
aF0.2
aF17.0
aF1.2
aF3.0
aF0.407
aF0.0
aF0.0
aF0.0
aF1.6
aF1.9
aF0.833
aF0.3
aF1.2
aF1.5
aF2.3
aF0.7
aF0.4
aF0.1
aF0.1
aF1.6
aF1.7
aF4.0
aF-2.5
aI0
aI0
aI5
aV1563,1610612750
p1004
aa(lp1005
I2039
aVKeyon Dooling
p1006
aI1610612751
aVNJN
p1007
aF29.0
aI77
aI32
aI45
aF0.416
aF26.9
aF3.4
aF7.8
aF0.436
aF1.3
aF3.1
aF0.421
aF1.6
aF2.0
aF0.825
aF0.3
aF1.7
aF2.0
aF3.5
aF1.4
aF0.9
aF0.1
aF0.3
aF1.8
aF2.0
aF9.7
aF-3.0
aI2
aI0
aI5
aV2039,1610612751
p1008
aa(lp1009
I2550
aVKirk Hinrich
p1010
aI1610612741
aVCHI
p1011
aF28.0
aI51
aI28
aI23
aF0.549
aF26.2
aF3.6
aF8.2
aF0.437
aF1.4
aF3.3
aF0.408
aF1.3
aF1.7
aF0.791
aF0.3
aF2.1
aF2.4
aF3.9
aF1.7
aF1.3
aF0.4
aF0.3
aF2.5
aF1.6
aF9.9
aF4.0
aI0
aI0
aI5
aV2550,1610612741
p1012
aa(lp1013
I977
aVKobe Bryant
p1014
aI1610612747
aVLAL
p1015
aF30.0
aI82
aI65
aI17
aF0.793
aF36.1
aF9.8
aF20.9
aF0.467
aF1.4
aF4.1
aF0.351
aF5.9
aF6.9
aF0.856
aF1.1
aF4.1
aF5.2
aF4.9
aF2.6
aF1.5
aF0.5
aF0.8
aF2.3
aF5.7
aF26.8
aF8.0
aI8
aI2
aI5
aV977,1610612747
p1016
aa(lp1017
I201585
aVKosta Koufos
p1018
aI1610612762
aVUTA
p1019
aF20.0
aI48
aI27
aI21
aF0.563
aF11.8
aF2.0
aF3.9
aF0.508
aF0.0
aF0.0
aF0.0
aF0.8
aF1.1
aF0.706
aF1.0
aF1.8
aF2.9
aF0.4
aF0.5
aF0.3
aF0.6
aF0.2
aF1.5
aF0.8
aF4.7
aF-0.3
aI0
aI0
aI5
aV201585,1610612762
p1020
aa(lp1021
I2743
aVKris Humphries
p1022
aI1610612761
aVTOR
p1023
aF24.0
aI29
aI11
aI18
aF0.379
aF9.1
aF1.3
aF3.1
aF0.422
aF0.0
aF0.0
aF0.0
aF1.3
aF1.7
aF0.792
aF0.8
aF1.6
aF2.4
aF0.3
aF0.3
aF0.3
aF0.2
aF0.3
aF1.1
aF1.2
aF3.9
aF0.0
aI0
aI0
aI5
aV2743,1610612761
p1024
aa(lp1025
I703
aVKurt Thomas
p1026
aI1610612759
aVSAS
p1027
aF36.0
aI79
aI52
aI27
aF0.658
aF17.8
aF1.9
aF3.8
aF0.503
aF0.0
aF0.0
aF0.0
aF0.5
aF0.6
aF0.822
aF1.7
aF3.4
aF5.1
aF0.8
aF0.5
aF0.4
aF0.7
aF0.2
aF2.2
aF0.9
aF4.3
aF1.4
aI2
aI0
aI5
aV703,1610612759
p1028
aa(lp1029
I2198
aVKwame Brown
p1030
aI1610612765
aVDET
p1031
aF27.0
aI58
aI29
aI29
aF0.5
aF17.2
aF1.6
aF2.9
aF0.533
aF0.0
aF0.0
aF0.0
aF1.1
aF2.1
aF0.516
aF1.6
aF3.4
aF5.0
aF0.6
aF0.9
aF0.4
aF0.4
aF0.3
aF2.4
aF1.9
aF4.2
aF-0.2
aI2
aI0
aI5
aV2198,1610612765
p1032
aa(lp1033
I2594
aVKyle Korver
p1034
aI1610612762
aVUTA
p1035
aF28.0
aI78
aI46
aI32
aF0.59
aF24.0
aF3.1
aF7.2
aF0.438
aF1.3
aF3.4
aF0.386
aF1.4
aF1.6
aF0.882
aF0.4
aF2.9
aF3.3
aF1.8
aF1.2
aF0.6
aF0.4
aF0.2
aF2.2
aF1.7
aF9.0
aF2.0
aI0
aI0
aI5
aV2594,1610612762
p1036
aa(lp1037
I200768
aVKyle Lowry
p1038
aI1610612745
aVHOU
p1039
aF23.0
aI77
aI32
aI45
aF0.416
aF21.8
aF2.5
aF5.6
aF0.435
aF0.3
aF1.3
aF0.255
aF2.4
aF2.9
aF0.801
aF0.3
aF2.1
aF2.5
aF3.6
aF1.5
aF0.9
aF0.2
aF0.6
aF1.9
aF3.0
aF7.6
aF-2.3
aI1
aI0
aI5
aV200768,1610612745
p1040
aa(lp1041
I201602
aVKyle Weaver
p1042
aI1610612760
aVOKC
p1043
aF23.0
aI56
aI17
aI39
aF0.304
aF20.8
aF2.0
aF4.4
aF0.459
aF0.6
aF1.7
aF0.344
aF0.7
aF1.0
aF0.707
aF0.6
aF1.8
aF2.3
aF1.8
aF1.2
aF0.8
aF0.4
aF0.2
aF1.4
aF0.9
aF5.3
aF-0.8
aI0
aI0
aI5
aV201602,1610612760
p1044
aa(lp1045
I201178
aVKyrylo Fesenko
p1046
aI1610612762
aVUTA
p1047
aF22.0
aI21
aI11
aI10
aF0.524
aF7.4
aF1.0
aF1.7
aF0.583
aF0.0
aF0.0
aF0.0
aF0.3
aF1.0
aF0.333
aF0.7
aF1.1
aF1.8
aF0.2
aF0.4
aF0.3
aF0.7
aF0.2
aF1.7
aF0.7
aF2.3
aF0.2
aI1
aI0
aI5
aV201178,1610612762
p1048
aa(lp1049
I200746
aVLaMarcus Aldridge
p1050
aI1610612757
aVPOR
p1051
aF23.0
aI81
aI54
aI27
aF0.667
aF37.1
aF7.4
aF15.3
aF0.484
aF0.1
aF0.3
aF0.25
aF3.2
aF4.1
aF0.781
aF2.9
aF4.6
aF7.5
aF1.9
aF1.5
aF1.0
aF1.0
aF0.6
aF2.6
aF3.3
aF18.1
aF6.0
aI19
aI0
aI5
aV200746,1610612757
p1052
aa(lp1053
I1885
aVLamar Odom
p1054
aI1610612747
aVLAL
p1055
aF29.0
aI78
aI61
aI17
aF0.782
aF29.7
aF4.4
aF9.0
aF0.492
aF0.4
aF1.3
aF0.32
aF2.1
aF3.3
aF0.623
aF2.3
aF5.9
aF8.2
aF2.6
aF1.8
aF1.0
aF1.3
aF0.8
aF3.0
aF2.7
aF11.3
aF8.9
aI18
aI0
aI5
aV1885,1610612747
p1056
aa(lp1057
I1716
aVLarry Hughes
p1058
aI1610612752
aVNYK
p1059
aF30.0
aI55
aI22
aI33
aF0.4
aF26.9
aF4.1
aF10.1
aF0.402
aF1.4
aF3.5
aF0.389
aF2.1
aF2.6
aF0.807
aF0.3
aF2.6
aF2.9
aF2.2
aF1.3
aF1.3
aF0.3
aF0.6
aF1.7
aF2.1
aF11.6
aF-3.0
aI0
aI0
aI5
aV1716,1610612752
p1060
aa(lp1061
I2544
aVLeBron James
p1062
aI1610612739
aVCLE
p1063
aF24.0
aI81
aI66
aI15
aF0.815
aF37.7
aF9.7
aF19.9
aF0.489
aF1.6
aF4.7
aF0.344
aF7.3
aF9.4
aF0.78
aF1.3
aF6.3
aF7.6
aF7.2
aF3.0
aF1.7
aF1.1
aF0.7
aF1.7
aF7.2
aF28.4
aF10.7
aI29
aI7
aI5
aV2544,1610612739
p1064
aa(lp1065
I2571
aVLeandro Barbosa
p1066
aI1610612756
aVPHX
p1067
aF26.0
aI70
aI39
aI31
aF0.557
aF24.4
aF5.2
aF10.8
aF0.482
aF1.3
aF3.4
aF0.375
aF2.4
aF2.8
aF0.881
aF0.5
aF2.1
aF2.6
aF2.3
aF1.3
aF1.2
aF0.1
aF0.7
aF1.6
aF2.0
aF14.2
aF0.2
aI0
aI0
aI5
aV2571,1610612756
p1068
aa(lp1069
I200796
aVLeon Powe
p1070
aI1610612738
aVBOS
p1071
aF25.0
aI70
aI52
aI18
aF0.743
aF17.5
aF2.5
aF4.8
aF0.524
aF0.0
aF0.0
aF0.0
aF2.6
aF3.8
aF0.689
aF2.1
aF2.9
aF4.9
aF0.7
aF1.1
aF0.3
aF0.5
aF0.6
aF2.7
aF3.4
aF7.7
aF2.7
aI5
aI0
aI5
aV200796,1610612738
p1072
aa(lp1073
I101132
aVLinas Kleiza
p1074
aI1610612743
aVDEN
p1075
aF24.0
aI82
aI54
aI28
aF0.659
aF22.2
aF3.5
aF7.9
aF0.447
aF1.1
aF3.3
aF0.326
aF1.8
aF2.5
aF0.725
aF1.1
aF2.9
aF4.0
aF0.8
aF1.0
aF0.4
aF0.2
aF0.5
aF1.9
aF1.7
aF9.9
aF0.2
aI0
aI0
aI5
aV101132,1610612743
p1076
aa(lp1077
I283
aVLindsey Hunter
p1078
aI1610612741
aVCHI
p1079
aF38.0
aI28
aI14
aI14
aF0.5
aF9.5
aF1.0
aF2.9
aF0.329
aF0.6
aF1.7
aF0.333
aF0.1
aF0.2
aF0.6
aF0.1
aF0.4
aF0.4
aF1.3
aF0.7
aF0.7
aF0.0
aF0.1
aF1.0
aF0.4
aF2.6
aF-1.8
aI0
aI0
aI5
aV283,1610612741
p1080
aa(lp1081
I2669
aVLinton Johnson
p1082
aI1610612741
aVCHI
p1083
aF29.0
aI10
aI5
aI5
aF0.5
aF5.5
aF0.4
aF1.1
aF0.364
aF0.1
aF0.2
aF0.5
aF0.0
aF0.0
aF0.0
aF0.3
aF0.5
aF0.8
aF0.2
aF0.2
aF0.1
aF0.0
aF0.0
aF0.7
aF0.0
aF0.9
aF-1.9
aI0
aI0
aI5
aV2669,1610612741
p1084
aa(lp1085
I953
aVLorenzen Wright
p1086
aI1610612739
aVCLE
p1087
aF33.0
aI17
aI13
aI4
aF0.765
aF7.3
aF0.6
aF1.6
aF0.37
aF0.0
aF0.0
aF0.0
aF0.2
aF0.5
aF0.375
aF0.4
aF1.1
aF1.5
aF0.2
aF0.5
aF0.2
aF0.3
aF0.3
aF1.0
aF0.3
aF1.4
aF0.2
aI0
aI0
aI5
aV953,1610612739
p1088
aa(lp1089
I200811
aVLou Amundson
p1090
aI1610612756
aVPHX
p1091
aF26.0
aI76
aI41
aI35
aF0.539
aF13.7
aF1.8
aF3.3
aF0.536
aF0.0
aF0.0
aF0.0
aF0.7
aF1.6
aF0.442
aF1.7
aF1.9
aF3.6
aF0.4
aF0.7
aF0.4
aF0.9
aF0.3
aF2.0
aF1.4
aF4.2
aF0.2
aI1
aI0
aI5
aV200811,1610612756
p1092
aa(lp1093
I101150
aVLou Williams
p1094
aI1610612755
aVPHI
p1095
aF22.0
aI81
aI41
aI40
aF0.506
aF23.7
aF4.1
aF10.4
aF0.398
aF0.8
aF2.7
aF0.286
aF3.8
aF4.8
aF0.79
aF0.4
aF1.6
aF2.0
aF3.0
aF1.9
aF1.0
aF0.2
aF0.9
aF1.6
aF3.7
aF12.8
aF-0.8
aI0
aI0
aI5
aV101150,1610612755
p1096
aa(lp1097
I201601
aVLuc Mbah a Moute
p1098
aI1610612749
aVMIL
p1099
aF22.0
aI82
aI34
aI48
aF0.415
aF25.8
aF2.8
aF6.0
aF0.462
aF0.0
aF0.0
aF0.0
aF1.7
aF2.3
aF0.729
aF2.3
aF3.6
aF5.9
aF1.1
aF1.2
aF1.1
aF0.5
aF0.6
aF2.5
aF2.0
aF7.2
aF-0.4
aI4
aI0
aI5
aV201601,1610612749
p1100
aa(lp1101
I2449
aVLuis Scola
p1102
aI1610612745
aVHOU
p1103
aF29.0
aI82
aI53
aI29
aF0.646
aF30.3
aF5.2
aF9.7
aF0.531
aF0.0
aF0.0
aF0.0
aF2.4
aF3.1
aF0.76
aF2.4
aF6.3
aF8.8
aF1.5
aF1.5
aF0.8
aF0.1
aF0.7
aF3.2
aF3.0
aF12.7
aF2.6
aI28
aI0
aI5
aV2449,1610612745
p1104
aa(lp1105
I2557
aVLuke Ridnour
p1106
aI1610612749
aVMIL
p1107
aF28.0
aI72
aI29
aI43
aF0.403
aF28.2
aF3.5
aF8.6
aF0.403
aF0.8
aF2.2
aF0.35
aF1.8
aF2.1
aF0.869
aF0.5
aF2.6
aF3.0
aF5.1
aF1.8
aF1.3
aF0.2
aF0.2
aF2.8
aF2.0
aF9.6
aF-1.1
aI6
aI0
aI5
aV2557,1610612749
p1108
aa(lp1109
I2575
aVLuke Walton
p1110
aI1610612747
aVLAL
p1111
aF29.0
aI65
aI54
aI11
aF0.831
aF17.9
aF2.1
aF4.7
aF0.436
aF0.3
aF0.9
aF0.298
aF0.6
aF0.9
aF0.719
aF0.8
aF1.9
aF2.8
aF2.7
aF1.1
aF0.5
aF0.2
aF0.3
aF1.6
aF1.0
aF5.0
aF3.4
aI0
aI0
aI5
aV2575,1610612747
p1112
aa(lp1113
I2736
aVLuol Deng
p1114
aI1610612741
aVCHI
p1115
aF24.0
aI49
aI23
aI26
aF0.469
aF34.0
aF5.4
aF12.1
aF0.448
aF0.2
aF0.4
aF0.4
aF3.1
aF3.9
aF0.796
aF1.6
aF4.4
aF6.0
aF1.9
aF1.5
aF1.2
aF0.5
aF0.6
aF1.7
aF3.0
aF14.1
aF-0.7
aI7
aI0
aI5
aV2736,1610612741
p1116
aa(lp1117
I101129
aVLuther Head
p1118
aI1610612748
aVMIA
p1119
aF26.0
aI32
aI17
aI15
aF0.531
aF15.5
aF1.7
aF4.5
aF0.382
aF0.6
aF1.7
aF0.37
aF0.6
aF0.8
aF0.792
aF0.2
aF1.4
aF1.6
aF1.8
aF0.8
aF0.5
aF0.1
aF0.2
aF1.2
aF0.7
aF4.7
aF-2.0
aI0
aI0
aI5
aV101129,1610612748
p1120
aa(lp1121
I1766
aVMaceo Baston
p1122
aI1610612754
aVIND
p1123
aF33.0
aI27
aI13
aI14
aF0.481
aF8.0
aF0.9
aF1.7
aF0.543
aF0.0
aF0.0
aF0.0
aF0.6
aF1.0
aF0.63
aF0.8
aF1.1
aF1.9
aF0.3
aF0.4
aF0.2
aF0.4
aF0.2
aF1.4
aF1.1
aF2.5
aF-0.9
aI0
aI0
aI5
aV1766,1610612754
p1124
aa(lp1125
I2124
aVMalik Allen
p1126
aI1610612749
aVMIL
p1127
aF31.0
aI49
aI18
aI31
aF0.367
aF11.8
aF1.5
aF3.5
aF0.429
aF0.0
aF0.0
aF0.0
aF0.2
aF0.4
aF0.476
aF0.7
aF1.4
aF2.1
aF0.7
aF0.4
aF0.1
aF0.2
aF0.2
aF1.8
aF0.6
aF3.2
aF-0.2
aI0
aI0
aI5
aV2124,1610612749
p1128
aa(lp1129
I201612
aVMalik Hairston
p1130
aI1610612759
aVSAS
p1131
aF22.0
aI15
aI10
aI5
aF0.667
aF10.3
aF1.6
aF3.3
aF0.49
aF0.0
aF0.1
aF0.0
aF0.1
aF0.5
aF0.286
aF0.7
aF1.1
aF1.9
aF0.9
aF0.8
aF0.4
aF0.5
aF0.1
aF1.3
aF0.9
aF3.3
aF0.1
aI0
aI0
aI5
aV201612,1610612759
p1132
aa(lp1133
I990
aVMalik Rose
p1134
aI1610612760
aVOKC
p1135
aF34.0
aI38
aI15
aI23
aF0.395
aF12.4
aF1.2
aF3.4
aF0.344
aF0.0
aF0.2
aF0.0
aF1.1
aF1.3
aF0.784
aF0.4
aF2.1
aF2.5
aF0.9
aF0.9
aF0.3
aF0.1
aF0.3
aF1.9
aF1.1
aF3.4
aF-0.3
aI0
aI0
aI5
aV990,1610612760
p1136
aa(lp1137
I1938
aVManu Ginobili
p1138
aI1610612759
aVSAS
p1139
aF31.0
aI44
aI32
aI12
aF0.727
aF26.8
aF5.1
aF11.2
aF0.454
aF1.6
aF4.8
aF0.33
aF3.8
aF4.3
aF0.884
aF0.5
aF4.0
aF4.5
aF3.6
aF2.0
aF1.5
aF0.4
aF0.5
aF2.0
aF4.0
aF15.5
aF2.0
aI0
aI0
aI5
aV1938,1610612759
p1140
aa(lp1141
I201188
aVMarc Gasol
p1142
aI1610612763
aVMEM
p1143
aF24.0
aI82
aI24
aI58
aF0.293
aF30.7
aF4.3
aF8.1
aF0.53
aF0.0
aF0.0
aF0.0
aF3.4
aF4.6
aF0.733
aF2.5
aF4.9
aF7.4
aF1.7
aF2.0
aF0.8
aF1.1
aF0.6
aF3.2
aF4.8
aF11.9
aF-4.1
aI17
aI0
aI5
aV201188,1610612763
p1144
aa(lp1145
I101162
aVMarcin Gortat
p1146
aI1610612753
aVORL
p1147
aF25.0
aI63
aI46
aI17
aF0.73
aF12.6
aF1.7
aF3.0
aF0.567
aF0.0
aF0.0
aF1.0
aF0.4
aF0.7
aF0.578
aF1.5
aF3.0
aF4.5
aF0.2
aF0.4
aF0.3
aF0.8
aF0.3
aF1.8
aF0.9
aF3.8
aF-0.9
aI4
aI0
aI5
aV101162,1610612753
p1148
aa(lp1149
I201158
aVMarco Belinelli
p1150
aI1610612744
aVGSW
p1151
aF23.0
aI42
aI13
aI29
aF0.31
aF21.0
aF3.3
aF7.5
aF0.442
aF1.2
aF3.1
aF0.397
aF1.0
aF1.2
aF0.769
aF0.2
aF1.5
aF1.7
aF2.1
aF1.4
aF0.9
aF0.0
aF0.4
aF1.7
aF2.0
aF8.9
aF-1.9
aI0
aI0
aI5
aV201158,1610612744
p1152
aa(lp1153
I2556
aVMarcus Banks
p1154
aI1610612761
aVTOR
p1155
aF27.0
aI22
aI8
aI14
aF0.364
aF9.4
aF1.0
aF2.6
aF0.368
aF0.1
aF0.9
aF0.158
aF0.5
aF0.8
aF0.611
aF0.0
aF0.8
aF0.8
aF1.3
aF0.6
aF0.5
aF0.1
aF0.1
aF1.2
aF0.7
aF2.5
aF-4.0
aI0
aI0
aI5
aV2556,1610612761
p1156
aa(lp1157
I948
aVMarcus Camby
p1158
aI1610612746
aVLAC
p1159
aF35.0
aI62
aI16
aI46
aF0.258
aF31.1
aF4.1
aF8.0
aF0.512
aF0.0
aF0.1
aF0.25
aF2.1
aF2.9
aF0.725
aF2.6
aF8.5
aF11.1
aF2.0
aF1.5
aF0.8
aF2.1
aF0.3
aF2.1
aF2.3
aF10.3
aF-3.3
aI25
aI0
aI5
aV948,1610612746
p1160
aa(lp1161
I201173
aVMarcus Williams
p1162
aI1610612759
aVSAS
p1163
aF22.0
aI2
aI1
aI1
aF0.5
aF1.7
aF1.0
aF1.0
aF1.0
aF0.0
aF0.0
aF0.0
aF0.0
aF0.0
aF0.0
aF0.0
aF0.0
aF0.0
aF0.0
aF0.0
aF0.0
aF0.0
aF0.0
aF0.5
aF0.0
aF2.0
aF-1.5
aI0
aI0
aI5
aV201173,1610612759
p1164
aa(lp1165
I200766
aVMarcus Williams
p1166
aI1610612744
aVGSW
p1167
aF23.0
aI9
aI2
aI7
aF0.222
aF5.9
aF0.4
aF1.9
aF0.235
aF0.2
aF0.7
aF0.333
aF0.2
aF0.7
aF0.333
aF0.0
aF0.4
aF0.4
aF1.4
aF0.4
aF0.1
aF0.1
aF0.1
aF0.7
aF0.4
aF1.3
aF-0.8
aI0
aI0
aI5
aV200766,1610612744
p1168
aa(lp1169
I200776
aVMardy Collins
p1170
aI1610612746
aVLAC
p1171
aF24.0
aI48
aI14
aI34
aF0.292
aF18.5
aF2.2
aF5.1
aF0.425
aF0.3
aF0.6
aF0.419
aF0.6
aF1.0
aF0.609
aF0.6
aF1.6
aF2.2
aF2.3
aF1.2
aF0.6
aF0.2
aF0.6
aF1.7
aF0.9
aF5.2
aF-1.7
aI1
aI0
aI5
aV200776,1610612746
p1172
aa(lp1173
I201596
aVMario Chalmers
p1174
aI1610612748
aVMIA
p1175
aF23.0
aI82
aI43
aI39
aF0.524
aF32.0
aF3.4
aF8.1
aF0.42
aF1.4
aF3.8
aF0.367
aF1.8
aF2.4
aF0.767
aF0.5
aF2.3
aF2.8
aF4.9
aF2.0
aF2.0
aF0.1
aF0.4
aF2.9
aF2.6
aF10.0
aF0.4
aI1
aI0
aI5
aV201596,1610612748
p1176
aa(lp1177
I201238
aVMario West
p1178
aI1610612737
aVATL
p1179
aF25.0
aI53
aI33
aI20
aF0.623
aF5.1
aF0.3
aF0.6
aF0.412
aF0.0
aF0.0
aF1.0
aF0.3
aF0.6
aF0.467
aF0.5
aF0.6
aF1.1
aF0.4
aF0.2
aF0.3
aF0.1
aF0.1
aF0.7
aF0.4
aF0.8
aF-0.3
aI0
aI0
aI5
aV201238,1610612737
p1180
aa(lp1181
I1548
aVMark Blount
p1182
aI1610612748
aVMIA
p1183
aF33.0
aI20
aI8
aI12
aF0.4
aF10.4
aF1.5
aF3.9
aF0.385
aF0.6
aF1.4
aF0.407
aF0.4
aF0.7
aF0.615
aF0.5
aF1.6
aF2.1
aF0.2
aF0.7
aF0.1
aF0.4
aF0.2
aF0.9
aF0.6
aF4.0
aF0.4
aI0
aI0
aI5
aV1548,1610612748
p1184
aa(lp1185
I2058
aVMark Madsen
p1186
aI1610612750
aVMIN
p1187
aF33.0
aI19
aI3
aI16
aF0.158
aF6.1
aF0.2
aF0.7
aF0.214
aF0.0
aF0.0
aF0.0
aF0.0
aF0.2
aF0.0
aF0.5
aF0.4
aF0.9
aF0.2
aF0.2
aF0.1
aF0.1
aF0.0
aF0.9
aF0.6
aF0.3
aF0.6
aI0
aI0
aI5
aV2058,1610612750
p1188
aa(lp1189
I2060
aVMarko Jaric
p1190
aI1610612763
aVMEM
p1191
aF30.0
aI53
aI14
aI39
aF0.264
aF11.4
aF0.9
aF2.7
aF0.331
aF0.2
aF0.5
aF0.393
aF0.5
aF0.8
aF0.707
aF0.4
aF0.8
aF1.2
aF1.4
aF0.9
aF0.5
aF0.2
aF0.2
aF1.2
aF0.7
aF2.6
aF1.2
aI0
aI0
aI5
aV2060,1610612763
p1192
aa(lp1193
I2605
aVMarquis Daniels
p1194
aI1610612754
aVIND
p1195
aF28.0
aI54
aI22
aI32
aF0.407
aF31.5
aF5.8
aF12.8
aF0.451
aF0.3
aF1.7
aF0.2
aF1.7
aF2.4
aF0.721
aF1.5
aF3.1
aF4.6
aF2.1
aF1.7
aF1.1
aF0.5
aF1.0
aF2.2
aF2.5
aF13.6
aF-0.4
aI4
aI0
aI5
aV2605,1610612754
p1196
aa(lp1197
I201578
aVMarreese Speights
p1198
aI1610612755
aVPHI
p1199
aF21.0
aI79
aI41
aI38
aF0.519
aF16.0
aF3.2
aF6.4
aF0.502
aF0.0
aF0.1
aF0.25
aF1.3
aF1.7
aF0.773
aF1.6
aF2.2
aF3.7
aF0.4
aF0.6
aF0.3
aF0.7
aF0.4
aF2.3
aF1.4
aF7.7
aF-1.0
aI1
aI0
aI5
aV201578,1610612755
p1200
aa(lp1201
I101110
aVMartell Webster
p1202
aI1610612757
aVPOR
p1203
aF22.0
aI1
aI1
aI0
aF1.0
aF5.3
aF0.0
aF1.0
aF0.0
aF0.0
aF1.0
aF0.0
aF0.0
aF0.0
aF0.0
aF0.0
aF0.0
aF0.0
aF0.0
aF0.0
aF0.0
aF0.0
aF0.0
aF0.0
aF1.0
aF0.0
aF-6.0
aI0
aI0
aI5
aV101110,1610612757
p1204
aa(lp1205
I101107
aVMarvin Williams
p1206
aI1610612737
aVATL
p1207
aF23.0
aI61
aI33
aI28
aF0.541
aF34.3
aF4.7
aF10.2
aF0.458
aF0.9
aF2.5
aF0.355
aF3.6
aF4.5
aF0.806
aF1.8
aF4.5
aF6.3
aF1.3
aF1.1
aF0.9
aF0.6
aF0.8
aF2.1
aF3.0
aF13.9
aF0.0
aI6
aI0
aI5
aV101107,1610612737
p1208
aa(lp1209
I2440
aVMatt Barnes
p1210
aI1610612756
aVPHX
p1211
aF29.0
aI77
aI42
aI35
aF0.545
aF27.0
aF3.7
aF8.8
aF0.423
aF1.5
aF4.4
aF0.343
aF1.3
aF1.8
aF0.743
aF1.0
aF4.4
aF5.5
aF2.8
aF1.7
aF0.7
aF0.3
aF0.3
aF2.7
aF1.5
aF10.2
aF0.7
aI5
aI0
aI5
aV2440,1610612756
p1212
aa(lp1213
I2588
aVMatt Bonner
p1214
aI1610612759
aVSAS
p1215
aF29.0
aI81
aI54
aI27
aF0.667
aF23.8
aF3.3
aF6.6
aF0.496
aF1.5
aF3.3
aF0.44
aF0.2
aF0.3
aF0.739
aF1.2
aF3.6
aF4.8
aF1.0
aF0.5
aF0.6
aF0.3
aF0.1
aF2.3
aF0.7
aF8.2
aF4.2
aI1
aI0
aI5
aV2588,1610612759
p1216
aa(lp1217
I2679
aVMatt Carroll
p1218
aI1610612742
aVDAL
p1219
aF28.0
aI55
aI24
aI31
aF0.436
aF11.2
aF1.2
aF3.1
aF0.38
aF0.2
aF1.0
aF0.245
aF0.4
aF0.5
aF0.84
aF0.1
aF1.1
aF1.3
aF0.5
aF0.6
aF0.4
aF0.1
aF0.1
aF1.2
aF0.4
aF3.0
aF-2.3
aI0
aI0
aI5
aV2679,1610612742
p1220
aa(lp1221
I1723
aVMatt Harpring
p1222
aI1610612762
aVUTA
p1223
aF33.0
aI63
aI36
aI27
aF0.571
aF11.0
aF1.8
aF3.8
aF0.461
aF0.0
aF0.0
aF0.0
aF0.9
aF1.1
aF0.764
aF0.7
aF1.2
aF2.0
aF0.4
aF0.5
aF0.5
aF0.1
aF0.3
aF1.6
aF1.6
aF4.4
aF0.7
aI0
aI0
aI5
aV1723,1610612762
p1224
aa(lp1225
I200772
aVMaurice Ager
p1226
aI1610612751
aVNJN
p1227
aF25.0
aI20
aI7
aI13
aF0.35
aF4.9
aF0.8
aF2.2
aF0.349
aF0.0
aF0.3
aF0.0
aF0.2
aF0.4
aF0.5
aF0.2
aF0.4
aF0.5
aF0.2
aF0.2
aF0.1
aF0.1
aF0.2
aF0.9
aF0.4
aF1.7
aF-0.7
aI0
aI0
aI5
aV200772,1610612751
p1228
aa(lp1229
I2230
aVMaurice Evans
p1230
aI1610612737
aVATL
p1231
aF30.0
aI80
aI45
aI35
aF0.563
aF23.0
aF2.6
aF6.0
aF0.432
aF1.2
aF3.1
aF0.395
aF0.8
aF0.9
aF0.822
aF1.1
aF1.9
aF3.0
aF0.7
aF0.5
aF0.6
aF0.1
aF0.3
aF2.0
aF0.8
aF7.2
aF-0.5
aI1
aI0
aI5
aV2230,1610612737
p1232
aa(lp1233
I2246
aVMehmet Okur
p1234
aI1610612762
aVUTA
p1235
aF30.0
aI72
aI44
aI28
aF0.611
aF33.5
aF6.0
aF12.3
aF0.485
aF1.3
aF2.8
aF0.446
aF3.8
aF4.6
aF0.817
aF1.7
aF6.0
aF7.7
aF1.7
aF1.8
aF0.8
aF0.7
aF0.6
aF3.0
aF3.7
aF17.0
aF2.3
aI23
aI0
aI5
aV2246,1610612762
p1236
aa(lp1237
I2408
aVMelvin Ely
p1238
aI1610612740
aVNOH
p1239
aF31.0
aI31
aI16
aI15
aF0.516
aF12.0
aF1.2
aF3.1
aF0.389
aF0.0
aF0.0
aF0.0
aF0.7
aF1.2
aF0.639
aF1.0
aF1.1
aF2.1
aF0.6
aF0.7
aF0.1
aF0.3
aF0.4
aF1.9
aF1.5
aF3.1
aF-0.9
aI0
aI0
aI5
aV2408,1610612740
p1240
aa(lp1241
I1897
aVMetta World Peace
p1242
aI1610612745
aVHOU
p1243
aF29.0
aI69
aI47
aI22
aF0.681
aF35.5
aF6.0
aF15.0
aF0.401
aF2.2
aF5.6
aF0.399
aF2.8
aF3.8
aF0.748
aF0.9
aF4.3
aF5.2
aF3.3
aF2.0
aF1.5
aF0.3
aF0.9
aF2.2
aF3.1
aF17.1
aF4.6
aI3
aI0
aI5
aV1897,1610612745
p1244
aa(lp1245
I201563
aVMichael Beasley
p1246
aI1610612748
aVMIA
p1247
aF20.0
aI81
aI43
aI38
aF0.531
aF24.8
aF5.6
aF11.8
aF0.472
aF0.4
aF1.0
aF0.407
aF2.3
aF3.0
aF0.772
aF1.4
aF4.1
aF5.4
aF1.0
aF1.5
aF0.5
aF0.5
aF0.9
aF2.3
aF2.1
aF13.9
aF0.1
aI8
aI0
aI5
aV201563,1610612748
p1248
aa(lp1249
I714
aVMichael Finley
p1250
aI1610612759
aVSAS
p1251
aF36.0
aI81
aI54
aI27
aF0.667
aF28.8
aF3.7
aF8.5
aF0.437
aF1.6
aF3.9
aF0.411
aF0.6
aF0.8
aF0.823
aF0.3
aF3.0
aF3.3
aF1.4
aF0.8
aF0.5
aF0.2
aF0.1
aF1.0
aF0.8
aF9.7
aF2.1
aI0
aI0
aI5
aV714,1610612759
p1252
aa(lp1253
I2072
aVMichael Redd
p1254
aI1610612749
aVMIL
p1255
aF29.0
aI33
aI17
aI16
aF0.515
aF36.5
aF7.5
aF16.6
aF0.455
aF2.1
aF5.8
aF0.366
aF4.0
aF4.9
aF0.814
aF0.7
aF2.5
aF3.2
aF2.7
aF1.6
aF1.1
aF0.1
aF0.5
aF1.4
aF4.1
aF21.2
aF2.4
aI1
aI0
aI5
aV2072,1610612749
p1256
aa(lp1257
I1913
aVMichael Ruffin
p1258
aI1610612757
aVPOR
p1259
aF32.0
aI11
aI9
aI2
aF0.818
aF3.2
aF0.2
aF0.6
aF0.286
aF0.0
aF0.0
aF0.0
aF0.2
aF0.2
aF1.0
aF0.5
aF0.5
aF1.0
aF0.0
aF0.2
aF0.3
aF0.1
aF0.2
aF0.6
aF0.2
aF0.5
aF-0.9
aI0
aI0
aI5
aV1913,1610612757
p1260
aa(lp1261
I2554
aVMickael Pietrus
p1262
aI1610612753
aVORL
p1263
aF27.0
aI54
aI38
aI16
aF0.704
aF24.6
aF3.3
aF7.9
aF0.413
aF1.5
aF4.1
aF0.359
aF1.4
aF2.0
aF0.709
aF0.8
aF2.4
aF3.3
aF1.2
aF1.0
aF0.6
aF0.4
aF0.3
aF2.3
aF1.6
aF9.4
aF2.7
aI2
aI0
aI5
aV2554,1610612753
p1264
aa(lp1265
I1710
aVMike Bibby
p1266
aI1610612737
aVATL
p1267
aF31.0
aI79
aI47
aI32
aF0.595
aF34.7
aF5.5
aF12.7
aF0.435
aF2.1
aF5.4
aF0.39
aF1.7
aF2.2
aF0.789
aF0.5
aF3.0
aF3.5
aF5.0
aF1.6
aF1.2
aF0.1
aF0.3
aF1.8
aF2.2
aF14.9
aF0.8
aI4
aI0
aI5
aV1710,1610612737
p1268
aa(lp1269
I201144
aVMike Conley
p1270
aI1610612763
aVMEM
p1271
aF21.0
aI82
aI24
aI58
aF0.293
aF30.6
aF3.9
aF8.9
aF0.442
aF1.1
aF2.6
aF0.406
aF2.0
aF2.4
aF0.817
aF0.3
aF3.1
aF3.4
aF4.3
aF1.7
aF1.1
aF0.1
aF0.5
aF1.8
aF2.0
aF10.9
aF-3.5
aI2
aI0
aI5
aV201144,1610612763
p1272
aa(lp1273
I2399
aVMike Dunleavy
p1274
aI1610612754
aVIND
p1275
aF28.0
aI18
aI8
aI10
aF0.444
aF27.5
aF5.2
aF12.9
aF0.401
aF1.8
aF5.0
aF0.356
aF2.9
aF3.6
aF0.815
aF0.8
aF3.0
aF3.8
aF2.4
aF2.1
aF0.7
aF0.5
aF0.4
aF2.0
aF3.4
aF15.1
aF-1.7
aI0
aI0
aI5
aV2399,1610612754
p1276
aa(lp1277
I2229
aVMike James
p1278
aI1610612764
aVWAS
p1279
aF34.0
aI61
aI17
aI44
aF0.279
aF27.0
aF3.2
aF8.4
aF0.383
aF1.1
aF3.0
aF0.375
aF1.1
aF1.3
aF0.829
aF0.4
aF1.8
aF2.2
aF3.3
aF1.5
aF0.7
aF0.1
aF0.6
aF1.8
aF1.5
aF8.7
aF-5.2
aI0
aI0
aI5
aV2229,1610612764
p1280
aa(lp1281
I2034
aVMike Miller
p1282
aI1610612750
aVMIN
p1283
aF29.0
aI73
aI22
aI51
aF0.301
aF32.3
aF3.6
aF7.5
aF0.482
aF1.2
aF3.1
aF0.378
aF1.5
aF2.0
aF0.732
aF1.0
aF5.6
aF6.6
aF4.5
aF2.0
aF0.4
aF0.4
aF0.4
aF1.9
aF2.1
aF9.9
aF-3.4
aI7
aI0
aI5
aV2034,1610612750
p1284
aa(lp1285
I201446
aVMike Taylor
p1286
aI1610612746
aVLAC
p1287
aF23.0
aI51
aI13
aI38
aF0.255
aF15.1
aF2.2
aF5.2
aF0.412
aF0.3
aF0.8
aF0.325
aF1.1
aF1.6
aF0.691
aF0.4
aF1.3
aF1.7
aF2.1
aF1.4
aF0.7
aF0.0
aF0.4
aF1.6
aF1.5
aF5.7
aF-2.6
aI0
aI0
aI5
aV201446,1610612746
p1288
aa(lp1289
I1630
aVMikki Moore
p1290
aI1610612738
aVBOS
p1291
aF33.0
aI70
aI26
aI44
aF0.371
aF17.2
aF1.6
aF2.9
aF0.553
aF0.0
aF0.0
aF0.0
aF0.7
aF0.9
aF0.787
aF1.1
aF2.6
aF3.7
aF0.8
aF0.7
aF0.2
aF0.3
aF0.3
aF3.0
aF1.4
aF3.9
aF-1.7
aI1
aI0
aI5
aV1630,1610612738
p1292
aa(lp1293
I2590
aVMo Williams
p1294
aI1610612739
aVCLE
p1295
aF26.0
aI81
aI66
aI15
aF0.815
aF35.0
aF6.5
aF13.9
aF0.467
aF2.3
aF5.2
aF0.436
aF2.6
aF2.8
aF0.912
aF0.6
aF2.9
aF3.4
aF4.1
aF2.2
aF0.9
aF0.1
aF0.5
aF2.7
aF2.6
aF17.8
aF7.2
aI1
aI0
aI5
aV2590,1610612739
p1296
aa(lp1297
I101145
aVMonta Ellis
p1298
aI1610612744
aVGSW
p1299
aF23.0
aI25
aI12
aI13
aF0.48
aF35.7
aF7.8
aF17.2
aF0.451
aF0.3
aF1.0
aF0.308
aF3.1
aF3.8
aF0.83
aF0.6
aF3.8
aF4.3
aF3.7
aF2.7
aF1.6
aF0.3
aF0.9
aF2.7
aF3.1
aF19.0
aF-3.2
aI1
aI0
aI5
aV101145,1610612744
p1300
aa(lp1301
I201165
aVMorris Almond
p1302
aI1610612762
aVUTA
p1303
aF24.0
aI25
aI16
aI9
aF0.64
aF10.2
aF1.3
aF3.2
aF0.407
aF0.2
aF0.7
aF0.294
aF0.8
aF1.0
aF0.808
aF0.4
aF1.1
aF1.4
aF0.3
aF0.6
aF0.2
aF0.2
aF0.3
aF1.2
aF0.7
aF3.7
aF-1.6
aI0
aI0
aI5
aV201165,1610612762
p1304
aa(lp1305
I2050
aVMorris Peterson
p1306
aI1610612740
aVNOH
p1307
aF31.0
aI43
aI25
aI18
aF0.581
aF12.0
aF1.7
aF4.3
aF0.399
aF0.8
aF2.0
aF0.388
aF0.3
aF0.4
aF0.632
aF0.3
aF1.7
aF2.0
aF0.4
aF0.3
aF0.3
aF0.0
aF0.1
aF1.2
aF0.7
aF4.4
aF0.0
aI0
aI0
aI5
aV2050,1610612740
p1308
aa(lp1309
I200754
aVMouhamed Sene
p1310
aI1610612752
aVNYK
p1311
aF23.0
aI6
aI1
aI5
aF0.167
aF4.7
aF1.0
aF1.5
aF0.667
aF0.0
aF0.0
aF0.0
aF1.3
aF1.7
aF0.8
aF0.8
aF1.5
aF2.3
aF0.0
aF0.7
aF0.2
aF0.5
aF0.0
aF0.3
aF1.0
aF3.3
aF0.8
aI0
aI0
aI5
aV200754,1610612752
p1312
aa(lp1313
I101126
aVNate Robinson
p1314
aI1610612752
aVNYK
p1315
aF25.0
aI74
aI28
aI46
aF0.378
aF29.8
aF6.1
aF13.9
aF0.437
aF1.7
aF5.2
aF0.325
aF3.4
aF4.0
aF0.841
aF1.3
aF2.6
aF3.9
aF4.1
aF1.9
aF1.3
aF0.1
aF0.4
aF2.8
aF3.3
aF17.2
aF0.1
aI4
aI0
aI5
aV101126,1610612752
p1316
aa(lp1317
I201605
aVNathan Jawai
p1318
aI1610612761
aVTOR
p1319
aF22.0
aI6
aI2
aI4
aF0.333
aF3.1
aF0.2
aF0.7
aF0.25
aF0.0
aF0.0
aF0.0
aF0.0
aF0.0
aF0.0
aF0.2
aF0.2
aF0.3
aF0.0
aF0.3
aF0.0
aF0.0
aF0.2
aF0.5
aF0.0
aF0.3
aF-1.3
aI0
aI0
aI5
aV201605,1610612761
p1320
aa(lp1321
I1737
aVNazr Mohammed
p1322
aI1610612766
aVCHA
p1323
aF31.0
aI39
aI15
aI24
aF0.385
aF8.7
aF1.1
aF2.6
aF0.406
aF0.0
aF0.0
aF0.0
aF0.6
aF1.0
aF0.55
aF0.9
aF1.1
aF2.0
aF0.2
aF0.6
aF0.1
aF0.4
aF0.2
aF1.6
aF0.7
aF2.7
aF-1.2
aI0
aI0
aI5
aV1737,1610612766
p1324
aa(lp1325
I2420
aVNenad Krstic
p1326
aI1610612760
aVOKC
p1327
aF25.0
aI46
aI17
aI29
aF0.37
aF24.8
aF4.2
aF8.8
aF0.469
aF0.0
aF0.0
aF0.0
aF1.4
aF1.7
aF0.797
aF1.8
aF3.7
aF5.5
aF0.6
aF1.0
aF0.5
aF1.1
aF0.4
aF2.5
aF1.5
aF9.7
aF-2.9
aI1
aI0
aI5
aV2420,1610612760
p1328
aa(lp1329
I2403
aVNene
p1330
aI1610612743
aVDEN
p1331
aF26.0
aI77
aI51
aI26
aF0.662
aF32.6
aF5.6
aF9.2
aF0.604
aF0.0
aF0.1
aF0.2
aF3.5
aF4.8
aF0.723
aF2.4
aF5.4
aF7.8
aF1.4
aF1.9
aF1.2
aF1.3
aF0.8
aF3.6
aF4.6
aF14.6
aF3.9
aI20
aI0
aI5
aV2403,1610612743
p1332
aa(lp1333
I2555
aVNick Collison
p1334
aI1610612760
aVOKC
p1335
aF28.0
aI71
aI18
aI53
aF0.254
aF25.8
aF3.4
aF6.0
aF0.568
aF0.0
aF0.0
aF0.0
aF1.4
aF1.9
aF0.721
aF2.5
aF4.3
aF6.9
aF0.9
aF1.0
aF0.7
aF0.7
aF0.5
aF3.4
aF1.7
aF8.2
aF-3.0
aI11
aI0
aI5
aV2555,1610612760
p1336
aa(lp1337
I201156
aVNick Young
p1338
aI1610612764
aVWAS
p1339
aF24.0
aI82
aI19
aI63
aF0.232
aF22.4
aF4.1
aF9.2
aF0.444
aF0.7
aF2.0
aF0.341
aF2.0
aF2.4
aF0.85
aF0.4
aF1.5
aF1.8
aF1.2
aF1.1
aF0.5
aF0.2
aF0.4
aF1.7
aF1.9
aF10.9
aF-1.7
aI0
aI0
aI5
aV201156,1610612764
p1340
aa(lp1341
I201587
aVNicolas Batum
p1342
aI1610612757
aVPOR
p1343
aF20.0
aI79
aI52
aI27
aF0.658
aF18.4
aF2.0
aF4.6
aF0.446
aF0.8
aF2.1
aF0.369
aF0.5
aF0.7
aF0.808
aF1.1
aF1.7
aF2.8
aF0.9
aF0.6
aF0.6
aF0.5
aF0.3
aF1.8
aF0.7
aF5.4
aF2.3
aI0
aI0
aI5
aV201587,1610612757
p1344
aa(lp1345
I201564
aVO.J. Mayo
p1346
aI1610612763
aVMEM
p1347
aF21.0
aI82
aI24
aI58
aF0.293
aF38.1
aF6.9
aF15.6
aF0.438
aF1.8
aF4.6
aF0.384
aF3.0
aF3.4
aF0.879
aF0.7
aF3.1
aF3.8
aF3.2
aF2.8
aF1.1
aF0.2
aF0.9
aF2.5
aF2.7
aF18.5
aF-5.1
aI2
aI0
aI5
aV201564,1610612763
p1348
aa(lp1349
I200762
aVOleksiy Pecherov
p1350
aI1610612764
aVWAS
p1351
aF23.0
aI32
aI3
aI29
aF0.094
aF8.7
aF1.2
aF3.2
aF0.386
aF0.4
aF1.3
aF0.326
aF0.8
aF0.9
aF0.828
aF1.1
aF1.3
aF2.4
aF0.1
aF0.3
aF0.2
aF0.1
aF0.2
aF1.1
aF0.6
aF3.6
aF-2.0
aI0
aI0
aI5
aV200762,1610612764
p1352
aa(lp1353
I201629
aVOthello Hunter
p1354
aI1610612737
aVATL
p1355
aF23.0
aI16
aI7
aI9
aF0.438
aF5.7
aF0.7
aF1.3
aF0.55
aF0.0
aF0.0
aF0.0
aF0.0
aF0.3
aF0.0
aF0.6
aF0.9
aF1.5
aF0.1
aF0.1
aF0.1
aF0.3
aF0.3
aF0.7
aF0.2
aF1.4
aF1.4
aI0
aI0
aI5
aV201629,1610612737
p1356
aa(lp1357
I200753
aVPatrick O'Bryant
p1358
aI1610612761
aVTOR
p1359
aF23.0
aI39
aI27
aI12
aF0.692
aF6.5
aF1.2
aF2.2
aF0.536
aF0.0
aF0.1
aF0.0
aF0.3
aF0.5
aF0.55
aF0.3
aF1.4
aF1.7
aF0.3
aF0.6
aF0.2
aF0.5
aF0.2
aF1.6
aF0.4
aF2.6
aF0.2
aI0
aI0
aI5
aV200753,1610612761
p1360
aa(lp1361
I2200
aVPau Gasol
p1362
aI1610612747
aVLAL
p1363
aF28.0
aI81
aI64
aI17
aF0.79
aF37.0
aF7.3
aF12.9
aF0.567
aF0.0
aF0.0
aF0.5
aF4.2
aF5.4
aF0.781
aF3.2
aF6.4
aF9.6
aF3.5
aF1.9
aF0.6
aF1.0
aF0.8
aF2.1
aF4.6
aF18.9
aF7.0
aI37
aI1
aI5
aV2200,1610612747
p1364
aa(lp1365
I200781
aVPaul Davis
p1366
aI1610612746
aVLAC
p1367
aF24.0
aI27
aI7
aI20
aF0.259
aF11.8
aF1.5
aF3.6
aF0.408
aF0.0
aF0.0
aF0.0
aF1.0
aF1.3
aF0.794
aF1.0
aF1.4
aF2.5
aF0.4
aF0.5
aF0.4
aF0.1
aF0.4
aF1.6
aF1.0
aF4.0
aF-1.4
aI0
aI0
aI5
aV200781,1610612746
p1368
aa(lp1369
I200794
aVPaul Millsap
p1370
aI1610612762
aVUTA
p1371
aF24.0
aI76
aI44
aI32
aF0.579
aF30.1
aF5.3
aF9.9
aF0.534
aF0.0
aF0.1
aF0.0
aF3.0
aF4.3
aF0.699
aF3.3
aF5.3
aF8.6
aF1.8
aF1.7
aF1.0
aF1.0
aF0.8
aF3.8
aF3.4
aF13.5
aF3.6
aI29
aI0
aI5
aV200794,1610612762
p1372
aa(lp1373
I1718
aVPaul Pierce
p1374
aI1610612738
aVBOS
p1375
aF31.0
aI81
aI61
aI20
aF0.753
aF37.5
aF6.7
aF14.6
aF0.457
aF1.5
aF3.8
aF0.391
aF5.7
aF6.8
aF0.83
aF0.7
aF5.0
aF5.6
aF3.6
aF2.8
aF1.0
aF0.3
aF1.0
aF2.7
aF5.6
aF20.5
aF6.6
aI7
aI0
aI5
aV1718,1610612738
p1376
aa(lp1377
I978
aVPeja Stojakovic
p1378
aI1610612740
aVNOH
p1379
aF32.0
aI61
aI35
aI26
aF0.574
aF34.2
aF4.7
aF11.8
aF0.399
aF2.4
aF6.3
aF0.378
aF1.5
aF1.7
aF0.894
aF0.7
aF3.6
aF4.3
aF1.2
aF0.8
aF0.9
aF0.0
aF0.3
aF1.7
aF1.1
aF13.3
aF3.4
aI1
aI0
aI5
aV978,1610612740
p1380
aa(lp1381
I200822
aVPops Mensah-Bonsu
p1382
aI1610612761
aVTOR
p1383
aF25.0
aI22
aI10
aI12
aF0.455
aF12.8
aF1.8
aF4.7
aF0.379
aF0.0
aF0.1
aF0.0
aF1.5
aF2.2
aF0.688
aF2.5
aF2.6
aF5.1
aF0.3
aF0.9
aF0.4
aF0.2
aF0.7
aF2.0
aF2.0
aF5.0
aF0.3
aI0
aI0
aI5
aV200822,1610612761
p1384
aa(lp1385
I2047
aVQuentin Richardson
p1386
aI1610612752
aVNYK
p1387
aF29.0
aI72
aI29
aI43
aF0.403
aF26.3
aF3.6
aF9.3
aF0.393
aF1.7
aF4.6
aF0.365
aF1.2
aF1.6
aF0.761
aF1.0
aF3.4
aF4.4
aF1.6
aF1.0
aF0.7
aF0.1
aF0.6
aF1.8
aF1.4
aF10.2
aF-1.6
aI1
aI0
aI5
aV2047,1610612752
p1388
aa(lp1389
I200763
aVQuincy Douby
p1390
aI1610612761
aVTOR
p1391
aF25.0
aI27
aI5
aI22
aF0.185
aF11.1
aF1.6
aF4.1
aF0.382
aF0.5
aF1.7
aF0.304
aF0.6
aF0.7
aF0.895
aF0.2
aF1.0
aF1.2
aF0.9
aF0.5
aF0.2
aF0.2
aF0.2
aF1.0
aF0.7
aF4.3
aF-1.1
aI0
aI0
aI5
aV200763,1610612761
p1392
aa(lp1393
I2624
aVQuinton Ross
p1394
aI1610612763
aVMEM
p1395
aF28.0
aI68
aI20
aI48
aF0.294
aF17.1
aF1.5
aF3.8
aF0.382
aF0.5
aF1.3
aF0.375
aF0.5
aF0.6
aF0.81
aF0.4
aF1.4
aF1.9
aF0.7
aF0.5
aF0.5
aF0.2
aF0.2
aF1.7
aF0.6
aF3.9
aF-1.0
aI0
aI0
aI5
aV2624,1610612763
p1396
aa(lp1397
I1747
aVRafer Alston
p1398
aI1610612753
aVORL
p1399
aF32.0
aI77
aI48
aI29
aF0.623
aF31.8
aF4.1
aF10.6
aF0.385
aF1.5
aF4.3
aF0.338
aF2.0
aF2.7
aF0.75
aF0.4
aF2.5
aF2.9
aF5.3
aF1.8
aF1.4
aF0.1
aF0.5
aF1.8
aF1.9
aF11.7
aF2.7
aI3
aI0
aI5
aV1747,1610612753
p1400
aa(lp1401
I1952
aVRaja Bell
p1402
aI1610612766
aVCHA
p1403
aF32.0
aI67
aI36
aI31
aF0.537
aF34.6
aF4.5
aF10.2
aF0.437
aF1.7
aF4.0
aF0.421
aF1.3
aF1.5
aF0.853
aF0.6
aF3.0
aF3.6
aF2.1
aF1.3
aF0.7
aF0.1
aF0.3
aF2.5
aF1.9
aF11.9
aF1.3
aI0
aI0
aI5
aV1952,1610612766
p1404
aa(lp1405
I200765
aVRajon Rondo
p1406
aI1610612738
aVBOS
p1407
aF23.0
aI80
aI62
aI18
aF0.775
aF33.0
aF4.8
aF9.5
aF0.505
aF0.2
aF0.6
aF0.313
aF2.2
aF3.4
aF0.642
aF1.3
aF4.0
aF5.2
aF8.2
aF2.6
aF1.9
aF0.1
aF0.8
aF2.4
aF3.1
aF11.9
aF6.4
aI15
aI2
aI5
aV200765,1610612738
p1408
aa(lp1409
I201196
aVRamon Sessions
p1410
aI1610612749
aVMIL
p1411
aF23.0
aI79
aI32
aI47
aF0.405
aF27.5
aF4.4
aF9.8
aF0.445
aF0.1
aF0.4
aF0.176
aF3.6
aF4.5
aF0.794
aF0.8
aF2.6
aF3.4
aF5.7
aF1.9
aF1.1
aF0.1
aF0.8
aF2.0
aF3.5
aF12.4
aF-0.3
aI9
aI1
aI5
aV201196,1610612749
p1412
aa(lp1413
I201043
aVRandolph Morris
p1414
aI1610612737
aVATL
p1415
aF23.0
aI23
aI11
aI12
aF0.478
aF3.8
aF0.3
aF0.7
aF0.412
aF0.0
aF0.0
aF0.0
aF0.2
aF0.2
aF1.0
aF0.2
aF0.7
aF0.9
aF0.1
aF0.3
aF0.1
aF0.0
aF0.1
aF1.1
aF0.1
aF0.8
aF0.6
aI0
aI0
aI5
aV201043,1610612737
p1416
aa(lp1417
I200751
aVRandy Foye
p1418
aI1610612750
aVMIN
p1419
aF25.0
aI70
aI19
aI51
aF0.271
aF35.6
aF5.7
aF14.0
aF0.407
aF1.6
aF4.4
aF0.36
aF3.3
aF3.9
aF0.846
aF0.5
aF2.6
aF3.1
aF4.3
aF2.1
aF1.0
aF0.4
aF1.1
aF2.9
aF3.0
aF16.3
aF-3.0
aI2
aI0
aI5
aV200751,1610612750
p1420
aa(lp1421
I101119
aVRashad McCants
p1422
aI1610612758
aVSAC
p1423
aF24.0
aI58
aI10
aI48
aF0.172
aF19.0
aF3.3
aF8.4
aF0.393
aF1.1
aF3.3
aF0.333
aF1.8
aF2.4
aF0.759
aF0.4
aF1.5
aF1.9
aF1.2
aF1.1
aF0.8
aF0.2
aF0.5
aF1.8
aF1.6
aF9.6
aF-3.1
aI0
aI0
aI5
aV101119,1610612758
p1424
aa(lp1425
I1740
aVRashard Lewis
p1426
aI1610612753
aVORL
p1427
aF29.0
aI79
aI58
aI21
aF0.734
aF36.2
aF6.1
aF13.8
aF0.439
aF2.8
aF7.0
aF0.397
aF2.8
aF3.4
aF0.836
aF1.2
aF4.6
aF5.7
aF2.6
aF2.0
aF1.0
aF0.6
aF0.4
aF2.5
aF2.5
aF17.7
aF7.4
aI4
aI0
aI5
aV1740,1610612753
p1428
aa(lp1429
I739
aVRasheed Wallace
p1430
aI1610612765
aVDET
p1431
aF34.0
aI66
aI32
aI34
aF0.485
aF32.2
aF4.6
aF10.9
aF0.419
aF1.7
aF4.8
aF0.354
aF1.2
aF1.5
aF0.772
aF0.8
aF6.6
aF7.4
aF1.4
aF0.9
aF0.9
aF1.3
aF0.2
aF3.0
aF1.3
aF12.0
aF1.3
aI15
aI0
aI5
aV739,1610612765
p1432
aa(lp1433
I1725
aVRasho Nesterovic
p1434
aI1610612754
aVIND
p1435
aF33.0
aI70
aI30
aI40
aF0.429
aF17.4
aF3.2
aF6.2
aF0.513
aF0.0
aF0.0
aF0.0
aF0.4
aF0.5
aF0.781
aF1.3
aF2.1
aF3.4
aF1.6
aF0.9
aF0.4
aF0.5
aF0.3
aF2.4
aF0.7
aF6.8
aF-1.5
aI2
aI0
aI5
aV1725,1610612754
p1436
aa(lp1437
I2446
aVRasual Butler
p1438
aI1610612740
aVNOH
p1439
aF30.0
aI82
aI49
aI33
aF0.598
aF31.9
aF4.2
aF9.8
aF0.433
aF1.7
aF4.4
aF0.39
aF1.0
aF1.3
aF0.782
aF0.6
aF2.7
aF3.3
aF0.9
aF0.7
aF0.6
aF0.7
aF0.3
aF1.9
aF1.1
aF11.2
aF-0.2
aI1
aI0
aI5
aV2446,1610612740
p1440
aa(lp1441
I951
aVRay Allen
p1442
aI1610612738
aVBOS
p1443
aF33.0
aI79
aI59
aI20
aF0.747
aF36.4
aF6.3
aF13.2
aF0.48
aF2.5
aF6.2
aF0.409
aF3.0
aF3.2
aF0.952
aF0.8
aF2.7
aF3.5
aF2.8
aF1.7
aF0.9
aF0.2
aF0.5
aF2.0
aF2.4
aF18.2
aF7.9
aI0
aI0
aI5
aV951,1610612738
p1444
aa(lp1445
I101109
aVRaymond Felton
p1446
aI1610612766
aVCHA
p1447
aF25.0
aI82
aI35
aI47
aF0.427
aF37.6
aF5.4
aF13.2
aF0.408
aF0.7
aF2.5
aF0.285
aF2.7
aF3.3
aF0.805
aF0.7
aF3.1
aF3.8
aF6.7
aF2.8
aF1.5
aF0.4
aF0.9
aF2.3
aF3.2
aF14.2
aF0.0
aI7
aI0
aI5
aV101109,1610612766
p1448
aa(lp1449
I2501
aVReggie Evans
p1450
aI1610612755
aVPHI
p1451
aF29.0
aI79
aI39
aI40
aF0.494
aF14.4
aF1.0
aF2.3
aF0.444
aF0.0
aF0.0
aF0.0
aF1.3
aF2.2
aF0.594
aF1.7
aF2.9
aF4.6
aF0.3
aF0.9
aF0.5
aF0.1
aF0.4
aF2.0
aF1.8
aF3.3
aF-0.9
aI0
aI0
aI5
aV2501,1610612755
p1452
aa(lp1453
I200764
aVRenaldo Balkman
p1454
aI1610612743
aVDEN
p1455
aF24.0
aI53
aI38
aI15
aF0.717
aF14.7
aF2.1
aF3.7
aF0.558
aF0.0
aF0.1
aF0.286
aF0.8
aF1.2
aF0.646
aF1.6
aF2.2
aF3.8
aF0.6
aF0.7
aF0.9
aF0.4
aF0.4
aF1.8
aF1.0
aF5.0
aF1.0
aI2
aI0
aI5
aV200764,1610612743
p1456
aa(lp1457
I1888
aVRichard Hamilton
p1458
aI1610612765
aVDET
p1459
aF31.0
aI67
aI32
aI35
aF0.478
aF34.0
aF7.0
aF15.6
aF0.447
aF1.0
aF2.8
aF0.368
aF3.3
aF3.9
aF0.848
aF0.7
aF2.4
aF3.1
aF4.4
aF2.0
aF0.6
aF0.1
aF0.8
aF2.6
aF3.0
aF18.3
aF0.2
aI3
aI0
aI5
aV1888,1610612765
p1460
aa(lp1461
I2210
aVRichard Jefferson
p1462
aI1610612749
aVMIL
p1463
aF29.0
aI82
aI34
aI48
aF0.415
aF35.8
aF6.5
aF14.9
aF0.439
aF1.4
aF3.6
aF0.397
aF5.1
aF6.3
aF0.805
aF0.7
aF3.9
aF4.6
aF2.4
aF2.0
aF0.8
aF0.2
aF0.8
aF3.1
aF4.7
aF19.6
aF-1.2
aI2
aI0
aI5
aV2210,1610612749
p1464
aa(lp1465
I1729
aVRicky Davis
p1466
aI1610612746
aVLAC
p1467
aF29.0
aI36
aI9
aI27
aF0.25
aF21.8
aF2.3
aF6.8
aF0.339
aF1.0
aF3.1
aF0.315
aF0.9
aF1.0
aF0.861
aF0.3
aF1.4
aF1.7
aF2.3
aF1.1
aF0.5
aF0.1
aF0.3
aF1.8
aF1.2
aF6.4
aF-6.4
aI0
aI0
aI5
aV1729,1610612746
p1468
aa(lp1469
I201633
aVRob Kurz
p1470
aI1610612744
aVGSW
p1471
aF24.0
aI40
aI10
aI30
aF0.25
aF11.0
aF1.3
aF3.3
aF0.389
aF0.4
aF1.0
aF0.395
aF1.0
aF1.3
aF0.8
aF0.8
aF1.2
aF2.0
aF0.5
aF0.4
aF0.4
aF0.5
aF0.3
aF2.0
aF1.1
aF3.9
aF-2.9
aI0
aI0
aI5
aV201633,1610612744
p1472
aa(lp1473
I2741
aVRobert Swift
p1474
aI1610612760
aVOKC
p1475
aF23.0
aI26
aI6
aI20
aF0.231
aF13.2
aF1.4
aF2.7
aF0.521
aF0.0
aF0.0
aF0.0
aF0.5
aF0.6
aF0.75
aF0.8
aF2.6
aF3.4
aF0.3
aF0.3
aF0.2
aF0.7
aF0.2
aF1.9
aF0.6
aF3.3
aF-1.9
aI0
aI0
aI5
aV2741,1610612760
p1476
aa(lp1477
I201577
aVRobin Lopez
p1478
aI1610612756
aVPHX
p1479
aF21.0
aI60
aI32
aI28
aF0.533
aF10.2
aF1.2
aF2.3
aF0.518
aF0.0
aF0.0
aF0.0
aF0.8
aF1.1
aF0.691
aF0.9
aF1.1
aF2.0
aF0.1
aF0.5
aF0.2
aF0.7
aF0.2
aF1.6
aF0.8
aF3.2
aF-1.0
aI0
aI0
aI5
aV201577,1610612756
p1480
aa(lp1481
I200760
aVRodney Carney
p1482
aI1610612750
aVMIN
p1483
aF25.0
aI67
aI19
aI48
aF0.284
aF17.9
aF2.6
aF6.3
aF0.416
aF1.2
aF3.4
aF0.35
aF0.7
aF1.0
aF0.758
aF0.5
aF1.3
aF1.9
aF0.4
aF0.6
aF0.7
aF0.4
aF0.2
aF1.4
aF0.8
aF7.2
aF-2.2
aI0
aI0
aI5
aV200760,1610612750
p1484
aa(lp1485
I201155
aVRodney Stuckey
p1486
aI1610612765
aVDET
p1487
aF23.0
aI79
aI36
aI43
aF0.456
aF31.9
aF5.1
aF11.6
aF0.439
aF0.3
aF1.0
aF0.295
aF2.9
aF3.7
aF0.803
aF0.9
aF2.6
aF3.5
aF4.9
aF2.2
aF1.0
aF0.1
aF1.0
aF2.7
aF3.1
aF13.4
aF-0.9
aI5
aI0
aI5
aV201155,1610612765
p1488
aa(lp1489
I2427
aVRoger Mason Jr.
p1490
aI1610612759
aVSAS
p1491
aF28.0
aI82
aI54
aI28
aF0.659
aF30.4
aF4.3
aF10.0
aF0.425
aF2.0
aF4.8
aF0.421
aF1.3
aF1.4
aF0.89
aF0.2
aF2.9
aF3.1
aF2.1
aF1.2
aF0.5
aF0.1
aF0.3
aF2.0
aF1.1
aF11.8
aF2.7
aI0
aI0
aI5
aV2427,1610612759
p1492
aa(lp1493
I101146
aVRoko Leni Ukic
p1494
aI1610612761
aVTOR
p1495
aF24.0
aI72
aI31
aI41
aF0.431
aF12.4
aF1.7
aF4.5
aF0.38
aF0.2
aF0.9
aF0.177
aF0.6
aF0.8
aF0.733
aF0.4
aF0.7
aF1.0
aF2.1
aF0.8
aF0.4
aF0.0
aF0.5
aF1.1
aF0.8
aF4.2
aF-1.3
aI0
aI0
aI5
aV101146,1610612761
p1496
aa(lp1497
I2436
aVRonald Murray
p1498
aI1610612737
aVATL
p1499
aF29.0
aI80
aI46
aI34
aF0.575
aF24.7
aF4.4
aF9.9
aF0.447
aF1.1
aF3.0
aF0.36
aF2.2
aF2.9
aF0.76
aF0.3
aF1.8
aF2.1
aF2.0
aF1.6
aF1.1
aF0.2
aF0.4
aF2.2
aF2.0
aF12.2
aF2.5
aI0
aI0
aI5
aV2436,1610612737
p1500
aa(lp1501
I200758
aVRonnie Brewer
p1502
aI1610612762
aVUTA
p1503
aF24.0
aI81
aI48
aI33
aF0.593
aF32.2
aF5.2
aF10.2
aF0.508
aF0.3
aF1.0
aF0.259
aF3.0
aF4.3
aF0.702
aF1.2
aF2.5
aF3.7
aF2.2
aF1.4
aF1.7
aF0.4
aF0.8
aF1.6
aF3.1
aF13.7
aF1.0
aI0
aI0
aI5
aV200758,1610612762
p1504
aa(lp1505
I101179
aVRonnie Price
p1506
aI1610612762
aVUTA
p1507
aF26.0
aI52
aI32
aI20
aF0.615
aF14.2
aF1.5
aF3.9
aF0.379
aF0.4
aF1.2
aF0.311
aF0.7
aF0.9
aF0.756
aF0.2
aF1.1
aF1.3
aF2.1
aF1.2
aF0.8
aF0.1
aF0.3
aF1.4
aF0.9
aF4.0
aF-0.8
aI0
aI0
aI5
aV101179,1610612762
p1508
aa(lp1509
I101142
aVRonny Turiaf
p1510
aI1610612744
aVGSW
p1511
aF26.0
aI79
aI28
aI51
aF0.354
aF21.5
aF2.4
aF4.6
aF0.508
aF0.0
aF0.0
aF0.0
aF1.2
aF1.6
aF0.79
aF1.1
aF3.4
aF4.6
aF2.1
aF0.9
aF0.4
aF2.1
aF0.3
aF3.1
aF1.7
aF5.9
aF-0.6
aI2
aI0
aI5
aV101142,1610612744
p1512
aa(lp1513
I201579
aVRoy Hibbert
p1514
aI1610612754
aVIND
p1515
aF22.0
aI70
aI29
aI41
aF0.414
aF14.4
aF2.8
aF6.0
aF0.471
aF0.0
aF0.0
aF0.0
aF1.4
aF2.1
aF0.667
aF1.6
aF1.8
aF3.5
aF0.7
aF0.8
aF0.3
aF1.1
aF0.7
aF3.1
aF1.9
aF7.1
aF-0.9
aI0
aI0
aI5
aV201579,1610612754
p1516
aa(lp1517
I2767
aVRoyal Ivey
p1518
aI1610612755
aVPHI
p1519
aF27.0
aI71
aI34
aI37
aF0.479
aF12.1
aF1.0
aF2.9
aF0.332
aF0.5
aF1.6
aF0.342
aF0.5
aF0.6
aF0.791
aF0.3
aF0.8
aF1.1
aF0.6
aF0.3
aF0.5
aF0.1
aF0.1
aF1.1
aF0.8
aF3.0
aF-2.6
aI0
aI0
aI5
aV2767,1610612755
p1520
aa(lp1521
I201164
aVRudy Fernandez
p1522
aI1610612757
aVPOR
p1523
aF24.0
aI78
aI52
aI26
aF0.667
aF25.5
aF3.4
aF8.1
aF0.425
aF2.0
aF5.1
aF0.399
aF1.5
aF1.8
aF0.839
aF0.6
aF2.1
aF2.7
aF2.0
aF1.1
aF0.9
aF0.2
aF0.1
aF1.4
aF1.7
aF10.4
aF3.0
aI0
aI0
aI5
aV201164,1610612757
p1524
aa(lp1525
I200752
aVRudy Gay
p1526
aI1610612763
aVMEM
p1527
aF22.0
aI79
aI22
aI57
aF0.278
aF37.3
aF7.2
aF16.0
aF0.453
aF1.1
aF3.1
aF0.351
aF3.3
aF4.4
aF0.767
aF1.4
aF4.2
aF5.5
aF1.7
aF2.6
aF1.2
aF0.7
aF1.0
aF2.8
aF3.2
aF18.9
aF-5.5
aI6
aI0
aI5
aV200752,1610612763
p1528
aa(lp1529
I201566
aVRussell Westbrook
p1530
aI1610612760
aVOKC
p1531
aF20.0
aI82
aI23
aI59
aF0.28
aF32.5
aF5.3
aF13.4
aF0.398
aF0.4
aF1.6
aF0.271
aF4.3
aF5.2
aF0.815
aF2.2
aF2.7
aF4.9
aF5.3
aF3.3
aF1.3
aF0.2
aF1.1
aF2.3
aF3.9
aF15.3
aF-3.3
aI10
aI1
aI5
aV201566,1610612760
p1532
aa(lp1533
I201583
aVRyan Anderson
p1534
aI1610612751
aVNJN
p1535
aF21.0
aI66
aI28
aI38
aF0.424
aF19.9
aF2.4
aF6.2
aF0.393
aF1.0
aF2.9
aF0.365
aF1.5
aF1.8
aF0.845
aF1.6
aF3.1
aF4.7
aF0.8
aF1.0
aF0.7
aF0.3
aF0.8
aF2.4
aF1.3
aF7.4
aF-0.3
aI3
aI0
aI5
aV201583,1610612751
p1536
aa(lp1537
I1763
aVRyan Bowen
p1538
aI1610612740
aVNOH
p1539
aF33.0
aI21
aI14
aI7
aF0.667
aF10.4
aF1.0
aF1.8
aF0.579
aF0.0
aF0.0
aF0.0
aF0.1
aF0.2
aF0.6
aF0.5
aF0.7
aF1.1
aF0.4
aF0.2
aF0.7
aF0.2
aF0.0
aF1.8
aF0.2
aF2.2
aF-1.0
aI0
aI0
aI5
aV1763,1610612740
p1540
aa(lp1541
I101155
aVRyan Gomes
p1542
aI1610612750
aVMIN
p1543
aF26.0
aI82
aI24
aI58
aF0.293
aF31.9
aF5.1
aF11.9
aF0.431
aF1.3
aF3.5
aF0.372
aF1.8
aF2.2
aF0.807
aF1.3
aF3.5
aF4.8
aF1.6
aF1.6
aF0.8
aF0.3
aF0.5
aF2.2
aF1.7
aF13.3
aF-4.2
aI2
aI0
aI5
aV101155,1610612750
p1544
aa(lp1545
I200797
aVRyan Hollins
p1546
aI1610612742
aVDAL
p1547
aF24.0
aI45
aI25
aI20
aF0.556
aF9.9
aF1.1
aF2.1
aF0.532
aF0.0
aF0.0
aF0.0
aF1.0
aF1.6
aF0.597
aF1.0
aF1.1
aF2.2
aF0.2
aF0.5
aF0.2
aF0.7
aF0.4
aF1.7
aF1.3
aF3.2
aF0.5
aI0
aI0
aI5
aV200797,1610612742
p1548
aa(lp1549
I2223
aVSamuel Dalembert
p1550
aI1610612755
aVPHI
p1551
aF29.0
aI82
aI41
aI41
aF0.5
aF24.8
aF2.6
aF5.3
aF0.498
aF0.0
aF0.0
aF0.0
aF1.1
aF1.5
aF0.734
aF2.6
aF5.9
aF8.5
aF0.2
aF1.4
aF0.4
aF1.8
aF0.4
aF3.0
aF1.3
aF6.4
aF0.6
aI13
aI0
aI5
aV2223,1610612755
p1552
aa(lp1553
I2562
aVSasha Pavlovic
p1554
aI1610612739
aVCLE
p1555
aF25.0
aI66
aI52
aI14
aF0.788
aF16.0
aF1.8
aF4.2
aF0.422
aF0.7
aF1.8
aF0.41
aF0.4
aF0.8
aF0.463
aF0.5
aF1.5
aF1.9
aF1.1
aF0.7
aF0.3
aF0.2
aF0.3
aF1.8
aF0.7
aF4.6
aF1.2
aI0
aI0
aI5
aV2562,1610612739
p1556
aa(lp1557
I2756
aVSasha Vujacic
p1558
aI1610612747
aVLAL
p1559
aF25.0
aI80
aI64
aI16
aF0.8
aF16.2
aF1.9
aF5.0
aF0.387
aF1.0
aF2.8
aF0.363
aF0.9
aF1.0
aF0.921
aF0.2
aF1.5
aF1.7
aF1.4
aF0.4
aF1.0
aF0.1
aF0.2
aF1.9
aF0.8
aF5.8
aF0.7
aI0
aI0
aI5
aV2756,1610612747
p1560
aa(lp1561
I1752
aVSean Marks
p1562
aI1610612740
aVNOH
p1563
aF33.0
aI60
aI36
aI24
aF0.6
aF14.0
aF1.3
aF2.8
aF0.485
aF0.0
aF0.2
aF0.2
aF0.5
aF0.7
aF0.682
aF1.0
aF2.1
aF3.1
aF0.2
aF0.6
aF0.1
aF0.6
aF0.3
aF2.0
aF0.7
aF3.2
aF-0.8
aI0
aI0
aI5
aV1752,1610612740
p1564
aa(lp1565
I101118
aVSean May
p1566
aI1610612766
aVCHA
p1567
aF25.0
aI24
aI8
aI16
aF0.333
aF12.5
aF1.6
aF4.1
aF0.398
aF0.0
aF0.0
aF1.0
aF0.6
aF0.8
aF0.7
aF0.8
aF2.0
aF2.9
aF0.4
aF1.1
aF0.2
aF0.2
aF0.4
aF1.3
aF0.7
aF3.9
aF-3.8
aI1
aI0
aI5
aV101118,1610612766
p1568
aa(lp1569
I201606
aVSean Singletary
p1570
aI1610612766
aVCHA
p1571
aF23.0
aI37
aI19
aI18
aF0.514
aF8.2
aF0.8
aF2.3
aF0.365
aF0.3
aF0.7
aF0.4
aF0.5
aF0.6
aF0.857
aF0.3
aF0.7
aF0.9
aF0.8
aF0.6
aF0.3
aF0.0
aF0.2
aF1.2
aF0.5
aF2.4
aF-1.8
aI0
aI0
aI5
aV201606,1610612766
p1572
aa(lp1573
I201157
aVSean Williams
p1574
aI1610612751
aVNJN
p1575
aF22.0
aI33
aI15
aI18
aF0.455
aF11.1
aF0.9
aF2.2
aF0.417
aF0.0
aF0.0
aF0.0
aF0.6
aF1.0
aF0.625
aF1.0
aF1.4
aF2.4
aF0.4
aF0.6
aF0.2
aF0.9
aF0.2
aF2.2
aF1.2
aF2.4
aF-0.6
aI0
aI0
aI5
aV201157,1610612751
p1576
aa(lp1577
I2742
aVSebastian Telfair
p1578
aI1610612750
aVMIN
p1579
aF24.0
aI75
aI23
aI52
aF0.307
aF27.9
aF3.6
aF9.3
aF0.383
aF1.0
aF2.8
aF0.346
aF1.7
aF2.1
aF0.819
aF0.4
aF1.3
aF1.7
aF4.6
aF1.9
aF1.0
aF0.2
aF0.6
aF2.5
aF2.1
aF9.8
aF-1.1
aI2
aI0
aI5
aV2742,1610612750
p1580
aa(lp1581
I200771
aVSergio Rodriguez
p1582
aI1610612757
aVPOR
p1583
aF23.0
aI80
aI52
aI28
aF0.65
aF15.3
aF1.6
aF4.1
aF0.392
aF0.5
aF1.4
aF0.325
aF0.8
aF1.0
aF0.792
aF0.5
aF1.1
aF1.6
aF3.6
aF1.5
aF0.7
aF0.0
aF0.3
aF1.7
aF1.1
aF4.5
aF0.1
aI0
aI0
aI5
aV200771,1610612757
p1584
aa(lp1585
I2203
aVShane Battier
p1586
aI1610612745
aVHOU
p1587
aF30.0
aI60
aI40
aI20
aF0.667
aF33.9
aF2.4
aF5.9
aF0.41
aF1.5
aF4.0
aF0.384
aF0.9
aF1.1
aF0.821
aF0.9
aF3.9
aF4.8
aF2.3
aF0.8
aF0.8
aF0.9
aF0.1
aF1.9
aF1.5
aF7.3
aF4.2
aI0
aI0
aI5
aV2203,1610612745
p1588
aa(lp1589
I200769
aVShannon Brown
p1590
aI1610612747
aVLAL
p1591
aF23.0
aI48
aI25
aI23
aF0.521
aF9.9
aF1.6
aF3.4
aF0.473
aF0.3
aF0.8
aF0.378
aF0.7
aF0.8
aF0.821
aF0.2
aF0.7
aF0.9
aF0.8
aF0.8
aF0.5
aF0.1
aF0.3
aF0.9
aF0.8
aF4.2
aF-0.7
aI0
aI0
aI5
aV200769,1610612747
p1592
aa(lp1593
I406
aVShaquille O'Neal
p1594
aI1610612756
aVPHX
p1595
aF37.0
aI75
aI44
aI31
aF0.587
aF30.0
aF6.8
aF11.2
aF0.609
aF0.0
aF0.0
aF0.0
aF4.1
aF6.9
aF0.595
aF2.5
aF5.9
aF8.4
aF1.7
aF2.2
aF0.7
aF1.4
aF0.5
aF3.4
aF5.6
aF17.8
aF1.9
aI30
aI0
aI5
aV406,1610612756
p1596
aa(lp1597
I2733
aVShaun Livingston
p1598
aI1610612760
aVOKC
p1599
aF23.0
aI12
aI4
aI8
aF0.333
aF19.3
aF2.6
aF5.0
aF0.517
aF0.0
aF0.0
aF0.0
aF0.8
aF0.8
aF0.9
aF0.3
aF2.1
aF2.3
aF1.7
aF0.8
aF0.6
aF0.2
aF0.3
aF1.0
aF0.7
aF5.9
aF-4.5
aI0
aI0
aI5
aV2733,1610612760
p1600
aa(lp1601
I101183
aVShavlik Randolph
p1602
aI1610612757
aVPOR
p1603
aF25.0
aI10
aI7
aI3
aF0.7
aF3.7
aF0.8
aF1.3
aF0.615
aF0.1
aF0.1
aF1.0
aF0.1
aF0.4
aF0.25
aF1.0
aF0.8
aF1.8
aF0.0
aF0.6
aF0.0
aF0.1
aF0.1
aF0.4
aF0.2
aF1.8
aF-3.5
aI0
aI0
aI5
aV101183,1610612757
p1604
aa(lp1605
I1890
aVShawn Marion
p1606
aI1610612761
aVTOR
p1607
aF31.0
aI69
aI34
aI35
aF0.493
aF35.8
aF5.5
aF11.4
aF0.485
aF0.1
aF0.8
aF0.189
aF1.7
aF2.1
aF0.796
aF2.6
aF5.9
aF8.5
aF2.0
aF1.5
aF1.3
aF1.0
aF0.6
aF1.9
aF1.7
aF12.9
aF-0.5
aI22
aI0
aI5
aV1890,1610612761
p1608
aa(lp1609
I200761
aVShawne Williams
p1610
aI1610612742
aVDAL
p1611
aF23.0
aI15
aI10
aI5
aF0.667
aF11.3
aF1.1
aF3.7
aF0.286
aF0.1
aF1.1
aF0.059
aF0.6
aF0.7
aF0.818
aF1.3
aF1.8
aF3.1
aF0.1
aF0.3
aF0.1
aF0.6
aF0.4
aF1.3
aF0.7
aF2.8
aF0.9
aI0
aI0
aI5
aV200761,1610612742
p1612
aa(lp1613
I200749
aVShelden Williams
p1614
aI1610612750
aVMIN
p1615
aF25.0
aI45
aI9
aI36
aF0.2
aF11.4
aF1.6
aF3.5
aF0.446
aF0.0
aF0.0
aF0.0
aF1.0
aF1.4
aF0.73
aF1.1
aF2.3
aF3.4
aF0.3
aF0.8
aF0.5
aF0.4
aF0.5
aF1.4
aF1.2
aF4.1
aF-0.3
aI2
aI0
aI5
aV200749,1610612750
p1616
aa(lp1617
I200780
aVSolomon Jones
p1618
aI1610612737
aVATL
p1619
aF24.0
aI63
aI34
aI29
aF0.54
aF10.7
aF1.1
aF1.8
aF0.604
aF0.0
aF0.0
aF0.5
aF0.8
aF1.2
aF0.716
aF0.8
aF1.4
aF2.3
aF0.2
aF0.4
aF0.1
aF0.5
aF0.3
aF2.0
aF1.0
aF3.0
aF-1.1
aI0
aI0
aI5
aV200780,1610612737
p1620
aa(lp1621
I201603
aVSonny Weems
p1622
aI1610612743
aVDEN
p1623
aF22.0
aI12
aI8
aI4
aF0.667
aF4.6
aF0.7
aF2.1
aF0.32
aF0.0
aF0.3
aF0.0
aF0.3
aF0.7
aF0.375
aF0.0
aF0.3
aF0.3
aF0.3
aF0.5
aF0.1
aF0.0
aF0.2
aF0.7
aF0.4
aF1.6
aF-3.3
aI0
aI0
aI5
aV201603,1610612743
p1624
aa(lp1625
I2049
aVSpeedy Claxton
p1626
aI1610612737
aVATL
p1627
aF31.0
aI2
aI1
aI1
aF0.5
aF7.5
aF1.0
aF3.5
aF0.286
aF0.0
aF0.0
aF0.0
aF0.5
aF1.0
aF0.5
aF0.0
aF0.0
aF0.0
aF1.5
aF0.0
aF0.0
aF0.0
aF1.0
aF0.5
aF1.0
aF2.5
aF-2.5
aI0
aI0
aI5
aV2049,1610612737
p1628
aa(lp1629
I201150
aVSpencer Hawes
p1630
aI1610612758
aVSAC
p1631
aF21.0
aI77
aI15
aI62
aF0.195
aF29.3
aF4.8
aF10.4
aF0.466
aF0.5
aF1.5
aF0.348
aF1.2
aF1.8
aF0.662
aF1.9
aF5.2
aF7.1
aF1.9
aF2.1
aF0.6
aF1.2
aF0.8
aF3.2
aF1.6
aF11.4
aF-6.9
aI14
aI0
aI5
aV201150,1610612758
p1632
aa(lp1633
I101211
aVStephen Graham
p1634
aI1610612754
aVIND
p1635
aF27.0
aI52
aI25
aI27
aF0.481
aF13.2
aF2.0
aF4.9
aF0.414
aF0.4
aF1.3
aF0.303
aF1.0
aF1.2
aF0.806
aF0.4
aF1.4
aF1.8
aF0.6
aF0.9
aF0.2
aF0.1
aF0.3
aF1.6
aF0.9
aF5.4
aF-0.1
aI0
aI0
aI5
aV101211,1610612754
p1636
aa(lp1637
I1536
aVStephen Jackson
p1638
aI1610612744
aVGSW
p1639
aF31.0
aI59
aI21
aI38
aF0.356
aF39.6
aF7.0
aF16.9
aF0.414
aF1.7
aF5.2
aF0.338
aF5.0
aF6.0
aF0.826
aF1.2
aF3.9
aF5.1
aF6.5
aF3.9
aF1.5
aF0.5
aF0.9
aF2.6
aF4.0
aF20.7
aF-2.7
aI9
aI1
aI5
aV1536,1610612744
p1640
aa(lp1641
I950
aVStephon Marbury
p1642
aI1610612738
aVBOS
p1643
aF32.0
aI23
aI16
aI7
aF0.696
aF18.0
aF1.7
aF4.8
aF0.342
aF0.3
aF1.1
aF0.24
aF0.3
aF0.6
aF0.462
aF0.1
aF1.1
aF1.2
aF3.3
aF1.6
aF0.4
aF0.1
aF0.3
aF1.5
aF0.9
aF3.8
aF-1.2
aI0
aI0
aI5
aV950,1610612738
p1644
aa(lp1645
I2581
aVSteve Blake
p1646
aI1610612757
aVPOR
p1647
aF29.0
aI69
aI46
aI23
aF0.667
aF31.7
aF4.0
aF9.4
aF0.428
aF2.0
aF4.8
aF0.427
aF0.9
aF1.1
aF0.84
aF0.4
aF2.1
aF2.5
aF5.0
aF1.6
aF1.0
aF0.1
aF0.2
aF1.8
aF1.4
aF11.0
aF5.8
aI4
aI0
aI5
aV2581,1610612757
p1648
aa(lp1649
I959
aVSteve Nash
p1650
aI1610612756
aVPHX
p1651
aF35.0
aI74
aI42
aI32
aF0.568
aF33.6
aF5.8
aF11.5
aF0.503
aF1.5
aF3.3
aF0.439
aF2.6
aF2.8
aF0.933
aF0.3
aF2.8
aF3.0
aF9.7
aF3.4
aF0.7
aF0.1
aF0.3
aF1.5
aF2.8
aF15.7
aF3.3
aI29
aI0
aI5
aV959,1610612756
p1652
aa(lp1653
I200779
aVSteve Novak
p1654
aI1610612746
aVLAC
p1655
aF26.0
aI71
aI16
aI55
aF0.225
aF16.4
aF2.5
aF5.6
aF0.444
aF1.7
aF4.0
aF0.416
aF0.3
aF0.3
aF0.913
aF0.3
aF1.5
aF1.8
aF0.6
aF0.3
aF0.3
aF0.1
aF0.0
aF1.0
aF0.4
aF6.9
aF-2.6
aI0
aI0
aI5
aV200779,1610612746
p1656
aa(lp1657
I201631
aVSteven Hill
p1658
aI1610612760
aVOKC
p1659
aF23.0
aI1
aI0
aI1
aF0.0
aF2.4
aF1.0
aF1.0
aF1.0
aF0.0
aF0.0
aF0.0
aF0.0
aF0.0
aF0.0
aF2.0
aF1.0
aF3.0
aF0.0
aF0.0
aF0.0
aF0.0
aF0.0
aF0.0
aF0.0
aF2.0
aF5.0
aI0
aI0
aI5
aV201631,1610612760
p1660
aa(lp1661
I2031
aVStromile Swift
p1662
aI1610612756
aVPHX
p1663
aF29.0
aI19
aI10
aI9
aF0.526
aF9.7
aF1.3
aF2.9
aF0.429
aF0.1
aF0.1
aF1.0
aF0.7
aF1.4
aF0.5
aF0.8
aF1.6
aF2.4
aF0.2
aF0.8
aF0.2
aF0.4
aF0.3
aF2.1
aF1.1
aF3.3
aF-0.5
aI1
aI0
aI5
aV2031,1610612756
p1664
aa(lp1665
I201180
aVSun Yue
p1666
aI1610612747
aVLAL
p1667
aF23.0
aI10
aI9
aI1
aF0.9
aF2.8
aF0.3
aF1.1
aF0.273
aF0.0
aF0.6
aF0.0
aF0.0
aF0.0
aF0.0
aF0.0
aF0.0
aF0.0
aF0.2
aF0.3
aF0.1
aF0.1
aF0.0
aF1.0
aF0.0
aF0.6
aF-4.7
aI0
aI0
aI5
aV201180,1610612747
p1668
aa(lp1669
I2551
aVT.J. Ford
p1670
aI1610612754
aVIND
p1671
aF26.0
aI74
aI34
aI40
aF0.459
aF30.5
aF5.6
aF12.3
aF0.452
aF0.5
aF1.4
aF0.337
aF3.3
aF3.8
aF0.872
aF0.8
aF2.7
aF3.5
aF5.3
aF2.4
aF1.2
aF0.2
aF0.8
aF2.4
aF3.5
aF14.9
aF-1.1
aI4
aI0
aI5
aV2551,1610612754
p1672
aa(lp1673
I200814
aVTarence Kinsey
p1674
aI1610612739
aVCLE
p1675
aF25.0
aI50
aI42
aI8
aF0.84
aF5.5
aF0.6
aF1.4
aF0.449
aF0.1
aF0.4
aF0.389
aF0.7
aF0.8
aF0.868
aF0.2
aF0.6
aF0.8
aF0.2
aF0.4
aF0.2
aF0.0
aF0.1
aF0.7
aF0.6
aF2.0
aF-0.9
aI0
aI0
aI5
aV200814,1610612739
p1676
aa(lp1677
I2419
aVTayshaun Prince
p1678
aI1610612765
aVDET
p1679
aF29.0
aI82
aI39
aI43
aF0.476
aF37.3
aF5.6
aF12.4
aF0.45
aF0.7
aF1.7
aF0.397
aF2.3
aF3.0
aF0.778
aF1.6
aF4.2
aF5.8
aF3.1
aF1.2
aF0.5
aF0.6
aF0.5
aF1.3
aF2.6
aF14.2
aF-0.9
aI11
aI0
aI5
aV2419,1610612765
p1680
aa(lp1681
I200757
aVThabo Sefolosha
p1682
aI1610612760
aVOKC
p1683
aF25.0
aI66
aI26
aI40
aF0.394
aF22.0
aF2.3
aF5.4
aF0.426
aF0.4
aF1.3
aF0.276
aF0.9
aF1.1
aF0.836
aF0.8
aF2.8
aF3.7
aF1.7
aF1.0
aF1.1
aF0.7
aF0.3
aF1.6
aF1.0
aF5.9
aF-2.1
aI1
aI0
aI5
aV200757,1610612760
p1684
aa(lp1685
I201152
aVThaddeus Young
p1686
aI1610612755
aVPHI
p1687
aF21.0
aI75
aI39
aI36
aF0.52
aF34.4
aF6.3
aF12.8
aF0.495
aF0.7
aF2.2
aF0.341
aF1.9
aF2.5
aF0.735
aF1.9
aF3.2
aF5.0
aF1.1
aF1.6
aF1.3
aF0.3
aF0.7
aF2.2
aF2.1
aF15.3
aF2.0
aI2
aI0
aI5
aV201152,1610612755
p1688
aa(lp1689
I689
aVTheo Ratliff
p1690
aI1610612755
aVPHI
p1691
aF36.0
aI46
aI23
aI23
aF0.5
aF12.6
aF0.7
aF1.4
aF0.531
aF0.0
aF0.0
aF0.0
aF0.5
aF0.8
aF0.6
aF1.0
aF1.8
aF2.8
aF0.2
aF0.3
aF0.4
aF1.0
aF0.1
aF1.7
aF0.7
aF1.9
aF-0.7
aI0
aI0
aI5
aV689,1610612755
p1692
aa(lp1693
I201242
aVThomas Gardner
p1694
aI1610612737
aVATL
p1695
aF24.0
aI16
aI11
aI5
aF0.688
aF6.1
aF0.6
aF2.3
aF0.25
aF0.3
aF1.4
aF0.174
aF0.1
aF0.3
aF0.5
aF0.0
aF0.4
aF0.4
aF0.1
aF0.2
aF0.3
aF0.1
aF0.1
aF0.3
aF0.2
aF1.5
aF0.9
aI0
aI0
aI5
aV201242,1610612737
p1696
aa(lp1697
I1495
aVTim Duncan
p1698
aI1610612759
aVSAS
p1699
aF33.0
aI75
aI49
aI26
aF0.653
aF33.7
aF7.4
aF14.8
aF0.504
aF0.0
aF0.0
aF0.0
aF4.5
aF6.4
aF0.692
aF2.7
aF8.0
aF10.7
aF3.5
aF2.2
aF0.5
aF1.7
aF1.2
aF2.3
aF4.8
aF19.3
aF3.5
aI49
aI0
aI5
aV1495,1610612759
p1700
aa(lp1701
I1501
aVTim Thomas
p1702
aI1610612741
aVCHI
p1703
aF32.0
aI64
aI26
aI38
aF0.406
aF19.5
aF3.0
aF6.8
aF0.432
aF1.2
aF3.0
aF0.413
aF1.4
aF1.9
aF0.736
aF0.7
aF2.5
aF3.1
aF1.1
aF1.1
aF0.5
aF0.2
aF0.4
aF2.3
aF1.6
aF8.5
aF0.6
aI1
aI0
aI5
aV1501,1610612741
p1704
aa(lp1705
I2754
aVTony Allen
p1706
aI1610612738
aVBOS
p1707
aF27.0
aI46
aI37
aI9
aF0.804
aF19.3
aF3.0
aF6.2
aF0.482
aF0.1
aF0.6
aF0.222
aF1.7
aF2.4
aF0.725
aF0.5
aF1.8
aF2.3
aF1.4
aF1.7
aF1.2
aF0.5
aF0.6
aF2.1
aF1.9
aF7.8
aF2.2
aI0
aI0
aI5
aV2754,1610612738
p1708
aa(lp1709
I1499
aVTony Battie
p1710
aI1610612753
aVORL
p1711
aF33.0
aI77
aI55
aI22
aF0.714
aF15.6
aF2.1
aF4.2
aF0.489
aF0.0
aF0.1
aF0.222
aF0.7
aF1.1
aF0.659
aF1.2
aF2.4
aF3.6
aF0.4
aF0.6
aF0.3
aF0.3
aF0.1
aF1.5
aF0.9
aF4.8
aF1.2
aI0
aI0
aI5
aV1499,1610612753
p1712
aa(lp1713
I2225
aVTony Parker
p1714
aI1610612759
aVSAS
p1715
aF27.0
aI72
aI47
aI25
aF0.653
aF34.1
aF8.9
aF17.5
aF0.506
aF0.3
aF0.9
aF0.292
aF3.9
aF5.0
aF0.782
aF0.4
aF2.7
aF3.1
aF6.9
aF2.6
aF0.9
aF0.1
aF1.3
aF1.5
aF4.1
aF22.0
aF4.5
aI15
aI0
aI5
aV2225,1610612759
p1716
aa(lp1717
I1503
aVTracy McGrady
p1718
aI1610612745
aVHOU
p1719
aF30.0
aI35
aI20
aI15
aF0.571
aF33.8
aF5.4
aF13.9
aF0.388
aF1.3
aF3.3
aF0.376
aF3.6
aF4.5
aF0.801
aF0.6
aF3.8
aF4.4
aF5.0
aF2.0
aF1.2
aF0.4
aF0.6
aF1.1
aF3.7
aF15.6
aF2.0
aI2
aI1
aI5
aV1503,1610612745
p1720
aa(lp1721
I101143
aVTravis Diener
p1722
aI1610612754
aVIND
p1723
aF27.0
aI55
aI25
aI30
aF0.455
aF13.1
aF1.3
aF3.3
aF0.413
aF0.8
aF2.1
aF0.39
aF0.2
aF0.3
aF0.8
aF0.1
aF1.5
aF1.6
aF2.2
aF0.4
aF0.5
aF0.1
aF0.0
aF0.8
aF0.5
aF3.7
aF-0.1
aI0
aI0
aI5
aV101143,1610612754
p1724
aa(lp1725
I2566
aVTravis Outlaw
p1726
aI1610612757
aVPOR
p1727
aF24.0
aI81
aI54
aI27
aF0.667
aF27.7
aF4.8
aF10.5
aF0.453
aF1.1
aF2.9
aF0.377
aF2.2
aF3.0
aF0.723
aF0.9
aF3.2
aF4.1
aF1.0
aF1.2
aF0.6
aF0.7
aF0.6
aF2.1
aF2.2
aF12.8
aF2.0
aI2
aI0
aI5
aV2566,1610612757
p1728
aa(lp1729
I2239
aVTrenton Hassell
p1730
aI1610612751
aVNJN
p1731
aF30.0
aI53
aI17
aI36
aF0.321
aF20.7
aF1.6
aF3.6
aF0.45
aF0.0
aF0.2
aF0.25
aF0.4
aF0.5
aF0.8
aF0.9
aF1.8
aF2.8
aF1.0
aF0.6
aF0.4
aF0.3
aF0.1
aF1.7
aF0.6
aF3.7
aF-3.8
aI0
aI0
aI5
aV2239,1610612751
p1732
aa(lp1733
I2772
aVTrevor Ariza
p1734
aI1610612747
aVLAL
p1735
aF24.0
aI82
aI65
aI17
aF0.793
aF24.4
aF3.3
aF7.3
aF0.46
aF0.7
aF2.3
aF0.319
aF1.5
aF2.1
aF0.71
aF1.4
aF2.9
aF4.3
aF1.8
aF1.1
aF1.7
aF0.3
aF0.4
aF2.0
aF1.7
aF8.9
aF3.4
aI1
aI0
aI5
aV2772,1610612747
p1736
aa(lp1737
I201234
aVTrey Johnson
p1738
aI1610612739
aVCLE
p1739
aF24.0
aI4
aI4
aI0
aF1.0
aF3.5
aF0.0
aF1.3
aF0.0
aF0.0
aF0.0
aF0.0
aF1.0
aF1.0
aF1.0
aF0.0
aF0.3
aF0.3
aF0.0
aF0.3
aF0.0
aF0.0
aF0.0
aF1.0
aF0.5
aF1.0
aF-3.0
aI0
aI0
aI5
aV201234,1610612739
p1740
aa(lp1741
I2211
aVTroy Murphy
p1742
aI1610612754
aVIND
p1743
aF29.0
aI73
aI31
aI42
aF0.425
aF34.0
aF5.0
aF10.5
aF0.475
aF2.2
aF4.9
aF0.45
aF2.1
aF2.5
aF0.826
aF2.0
aF9.8
aF11.8
aF2.4
aF1.6
aF0.8
aF0.5
aF0.6
aF3.1
aF2.2
aF14.3
aF-0.7
aI49
aI0
aI5
aV2211,1610612754
p1744
aa(lp1745
I1731
aVTyronn Lue
p1746
aI1610612753
aVORL
p1747
aF32.0
aI44
aI21
aI23
aF0.477
aF11.8
aF1.6
aF3.7
aF0.438
aF0.6
aF1.4
aF0.435
aF0.3
aF0.4
aF0.737
aF0.1
aF0.9
aF1.0
aF1.4
aF0.5
aF0.2
aF0.0
aF0.2
aF1.2
aF1.0
aF4.2
aF-0.4
aI0
aI0
aI5
aV1731,1610612753
p1748
aa(lp1749
I200748
aVTyrus Thomas
p1750
aI1610612741
aVCHI
p1751
aF22.0
aI79
aI39
aI40
aF0.494
aF27.5
aF3.9
aF8.6
aF0.451
aF0.0
aF0.1
aF0.333
aF3.0
aF3.8
aF0.783
aF1.9
aF4.6
aF6.4
aF1.0
aF1.6
aF1.2
aF1.9
aF0.7
aF2.8
aF2.8
aF10.8
aF-2.4
aI18
aI0
aI5
aV200748,1610612741
p1752
aa(lp1753
I2199
aVTyson Chandler
p1754
aI1610612740
aVNOH
p1755
aF26.0
aI45
aI30
aI15
aF0.667
aF32.1
aF3.6
aF6.3
aF0.565
aF0.0
aF0.0
aF0.0
aF1.7
aF3.0
aF0.579
aF3.6
aF5.1
aF8.7
aF0.5
aF1.6
aF0.3
aF1.2
aF0.3
aF3.2
aF2.8
aF8.8
aF4.4
aI15
aI0
aI5
aV2199,1610612740
p1756
aa(lp1757
I2617
aVUdonis Haslem
p1758
aI1610612748
aVMIA
p1759
aF29.0
aI75
aI40
aI35
aF0.533
aF34.1
aF4.4
aF8.6
aF0.518
aF0.0
aF0.0
aF0.0
aF1.7
aF2.3
aF0.753
aF2.3
aF6.0
aF8.2
aF1.1
aF1.1
aF0.6
aF0.3
aF0.4
aF2.7
aF2.1
aF10.6
aF0.5
aI20
aI0
aI5
aV2617,1610612748
p1760
aa(lp1761
I1713
aVVince Carter
p1762
aI1610612751
aVNJN
p1763
aF32.0
aI80
aI34
aI46
aF0.425
aF36.8
aF7.4
aF16.8
aF0.437
aF1.9
aF4.9
aF0.385
aF4.2
aF5.1
aF0.817
aF0.9
aF4.2
aF5.1
aF4.7
aF2.1
aF1.0
aF0.5
aF0.6
aF2.9
aF4.4
aF20.8
aF-1.5
aI8
aI1
aI5
aV1713,1610612751
p1764
aa(lp1765
I2209
aVVladimir Radmanovic
p1766
aI1610612766
aVCHA
p1767
aF28.0
aI78
aI53
aI25
aF0.679
aF18.5
aF2.5
aF6.0
aF0.421
aF1.3
aF3.4
aF0.401
aF0.6
aF0.7
aF0.741
aF0.6
aF2.3
aF2.8
aF1.0
aF1.3
aF0.6
aF0.2
aF0.3
aF1.4
aF0.6
aF6.9
aF1.0
aI0
aI0
aI5
aV2209,1610612766
p1768
aa(lp1769
I101144
aVVon Wafer
p1770
aI1610612745
aVHOU
p1771
aF23.0
aI63
aI41
aI22
aF0.651
aF19.4
aF3.6
aF8.1
aF0.447
aF1.0
aF2.6
aF0.39
aF1.4
aF1.9
aF0.752
aF0.3
aF1.5
aF1.8
aF1.1
aF0.9
aF0.6
aF0.1
aF0.5
aF1.1
aF1.3
aF9.7
aF1.6
aI0
aI0
aI5
aV101144,1610612745
p1772
aa(lp1773
I1887
aVWally Szczerbiak
p1774
aI1610612739
aVCLE
p1775
aF32.0
aI74
aI60
aI14
aF0.811
aF20.6
aF2.4
aF5.4
aF0.45
aF0.9
aF2.3
aF0.411
aF1.2
aF1.4
aF0.849
aF0.6
aF2.6
aF3.1
aF1.1
aF0.7
aF0.4
aF0.1
aF0.2
aF1.8
aF1.2
aF7.0
aF1.9
aI1
aI0
aI5
aV1887,1610612739
p1776
aa(lp1777
I200835
aVWalter Herrmann
p1778
aI1610612765
aVDET
p1779
aF30.0
aI59
aI28
aI31
aF0.475
aF10.7
aF1.4
aF3.5
aF0.396
aF0.7
aF2.0
aF0.342
aF0.3
aF0.4
aF0.76
aF0.5
aF1.3
aF1.8
aF0.4
aF0.3
aF0.1
aF0.1
aF0.1
aF0.7
aF0.5
aF3.8
aF0.4
aI0
aI0
aI5
aV200835,1610612765
p1780
aa(lp1781
I201594
aVWalter Sharpe
p1782
aI1610612765
aVDET
p1783
aF22.0
aI8
aI6
aI2
aF0.75
aF2.4
aF0.5
aF1.4
aF0.364
aF0.0
aF0.3
aF0.0
aF0.0
aF0.3
aF0.0
aF0.0
aF0.4
aF0.4
aF0.0
aF0.0
aF0.0
aF0.3
aF0.0
aF0.4
aF0.3
aF1.0
aF-1.1
aI0
aI0
aI5
aV201594,1610612765
p1784
aa(lp1785
I101198
aVWill Bynum
p1786
aI1610612765
aVDET
p1787
aF26.0
aI57
aI26
aI31
aF0.456
aF14.1
aF2.7
aF6.0
aF0.456
aF0.1
aF0.3
aF0.158
aF1.7
aF2.1
aF0.798
aF0.3
aF1.0
aF1.3
aF2.8
aF1.3
aF0.6
aF0.0
aF0.6
aF1.5
aF1.6
aF7.2
aF0.7
aI1
aI0
aI5
aV101198,1610612765
p1788
aa(lp1789
I2226
aVWill Solomon
p1790
aI1610612758
aVSAC
p1791
aF30.0
aI53
aI16
aI37
aF0.302
aF13.4
aF2.0
aF4.6
aF0.429
aF0.5
aF1.6
aF0.326
aF0.5
aF0.6
aF0.735
aF0.2
aF1.0
aF1.2
aF2.5
aF1.0
aF0.5
aF0.1
aF0.2
aF1.3
aF0.6
aF5.0
aF-2.4
aI1
aI0
aI5
aV2226,1610612758
p1792
aa(lp1793
I2584
aVWillie Green
p1794
aI1610612755
aVPHI
p1795
aF27.0
aI81
aI41
aI40
aF0.506
aF22.6
aF3.5
aF8.1
aF0.435
aF0.6
aF2.0
aF0.317
aF0.8
aF1.0
aF0.729
aF0.4
aF1.2
aF1.6
aF2.0
aF0.8
aF0.7
aF0.2
aF0.4
aF1.9
aF1.0
aF8.5
aF0.0
aI0
aI0
aI5
aV2584,1610612755
p1796
aa(lp1797
I201163
aVWilson Chandler
p1798
aI1610612752
aVNYK
p1799
aF22.0
aI82
aI32
aI50
aF0.39
aF33.4
aF5.5
aF12.9
aF0.432
aF1.3
aF3.8
aF0.328
aF2.1
aF2.6
aF0.795
aF1.1
aF4.3
aF5.4
aF2.1
aF1.7
aF0.9
aF0.9
aF0.5
aF3.0
aF2.3
aF14.4
aF-2.6
aI3
aI0
aI5
aV201163,1610612752
p1800
aa(lp1801
I200821
aVYakhouba Diawara
p1802
aI1610612748
aVMIA
p1803
aF26.0
aI63
aI32
aI31
aF0.508
aF13.5
aF1.2
aF3.4
aF0.35
aF0.8
aF2.6
aF0.313
aF0.2
aF0.3
aF0.526
aF0.4
aF0.9
aF1.3
aF0.4
aF0.3
aF0.2
aF0.1
aF0.1
aF1.2
aF0.3
aF3.4
aF-0.8
aI0
aI0
aI5
aV200821,1610612748
p1804
aa(lp1805
I2397
aVYao Ming
p1806
aI1610612745
aVHOU
p1807
aF28.0
aI77
aI50
aI27
aF0.649
aF33.6
aF7.4
aF13.4
aF0.548
aF0.0
aF0.0
aF1.0
aF4.9
aF5.7
aF0.866
aF2.6
aF7.2
aF9.9
aF1.8
aF3.0
aF0.4
aF1.9
aF1.2
aF3.3
aF5.0
aF19.7
aF5.9
aI38
aI0
aI5
aV2397,1610612745
p1808
aa(lp1809
I201146
aVYi Jianlian
p1810
aI1610612751
aVNJN
p1811
aF21.0
aI61
aI26
aI35
aF0.426
aF23.3
aF3.1
aF8.2
aF0.382
aF0.8
aF2.3
aF0.343
aF1.6
aF2.0
aF0.772
aF1.1
aF4.2
aF5.3
aF1.0
aF1.1
aF0.5
aF0.6
aF0.5
aF2.6
aF1.5
aF8.6
aF-1.8
aI3
aI0
aI5
aV201146,1610612751
p1812
aa(lp1813
I2216
aVZach Randolph
p1814
aI1610612746
aVLAC
p1815
aF27.0
aI50
aI19
aI31
aF0.38
aF35.1
aF8.3
aF17.5
aF0.475
aF0.6
aF1.9
aF0.33
aF3.6
aF4.9
aF0.734
aF3.1
aF6.9
aF10.1
aF2.1
aF2.3
aF0.9
aF0.3
aF1.1
aF2.7
aF4.2
aF20.8
aF-2.9
aI29
aI0
aI5
aV2216,1610612746
p1816
aa(lp1817
I2585
aVZaza Pachulia
p1818
aI1610612737
aVATL
p1819
aF25.0
aI77
aI45
aI32
aF0.584
aF19.1
aF2.1
aF4.2
aF0.497
aF0.0
aF0.0
aF0.0
aF2.1
aF3.0
aF0.709
aF2.2
aF3.4
aF5.7
aF0.7
aF1.2
aF0.5
aF0.3
aF0.5
aF2.7
aF2.5
aF6.2
aF1.6
aI4
aI0
aI5
aV2585,1610612737
p1820
aa(lp1821
I980
aVZydrunas Ilgauskas
p1822
aI1610612739
aVCLE
p1823
aF34.0
aI65
aI55
aI10
aF0.846
aF27.2
aF5.3
aF11.1
aF0.472
aF0.2
aF0.6
aF0.385
aF2.1
aF2.7
aF0.799
aF2.4
aF5.1
aF7.5
aF1.0
aF1.4
aF0.4
aF1.3
aF0.5
aF2.8
aF1.9
aF12.9
aF7.6
aI14
aI0
aI5
aV980,1610612739
p1824
aasVname
p1825
VLeagueDashPlayerStats
p1826
sasVparameters
p1827
(dp1828
VConference
p1829
NsVPlusMinus
p1830
VN
p1831
sVGameScope
p1832
NsVTeamID
p1833
I0
sVHeight
p1834
NsVLocation
p1835
NsVStarterBench
p1836
NsVShotClockRange
p1837
NsVSeasonType
p1838
VRegular Season
p1839
sVDivision
p1840
NsVSeason
p1841
V2008-09
p1842
sVPaceAdjust
p1843
VN
p1844
sVDraftYear
p1845
NsVDateFrom
p1846
NsVPlayerPosition
p1847
NsVCountry
p1848
NsVVsConference
p1849
NsVOpponentTeamID
p1850
I0
sVDateTo
p1851
NsVGameSegment
p1852
NsVDraftPick
p1853
NsVLastNGames
p1854
I0
sVPlayerExperience
p1855
NsVVsDivision
p1856
NsVLeagueID
p1857
V00
p1858
sVOutcome
p1859
NsVMeasureType
p1860
VBase
p1861
sVWeight
p1862
NsVPORound
p1863
I0
sVPerMode
p1864
VPerGame
p1865
sVSeasonSegment
p1866
NsVPeriod
p1867
I0
sVRank
p1868
VN
p1869
sVMonth
p1870
I0
sVCollege
p1871
Nss.