cnumpy.core.multiarray
_reconstruct
p0
(cnumpy
ndarray
p1
(I0
tp2
S'b'
p3
tp4
Rp5
(I1
(I458
tp6
cnumpy
dtype
p7
(S'O8'
p8
I0
I1
tp9
Rp10
(I3
S'|'
p11
NNNI-1
I-1
I63
tp12
bI00
(lp13
(lp14
F18.080645161290324
aF1.7580645161290323
aF4.016129032258065
aF0.3557258064516129
aF0.3064516129032258
aF0.9516129032258065
aF0.19488709677419355
aF0.7096774193548387
aF1.1451612903225807
aF0.2443548387096774
aF0.5806451612903226
aF2.161290322580645
aF2.7419354838709675
aF0.8870967741935484
aF0.4838709677419355
aF0.12903225806451613
aF0.6612903225806451
aF1.8870967741935485
aF4.532258064516129
aF-2.903225806451613
aF0.5161290322580645
aI1
aI22
aa(lp15
F3.7777777777777777
aF0.4444444444444444
aF1.3333333333333333
aF0.10555555555555556
aF0.0
aF0.0
aF0.0
aF0.05555555555555555
aF0.3888888888888889
aF0.027777777777777776
aF0.2222222222222222
aF0.3333333333333333
aF0.5555555555555556
aF0.1111111111111111
aF0.2777777777777778
aF0.05555555555555555
aF0.16666666666666666
aF0.5
aF0.9444444444444444
aF-0.6111111111111112
aF0.5555555555555556
aI3
aI25
aa(lp16
F34.81818181818182
aF5.954545454545454
aF11.151515151515152
aF0.5278030303030303
aF0.0
aF0.0
aF0.0
aF2.6363636363636362
aF4.454545454545454
aF0.5522575757575758
aF3.909090909090909
aF7.4393939393939394
aF11.348484848484848
aF1.196969696969697
aF0.8484848484848485
aF2.590909090909091
aF1.6818181818181819
aF3.090909090909091
aF14.545454545454545
aF-1.7575757575757576
aF0.4393939393939394
aI2
aI24
aa(lp17
F10.826923076923077
aF1.1923076923076923
aF2.5961538461538463
aF0.3567307692307692
aF0.09615384615384616
aF0.28846153846153844
aF0.08653846153846154
aF0.46153846153846156
aF0.6730769230769231
aF0.1875
aF0.28846153846153844
aF0.6730769230769231
aF0.9615384615384616
aF0.8653846153846154
aF0.46153846153846156
aF0.07692307692307693
aF0.5769230769230769
aF1.1153846153846154
aF2.9423076923076925
aF-1.1730769230769231
aF0.34615384615384615
aI2
aI25
aa(lp18
F18.805555555555557
aF3.1666666666666665
aF6.027777777777778
aF0.5067222222222223
aF0.0
aF0.05555555555555555
aF0.0
aF1.1666666666666667
aF1.3888888888888888
aF0.45897222222222234
aF1.2222222222222223
aF2.4444444444444446
aF3.6666666666666665
aF1.0555555555555556
aF0.4722222222222222
aF0.25
aF1.1944444444444444
aF2.8055555555555554
aF7.5
aF-0.05555555555555555
aF0.3611111111111111
aI3
aI28
aa(lp19
F8.02127659574468
aF1.1914893617021276
aF2.8085106382978724
aF0.3780638297872341
aF0.0
aF0.0
aF0.0
aF0.7872340425531915
aF1.4042553191489362
aF0.26276595744680853
aF0.9148936170212766
aF1.574468085106383
aF2.4893617021276597
aF0.574468085106383
aF0.19148936170212766
aF0.23404255319148937
aF0.851063829787234
aF1.6595744680851063
aF3.1702127659574466
aF0.6170212765957447
aF0.5957446808510638
aI3
aI24
aa(lp20
F0.5
aF0.0
aF0.75
aF0.0
aF0.0
aF0.0
aF0.0
aF0.0
aF0.0
aF0.0
aF0.0
aF0.25
aF0.25
aF0.0
aF0.0
aF0.0
aF0.5
aF0.25
aF0.0
aF-2.0
aF0.75
aI0
aI22
aa(lp21
F30.71604938271605
aF5.234567901234568
aF10.234567901234568
aF0.5083456790123457
aF0.1111111111111111
aF0.38271604938271603
aF0.07201234567901235
aF1.8148148148148149
aF2.3950617283950617
aF0.5459012345679013
aF1.6419753086419753
aF4.518518518518518
aF6.160493827160494
aF0.8148148148148148
aF0.5308641975308642
aF0.7037037037037037
aF1.9506172839506173
aF2.9012345679012346
aF12.395061728395062
aF-3.3950617283950617
aF0.3950617283950617
aI6
aI31
aa(lp22
F33.86153846153846
aF5.246153846153846
aF9.507692307692308
aF0.5404923076923076
aF0.015384615384615385
aF0.07692307692307693
aF0.015384615384615385
aF1.676923076923077
aF2.923076923076923
aF0.4282307692307692
aF2.5538461538461537
aF6.2615384615384615
aF8.815384615384616
aF3.0307692307692307
aF0.7538461538461538
aF0.5384615384615384
aF2.292307692307692
aF3.292307692307692
aF12.184615384615384
aF-2.1076923076923078
aF0.36923076923076925
aI1
aI22
aa(lp23
F23.558823529411764
aF4.5588235294117645
aF9.147058823529411
aF0.48688235294117643
aF0.0
aF0.029411764705882353
aF0.0
aF2.5294117647058822
aF3.2941176470588234
aF0.5847352941176469
aF2.088235294117647
aF4.411764705882353
aF6.5
aF1.8823529411764706
aF0.5588235294117647
aF0.7058823529411765
aF1.6176470588235294
aF2.7941176470588234
aF11.647058823529411
aF-0.08823529411764706
aF0.35294117647058826
aI1
aI22
aa(lp24
F26.30909090909091
aF3.8545454545454545
aF9.309090909090909
aF0.39334545454545455
aF1.018181818181818
aF2.890909090909091
aF0.3651636363636364
aF2.381818181818182
aF2.709090909090909
aF0.6525818181818182
aF0.34545454545454546
aF1.5272727272727273
aF1.8727272727272728
aF3.5090909090909093
aF0.43636363636363634
aF0.0
aF1.509090909090909
aF1.8
aF11.10909090909091
aF-3.7818181818181817
aF0.38181818181818183
aI8
aI29
aa(lp25
F36.4025974025974
aF5.0
aF11.337662337662337
aF0.43088311688311703
aF1.2987012987012987
aF3.1298701298701297
aF0.3723376623376623
aF2.5454545454545454
aF3.051948051948052
aF0.6942727272727273
aF0.6753246753246753
aF2.7532467532467533
aF3.4285714285714284
aF2.5584415584415585
aF1.155844155844156
aF0.3116883116883117
aF1.87012987012987
aF2.3636363636363638
aF13.844155844155845
aF-0.2597402597402597
aF0.4935064935064935
aI8
aI31
aa(lp26
F9.68421052631579
aF1.1754385964912282
aF2.982456140350877
aF0.2506140350877193
aF0.3684210526315789
aF1.1228070175438596
aF0.13157894736842105
aF0.631578947368421
aF0.8947368421052632
aF0.24649122807017546
aF0.2631578947368421
aF0.9824561403508771
aF1.2456140350877194
aF0.8245614035087719
aF0.49122807017543857
aF0.07017543859649122
aF0.543859649122807
aF1.105263157894737
aF3.3508771929824563
aF-0.8771929824561403
aF0.3684210526315789
aI1
aI23
aa(lp27
F28.614035087719298
aF4.0
aF9.543859649122806
aF0.41092982456140353
aF1.3859649122807018
aF3.912280701754386
aF0.33096491228070163
aF2.1578947368421053
aF2.719298245614035
aF0.637561403508772
aF0.9122807017543859
aF3.3508771929824563
aF4.2631578947368425
aF2.56140350877193
aF0.7543859649122807
aF0.15789473684210525
aF1.5789473684210527
aF2.3859649122807016
aF11.543859649122806
aF-0.3333333333333333
aF0.49122807017543857
aI4
aI28
aa(lp28
F11.373134328358208
aF0.9402985074626866
aF2.537313432835821
aF0.24955223880597013
aF0.22388059701492538
aF0.7313432835820896
aF0.13929850746268657
aF0.5223880597014925
aF0.6119402985074627
aF0.199
aF0.6268656716417911
aF1.1492537313432836
aF1.7761194029850746
aF0.9253731343283582
aF0.3582089552238806
aF0.13432835820895522
aF0.5671641791044776
aF1.1343283582089552
aF2.626865671641791
aF-2.8059701492537314
aF0.3283582089552239
aI0
aI22
aa(lp29
F11.586206896551724
aF1.1724137931034482
aF2.8620689655172415
aF0.2717241379310345
aF0.6896551724137931
aF1.7241379310344827
aF0.27703448275862064
aF0.13793103448275862
aF0.20689655172413793
aF0.06896551724137931
aF0.3793103448275862
aF0.9655172413793104
aF1.3448275862068966
aF1.0344827586206897
aF0.41379310344827586
aF0.0
aF0.4482758620689655
aF0.6551724137931034
aF3.1724137931034484
aF-0.896551724137931
aF0.4827586206896552
aI8
aI31
aa(lp30
F5.461538461538462
aF0.8461538461538461
aF2.0
aF0.36538461538461536
aF0.07692307692307693
aF0.07692307692307693
aF0.07692307692307693
aF1.3076923076923077
aF1.5384615384615385
aF0.3140769230769231
aF0.3076923076923077
aF0.7692307692307693
aF1.0769230769230769
aF0.15384615384615385
aF0.0
aF0.15384615384615385
aF0.3076923076923077
aF1.1538461538461537
aF3.076923076923077
aF-0.9230769230769231
aF0.3076923076923077
aI6
aI27
aa(lp31
F31.666666666666668
aF6.666666666666667
aF15.083333333333334
aF0.42700000000000005
aF2.8333333333333335
aF6.5
aF0.42049999999999993
aF2.4166666666666665
aF2.9166666666666665
aF0.7395833333333334
aF0.8333333333333334
aF2.9166666666666665
aF3.75
aF0.9166666666666666
aF0.5833333333333334
aF0.3333333333333333
aF1.5833333333333333
aF2.25
aF18.583333333333332
aF1.0
aF0.6666666666666666
aI8
aI29
aa(lp32
F3.857142857142857
aF0.2857142857142857
aF1.5714285714285714
aF0.19042857142857142
aF0.14285714285714285
aF1.0
aF0.04757142857142858
aF0.0
aF0.0
aF0.0
aF0.0
aF0.14285714285714285
aF0.14285714285714285
aF1.2857142857142858
aF0.14285714285714285
aF0.0
aF0.14285714285714285
aF0.14285714285714285
aF0.7142857142857143
aF2.0
aF0.2857142857142857
aI0
aI25
aa(lp33
F8.0
aF0.45454545454545453
aF2.090909090909091
aF0.14245454545454547
aF0.0
aF0.0
aF0.0
aF0.7272727272727273
aF1.0909090909090908
aF0.29545454545454547
aF0.5454545454545454
aF1.3636363636363635
aF1.9090909090909092
aF0.45454545454545453
aF0.2727272727272727
aF0.09090909090909091
aF0.36363636363636365
aF1.0909090909090908
aF1.6363636363636365
aF1.9090909090909092
aF0.2727272727272727
aI9
aI30
aa(lp34
F34.6986301369863
aF8.821917808219178
aF15.712328767123287
aF0.5543424657534246
aF0.0
aF0.0
aF0.0
aF3.452054794520548
aF5.041095890410959
aF0.5946301369863015
aF3.2054794520547945
aF8.602739726027398
aF11.808219178082192
aF3.0136986301369864
aF0.9452054794520548
aF0.2876712328767123
aF2.6575342465753424
aF2.9726027397260273
aF21.095890410958905
aF2.410958904109589
aF0.6027397260273972
aI4
aI25
aa(lp35
F36.278481012658226
aF5.265822784810126
aF11.316455696202532
aF0.47064556962025306
aF0.06329113924050633
aF0.43037974683544306
aF0.043037974683544304
aF2.6455696202531644
aF3.392405063291139
aF0.6867088607594937
aF1.2151898734177216
aF3.1265822784810124
aF4.341772151898734
aF7.810126582278481
aF1.379746835443038
aF0.12658227848101267
aF2.759493670886076
aF2.2911392405063293
aF13.240506329113924
aF-0.26582278481012656
aF0.5316455696202531
aI7
aI30
aa(lp36
F16.338461538461537
aF1.6923076923076923
aF3.169230769230769
aF0.47812307692307704
aF0.0
aF0.0
aF0.0
aF1.323076923076923
aF2.6615384615384614
aF0.3570461538461539
aF2.3230769230769233
aF4.446153846153846
aF6.769230769230769
aF0.6923076923076923
aF0.6307692307692307
aF0.24615384615384617
aF1.4461538461538461
aF2.1846153846153844
aF4.707692307692308
aF0.6
aF0.5538461538461539
aI4
aI26
aa(lp37
F16.307692307692307
aF2.358974358974359
aF4.833333333333333
aF0.4507692307692307
aF0.11538461538461539
aF0.3974358974358974
aF0.05235897435897435
aF1.3717948717948718
aF1.641025641025641
aF0.40891025641025636
aF0.7051282051282052
aF2.4615384615384617
aF3.1666666666666665
aF0.5641025641025641
aF0.38461538461538464
aF0.05128205128205128
aF0.6153846153846154
aF2.0384615384615383
aF6.205128205128205
aF0.782051282051282
aF0.5897435897435898
aI1
aI24
aa(lp38
F26.365384615384617
aF5.134615384615385
aF11.038461538461538
aF0.45517307692307685
aF1.5
aF3.9615384615384617
aF0.38032692307692295
aF2.269230769230769
aF2.673076923076923
aF0.570826923076923
aF0.7884615384615384
aF4.865384615384615
aF5.653846153846154
aF1.0769230769230769
aF0.5192307692307693
aF0.46153846153846156
aF1.9615384615384615
aF3.0576923076923075
aF14.038461538461538
aF0.9230769230769231
aF0.5961538461538461
aI2
aI27
aa(lp39
F10.972972972972974
aF1.162162162162162
aF1.8108108108108107
aF0.4674054054054053
aF0.0
aF0.0
aF0.0
aF0.8648648648648649
aF1.2162162162162162
aF0.33897297297297296
aF1.2972972972972974
aF1.5405405405405406
aF2.8378378378378377
aF0.2702702702702703
aF0.24324324324324326
aF0.32432432432432434
aF0.32432432432432434
aF1.6756756756756757
aF3.189189189189189
aF0.08108108108108109
aF0.21621621621621623
aI11
aI34
aa(lp40
F5.625
aF0.8125
aF2.25
aF0.17709375000000002
aF0.1875
aF0.625
aF0.09375
aF0.46875
aF0.71875
aF0.203125
aF0.21875
aF0.53125
aF0.75
aF0.6875
aF0.03125
aF0.03125
aF0.40625
aF0.5625
aF2.28125
aF-1.21875
aF0.78125
aI0
aI22
aa(lp41
F20.88235294117647
aF2.514705882352941
aF6.205882352941177
aF0.3431470588235294
aF0.3382352941176471
aF1.1764705882352942
aF0.13358823529411765
aF1.2352941176470589
aF1.7058823529411764
aF0.37483823529411764
aF0.36764705882352944
aF1.2647058823529411
aF1.6323529411764706
aF2.676470588235294
aF0.6764705882352942
aF0.19117647058823528
aF1.25
aF1.3823529411764706
aF6.602941176470588
aF0.5441176470588235
aF0.6176470588235294
aI4
aI27
aa(lp42
F22.053571428571427
aF3.5357142857142856
aF6.535714285714286
aF0.5210178571428572
aF0.0
aF0.125
aF0.0
aF1.8214285714285714
aF2.9464285714285716
aF0.4763392857142857
aF1.7321428571428572
aF2.607142857142857
aF4.339285714285714
aF1.1428571428571428
aF1.0357142857142858
aF0.32142857142857145
aF1.4821428571428572
aF2.357142857142857
aF8.892857142857142
aF0.5357142857142857
aF0.5535714285714286
aI2
aI21
aa(lp43
F39.14545454545455
aF5.709090909090909
aF12.272727272727273
aF0.4633818181818182
aF0.9818181818181818
aF3.290909090909091
aF0.26912727272727277
aF3.5090909090909093
aF5.0
aF0.6226363636363638
aF1.8181818181818181
aF7.890909090909091
aF9.709090909090909
aF4.818181818181818
aF0.9636363636363636
aF0.5454545454545454
aF2.9454545454545453
aF3.2181818181818183
aF15.909090909090908
aF1.1272727272727272
aF0.5272727272727272
aI7
aI27
aa(lp44
F31.78205128205128
aF4.487179487179487
aF9.115384615384615
aF0.47732051282051274
aF0.0
aF0.05128205128205128
aF0.0
aF1.7564102564102564
aF2.576923076923077
aF0.5151282051282051
aF2.3846153846153846
aF5.897435897435898
aF8.282051282051283
aF1.2435897435897436
aF0.6282051282051282
aF0.32051282051282054
aF1.4102564102564104
aF3.0
aF10.73076923076923
aF0.3333333333333333
aF0.5512820512820513
aI3
aI26
aa(lp45
F14.019607843137255
aF1.7843137254901962
aF4.588235294117647
aF0.3013921568627451
aF0.7254901960784313
aF2.235294117647059
aF0.20719607843137255
aF0.5882352941176471
aF0.6470588235294118
aF0.28431372549019607
aF0.1568627450980392
aF0.7058823529411765
aF0.8627450980392157
aF1.6666666666666667
aF0.6666666666666666
aF0.11764705882352941
aF0.6862745098039216
aF1.0784313725490196
aF4.882352941176471
aF-1.3137254901960784
aF0.6862745098039216
aI13
aI36
aa(lp46
F14.0
aF1.8333333333333333
aF3.3333333333333335
aF0.4583333333333333
aF0.0
aF0.0
aF0.0
aF1.0
aF1.8333333333333333
aF0.36108333333333337
aF1.0
aF2.8333333333333335
aF3.8333333333333335
aF0.25
aF0.4166666666666667
aF0.8333333333333334
aF0.75
aF1.6666666666666667
aF4.666666666666667
aF1.1666666666666667
aF0.3333333333333333
aI1
aI23
aa(lp47
F16.35820895522388
aF1.2985074626865671
aF3.611940298507463
aF0.28437313432835826
aF0.7164179104477612
aF2.1492537313432836
aF0.2489850746268657
aF0.5671641791044776
aF0.9552238805970149
aF0.21811940298507465
aF1.0746268656716418
aF2.283582089552239
aF3.3582089552238807
aF1.1492537313432836
aF0.6716417910447762
aF0.6119402985074627
aF0.6417910447761194
aF1.5522388059701493
aF3.8805970149253732
aF3.044776119402985
aF0.6716417910447762
aI14
aI36
aa(lp48
F6.583333333333333
aF0.6666666666666666
aF1.3333333333333333
aF0.20558333333333334
aF0.0
aF0.0
aF0.0
aF0.08333333333333333
aF0.16666666666666666
aF0.041666666666666664
aF0.16666666666666666
aF0.5
aF0.6666666666666666
aF0.08333333333333333
aF0.0
aF0.0
aF0.75
aF1.5833333333333333
aF1.4166666666666667
aF-2.0
aF0.25
aI0
aI25
aa(lp49
F16.593220338983052
aF1.6271186440677967
aF3.830508474576271
aF0.37235593220338986
aF0.864406779661017
aF2.0508474576271185
aF0.2901016949152542
aF0.4745762711864407
aF0.6610169491525424
aF0.20789830508474577
aF0.4576271186440678
aF1.0677966101694916
aF1.5254237288135593
aF1.1355932203389831
aF0.3728813559322034
aF0.11864406779661017
aF0.7457627118644068
aF1.576271186440678
aF4.593220338983051
aF1.4406779661016949
aF0.5423728813559322
aI0
aI20
aa(lp50
F18.0
aF1.9625
aF4.4
aF0.366
aF0.025
aF0.05
aF0.01875
aF1.3375
aF1.7375
aF0.3975000000000001
aF1.6125
aF3.7
aF5.3125
aF0.525
aF0.625
aF0.4625
aF1.2
aF2.4375
aF5.2875
aF-3.1625
aF0.3625
aI0
aI23
aa(lp51
F23.285714285714285
aF3.4025974025974026
aF8.532467532467532
aF0.3867402597402597
aF1.077922077922078
aF3.883116883116883
aF0.21475324675324678
aF0.5844155844155844
aF1.3506493506493507
aF0.1712077922077922
aF1.1948051948051948
aF3.155844155844156
aF4.35064935064935
aF1.6753246753246753
aF0.6103896103896104
aF0.22077922077922077
aF1.8051948051948052
aF2.220779220779221
aF8.467532467532468
aF-0.2597402597402597
aF0.5454545454545454
aI10
aI30
aa(lp52
F13.622641509433961
aF1.7547169811320755
aF3.5849056603773586
aF0.44160377358490577
aF0.18867924528301888
aF0.5660377358490566
aF0.15722641509433963
aF0.5660377358490566
aF0.6981132075471698
aF0.24843396226415093
aF0.9811320754716981
aF2.0943396226415096
aF3.0754716981132075
aF0.33962264150943394
aF0.6037735849056604
aF0.32075471698113206
aF0.49056603773584906
aF1.849056603773585
aF4.264150943396227
aF0.1509433962264151
aF0.49056603773584906
aI3
aI26
aa(lp53
F11.846153846153847
aF0.6153846153846154
aF2.230769230769231
aF0.22307692307692306
aF0.07692307692307693
aF0.38461538461538464
aF0.038461538461538464
aF0.46153846153846156
aF0.46153846153846156
aF0.23076923076923078
aF0.38461538461538464
aF0.6153846153846154
aF1.0
aF1.3076923076923077
aF0.38461538461538464
aF0.0
aF0.8461538461538461
aF0.6153846153846154
aF1.7692307692307692
aF-1.3846153846153846
aF0.5384615384615384
aI0
aI23
aa(lp54
F17.22972972972973
aF1.1216216216216217
aF2.027027027027027
aF0.4258108108108109
aF0.0
aF0.0
aF0.0
aF0.8108108108108109
aF1.1756756756756757
aF0.30236486486486486
aF2.1621621621621623
aF4.378378378378378
aF6.54054054054054
aF0.17567567567567569
aF0.2972972972972973
aF1.027027027027027
aF0.5135135135135135
aF2.0945945945945947
aF3.054054054054054
aF1.4594594594594594
aF0.6486486486486487
aI15
aI40
aa(lp55
F19.638297872340427
aF2.765957446808511
aF6.191489361702128
aF0.36997872340425525
aF0.2765957446808511
aF0.9574468085106383
aF0.10248936170212766
aF1.574468085106383
aF2.0
aF0.404468085106383
aF0.5319148936170213
aF1.3404255319148937
aF1.872340425531915
aF0.723404255319149
aF1.0638297872340425
aF0.02127659574468085
aF0.9574468085106383
aF1.1914893617021276
aF7.382978723404255
aF-2.8297872340425534
aF0.2553191489361702
aI0
aI22
aa(lp56
F17.92452830188679
aF1.7547169811320755
aF3.9056603773584904
aF0.40879245283018883
aF0.0
aF0.03773584905660377
aF0.0
aF1.7735849056603774
aF2.4339622641509435
aF0.5249811320754717
aF1.9056603773584906
aF3.018867924528302
aF4.9245283018867925
aF0.5660377358490566
aF0.6792452830188679
aF0.24528301886792453
aF0.6792452830188679
aF2.509433962264151
aF5.283018867924528
aF-0.7169811320754716
aF0.2641509433962264
aI1
aI24
aa(lp57
F35.083333333333336
aF4.055555555555555
aF6.472222222222222
aF0.6395694444444445
aF0.0
aF0.013888888888888888
aF0.0
aF1.4722222222222223
aF2.7916666666666665
aF0.35955555555555563
aF4.416666666666667
aF8.097222222222221
aF12.51388888888889
aF0.9166666666666666
aF0.5138888888888888
aF1.7916666666666667
aF1.75
aF3.375
aF9.583333333333334
aF-0.2916666666666667
aF0.4583333333333333
aI5
aI24
aa(lp58
F36.2125
aF6.3625
aF13.1875
aF0.47243749999999995
aF2.0
aF4.5875
aF0.39018749999999996
aF2.0
aF2.4875
aF0.5855749999999998
aF0.5125
aF2.3375
aF2.85
aF5.2125
aF1.0
aF0.2125
aF1.8875
aF2.1
aF16.725
aF6.9125
aF0.825
aI7
aI29
aa(lp59
F28.096774193548388
aF5.193548387096774
aF12.483870967741936
aF0.4171290322580644
aF1.4193548387096775
aF3.4193548387096775
aF0.37767741935483873
aF3.6451612903225805
aF4.064516129032258
aF0.8329032258064515
aF0.5161290322580645
aF2.6451612903225805
aF3.161290322580645
aF1.7096774193548387
aF0.5806451612903226
aF0.0967741935483871
aF1.7419354838709677
aF2.096774193548387
aF15.451612903225806
aF-1.3225806451612903
aF0.3548387096774194
aI7
aI29
aa(lp60
F18.70909090909091
aF2.8363636363636364
aF6.8545454545454545
aF0.3314545454545455
aF0.0
aF0.01818181818181818
aF0.0
aF1.5272727272727273
aF1.7636363636363637
aF0.4909090909090909
aF1.0909090909090908
aF2.309090909090909
aF3.4
aF1.018181818181818
aF0.38181818181818183
aF0.12727272727272726
aF1.1818181818181819
aF1.6
aF7.2
aF-2.690909090909091
aF0.4
aI6
aI31
aa(lp61
F15.8125
aF1.9125
aF4.6375
aF0.3318499999999999
aF0.875
aF2.625
aF0.23754999999999998
aF0.9125
aF1.1625
aF0.350175
aF0.4125
aF1.2375
aF1.65
aF2.3625
aF0.875
aF0.075
aF0.9375
aF1.2625
aF5.6125
aF-0.6
aF0.425
aI12
aI38
aa(lp62
F26.464788732394368
aF4.197183098591549
aF9.67605633802817
aF0.4155492957746479
aF0.04225352112676056
aF0.2535211267605634
aF0.04225352112676056
aF1.1971830985915493
aF1.5211267605633803
aF0.41550704225352114
aF1.2816901408450705
aF4.211267605633803
aF5.492957746478873
aF0.9436619718309859
aF0.5070422535211268
aF0.5915492957746479
aF1.3943661971830985
aF3.0
aF9.633802816901408
aF-1.7605633802816902
aF0.39436619718309857
aI1
aI23
aa(lp63
F16.6
aF2.45
aF5.5
aF0.38760000000000006
aF0.85
aF1.975
aF0.322475
aF1.525
aF1.95
aF0.37477499999999997
aF0.65
aF1.675
aF2.325
aF0.675
aF0.55
aF0.25
aF0.95
aF1.2
aF7.275
aF-3.85
aF0.425
aI0
aI23
aa(lp64
F7.75
aF0.0
aF1.0
aF0.0
aF0.0
aF0.0
aF0.0
aF0.5
aF1.5
aF0.1875
aF0.25
aF1.75
aF2.0
aF0.0
aF0.0
aF0.0
aF0.5
aF0.75
aF0.5
aF-3.0
aF0.25
aI0
aI20
aa(lp65
F31.055555555555557
aF4.138888888888889
aF7.736111111111111
aF0.5178611111111111
aF0.20833333333333334
aF0.6111111111111112
aF0.14119444444444446
aF1.125
aF1.6388888888888888
aF0.43424999999999997
aF1.25
aF3.125
aF4.375
aF4.805555555555555
aF0.3888888888888889
aF0.5277777777777778
aF2.111111111111111
aF2.4166666666666665
aF9.61111111111111
aF2.9166666666666665
aF0.7638888888888888
aI3
aI24
aa(lp66
F32.81481481481482
aF7.432098765432099
aF12.876543209876543
aF0.5699135802469134
aF0.0
aF0.037037037037037035
aF0.0
aF5.567901234567901
aF7.148148148148148
aF0.7501234567901233
aF2.728395061728395
aF6.938271604938271
aF9.666666666666666
aF1.037037037037037
aF0.9506172839506173
aF1.3333333333333333
aF2.8395061728395063
aF3.580246913580247
aF20.432098765432098
aF5.654320987654321
aF0.7530864197530864
aI4
aI24
aa(lp67
F8.53061224489796
aF1.0204081632653061
aF2.816326530612245
aF0.3093877551020408
aF0.32653061224489793
aF1.183673469387755
aF0.1993265306122449
aF0.8367346938775511
aF1.0408163265306123
aF0.2725102040816326
aF0.12244897959183673
aF0.7142857142857143
aF0.8367346938775511
aF1.2653061224489797
aF0.2653061224489796
aF0.02040816326530612
aF0.5306122448979592
aF1.0816326530612246
aF3.204081632653061
aF0.9183673469387755
aF0.42857142857142855
aI4
aI28
aa(lp68
F11.318181818181818
aF1.9090909090909092
aF4.431818181818182
aF0.3880681818181818
aF0.11363636363636363
aF0.6590909090909091
aF0.10227272727272728
aF1.0909090909090908
aF1.3636363636363635
aF0.3261363636363636
aF0.22727272727272727
aF0.6363636363636364
aF0.8636363636363636
aF1.3409090909090908
aF0.5227272727272727
aF0.06818181818181818
aF0.9090909090909091
aF1.5681818181818181
aF5.0227272727272725
aF-3.159090909090909
aF0.7045454545454546
aI3
aI25
aa(lp69
F12.074074074074074
aF1.5555555555555556
aF3.111111111111111
aF0.3784074074074074
aF0.6666666666666666
aF1.6296296296296295
aF0.23459259259259257
aF0.8888888888888888
aF0.9259259259259259
aF0.3148148148148148
aF0.48148148148148145
aF1.6666666666666667
aF2.1481481481481484
aF1.1111111111111112
aF0.8148148148148148
aF0.037037037037037035
aF0.8148148148148148
aF1.4814814814814814
aF4.666666666666667
aF-1.3333333333333333
aF0.2222222222222222
aI6
aI29
aa(lp70
F22.56
aF3.08
aF7.16
aF0.4030933333333331
aF0.6266666666666667
aF1.7466666666666666
aF0.2966666666666667
aF1.6266666666666667
aF2.066666666666667
aF0.45865333333333336
aF1.2266666666666666
aF1.6933333333333334
aF2.92
aF0.9733333333333334
aF0.5066666666666667
aF0.18666666666666668
aF0.7466666666666667
aF1.6533333333333333
aF8.413333333333334
aF-0.02666666666666667
aF0.5066666666666667
aI5
aI28
aa(lp71
F32.21621621621622
aF4.8108108108108105
aF11.35135135135135
aF0.4187702702702701
aF1.3918918918918919
aF3.9594594594594597
aF0.3181216216216215
aF1.4594594594594594
aF1.8243243243243243
aF0.45772972972972975
aF1.2162162162162162
aF6.0675675675675675
aF7.283783783783784
aF1.7027027027027026
aF1.0135135135135136
aF1.5945945945945945
aF1.2702702702702702
aF3.027027027027027
aF12.472972972972974
aF3.0135135135135136
aF0.6351351351351351
aI11
aI32
aa(lp72
F16.303030303030305
aF2.1818181818181817
aF5.7272727272727275
aF0.25560606060606067
aF0.8484848484848485
aF2.393939393939394
aF0.2183030303030303
aF0.7878787878787878
aF0.9696969696969697
aF0.2626363636363636
aF0.24242424242424243
aF1.2121212121212122
aF1.4545454545454546
aF2.121212121212121
aF0.42424242424242425
aF0.06060606060606061
aF1.1515151515151516
aF0.696969696969697
aF6.0
aF-1.5454545454545454
aF0.42424242424242425
aI9
aI30
aa(lp73
F8.2
aF0.75
aF2.2
aF0.34080000000000005
aF0.0
aF0.05
aF0.0
aF0.6
aF0.8
aF0.25
aF0.65
aF1.45
aF2.1
aF0.15
aF0.1
aF0.15
aF0.5
aF0.8
aF2.1
aF-0.5
aF0.35
aI1
aI21
aa(lp74
F6.702702702702703
aF0.972972972972973
aF1.7567567567567568
aF0.3402972972972973
aF0.0
aF0.0
aF0.0
aF0.24324324324324326
aF0.3783783783783784
aF0.14189189189189189
aF0.6756756756756757
aF1.2162162162162162
aF1.8918918918918919
aF0.02702702702702703
aF0.16216216216216217
aF0.08108108108108109
aF0.7567567567567568
aF0.6756756756756757
aF2.189189189189189
aF-0.24324324324324326
aF0.43243243243243246
aI0
aI25
aa(lp75
F17.303030303030305
aF2.6818181818181817
aF5.803030303030303
aF0.4237121212121212
aF0.36363636363636365
aF1.0151515151515151
aF0.22851515151515153
aF0.7727272727272727
aF1.2878787878787878
aF0.26515151515151514
aF0.5909090909090909
aF1.303030303030303
aF1.893939393939394
aF0.3939393939393939
aF0.5606060606060606
aF0.3484848484848485
aF0.6363636363636364
aF1.7575757575757576
aF6.5
aF-1.9545454545454546
aF0.3484848484848485
aI0
aI22
aa(lp76
F22.681818181818183
aF3.227272727272727
aF7.212121212121212
aF0.40081818181818196
aF0.8636363636363636
aF2.1818181818181817
aF0.30286363636363633
aF1.5151515151515151
aF1.9090909090909092
aF0.5168787878787879
aF0.3333333333333333
aF2.0
aF2.3333333333333335
aF1.5151515151515151
aF0.803030303030303
aF0.24242424242424243
aF1.4696969696969697
aF2.1515151515151514
aF8.833333333333334
aF3.606060606060606
aF0.6212121212121212
aI3
aI23
aa(lp77
F27.52857142857143
aF2.657142857142857
aF6.171428571428572
aF0.4097571428571428
aF1.3857142857142857
aF3.7
aF0.3103
aF1.1571428571428573
aF1.4
aF0.425
aF0.9285714285714286
aF4.1
aF5.0285714285714285
aF1.3285714285714285
aF1.0142857142857142
aF0.32857142857142857
aF0.7857142857142857
aF2.7285714285714286
aF7.857142857142857
aF-0.42857142857142855
aF0.5714285714285714
aI7
aI29
aa(lp78
F18.92452830188679
aF1.4528301886792452
aF3.5849056603773586
aF0.3601698113207547
aF0.8301886792452831
aF2.056603773584906
aF0.3030943396226415
aF0.33962264150943394
aF0.4339622641509434
aF0.12735849056603774
aF0.4528301886792453
aF1.490566037735849
aF1.9433962264150944
aF1.1132075471698113
aF0.4339622641509434
aF0.32075471698113206
aF0.8113207547169812
aF2.452830188679245
aF4.0754716981132075
aF-1.3962264150943395
aF0.3584905660377358
aI5
aI28
aa(lp79
F35.10294117647059
aF7.220588235294118
aF16.558823529411764
aF0.43264705882352944
aF0.0
aF0.10294117647058823
aF0.0
aF4.955882352941177
aF6.470588235294118
aF0.7128970588235296
aF2.235294117647059
aF7.411764705882353
aF9.647058823529411
aF2.3970588235294117
aF0.7352941176470589
aF2.6323529411764706
aF2.9411764705882355
aF3.3676470588235294
aF19.397058823529413
aF0.1323529411764706
aF0.47058823529411764
aI10
aI28
aa(lp80
F26.257575757575758
aF4.166666666666667
aF8.409090909090908
aF0.4547121212121213
aF1.6363636363636365
aF3.1666666666666665
aF0.45713636363636356
aF0.9696969696969697
aF1.0909090909090908
aF0.41995454545454547
aF0.3939393939393939
aF2.287878787878788
aF2.6818181818181817
aF1.2121212121212122
aF0.5606060606060606
aF0.030303030303030304
aF1.0454545454545454
aF2.0
aF10.93939393939394
aF0.09090909090909091
aF0.5151515151515151
aI3
aI25
aa(lp81
F37.07936507936508
aF6.0
aF13.682539682539682
aF0.43044444444444446
aF0.7936507936507936
aF2.253968253968254
aF0.340984126984127
aF4.634920634920635
aF5.666666666666667
aF0.7713333333333331
aF0.8412698412698413
aF3.5555555555555554
aF4.396825396825397
aF8.873015873015873
aF1.8412698412698412
aF0.047619047619047616
aF2.492063492063492
aF2.3968253968253967
aF17.428571428571427
aF-0.8571428571428571
aF0.47619047619047616
aI1
aI21
aa(lp82
F11.274193548387096
aF1.2580645161290323
aF2.7903225806451615
aF0.32024193548387103
aF0.0
aF0.03225806451612903
aF0.0
aF1.6612903225806452
aF2.274193548387097
aF0.485741935483871
aF1.5
aF1.8709677419354838
aF3.370967741935484
aF0.16129032258064516
aF0.22580645161290322
aF0.3548387096774194
aF0.7580645161290323
aF1.6451612903225807
aF4.17741935483871
aF-0.6451612903225806
aF0.3064516129032258
aI0
aI22
aa(lp83
F26.746835443037973
aF3.810126582278481
aF8.215189873417721
aF0.4395189873417722
aF0.0
aF0.0
aF0.0
aF1.9113924050632911
aF2.329113924050633
aF0.5534936708860758
aF1.7468354430379747
aF4.151898734177215
aF5.89873417721519
aF1.6582278481012658
aF0.34177215189873417
aF0.10126582278481013
aF1.3924050632911393
aF2.5316455696202533
aF9.531645569620252
aF0.8734177215189873
aF0.6582278481012658
aI12
aI33
aa(lp84
F21.554054054054053
aF2.7162162162162162
aF5.648648648648648
aF0.4245675675675676
aF1.7162162162162162
aF3.824324324324324
aF0.37577027027027027
aF1.3918918918918919
aF1.5810810810810811
aF0.5802972972972974
aF0.22972972972972974
aF1.8918918918918919
aF2.1216216216216215
aF1.8243243243243243
aF0.7432432432432432
aF0.16216216216216217
aF0.7972972972972973
aF1.1891891891891893
aF8.54054054054054
aF3.2432432432432434
aF0.7162162162162162
aI11
aI35
aa(lp85
F33.31645569620253
aF6.151898734177215
aF13.329113924050633
aF0.45791139240506323
aF1.6075949367088607
aF4.215189873417722
aF0.3535443037974683
aF3.721518987341772
aF4.8734177215189876
aF0.692405063291139
aF2.0126582278481013
aF5.253164556962025
aF7.265822784810126
aF1.9493670886075949
aF0.45569620253164556
aF0.4810126582278481
aF1.5822784810126582
aF3.240506329113924
aF17.632911392405063
aF0.5569620253164557
aF0.6075949367088608
aI4
aI27
aa(lp86
F24.385964912280702
aF4.473684210526316
aF10.807017543859649
aF0.3703508771929825
aF0.5614035087719298
aF1.912280701754386
aF0.1736666666666667
aF2.7719298245614037
aF3.1578947368421053
aF0.6919122807017543
aF0.47368421052631576
aF2.43859649122807
aF2.912280701754386
aF4.719298245614035
aF0.47368421052631576
aF0.14035087719298245
aF1.719298245614035
aF2.1578947368421053
aF12.280701754385966
aF1.456140350877193
aF0.543859649122807
aI13
aI37
aa(lp87
F29.271428571428572
aF4.3
aF9.9
aF0.40099999999999997
aF0.7
aF1.9857142857142858
aF0.2733428571428571
aF1.8142857142857143
aF2.242857142857143
aF0.5897285714285714
aF0.4
aF1.9428571428571428
aF2.342857142857143
aF5.185714285714286
aF1.1714285714285715
aF0.2714285714285714
aF2.2285714285714286
aF2.585714285714286
aF11.114285714285714
aF-2.2857142857142856
aF0.4142857142857143
aI3
aI25
aa(lp88
F15.0625
aF2.125
aF4.625
aF0.33106250000000004
aF0.3125
aF1.25
aF0.11975
aF1.1875
aF1.4375
aF0.2645625
aF0.6875
aF1.1875
aF1.875
aF1.25
aF0.4375
aF0.0
aF1.375
aF1.9375
aF5.75
aF-0.6875
aF0.4375
aI1
aI24
aa(lp89
F31.37037037037037
aF5.296296296296297
aF10.0
aF0.5316543209876543
aF0.0
aF0.07407407407407407
aF0.0
aF2.925925925925926
aF4.283950617283951
aF0.5815308641975309
aF2.197530864197531
aF5.530864197530864
aF7.728395061728395
aF1.0123456790123457
aF0.8641975308641975
aF0.4567901234567901
aF1.5555555555555556
aF3.0617283950617282
aF13.518518518518519
aF-0.5679012345679012
aF0.38271604938271603
aI4
aI24
aa(lp90
F20.571428571428573
aF3.4761904761904763
aF8.063492063492063
aF0.3708253968253968
aF1.2857142857142858
aF3.3174603174603177
aF0.2843015873015873
aF1.7142857142857142
aF2.1904761904761907
aF0.48211111111111105
aF0.8571428571428571
aF1.507936507936508
aF2.365079365079365
aF1.4126984126984128
aF0.7936507936507936
aF0.09523809523809523
aF1.126984126984127
aF2.4761904761904763
aF9.952380952380953
aF-0.5873015873015873
aF0.3492063492063492
aI1
aI22
aa(lp91
F25.644736842105264
aF4.197368421052632
aF8.592105263157896
aF0.47663157894736846
aF0.17105263157894737
aF0.5131578947368421
aF0.1118421052631579
aF3.0921052631578947
aF4.0394736842105265
aF0.6792631578947369
aF1.5394736842105263
aF3.0789473684210527
aF4.618421052631579
aF1.2894736842105263
aF0.6842105263157895
aF0.14473684210526316
aF1.5526315789473684
aF3.026315789473684
aF11.657894736842104
aF2.8684210526315788
aF0.631578947368421
aI8
aI30
aa(lp92
F22.727272727272727
aF3.5757575757575757
aF8.318181818181818
aF0.4009090909090908
aF0.15151515151515152
aF0.5454545454545454
aF0.09596969696969697
aF1.9242424242424243
aF2.5
aF0.4851666666666667
aF0.9696969696969697
aF2.1666666666666665
aF3.1363636363636362
aF0.7727272727272727
aF0.8939393939393939
aF1.121212121212121
aF0.9545454545454546
aF2.257575757575758
aF9.227272727272727
aF-1.803030303030303
aF0.3787878787878788
aI3
aI22
aa(lp93
F40.922077922077925
aF9.909090909090908
aF20.818181818181817
aF0.47250649350649343
aF1.2727272727272727
aF3.9740259740259742
aF0.28036363636363637
aF6.285714285714286
aF8.974025974025974
aF0.6806103896103891
aF1.077922077922078
aF5.688311688311688
aF6.766233766233766
aF5.987012987012987
aF1.5974025974025974
aF0.7142857142857143
aF3.220779220779221
aF2.1948051948051948
aF27.376623376623378
aF4.597402597402597
aF0.5974025974025974
aI3
aI22
aa(lp94
F40.2
aF5.866666666666666
aF13.053333333333333
aF0.4601466666666666
aF0.6266666666666667
aF2.026666666666667
aF0.23937333333333338
aF5.933333333333334
aF7.2
aF0.7822666666666664
aF1.0133333333333334
aF4.733333333333333
aF5.746666666666667
aF5.693333333333333
aF1.9866666666666666
aF0.44
aF3.3866666666666667
aF2.6666666666666665
aF18.293333333333333
aF-2.6133333333333333
aF0.4
aI2
aI22
aa(lp95
F4.8
aF0.6
aF1.0
aF0.4666
aF0.0
aF0.0
aF0.0
aF0.0
aF0.0
aF0.0
aF0.2
aF0.6
aF0.8
aF1.4
aF0.0
aF0.0
aF0.8
aF0.8
aF1.2
aF-0.4
aF0.8
aI2
aI24
aa(lp96
F13.492957746478874
aF1.8873239436619718
aF3.9577464788732395
aF0.41645070422535213
aF0.0
aF0.028169014084507043
aF0.0
aF1.4647887323943662
aF2.408450704225352
aF0.4040985915492957
aF1.2535211267605635
aF2.507042253521127
aF3.76056338028169
aF0.5492957746478874
aF0.6338028169014085
aF1.0704225352112675
aF1.3098591549295775
aF2.2535211267605635
aF5.23943661971831
aF2.183098591549296
aF0.6197183098591549
aI0
aI20
aa(lp97
F23.419753086419753
aF1.6296296296296295
aF3.925925925925926
aF0.3458271604938271
aF0.0
aF0.04938271604938271
aF0.0
aF0.8765432098765432
aF1.382716049382716
aF0.3039135802469136
aF0.41975308641975306
aF1.8518518518518519
aF2.271604938271605
aF4.037037037037037
aF0.6790123456790124
aF0.19753086419753085
aF1.3703703703703705
aF2.259259259259259
aF4.135802469135802
aF-0.2839506172839506
aF0.6049382716049383
aI11
aI33
aa(lp98
F12.127272727272727
aF1.5636363636363637
aF3.5636363636363635
aF0.3209636363636364
aF0.07272727272727272
aF0.4909090909090909
aF0.04241818181818182
aF0.509090909090909
aF0.8545454545454545
aF0.17545454545454547
aF1.3818181818181818
aF2.036363636363636
aF3.418181818181818
aF0.6727272727272727
aF0.3090909090909091
aF0.5818181818181818
aF0.8545454545454545
aF1.6545454545454545
aF3.709090909090909
aF-1.5818181818181818
aF0.4727272727272727
aI1
aI20
aa(lp99
F8.592592592592593
aF0.9259259259259259
aF2.185185185185185
aF0.30492592592592593
aF0.0
aF0.0
aF0.0
aF0.5185185185185185
aF0.9259259259259259
aF0.16666666666666666
aF0.7777777777777778
aF1.4814814814814814
aF2.259259259259259
aF0.2962962962962963
aF0.2222222222222222
aF0.07407407407407407
aF0.6296296296296297
aF1.2592592592592593
aF2.3703703703703702
aF1.6296296296296295
aF0.5925925925925926
aI2
aI26
aa(lp100
F30.405405405405407
aF4.864864864864865
aF10.702702702702704
aF0.4579324324324324
aF0.16216216216216217
aF0.8513513513513513
aF0.09797297297297297
aF6.9324324324324325
aF8.432432432432432
aF0.795243243243243
aF1.1486486486486487
aF4.675675675675675
aF5.824324324324325
aF2.7567567567567566
aF0.8648648648648649
aF0.17567567567567569
aF2.7027027027027026
aF3.27027027027027
aF16.824324324324323
aF1.1756756756756757
aF0.5
aI7
aI27
aa(lp101
F16.916666666666668
aF2.8333333333333335
aF6.833333333333333
aF0.3747
aF0.8166666666666667
aF2.4
aF0.2352
aF1.0166666666666666
aF1.1333333333333333
aF0.34458333333333335
aF0.1
aF1.1166666666666667
aF1.2166666666666666
aF1.0
aF0.3333333333333333
aF0.016666666666666666
aF0.9
aF1.4
aF7.5
aF-1.9333333333333333
aF0.35
aI1
aI24
aa(lp102
F15.183098591549296
aF2.028169014084507
aF3.704225352112676
aF0.4877605633802816
aF0.0
aF0.014084507042253521
aF0.0
aF1.2535211267605635
aF1.8873239436619718
aF0.4064507042253522
aF1.2394366197183098
aF2.3943661971830985
aF3.6338028169014085
aF0.8873239436619719
aF0.23943661971830985
aF1.0845070422535212
aF0.7323943661971831
aF2.816901408450704
aF5.309859154929577
aF0.22535211267605634
aF0.4788732394366197
aI1
aI23
aa(lp103
F32.328947368421055
aF7.381578947368421
aF14.144736842105264
aF0.5140657894736845
aF0.19736842105263158
aF0.47368421052631576
aF0.12061842105263158
aF3.539473684210526
aF4.5394736842105265
aF0.6596710526315789
aF0.4473684210526316
aF2.8026315789473686
aF3.25
aF5.5
aF1.0789473684210527
aF0.07894736842105263
aF2.4473684210526314
aF1.8026315789473684
aF18.5
aF6.7368421052631575
aF0.7236842105263158
aI5
aI24
aa(lp104
F11.1
aF0.7
aF2.1
aF0.25830000000000003
aF0.0
aF0.0
aF0.0
aF0.3
aF0.5
aF0.075
aF0.8
aF1.5
aF2.3
aF0.1
aF0.1
aF0.4
aF0.4
aF2.5
aF1.7
aF0.0
aF0.4
aI1
aI25
aa(lp105
F33.43589743589744
aF4.076923076923077
aF8.948717948717949
aF0.44258974358974346
aF0.8076923076923077
aF2.282051282051282
aF0.32610256410256405
aF3.1025641025641026
aF3.551282051282051
aF0.722423076923077
aF0.23076923076923078
aF2.371794871794872
aF2.6025641025641026
aF5.3076923076923075
aF1.1025641025641026
aF0.11538461538461539
aF2.3333333333333335
aF2.5384615384615383
aF12.064102564102564
aF-3.576923076923077
aF0.38461538461538464
aI1
aI23
aa(lp106
F18.607142857142858
aF2.0
aF4.785714285714286
aF0.37471428571428567
aF0.25
aF0.9285714285714286
aF0.11607142857142858
aF1.1071428571428572
aF1.6428571428571428
aF0.48214285714285715
aF0.42857142857142855
aF1.9642857142857142
aF2.392857142857143
aF3.0
aF0.75
aF0.07142857142857142
aF1.75
aF2.6785714285714284
aF5.357142857142857
aF-1.1071428571428572
aF0.25
aI4
aI26
aa(lp107
F22.36842105263158
aF2.539473684210526
aF4.592105263157895
aF0.5043421052631578
aF0.0
aF0.0
aF0.0
aF1.5
aF2.723684210526316
aF0.4597368421052631
aF2.5526315789473686
aF3.6710526315789473
aF6.223684210526316
aF0.618421052631579
aF0.4473684210526316
aF1.118421052631579
aF1.1710526315789473
aF2.6842105263157894
aF6.578947368421052
aF0.7894736842105263
aF0.5
aI5
aI27
aa(lp108
F11.08
aF1.32
aF3.16
aF0.36056000000000005
aF0.68
aF1.96
aF0.24980000000000005
aF0.48
aF0.6
aF0.16668
aF0.12
aF0.56
aF0.68
aF1.4
aF0.16
aF0.0
aF0.52
aF1.08
aF3.8
aF0.28
aF0.48
aI1
aI24
aa(lp109
F12.517241379310345
aF2.103448275862069
aF4.362068965517241
aF0.3757931034482759
aF0.0
aF0.0
aF0.0
aF1.8793103448275863
aF2.310344827586207
aF0.4962931034482758
aF1.2586206896551724
aF2.103448275862069
aF3.3620689655172415
aF0.43103448275862066
aF0.13793103448275862
aF0.4482758620689655
aF1.1206896551724137
aF2.0344827586206895
aF6.086206896551724
aF-0.7413793103448276
aF0.3793103448275862
aI1
aI23
aa(lp110
F10.536585365853659
aF1.146341463414634
aF3.097560975609756
aF0.26002439024390245
aF0.4634146341463415
aF1.3658536585365855
aF0.20529268292682926
aF0.5609756097560976
aF0.8536585365853658
aF0.19717073170731705
aF0.14634146341463414
aF0.5121951219512195
aF0.6585365853658537
aF1.5365853658536586
aF0.34146341463414637
aF0.0
aF0.4878048780487805
aF0.7317073170731707
aF3.317073170731707
aF0.4146341463414634
aF0.43902439024390244
aI0
aI23
aa(lp111
F14.944444444444445
aF1.7222222222222223
aF4.694444444444445
aF0.3090833333333334
aF0.5555555555555556
aF1.9722222222222223
aF0.15091666666666667
aF1.1111111111111112
aF1.6111111111111112
aF0.3726666666666667
aF0.3888888888888889
aF0.9166666666666666
aF1.3055555555555556
aF1.0555555555555556
aF0.7222222222222222
aF0.19444444444444445
aF1.0555555555555556
aF1.9166666666666667
aF5.111111111111111
aF0.2222222222222222
aF0.2777777777777778
aI1
aI22
aa(lp112
F35.357142857142854
aF6.089285714285714
aF13.446428571428571
aF0.4473035714285715
aF0.9464285714285714
aF2.5535714285714284
aF0.3451607142857143
aF3.607142857142857
aF4.303571428571429
aF0.7306071428571429
aF1.0178571428571428
aF3.3392857142857144
aF4.357142857142857
aF4.053571428571429
aF1.1964285714285714
aF0.17857142857142858
aF2.0
aF2.4464285714285716
aF16.732142857142858
aF-3.0892857142857144
aF0.4107142857142857
aI0
aI22
aa(lp113
F18.0
aF1.9090909090909092
aF3.9242424242424243
aF0.48971212121212127
aF0.0
aF0.015151515151515152
aF0.0
aF0.803030303030303
aF1.0151515151515151
aF0.32398484848484854
aF1.2878787878787878
aF4.393939393939394
aF5.681818181818182
aF0.36363636363636365
aF0.36363636363636365
aF0.4090909090909091
aF0.5303030303030303
aF2.303030303030303
aF4.621212121212121
aF3.742424242424242
aF0.7727272727272727
aI11
aI34
aa(lp114
F28.15909090909091
aF3.340909090909091
aF8.022727272727273
aF0.3636590909090909
aF0.022727272727272728
aF0.4090909090909091
aF0.022727272727272728
aF2.2954545454545454
aF2.8181818181818183
aF0.6076818181818182
aF0.3181818181818182
aF2.2954545454545454
aF2.6136363636363638
aF6.431818181818182
aF1.4545454545454546
aF0.06818181818181818
aF2.1363636363636362
aF2.5454545454545454
aF9.0
aF-2.1818181818181817
aF0.38636363636363635
aI9
aI31
aa(lp115
F33.270833333333336
aF4.708333333333333
aF11.229166666666666
aF0.37533333333333335
aF1.9791666666666667
aF5.291666666666667
aF0.30064583333333333
aF1.7291666666666667
aF2.5
aF0.4364166666666667
aF1.3541666666666667
aF5.958333333333333
aF7.3125
aF2.25
aF0.75
aF0.14583333333333334
aF1.4583333333333333
aF2.75
aF13.125
aF-1.3125
aF0.4375
aI6
aI26
aa(lp116
F18.1375
aF0.8625
aF1.8375
aF0.4343375000000001
aF0.0
aF0.0125
aF0.0
aF0.6
aF1.075
aF0.24248750000000002
aF2.0625
aF3.3625
aF5.425
aF0.3625
aF0.5
aF1.35
aF0.7625
aF3.0125
aF2.325
aF0.85
aF0.8125
aI5
aI24
aa(lp117
F30.046875
aF5.234375
aF10.140625
aF0.49757812500000004
aF0.03125
aF0.1875
aF0.0234375
aF3.828125
aF4.984375
aF0.6589687500000001
aF0.828125
aF2.828125
aF3.65625
aF2.109375
aF0.9375
aF0.375
aF2.25
aF2.25
aF14.328125
aF-1.25
aF0.46875
aI12
aI34
aa(lp118
F29.93846153846154
aF4.8
aF11.6
aF0.38324615384615385
aF1.3846153846153846
aF3.5692307692307694
aF0.3228769230769231
aF3.3692307692307693
aF3.753846153846154
aF0.707276923076923
aF0.7538461538461538
aF1.353846153846154
aF2.1076923076923078
aF4.369230769230769
aF0.8461538461538461
aF0.03076923076923077
aF1.8
aF1.3846153846153846
aF14.353846153846154
aF-3.723076923076923
aF0.3230769230769231
aI8
aI30
aa(lp119
F31.530864197530864
aF4.679012345679013
aF10.358024691358025
aF0.44660493827160497
aF0.8518518518518519
aF2.740740740740741
aF0.2735925925925926
aF2.5308641975308643
aF3.234567901234568
aF0.6415555555555554
aF1.0246913580246915
aF4.246913580246914
aF5.271604938271605
aF2.802469135802469
aF1.0246913580246915
aF0.2716049382716049
aF1.8024691358024691
aF2.4444444444444446
aF12.74074074074074
aF-1.0246913580246915
aF0.41975308641975306
aI4
aI26
aa(lp120
F38.5
aF7.852941176470588
aF15.852941176470589
aF0.49695588235294125
aF0.16176470588235295
aF0.4852941176470588
aF0.13970588235294118
aF6.75
aF8.617647058823529
aF0.7513676470588235
aF2.7058823529411766
aF8.058823529411764
aF10.764705882352942
aF2.5
aF0.5588235294117647
aF1.2941176470588236
aF2.588235294117647
aF2.323529411764706
aF22.61764705882353
aF2.7205882352941178
aF0.6029411764705882
aI3
aI22
aa(lp121
F15.24
aF2.34
aF4.32
aF0.49790000000000006
aF0.0
aF0.0
aF0.0
aF1.0
aF1.64
aF0.36866
aF1.78
aF2.78
aF4.56
aF0.18
aF0.54
aF0.78
aF0.86
aF2.6
aF5.68
aF-0.56
aF0.66
aI8
aI29
aa(lp122
F4.0
aF0.0
aF1.0
aF0.0
aF0.0
aF1.0
aF0.0
aF0.0
aF0.0
aF0.0
aF0.0
aF0.0
aF0.0
aF3.0
aF1.0
aF0.0
aF1.0
aF0.0
aF0.0
aF-3.0
aF1.0
aI9
aI32
aa(lp123
F14.659574468085106
aF1.446808510638298
aF3.8085106382978724
aF0.2584468085106383
aF0.3191489361702128
aF0.8936170212765957
aF0.1595744680851064
aF1.4680851063829787
aF1.6595744680851063
aF0.40704255319148935
aF0.0851063829787234
aF0.7446808510638298
aF0.8297872340425532
aF1.851063829787234
aF0.5106382978723404
aF0.10638297872340426
aF0.9787234042553191
aF1.0212765957446808
aF4.680851063829787
aF-0.6808510638297872
aF0.3617021276595745
aI3
aI27
aa(lp124
F21.91358024691358
aF3.0
aF5.407407407407407
aF0.560679012345679
aF0.0
aF0.037037037037037035
aF0.0
aF1.7530864197530864
aF2.6296296296296298
aF0.486925925925926
aF1.7037037037037037
aF4.234567901234568
aF5.938271604938271
aF1.1604938271604939
aF0.14814814814814814
aF1.5555555555555556
aF1.4074074074074074
aF3.037037037037037
aF7.753086419753086
aF-1.3950617283950617
aF0.5061728395061729
aI1
aI19
aa(lp125
F6.175
aF0.525
aF1.475
aF0.26874999999999993
aF0.05
aF0.25
aF0.05
aF0.35
aF0.575
aF0.135425
aF0.275
aF0.775
aF1.05
aF0.525
aF0.375
aF0.1
aF0.7
aF0.9
aF1.45
aF-1.1
aF0.35
aI1
aI24
aa(lp126
F19.448979591836736
aF1.6326530612244898
aF4.408163265306122
aF0.31079591836734693
aF0.4897959183673469
aF1.3061224489795917
aF0.26802040816326533
aF0.32653061224489793
aF0.7346938775510204
aF0.1377551020408163
aF0.6326530612244898
aF1.836734693877551
aF2.4693877551020407
aF1.0408163265306123
aF0.24489795918367346
aF0.4489795918367347
aF0.6122448979591837
aF1.9591836734693877
aF4.081632653061225
aF-4.714285714285714
aF0.5306122448979592
aI17
aI40
aa(lp127
F42.546875
aF8.921875
aF20.25
aF0.438015625
aF0.953125
aF3.046875
aF0.30706249999999996
aF7.515625
aF9.4375
aF0.77234375
aF0.359375
aF2.640625
aF3.0
aF7.265625
aF1.875
aF0.1875
aF4.140625
aF1.453125
aF26.3125
aF-0.546875
aF0.46875
aI10
aI31
aa(lp128
F7.1395348837209305
aF0.8604651162790697
aF1.9534883720930232
aF0.2543023255813953
aF0.023255813953488372
aF0.18604651162790697
aF0.023255813953488372
aF0.4883720930232558
aF0.8604651162790697
aF0.22093023255813954
aF0.46511627906976744
aF0.7209302325581395
aF1.186046511627907
aF0.32558139534883723
aF0.23255813953488372
aF0.023255813953488372
aF0.37209302325581395
aF1.255813953488372
aF2.2325581395348837
aF0.9767441860465116
aF0.32558139534883723
aI0
aI22
aa(lp129
F11.854545454545455
aF1.8
aF3.4
aF0.42599999999999993
aF0.0
aF0.16363636363636364
aF0.0
aF1.0
aF1.4727272727272727
aF0.3396
aF0.6727272727272727
aF0.6545454545454545
aF1.3272727272727274
aF0.41818181818181815
aF0.6545454545454545
aF0.10909090909090909
aF0.41818181818181815
aF0.8
aF4.6
aF-0.5272727272727272
aF0.6363636363636364
aI0
aI21
aa(lp130
F37.391304347826086
aF7.3478260869565215
aF16.304347826086957
aF0.4357246376811595
aF2.0
aF5.449275362318841
aF0.3300434782608695
aF3.1449275362318843
aF4.27536231884058
aF0.6220144927536231
aF1.9420289855072463
aF6.043478260869565
aF7.9855072463768115
aF1.9565217391304348
aF1.144927536231884
aF0.5217391304347826
aF1.4927536231884058
aF2.7681159420289854
aF19.840579710144926
aF1.2028985507246377
aF0.5217391304347826
aI8
aI30
aa(lp131
F35.20967741935484
aF7.225806451612903
aF16.35483870967742
aF0.4518225806451611
aF1.3709677419354838
aF4.467741935483871
aF0.3033870967741935
aF4.370967741935484
aF5.870967741935484
aF0.6766129032258063
aF0.7903225806451613
aF3.5
aF4.290322580645161
aF7.983870967741935
aF2.129032258064516
aF0.46774193548387094
aF3.064516129032258
aF2.870967741935484
aF20.193548387096776
aF3.4193548387096775
aF0.5645161290322581
aI7
aI27
aa(lp132
F23.405405405405407
aF1.6486486486486487
aF3.4864864864864864
aF0.4854189189189188
aF0.0
aF0.013513513513513514
aF0.0
aF1.054054054054054
aF1.6486486486486487
aF0.40810810810810816
aF3.3513513513513513
aF4.783783783783784
aF8.135135135135135
aF0.7567567567567568
aF0.8378378378378378
aF0.5
aF0.9459459459459459
aF2.72972972972973
aF4.351351351351352
aF-0.7702702702702703
aF0.43243243243243246
aI7
aI29
aa(lp133
F18.22222222222222
aF2.4814814814814814
aF5.851851851851852
aF0.38420370370370377
aF0.7407407407407407
aF2.185185185185185
aF0.26183333333333336
aF0.9444444444444444
aF1.3148148148148149
aF0.37037037037037035
aF0.9814814814814815
aF2.3518518518518516
aF3.3333333333333335
aF1.2222222222222223
aF0.46296296296296297
aF0.3333333333333333
aF1.2592592592592593
aF2.2962962962962963
aF6.648148148148148
aF-2.0
aF0.5555555555555556
aI5
aI26
aa(lp134
F29.12
aF2.88
aF5.8533333333333335
aF0.46398666666666677
aF0.08
aF0.30666666666666664
aF0.05110666666666667
aF0.96
aF1.2266666666666666
aF0.3416666666666667
aF1.1066666666666667
aF2.12
aF3.2266666666666666
aF2.6933333333333334
aF0.29333333333333333
aF0.3466666666666667
aF1.0533333333333332
aF1.92
aF6.8
aF-2.2
aF0.37333333333333335
aI5
aI27
aa(lp135
F4.827586206896552
aF0.6206896551724138
aF1.6206896551724137
aF0.3298620689655173
aF0.1724137931034483
aF0.4482758620689655
aF0.13793103448275862
aF0.2413793103448276
aF0.3793103448275862
aF0.11206896551724138
aF0.3793103448275862
aF0.5517241379310345
aF0.9310344827586207
aF0.1724137931034483
aF0.10344827586206896
aF0.034482758620689655
aF0.5172413793103449
aF0.6206896551724138
aF1.6551724137931034
aF-1.6206896551724137
aF0.2413793103448276
aI0
aI21
aa(lp136
F36.63768115942029
aF7.043478260869565
aF15.391304347826088
aF0.45113043478260867
aF1.318840579710145
aF3.420289855072464
aF0.3752608695652174
aF3.5217391304347827
aF4.260869565217392
aF0.7217101449275362
aF1.8840579710144927
aF4.971014492753623
aF6.855072463768116
aF1.826086956521739
aF1.173913043478261
aF0.8115942028985508
aF1.7681159420289856
aF2.579710144927536
aF18.92753623188406
aF6.739130434782608
aF0.8115942028985508
aI3
aI26
aa(lp137
F23.555555555555557
aF1.7222222222222223
aF3.7222222222222223
aF0.3974444444444443
aF0.037037037037037035
aF0.37037037037037035
aF0.018518518518518517
aF0.5555555555555556
aF1.2407407407407407
aF0.22862962962962963
aF2.0
aF2.314814814814815
aF4.314814814814815
aF1.2407407407407407
aF0.8148148148148148
aF0.5370370370370371
aF1.1111111111111112
aF2.759259259259259
aF4.037037037037037
aF-3.0925925925925926
aF0.37037037037037035
aI4
aI25
aa(lp138
F18.35
aF2.775
aF5.375
aF0.4928749999999999
aF0.0
aF0.0
aF0.0
aF0.625
aF0.9625
aF0.2320875
aF1.15
aF3.025
aF4.175
aF0.5625
aF0.4875
aF0.5875
aF1.025
aF2.95
aF6.175
aF-2.7125
aF0.3875
aI1
aI20
aa(lp139
F36.98701298701299
aF8.64935064935065
aF17.272727272727273
aF0.5053896103896104
aF0.935064935064935
aF2.2337662337662336
aF0.3582727272727273
aF6.3896103896103895
aF7.077922077922078
aF0.8611428571428571
aF1.5844155844155845
aF7.35064935064935
aF8.935064935064934
aF3.3506493506493507
aF0.6753246753246753
aF0.8051948051948052
aF2.168831168831169
aF2.1818181818181817
aF24.623376623376622
aF7.909090909090909
aF0.8181818181818182
aI8
aI28
aa(lp140
F18.93617021276596
aF3.5106382978723403
aF6.617021276595745
aF0.48055319148936165
aF1.0425531914893618
aF2.297872340425532
aF0.335
aF0.8723404255319149
aF1.127659574468085
aF0.3652553191489362
aF0.574468085106383
aF2.276595744680851
aF2.851063829787234
aF0.5531914893617021
aF0.3191489361702128
aF0.14893617021276595
aF0.6170212765957447
aF1.5319148936170213
aF8.936170212765957
aF-0.3404255319148936
aF0.40425531914893614
aI0
aI27
aa(lp141
F8.3125
aF0.65625
aF2.125
aF0.22031250000000002
aF0.34375
aF0.96875
aF0.15625
aF0.5
aF0.5625
aF0.19865625
aF0.375
aF0.9375
aF1.3125
aF0.40625
aF0.21875
aF0.0
aF0.40625
aF1.125
aF2.15625
aF0.3125
aF0.40625
aI8
aI30
aa(lp142
F10.816666666666666
aF1.4833333333333334
aF3.3333333333333335
aF0.39065
aF0.2
aF0.6166666666666667
aF0.14721666666666666
aF1.0
aF1.4666666666666666
aF0.2628833333333333
aF0.25
aF0.85
aF1.1
aF1.7166666666666666
aF0.35
aF0.016666666666666666
aF0.7666666666666667
aF0.65
aF4.166666666666667
aF0.4166666666666667
aF0.36666666666666664
aI1
aI20
aa(lp143
F6.96875
aF0.75
aF2.09375
aF0.28659375000000004
aF0.0
aF0.1875
aF0.0
aF0.59375
aF0.8125
aF0.2734375
aF0.59375
aF1.125
aF1.71875
aF0.65625
aF0.3125
aF0.03125
aF0.5
aF1.59375
aF2.09375
aF-0.5
aF0.5625
aI2
aI24
aa(lp144
F7.933333333333334
aF0.5333333333333333
aF1.8666666666666667
aF0.15196666666666667
aF0.26666666666666666
aF1.1
aF0.08613333333333334
aF0.2
aF0.43333333333333335
aF0.08889999999999999
aF0.5333333333333333
aF1.2666666666666666
aF1.8
aF0.26666666666666666
aF0.16666666666666666
aF0.1
aF0.3
aF1.1666666666666667
aF1.5333333333333334
aF0.16666666666666666
aF0.5333333333333333
aI7
aI30
aa(lp145
F0.0
aF0.0
aF0.0
aF0.0
aF0.0
aF0.0
aF0.0
aF0.0
aF0.0
aF0.0
aF0.0
aF0.0
aF0.0
aF0.0
aF0.0
aF0.0
aF0.0
aF0.0
aF0.0
aF0.0
aF0.0
aa(lp146
F5.181818181818182
aF0.9090909090909091
aF1.2727272727272727
aF0.5697272727272726
aF0.0
aF0.0
aF0.0
aF0.45454545454545453
aF1.0909090909090908
aF0.18181818181818182
aF0.6363636363636364
aF0.7272727272727273
aF1.3636363636363635
aF0.0
aF0.09090909090909091
aF0.0
aF0.6363636363636364
aF0.6363636363636364
aF2.272727272727273
aF1.0
aF0.8181818181818182
aI0
aI23
aa(lp147
F19.2
aF3.0
aF6.0
aF0.4708
aF0.4
aF1.2
aF0.2666
aF1.6
aF2.2
aF0.43339999999999995
aF0.4
aF2.6
aF3.0
aF0.6
aF0.4
aF0.2
aF0.8
aF1.0
aF8.0
aF0.4
aF0.8
aI0
aI24
aa(lp148
F7.115384615384615
aF0.5769230769230769
aF1.5576923076923077
aF0.19742307692307695
aF0.057692307692307696
aF0.2692307692307692
aF0.028846153846153848
aF0.4230769230769231
aF0.5576923076923077
aF0.17307692307692307
aF0.6730769230769231
aF1.3076923076923077
aF1.9807692307692308
aF0.3269230769230769
aF0.28846153846153844
aF0.3269230769230769
aF0.3269230769230769
aF0.8653846153846154
aF1.6346153846153846
aF-0.15384615384615385
aF0.5192307692307693
aI1
aI25
aa(lp149
F12.923076923076923
aF1.4615384615384615
aF3.8076923076923075
aF0.2475
aF0.07692307692307693
aF0.8846153846153846
aF0.028846153846153848
aF0.7692307692307693
aF1.0
aF0.31796153846153846
aF0.9615384615384616
aF1.6538461538461537
aF2.6153846153846154
aF0.2692307692307692
aF0.23076923076923078
aF0.4230769230769231
aF0.46153846153846156
aF2.076923076923077
aF3.769230769230769
aF-3.6153846153846154
aF0.34615384615384615
aI8
aI30
aa(lp150
F36.311688311688314
aF5.0
aF13.103896103896103
aF0.38455844155844154
aF1.3246753246753247
aF4.0
aF0.32188311688311677
aF2.6233766233766236
aF3.2857142857142856
aF0.5982467532467531
aF0.6623376623376623
aF2.792207792207792
aF3.4545454545454546
aF7.0519480519480515
aF1.5064935064935066
aF0.12987012987012986
aF2.961038961038961
aF2.3376623376623376
aF13.948051948051948
aF-1.6883116883116882
aF0.4025974025974026
aI1
aI22
aa(lp151
F9.722222222222221
aF1.2777777777777777
aF3.2222222222222223
aF0.35861111111111116
aF0.3333333333333333
aF1.1111111111111112
aF0.1685
aF0.5555555555555556
aF0.7777777777777778
aF0.20833333333333334
aF0.3333333333333333
aF0.7777777777777778
aF1.1111111111111112
aF0.7777777777777778
aF0.5
aF0.05555555555555555
aF0.2777777777777778
aF0.3333333333333333
aF3.4444444444444446
aF2.7222222222222223
aF0.3333333333333333
aI1
aI22
aa(lp152
F11.028571428571428
aF0.8
aF1.9714285714285715
aF0.24142857142857146
aF0.0
aF0.0
aF0.0
aF0.7428571428571429
aF1.1142857142857143
aF0.32142857142857145
aF1.1428571428571428
aF1.6857142857142857
aF2.8285714285714287
aF0.14285714285714285
aF0.22857142857142856
aF0.34285714285714286
aF0.6571428571428571
aF1.4
aF2.342857142857143
aF-0.37142857142857144
aF0.34285714285714286
aI6
aI27
aa(lp153
F32.82716049382716
aF7.45679012345679
aF16.333333333333332
aF0.443148148148148
aF1.9012345679012346
aF4.580246913580247
aF0.36600000000000005
aF4.6419753086419755
aF5.3580246913580245
aF0.7872098765432097
aF0.43209876543209874
aF2.753086419753086
aF3.185185185185185
aF3.6419753086419755
aF0.7901234567901234
aF0.20987654320987653
aF3.0617283950617282
aF3.0617283950617282
aF21.45679012345679
aF4.444444444444445
aF0.6049382716049383
aI2
aI23
aa(lp154
F5.0
aF0.0
aF0.6666666666666666
aF0.0
aF0.0
aF0.0
aF0.0
aF0.0
aF0.0
aF0.0
aF0.3333333333333333
aF0.0
aF0.3333333333333333
aF0.0
aF0.0
aF0.0
aF0.3333333333333333
aF0.6666666666666666
aF0.0
aF-11.666666666666666
aF0.0
aI10
aI31
aa(lp155
F12.2
aF1.6
aF3.4444444444444446
aF0.3301111111111111
aF0.4222222222222222
aF1.1333333333333333
aF0.19404444444444444
aF0.2222222222222222
aF0.4
aF0.08253333333333333
aF0.7111111111111111
aF1.1111111111111112
aF1.8222222222222222
aF0.4222222222222222
aF0.1111111111111111
aF0.17777777777777778
aF0.5333333333333333
aF1.4666666666666666
aF3.8444444444444446
aF-2.511111111111111
aF0.4222222222222222
aI0
aI20
aa(lp156
F8.72
aF1.0
aF2.24
aF0.36664
aF0.0
aF0.0
aF0.0
aF0.68
aF0.88
aF0.152
aF0.52
aF1.0
aF1.52
aF0.24
aF0.04
aF0.04
aF0.6
aF1.84
aF2.68
aF-1.64
aF0.32
aI10
aI32
aa(lp157
F16.862068965517242
aF1.6896551724137931
aF4.120689655172414
aF0.38160344827586207
aF0.896551724137931
aF2.2758620689655173
aF0.3400689655172413
aF0.8103448275862069
aF1.0862068965517242
aF0.35344827586206895
aF0.27586206896551724
aF1.3275862068965518
aF1.603448275862069
aF1.0172413793103448
aF0.4827586206896552
aF0.034482758620689655
aF0.7931034482758621
aF1.6896551724137931
aF5.086206896551724
aF0.7586206896551724
aF0.4827586206896552
aI3
aI26
aa(lp158
F35.43037974683544
aF6.341772151898734
aF13.379746835443038
aF0.4592911392405063
aF1.5822784810126582
aF4.139240506329114
aF0.3651898734177215
aF6.037974683544304
aF7.139240506329114
aF0.8307088607594934
aF0.8607594936708861
aF3.430379746835443
aF4.291139240506329
aF2.151898734177215
aF1.2278481012658229
aF0.13924050632911392
aF1.6835443037974684
aF2.2658227848101267
aF20.303797468354432
aF-1.860759493670886
aF0.4050632911392405
aI2
aI23
aa(lp159
F10.923076923076923
aF1.1538461538461537
aF2.3076923076923075
aF0.4166923076923077
aF0.0
aF0.07692307692307693
aF0.0
aF0.7692307692307693
aF1.0
aF0.32053846153846155
aF1.0
aF2.3076923076923075
aF3.3076923076923075
aF0.07692307692307693
aF0.07692307692307693
aF0.0
aF1.1538461538461537
aF2.769230769230769
aF3.076923076923077
aF0.6923076923076923
aF0.46153846153846156
aI9
aI30
aa(lp160
F15.223880597014926
aF2.0
aF3.955223880597015
aF0.4361791044776119
aF0.07462686567164178
aF0.40298507462686567
aF0.05471641791044777
aF0.7611940298507462
aF1.3432835820895523
aF0.24289552238805973
aF1.4029850746268657
aF2.8507462686567164
aF4.253731343283582
aF0.6268656716417911
aF0.8507462686567164
aF0.6268656716417911
aF0.6865671641791045
aF2.1044776119402986
aF4.835820895522388
aF-0.208955223880597
aF0.40298507462686567
aI0
aI22
aa(lp161
F17.96
aF1.6266666666666667
aF3.973333333333333
aF0.3588933333333333
aF0.41333333333333333
aF1.36
aF0.17998666666666668
aF0.36
aF0.4533333333333333
aF0.16799999999999998
aF0.4666666666666667
aF1.6266666666666667
aF2.0933333333333333
aF0.92
aF0.6133333333333333
aF0.09333333333333334
aF0.5333333333333333
aF2.013333333333333
aF4.026666666666666
aF0.02666666666666667
aF0.8
aI7
aI30
aa(lp162
F27.59493670886076
aF4.670886075949367
aF9.835443037974683
aF0.4461012658227847
aF0.012658227848101266
aF0.0759493670886076
aF0.012658227848101266
aF1.7721518987341771
aF2.4936708860759493
aF0.4652784810126582
aF3.278481012658228
aF5.2405063291139244
aF8.518987341772151
aF1.0886075949367089
aF0.8607594936708861
aF0.34177215189873417
aF1.4303797468354431
aF2.6202531645569622
aF11.126582278481013
aF-0.13924050632911392
aF0.6075949367088608
aI4
aI25
aa(lp163
F22.774193548387096
aF4.467741935483871
aF10.14516129032258
aF0.4044354838709679
aF2.3548387096774195
aF6.032258064516129
aF0.34124193548387083
aF1.6451612903225807
aF2.0161290322580645
aF0.5126290322580646
aF0.4838709677419355
aF1.7903225806451613
aF2.274193548387097
aF1.435483870967742
aF0.7903225806451613
aF0.14516129032258066
aF1.3548387096774193
aF2.306451612903226
aF12.935483870967742
aF1.3064516129032258
aF0.5967741935483871
aI2
aI21
aa(lp164
F21.857142857142858
aF2.4545454545454546
aF4.298701298701299
aF0.5770129870129871
aF0.0
aF0.0
aF0.0
aF0.7142857142857143
aF1.155844155844156
aF0.28201298701298694
aF2.6233766233766236
aF4.077922077922078
aF6.701298701298701
aF0.5974025974025974
aF0.8961038961038961
aF0.23376623376623376
aF0.8311688311688312
aF3.5844155844155843
aF5.623376623376624
aF4.077922077922078
aF0.6493506493506493
aI1
aI23
aa(lp165
F35.0
aF3.0
aF8.0
aF0.375
aF0.0
aF1.0
aF0.0
aF3.0
aF8.0
aF0.375
aF2.0
aF8.0
aF10.0
aF1.0
aF0.0
aF0.0
aF4.0
aF5.0
aF9.0
aF0.0
aF0.0
aI6
aI29
aa(lp166
F22.983606557377048
aF2.377049180327869
aF4.901639344262295
aF0.4260655737704917
aF0.0
aF0.01639344262295082
aF0.0
aF0.5737704918032787
aF1.1147540983606556
aF0.18660655737704918
aF2.1311475409836067
aF3.918032786885246
aF6.049180327868853
aF1.1967213114754098
aF0.7049180327868853
aF0.26229508196721313
aF1.459016393442623
aF2.2950819672131146
aF5.327868852459017
aF-2.7868852459016393
aF0.4098360655737705
aI7
aI29
aa(lp167
F27.43661971830986
aF3.971830985915493
aF8.450704225352112
aF0.45621126760563385
aF0.0
aF0.014084507042253521
aF0.0
aF4.070422535211268
aF5.197183098591549
aF0.742281690140845
aF2.7183098591549295
aF4.154929577464789
aF6.873239436619718
aF1.4366197183098592
aF1.056338028169014
aF0.4788732394366197
aF2.23943661971831
aF3.704225352112676
aF12.014084507042254
aF-1.619718309859155
aF0.352112676056338
aI3
aI22
aa(lp168
F19.91044776119403
aF3.4925373134328357
aF6.82089552238806
aF0.46492537313432847
aF0.0
aF0.029850746268656716
aF0.0
aF2.1343283582089554
aF3.0
aF0.4602089552238807
aF0.9253731343283582
aF2.328358208955224
aF3.253731343283582
aF0.582089552238806
aF0.43283582089552236
aF0.22388059701492538
aF1.4477611940298507
aF2.6865671641791047
aF9.119402985074627
aF0.6865671641791045
aF0.44776119402985076
aI11
aI33
aa(lp169
F11.682539682539682
aF1.1111111111111112
aF2.6031746031746033
aF0.3297460317460318
aF0.015873015873015872
aF0.031746031746031744
aF0.015873015873015872
aF0.7619047619047619
aF1.0
aF0.287031746031746
aF0.12698412698412698
aF0.9047619047619048
aF1.0317460317460319
aF2.0476190476190474
aF0.3492063492063492
aF0.031746031746031744
aF0.6349206349206349
aF1.1746031746031746
aF3.0
aF2.4444444444444446
aF0.7619047619047619
aI9
aI31
aa(lp170
F22.636363636363637
aF1.8333333333333333
aF3.772727272727273
aF0.4756515151515151
aF0.0
aF0.0
aF0.0
aF0.696969696969697
aF1.196969696969697
aF0.24495454545454548
aF1.5909090909090908
aF4.166666666666667
aF5.757575757575758
aF0.8636363636363636
aF0.2727272727272727
aF0.9696969696969697
aF1.106060606060606
aF2.909090909090909
aF4.363636363636363
aF-1.7727272727272727
aF0.3333333333333333
aI8
aI30
aa(lp171
F37.241379310344826
aF6.103448275862069
aF15.275862068965518
aF0.3806379310344827
aF1.7758620689655173
aF5.551724137931035
aF0.2848620689655173
aF3.9310344827586206
aF4.689655172413793
aF0.7451379310344829
aF0.7586206896551724
aF2.5
aF3.2586206896551726
aF4.4655172413793105
aF0.9827586206896551
aF0.13793103448275862
aF2.793103448275862
aF1.9655172413793103
aF17.913793103448278
aF-1.9827586206896552
aF0.4482758620689655
aI6
aI26
aa(lp172
F23.75
aF3.7125
aF8.675
aF0.40581249999999985
aF0.9875
aF2.8125
aF0.27243749999999994
aF1.2625
aF1.45
aF0.46355
aF0.3375
aF1.625
aF1.9625
aF1.525
aF0.9125
aF0.1125
aF1.2625
aF2.1875
aF9.675
aF-1.1
aF0.5
aI4
aI28
aa(lp173
F4.444444444444445
aF0.4444444444444444
aF1.6666666666666667
aF0.2111111111111111
aF0.1111111111111111
aF0.4444444444444444
aF0.1111111111111111
aF0.3333333333333333
aF0.6666666666666666
aF0.1111111111111111
aF0.1111111111111111
aF0.2222222222222222
aF0.3333333333333333
aF0.4444444444444444
aF0.3333333333333333
aF0.0
aF0.1111111111111111
aF0.0
aF1.3333333333333333
aF-2.2222222222222223
aF0.5555555555555556
aI1
aI19
aa(lp174
F35.407407407407405
aF5.518518518518518
aF11.981481481481481
aF0.45127777777777783
aF0.9629629629629629
aF2.5925925925925926
aF0.2917592592592592
aF4.222222222222222
aF5.777777777777778
aF0.6977592592592593
aF0.8888888888888888
aF3.4074074074074074
aF4.296296296296297
aF2.7037037037037037
aF0.6296296296296297
aF0.14814814814814814
aF2.1666666666666665
aF2.240740740740741
aF16.22222222222222
aF0.12962962962962962
aF0.5370370370370371
aI5
aI26
aa(lp175
F9.833333333333334
aF1.1111111111111112
aF3.111111111111111
aF0.26619444444444446
aF0.19444444444444445
aF0.8888888888888888
aF0.06483333333333334
aF0.3333333333333333
aF0.5277777777777778
aF0.1527777777777778
aF0.3055555555555556
aF0.6111111111111112
aF0.9166666666666666
aF0.6666666666666666
aF0.3055555555555556
aF0.1111111111111111
aF0.75
aF1.5833333333333333
aF2.75
aF-1.4722222222222223
aF0.6388888888888888
aI1
aI19
aa(lp176
F22.516129032258064
aF3.870967741935484
aF7.661290322580645
aF0.44550000000000006
aF0.0
aF0.03225806451612903
aF0.0
aF1.3387096774193548
aF1.8548387096774193
aF0.4494677419354839
aF2.2903225806451615
aF2.6774193548387095
aF4.967741935483871
aF0.3870967741935484
aF0.3548387096774194
aF1.1774193548387097
aF0.6774193548387096
aF2.9838709677419355
aF9.080645161290322
aF-0.8709677419354839
aF0.3870967741935484
aI0
aI21
aa(lp177
F36.860759493670884
aF4.658227848101266
aF11.39240506329114
aF0.4014430379746835
aF1.5569620253164558
aF4.506329113924051
aF0.3308481012658229
aF2.240506329113924
aF2.8860759493670884
aF0.6144177215189872
aF1.6329113924050633
aF6.518987341772152
aF8.151898734177216
aF9.177215189873417
aF1.5822784810126582
aF0.27848101265822783
aF2.6835443037974684
aF1.8227848101265822
aF13.113924050632912
aF0.9746835443037974
aF0.5063291139240507
aI12
aI33
aa(lp178
F29.17283950617284
aF4.296296296296297
aF7.172839506172839
aF0.6058395061728395
aF0.0
aF0.0
aF0.0
aF1.0740740740740742
aF2.0617283950617282
aF0.3538024691358025
aF3.0864197530864197
aF6.271604938271605
aF9.358024691358025
aF1.0864197530864197
aF0.8148148148148148
aF1.6666666666666667
aF1.4320987654320987
aF3.7037037037037037
aF9.666666666666666
aF1.345679012345679
aF0.5061728395061729
aI2
aI20
aa(lp179
F17.613636363636363
aF2.8181818181818183
aF6.204545454545454
aF0.42222727272727273
aF0.13636363636363635
aF0.5909090909090909
aF0.09279545454545456
aF1.1363636363636365
aF1.5681818181818181
aF0.39243181818181816
aF0.5227272727272727
aF1.2727272727272727
aF1.7954545454545454
aF1.2954545454545454
aF0.6136363636363636
aF0.1590909090909091
aF1.2272727272727273
aF1.2727272727272727
aF6.909090909090909
aF-1.5681818181818181
aF0.5227272727272727
aI3
aI25
aa(lp180
F23.6
aF2.857142857142857
aF6.228571428571429
aF0.40648571428571434
aF0.2
aF0.8285714285714286
aF0.12094285714285713
aF1.2
aF1.3428571428571427
aF0.38571428571428573
aF0.4
aF2.3142857142857145
aF2.7142857142857144
aF2.8
aF1.2
aF0.02857142857142857
aF1.0571428571428572
aF2.3142857142857145
aF7.114285714285714
aF-0.7714285714285715
aF0.42857142857142855
aI6
aI28
aa(lp181
F15.772727272727273
aF1.2424242424242424
aF2.757575757575758
aF0.42407575757575744
aF0.0
aF0.0
aF0.0
aF0.13636363636363635
aF0.48484848484848486
aF0.06060606060606061
aF1.2878787878787878
aF1.9848484848484849
aF3.272727272727273
aF0.6060606060606061
aF0.42424242424242425
aF0.42424242424242425
aF0.5909090909090909
aF3.0757575757575757
aF2.621212121212121
aF-2.0303030303030303
aF0.3484848484848485
aI10
aI31
aa(lp182
F25.473684210526315
aF4.7368421052631575
aF10.052631578947368
aF0.4636578947368421
aF0.7631578947368421
aF2.263157894736842
aF0.24471052631578946
aF1.9210526315789473
aF2.3421052631578947
aF0.5802105263157895
aF1.631578947368421
aF4.368421052631579
aF6.0
aF0.9210526315789473
aF0.631578947368421
aF0.3157894736842105
aF1.368421052631579
aF2.8421052631578947
aF12.157894736842104
aF-0.18421052631578946
aF0.4473684210526316
aI1
aI22
aa(lp183
F2.210526315789474
aF0.3684210526315789
aF0.8421052631578947
aF0.1798421052631579
aF0.0
aF0.05263157894736842
aF0.0
aF0.3157894736842105
aF0.47368421052631576
aF0.14473684210526316
aF0.21052631578947367
aF0.3684210526315789
aF0.5789473684210527
aF0.05263157894736842
aF0.0
aF0.10526315789473684
aF0.3684210526315789
aF0.3684210526315789
aF1.0526315789473684
aF-1.105263157894737
aF0.47368421052631576
aI0
aI23
aa(lp184
F12.86111111111111
aF1.4583333333333333
aF3.6527777777777777
aF0.3734861111111112
aF0.8333333333333334
aF2.2222222222222223
aF0.3003472222222222
aF0.5694444444444444
aF0.6527777777777778
aF0.25416666666666665
aF0.3888888888888889
aF1.0555555555555556
aF1.4444444444444444
aF0.875
aF0.5694444444444444
aF0.013888888888888888
aF0.4166666666666667
aF1.4166666666666667
aF4.319444444444445
aF-0.6944444444444444
aF0.4722222222222222
aI2
aI22
aa(lp185
F30.033333333333335
aF4.766666666666667
aF10.533333333333333
aF0.4431666666666666
aF0.06666666666666667
aF0.18333333333333332
aF0.058333333333333334
aF1.7
aF2.6666666666666665
aF0.4315333333333334
aF2.066666666666667
aF5.183333333333334
aF7.25
aF3.1333333333333333
aF1.0
aF0.6833333333333333
aF1.7833333333333334
aF2.3833333333333333
aF11.3
aF1.8
aF0.5666666666666667
aI13
aI33
aa(lp186
F8.357142857142858
aF1.0714285714285714
aF2.2142857142857144
aF0.38099999999999995
aF0.5714285714285714
aF0.9285714285714286
aF0.32142857142857145
aF0.42857142857142855
aF0.7142857142857143
aF0.13092857142857142
aF0.7857142857142857
aF1.1428571428571428
aF1.9285714285714286
aF0.14285714285714285
aF0.35714285714285715
aF0.0
aF0.14285714285714285
aF1.0
aF3.142857142857143
aF0.07142857142857142
aF0.7857142857142857
aI6
aI31
aa(lp187
F7.0
aF1.0
aF2.0
aF0.5
aF0.0
aF0.0
aF0.0
aF0.0
aF0.0
aF0.0
aF1.0
aF0.0
aF1.0
aF1.0
aF0.0
aF0.0
aF0.0
aF0.0
aF2.0
aF1.0
aF0.0
aI0
aI22
aa(lp188
F24.555555555555557
aF3.197530864197531
aF7.333333333333333
aF0.40898765432098766
aF0.6172839506172839
aF1.4938271604938271
aF0.20906172839506174
aF1.8024691358024691
aF2.0123456790123457
aF0.559395061728395
aF1.0617283950617284
aF1.7160493827160495
aF2.7777777777777777
aF1.8888888888888888
aF1.0987654320987654
aF0.19753086419753085
aF1.382716049382716
aF1.9012345679012346
aF8.814814814814815
aF-2.925925925925926
aF0.38271604938271603
aI2
aI26
aa(lp189
F35.656716417910445
aF8.716417910447761
aF18.80597014925373
aF0.46461194029850744
aF0.208955223880597
aF0.7164179104477612
aF0.1517313432835821
aF5.7164179104477615
aF6.940298507462686
aF0.8210447761194029
aF2.8656716417910446
aF7.149253731343284
aF10.014925373134329
aF2.1194029850746268
aF0.7910447761194029
aF0.19402985074626866
aF3.1791044776119404
aF2.716417910447761
aF23.35820895522388
aF-2.0
aF0.373134328358209
aI5
aI25
aa(lp190
F15.419354838709678
aF2.064516129032258
aF5.193548387096774
aF0.3216290322580645
aF0.7096774193548387
aF2.096774193548387
aF0.2862903225806452
aF1.3870967741935485
aF1.532258064516129
aF0.5129032258064516
aF0.24193548387096775
aF0.8709677419354839
aF1.1129032258064515
aF2.774193548387097
aF0.41935483870967744
aF0.016129032258064516
aF1.4516129032258065
aF1.2096774193548387
aF6.225806451612903
aF-1.6129032258064515
aF0.46774193548387094
aI1
aI30
aa(lp191
F14.27450980392157
aF1.6470588235294117
aF4.352941176470588
aF0.2773725490196079
aF0.2549019607843137
aF0.9019607843137255
aF0.07254901960784314
aF0.9019607843137255
aF1.5294117647058822
aF0.20523529411764704
aF0.47058823529411764
aF1.411764705882353
aF1.8823529411764706
aF1.607843137254902
aF0.6078431372549019
aF0.058823529411764705
aF1.0784313725490196
aF1.392156862745098
aF4.450980392156863
aF-1.9411764705882353
aF0.35294117647058826
aI0
aI22
aa(lp192
F2.75
aF0.0
aF0.75
aF0.0
aF0.0
aF0.0
aF0.0
aF0.0
aF0.0
aF0.0
aF0.0
aF0.0
aF0.0
aF0.0
aF0.0
aF0.0
aF0.5
aF0.25
aF0.0
aF-1.0
aF0.25
aI0
aI22
aa(lp193
F13.621212121212121
aF1.9242424242424243
aF3.878787878787879
aF0.41443939393939383
aF0.0
aF0.0
aF0.0
aF1.0454545454545454
aF2.015151515151515
aF0.2583484848484848
aF1.3181818181818181
aF1.4393939393939394
aF2.757575757575758
aF0.21212121212121213
aF0.42424242424242425
aF0.8939393939393939
aF0.7272727272727273
aF1.5757575757575757
aF4.893939393939394
aF0.8636363636363636
aF0.6515151515151515
aI1
aI23
aa(lp194
F32.76271186440678
aF4.389830508474576
aF9.305084745762711
aF0.4716779661016949
aF0.8135593220338984
aF2.0677966101694913
aF0.3499830508474576
aF1.8305084745762712
aF2.457627118644068
aF0.5551186440677968
aF1.4067796610169492
aF3.5254237288135593
aF4.932203389830509
aF4.322033898305085
aF1.0
aF0.3559322033898305
aF1.9152542372881356
aF1.9491525423728813
aF11.423728813559322
aF-0.03389830508474576
aF0.576271186440678
aI3
aI26
aa(lp195
F0.0
aF0.0
aF0.0
aF0.0
aF0.0
aF0.0
aF0.0
aF0.0
aF0.0
aF0.0
aF0.0
aF0.0
aF0.0
aF0.0
aF0.0
aF0.0
aF0.0
aF0.0
aF0.0
aF0.0
aF0.0
aa(lp196
F21.0
aF3.4444444444444446
aF6.592592592592593
aF0.47580246913580265
aF0.0
aF0.0
aF0.0
aF1.1728395061728396
aF1.691358024691358
aF0.37046913580246915
aF2.037037037037037
aF4.074074074074074
aF6.111111111111111
aF0.8888888888888888
aF0.7530864197530864
aF0.7901234567901234
aF0.9259259259259259
aF2.962962962962963
aF8.061728395061728
aF3.3333333333333335
aF0.6419753086419753
aI11
aI32
aa(lp197
F16.469135802469136
aF1.8888888888888888
aF4.54320987654321
aF0.3717283950617283
aF0.5679012345679012
aF1.6666666666666667
aF0.2650246913580247
aF0.8271604938271605
aF1.0493827160493827
aF0.31120987654320986
aF0.8148148148148148
aF2.382716049382716
aF3.197530864197531
aF1.0493827160493827
aF0.5555555555555556
aF0.09876543209876543
aF0.7283950617283951
aF1.1975308641975309
aF5.172839506172839
aF0.7037037037037037
aF0.6419753086419753
aI2
aI24
aa(lp198
F30.22641509433962
aF3.9056603773584904
aF8.433962264150944
aF0.45615094339622636
aF0.09433962264150944
aF0.3018867924528302
aF0.0660377358490566
aF1.5471698113207548
aF2.188679245283019
aF0.47611320754716985
aF1.0566037735849056
aF2.4150943396226414
aF3.4716981132075473
aF5.150943396226415
aF1.1132075471698113
aF0.5471698113207547
aF2.0377358490566038
aF2.547169811320755
aF9.452830188679245
aF-2.849056603773585
aF0.4528301886792453
aI2
aI21
aa(lp199
F32.86
aF5.92
aF14.36
aF0.39269999999999994
aF2.12
aF5.9
aF0.31155999999999995
aF1.82
aF2.74
aF0.49132000000000003
aF1.38
aF3.64
aF5.02
aF3.4
aF1.02
aF0.64
aF1.6
aF2.56
aF15.78
aF1.7
aF0.56
aI5
aI25
aa(lp200
F23.53061224489796
aF2.4693877551020407
aF5.795918367346939
aF0.3743877551020408
aF1.0612244897959184
aF3.0408163265306123
aF0.2832040816326531
aF1.8571428571428572
aF2.1020408163265305
aF0.6006734693877551
aF0.5918367346938775
aF1.6938775510204083
aF2.2857142857142856
aF2.5918367346938775
aF1.0408163265306123
aF0.14285714285714285
aF1.1020408163265305
aF2.2448979591836733
aF7.857142857142857
aF0.10204081632653061
aF0.40816326530612246
aI9
aI32
aa(lp201
F26.098591549295776
aF3.9859154929577465
aF9.126760563380282
aF0.39292957746478874
aF1.5492957746478873
aF3.7183098591549295
aF0.3654788732394366
aF2.6338028169014085
aF2.915492957746479
aF0.7358873239436619
aF0.4647887323943662
aF2.408450704225352
aF2.8732394366197185
aF1.267605633802817
aF0.7464788732394366
aF0.1267605633802817
aF1.0140845070422535
aF2.436619718309859
aF12.154929577464788
aF-1.4788732394366197
aF0.39436619718309857
aI3
aI26
aa(lp202
F24.97530864197531
aF3.617283950617284
aF8.567901234567902
aF0.392506172839506
aF0.9753086419753086
aF2.6419753086419755
aF0.3095679012345679
aF1.9012345679012346
aF2.271604938271605
aF0.5248395061728395
aF0.2962962962962963
aF1.7037037037037037
aF2.0
aF3.6296296296296298
aF0.6666666666666666
aF0.07407407407407407
aF1.5802469135802468
aF2.111111111111111
aF10.11111111111111
aF-2.271604938271605
aF0.3950617283950617
aI5
aI31
aa(lp203
F11.666666666666666
aF1.25
aF3.5833333333333335
aF0.23938333333333336
aF0.43333333333333335
aF1.4833333333333334
aF0.13803333333333334
aF0.75
aF0.8666666666666667
aF0.2558333333333333
aF0.5
aF2.5166666666666666
aF3.0166666666666666
aF0.7
aF0.23333333333333334
aF0.1
aF0.5333333333333333
aF1.1166666666666667
aF3.683333333333333
aF0.08333333333333333
aF0.8
aI9
aI31
aa(lp204
F7.739130434782608
aF1.2608695652173914
aF3.108695652173913
aF0.31436956521739134
aF0.30434782608695654
aF1.1304347826086956
aF0.1666521739130435
aF0.30434782608695654
aF0.3695652173913043
aF0.14782608695652175
aF0.1956521739130435
aF0.5652173913043478
aF0.7608695652173914
aF0.6304347826086957
aF0.32608695652173914
aF0.0
aF0.30434782608695654
aF0.8043478260869565
aF3.130434782608696
aF0.2391304347826087
aF0.6086956521739131
aI1
aI24
aa(lp205
F28.0
aF3.1728395061728394
aF8.271604938271604
aF0.3832592592592592
aF0.5925925925925926
aF1.9259259259259258
aF0.2615185185185185
aF3.197530864197531
aF3.753086419753086
aF0.7550617283950616
aF0.35802469135802467
aF1.4567901234567902
aF1.8148148148148149
aF3.3703703703703702
aF1.0246913580246915
aF0.07407407407407407
aF1.4320987654320987
aF2.8395061728395063
aF10.135802469135802
aF2.1481481481481484
aF0.6172839506172839
aI10
aI32
aa(lp206
F3.25
aF0.25
aF0.8
aF0.1875
aF0.0
aF0.0
aF0.0
aF0.2
aF0.2
aF0.1
aF0.1
aF0.25
aF0.35
aF0.3
aF0.15
aF0.2
aF0.25
aF0.6
aF0.7
aF-1.25
aF0.85
aI2
aI26
aa(lp207
F36.74647887323944
aF6.676056338028169
aF13.295774647887324
aF0.49199999999999994
aF0.5352112676056338
aF1.676056338028169
aF0.19505633802816902
aF4.309859154929577
aF6.211267605633803
aF0.6639999999999999
aF1.9859154929577465
aF5.23943661971831
aF7.225352112676056
aF2.591549295774648
aF1.9859154929577465
aF0.971830985915493
aF2.23943661971831
aF2.9014084507042255
aF18.197183098591548
aF-3.3661971830985915
aF0.4084507042253521
aI5
aI24
aa(lp208
F7.833333333333333
aF0.0
aF0.3333333333333333
aF0.0
aF0.0
aF0.0
aF0.0
aF0.0
aF0.3333333333333333
aF0.0
aF0.3333333333333333
aF0.6666666666666666
aF1.0
aF1.5
aF0.0
aF0.0
aF0.3333333333333333
aF1.1666666666666667
aF0.0
aF-2.0
aF0.16666666666666666
aI0
aI24
aa(lp209
F8.871794871794872
aF0.717948717948718
aF2.1025641025641026
aF0.19758974358974363
aF0.07692307692307693
aF0.38461538461538464
aF0.05128205128205128
aF0.7948717948717948
aF1.1538461538461537
aF0.2264871794871795
aF0.20512820512820512
aF0.5128205128205128
aF0.717948717948718
aF0.3333333333333333
aF0.3076923076923077
aF0.1282051282051282
aF0.48717948717948717
aF0.5384615384615384
aF2.3076923076923075
aF-1.0256410256410255
aF0.3076923076923077
aI1
aI24
aa(lp210
F7.266666666666667
aF0.6
aF1.8666666666666667
aF0.2722
aF0.0
aF0.0
aF0.0
aF0.7333333333333333
aF1.1333333333333333
aF0.28886666666666666
aF0.4
aF0.6666666666666666
aF1.0666666666666667
aF0.5333333333333333
aF0.4
aF0.4666666666666667
aF0.4666666666666667
aF1.6
aF1.9333333333333333
aF1.2666666666666666
aF0.26666666666666666
aI0
aI20
aa(lp211
F18.890625
aF2.421875
aF4.234375
aF0.5445781249999999
aF0.0
aF0.0
aF0.0
aF1.171875
aF2.09375
aF0.4176875
aF2.09375
aF3.671875
aF5.765625
aF0.453125
aF0.328125
aF1.328125
aF1.078125
aF2.5
aF6.015625
aF-0.625
aF0.4375
aI5
aI28
aa(lp212
F4.619047619047619
aF0.42857142857142855
aF0.6190476190476191
aF0.3047619047619048
aF0.0
aF0.047619047619047616
aF0.0
aF0.2857142857142857
aF0.5714285714285714
aF0.10714285714285714
aF0.5238095238095238
aF1.1428571428571428
aF1.6666666666666667
aF0.19047619047619047
aF0.09523809523809523
aF0.23809523809523808
aF0.2857142857142857
aF0.6666666666666666
aF1.1428571428571428
aF-1.0
aF0.6666666666666666
aI4
aI23
aa(lp213
F30.383333333333333
aF3.8333333333333335
aF9.383333333333333
aF0.39026666666666665
aF1.5833333333333333
aF4.816666666666666
aF0.2857333333333333
aF1.55
aF1.7
aF0.5381833333333333
aF0.3
aF2.0166666666666666
aF2.316666666666667
aF5.3
aF0.9666666666666667
aF0.016666666666666666
aF1.6333333333333333
aF1.1333333333333333
aF10.8
aF0.45
aF0.5666666666666667
aI8
aI31
aa(lp214
F40.92857142857143
aF9.5
aF20.089285714285715
aF0.4706428571428573
aF2.107142857142857
aF5.5
aF0.3946071428571428
aF4.142857142857143
aF5.535714285714286
aF0.7011607142857141
aF0.9107142857142857
aF3.2142857142857144
aF4.125
aF4.392857142857143
aF1.0357142857142858
aF0.19642857142857142
aF3.0535714285714284
aF2.0
aF25.25
aF-3.142857142857143
aF0.375
aI5
aI25
aa(lp215
F5.55
aF0.85
aF2.2
aF0.1948
aF0.4
aF0.95
aF0.0889
aF0.4
aF0.7
aF0.1375
aF0.1
aF0.7
aF0.8
aF0.35
aF0.15
aF0.0
aF0.3
aF0.5
aF2.5
aF0.25
aF0.6
aI11
aI34
aa(lp216
F33.92
aF6.76
aF12.68
aF0.5310000000000001
aF0.0
aF0.04
aF0.0
aF3.36
aF4.76
aF0.7044000000000001
aF2.0
aF4.92
aF6.92
aF1.76
aF0.4
aF0.92
aF2.04
aF3.44
aF16.88
aF0.4
aF0.44
aI2
aI23
aa(lp217
F16.4
aF1.8
aF3.4
aF0.3628
aF0.2
aF0.4
aF0.1
aF1.0
aF1.4
aF0.2
aF0.6
aF1.0
aF1.6
aF0.4
aF0.6
aF0.6
aF0.6
aF1.8
aF4.8
aF-0.8
aF0.0
aI0
aI23
aa(lp218
F8.608695652173912
aF1.0
aF1.5869565217391304
aF0.3354130434782609
aF0.06521739130434782
aF0.15217391304347827
aF0.05434782608695652
aF0.8043478260869565
aF1.0217391304347827
aF0.2971086956521739
aF0.45652173913043476
aF1.0869565217391304
aF1.5434782608695652
aF0.30434782608695654
aF0.2608695652173913
aF0.391304347826087
aF0.6304347826086957
aF1.3695652173913044
aF2.869565217391304
aF-0.782608695652174
aF0.4782608695652174
aI4
aI30
aa(lp219
F10.677966101694915
aF1.7966101694915255
aF4.338983050847458
aF0.40113559322033887
aF0.0
aF0.01694915254237288
aF0.0
aF0.4406779661016949
aF0.5423728813559322
aF0.22316949152542373
aF0.6949152542372882
aF1.2881355932203389
aF1.9830508474576272
aF0.2711864406779661
aF0.288135593220339
aF0.2711864406779661
aF0.3559322033898305
aF1.423728813559322
aF4.033898305084746
aF1.2372881355932204
aF0.5932203389830508
aI5
aI28
aa(lp220
F38.23456790123457
aF8.839506172839506
aF19.444444444444443
aF0.4511234567901232
aF1.8888888888888888
aF5.308641975308642
aF0.3334197530864197
aF5.691358024691358
aF7.074074074074074
aF0.7538148148148146
aF1.3703703703703705
aF4.580246913580247
aF5.950617283950617
aF4.7407407407407405
aF0.9876543209876543
aF0.35802469135802467
aF2.6666666666666665
aF3.246913580246914
aF25.25925925925926
aF0.5432098765432098
aF0.49382716049382713
aI8
aI29
aa(lp221
F17.839506172839506
aF2.506172839506173
aF4.777777777777778
aF0.467506172839506
aF0.012345679012345678
aF0.037037037037037035
aF0.012345679012345678
aF1.7037037037037037
aF2.5185185185185186
aF0.43677777777777776
aF2.197530864197531
aF2.9012345679012346
aF5.098765432098766
aF0.7654320987654321
aF0.8271604938271605
aF0.9135802469135802
aF1.1111111111111112
aF2.876543209876543
aF6.728395061728395
aF1.4814814814814814
aF0.6172839506172839
aI0
aI21
aa(lp222
F18.358490566037737
aF2.9245283018867925
aF6.339622641509434
aF0.44158490566037745
aF0.0
aF0.09433962264150944
aF0.0
aF1.7924528301886793
aF2.490566037735849
aF0.5110754716981132
aF1.5471698113207548
aF3.0754716981132075
aF4.622641509433962
aF0.3018867924528302
aF0.5660377358490566
aF1.1320754716981132
aF1.3018867924528301
aF2.69811320754717
aF7.6415094339622645
aF-3.7735849056603774
aF0.2641509433962264
aI6
aI27
aa(lp223
F30.863013698630137
aF5.041095890410959
aF11.424657534246576
aF0.4364109589041096
aF1.7534246575342465
aF4.123287671232877
aF0.4227808219178082
aF2.589041095890411
aF2.835616438356164
aF0.6623287671232876
aF0.3972602739726027
aF3.0684931506849313
aF3.4657534246575343
aF1.4109589041095891
aF0.7671232876712328
aF0.273972602739726
aF1.6027397260273972
aF2.547945205479452
aF14.424657534246576
aF-2.3698630136986303
aF0.410958904109589
aI3
aI25
aa(lp224
F23.367088607594937
aF0.6962025316455697
aF1.9113924050632911
aF0.2490379746835443
aF0.0
aF0.02531645569620253
aF0.0
aF0.7468354430379747
aF1.6075949367088607
aF0.22889873417721518
aF1.139240506329114
aF2.848101265822785
aF3.9873417721518987
aF0.5822784810126582
aF0.5063291139240507
aF0.4810126582278481
aF0.9240506329113924
aF3.430379746835443
aF2.1392405063291138
aF0.8860759493670886
aF0.4936708860759494
aI5
aI28
aa(lp225
F19.610169491525422
aF2.3220338983050848
aF5.966101694915254
aF0.329949152542373
aF1.5084745762711864
aF3.8813559322033897
aF0.3109491525423729
aF0.5084745762711864
aF0.7457627118644068
aF0.18079661016949153
aF0.15254237288135594
aF0.9661016949152542
aF1.11864406779661
aF1.5084745762711864
aF0.2542372881355932
aF0.03389830508474576
aF0.6101694915254238
aF0.8813559322033898
aF6.661016949152542
aF1.576271186440678
aF0.6101694915254238
aI8
aI30
aa(lp226
F4.7
aF0.4
aF0.9
aF0.175
aF0.0
aF0.0
aF0.0
aF0.3
aF0.5
aF0.075
aF0.5
aF0.6
aF1.1
aF0.2
aF0.0
aF0.3
aF0.2
aF1.4
aF1.1
aF0.3
aF0.6
aI0
aI23
aa(lp227
F7.901639344262295
aF0.9672131147540983
aF2.9344262295081966
aF0.24742622950819673
aF0.5409836065573771
aF1.6721311475409837
aF0.19314754098360654
aF0.14754098360655737
aF0.18032786885245902
aF0.06557377049180328
aF0.11475409836065574
aF0.6229508196721312
aF0.7377049180327869
aF0.5737704918032787
aF0.21311475409836064
aF0.09836065573770492
aF0.3114754098360656
aF1.0819672131147542
aF2.622950819672131
aF-1.0491803278688525
aF0.4262295081967213
aI4
aI26
aa(lp228
F10.943396226415095
aF1.1320754716981132
aF2.3962264150943398
aF0.33852830188679245
aF0.0
aF0.11320754716981132
aF0.0
aF0.2830188679245283
aF0.3584905660377358
aF0.10141509433962265
aF0.7358490566037735
aF1.3018867924528301
aF2.0377358490566038
aF1.1132075471698113
aF0.5849056603773585
aF0.07547169811320754
aF0.6981132075471698
aF1.4528301886792452
aF2.547169811320755
aF1.3773584905660377
aF0.5849056603773585
aI7
aI32
aa(lp229
F24.467532467532468
aF2.5324675324675323
aF6.181818181818182
aF0.381
aF1.12987012987013
aF3.1298701298701297
aF0.3393376623376623
aF0.987012987012987
aF1.3116883116883118
aF0.35519480519480523
aF0.2987012987012987
aF1.896103896103896
aF2.1948051948051948
aF3.987012987012987
aF0.8831168831168831
aF0.07792207792207792
aF1.3506493506493507
aF1.896103896103896
aF7.181818181818182
aF2.168831168831169
aF0.5974025974025974
aI2
aI24
aa(lp230
F9.318181818181818
aF0.5
aF1.7727272727272727
aF0.19468181818181815
aF0.09090909090909091
aF0.5909090909090909
aF0.09090909090909091
aF0.09090909090909091
aF0.2727272727272727
aF0.045454545454545456
aF0.13636363636363635
aF0.9090909090909091
aF1.0454545454545454
aF0.4090909090909091
aF0.22727272727272727
aF0.09090909090909091
aF0.4090909090909091
aF1.4545454545454546
aF1.1818181818181819
aF-1.1363636363636365
aF0.4090909090909091
aI0
aI23
aa(lp231
F37.4025974025974
aF5.259740259740259
aF12.155844155844155
aF0.4272467532467531
aF2.6103896103896105
aF6.311688311688312
aF0.39999999999999997
aF1.4935064935064934
aF1.922077922077922
aF0.4971038961038961
aF0.5974025974025974
aF2.5844155844155843
aF3.1818181818181817
aF2.5064935064935066
aF0.6493506493506493
aF0.2857142857142857
aF1.0649350649350648
aF2.9740259740259742
aF14.623376623376624
aF6.558441558441558
aF0.7662337662337663
aI6
aI30
aa(lp232
F12.857142857142858
aF1.3095238095238095
aF3.0952380952380953
aF0.3277857142857143
aF0.0
aF0.0
aF0.0
aF0.38095238095238093
aF0.7857142857142857
aF0.1389047619047619
aF1.0476190476190477
aF1.5
aF2.5476190476190474
aF0.2857142857142857
aF0.19047619047619047
aF0.5476190476190477
aF0.5238095238095238
aF1.7857142857142858
aF3.0
aF-2.0952380952380953
aF0.42857142857142855
aI0
aI20
aa(lp233
F15.070422535211268
aF1.704225352112676
aF4.056338028169014
aF0.35829577464788726
aF0.6338028169014085
aF1.9154929577464788
aF0.23732394366197185
aF0.38028169014084506
aF0.5352112676056338
aF0.13498591549295774
aF0.30985915492957744
aF1.3661971830985915
aF1.676056338028169
aF1.8873239436619718
aF0.5915492957746479
aF0.09859154929577464
aF1.028169014084507
aF1.0704225352112675
aF4.422535211267606
aF0.056338028169014086
aF0.5070422535211268
aI0
aI20
aa(lp234
F19.725
aF2.7625
aF6.7
aF0.41701250000000006
aF0.8125
aF2.2625
aF0.297025
aF0.8625
aF1.025
aF0.33187500000000003
aF0.525
aF2.0625
aF2.5875
aF1.0
aF0.575
aF0.1625
aF0.6875
aF1.9875
aF7.2
aF-2.2
aF0.4875
aI3
aI25
aa(lp235
F9.869565217391305
aF0.8260869565217391
aF2.0
aF0.15817391304347825
aF0.0
aF0.0
aF0.0
aF0.08695652173913043
aF0.13043478260869565
aF0.06521739130434782
aF0.6086956521739131
aF1.434782608695652
aF2.0434782608695654
aF0.21739130434782608
aF0.34782608695652173
aF0.5652173913043478
aF0.6521739130434783
aF2.0434782608695654
aF1.7391304347826086
aF-1.0869565217391304
aF0.21739130434782608
aI8
aI31
aa(lp236
F35.52857142857143
aF8.914285714285715
aF20.7
aF0.42832857142857134
aF1.7571428571428571
aF5.3428571428571425
aF0.3000285714285714
aF4.814285714285714
aF6.814285714285714
aF0.6356142857142857
aF0.7428571428571429
aF4.5
aF5.242857142857143
aF6.414285714285715
aF1.2857142857142858
aF0.5142857142857142
aF2.9571428571428573
aF1.9
aF24.4
aF5.685714285714286
aF0.7
aI9
aI27
aa(lp237
F18.54320987654321
aF2.9876543209876543
aF5.555555555555555
aF0.5415925925925926
aF0.0
aF0.07407407407407407
aF0.0
aF1.3950617283950617
aF2.197530864197531
aF0.4024567901234568
aF1.7777777777777777
aF3.197530864197531
aF4.9753086419753085
aF0.6049382716049383
aF0.6296296296296297
aF0.2222222222222222
aF0.8888888888888888
aF2.691358024691358
aF7.37037037037037
aF-1.4197530864197532
aF0.3950617283950617
aI0
aI23
aa(lp238
F27.17283950617284
aF2.493827160493827
aF6.135802469135802
aF0.3566790123456789
aF0.8024691358024691
aF2.5185185185185186
aF0.24764197530864193
aF0.5308641975308642
aF0.7901234567901234
aF0.18788888888888888
aF0.25925925925925924
aF1.8024691358024691
aF2.0617283950617282
aF4.938271604938271
aF0.7160493827160493
aF0.09876543209876543
aF1.5432098765432098
aF1.4814814814814814
aF6.320987654320987
aF-0.691358024691358
aF0.5185185185185185
aI3
aI26
aa(lp239
F25.481012658227847
aF3.8987341772151898
aF8.177215189873417
aF0.4592025316455696
aF0.0379746835443038
aF0.25316455696202533
aF0.0379746835443038
aF2.1392405063291138
aF2.9367088607594938
aF0.608620253164557
aF1.5063291139240507
aF3.481012658227848
aF4.987341772151899
aF1.3544303797468353
aF0.6708860759493671
aF0.5063291139240507
aF1.4556962025316456
aF3.0632911392405062
aF9.974683544303797
aF-2.2531645569620253
aF0.3924050632911392
aI10
aI30
aa(lp240
F5.933333333333334
aF1.0333333333333334
aF2.9
aF0.18850000000000003
aF0.43333333333333335
aF1.1
aF0.17223333333333332
aF0.4
aF0.5666666666666667
aF0.1667
aF0.06666666666666667
aF0.26666666666666666
aF0.3333333333333333
aF1.1666666666666667
aF0.1
aF0.0
aF0.3333333333333333
aF0.6666666666666666
aF2.9
aF-0.6
aF0.5333333333333333
aI12
aI35
aa(lp241
F10.75
aF1.5666666666666667
aF2.7666666666666666
aF0.38236666666666674
aF0.0
aF0.0
aF0.0
aF0.85
aF1.5666666666666667
aF0.2666
aF1.0666666666666667
aF1.85
aF2.9166666666666665
aF0.16666666666666666
aF0.18333333333333332
aF0.35
aF0.5166666666666667
aF1.5
aF3.9833333333333334
aF0.18333333333333332
aF0.5333333333333333
aI0
aI22
aa(lp242
F6.5
aF0.6666666666666666
aF1.25
aF0.31666666666666665
aF0.0
aF0.0
aF0.0
aF0.3333333333333333
aF0.5833333333333334
aF0.13891666666666666
aF0.5833333333333334
aF1.9166666666666667
aF2.5
aF0.3333333333333333
aF0.25
aF0.0
aF0.3333333333333333
aF1.0
aF1.6666666666666667
aF-1.75
aF0.25
aI1
aI23
aa(lp243
F24.634920634920636
aF2.7777777777777777
aF6.619047619047619
aF0.36566666666666653
aF1.1904761904761905
aF3.4603174603174605
aF0.25741269841269837
aF0.9365079365079365
aF1.1904761904761905
aF0.36904761904761907
aF0.49206349206349204
aF2.492063492063492
aF2.984126984126984
aF1.7142857142857142
aF1.0476190476190477
aF0.15873015873015872
aF0.7142857142857143
aF1.9206349206349207
aF7.682539682539683
aF-0.6507936507936508
aF0.47619047619047616
aI12
aI35
aa(lp244
F36.08695652173913
aF7.869565217391305
aF17.91304347826087
aF0.4409130434782609
aF2.3043478260869565
aF5.826086956521739
aF0.38276086956521743
aF6.760869565217392
aF8.5
aF0.7469130434782608
aF0.8478260869565217
aF5.021739130434782
aF5.869565217391305
aF4.108695652173913
aF1.0434782608695652
aF0.2608695652173913
aF3.282608695652174
aF2.608695652173913
aF24.804347826086957
aF-0.17391304347826086
aF0.41304347826086957
aI8
aI29
aa(lp245
F27.986842105263158
aF3.460526315789474
aF9.013157894736842
aF0.36893421052631564
aF1.2105263157894737
aF3.6710526315789473
aF0.29418421052631577
aF1.4210526315789473
aF1.9342105263157894
aF0.4586184210526316
aF0.4473684210526316
aF1.986842105263158
aF2.4342105263157894
aF5.7368421052631575
aF1.2894736842105263
aF0.3026315789473684
aF2.1842105263157894
aF2.0
aF9.552631578947368
aF-1.6973684210526316
aF0.40789473684210525
aI5
aI27
aa(lp246
F36.62162162162162
aF7.3108108108108105
aF15.675675675675675
aF0.47159459459459474
aF0.5945945945945946
aF1.7297297297297298
aF0.26597297297297295
aF4.6891891891891895
aF5.445945945945946
aF0.7778513513513515
aF1.0
aF2.77027027027027
aF3.77027027027027
aF3.824324324324324
aF0.7972972972972973
aF0.20270270270270271
aF2.135135135135135
aF3.0945945945945947
aF19.905405405405407
aF4.72972972972973
aF0.6351351351351351
aI7
aI28
aa(lp247
F11.234567901234568
aF0.9135802469135802
aF2.074074074074074
aF0.34154320987654324
aF0.0
aF0.0
aF0.0
aF0.654320987654321
aF1.0
aF0.26133333333333336
aF0.8765432098765432
aF1.2345679012345678
aF2.111111111111111
aF0.7407407407407407
aF0.16049382716049382
aF0.09876543209876543
aF0.4444444444444444
aF1.8024691358024691
aF2.4814814814814814
aF1.2469135802469136
aF0.6172839506172839
aI5
aI28
aa(lp248
F22.0
aF1.9710144927536233
aF4.681159420289855
aF0.37630434782608685
aF0.463768115942029
aF1.2318840579710144
aF0.2536231884057971
aF0.9710144927536232
aF1.2753623188405796
aF0.3925072463768116
aF0.782608695652174
aF1.855072463768116
aF2.63768115942029
aF2.0869565217391304
aF1.0869565217391304
aF0.2318840579710145
aF1.2608695652173914
aF2.4927536231884058
aF5.3768115942028984
aF-2.1594202898550723
aF0.37681159420289856
aI4
aI28
aa(lp249
F9.837837837837839
aF0.7567567567567568
aF1.4054054054054055
aF0.3103783783783784
aF0.0
aF0.02702702702702703
aF0.0
aF0.4594594594594595
aF0.5405405405405406
aF0.1891891891891892
aF0.7297297297297297
aF1.5135135135135136
aF2.2432432432432434
aF0.1891891891891892
aF0.1891891891891892
aF0.3783783783783784
aF0.4594594594594595
aF1.4594594594594594
aF1.972972972972973
aF-0.6486486486486487
aF0.3783783783783784
aI13
aI35
aa(lp250
F9.172413793103448
aF0.1724137931034483
aF0.5862068965517241
aF0.09482758620689655
aF0.0
aF0.0
aF0.0
aF0.2413793103448276
aF0.6551724137931034
aF0.11206896551724138
aF1.1724137931034482
aF0.9310344827586207
aF2.103448275862069
aF0.20689655172413793
aF0.1724137931034483
aF0.27586206896551724
aF0.41379310344827586
aF1.4827586206896552
aF0.5862068965517241
aF-3.310344827586207
aF0.41379310344827586
aI7
aI29
aa(lp251
F30.22077922077922
aF4.6103896103896105
aF12.246753246753247
aF0.35988311688311686
aF1.12987012987013
aF3.3506493506493507
aF0.3117792207792208
aF1.5584415584415585
aF2.1948051948051948
aF0.44898701298701305
aF0.6883116883116883
aF2.2857142857142856
aF2.9740259740259742
aF2.116883116883117
aF0.36363636363636365
aF0.07792207792207792
aF1.6623376623376624
aF2.324675324675325
aF11.909090909090908
aF-3.051948051948052
aF0.38961038961038963
aI0
aI22
aa(lp252
F22.246913580246915
aF3.3333333333333335
aF8.098765432098766
aF0.39106172839506176
aF1.271604938271605
aF3.493827160493827
aF0.30849382716049384
aF1.1111111111111112
aF1.2098765432098766
aF0.4660493827160494
aF0.4074074074074074
aF2.3209876543209877
aF2.728395061728395
aF1.3209876543209877
aF0.3950617283950617
aF0.19753086419753085
aF0.5679012345679012
aF0.9259259259259259
aF9.049382716049383
aF2.246913580246914
aF0.7160493827160493
aI11
aI33
aa(lp253
F38.405797101449274
aF6.7101449275362315
aF14.53623188405797
aF0.44997101449275345
aF2.927536231884058
aF7.173913043478261
aF0.37681159420289856
aF2.3333333333333335
aF2.9420289855072466
aF0.6339710144927537
aF0.7536231884057971
aF4.7101449275362315
aF5.463768115942029
aF4.27536231884058
aF0.782608695652174
aF0.2608695652173913
aF2.5942028985507246
aF1.9855072463768115
aF18.681159420289855
aF-4.101449275362318
aF0.2463768115942029
aI6
aI26
aa(lp254
F18.513513513513512
aF1.8918918918918919
aF4.756756756756757
aF0.4043513513513514
aF0.02702702702702703
aF0.21621621621621623
aF0.02702702702702703
aF0.5945945945945946
aF0.8648648648648649
aF0.241
aF0.35135135135135137
aF1.2432432432432432
aF1.5945945945945945
aF3.324324324324324
aF0.3783783783783784
aF0.0
aF1.1081081081081081
aF1.945945945945946
aF4.405405405405405
aF-2.4594594594594597
aF0.4594594594594595
aI10
aI32
aa(lp255
F2.4285714285714284
aF0.0
aF0.5714285714285714
aF0.0
aF0.0
aF0.0
aF0.0
aF0.0
aF0.0
aF0.0
aF0.0
aF0.5714285714285714
aF0.5714285714285714
aF0.0
aF0.14285714285714285
aF0.0
aF0.14285714285714285
aF0.14285714285714285
aF0.0
aF-0.7142857142857143
aF0.0
aI0
aI23
aa(lp256
F26.49206349206349
aF4.571428571428571
aF8.047619047619047
aF0.5601111111111111
aF0.0
aF0.015873015873015872
aF0.0
aF3.0
aF4.365079365079365
aF0.589111111111111
aF2.3015873015873014
aF4.666666666666667
aF6.968253968253968
aF1.2222222222222223
aF0.9365079365079365
aF0.9365079365079365
aF2.015873015873016
aF3.3015873015873014
aF12.142857142857142
aF1.7142857142857142
aF0.5079365079365079
aI4
aI24
aa(lp257
F7.583333333333333
aF0.5833333333333334
aF2.1666666666666665
aF0.13333333333333333
aF0.0
aF0.0
aF0.0
aF0.3333333333333333
aF0.4166666666666667
aF0.20833333333333334
aF0.5833333333333334
aF1.5
aF2.0833333333333335
aF0.3333333333333333
aF0.0
aF0.5833333333333334
aF0.5
aF0.6666666666666666
aF1.5
aF-6.166666666666667
aF0.5833333333333334
aI5
aI24
aa(lp258
F36.95652173913044
aF5.434782608695652
aF13.579710144927537
aF0.399623188405797
aF1.0579710144927537
aF3.1739130434782608
aF0.2773623188405797
aF3.028985507246377
aF4.463768115942029
aF0.5351594202898552
aF0.5507246376811594
aF3.2318840579710146
aF3.782608695652174
aF3.63768115942029
aF1.289855072463768
aF0.36231884057971014
aF2.217391304347826
aF2.36231884057971
aF14.956521739130435
aF2.898550724637681
aF0.6231884057971014
aI8
aI27
aa(lp259
F11.368421052631579
aF1.0526315789473684
aF2.1052631578947367
aF0.34877192982456146
aF0.0
aF0.017543859649122806
aF0.0
aF0.9649122807017544
aF1.2456140350877194
aF0.3244035087719298
aF0.8070175438596491
aF1.4385964912280702
aF2.245614035087719
aF0.19298245614035087
aF0.19298245614035087
aF0.7017543859649122
aF0.42105263157894735
aF2.087719298245614
aF3.0701754385964914
aF-3.1052631578947367
aF0.3333333333333333
aI0
aI22
aa(lp260
F33.48529411764706
aF6.5588235294117645
aF12.720588235294118
aF0.5129117647058825
aF0.0
aF0.014705882352941176
aF0.0
aF2.911764705882353
aF4.235294117647059
aF0.6278823529411764
aF3.3970588235294117
aF7.5
aF10.897058823529411
aF1.2647058823529411
aF0.6911764705882353
aF1.5441176470588236
aF1.9411764705882353
aF3.3823529411764706
aF16.029411764705884
aF-2.514705882352941
aF0.29411764705882354
aI2
aI21
aa(lp261
F22.074626865671643
aF2.1194029850746268
aF5.358208955223881
aF0.3475373134328357
aF0.4626865671641791
aF1.7761194029850746
aF0.17144776119402985
aF0.5671641791044776
aF0.8507462686567164
aF0.20123880597014926
aF0.26865671641791045
aF1.671641791044776
aF1.9402985074626866
aF2.8955223880597014
aF0.6119402985074627
aF0.04477611940298507
aF0.9701492537313433
aF1.7164179104477613
aF5.268656716417911
aF-2.791044776119403
aF0.5223880597014925
aI16
aI38
aa(lp262
F28.806451612903224
aF3.564516129032258
aF7.919354838709677
aF0.45214516129032234
aF0.08064516129032258
aF0.532258064516129
aF0.08064516129032258
aF1.8387096774193548
aF2.370967741935484
aF0.47851612903225804
aF1.2741935483870968
aF5.193548387096774
aF6.467741935483871
aF3.6129032258064515
aF0.6129032258064516
aF0.6290322580645161
aF1.6935483870967742
aF2.467741935483871
aF9.048387096774194
aF1.403225806451613
aF0.41935483870967744
aI8
aI30
aa(lp263
F31.507042253521128
aF4.845070422535211
aF12.464788732394366
aF0.3737042253521126
aF0.8591549295774648
aF2.7183098591549295
aF0.2744647887323943
aF2.4225352112676055
aF3.3661971830985915
aF0.5204788732394365
aF0.8309859154929577
aF2.535211267605634
aF3.3661971830985915
aF6.915492957746479
aF1.6338028169014085
aF0.352112676056338
aF2.788732394366197
aF2.6619718309859155
aF12.971830985915492
aF-1.1549295774647887
aF0.43661971830985913
aI5
aI28
aa(lp264
F7.956521739130435
aF1.1956521739130435
aF3.0
aF0.344695652173913
aF0.06521739130434782
aF0.3695652173913043
aF0.03984782608695652
aF0.2391304347826087
aF0.45652173913043476
aF0.11956521739130435
aF0.30434782608695654
aF0.8043478260869565
aF1.108695652173913
aF0.9347826086956522
aF0.34782608695652173
aF0.06521739130434782
aF0.5217391304347826
aF0.6956521739130435
aF2.6956521739130435
aF-1.891304347826087
aF0.43478260869565216
aI1
aI24
aa(lp265
F7.764705882352941
aF0.8235294117647058
aF2.8823529411764706
aF0.23652941176470593
aF0.5882352941176471
aF1.8823529411764706
aF0.21176470588235297
aF0.11764705882352941
aF0.11764705882352941
aF0.058823529411764705
aF0.35294117647058826
aF1.0
aF1.3529411764705883
aF0.058823529411764705
aF0.29411764705882354
aF0.058823529411764705
aF0.4117647058823529
aF1.1176470588235294
aF2.3529411764705883
aF-1.2941176470588236
aF0.8235294117647058
aI7
aI27
aa(lp266
F20.014084507042252
aF2.323943661971831
aF5.746478873239437
aF0.37426760563380285
aF0.0
aF0.028169014084507043
aF0.0
aF1.3380281690140845
aF1.704225352112676
aF0.4457746478873239
aF1.7887323943661972
aF3.0
aF4.788732394366197
aF0.647887323943662
aF0.3380281690140845
aF0.704225352112676
aF1.1830985915492958
aF2.563380281690141
aF5.985915492957746
aF2.7183098591549295
aF0.5915492957746479
aI13
aI37
aa(lp267
F16.166666666666668
aF0.8809523809523809
aF1.8571428571428572
aF0.39680952380952383
aF0.0
aF0.0
aF0.0
aF0.23809523809523808
aF0.6428571428571429
aF0.0872857142857143
aF1.4047619047619047
aF2.5476190476190474
aF3.9523809523809526
aF0.2857142857142857
aF0.23809523809523808
aF1.5714285714285714
aF0.9285714285714286
aF2.9047619047619047
aF2.0
aF-0.7142857142857143
aF0.42857142857142855
aI6
aI27
aa(lp268
F7.7
aF0.5
aF1.3
aF0.1571
aF0.0
aF0.0
aF0.0
aF0.3
aF0.8
aF0.1
aF1.2
aF1.4
aF2.6
aF0.1
aF0.1
aF0.6
aF0.5
aF1.1
aF1.3
aF-2.5
aF0.5
aI0
aI24
aa(lp269
F22.875
aF3.171875
aF7.1875
aF0.398390625
aF0.0
aF0.078125
aF0.0
aF1.890625
aF2.25
aF0.5648437500000001
aF1.8125
aF4.265625
aF6.078125
aF0.703125
aF0.578125
aF0.40625
aF1.1875
aF2.265625
aF8.234375
aF0.109375
aF0.546875
aI11
aI31
aa(lp270
F20.09090909090909
aF2.272727272727273
aF6.103896103896104
aF0.31625974025974024
aF0.4805194805194805
aF1.6623376623376624
aF0.18933766233766233
aF1.1688311688311688
aF1.4285714285714286
aF0.414987012987013
aF0.2077922077922078
aF1.1688311688311688
aF1.3766233766233766
aF2.8181818181818183
aF0.5584415584415584
aF0.14285714285714285
aF1.2337662337662338
aF2.142857142857143
aF6.194805194805195
aF-0.7012987012987013
aF0.2727272727272727
aI2
aI21
aa(lp271
F13.333333333333334
aF0.8333333333333334
aF2.8333333333333335
aF0.17216666666666666
aF0.16666666666666666
aF1.0
aF0.041666666666666664
aF0.3333333333333333
aF0.5
aF0.25
aF0.5
aF1.3333333333333333
aF1.8333333333333333
aF1.3333333333333333
aF0.5
aF0.16666666666666666
aF0.8333333333333334
aF1.6666666666666667
aF2.1666666666666665
aF-5.833333333333333
aF0.3333333333333333
aI14
aI36
aa(lp272
F14.701754385964913
aF2.1228070175438596
aF4.771929824561403
aF0.43403508771929805
aF0.017543859649122806
aF0.05263157894736842
aF0.008771929824561403
aF0.7368421052631579
aF1.1578947368421053
aF0.24540350877192982
aF1.368421052631579
aF1.8070175438596492
aF3.175438596491228
aF0.40350877192982454
aF0.19298245614035087
aF0.40350877192982454
aF0.6666666666666666
aF2.807017543859649
aF5.0
aF-2.175438596491228
aF0.38596491228070173
aI5
aI27
aa(lp273
F19.166666666666668
aF2.106060606060606
aF5.106060606060606
aF0.3560151515151515
aF0.3787878787878788
aF1.0757575757575757
aF0.17675757575757575
aF0.696969696969697
aF0.9242424242424242
aF0.21006060606060606
aF0.3181818181818182
aF1.196969696969697
aF1.5151515151515151
aF2.8636363636363638
aF0.48484848484848486
aF0.045454545454545456
aF1.1363636363636365
aF1.7878787878787878
aF5.287878787878788
aF-2.121212121212121
aF0.5909090909090909
aI9
aI32
aa(lp274
F18.985507246376812
aF2.0434782608695654
aF4.0144927536231885
aF0.5074637681159423
aF0.0
aF0.028985507246376812
aF0.0
aF0.8695652173913043
aF1.1304347826086956
aF0.32005797101449274
aF1.1594202898550725
aF3.6956521739130435
aF4.855072463768116
aF0.7971014492753623
aF0.4492753623188406
aF0.8260869565217391
aF1.2463768115942029
aF2.652173913043478
aF4.956521739130435
aF2.130434782608696
aF0.7391304347826086
aI3
aI30
aa(lp275
F30.675
aF5.8375
aF10.675
aF0.5410375
aF0.0375
aF0.2375
aF0.025
aF2.975
aF4.6125
aF0.6328750000000001
aF2.3625
aF3.0625
aF5.425
aF2.8875
aF1.3625
aF0.3125
aF2.4625
aF2.8625
aF14.6875
aF-1.85
aF0.3375
aI8
aI31
aa(lp276
F20.7375
aF2.175
aF4.6125
aF0.39435000000000003
aF0.025
aF0.1125
aF0.025
aF0.825
aF1.0625
aF0.281975
aF0.7
aF1.5875
aF2.2875
aF1.0625
aF0.875
aF0.375
aF0.3875
aF2.225
aF5.2
aF-1.4625
aF0.5
aI2
aI25
aa(lp277
F10.65
aF0.825
aF1.225
aF0.45
aF0.0
aF0.0
aF0.0
aF0.325
aF0.55
aF0.15
aF1.15
aF1.35
aF2.5
aF0.35
aF0.425
aF0.15
aF0.525
aF1.4
aF1.975
aF-0.2
aF0.5
aI13
aI35
aa(lp278
F24.609375
aF4.09375
aF9.578125
aF0.420421875
aF1.546875
aF4.109375
aF0.32604687499999996
aF1.734375
aF2.09375
aF0.58384375
aF0.796875
aF3.109375
aF3.90625
aF0.75
aF0.484375
aF0.8125
aF1.65625
aF2.765625
aF11.46875
aF0.796875
aF0.546875
aI0
aI21
aa(lp279
F5.0588235294117645
aF0.4117647058823529
aF1.2941176470588236
aF0.19605882352941179
aF0.0
aF0.0
aF0.0
aF0.47058823529411764
aF0.7058823529411765
aF0.1323529411764706
aF0.7058823529411765
aF1.1176470588235294
aF1.8235294117647058
aF0.0
aF0.17647058823529413
aF0.5882352941176471
aF0.35294117647058826
aF0.5882352941176471
aF1.2941176470588236
aF-1.0588235294117647
aF0.47058823529411764
aI9
aI32
aa(lp280
F35.28
aF6.866666666666666
aF12.866666666666667
aF0.5369466666666669
aF2.08
aF4.533333333333333
aF0.45365333333333335
aF2.933333333333333
aF3.2666666666666666
aF0.7305200000000001
aF0.4
aF3.1333333333333333
aF3.533333333333333
aF11.626666666666667
aF0.7466666666666667
aF0.08
aF3.7866666666666666
aF1.56
aF18.746666666666666
aF8.253333333333334
aF0.7866666666666666
aI10
aI32
aa(lp281
F37.098591549295776
aF6.014084507042254
aF13.704225352112676
aF0.43409859154929564
aF0.5352112676056338
aF2.1267605633802815
aF0.1843098591549296
aF3.676056338028169
aF5.309859154929577
aF0.6525070422535211
aF2.2816901408450705
aF6.28169014084507
aF8.56338028169014
aF3.2535211267605635
aF1.3943661971830985
aF2.859154929577465
aF3.1549295774647885
aF3.352112676056338
aF16.239436619718308
aF-3.1971830985915495
aF0.38028169014084506
aI2
aI21
aa(lp282
F26.87323943661972
aF3.9859154929577465
aF8.154929577464788
aF0.4715070422535212
aF1.295774647887324
aF3.323943661971831
aF0.3386619718309859
aF1.9154929577464788
aF2.9577464788732395
aF0.4691408450704225
aF1.1408450704225352
aF3.4225352112676055
aF4.563380281690141
aF0.8169014084507042
aF0.6619718309859155
aF0.7746478873239436
aF1.4788732394366197
aF3.0422535211267605
aF11.183098591549296
aF-2.464788732394366
aF0.5070422535211268
aI3
aI24
aa(lp283
F4.764705882352941
aF0.5
aF1.3529411764705883
aF0.22991176470588237
aF0.35294117647058826
aF1.0294117647058822
aF0.1980294117647059
aF0.058823529411764705
aF0.058823529411764705
aF0.029411764705882353
aF0.11764705882352941
aF0.5882352941176471
aF0.7058823529411765
aF0.14705882352941177
aF0.11764705882352941
aF0.0
aF0.08823529411764706
aF0.47058823529411764
aF1.411764705882353
aF-0.6176470588235294
aF0.5882352941176471
aI0
aI23
aa(lp284
F36.05882352941177
aF7.098039215686274
aF15.019607843137255
aF0.46650980392156854
aF0.1568627450980392
aF0.47058823529411764
aF0.11764705882352941
aF3.627450980392157
aF4.411764705882353
aF0.7320784313725488
aF2.392156862745098
aF5.745098039215686
aF8.137254901960784
aF2.235294117647059
aF0.7647058823529411
aF0.7058823529411765
aF1.8823529411764706
aF2.7254901960784315
aF17.980392156862745
aF0.5490196078431373
aF0.5294117647058824
aI3
aI26
aa(lp285
F8.073170731707316
aF1.048780487804878
aF2.8536585365853657
aF0.2547560975609756
aF0.2682926829268293
aF1.0975609756097562
aF0.14307317073170733
aF0.2682926829268293
aF0.36585365853658536
aF0.1402439024390244
aF0.2682926829268293
aF0.5853658536585366
aF0.8536585365853658
aF0.3170731707317073
aF0.36585365853658536
aF0.0975609756097561
aF0.34146341463414637
aF0.43902439024390244
aF2.6341463414634148
aF-0.8536585365853658
aF0.3902439024390244
aI0
aI22
aa(lp286
F30.234567901234566
aF2.3333333333333335
aF5.753086419753086
aF0.3989382716049383
aF1.0987654320987654
aF2.8641975308641974
aF0.3309259259259258
aF0.5308641975308642
aF0.9012345679012346
aF0.22325925925925927
aF0.2839506172839506
aF2.4691358024691357
aF2.753086419753086
aF1.4444444444444444
aF0.7654320987654321
aF0.30864197530864196
aF0.8024691358024691
aF2.1481481481481484
aF6.296296296296297
aF7.246913580246914
aF0.7160493827160493
aI10
aI35
aa(lp287
F38.391304347826086
aF6.550724637681159
aF14.855072463768115
aF0.42782608695652163
aF1.3333333333333333
aF3.739130434782609
aF0.3412608695652174
aF4.405797101449275
aF5.927536231884058
aF0.6837826086956521
aF1.4782608695652173
aF5.057971014492754
aF6.536231884057971
aF3.318840579710145
aF2.130434782608696
aF0.5942028985507246
aF2.0869565217391304
aF2.927536231884058
aF18.840579710144926
aF0.6521739130434783
aF0.4057971014492754
aI7
aI27
aa(lp288
F36.629629629629626
aF5.654320987654321
aF12.271604938271604
aF0.4546790123456791
aF1.0
aF2.5925925925925926
aF0.33101234567901233
aF2.123456790123457
aF2.765432098765432
aF0.5739135802469136
aF1.7777777777777777
aF3.506172839506173
aF5.283950617283951
aF2.802469135802469
aF0.6296296296296297
aF0.6790123456790124
aF1.1975308641975309
aF1.4197530864197532
aF14.432098765432098
aF3.876543209876543
aF0.6419753086419753
aI4
aI26
aa(lp289
F17.746478873239436
aF2.8028169014084505
aF6.633802816901408
aF0.3915915492957746
aF0.18309859154929578
aF0.6901408450704225
aF0.10211267605633803
aF1.8591549295774648
aF2.3098591549295775
aF0.6076338028169016
aF0.4225352112676056
aF1.4366197183098592
aF1.8591549295774648
aF2.8309859154929575
aF0.5492957746478874
aF0.028169014084507043
aF1.2535211267605635
aF1.8028169014084507
aF7.647887323943662
aF0.38028169014084506
aF0.49295774647887325
aI5
aI27
aa(lp290
F4.2
aF0.5
aF1.3
aF0.3167
aF0.0
aF0.1
aF0.0
aF0.5
aF0.7
aF0.21669999999999998
aF0.7
aF0.3
aF1.0
aF0.1
aF0.0
aF0.0
aF0.1
aF0.8
aF1.5
aF-1.1
aF0.0
aI0
aI24
aa(lp291
F19.366666666666667
aF2.8333333333333335
aF6.183333333333334
aF0.4335333333333334
aF0.8333333333333334
aF1.9666666666666666
aF0.32748333333333335
aF1.1833333333333333
aF1.4166666666666667
aF0.43195
aF0.38333333333333336
aF1.7
aF2.0833333333333335
aF1.0166666666666666
aF0.4666666666666667
aF0.08333333333333333
aF1.0666666666666667
aF2.0166666666666666
aF7.683333333333334
aF2.3666666666666667
aF0.5833333333333334
aI4
aI29
aa(lp292
F29.17543859649123
aF4.2105263157894735
aF7.0
aF0.5920526315789474
aF0.0
aF0.0
aF0.0
aF2.473684210526316
aF3.0350877192982457
aF0.6439298245614036
aF3.43859649122807
aF7.12280701754386
aF10.56140350877193
aF1.8245614035087718
aF0.8421052631578947
aF0.40350877192982454
aF1.5789473684210527
aF2.719298245614035
aF10.894736842105264
aF1.6666666666666667
aF0.43859649122807015
aI1
aI23
aa(lp293
F0.0
aF0.0
aF0.0
aF0.0
aF0.0
aF0.0
aF0.0
aF0.0
aF0.0
aF0.0
aF0.0
aF0.0
aF0.0
aF0.0
aF0.0
aF0.0
aF0.0
aF0.0
aF0.0
aF0.0
aF0.0
aa(lp294
F20.825
aF2.425
aF4.8375
aF0.4651500000000001
aF0.0
aF0.0
aF0.0
aF1.6
aF2.975
aF0.39375
aF1.8375
aF4.175
aF6.0125
aF0.375
aF0.2625
aF0.8125
aF1.6
aF2.775
aF6.45
aF-2.9875
aF0.3875
aI6
aI28
aa(lp295
F36.95
aF6.2
aF13.35
aF0.4493499999999999
aF1.5125
aF3.8
aF0.34585
aF2.975
aF3.55
aF0.6633375
aF0.6375
aF3.225
aF3.8625
aF4.7375
aF1.0
aF0.275
aF2.6
aF2.3375
aF16.8875
aF-2.55
aF0.4
aI8
aI27
aa(lp296
F24.0
aF3.1481481481481484
aF7.62962962962963
aF0.3841851851851853
aF0.037037037037037035
aF0.25925925925925924
aF0.037037037037037035
aF1.7037037037037037
aF3.037037037037037
aF0.4277777777777778
aF0.9629629629629629
aF3.4814814814814814
aF4.444444444444445
aF1.1481481481481481
aF0.8888888888888888
aF0.48148148148148145
aF2.037037037037037
aF2.2962962962962963
aF8.037037037037036
aF0.48148148148148145
aF0.4444444444444444
aI8
aI30
aa(lp297
F37.49382716049383
aF3.5925925925925926
aF8.061728395061728
aF0.45203703703703707
aF1.9382716049382716
aF4.604938271604938
aF0.3970246913580245
aF1.0864197530864197
aF1.3950617283950617
aF0.3707407407407407
aF0.8271604938271605
aF3.345679012345679
aF4.172839506172839
aF2.1481481481481484
aF0.9753086419753086
aF0.7283950617283951
aF0.8888888888888888
aF2.3333333333333335
aF10.209876543209877
aF4.407407407407407
aF0.6419753086419753
aI5
aI28
aa(lp298
F26.192307692307693
aF3.8461538461538463
aF6.346153846153846
aF0.5810128205128205
aF0.0
aF0.01282051282051282
aF0.0
aF1.9743589743589745
aF2.9358974358974357
aF0.5057820512820513
aF1.8205128205128205
aF3.230769230769231
aF5.051282051282051
aF0.9358974358974359
aF0.5769230769230769
aF0.7564102564102564
aF1.3974358974358974
aF3.282051282051282
aF9.666666666666666
aF-0.038461538461538464
aF0.48717948717948717
aI8
aI31
aa(lp299
F38.379746835443036
aF8.10126582278481
aF15.151898734177216
aF0.5306962025316456
aF0.012658227848101266
aF0.012658227848101266
aF0.012658227848101266
aF4.430379746835443
aF5.810126582278481
aF0.7092784810126582
aF3.3544303797468356
aF6.0
aF9.354430379746836
aF2.9240506329113924
aF0.9746835443037974
aF2.2531645569620253
aF2.5316455696202533
aF2.962025316455696
aF20.645569620253166
aF0.26582278481012656
aF0.5063291139240507
aI7
aI27
aa(lp300
F17.145454545454545
aF3.2363636363636363
aF7.6
aF0.39452727272727267
aF1.3272727272727274
aF3.1454545454545455
aF0.36170909090909087
aF0.5454545454545454
aF0.6
aF0.2484909090909091
aF0.2545454545454545
aF1.4
aF1.6545454545454545
aF1.2181818181818183
aF0.4727272727272727
aF0.05454545454545454
aF0.4909090909090909
aF1.2363636363636363
aF8.345454545454546
aF-1.1636363636363636
aF0.4727272727272727
aI6
aI28
aa(lp301
F37.063291139240505
aF6.227848101265823
aF13.645569620253164
aF0.44599999999999995
aF1.0379746835443038
aF3.2025316455696204
aF0.2959367088607594
aF2.8734177215189876
aF3.7468354430379747
aF0.6291139240506328
aF0.5189873417721519
aF2.848101265822785
aF3.367088607594937
aF9.379746835443038
aF0.9873417721518988
aF0.16455696202531644
aF3.0759493670886076
aF3.1772151898734178
aF16.367088607594937
aF2.088607594936709
aF0.6329113924050633
aI1
aI22
aa(lp302
F39.50684931506849
aF8.863013698630137
aF21.205479452054796
aF0.41183561643835614
aF2.808219178082192
aF8.0
aF0.35472602739726017
aF8.301369863013699
aF9.835616438356164
aF0.815
aF0.8356164383561644
aF3.780821917808219
aF4.616438356164384
aF6.068493150684931
aF1.904109589041096
aF0.1780821917808219
aF3.232876712328767
aF3.410958904109589
aF28.835616438356166
aF2.6301369863013697
aF0.5342465753424658
aI5
aI24
aa(lp303
F37.5625
aF10.6875
aF22.453125
aF0.47562499999999996
aF0.609375
aF2.3125
aF0.20745312500000002
aF7.078125
aF8.765625
aF0.7901718749999997
aF2.1875
aF3.84375
aF6.03125
aF3.828125
aF1.1875
aF0.328125
aF3.640625
aF3.15625
aF29.0625
aF1.046875
aF0.5625
aI3
aI22
aa(lp304
F20.367088607594937
aF2.8734177215189876
aF5.265822784810126
aF0.5072151898734177
aF0.0
aF0.012658227848101266
aF0.0
aF0.4177215189873418
aF0.6075949367088608
aF0.20781012658227851
aF1.4430379746835442
aF3.0759493670886076
aF4.518987341772152
aF0.8987341772151899
aF0.45569620253164556
aF1.0632911392405062
aF0.7088607594936709
aF2.4177215189873418
aF6.1645569620253164
aF1.2025316455696202
aF0.5822784810126582
aI8
aI30
aa(lp305
F21.185185185185187
aF3.493827160493827
aF8.54320987654321
aF0.38303703703703695
aF1.0
aF2.580246913580247
aF0.2977777777777778
aF1.2839506172839505
aF1.5061728395061729
aF0.4536049382716049
aF0.24691358024691357
aF1.9753086419753085
aF2.2222222222222223
aF2.4814814814814814
aF0.654320987654321
aF0.04938271604938271
aF1.4938271604938271
aF1.4814814814814814
aF9.271604938271604
aF-1.037037037037037
aF0.4691358024691358
aI4
aI27
aa(lp306
F9.192307692307692
aF0.5769230769230769
aF1.6538461538461537
aF0.24723076923076925
aF0.0
aF0.0
aF0.0
aF0.11538461538461539
aF0.38461538461538464
aF0.057692307692307696
aF0.8076923076923077
aF1.8846153846153846
aF2.6923076923076925
aF0.46153846153846156
aF0.19230769230769232
aF0.23076923076923078
aF0.46153846153846156
aF1.7307692307692308
aF1.2692307692307692
aF-2.5
aF0.3076923076923077
aI2
aI24
aa(lp307
F13.894736842105264
aF1.605263157894737
aF3.5789473684210527
aF0.3838947368421053
aF0.2894736842105263
aF1.0789473684210527
aF0.21357894736842103
aF1.1842105263157894
aF1.868421052631579
aF0.3022105263157895
aF0.42105263157894735
aF1.6578947368421053
aF2.0789473684210527
aF1.0
aF0.2894736842105263
aF0.3157894736842105
aF0.631578947368421
aF1.263157894736842
aF4.684210526315789
aF-0.868421052631579
aF0.6052631578947368
aI2
aI23
aa(lp308
F24.181818181818183
aF4.181818181818182
aF9.803030303030303
aF0.40284848484848484
aF0.9393939393939394
aF2.4393939393939394
aF0.3392272727272726
aF2.6818181818181817
aF3.1818181818181817
aF0.6495151515151516
aF0.5909090909090909
aF1.606060606060606
aF2.196969696969697
aF2.772727272727273
aF0.7575757575757576
aF0.15151515151515152
aF1.7424242424242424
aF1.1818181818181819
aF11.984848484848484
aF3.6818181818181817
aF0.8181818181818182
aI11
aI32
aa(lp309
F20.657894736842106
aF3.1184210526315788
aF5.5
aF0.5727631578947366
aF0.0
aF0.0
aF0.0
aF2.4342105263157894
aF4.052631578947368
aF0.543
aF1.6578947368421053
aF2.9342105263157894
aF4.592105263157895
aF0.23684210526315788
aF0.17105263157894737
aF2.3026315789473686
aF1.6578947368421053
aF2.8684210526315788
aF8.671052631578947
aF-0.9210526315789473
aF0.5657894736842105
aI14
aI36
aa(lp310
F26.0
aF1.0
aF3.0
aF0.333
aF0.0
aF0.0
aF0.0
aF2.0
aF2.0
aF1.0
aF1.0
aF3.0
aF4.0
aF0.0
aF1.0
aF2.0
aF1.0
aF5.0
aF4.0
aF-5.0
aF1.0
aI11
aI33
aa(lp311
F35.41379310344828
aF7.810344827586207
aF14.53448275862069
aF0.5371206896551725
aF0.05172413793103448
aF0.1896551724137931
aF0.034482758620689655
aF5.0344827586206895
aF6.741379310344827
aF0.7613275862068963
aF2.5517241379310347
aF7.189655172413793
aF9.741379310344827
aF3.3620689655172415
aF0.5
aF2.1551724137931036
aF2.7586206896551726
aF2.3448275862068964
aF20.70689655172414
aF-4.448275862068965
aF0.27586206896551724
aI5
aI26
aa(lp312
F34.44444444444444
aF5.209876543209877
aF11.876543209876543
aF0.42335802469135786
aF1.5432098765432098
aF4.407407407407407
aF0.3188024691358024
aF1.5925925925925926
aF2.049382716049383
aF0.5115061728395062
aF0.691358024691358
aF2.197530864197531
aF2.888888888888889
aF3.0123456790123457
aF1.1975308641975309
aF0.04938271604938271
aF1.2469135802469136
aF2.6049382716049383
aF13.555555555555555
aF-2.8271604938271606
aF0.345679012345679
aI5
aI27
aa(lp313
F26.544303797468356
aF3.6582278481012658
aF7.443037974683544
aF0.4703797468354429
aF0.17721518987341772
aF0.6329113924050633
aF0.08354430379746836
aF2.670886075949367
aF3.2531645569620253
aF0.6919493670886075
aF0.569620253164557
aF1.8734177215189873
aF2.4430379746835444
aF3.6962025316455698
aF1.2025316455696202
aF0.26582278481012656
aF1.8481012658227849
aF3.037974683544304
aF10.164556962025317
aF7.0
aF0.810126582278481
aI2
aI23
aa(lp314
F23.860759493670887
aF3.1392405063291138
aF6.924050632911392
aF0.44697468354430386
aF0.0
aF0.012658227848101266
aF0.0
aF1.759493670886076
aF2.8860759493670884
aF0.44802531645569615
aF1.8354430379746836
aF3.6455696202531644
aF5.481012658227848
aF1.139240506329114
aF0.5569620253164557
aF1.7468354430379747
aF1.5696202531645569
aF2.759493670886076
aF8.037974683544304
aF0.02531645569620253
aF0.46835443037974683
aI3
aI21
aa(lp315
F18.53846153846154
aF2.4743589743589745
aF5.884615384615385
aF0.3844871794871794
aF1.0256410256410255
aF2.7435897435897436
aF0.24064102564102555
aF1.4743589743589745
aF1.7307692307692308
aF0.45234615384615384
aF0.9871794871794872
aF2.3846153846153846
aF3.371794871794872
aF0.5641025641025641
aF0.34615384615384615
aF0.1794871794871795
aF1.0
aF2.5256410256410255
aF7.448717948717949
aF0.8846153846153846
aF0.5256410256410257
aI1
aI21
aa(lp316
F9.8
aF0.6888888888888889
aF1.4666666666666666
aF0.32924444444444445
aF0.0
aF0.0
aF0.0
aF0.37777777777777777
aF0.5777777777777777
aF0.15555555555555556
aF1.2666666666666666
aF1.711111111111111
aF2.977777777777778
aF0.26666666666666666
aF0.2222222222222222
aF0.7555555555555555
aF0.3333333333333333
aF1.3111111111111111
aF1.7555555555555555
aF0.9777777777777777
aF0.6888888888888889
aI15
aI37
aa(lp317
F14.446153846153846
aF2.076923076923077
aF5.430769230769231
aF0.3158923076923077
aF0.8153846153846154
aF2.2153846153846155
aF0.295076923076923
aF1.0615384615384615
aF1.353846153846154
aF0.3608615384615385
aF0.8923076923076924
aF1.9538461538461538
aF2.8461538461538463
aF0.7538461538461538
aF0.38461538461538464
aF0.26153846153846155
aF0.7538461538461538
aF2.169230769230769
aF6.030769230769231
aF-3.046153846153846
aF0.35384615384615387
aI0
aI19
aa(lp318
F18.0
aF1.4444444444444444
aF3.7777777777777777
aF0.24811111111111112
aF0.3333333333333333
aF0.8888888888888888
aF0.1481111111111111
aF2.5555555555555554
aF2.888888888888889
aF0.7055555555555555
aF1.1111111111111112
aF2.0
aF3.111111111111111
aF3.3333333333333335
aF1.4444444444444444
aF0.1111111111111111
aF1.2222222222222223
aF2.2222222222222223
aF5.777777777777778
aF6.222222222222222
aF0.2222222222222222
aI0
aI20
aa(lp319
F30.694444444444443
aF4.722222222222222
aF11.222222222222221
aF0.4065277777777779
aF1.4861111111111112
aF3.8472222222222223
aF0.3413055555555556
aF2.3333333333333335
aF2.9722222222222223
aF0.5874166666666667
aF0.7361111111111112
aF3.2222222222222223
aF3.9583333333333335
aF3.2222222222222223
aF0.9444444444444444
aF0.2222222222222222
aF1.9722222222222223
aF3.0555555555555554
aF13.26388888888889
aF1.7916666666666667
aF0.4861111111111111
aI6
aI27
aa(lp320
F34.65432098765432
aF5.728395061728395
aF14.234567901234568
aF0.39308641975308656
aF2.0987654320987654
aF5.851851851851852
aF0.32735802469135805
aF3.5555555555555554
aF4.283950617283951
aF0.686185185185185
aF0.48148148148148145
aF2.740740740740741
aF3.2222222222222223
aF4.777777777777778
aF1.0864197530864197
aF0.07407407407407407
aF2.432098765432099
aF1.7160493827160495
aF17.11111111111111
aF-0.3333333333333333
aF0.4074074074074074
aI8
aI28
aa(lp321
F25.341463414634145
aF2.2195121951219514
aF6.7073170731707314
aF0.28765853658536583
aF0.14634146341463414
aF0.6829268292682927
aF0.08131707317073171
aF0.8048780487804879
aF1.4634146341463414
aF0.2601707317073171
aF0.2926829268292683
aF1.6585365853658536
aF1.951219512195122
aF4.487804878048781
aF1.7560975609756098
aF0.0975609756097561
aF1.829268292682927
aF3.1219512195121952
aF5.390243902439025
aF-2.975609756097561
aF0.3170731707317073
aI5
aI28
aa(lp322
F27.364864864864863
aF5.27027027027027
aF11.364864864864865
aF0.45678378378378387
aF1.7297297297297298
aF4.337837837837838
aF0.3671756756756757
aF4.27027027027027
aF4.972972972972973
aF0.8334054054054052
aF0.7972972972972973
aF3.554054054054054
aF4.351351351351352
aF3.5405405405405403
aF1.472972972972973
aF0.36486486486486486
aF2.108108108108108
aF2.0675675675675675
aF16.54054054054054
aF7.337837837837838
aF0.7567567567567568
aI4
aI29
aa(lp323
F27.04
aF3.9066666666666667
aF9.48
aF0.4091733333333334
aF1.76
aF4.64
aF0.3339733333333333
aF1.36
aF1.92
aF0.46812000000000004
aF0.8133333333333334
aF4.16
aF4.973333333333334
aF2.24
aF0.7066666666666667
aF0.37333333333333335
aF1.4133333333333333
aF2.986666666666667
aF10.933333333333334
aF2.1333333333333333
aF0.49333333333333335
aI9
aI29
aa(lp324
F10.394736842105264
aF1.263157894736842
aF3.8684210526315788
aF0.23186842105263158
aF0.47368421052631576
aF2.263157894736842
aF0.12007894736842106
aF0.42105263157894735
aF0.5263157894736842
aF0.16447368421052633
aF0.23684210526315788
aF1.1842105263157894
aF1.4210526315789473
aF0.39473684210526316
aF0.42105263157894735
aF0.2894736842105263
aF0.6842105263157895
aF0.9736842105263158
aF3.4210526315789473
aF-1.763157894736842
aF0.5526315789473685
aI6
aI26
aa(lp325
F27.025974025974026
aF4.961038961038961
aF10.207792207792208
aF0.4852077922077921
aF0.0
aF0.012987012987012988
aF0.0
aF1.9610389610389611
aF2.4415584415584415
aF0.5961298701298702
aF3.116883116883117
aF4.597402597402597
aF7.714285714285714
aF1.5584415584415585
aF0.6103896103896104
aF1.2727272727272727
aF1.8311688311688312
aF3.2857142857142856
aF11.883116883116884
aF3.1298701298701297
aF0.6103896103896104
aI9
aI31
aa(lp326
F27.233766233766232
aF4.1688311688311686
aF9.818181818181818
aF0.40489610389610375
aF0.6753246753246753
aF1.844155844155844
aF0.23933766233766238
aF1.974025974025974
aF2.7142857142857144
aF0.47981818181818187
aF1.2077922077922079
aF3.311688311688312
aF4.51948051948052
aF1.2857142857142858
aF0.922077922077922
aF0.961038961038961
aF1.8181818181818181
aF2.4935064935064934
aF10.987012987012987
aF-1.6623376623376624
aF0.24675324675324675
aI0
aI20
aa(lp327
F4.0
aF0.0
aF0.5
aF0.0
aF0.0
aF0.5
aF0.0
aF1.0
aF1.0
aF0.5
aF1.0
aF0.0
aF1.0
aF0.0
aF0.0
aF0.0
aF1.0
aF1.0
aF1.0
aF-4.0
aF1.0
aI0
aI23
aa(lp328
F39.14666666666667
aF8.413333333333334
aF17.573333333333334
aF0.4818266666666667
aF0.16
aF0.7333333333333333
aF0.10666666666666667
aF5.506666666666667
aF6.586666666666667
aF0.8181066666666668
aF2.4
aF10.466666666666667
aF12.866666666666667
aF4.093333333333334
aF1.1733333333333333
aF1.68
aF2.7066666666666666
aF2.4
aF22.493333333333332
aF0.26666666666666666
aF0.4266666666666667
aI11
aI30
aa(lp329
F23.963636363636365
aF3.6545454545454548
aF9.272727272727273
aF0.38854545454545464
aF0.9636363636363636
aF2.9272727272727272
aF0.3227272727272726
aF2.327272727272727
aF3.018181818181818
aF0.6506363636363636
aF0.7454545454545455
aF2.4545454545454546
aF3.2
aF2.5090909090909093
aF0.9090909090909091
aF0.10909090909090909
aF1.3818181818181818
aF1.7818181818181817
aF10.6
aF0.7636363636363637
aF0.5272727272727272
aI9
aI33
aa(lp330
F25.746666666666666
aF2.76
aF4.386666666666667
aF0.6078533333333332
aF0.0
aF0.0
aF0.0
aF1.5866666666666667
aF2.52
aF0.4184533333333334
aF2.84
aF4.626666666666667
aF7.466666666666667
aF0.5866666666666667
aF0.32
aF1.0933333333333333
aF1.4266666666666667
aF3.16
aF7.1066666666666665
aF5.613333333333333
aF0.84
aI10
aI31
aa(lp331
F8.333333333333334
aF0.5833333333333334
aF2.25
aF0.11808333333333333
aF0.25
aF0.9166666666666666
aF0.125
aF0.08333333333333333
aF0.3333333333333333
aF0.020833333333333332
aF0.08333333333333333
aF0.4166666666666667
aF0.5
aF0.6666666666666666
aF0.3333333333333333
aF0.08333333333333333
aF0.5
aF0.8333333333333334
aF1.5
aF-1.9166666666666667
aF0.6666666666666666
aI2
aI25
aa(lp332
F12.431034482758621
aF1.5
aF2.793103448275862
aF0.4332241379310344
aF0.0
aF0.0
aF0.0
aF1.293103448275862
aF1.9310344827586208
aF0.34181034482758615
aF0.8620689655172413
aF2.2241379310344827
aF3.086206896551724
aF0.27586206896551724
aF0.43103448275862066
aF0.5862068965517241
aF0.7758620689655172
aF2.293103448275862
aF4.293103448275862
aF-0.3275862068965517
aF0.2413793103448276
aI0
aI23
aa(lp333
F7.782608695652174
aF1.2608695652173914
aF2.217391304347826
aF0.483695652173913
aF0.0
aF0.0
aF0.0
aF0.391304347826087
aF0.8695652173913043
aF0.22826086956521738
aF0.34782608695652173
aF1.434782608695652
aF1.7826086956521738
aF0.21739130434782608
aF0.13043478260869565
aF0.5217391304347826
aF1.0434782608695652
aF1.9565217391304348
aF2.9130434782608696
aF-1.7391304347826086
aF0.34782608695652173
aI2
aI24
aa(lp334
F7.5
aF1.2
aF2.8
aF0.2955
aF0.0
aF0.0
aF0.0
aF0.7
aF0.7
aF0.4
aF0.4
aF0.9
aF1.3
aF0.4
aF0.2
aF0.0
aF0.8
aF1.3
aF3.1
aF-1.9
aF0.8
aI2
aI21
aa(lp335
F8.678571428571429
aF1.2857142857142858
aF2.9642857142857144
aF0.36146428571428574
aF0.7142857142857143
aF1.6428571428571428
aF0.33632142857142855
aF0.39285714285714285
aF0.42857142857142855
aF0.19642857142857142
aF0.10714285714285714
aF0.6785714285714286
aF0.7857142857142857
aF0.5714285714285714
aF0.17857142857142858
aF0.07142857142857142
aF0.32142857142857145
aF0.7857142857142857
aF3.6785714285714284
aF-1.8928571428571428
aF0.75
aI12
aI33
aa(lp336
F14.180555555555555
aF1.625
aF3.4444444444444446
aF0.4306111111111109
aF0.0
aF0.0
aF0.0
aF1.0138888888888888
aF1.5138888888888888
aF0.34676388888888887
aF1.1388888888888888
aF2.3194444444444446
aF3.4583333333333335
aF0.5833333333333334
aF0.4166666666666667
aF0.3333333333333333
aF0.7638888888888888
aF2.6944444444444446
aF4.263888888888889
aF-1.5138888888888888
aF0.4027777777777778
aI6
aI29
aa(lp337
F7.0
aF0.8518518518518519
aF2.888888888888889
aF0.19866666666666666
aF0.0
aF0.037037037037037035
aF0.0
aF0.6296296296296297
aF0.6666666666666666
aF0.3148148148148148
aF0.6296296296296297
aF0.8148148148148148
aF1.4444444444444444
aF0.18518518518518517
aF0.2222222222222222
aF0.14814814814814814
aF0.37037037037037035
aF0.6666666666666666
aF2.3333333333333335
aF-0.5925925925925926
aF0.4074074074074074
aI1
aI25
aa(lp338
F3.6
aF0.6
aF1.2
aF0.2
aF0.4
aF0.6
aF0.3
aF0.0
aF0.0
aF0.0
aF0.2
aF0.2
aF0.4
aF0.0
aF0.2
aF0.0
aF0.2
aF0.4
aF1.6
aF-1.4
aF0.6
aI0
aI22
aa(lp339
F9.666666666666666
aF1.1666666666666667
aF2.5277777777777777
aF0.36783333333333335
aF0.0
aF0.0
aF0.0
aF0.8055555555555556
aF1.1111111111111112
aF0.2986111111111111
aF0.6388888888888888
aF1.7222222222222223
aF2.361111111111111
aF0.5277777777777778
aF0.1388888888888889
aF0.2777777777777778
aF0.7777777777777778
aF1.6388888888888888
aF3.138888888888889
aF-3.7222222222222223
aF0.4166666666666667
aI1
aI23
aa(lp340
F23.786666666666665
aF3.6133333333333333
aF8.28
aF0.42217333333333334
aF1.4
aF3.8266666666666667
aF0.30521333333333334
aF1.2
aF1.64
aF0.4245466666666667
aF1.2
aF3.4133333333333336
aF4.613333333333333
aF2.026666666666667
aF0.96
aF0.5466666666666666
aF1.3866666666666667
aF2.466666666666667
aF9.826666666666666
aF-0.41333333333333333
aF0.52
aI4
aI26
aa(lp341
F15.84375
aF2.890625
aF6.34375
aF0.40843749999999995
aF0.71875
aF1.78125
aF0.25603125
aF0.53125
aF0.734375
aF0.213609375
aF0.953125
aF2.40625
aF3.359375
aF1.015625
aF0.390625
aF0.421875
aF0.78125
aF2.078125
aF7.03125
aF1.28125
aF0.46875
aI3
aI26
aa(lp342
F20.69736842105263
aF3.4342105263157894
aF6.578947368421052
aF0.5208684210526314
aF0.3157894736842105
aF0.9605263157894737
aF0.19406578947368422
aF1.5394736842105263
aF1.881578947368421
aF0.5164210526315789
aF0.27631578947368424
aF1.4736842105263157
aF1.75
aF5.0394736842105265
aF0.8289473684210527
aF0.06578947368421052
aF1.4210526315789473
aF1.75
aF8.723684210526315
aF0.6842105263157895
aF0.5921052631578947
aI1
aI25
aa(lp343
F8.708333333333334
aF0.6041666666666666
aF1.8958333333333333
aF0.18366666666666667
aF0.125
aF0.5416666666666666
aF0.06770833333333333
aF0.3541666666666667
aF0.6041666666666666
aF0.17014583333333333
aF0.16666666666666666
aF0.5625
aF0.7291666666666666
aF1.5625
aF0.3958333333333333
aF0.14583333333333334
aF0.5833333333333334
aF1.0208333333333333
aF1.6875
aF-0.14583333333333334
aF0.5833333333333334
aI0
aI22
aa(lp344
F12.621212121212121
aF1.4848484848484849
aF3.515151515151515
aF0.3480151515151515
aF0.36363636363636365
aF1.2424242424242424
aF0.1918939393939394
aF0.30303030303030304
aF0.36363636363636365
aF0.12625757575757576
aF0.30303030303030304
aF1.0757575757575757
aF1.378787878787879
aF3.196969696969697
aF0.5151515151515151
aF0.030303030303030304
aF1.106060606060606
aF1.0757575757575757
aF3.6363636363636362
aF-1.5151515151515151
aF0.36363636363636365
aI0
aI20
aa(lp345
F21.72972972972973
aF2.7027027027027026
aF4.675675675675675
aF0.5659054054054055
aF0.013513513513513514
aF0.16216216216216217
aF0.013513513513513514
aF1.1891891891891893
aF1.662162162162162
aF0.44639189189189193
aF1.7567567567567568
aF2.3378378378378377
aF4.094594594594595
aF0.8378378378378378
aF0.9864864864864865
aF0.35135135135135137
aF0.7567567567567568
aF2.77027027027027
aF6.608108108108108
aF0.08108108108108109
aF0.527027027027027
aI6
aI30
aa(lp346
F4.625
aF0.5625
aF1.1875
aF0.216125
aF0.0
aF0.0
aF0.0
aF0.375
aF0.5625
aF0.171875
aF0.5625
aF0.6875
aF1.25
aF0.1875
aF0.0625
aF0.0
aF0.3125
aF0.625
aF1.5
aF-1.75
aF0.3125
aI0
aI21
aa(lp347
F6.7
aF0.825
aF1.975
aF0.22374999999999998
aF0.0
aF0.0
aF0.0
aF0.225
aF0.4
aF0.125
aF0.525
aF1.1
aF1.625
aF0.075
aF0.125
aF0.375
aF0.55
aF1.775
aF1.875
aF-1.85
aF0.45
aI8
aI31
aa(lp348
F16.8
aF2.5375
aF6.0375
aF0.36507499999999987
aF1.1875
aF3.35
aF0.28215
aF0.6375
aF0.9625
aF0.26615
aF1.0375
aF2.9125
aF3.95
aF0.5625
aF0.475
aF0.5375
aF0.8375
aF1.625
aF6.9
aF1.8375
aF0.6
aI12
aI33
aa(lp349
F17.92
aF2.12
aF5.76
aF0.32985333333333333
aF1.1733333333333333
aF3.0933333333333333
aF0.3463466666666666
aF0.9466666666666667
aF1.08
aF0.3837733333333333
aF0.4266666666666667
aF1.8933333333333333
aF2.32
aF0.5866666666666667
aF0.3466666666666667
aF0.5333333333333333
aF0.37333333333333335
aF1.4933333333333334
aF6.36
aF2.16
aF0.7733333333333333
aI3
aI26
aa(lp350
F10.0
aF0.0
aF1.0
aF0.0
aF0.0
aF0.0
aF0.0
aF0.0
aF0.0
aF0.0
aF0.0
aF1.0
aF1.0
aF2.0
aF0.0
aF1.0
aF4.0
aF1.0
aF0.0
aF-11.0
aF1.0
aI7
aI31
aa(lp351
F27.651162790697676
aF3.0930232558139537
aF7.604651162790698
aF0.38413953488372093
aF0.9302325581395349
aF2.441860465116279
aF0.36858139534883727
aF3.883720930232558
aF4.651162790697675
aF0.7283953488372094
aF0.7441860465116279
aF2.7209302325581395
aF3.4651162790697674
aF3.883720930232558
aF0.9302325581395349
aF0.2558139534883721
aF2.186046511627907
aF2.9069767441860463
aF11.0
aF-0.46511627906976744
aF0.32558139534883723
aI7
aI29
aa(lp352
F9.571428571428571
aF0.7142857142857143
aF2.2857142857142856
aF0.4524285714285714
aF0.0
aF0.0
aF0.0
aF0.42857142857142855
aF0.7142857142857143
aF0.08571428571428572
aF0.7142857142857143
aF0.8571428571428571
aF1.5714285714285714
aF0.42857142857142855
aF0.14285714285714285
aF0.0
aF0.2857142857142857
aF1.5714285714285714
aF1.8571428571428572
aF-2.142857142857143
aF0.14285714285714285
aI1
aI23
aa(lp353
F23.144927536231883
aF2.7246376811594204
aF4.72463768115942
aF0.5579420289855072
aF0.0
aF0.0
aF0.0
aF1.0724637681159421
aF2.1884057971014492
aF0.3291304347826087
aF1.6521739130434783
aF3.2028985507246377
aF4.855072463768116
aF0.37681159420289856
aF0.18840579710144928
aF1.1014492753623188
aF0.9420289855072463
aF1.9565217391304348
aF6.521739130434782
aF-4.0144927536231885
aF0.463768115942029
aI5
aI25
aa(lp354
F27.651515151515152
aF3.3333333333333335
aF7.909090909090909
aF0.3852272727272729
aF0.9848484848484849
aF2.8333333333333335
aF0.28750000000000003
aF0.8636363636363636
aF1.1818181818181819
aF0.2916515151515151
aF0.7121212121212122
aF4.212121212121212
aF4.924242424242424
aF1.8636363636363635
aF1.1666666666666667
aF0.22727272727272727
aF0.9393939393939394
aF1.3333333333333333
aF8.515151515151516
aF1.6515151515151516
aF0.5454545454545454
aI0
aI29
aa(lp355
F37.602739726027394
aF5.383561643835616
aF12.945205479452055
aF0.3973287671232876
aF1.6849315068493151
aF4.684931506849315
aF0.3014657534246575
aF4.041095890410959
aF5.260273972602739
aF0.6735479452054794
aF0.4931506849315068
aF2.410958904109589
aF2.904109589041096
aF5.52054794520548
aF0.9726027397260274
aF0.136986301369863
aF2.4246575342465753
aF2.5342465753424657
aF16.493150684931507
aF-2.164383561643836
aF0.4246575342465753
aI10
aI29
aa(lp356
F20.35483870967742
aF2.193548387096774
aF5.661290322580645
aF0.3436935483870967
aF0.5967741935483871
aF2.0161290322580645
aF0.17162903225806453
aF1.5
aF1.8064516129032258
aF0.4614032258064516
aF0.3709677419354839
aF1.4516129032258065
aF1.8225806451612903
aF1.7096774193548387
aF0.7419354838709677
aF0.25806451612903225
aF1.064516129032258
aF1.8870967741935485
aF6.483870967741935
aF-3.274193548387097
aF0.4032258064516129
aI4
aI27
aa(lp357
F9.090909090909092
aF1.2727272727272727
aF3.3181818181818183
aF0.2933636363636364
aF0.3181818181818182
aF1.1363636363636365
aF0.14013636363636364
aF0.45454545454545453
aF0.6363636363636364
aF0.22727272727272727
aF0.2727272727272727
aF0.6818181818181818
aF0.9545454545454546
aF0.45454545454545453
aF0.3181818181818182
aF0.13636363636363635
aF0.6363636363636364
aF1.0909090909090908
aF3.3181818181818183
aF-2.8181818181818183
aF0.6818181818181818
aI0
aI21
aa(lp358
F11.4
aF1.2
aF2.1818181818181817
aF0.4223272727272728
aF0.0
aF0.0
aF0.0
aF0.7272727272727273
aF1.2181818181818183
aF0.21578181818181819
aF1.0545454545454545
aF1.6
aF2.6545454545454548
aF0.18181818181818182
aF0.21818181818181817
aF0.4727272727272727
aF0.6363636363636364
aF1.4
aF3.1272727272727274
aF-0.2
aF0.4909090909090909
aI0
aI22
aa(lp359
F6.923076923076923
aF0.7692307692307693
aF1.3846153846153846
aF0.3487692307692308
aF0.0
aF0.0
aF0.0
aF0.9230769230769231
aF1.5384615384615385
aF0.28334615384615386
aF0.4230769230769231
aF0.7692307692307693
aF1.1923076923076923
aF0.038461538461538464
aF0.15384615384615385
aF0.2692307692307692
aF0.5769230769230769
aF1.4230769230769231
aF2.4615384615384617
aF-3.4615384615384617
aF0.3076923076923077
aI0
aI22
aa(lp360
F32.69620253164557
aF6.582278481012659
aF13.848101265822784
aF0.4726835443037973
aF2.3544303797468356
aF5.443037974683544
aF0.4085063291139239
aF2.481012658227848
aF2.9367088607594938
aF0.6212278481012659
aF0.26582278481012656
aF2.3417721518987342
aF2.607594936708861
aF3.9873417721518987
aF1.2025316455696202
aF0.189873417721519
aF1.8354430379746836
aF2.6455696202531644
aF18.0
aF5.8734177215189876
aF0.7468354430379747
aI3
aI24
aa(lp361
F23.4
aF2.6923076923076925
aF5.446153846153846
aF0.5010153846153846
aF0.0
aF0.015384615384615385
aF0.0
aF0.7692307692307693
aF1.1538461538461537
aF0.3166615384615385
aF1.4
aF3.830769230769231
aF5.230769230769231
aF0.5076923076923077
aF0.4461538461538462
aF0.4461538461538462
aF0.9384615384615385
aF2.830769230769231
aF6.153846153846154
aF-0.2
aF0.5384615384615384
aI9
aI30
aa(lp362
F4.304347826086956
aF0.43478260869565216
aF1.0869565217391304
aF0.21739130434782608
aF0.0
aF0.0
aF0.0
aF0.08695652173913043
aF0.17391304347826086
aF0.043478260869565216
aF0.6521739130434783
aF0.6086956521739131
aF1.2608695652173914
aF0.13043478260869565
aF0.17391304347826086
aF0.043478260869565216
aF0.17391304347826086
aF1.0869565217391304
aF0.9565217391304348
aF-0.21739130434782608
aF0.43478260869565216
aI9
aI31
aa(lp363
F28.063291139240505
aF3.7974683544303796
aF8.708860759493671
aF0.429
aF2.2025316455696204
aF5.012658227848101
aF0.4151518987341773
aF1.0126582278481013
aF1.2784810126582278
aF0.36317721518987345
aF0.3924050632911392
aF2.7468354430379747
aF3.1392405063291138
aF2.4177215189873418
aF0.9493670886075949
aF0.06329113924050633
aF1.7341772151898733
aF1.6708860759493671
aF10.810126582278482
aF0.6708860759493671
aF0.6455696202531646
aI1
aI24
aa(lp364
F21.476923076923075
aF2.876923076923077
aF6.969230769230769
aF0.4204615384615385
aF0.47692307692307695
aF1.4615384615384615
aF0.2076769230769231
aF1.7230769230769232
aF2.123076923076923
aF0.5499538461538461
aF0.3076923076923077
aF0.9692307692307692
aF1.2769230769230768
aF1.646153846153846
aF0.7538461538461538
aF0.23076923076923078
aF1.0923076923076922
aF1.9230769230769231
aF7.953846153846154
aF0.15384615384615385
aF0.49230769230769234
aI6
aI26
aa(lp365
F27.141025641025642
aF2.9615384615384617
aF6.512820512820513
aF0.4231923076923076
aF0.5128205128205128
aF1.4102564102564104
aF0.2679743589743589
aF1.9871794871794872
aF2.5384615384615383
aF0.5393974358974359
aF0.6025641025641025
aF2.769230769230769
aF3.371794871794872
aF3.2051282051282053
aF0.9230769230769231
aF0.34615384615384615
aF1.5256410256410255
aF2.2435897435897436
aF8.423076923076923
aF-2.3846153846153846
aF0.41025641025641024
aI4
aI27
aa(lp366
F28.88888888888889
aF3.925925925925926
aF7.839506172839506
aF0.4771604938271606
aF0.0
aF0.024691358024691357
aF0.0
aF1.876543209876543
aF2.432098765432099
aF0.5377037037037037
aF2.814814814814815
aF5.3580246913580245
aF8.17283950617284
aF1.0
aF0.5925925925925926
aF0.8024691358024691
aF1.5061728395061729
aF3.54320987654321
aF9.728395061728396
aF-1.1481481481481481
aF0.38271604938271603
aI3
aI26
aa(lp367
F28.81081081081081
aF3.9324324324324325
aF8.716216216216216
aF0.4521621621621621
aF0.0
aF0.013513513513513514
aF0.0
aF2.175675675675676
aF2.945945945945946
aF0.5393378378378378
aF2.108108108108108
aF5.72972972972973
aF7.837837837837838
aF1.0675675675675675
aF0.5540540540540541
aF1.554054054054054
aF1.9324324324324325
aF3.3783783783783785
aF10.04054054054054
aF-2.1216216216216215
aF0.5135135135135135
aI3
aI24
aa(lp368
F12.24
aF2.0
aF3.32
aF0.4770400000000001
aF0.0
aF0.0
aF0.0
aF0.76
aF2.2
aF0.24896000000000004
aF2.0
aF2.36
aF4.36
aF0.08
aF0.2
aF0.64
aF0.6
aF1.84
aF4.76
aF-1.92
aF0.28
aI0
aI22
aa(lp369
F35.971014492753625
aF5.028985507246377
aF11.695652173913043
aF0.4276811594202898
aF1.5797101449275361
aF4.536231884057971
aF0.3263478260869563
aF5.594202898550725
aF6.333333333333333
aF0.8358260869565217
aF0.3333333333333333
aF3.0579710144927534
aF3.391304347826087
aF7.130434782608695
aF1.2173913043478262
aF0.2463768115942029
aF2.0
aF2.3043478260869565
aF17.231884057971016
aF5.36231884057971
aF0.6811594202898551
aI9
aI30
aa(lp370
F6.032258064516129
aF0.5161290322580645
aF1.8064516129032258
aF0.17151612903225807
aF0.0967741935483871
aF0.3548387096774194
aF0.04838709677419355
aF0.45161290322580644
aF0.8709677419354839
aF0.14248387096774193
aF0.0
aF0.4838709677419355
aF0.4838709677419355
aF0.22580645161290322
aF0.0967741935483871
aF0.06451612903225806
aF0.3870967741935484
aF0.7419354838709677
aF1.5806451612903225
aF-1.3548387096774193
aF0.8387096774193549
aI0
aI22
aa(lp371
F11.8
aF1.0666666666666667
aF2.6666666666666665
aF0.25220000000000004
aF0.23333333333333334
aF0.7333333333333333
aF0.10833333333333334
aF0.5833333333333334
aF0.75
aF0.21528333333333333
aF0.15
aF1.05
aF1.2
aF1.4833333333333334
aF0.5333333333333333
aF0.06666666666666667
aF0.8166666666666667
aF1.0333333333333334
aF2.95
aF0.7833333333333333
aF0.5
aI1
aI23
aa(lp372
F28.384615384615383
aF7.102564102564102
aF12.025641025641026
aF0.5847692307692309
aF0.0
aF0.0
aF0.0
aF3.128205128205128
aF7.461538461538462
aF0.4003589743589743
aF2.4615384615384617
aF4.9743589743589745
aF7.435897435897436
aF1.9743589743589745
aF0.20512820512820512
aF1.3333333333333333
aF2.41025641025641
aF3.4871794871794872
aF17.333333333333332
aF1.1025641025641026
aF0.6410256410256411
aI14
aI34
aa(lp373
F12.15625
aF1.109375
aF2.75
aF0.337015625
aF0.03125
aF0.09375
aF0.020828125
aF0.59375
aF0.75
aF0.248046875
aF0.671875
aF1.828125
aF2.5
aF0.875
aF0.375
aF0.109375
aF0.953125
aF1.84375
aF2.84375
aF-2.0
aF0.375
aI10
aI32
aa(lp374
F7.9
aF0.7333333333333333
aF2.1666666666666665
aF0.23926666666666666
aF0.16666666666666666
aF0.8666666666666667
aF0.075
aF0.7666666666666667
aF1.0
aF0.2866666666666667
aF0.16666666666666666
aF0.5666666666666667
aF0.7333333333333333
aF0.8333333333333334
aF0.2
aF0.0
aF0.8333333333333334
aF0.9
aF2.4
aF-0.5
aF0.7
aI0
aI24
aa(lp375
F20.74025974025974
aF2.7662337662337664
aF5.792207792207792
aF0.45651948051948055
aF0.06493506493506493
aF0.14285714285714285
aF0.05627272727272727
aF1.7662337662337662
aF2.220779220779221
aF0.5259350649350649
aF0.5584415584415584
aF1.3376623376623376
aF1.896103896103896
aF0.8701298701298701
aF0.4935064935064935
aF0.2857142857142857
aF1.1818181818181819
aF2.4285714285714284
aF7.363636363636363
aF-1.8311688311688312
aF0.2597402597402597
aI3
aI26
aa(lp376
F29.592105263157894
aF4.894736842105263
aF11.421052631578947
aF0.41942105263157875
aF0.8552631578947368
aF2.539473684210526
aF0.31344736842105264
aF2.4078947368421053
aF2.9078947368421053
aF0.6290526315789472
aF0.6447368421052632
aF2.3947368421052633
aF3.039473684210526
aF4.2631578947368425
aF0.9605263157894737
aF0.06578947368421052
aF2.4078947368421053
aF2.9342105263157894
aF13.052631578947368
aF-0.39473684210526316
aF0.47368421052631576
aI2
aI24
aa(lp377
F21.11864406779661
aF2.406779661016949
aF6.1525423728813555
aF0.346728813559322
aF0.8983050847457628
aF2.5254237288135593
aF0.33103389830508473
aF0.6101694915254238
aF0.8135593220338984
aF0.23869491525423728
aF0.9661016949152542
aF2.5762711864406778
aF3.542372881355932
aF0.5423728813559322
aF0.7627118644067796
aF0.3898305084745763
aF0.864406779661017
aF2.389830508474576
aF6.322033898305085
aF1.1864406779661016
aF0.8135593220338984
aI7
aI29
aa(lp378
F6.75
aF0.5
aF1.5
aF0.1
aF0.0
aF0.0
aF0.0
aF0.5
aF0.5
aF0.25
aF0.0
aF1.0
aF1.0
aF0.25
aF0.25
aF0.25
aF0.25
aF2.25
aF1.5
aF1.25
aF0.5
aI22
aI44
aa(lp379
F38.79032258064516
aF7.161290322580645
aF15.53225806451613
aF0.45070967741935475
aF0.2903225806451613
aF1.1612903225806452
aF0.17470967741935486
aF4.483870967741935
aF5.17741935483871
aF0.7617096774193547
aF2.338709677419355
aF5.112903225806452
aF7.451612903225806
aF3.7419354838709675
aF2.1451612903225805
aF0.27419354838709675
aF2.903225806451613
aF3.032258064516129
aF19.096774193548388
aF1.1774193548387097
aF0.5806451612903226
aI4
aI26
aa(lp380
F24.767123287671232
aF4.698630136986301
aF11.547945205479452
aF0.37406849315068486
aF0.6301369863013698
aF2.0547945205479454
aF0.2214246575342466
aF0.958904109589041
aF1.4657534246575343
aF0.343972602739726
aF0.5753424657534246
aF1.547945205479452
aF2.1232876712328768
aF1.5205479452054795
aF0.7534246575342466
aF0.0547945205479452
aF1.356164383561644
aF1.917808219178082
aF10.986301369863014
aF-3.287671232876712
aF0.410958904109589
aI3
aI25
aa(lp381
F24.21875
aF3.9375
aF7.71875
aF0.47840625
aF0.25
aF0.9375
aF0.12759375
aF3.125
aF3.96875
aF0.670125
aF1.0625
aF2.75
aF3.8125
aF1.65625
aF1.375
aF0.375
aF2.25
aF2.65625
aF11.25
aF-1.375
aF0.375
aI2
aI24
aa(lp382
F21.43661971830986
aF1.8309859154929577
aF3.7464788732394365
aF0.4388309859154929
aF0.0
aF0.04225352112676056
aF0.0
aF0.8450704225352113
aF1.408450704225352
aF0.30785915492957755
aF1.5492957746478873
aF3.5774647887323945
aF5.126760563380282
aF1.2816901408450705
aF0.30985915492957744
aF1.352112676056338
aF1.5352112676056338
aF3.0
aF4.507042253521127
aF-1.676056338028169
aF0.2676056338028169
aI3
aI22
aa(lp383
F34.075949367088604
aF7.746835443037975
aF14.164556962025317
aF0.5540126582278482
aF0.012658227848101266
aF0.11392405063291139
aF0.012658227848101266
aF4.531645569620253
aF7.1265822784810124
aF0.6460886075949368
aF2.6835443037974684
aF7.936708860759493
aF10.620253164556962
aF3.3797468354430378
aF0.8354430379746836
aF2.3797468354430378
aF2.810126582278481
aF2.5569620253164556
aF20.037974683544302
aF9.354430379746836
aF0.7341772151898734
aI9
aI30
aa(lp384
F27.5625
aF3.875
aF9.7375
aF0.3701
aF1.65
aF4.45
aF0.32785000000000003
aF0.6875
aF1.075
aF0.2677125
aF0.5
aF2.675
aF3.175
aF0.775
aF0.4875
aF0.6625
aF0.8375
aF1.8125
aF10.0875
aF-1.2625
aF0.475
aI4
aI27
aa(lp385
F32.84722222222222
aF4.5
aF9.458333333333334
aF0.46561111111111103
aF1.5833333333333333
aF3.5972222222222223
aF0.385
aF1.7638888888888888
aF2.111111111111111
aF0.523263888888889
aF0.8333333333333334
aF3.0416666666666665
aF3.875
aF2.0972222222222223
aF1.0138888888888888
aF0.1527777777777778
aF0.9722222222222222
aF1.8333333333333333
aF12.347222222222221
aF4.194444444444445
aF0.5972222222222222
aI9
aI31
aa(lp386
F12.571428571428571
aF1.1428571428571428
aF2.7142857142857144
aF0.34528571428571425
aF0.0
aF0.14285714285714285
aF0.0
aF1.5714285714285714
aF2.0
aF0.3605714285714286
aF1.2857142857142858
aF2.2857142857142856
aF3.5714285714285716
aF0.42857142857142855
aF0.2857142857142857
aF1.2857142857142858
aF0.8571428571428571
aF2.142857142857143
aF3.857142857142857
aF-0.42857142857142855
aF0.2857142857142857
aI1
aI19
aa(lp387
F7.8
aF1.2
aF2.4
aF0.43339999999999995
aF0.0
aF0.4
aF0.0
aF1.0
aF1.2
aF0.5
aF0.4
aF1.0
aF1.4
aF0.4
aF0.0
aF0.0
aF0.2
aF0.0
aF3.4
aF-2.2
aF0.2
aI1
aI23
aa(lp388
F36.28358208955224
aF6.925373134328358
aF15.492537313432836
aF0.44364179104477613
aF1.164179104477612
aF3.343283582089552
aF0.32298507462686565
aF2.343283582089552
aF2.746268656716418
aF0.5926119402985074
aF0.7761194029850746
aF4.074626865671642
aF4.850746268656716
aF6.17910447761194
aF1.2388059701492538
aF0.08955223880597014
aF3.029850746268657
aF2.970149253731343
aF17.35820895522388
aF-0.9104477611940298
aF0.3582089552238806
aI3
aI24
aa(lp389
F14.926829268292684
aF1.8780487804878048
aF4.634146341463414
aF0.3646097560975611
aF0.8780487804878049
aF2.317073170731707
aF0.357390243902439
aF1.2682926829268293
aF1.4146341463414633
aF0.4878048780487805
aF0.21951219512195122
aF1.024390243902439
aF1.2439024390243902
aF0.8780487804878049
aF0.2926829268292683
aF0.0
aF0.5121951219512195
aF1.2682926829268293
aF5.902439024390244
aF-0.07317073170731707
aF0.43902439024390244
aI0
aI22
aa(lp390
F37.54320987654321
aF7.703703703703703
aF14.876543209876543
aF0.5109259259259259
aF0.012345679012345678
aF0.06172839506172839
aF0.012345679012345678
aF3.4074074074074074
aF4.382716049382716
aF0.7360617283950617
aF1.8024691358024691
aF5.209876543209877
aF7.012345679012346
aF2.493827160493827
aF1.1728395061728396
aF0.5925925925925926
aF1.8395061728395061
aF1.9876543209876543
aF18.82716049382716
aF5.222222222222222
aF0.6049382716049383
aI2
aI21
aa(lp391
F8.833333333333334
aF0.5833333333333334
aF1.0833333333333333
aF0.4583333333333333
aF0.25
aF0.5
aF0.25
aF0.4166666666666667
aF0.5833333333333334
aF0.20833333333333334
aF0.16666666666666666
aF0.5833333333333334
aF0.75
aF0.4166666666666667
aF0.16666666666666666
aF0.0
aF0.5
aF0.8333333333333334
aF1.8333333333333333
aF-2.4166666666666665
aF0.25
aI0
aI22
aa(lp392
F40.776315789473685
aF10.539473684210526
aF22.86842105263158
aF0.4587368421052631
aF1.8026315789473684
aF5.2105263157894735
aF0.2984868421052631
aF8.644736842105264
aF9.947368421052632
aF0.876486842105263
aF0.9736842105263158
aF4.7105263157894735
aF5.684210526315789
aF5.355263157894737
aF1.4473684210526316
aF0.47368421052631576
aF3.3421052631578947
aF2.6447368421052633
aF31.526315789473685
aF1.236842105263158
aF0.5
aI10
aI28
aa(lp393
F5.555555555555555
aF0.6666666666666666
aF1.6296296296296295
aF0.21607407407407406
aF0.0
aF0.0
aF0.0
aF0.5555555555555556
aF1.0
aF0.21603703703703706
aF0.5185185185185185
aF0.8888888888888888
aF1.4074074074074074
aF0.0
aF0.1111111111111111
aF0.4444444444444444
aF0.37037037037037035
aF1.1851851851851851
aF1.8888888888888888
aF-0.9629629629629629
aF0.18518518518518517
aI0
aI20
aa(lp394
F12.545454545454545
aF1.4545454545454546
aF3.090909090909091
aF0.3626181818181818
aF0.0
aF0.01818181818181818
aF0.0
aF0.6545454545454545
aF0.7454545454545455
aF0.3090909090909091
aF0.8
aF2.018181818181818
aF2.8181818181818183
aF0.4
aF0.32727272727272727
aF0.2727272727272727
aF0.5454545454545454
aF1.709090909090909
aF3.5636363636363635
aF-1.1818181818181819
aF0.4727272727272727
aI8
aI29
aa(lp395
F21.582278481012658
aF2.1265822784810124
aF4.848101265822785
aF0.4206075949367088
aF0.24050632911392406
aF0.7848101265822784
aF0.16032911392405064
aF2.569620253164557
aF3.0632911392405062
aF0.6616455696202532
aF0.22784810126582278
aF1.620253164556962
aF1.8481012658227849
aF3.5569620253164556
aF0.4936708860759494
aF0.11392405063291139
aF0.8607594936708861
aF1.0
aF7.063291139240507
aF-0.45569620253164556
aF0.5063291139240507
aI9
aI31
aa(lp396
F8.722222222222221
aF0.8333333333333334
aF2.888888888888889
aF0.16877777777777775
aF0.16666666666666666
aF1.1666666666666667
aF0.09444444444444444
aF0.1111111111111111
aF0.1111111111111111
aF0.05555555555555555
aF0.3333333333333333
aF0.7777777777777778
aF1.1111111111111112
aF0.3888888888888889
aF0.1111111111111111
aF0.05555555555555555
aF0.16666666666666666
aF0.5555555555555556
aF1.9444444444444444
aF0.5555555555555556
aF0.5
aI2
aI25
aa(lp397
F5.9
aF0.7
aF1.7
aF0.21539999999999998
aF0.0
aF0.0
aF0.0
aF0.23333333333333334
aF0.3333333333333333
aF0.13333333333333333
aF0.7
aF0.7666666666666667
aF1.4666666666666666
aF0.23333333333333334
aF0.2
aF0.13333333333333333
aF0.26666666666666666
aF0.9333333333333333
aF1.6333333333333333
aF-0.43333333333333335
aF0.43333333333333335
aI0
aI22
aa(lp398
F17.371794871794872
aF2.0
aF3.5384615384615383
aF0.5507307692307691
aF0.0
aF0.0
aF0.0
aF0.4230769230769231
aF0.6538461538461539
aF0.2136794871794872
aF1.6794871794871795
aF3.0256410256410255
aF4.705128205128205
aF0.8589743589743589
aF0.32051282051282054
aF0.3076923076923077
aF0.8846153846153846
aF2.7051282051282053
aF4.423076923076923
aF2.5641025641025643
aF0.7307692307692307
aI1
aI31
aa(lp399
F12.666666666666666
aF1.2222222222222223
aF1.7777777777777777
aF0.4285555555555556
aF0.0
aF0.0
aF0.0
aF0.0
aF0.0
aF0.0
aF0.1111111111111111
aF1.4444444444444444
aF1.5555555555555556
aF1.2222222222222223
aF0.3333333333333333
aF0.0
aF0.8888888888888888
aF1.2222222222222223
aF2.4444444444444446
aF-0.3333333333333333
aF0.4444444444444444
aI12
aI34
aa(lp400
F20.506666666666668
aF2.9466666666666668
aF6.493333333333333
aF0.38908000000000004
aF1.44
aF3.44
aF0.3461733333333334
aF1.7466666666666666
aF2.16
aF0.5116266666666667
aF0.36
aF2.96
aF3.32
aF0.8
aF0.4
aF0.3466666666666667
aF0.8666666666666667
aF2.4
aF9.08
aF-0.29333333333333333
aF0.5066666666666667
aI4
aI26
aa(lp401
F20.757142857142856
aF3.085714285714286
aF7.1571428571428575
aF0.4076142857142857
aF1.4857142857142858
aF4.1571428571428575
aF0.3120714285714286
aF1.2
aF1.7428571428571429
aF0.38952857142857145
aF0.45714285714285713
aF2.742857142857143
aF3.2
aF0.6571428571428571
aF0.6428571428571429
aF0.17142857142857143
aF0.7428571428571429
aF1.7428571428571429
aF8.857142857142858
aF-1.8285714285714285
aF0.5714285714285714
aI6
aI29
aa(lp402
F30.75
aF4.597222222222222
aF9.833333333333334
aF0.4495555555555556
aF0.19444444444444445
aF0.5138888888888888
aF0.05548611111111112
aF2.5833333333333335
aF3.1944444444444446
aF0.6557916666666667
aF1.7222222222222223
aF3.888888888888889
aF5.611111111111111
aF1.6388888888888888
aF0.6527777777777778
aF0.16666666666666666
aF1.4444444444444444
aF2.3333333333333335
aF11.972222222222221
aF-4.986111111111111
aF0.2638888888888889
aI1
aI24
aa(lp403
F35.41772151898734
aF5.924050632911392
aF13.227848101265822
aF0.4404050632911391
aF1.7341772151898733
aF4.189873417721519
aF0.4068734177215189
aF2.962025316455696
aF3.5569620253164556
aF0.6755316455696201
aF0.4050632911392405
aF3.0253164556962027
aF3.430379746835443
aF6.215189873417722
aF1.2658227848101267
aF0.2911392405063291
aF2.3544303797468356
aF3.4177215189873418
aF16.544303797468356
aF4.227848101265823
aF0.6075949367088608
aI3
aI25
aa(lp404
F11.545454545454545
aF1.8909090909090909
aF4.127272727272727
aF0.4206181818181819
aF0.6545454545454545
aF1.6363636363636365
aF0.3336363636363636
aF0.4909090909090909
aF0.6909090909090909
aF0.21516363636363636
aF1.1636363636363636
aF1.6181818181818182
aF2.7818181818181817
aF0.4
aF0.3090909090909091
aF0.2
aF0.45454545454545453
aF1.2
aF4.927272727272728
aF0.6363636363636364
aF0.8363636363636363
aI2
aI26
aa(lp405
F17.44927536231884
aF1.710144927536232
aF3.7246376811594204
aF0.32355072463768114
aF0.15942028985507245
aF0.6521739130434783
aF0.093
aF0.9565217391304348
aF1.1884057971014492
aF0.3213623188405797
aF0.8405797101449275
aF1.608695652173913
aF2.449275362318841
aF0.8115942028985508
aF0.3333333333333333
aF0.3188405797101449
aF0.6811594202898551
aF1.536231884057971
aF4.536231884057971
aF-0.6666666666666666
aF0.37681159420289856
aI0
aI23
aa(lp406
F9.333333333333334
aF0.6333333333333333
aF2.066666666666667
aF0.21046666666666666
aF0.0
aF0.06666666666666667
aF0.0
aF0.7666666666666667
aF0.9
aF0.28473333333333334
aF0.3333333333333333
aF1.2333333333333334
aF1.5666666666666667
aF0.6333333333333333
aF0.5666666666666667
aF0.06666666666666667
aF0.5333333333333333
aF1.0666666666666667
aF2.033333333333333
aF-2.3333333333333335
aF0.26666666666666666
aI2
aI26
aa(lp407
F19.26153846153846
aF2.4
aF5.461538461538462
aF0.3861076923076923
aF0.06153846153846154
aF0.5076923076923077
aF0.016415384615384616
aF0.9230769230769231
aF1.2461538461538462
aF0.2901692307692308
aF0.6
aF3.4615384615384617
aF4.061538461538461
aF1.4
aF0.6307692307692307
aF0.6923076923076923
aF0.9230769230769231
aF1.6615384615384616
aF5.7846153846153845
aF-2.3230769230769233
aF0.49230769230769234
aI2
aI21
aa(lp408
F29.839506172839506
aF4.185185185185185
aF9.567901234567902
aF0.42058024691358026
aF1.345679012345679
aF3.6666666666666665
aF0.3276419753086419
aF1.3703703703703705
aF2.123456790123457
aF0.48577777777777775
aF0.5308641975308642
aF1.9753086419753085
aF2.506172839506173
aF2.802469135802469
aF1.4567901234567902
aF0.12345679012345678
aF1.876543209876543
aF2.5925925925925926
aF11.08641975308642
aF-1.0246913580246915
aF0.5061728395061729
aI4
aI25
aa(lp409
F39.629629629629626
aF9.277777777777779
aF21.0
aF0.44242592592592594
aF3.0185185185185186
aF8.037037037037036
aF0.37405555555555564
aF5.12962962962963
aF5.685185185185185
aF0.9008703703703703
aF1.0555555555555556
aF3.5185185185185186
aF4.574074074074074
aF4.148148148148148
aF1.5
aF0.2037037037037037
aF2.8518518518518516
aF2.0555555555555554
aF26.703703703703702
aF-1.2962962962962963
aF0.3888888888888889
aI10
aI31
aa(lp410
F7.275
aF0.925
aF2.375
aF0.206975
aF0.0
aF0.0
aF0.0
aF0.6
aF0.7
aF0.196875
aF0.325
aF0.725
aF1.05
aF0.375
aF0.1
aF0.075
aF0.55
aF0.975
aF2.45
aF-1.3
aF0.425
aI2
aI24
aa(lp411
F25.703703703703702
aF4.518518518518518
aF8.617283950617283
aF0.5089753086419755
aF0.0
aF0.08641975308641975
aF0.0
aF3.6419753086419755
aF4.7407407407407405
aF0.713
aF1.5802469135802468
aF3.5185185185185186
aF5.098765432098766
aF0.9259259259259259
aF0.5185185185185185
aF0.37037037037037035
aF1.9876543209876543
aF2.8518518518518516
aF12.679012345679013
aF-5.172839506172839
aF0.25925925925925924
aI1
aI24
aa(lp412
F23.155844155844157
aF2.3506493506493507
aF5.701298701298701
aF0.35310389610389614
aF0.07792207792207792
aF0.37662337662337664
aF0.05194805194805195
aF1.4805194805194806
aF2.324675324675325
aF0.3312337662337662
aF0.961038961038961
aF2.779220779220779
aF3.74025974025974
aF3.74025974025974
aF1.5844155844155845
aF0.1038961038961039
aF1.7662337662337662
aF2.2987012987012987
aF6.259740259740259
aF0.5584415584415584
aF0.2727272727272727
aI0
aI20
aa(lp413
F12.271428571428572
aF1.5571428571428572
aF3.6285714285714286
aF0.32131428571428566
aF0.21428571428571427
aF0.6
aF0.12857142857142856
aF0.32857142857142857
aF0.6428571428571429
aF0.14405714285714286
aF0.4857142857142857
aF1.6857142857142857
aF2.1714285714285713
aF0.8571428571428571
aF0.4714285714285714
aF0.15714285714285714
aF0.8571428571428571
aF1.4285714285714286
aF3.657142857142857
aF1.2428571428571429
aF0.6
aI0
aI22
aa(lp414
F13.0
aF1.3076923076923077
aF3.0
aF0.34492307692307694
aF0.23076923076923078
aF0.8461538461538461
aF0.11538461538461539
aF0.6153846153846154
aF0.6923076923076923
aF0.2692307692307692
aF0.38461538461538464
aF1.0769230769230769
aF1.4615384615384615
aF0.3076923076923077
aF0.3076923076923077
aF0.0
aF0.9230769230769231
aF1.9230769230769231
aF3.4615384615384617
aF-4.538461538461538
aF0.3076923076923077
aI1
aI24
aa(lp415
F38.88135593220339
aF7.762711864406779
aF16.847457627118644
aF0.4529830508474576
aF2.542372881355932
aF6.508474576271187
aF0.3670677966101694
aF4.440677966101695
aF5.254237288135593
aF0.7583220338983048
aF1.5423728813559323
aF5.169491525423729
aF6.711864406779661
aF2.440677966101695
aF1.1355932203389831
aF0.6610169491525424
aF1.9661016949152543
aF2.3728813559322033
aF22.508474576271187
aF-0.05084745762711865
aF0.3898305084745763
aI8
aI27
aa(lp416
F21.493827160493826
aF2.345679012345679
aF5.962962962962963
aF0.35512345679012336
aF1.123456790123457
aF3.0617283950617282
aF0.30358024691358027
aF1.0987654320987654
aF1.5802469135802468
aF0.359358024691358
aF0.5185185185185185
aF2.382716049382716
aF2.9012345679012346
aF0.6419753086419753
aF0.43209876543209874
aF0.2222222222222222
aF0.9012345679012346
aF1.5555555555555556
aF6.91358024691358
aF-1.5185185185185186
aF0.3950617283950617
aI1
aI20
aa(lp417
F8.627906976744185
aF0.7209302325581395
aF1.5116279069767442
aF0.2988372093023256
aF0.023255813953488372
aF0.046511627906976744
aF0.023255813953488372
aF0.13953488372093023
aF0.23255813953488372
aF0.046511627906976744
aF0.627906976744186
aF1.255813953488372
aF1.8837209302325582
aF0.4186046511627907
aF0.06976744186046512
aF0.6744186046511628
aF0.20930232558139536
aF1.6511627906976745
aF1.6046511627906976
aF1.0
aF0.4883720930232558
aI7
aI30
aa(lp418
F29.716216216216218
aF5.216216216216216
aF12.054054054054054
aF0.4316081081081081
aF0.2702702702702703
aF0.918918918918919
aF0.14189189189189189
aF3.2432432432432434
aF3.9594594594594597
aF0.6600135135135136
aF0.7162162162162162
aF2.445945945945946
aF3.1621621621621623
aF7.905405405405405
aF1.3513513513513513
aF0.10810810810810811
aF3.108108108108108
aF2.4864864864864864
aF13.945945945945946
aF0.28378378378378377
aF0.581081081081081
aI3
aI23
aa(lp419
F4.5
aF0.0
aF2.0
aF0.0
aF0.0
aF0.0
aF0.0
aF0.0
aF0.0
aF0.0
aF0.0
aF0.5
aF0.5
aF0.0
aF0.0
aF0.0
aF1.0
aF1.5
aF0.0
aF-3.0
aF0.5
aI10
aI31
aa(lp420
F9.97872340425532
aF1.0212765957446808
aF1.8085106382978724
aF0.4293617021276596
aF0.0
aF0.0
aF0.0
aF0.23404255319148937
aF0.5319148936170213
aF0.10993617021276596
aF1.0638297872340425
aF1.5957446808510638
aF2.6595744680851063
aF0.40425531914893614
aF0.23404255319148937
aF1.0638297872340425
aF0.46808510638297873
aF1.297872340425532
aF2.276595744680851
aF-1.0
aF0.3829787234042553
aI9
aI31
aa(lp421
F8.381818181818181
aF0.38181818181818183
aF0.7454545454545455
aF0.24363636363636365
aF0.0
aF0.0
aF0.0
aF0.2727272727272727
aF0.5272727272727272
aF0.11363636363636363
aF0.6181818181818182
aF0.9272727272727272
aF1.5454545454545454
aF0.18181818181818182
aF0.18181818181818182
aF0.18181818181818182
aF0.38181818181818183
aF1.8
aF1.0363636363636364
aF-0.32727272727272727
aF0.43636363636363634
aI6
aI30
aa(lp422
F33.148648648648646
aF5.378378378378378
aF12.5
aF0.4107567567567567
aF1.3108108108108107
aF4.094594594594595
aF0.2710135135135135
aF3.2027027027027026
aF3.945945945945946
aF0.679081081081081
aF0.7837837837837838
aF2.1486486486486487
aF2.9324324324324325
aF3.810810810810811
aF1.1216216216216217
aF0.4594594594594595
aF2.4324324324324325
aF2.6621621621621623
aF15.27027027027027
aF1.527027027027027
aF0.5675675675675675
aI6
aI28
aa(lp423
F7.875
aF0.75
aF1.5
aF0.416625
aF0.0
aF0.0
aF0.0
aF0.375
aF0.5
aF0.1875
aF0.25
aF0.75
aF1.0
aF1.5
aF0.5
aF0.0
aF0.375
aF0.75
aF1.875
aF-0.625
aF0.25
aI1
aI23
aa(lp424
F29.14814814814815
aF4.222222222222222
aF9.160493827160494
aF0.45951851851851855
aF0.8765432098765432
aF2.1728395061728394
aF0.29114814814814816
aF1.8518518518518519
aF2.617283950617284
aF0.5256666666666667
aF0.6790123456790124
aF1.9753086419753085
aF2.654320987654321
aF2.654320987654321
aF0.8024691358024691
aF0.2345679012345679
aF1.4444444444444444
aF1.876543209876543
aF11.17283950617284
aF-0.8024691358024691
aF0.49382716049382713
aI6
aI25
aa(lp425
F29.28985507246377
aF2.8260869565217392
aF6.0144927536231885
aF0.4679855072463768
aF0.2318840579710145
aF1.0869565217391304
aF0.1666521739130435
aF2.5217391304347827
aF3.4347826086956523
aF0.6038695652173912
aF1.2608695652173914
aF3.449275362318841
aF4.7101449275362315
aF2.9130434782608696
aF1.0724637681159421
aF2.0869565217391304
aF1.9565217391304348
aF2.4927536231884058
aF8.405797101449275
aF0.6086956521739131
aF0.6231884057971014
aI5
aI25
aa(lp426
F37.68354430379747
aF7.037974683544304
aF13.341772151898734
aF0.5263797468354432
aF1.0126582278481013
aF3.1392405063291138
aF0.26886075949367083
aF2.5443037974683542
aF3.1392405063291138
aF0.591746835443038
aF2.1392405063291138
aF7.69620253164557
aF9.835443037974683
aF1.6835443037974684
aF1.9367088607594938
aF1.5443037974683544
aF1.4303797468354431
aF2.7341772151898733
aF17.632911392405063
aF7.658227848101266
aF0.759493670886076
aI7
aI28
aa(lp427
F36.28395061728395
aF6.432098765432099
aF10.679012345679013
aF0.6048765432098766
aF0.012345679012345678
aF0.024691358024691357
aF0.012345679012345678
aF4.790123456790123
aF8.17283950617284
aF0.5794814814814815
aF3.45679012345679
aF8.814814814814815
aF12.271604938271604
aF1.9382716049382716
aF0.8641975308641975
aF1.9135802469135803
aF3.876543209876543
aF3.0
aF17.666666666666668
aF0.8765432098765432
aF0.48148148148148145
aI2
aI21
aa(lp428
F21.9875
aF3.85
aF9.1125
aF0.4298500000000002
aF1.1875
aF3.1875
aF0.3275125
aF1.5875
aF1.9625
aF0.45745
aF0.8375
aF1.7375
aF2.575
aF1.025
aF0.5125
aF0.3
aF1.4625
aF2.4625
aF10.475
aF-2.6375
aF0.3
aI1
aI20
aa(lp429
F6.9
aF0.9
aF2.4
aF0.2944
aF0.7
aF1.8
aF0.27080000000000004
aF0.0
aF0.0
aF0.0
aF0.1
aF0.6
aF0.7
aF0.4
aF0.0
aF0.1
aF0.5
aF0.5
aF2.5
aF-0.4
aF0.8
aI12
aI36
aa(lp430
F27.275
aF3.4
aF5.85
aF0.5515749999999999
aF0.0
aF0.025
aF0.0
aF1.4
aF3.275
aF0.33609999999999995
aF2.025
aF3.975
aF6.0
aF1.875
aF0.95
aF1.2
aF1.85
aF3.025
aF8.2
aF1.55
aF0.575
aI5
aI24
aa(lp431
F31.705882352941178
aF4.352941176470588
aF10.264705882352942
aF0.39586764705882355
aF0.9117647058823529
aF2.5
aF0.279485294117647
aF2.3970588235294117
aF2.823529411764706
aF0.6583088235294116
aF0.4411764705882353
aF2.5588235294117645
aF3.0
aF4.411764705882353
aF1.0441176470588236
aF0.4852941176470588
aF2.0294117647058822
aF2.2058823529411766
aF12.014705882352942
aF-3.8529411764705883
aF0.3235294117647059
aI2
aI23
aa(lp432
F34.18421052631579
aF6.2368421052631575
aF13.157894736842104
aF0.4715
aF0.5131578947368421
aF1.881578947368421
aF0.23214473684210526
aF3.5921052631578947
aF4.7105263157894735
aF0.7028421052631579
aF0.8157894736842105
aF2.3552631578947367
aF3.1710526315789473
aF4.157894736842105
aF1.7236842105263157
aF0.27631578947368424
aF2.8947368421052633
aF2.75
aF16.57894736842105
aF0.34210526315789475
aF0.5
aI1
aI21
aa(lp433
F4.666666666666667
aF0.0
aF0.0
aF0.0
aF0.0
aF0.0
aF0.0
aF1.0
aF2.0
aF0.25
aF0.0
aF1.0
aF1.0
aF0.0
aF0.0
aF0.0
aF0.3333333333333333
aF0.3333333333333333
aF1.0
aF0.6666666666666666
aF0.6666666666666666
aI1
aI23
aa(lp434
F37.51851851851852
aF4.716049382716049
aF12.54320987654321
aF0.371037037037037
aF2.3580246913580245
aF6.493827160493828
aF0.35819753086419776
aF1.6049382716049383
aF2.185185185185185
aF0.4845679012345679
aF0.35802469135802467
aF3.123456790123457
aF3.4814814814814814
aF5.444444444444445
aF1.5925925925925926
aF0.12345679012345678
aF2.0987654320987654
aF2.4074074074074074
aF13.395061728395062
aF5.530864197530864
aF0.6419753086419753
aI7
aI30
aa(lp435
F10.869565217391305
aF1.3695652173913044
aF2.847826086956522
aF0.37126086956521737
aF0.10869565217391304
aF0.32608695652173914
aF0.08695652173913043
aF0.6739130434782609
aF0.8478260869565217
aF0.18313043478260868
aF0.30434782608695654
aF0.782608695652174
aF1.0869565217391304
aF1.6521739130434783
aF0.32608695652173914
aF0.08695652173913043
aF0.5869565217391305
aF1.065217391304348
aF3.5217391304347827
aF0.9565217391304348
aF0.30434782608695654
aI4
aI27
aa(lp436
F17.78205128205128
aF2.0384615384615383
aF4.730769230769231
aF0.41393589743589754
aF0.6794871794871795
aF1.8846153846153846
aF0.2624871794871794
aF1.1923076923076923
aF1.4230769230769231
aF0.3848461538461539
aF0.6282051282051282
aF1.8846153846153846
aF2.5128205128205128
aF1.0769230769230769
aF0.5641025641025641
aF0.5384615384615384
aF0.8846153846153846
aF2.371794871794872
aF5.948717948717949
aF-0.358974358974359
aF0.4230769230769231
aI1
aI25
aa(lp437
F17.61904761904762
aF1.507936507936508
aF4.4603174603174605
aF0.2557301587301587
aF0.746031746031746
aF2.6507936507936507
aF0.19846031746031748
aF0.5555555555555556
aF0.8095238095238095
aF0.25396825396825395
aF0.4126984126984127
aF1.2857142857142858
aF1.6984126984126984
aF0.8253968253968254
aF0.47619047619047616
aF0.1111111111111111
aF0.5714285714285714
aF2.0793650793650795
aF4.317460317460317
aF0.2222222222222222
aF0.5079365079365079
aI0
aI24
aa(lp438
F34.625
aF7.175
aF12.45
aF0.5735499999999998
aF0.0125
aF0.0125
aF0.0125
aF4.9875
aF8.1
aF0.5885499999999999
aF2.3875
aF4.65
aF7.0375
aF0.85
aF0.4125
aF0.5
aF3.6125
aF3.25
aF19.35
aF-2.5375
aF0.3875
aI5
aI24
aa(lp439
F33.45454545454545
aF6.298701298701299
aF13.857142857142858
aF0.4445194805194804
aF1.6233766233766234
aF3.74025974025974
aF0.375
aF2.155844155844156
aF3.090909090909091
aF0.5807532467532467
aF1.9350649350649352
aF4.415584415584416
aF6.35064935064935
aF1.8831168831168832
aF0.8441558441558441
aF0.3116883116883117
aF2.1948051948051948
aF3.4805194805194803
aF16.376623376623378
aF-0.5194805194805194
aF0.5324675324675324
aI8
aI26
aa(lp440
F23.918032786885245
aF2.7868852459016393
aF7.147540983606557
aF0.3749672131147541
aF0.9672131147540983
aF2.8688524590163933
aF0.29411475409836063
aF1.0819672131147542
aF1.360655737704918
aF0.4420819672131148
aF0.5081967213114754
aF1.7704918032786885
aF2.278688524590164
aF4.901639344262295
aF0.7704918032786885
aF0.03278688524590164
aF1.639344262295082
aF1.5573770491803278
aF7.622950819672131
aF-3.7868852459016393
aF0.2459016393442623
aI11
aI33
aa(lp441
F30.950617283950617
aF4.395061728395062
aF8.074074074074074
aF0.557395061728395
aF0.0
aF0.024691358024691357
aF0.0
aF2.0617283950617282
aF2.765432098765432
aF0.6012716049382716
aF2.925925925925926
aF6.074074074074074
aF9.0
aF0.7901234567901234
aF0.5802469135802469
aF1.9382716049382716
aF1.962962962962963
aF3.506172839506173
aF10.851851851851851
aF-0.19753086419753085
aF0.41975308641975306
aI5
aI26
aa(lp442
F5.5
aF1.0
aF2.5
aF0.4165
aF0.0
aF0.5
aF0.0
aF0.0
aF0.0
aF0.0
aF0.0
aF1.0
aF1.0
aF0.0
aF0.0
aF0.5
aF0.0
aF2.0
aF2.0
aF-3.5
aF1.0
aI8
aI31
aa(lp443
F33.74603174603175
aF4.698412698412699
aF10.968253968253968
aF0.40796825396825387
aF0.1746031746031746
aF0.7142857142857143
aF0.1044920634920635
aF3.380952380952381
aF4.158730158730159
aF0.701047619047619
aF1.2857142857142858
aF3.9523809523809526
aF5.238095238095238
aF1.873015873015873
aF0.7936507936507936
aF0.4603174603174603
aF1.9682539682539681
aF2.9523809523809526
aF12.952380952380953
aF-3.4603174603174605
aF0.31746031746031744
aI1
aI20
aa(lp444
F28.554054054054053
aF3.1621621621621623
aF6.851351351351352
aF0.4572162162162163
aF1.1891891891891893
aF2.918918918918919
aF0.417527027027027
aF0.8648648648648649
aF1.1756756756756757
aF0.3316216216216216
aF1.2837837837837838
aF2.418918918918919
aF3.7027027027027026
aF1.5
aF0.9324324324324325
aF0.22972972972972974
aF0.9864864864864865
aF2.7567567567567566
aF8.378378378378379
aF-1.8513513513513513
aF0.4189189189189189
aI3
aI29
aa(lp445
F10.35
aF1.5
aF3.4
aF0.294075
aF0.45
aF1.225
aF0.21917499999999998
aF0.6
aF0.7
aF0.225
aF0.05
aF0.6
aF0.65
aF1.275
aF0.425
aF0.025
aF0.45
aF0.8
aF4.05
aF-0.775
aF0.25
aI0
aI27
aa(lp446
F16.923076923076923
aF2.6538461538461537
aF6.6923076923076925
aF0.3643076923076923
aF0.5897435897435898
aF2.0641025641025643
aF0.20511538461538462
aF0.9230769230769231
aF1.0897435897435896
aF0.30714102564102563
aF0.3717948717948718
aF1.7179487179487178
aF2.08974358974359
aF3.2948717948717947
aF0.3717948717948718
aF0.02564102564102564
aF1.8205128205128205
aF1.205128205128205
aF6.82051282051282
aF-0.44871794871794873
aF0.5
aI0
aI21
aa(lp447
F9.655172413793103
aF0.8620689655172413
aF2.4827586206896552
aF0.2940689655172413
aF0.0
aF0.0
aF0.0
aF0.9655172413793104
aF1.4137931034482758
aF0.296551724137931
aF0.4482758620689655
aF1.1379310344827587
aF1.5862068965517242
aF0.5517241379310345
aF0.13793103448275862
aF0.2413793103448276
aF0.9310344827586207
aF1.5862068965517242
aF2.689655172413793
aF-2.7241379310344827
aF0.2413793103448276
aI4
aI28
aa(lp448
F11.789473684210526
aF2.3157894736842106
aF5.315789473684211
aF0.3116842105263158
aF1.105263157894737
aF2.789473684210526
aF0.24626315789473685
aF0.10526315789473684
aF0.15789473684210525
aF0.05263157894736842
aF0.05263157894736842
aF1.0
aF1.0526315789473684
aF0.5263157894736842
aF0.5263157894736842
aF0.0
aF0.631578947368421
aF1.4210526315789473
aF5.842105263157895
aF-2.1578947368421053
aF0.3684210526315789
aI1
aI23
aa(lp449
F22.71604938271605
aF3.580246913580247
aF8.345679012345679
aF0.40877777777777774
aF0.8148148148148148
aF2.246913580246914
aF0.2846666666666667
aF1.9753086419753085
aF2.308641975308642
aF0.4884567901234568
aF0.5432098765432098
aF2.049382716049383
aF2.5925925925925926
aF2.7901234567901234
aF0.6172839506172839
aF0.25925925925925924
aF1.8395061728395061
aF2.246913580246914
aF9.950617283950617
aF-1.9753086419753085
aF0.3950617283950617
aI0
aI23
aa(lp450
F34.123456790123456
aF4.864197530864198
aF10.592592592592593
aF0.4581604938271606
aF1.345679012345679
aF3.54320987654321
aF0.3518765432098764
aF2.8518518518518516
aF3.5555555555555554
aF0.7061728395061727
aF1.4074074074074074
aF3.234567901234568
aF4.6419753086419755
aF1.4074074074074074
aF0.8148148148148148
aF0.7407407407407407
aF1.654320987654321
aF2.962962962962963
aF13.925925925925926
aF-1.8518518518518519
aF0.43209876543209874
aI1
aI23
aa(lp451
F35.18421052631579
aF2.486842105263158
aF5.4868421052631575
aF0.4062236842105263
aF0.013157894736842105
aF0.06578947368421052
aF0.013157894736842105
aF1.4342105263157894
aF3.5
aF0.3575921052631578
aF3.9210526315789473
aF6.75
aF10.671052631578947
aF2.4473684210526314
aF1.4473684210526316
aF2.0526315789473686
aF1.3157894736842106
aF1.986842105263158
aF6.421052631578948
aF2.3552631578947367
aF0.5921052631578947
aI10
aI32
aa(lp452
F23.7
aF2.35
aF4.9375
aF0.49627500000000013
aF0.0
aF0.1125
aF0.0
aF2.025
aF3.2875
aF0.5202625
aF2.3375
aF4.325
aF6.6625
aF0.9375
aF0.95
aF0.6375
aF0.8
aF3.3375
aF6.725
aF3.1375
aF0.6
aI2
aI24
aa(lp453
F37.76
aF9.38
aF19.1
aF0.48722
aF0.42
aF1.58
aF0.19698000000000002
aF8.6
aF10.64
aF0.7852599999999998
aF1.0
aF3.76
aF4.76
aF7.64
aF2.1
aF1.24
aF4.28
aF2.32
aF27.78
aF1.92
aF0.54
aI3
aI24
aa(lp454
F33.289855072463766
aF4.434782608695652
aF9.376811594202898
aF0.4642463768115942
aF0.0
aF0.028985507246376812
aF0.0
aF2.3043478260869565
aF3.1739130434782608
aF0.5825362318840579
aF2.3333333333333335
aF9.333333333333334
aF11.666666666666666
aF3.1884057971014492
aF1.2463768115942029
aF3.318840579710145
aF1.7536231884057971
aF2.5652173913043477
aF11.173913043478262
aF1.6521739130434783
aF0.5652173913043478
aI10
aI32
aa(lp455
F34.851351351351354
aF5.445945945945946
aF12.067567567567568
aF0.44381081081081086
aF0.0
aF0.0
aF0.0
aF2.8783783783783785
aF4.337837837837838
aF0.600054054054054
aF1.6486486486486487
aF2.972972972972973
aF4.621621621621622
aF1.554054054054054
aF0.7027027027027027
aF0.2972972972972973
aF2.554054054054054
aF2.3513513513513513
aF13.77027027027027
aF-2.0945945945945947
aF0.4594594594594595
aI6
aI29
aa(lp456
F27.33783783783784
aF4.148648648648648
aF9.527027027027026
aF0.41563513513513506
aF1.5405405405405406
aF4.027027027027027
aF0.33425675675675653
aF3.4054054054054053
aF4.202702702702703
aF0.6527837837837837
aF0.24324324324324326
aF1.6081081081081081
aF1.8513513513513513
aF4.45945945945946
aF0.6621621621621622
aF0.05405405405405406
aF1.7027027027027026
aF1.8243243243243243
aF13.243243243243244
aF-1.972972972972973
aF0.25675675675675674
aI7
aI32
aa(lp457
F5.0
aF1.0
aF1.0
aF1.0
aF0.0
aF0.0
aF0.0
aF0.0
aF0.0
aF0.0
aF1.0
aF2.0
aF3.0
aF2.0
aF0.0
aF0.0
aF0.0
aF1.0
aF2.0
aF3.0
aF1.0
aI0
aI22
aa(lp458
F13.454545454545455
aF1.7272727272727273
aF5.181818181818182
aF0.2701818181818182
aF0.45454545454545453
aF2.0
aF0.18054545454545454
aF0.7272727272727273
aF1.0909090909090908
aF0.24245454545454545
aF0.36363636363636365
aF0.9090909090909091
aF1.2727272727272727
aF0.7272727272727273
aF0.2727272727272727
aF0.18181818181818182
aF0.45454545454545453
aF0.7272727272727273
aF4.636363636363637
aF-0.6363636363636364
aF0.09090909090909091
aI0
aI22
aa(lp459
F17.615384615384617
aF1.5384615384615385
aF3.5576923076923075
aF0.36205769230769225
aF0.0
aF0.038461538461538464
aF0.0
aF0.7115384615384616
aF0.8653846153846154
aF0.23334615384615381
aF0.15384615384615385
aF1.2692307692307692
aF1.4230769230769231
aF2.5
aF0.40384615384615385
aF0.019230769230769232
aF0.9038461538461539
aF1.4423076923076923
aF3.7884615384615383
aF-3.173076923076923
aF0.34615384615384615
aI9
aI34
aa(lp460
F1.5
aF0.3333333333333333
aF0.8333333333333334
aF0.16666666666666666
aF0.0
aF0.0
aF0.0
aF0.16666666666666666
aF0.16666666666666666
aF0.16666666666666666
aF0.3333333333333333
aF0.16666666666666666
aF0.5
aF0.0
aF0.0
aF0.0
aF0.16666666666666666
aF0.0
aF0.8333333333333334
aF-2.6666666666666665
aF0.6666666666666666
aI2
aI25
aa(lp461
F27.029850746268657
aF3.9402985074626864
aF8.522388059701493
aF0.4461044776119401
aF0.835820895522388
aF2.1641791044776117
aF0.3204328358208955
aF1.5820895522388059
aF2.1343283582089554
aF0.5001791044776119
aF1.462686567164179
aF4.582089552238806
aF6.044776119402985
aF1.8656716417910448
aF0.6716417910447762
aF0.6119402985074627
aF1.164179104477612
aF2.8507462686567164
aF10.298507462686567
aF-3.074626865671642
aF0.3582089552238806
aI5
aI26
aa(lp462
F10.864406779661017
aF1.4406779661016949
aF3.016949152542373
aF0.3989830508474576
aF0.0
aF0.0
aF0.0
aF0.8983050847457628
aF1.3389830508474576
aF0.31277966101694915
aF1.2542372881355932
aF1.847457627118644
aF3.1016949152542375
aF0.3050847457627119
aF0.23728813559322035
aF0.3559322033898305
aF0.4915254237288136
aF1.6271186440677967
aF3.7796610169491527
aF-0.5254237288135594
aF0.5932203389830508
aI2
aI21
aa(lp463
F33.08510638297872
aF8.702127659574469
aF17.0
aF0.5079148936170212
aF0.0
aF0.0425531914893617
aF0.0
aF7.446808510638298
aF8.659574468085106
aF0.8603404255319146
aF2.0851063829787235
aF7.340425531914893
aF9.425531914893616
aF1.9787234042553192
aF0.3617021276595745
aF1.9787234042553192
aF3.5319148936170213
aF3.3617021276595747
aF24.851063829787233
aF6.191489361702128
aF0.6595744680851063
aI4
aI26
aa(lp464
F38.01923076923077
aF9.0
aF19.25
aF0.4585576923076923
aF2.1923076923076925
aF5.730769230769231
aF0.33667307692307696
aF6.5576923076923075
aF7.865384615384615
aF0.8222115384615385
aF0.7884615384615384
aF2.9423076923076925
aF3.730769230769231
aF2.326923076923077
aF1.1538461538461537
aF0.17307692307692307
aF2.326923076923077
aF1.5
aF26.75
aF0.057692307692307696
aF0.4230769230769231
aI6
aI27
aa(lp465
F7.318181818181818
aF1.0454545454545454
aF2.8636363636363638
aF0.2939545454545454
aF0.2727272727272727
aF0.9545454545454546
aF0.14772727272727273
aF0.36363636363636365
aF0.5909090909090909
aF0.17045454545454544
aF0.5454545454545454
aF1.4545454545454546
aF2.0
aF0.22727272727272727
aF0.13636363636363635
aF0.09090909090909091
aF0.3181818181818182
aF0.8636363636363636
aF2.727272727272727
aF-1.4090909090909092
aF0.8181818181818182
aI4
aI33
aa(lp466
F10.264705882352942
aF0.6470588235294118
aF2.176470588235294
aF0.25585294117647056
aF0.2647058823529412
aF1.1176470588235294
aF0.12694117647058825
aF0.5882352941176471
aF0.8235294117647058
aF0.25735294117647056
aF0.08823529411764706
aF0.9117647058823529
aF1.0
aF1.088235294117647
aF0.35294117647058826
aF0.11764705882352941
aF0.5
aF0.9411764705882353
aF2.1470588235294117
aF-0.4117647058823529
aF0.5588235294117647
aI13
aI36
aa(lp467
F15.056603773584905
aF1.9622641509433962
aF4.132075471698113
aF0.3995094339622643
aF0.0
aF0.018867924528301886
aF0.0
aF0.7924528301886793
aF1.6981132075471699
aF0.26969811320754716
aF1.7169811320754718
aF2.7735849056603774
aF4.490566037735849
aF0.5094339622641509
aF0.41509433962264153
aF0.5471698113207547
aF0.9056603773584906
aF2.6226415094339623
aF4.716981132075472
aF-2.2641509433962264
aF0.33962264150943394
aI4
aI28
aa(lp468
F14.782608695652174
aF2.0217391304347827
aF5.304347826086956
aF0.2839782608695652
aF0.9565217391304348
aF2.391304347826087
aF0.2787826086956522
aF0.9130434782608695
aF1.1956521739130435
aF0.3048913043478261
aF0.391304347826087
aF1.065217391304348
aF1.4565217391304348
aF0.8695652173913043
aF0.43478260869565216
aF0.06521739130434782
aF0.8695652173913043
aF1.7826086956521738
aF5.913043478260869
aF-0.21739130434782608
aF0.1956521739130435
aI0
aI22
aa(lp469
F12.5
aF1.6944444444444444
aF4.597222222222222
aF0.32505555555555554
aF0.4444444444444444
aF1.5555555555555556
aF0.17847222222222225
aF0.7083333333333334
aF0.7777777777777778
aF0.3125
aF0.1527777777777778
aF0.9583333333333334
aF1.1111111111111112
aF1.6527777777777777
aF0.3611111111111111
aF0.013888888888888888
aF0.75
aF0.9444444444444444
aF4.541666666666667
aF0.5833333333333334
aF0.7361111111111112
aI2
aI24
aa(lp470
F36.77777777777778
aF4.7407407407407405
aF9.37037037037037
aF0.5074814814814814
aF0.46296296296296297
aF1.3888888888888888
aF0.2777777777777778
aF3.074074074074074
aF3.8333333333333335
aF0.6875555555555555
aF2.259259259259259
aF4.018518518518518
aF6.277777777777778
aF2.259259259259259
aF1.037037037037037
aF0.6481481481481481
aF1.462962962962963
aF2.1481481481481484
aF13.018518518518519
aF-1.8148148148148149
aF0.4074074074074074
aI2
aI23
aa(lp471
F8.216666666666667
aF1.25
aF2.25
aF0.3956666666666667
aF0.0
aF0.016666666666666666
aF0.0
aF0.4
aF0.6
aF0.1625
aF0.5833333333333334
aF0.7
aF1.2833333333333334
aF0.21666666666666667
aF0.2833333333333333
aF0.06666666666666667
aF0.36666666666666664
aF0.7833333333333333
aF2.9
aF-0.25
aF0.5
aI0
aI22
aatp472
b.