(dp0
S'age'
p1
I27
sS'stats'
p2
(lp3
(lp4
V0020901213
p5
aVAPR 13, 2010
p6
aVCHI vs. BOS
p7
aVW
p8
aI5
aI0
aI2
aF0.0
aI0
aI0
aF0.0
aI0
aI0
aF0.0
aI0
aI2
aI2
aI0
aI0
aI0
aI0
aI0
aI0
aI-5
aa(lp9
V0020901197
p10
aVAPR 11, 2010
p11
aVCHI @ TOR
p12
aVW
p13
aI16
aI3
aI6
aF0.5
aI0
aI0
aF0.0
aI4
aI6
aF0.667
aI1
aI1
aI2
aI0
aI0
aI1
aI1
aI1
aI10
aI2
aa(lp14
V0020901181
p15
aVAPR 09, 2010
p16
aVCHI @ NJN
p17
aVL
p18
aI4
aI1
aI1
aF1.0
aI0
aI0
aF0.0
aI0
aI0
aF0.0
aI0
aI0
aI0
aI0
aI0
aI0
aI0
aI1
aI2
aI-6
aa(lp19
V0020901171
p20
aVAPR 08, 2010
p21
aVCHI vs. CLE
p22
aVW
p23
aI16
aI2
aI3
aF0.667
aI0
aI0
aF0.0
aI2
aI2
aF1.0
aI1
aI2
aI3
aI0
aI0
aI0
aI0
aI2
aI6
aI-7
aa(lp24
V0020901154
p25
aVAPR 06, 2010
p26
aVCHI vs. MIL
p27
aVL
p28
aI4
aI0
aI0
aF0.0
aI0
aI0
aF0.0
aI0
aI0
aF0.0
aI0
aI0
aI0
aI0
aI0
aI0
aI1
aI2
aI0
aI-3
aa(lp29
V0020901135
p30
aVAPR 03, 2010
p31
aVCHI vs. CHA
p32
aVW
p33
aI13
aI0
aI2
aF0.0
aI0
aI0
aF0.0
aI0
aI0
aF0.0
aI1
aI1
aI2
aI0
aI0
aI0
aI2
aI2
aI0
aI-6
aa(lp34
V0020901124
p35
aVAPR 02, 2010
p36
aVCHI @ WAS
p37
aVW
p38
aI13
aI3
aI5
aF0.6
aI0
aI0
aF0.0
aI1
aI2
aF0.5
aI0
aI2
aI2
aI0
aI0
aI1
aI0
aI3
aI7
aI5
aa(lp39
V0020901104
p40
aVMAR 30, 2010
p41
aVCHI vs. PHX
p42
aVL
p43
aI11
aI0
aI2
aF0.0
aI0
aI0
aF0.0
aI6
aI8
aF0.75
aI2
aI1
aI3
aI1
aI0
aI0
aI1
aI0
aI6
aI4
aa(lp44
V0020901090
p45
aVMAR 28, 2010
p46
aVCHI @ DET
p47
aVW
p48
aI18
aI5
aI6
aF0.833
aI0
aI0
aF0.0
aI4
aI4
aF1.0
aI1
aI3
aI4
aI1
aI0
aI0
aI0
aI1
aI14
aI13
aa(lp49
V0020901083
p50
aVMAR 27, 2010
p51
aVCHI vs. NJN
p52
aVW
p53
aI21
aI4
aI10
aF0.4
aI0
aI0
aF0.0
aI2
aI2
aF1.0
aI1
aI2
aI3
aI0
aI0
aI0
aI0
aI0
aI10
aI10
aa(lp54
V0020901068
p55
aVMAR 25, 2010
p56
aVCHI vs. MIA
p57
aVL
p58
aI19
aI4
aI8
aF0.5
aI0
aI0
aF0.0
aI6
aI9
aF0.667
aI3
aI4
aI7
aI0
aI0
aI0
aI2
aI2
aI14
aI0
aa(lp59
V0020901045
p60
aVMAR 22, 2010
p61
aVCHI vs. HOU
p62
aVW
p63
aI15
aI2
aI5
aF0.4
aI0
aI0
aF0.0
aI2
aI2
aF1.0
aI0
aI1
aI1
aI1
aI0
aI0
aI2
aI3
aI6
aI0
aa(lp64
V0020901029
p65
aVMAR 20, 2010
p66
aVCHI @ PHI
p67
aVW
p68
aI20
aI5
aI9
aF0.556
aI0
aI1
aF0.0
aI3
aI4
aF0.75
aI0
aI5
aI5
aI1
aI0
aI0
aI0
aI0
aI13
aI0
aa(lp69
V0020901022
p70
aVMAR 19, 2010
p71
aVCHI vs. CLE
p72
aVL
p73
aI14
aI3
aI6
aF0.5
aI0
aI0
aF0.0
aI1
aI2
aF0.5
aI2
aI1
aI3
aI1
aI1
aI0
aI1
aI2
aI7
aI-1
aa(lp74
V0020901011
p75
aVMAR 17, 2010
p76
aVCHI @ DAL
p77
aVL
p78
aI25
aI5
aI8
aF0.625
aI0
aI0
aF0.0
aI3
aI6
aF0.5
aI0
aI1
aI1
aI1
aI0
aI1
aI0
aI2
aI13
aI-1
aa(lp79
V0020901001
p80
aVMAR 16, 2010
p81
aVCHI @ MEM
p82
aVL
p83
aI28
aI7
aI12
aF0.583
aI0
aI0
aF0.0
aI8
aI8
aF1.0
aI1
aI3
aI4
aI0
aI1
aI0
aI0
aI0
aI22
aI6
aa(lp84
V0020900967
p85
aVMAR 12, 2010
p86
aVCHI @ MIA
p87
aVL
p88
aI10
aI0
aI0
aF0.0
aI0
aI0
aF0.0
aI3
aI4
aF0.75
aI0
aI2
aI2
aI1
aI0
aI0
aI1
aI0
aI3
aI-6
aa(lp89
V0020900962
p90
aVMAR 11, 2010
p91
aVCHI @ ORL
p92
aVL
p93
aI26
aI2
aI7
aF0.286
aI0
aI0
aF0.0
aI8
aI10
aF0.8
aI0
aI1
aI1
aI1
aI0
aI0
aI0
aI2
aI12
aI-29
aa(lp94
V0020900949
p95
aVMAR 09, 2010
p96
aVCHI vs. UTA
p97
aVL
p98
aI29
aI5
aI6
aF0.833
aI0
aI0
aF0.0
aI1
aI3
aF0.333
aI0
aI5
aI5
aI1
aI2
aI0
aI3
aI1
aI11
aI-3
aa(lp99
V0020900928
p100
aVMAR 06, 2010
p101
aVCHI vs. DAL
p102
aVL
p103
aI25
aI4
aI11
aF0.364
aI0
aI0
aF0.0
aI2
aI4
aF0.5
aI6
aI2
aI8
aI0
aI0
aI0
aI1
aI3
aI10
aI-15
aa(lp104
V0020900911
p105
aVMAR 04, 2010
p106
aVCHI vs. MEM
p107
aVL
p108
aI25
aI1
aI3
aF0.333
aI0
aI0
aF0.0
aI4
aI5
aF0.8
aI2
aI3
aI5
aI0
aI0
aI0
aI0
aI1
aI6
aI-13
aa(lp109
V0020900889
p110
aVMAR 01, 2010
p111
aVCHI vs. ATL
p112
aVL
p113
aI25
aI3
aI10
aF0.3
aI0
aI0
aF0.0
aI4
aI4
aF1.0
aI2
aI5
aI7
aI1
aI0
aI1
aI1
aI2
aI10
aI-5
aa(lp114
V0020900873
p115
aVFEB 27, 2010
p116
aVCHI @ IND
p117
aVL
p118
aI17
aI1
aI3
aF0.333
aI0
aI0
aF0.0
aI2
aI2
aF1.0
aI1
aI3
aI4
aI0
aI1
aI0
aI2
aI2
aI4
aI-3
aa(lp119
V0020900862
p120
aVFEB 26, 2010
p121
aVCHI vs. POR
p122
aVW
p123
aI34
aI6
aI11
aF0.545
aI0
aI0
aF0.0
aI3
aI3
aF1.0
aI2
aI2
aI4
aI3
aI0
aI0
aI1
aI3
aI15
aI-6
aa(lp124
V0020900848
p125
aVFEB 24, 2010
p126
aVCHI vs. IND
p127
aVW
p128
aI15
aI1
aI3
aF0.333
aI0
aI0
aF0.0
aI3
aI5
aF0.6
aI0
aI1
aI1
aI0
aI1
aI0
aI1
aI0
aI5
aI-2
aa(lp129
V0020900832
p130
aVFEB 22, 2010
p131
aVCHI @ WAS
p132
aVL
p133
aI30
aI5
aI9
aF0.556
aI0
aI0
aF0.0
aI2
aI3
aF0.667
aI3
aI2
aI5
aI0
aI1
aI2
aI1
aI4
aI12
aI-3
aa(lp134
V0020900818
p135
aVFEB 20, 2010
p136
aVCHI vs. PHI
p137
aVW
p138
aI25
aI6
aI11
aF0.545
aI0
aI0
aF0.0
aI3
aI4
aF0.75
aI5
aI4
aI9
aI3
aI0
aI2
aI0
aI2
aI15
aI4
aa(lp139
V0020900809
p140
aVFEB 19, 2010
p141
aVCHI @ MIN
p142
aVW
p143
aI30
aI5
aI13
aF0.385
aI0
aI0
aF0.0
aI0
aI0
aF0.0
aI6
aI3
aI9
aI1
aI0
aI0
aI2
aI2
aI10
aI5
aa(lp144
V0020900765
p145
aVFEB 09, 2010
p146
aVMIL vs. DET
p147
aVL
p148
aI14
aI1
aI4
aF0.25
aI0
aI0
aF0.0
aI0
aI0
aF0.0
aI1
aI2
aI3
aI0
aI0
aI0
aI4
aI2
aI2
aI-14
aa(lp149
V0020900748
p150
aVFEB 06, 2010
p151
aVMIL vs. IND
p152
aVW
p153
aI3
aI0
aI0
aF0.0
aI0
aI0
aF0.0
aI1
aI2
aF0.5
aI0
aI1
aI1
aI0
aI0
aI0
aI1
aI1
aI1
aI2
aa(lp154
V0020900734
p155
aVFEB 05, 2010
p156
aVMIL @ NYK
p157
aVW
p158
aI17
aI4
aI6
aF0.667
aI0
aI0
aF0.0
aI0
aI0
aF0.0
aI3
aI3
aI6
aI1
aI1
aI0
aI1
aI1
aI8
aI3
aa(lp159
V0020900713
p160
aVFEB 02, 2010
p161
aVMIL @ ORL
p162
aVL
p163
aI23
aI4
aI7
aF0.571
aI0
aI0
aF0.0
aI1
aI6
aF0.167
aI2
aI3
aI5
aI0
aI0
aI0
aI0
aI0
aI9
aI-11
aa(lp164
V0020900705
p165
aVFEB 01, 2010
p166
aVMIL @ MIA
p167
aVW
p168
aI26
aI6
aI12
aF0.5
aI0
aI0
aF0.0
aI0
aI0
aF0.0
aI2
aI4
aI6
aI2
aI1
aI1
aI0
aI3
aI12
aI16
aa(lp169
V0020900693
p170
aVJAN 30, 2010
p171
aVMIL vs. MIA
p172
aVW
p173
aI28
aI9
aI14
aF0.643
aI0
aI0
aF0.0
aI4
aI4
aF1.0
aI4
aI2
aI6
aI0
aI0
aI0
aI2
aI1
aI22
aI13
aa(lp174
V0020900668
p175
aVJAN 27, 2010
p176
aVMIL vs. PHI
p177
aVW
p178
aI10
aI2
aI5
aF0.4
aI0
aI0
aF0.0
aI3
aI3
aF1.0
aI1
aI0
aI1
aI0
aI1
aI0
aI0
aI0
aI7
aI3
aa(lp179
V0020900642
p180
aVJAN 23, 2010
p181
aVMIL vs. MIN
p182
aVW
p183
aI17
aI7
aI8
aF0.875
aI0
aI0
aF0.0
aI4
aI5
aF0.8
aI1
aI2
aI3
aI1
aI0
aI0
aI1
aI4
aI18
aI8
aa(lp184
V0020900614
p185
aVJAN 20, 2010
p186
aVMIL vs. TOR
p187
aVW
p188
aI4
aI2
aI3
aF0.667
aI0
aI0
aF0.0
aI0
aI0
aF0.0
aI1
aI0
aI1
aI0
aI0
aI0
aI0
aI2
aI4
aI-3
aa(lp189
V0020900598
p190
aVJAN 18, 2010
p191
aVMIL @ HOU
p192
aVL
p193
aI18
aI3
aI7
aF0.429
aI0
aI0
aF0.0
aI2
aI2
aF1.0
aI2
aI3
aI5
aI2
aI0
aI0
aI2
aI0
aI8
aI-9
aa(lp194
V0020900590
p195
aVJAN 16, 2010
p196
aVMIL @ UTA
p197
aVL
p198
aI17
aI2
aI7
aF0.286
aI0
aI0
aF0.0
aI3
aI6
aF0.5
aI1
aI2
aI3
aI1
aI0
aI0
aI0
aI0
aI7
aI-20
aa(lp199
V0020900581
p200
aVJAN 15, 2010
p201
aVMIL @ GSW
p202
aVW
p203
aI22
aI5
aI9
aF0.556
aI0
aI1
aF0.0
aI5
aI7
aF0.714
aI1
aI2
aI3
aI0
aI1
aI0
aI1
aI0
aI15
aI0
aa(lp204
V0020900567
p205
aVJAN 13, 2010
p206
aVMIL @ POR
p207
aVL
p208
aI16
aI2
aI5
aF0.4
aI0
aI0
aF0.0
aI2
aI4
aF0.5
aI2
aI0
aI2
aI0
aI0
aI0
aI2
aI1
aI6
aI8
aa(lp209
V0020900550
p210
aVJAN 11, 2010
p211
aVMIL @ PHX
p212
aVL
p213
aI31
aI8
aI13
aF0.615
aI0
aI1
aF0.0
aI5
aI6
aF0.833
aI3
aI7
aI10
aI0
aI0
aI0
aI1
aI3
aI21
aI9
aa(lp214
V0020900543
p215
aVJAN 10, 2010
p216
aVMIL @ LAL
p217
aVL
p218
aI32
aI6
aI11
aF0.545
aI0
aI0
aF0.0
aI2
aI2
aF1.0
aI0
aI5
aI5
aI2
aI0
aI0
aI0
aI1
aI14
aI-16
aa(lp219
V0020900524
p220
aVJAN 08, 2010
p221
aVMIL vs. CHI
p222
aVW
p223
aI22
aI4
aI7
aF0.571
aI0
aI0
aF0.0
aI3
aI4
aF0.75
aI5
aI2
aI7
aI0
aI0
aI2
aI0
aI0
aI11
aI3
aa(lp224
V0020900501
p225
aVJAN 05, 2010
p226
aVMIL @ NJN
p227
aVW
p228
aI31
aI3
aI9
aF0.333
aI0
aI0
aF0.0
aI7
aI10
aF0.7
aI0
aI2
aI2
aI0
aI0
aI1
aI2
aI4
aI13
aI19
aa(lp229
V0020900484
p230
aVJAN 02, 2010
p231
aVMIL vs. OKC
p232
aVW
p233
aI36
aI5
aI15
aF0.333
aI0
aI0
aF0.0
aI4
aI4
aF1.0
aI3
aI5
aI8
aI0
aI1
aI0
aI1
aI3
aI14
aI6
aa(lp234
V0020900461
p235
aVDEC 30, 2009
p236
aVMIL @ ORL
p237
aVL
p238
aI17
aI3
aI6
aF0.5
aI0
aI0
aF0.0
aI0
aI0
aF0.0
aI1
aI1
aI2
aI0
aI0
aI0
aI1
aI2
aI6
aI-7
aa(lp239
V0020900445
p240
aVDEC 28, 2009
p241
aVMIL @ CHA
p242
aVL
p243
aI23
aI4
aI7
aF0.571
aI0
aI0
aF0.0
aI2
aI2
aF1.0
aI1
aI0
aI1
aI0
aI1
aI0
aI1
aI4
aI10
aI-4
aa(lp244
V0020900435
p245
aVDEC 26, 2009
p246
aVMIL vs. SAS
p247
aVL
p248
aI31
aI8
aI16
aF0.5
aI0
aI0
aF0.0
aI7
aI10
aF0.7
aI3
aI2
aI5
aI2
aI0
aI1
aI0
aI1
aI23
aI-5
aa(lp249
V0020900418
p250
aVDEC 23, 2009
p251
aVMIL vs. WAS
p252
aVL
p253
aI11
aI1
aI4
aF0.25
aI0
aI0
aF0.0
aI3
aI4
aF0.75
aI1
aI1
aI2
aI0
aI0
aI0
aI1
aI0
aI5
aI0
aa(lp254
V0020900400
p255
aVDEC 21, 2009
p256
aVMIL @ IND
p257
aVW
p258
aI10
aI0
aI3
aF0.0
aI0
aI0
aF0.0
aI0
aI0
aF0.0
aI2
aI1
aI3
aI0
aI0
aI0
aI1
aI0
aI0
aI-4
aa(lp259
V0020900390
p260
aVDEC 19, 2009
p261
aVMIL vs. SAC
p262
aVL
p263
aI15
aI3
aI5
aF0.6
aI0
aI0
aF0.0
aI0
aI0
aF0.0
aI1
aI2
aI3
aI0
aI0
aI0
aI1
aI2
aI6
aI-7
aa(lp264
V0020900376
p265
aVDEC 18, 2009
p266
aVMIL @ CLE
p267
aVL
p268
aI23
aI1
aI3
aF0.333
aI0
aI0
aF0.0
aI1
aI2
aF0.5
aI0
aI3
aI3
aI1
aI0
aI1
aI1
aI2
aI3
aI-6
aa(lp269
V0020900363
p270
aVDEC 16, 2009
p271
aVMIL vs. LAL
p272
aVL
p273
aI17
aI1
aI4
aF0.25
aI0
aI0
aF0.0
aI2
aI2
aF1.0
aI0
aI1
aI1
aI1
aI0
aI0
aI1
aI2
aI4
aI3
aa(lp274
V0020900335
p275
aVDEC 12, 2009
p276
aVMIL vs. POR
p277
aVW
p278
aI13
aI2
aI3
aF0.667
aI0
aI0
aF0.0
aI0
aI2
aF0.0
aI0
aI1
aI1
aI1
aI1
aI0
aI0
aI1
aI4
aI-10
aa(lp279
V0020900312
p280
aVDEC 09, 2009
p281
aVMIL vs. TOR
p282
aVW
p283
aI13
aI2
aI4
aF0.5
aI0
aI0
aF0.0
aI0
aI1
aF0.0
aI0
aI2
aI2
aI2
aI1
aI0
aI0
aI2
aI4
aI1
aa(lp284
V0020900302
p285
aVDEC 08, 2009
p286
aVMIL @ BOS
p287
aVL
p288
aI14
aI1
aI5
aF0.2
aI0
aI0
aF0.0
aI2
aI2
aF1.0
aI3
aI1
aI4
aI2
aI0
aI0
aI2
aI1
aI4
aI0
aa(lp289
V0020900292
p290
aVDEC 06, 2009
p291
aVMIL vs. CLE
p292
aVL
p293
aI21
aI4
aI9
aF0.444
aI0
aI0
aF0.0
aI3
aI5
aF0.6
aI3
aI6
aI9
aI0
aI0
aI0
aI0
aI4
aI11
aI-25
aa(lp294
V0020900275
p295
aVDEC 04, 2009
p296
aVMIL @ DET
p297
aVL
p298
aI32
aI4
aI6
aF0.667
aI0
aI0
aF0.0
aI5
aI7
aF0.714
aI0
aI1
aI1
aI0
aI0
aI1
aI3
aI3
aI13
aI-10
aa(lp299
V0020900262
p300
aVDEC 02, 2009
p301
aVMIL @ WAS
p302
aVL
p303
aI32
aI6
aI9
aF0.667
aI0
aI0
aF0.0
aI8
aI8
aF1.0
aI3
aI1
aI4
aI0
aI0
aI0
aI3
aI2
aI20
aI7
aa(lp304
V0020900249
p305
aVNOV 30, 2009
p306
aVMIL vs. CHI
p307
aVW
p308
aI21
aI3
aI9
aF0.333
aI0
aI1
aF0.0
aI0
aI0
aF0.0
aI5
aI2
aI7
aI1
aI0
aI0
aI1
aI2
aI6
aI-19
aa(lp309
V0020900236
p310
aVNOV 28, 2009
p311
aVMIL vs. ORL
p312
aVL
p313
aI22
aI6
aI12
aF0.5
aI0
aI0
aF0.0
aI4
aI4
aF1.0
aI0
aI5
aI5
aI2
aI0
aI0
aI0
aI2
aI16
aI-5
aa(lp314
V0020900228
p315
aVNOV 27, 2009
p316
aVMIL @ OKC
p317
aVL
p318
aI31
aI5
aI10
aF0.5
aI0
aI0
aF0.0
aI5
aI5
aF1.0
aI2
aI7
aI9
aI0
aI0
aI0
aI1
aI2
aI15
aI-10
aa(lp319
V0020900214
p320
aVNOV 25, 2009
p321
aVMIL @ NOH
p322
aVL
p323
aI33
aI9
aI15
aF0.6
aI0
aI0
aF0.0
aI4
aI7
aF0.571
aI4
aI6
aI10
aI0
aI1
aI0
aI3
aI3
aI22
aI-2
aa(lp324
V0020900199
p325
aVNOV 23, 2009
p326
aVMIL @ SAS
p327
aVL
p328
aI19
aI5
aI7
aF0.714
aI0
aI0
aF0.0
aI5
aI5
aF1.0
aI1
aI3
aI4
aI2
aI1
aI0
aI0
aI1
aI15
aI-8
aa(lp329
V0020900185
p330
aVNOV 21, 2009
p331
aVMIL @ MEM
p332
aVW
p333
aI19
aI3
aI6
aF0.5
aI0
aI0
aF0.0
aI2
aI2
aF1.0
aI0
aI3
aI3
aI1
aI1
aI0
aI1
aI4
aI8
aI-10
aa(lp334
V0020900180
p335
aVNOV 20, 2009
p336
aVMIL vs. CHA
p337
aVW
p338
aI31
aI5
aI13
aF0.385
aI0
aI0
aF0.0
aI6
aI7
aF0.857
aI3
aI6
aI9
aI2
aI0
aI1
aI4
aI3
aI16
aI10
aa(lp339
V0020900165
p340
aVNOV 18, 2009
p341
aVMIL vs. NJN
p342
aVW
p343
aI21
aI3
aI9
aF0.333
aI0
aI0
aF0.0
aI2
aI2
aF1.0
aI3
aI3
aI6
aI1
aI0
aI0
aI4
aI1
aI8
aI-8
aa(lp344
V0020900149
p345
aVNOV 16, 2009
p346
aVMIL vs. DAL
p347
aVL
p348
aI12
aI3
aI7
aF0.429
aI0
aI0
aF0.0
aI0
aI0
aF0.0
aI0
aI2
aI2
aI0
aI0
aI0
aI0
aI2
aI6
aI-12
aa(lp349
V0020900141
p350
aVNOV 14, 2009
p351
aVMIL vs. GSW
p352
aVW
p353
aI12
aI1
aI3
aF0.333
aI0
aI0
aF0.0
aI1
aI2
aF0.5
aI0
aI1
aI1
aI0
aI0
aI0
aI0
aI1
aI3
aI-8
aa(lp354
V0020900115
p355
aVNOV 11, 2009
p356
aVMIL vs. DEN
p357
aVW
p358
aI27
aI3
aI10
aF0.3
aI0
aI0
aF0.0
aI2
aI4
aF0.5
aI3
aI2
aI5
aI1
aI2
aI1
aI0
aI0
aI8
aI7
aa(lp359
V0020900089
p360
aVNOV 07, 2009
p361
aVMIL vs. NYK
p362
aVW
p363
aI22
aI4
aI6
aF0.667
aI0
aI0
aF0.0
aI1
aI2
aF0.5
aI2
aI5
aI7
aI1
aI1
aI0
aI4
aI2
aI9
aI-2
aa(lp364
V0020900078
p365
aVNOV 06, 2009
p366
aVMIL @ MIN
p367
aVW
p368
aI27
aI5
aI6
aF0.833
aI0
aI0
aF0.0
aI2
aI3
aF0.667
aI3
aI4
aI7
aI1
aI0
aI0
aI1
aI2
aI12
aI9
aa(lp369
V0020900056
p370
aVNOV 03, 2009
p371
aVMIL @ CHI
p372
aVL
p373
aI34
aI5
aI15
aF0.333
aI0
aI1
aF0.0
aI1
aI2
aF0.5
aI5
aI5
aI10
aI2
aI1
aI1
aI0
aI2
aI11
aI7
aa(lp374
V0020900036
p375
aVOCT 31, 2009
p376
aVMIL vs. DET
p377
aVW
p378
aI33
aI5
aI14
aF0.357
aI1
aI2
aF0.5
aI10
aI15
aF0.667
aI3
aI2
aI5
aI3
aI2
aI0
aI3
aI2
aI21
aI17
aa(lp379
V0020900020
p380
aVOCT 30, 2009
p381
aVMIL @ PHI
p382
aVL
p383
aI19
aI4
aI10
aF0.4
aI0
aI0
aF0.0
aI1
aI2
aF0.5
aI3
aI1
aI4
aI0
aI0
aI0
aI2
aI2
aI9
aI-6
aasS'name'
p384
VHakim Warrick
p385
sS'experience'
p386
I4
s.