(dp0
S'age'
p1
I23
sS'stats'
p2
(lp3
(lp4
V0020901217
p5
aVAPR 14, 2010
p6
aVATL vs. CLE
p7
aVW
p8
aI28
aI4
aI7
aF0.571
aI0
aI0
aF0.0
aI3
aI3
aF1.0
aI0
aI3
aI3
aI3
aI1
aI0
aI2
aI2
aI11
aI13
aa(lp9
V0020901207
p10
aVAPR 12, 2010
p11
aVATL @ MIL
p12
aVW
p13
aI36
aI6
aI10
aF0.6
aI0
aI0
aF0.0
aI6
aI7
aF0.857
aI0
aI2
aI2
aI2
aI1
aI2
aI3
aI3
aI18
aI6
aa(lp14
V0020901189
p15
aVAPR 10, 2010
p16
aVATL @ WAS
p17
aVW
p18
aI27
aI3
aI6
aF0.5
aI0
aI1
aF0.0
aI2
aI2
aF1.0
aI0
aI2
aI2
aI0
aI1
aI1
aI1
aI1
aI8
aI1
aa(lp19
V0020901176
p20
aVAPR 09, 2010
p21
aVATL vs. TOR
p22
aVW
p23
aI31
aI2
aI6
aF0.333
aI0
aI0
aF0.0
aI4
aI4
aF1.0
aI2
aI4
aI6
aI2
aI3
aI1
aI0
aI0
aI8
aI10
aa(lp24
V0020901160
p25
aVAPR 07, 2010
p26
aVATL @ DET
p27
aVL
p28
aI37
aI7
aI13
aF0.538
aI0
aI1
aF0.0
aI3
aI6
aF0.5
aI4
aI5
aI9
aI2
aI1
aI0
aI2
aI2
aI17
aI0
aa(lp29
V0020901149
p30
aVAPR 06, 2010
p31
aVATL @ CHA
p32
aVL
p33
aI23
aI1
aI4
aF0.25
aI0
aI0
aF0.0
aI4
aI4
aF1.0
aI0
aI3
aI3
aI4
aI0
aI0
aI0
aI4
aI6
aI7
aa(lp34
V0020901133
p35
aVAPR 03, 2010
p36
aVATL vs. DET
p37
aVW
p38
aI37
aI3
aI6
aF0.5
aI0
aI0
aF0.0
aI1
aI1
aF1.0
aI1
aI2
aI3
aI1
aI1
aI1
aI1
aI3
aI7
aI-5
aa(lp39
V0020901126
p40
aVAPR 02, 2010
p41
aVATL @ CLE
p42
aVL
p43
aI38
aI7
aI10
aF0.7
aI0
aI2
aF0.0
aI1
aI1
aF1.0
aI1
aI6
aI7
aI1
aI3
aI0
aI1
aI3
aI15
aI-17
aa(lp44
V0020901107
p45
aVMAR 31, 2010
p46
aVATL vs. LAL
p47
aVW
p48
aI31
aI1
aI4
aF0.25
aI0
aI1
aF0.0
aI0
aI0
aF0.0
aI0
aI5
aI5
aI1
aI1
aI0
aI0
aI3
aI2
aI12
aa(lp49
V0020901089
p50
aVMAR 28, 2010
p51
aVATL vs. IND
p52
aVW
p53
aI28
aI4
aI9
aF0.444
aI0
aI0
aF0.0
aI0
aI0
aF0.0
aI2
aI2
aI4
aI0
aI0
aI0
aI1
aI0
aI8
aI9
aa(lp54
V0020901074
p55
aVMAR 26, 2010
p56
aVATL @ PHI
p57
aVL
p58
aI29
aI3
aI6
aF0.5
aI0
aI1
aF0.0
aI0
aI2
aF0.0
aI2
aI2
aI4
aI1
aI2
aI0
aI3
aI1
aI6
aI-2
aa(lp59
V0020901057
p60
aVMAR 24, 2010
p61
aVATL vs. ORL
p62
aVW
p63
aI27
aI2
aI9
aF0.222
aI0
aI1
aF0.0
aI0
aI0
aF0.0
aI0
aI4
aI4
aI2
aI2
aI0
aI0
aI2
aI4
aI-16
aa(lp64
V0020901046
p65
aVMAR 22, 2010
p66
aVATL @ MIL
p67
aVL
p68
aI30
aI1
aI2
aF0.5
aI0
aI1
aF0.0
aI0
aI0
aF0.0
aI0
aI3
aI3
aI1
aI0
aI0
aI3
aI1
aI2
aI-7
aa(lp69
V0020901038
p70
aVMAR 21, 2010
p71
aVATL vs. SAS
p72
aVW
p73
aI44
aI10
aI14
aF0.714
aI1
aI3
aF0.333
aI5
aI5
aF1.0
aI3
aI6
aI9
aI0
aI2
aI0
aI1
aI3
aI26
aI2
aa(lp74
V0020901020
p75
aVMAR 19, 2010
p76
aVATL vs. CHA
p77
aVW
p78
aI40
aI5
aI10
aF0.5
aI0
aI2
aF0.0
aI2
aI2
aF1.0
aI6
aI8
aI14
aI2
aI0
aI0
aI0
aI2
aI12
aI-2
aa(lp79
V0020901008
p80
aVMAR 17, 2010
p81
aVATL @ TOR
p82
aVL
p83
aI32
aI1
aI10
aF0.1
aI0
aI0
aF0.0
aI0
aI0
aF0.0
aI1
aI3
aI4
aI0
aI0
aI1
aI0
aI4
aI2
aI-7
aa(lp84
V0020901000
p85
aVMAR 16, 2010
p86
aVATL @ NJN
p87
aVW
p88
aI32
aI6
aI10
aF0.6
aI2
aI4
aF0.5
aI1
aI2
aF0.5
aI0
aI5
aI5
aI3
aI1
aI0
aI2
aI2
aI15
aI22
aa(lp89
V0020900976
p90
aVMAR 13, 2010
p91
aVATL vs. DET
p92
aVW
p93
aI31
aI5
aI11
aF0.455
aI1
aI3
aF0.333
aI1
aI2
aF0.5
aI1
aI2
aI3
aI1
aI1
aI1
aI1
aI1
aI12
aI2
aa(lp94
V0020900742
p95
aVMAR 11, 2010
p96
aVATL @ WAS
p97
aVW
p98
aI33
aI3
aI4
aF0.75
aI1
aI1
aF1.0
aI1
aI4
aF0.25
aI1
aI2
aI3
aI1
aI1
aI0
aI1
aI3
aI8
aI10
aa(lp99
V0020900941
p100
aVMAR 08, 2010
p101
aVATL @ NYK
p102
aVL
p103
aI35
aI3
aI6
aF0.5
aI0
aI1
aF0.0
aI2
aI2
aF1.0
aI1
aI6
aI7
aI2
aI1
aI0
aI0
aI1
aI8
aI-6
aa(lp104
V0020900926
p105
aVMAR 06, 2010
p106
aVATL @ MIA
p107
aVL
p108
aI25
aI0
aI3
aF0.0
aI0
aI0
aF0.0
aI6
aI6
aF1.0
aI1
aI3
aI4
aI0
aI0
aI0
aI1
aI1
aI6
aI-12
aa(lp109
V0020900919
p110
aVMAR 05, 2010
p111
aVATL vs. GSW
p112
aVW
p113
aI36
aI4
aI10
aF0.4
aI0
aI1
aF0.0
aI4
aI4
aF1.0
aI9
aI5
aI14
aI1
aI2
aI0
aI2
aI2
aI12
aI6
aa(lp114
V0020900899
p115
aVMAR 03, 2010
p116
aVATL vs. PHI
p117
aVW
p118
aI31
aI8
aI12
aF0.667
aI0
aI3
aF0.0
aI5
aI6
aF0.833
aI2
aI6
aI8
aI1
aI1
aI1
aI1
aI2
aI21
aI17
aa(lp119
V0020900889
p120
aVMAR 01, 2010
p121
aVATL @ CHI
p122
aVW
p123
aI32
aI7
aI14
aF0.5
aI0
aI2
aF0.0
aI4
aI4
aF1.0
aI2
aI7
aI9
aI4
aI1
aI0
aI0
aI2
aI18
aI16
aa(lp124
V0020900880
p125
aVFEB 28, 2010
p126
aVATL vs. MIL
p127
aVW
p128
aI40
aI3
aI5
aF0.6
aI1
aI1
aF1.0
aI0
aI0
aF0.0
aI3
aI5
aI8
aI2
aI1
aI1
aI0
aI4
aI7
aI1
aa(lp129
V0020900861
p130
aVFEB 26, 2010
p131
aVATL vs. DAL
p132
aVL
p133
aI23
aI2
aI8
aF0.25
aI1
aI2
aF0.5
aI2
aI2
aF1.0
aI2
aI4
aI6
aI1
aI0
aI2
aI1
aI0
aI7
aI-1
aa(lp134
V0020900845
p135
aVFEB 24, 2010
p136
aVATL vs. MIN
p137
aVW
p138
aI21
aI0
aI4
aF0.0
aI0
aI0
aF0.0
aI4
aI5
aF0.8
aI0
aI1
aI1
aI0
aI0
aI0
aI2
aI2
aI4
aI2
aa(lp139
V0020900835
p140
aVFEB 22, 2010
p141
aVATL @ UTA
p142
aVW
p143
aI25
aI4
aI7
aF0.571
aI0
aI1
aF0.0
aI3
aI4
aF0.75
aI1
aI2
aI3
aI2
aI0
aI1
aI0
aI2
aI11
aI5
aa(lp144
V0020900829
p145
aVFEB 21, 2010
p146
aVATL @ GSW
p147
aVL
p148
aI30
aI4
aI7
aF0.571
aI0
aI0
aF0.0
aI1
aI2
aF0.5
aI1
aI1
aI2
aI0
aI1
aI1
aI0
aI3
aI9
aI1
aa(lp149
V0020900813
p150
aVFEB 19, 2010
p151
aVATL @ PHX
p152
aVL
p153
aI34
aI2
aI5
aF0.4
aI0
aI0
aF0.0
aI2
aI2
aF1.0
aI0
aI2
aI2
aI3
aI0
aI0
aI3
aI3
aI6
aI7
aa(lp154
V0020900801
p155
aVFEB 17, 2010
p156
aVATL @ LAC
p157
aVW
p158
aI34
aI4
aI8
aF0.5
aI0
aI0
aF0.0
aI1
aI2
aF0.5
aI0
aI2
aI2
aI0
aI2
aI0
aI0
aI2
aI9
aI16
aa(lp159
V0020900769
p160
aVFEB 10, 2010
p161
aVATL vs. MIA
p162
aVL
p163
aI35
aI3
aI11
aF0.273
aI0
aI2
aF0.0
aI5
aI6
aF0.833
aI0
aI4
aI4
aI1
aI0
aI0
aI0
aI1
aI11
aI-5
aa(lp164
V0020900764
p165
aVFEB 09, 2010
p166
aVATL @ MEM
p167
aVW
p168
aI32
aI6
aI10
aF0.6
aI0
aI2
aF0.0
aI3
aI3
aF1.0
aI1
aI6
aI7
aI0
aI1
aI1
aI1
aI2
aI15
aI20
aa(lp169
V0020900735
p170
aVFEB 05, 2010
p171
aVATL vs. CHI
p172
aVW
p173
aI27
aI5
aI8
aF0.625
aI1
aI2
aF0.5
aI0
aI1
aF0.0
aI1
aI7
aI8
aI0
aI1
aI1
aI0
aI3
aI11
aI1
aa(lp174
V0020900718
p175
aVFEB 03, 2010
p176
aVATL vs. LAC
p177
aVW
p178
aI26
aI4
aI7
aF0.571
aI0
aI0
aF0.0
aI2
aI2
aF1.0
aI1
aI9
aI10
aI1
aI0
aI0
aI0
aI2
aI10
aI-6
aa(lp179
V0020900716
p180
aVFEB 02, 2010
p181
aVATL @ OKC
p182
aVL
p183
aI28
aI2
aI7
aF0.286
aI0
aI0
aF0.0
aI0
aI0
aF0.0
aI0
aI6
aI6
aI0
aI0
aI0
aI0
aI2
aI4
aI-13
aa(lp184
V0020900689
p185
aVJAN 30, 2010
p186
aVATL @ ORL
p187
aVL
p188
aI27
aI3
aI9
aF0.333
aI1
aI3
aF0.333
aI0
aI0
aF0.0
aI0
aI2
aI2
aI0
aI1
aI0
aI0
aI2
aI7
aI-3
aa(lp189
V0020900679
p190
aVJAN 29, 2010
p191
aVATL vs. BOS
p192
aVW
p193
aI30
aI2
aI5
aF0.4
aI0
aI0
aF0.0
aI0
aI0
aF0.0
aI1
aI5
aI6
aI0
aI0
aI0
aI1
aI5
aI4
aI2
aa(lp194
V0020900671
p195
aVJAN 27, 2010
p196
aVATL @ SAS
p197
aVL
p198
aI23
aI3
aI7
aF0.429
aI0
aI2
aF0.0
aI4
aI6
aF0.667
aI1
aI3
aI4
aI1
aI0
aI1
aI0
aI2
aI10
aI8
aa(lp199
V0020900653
p200
aVJAN 25, 2010
p201
aVATL @ HOU
p202
aVW
p203
aI35
aI4
aI8
aF0.5
aI2
aI3
aF0.667
aI2
aI2
aF1.0
aI0
aI4
aI4
aI0
aI0
aI1
aI1
aI1
aI12
aI8
aa(lp204
V0020900627
p205
aVJAN 22, 2010
p206
aVATL vs. CHA
p207
aVW
p208
aI32
aI7
aI13
aF0.538
aI0
aI1
aF0.0
aI0
aI0
aF0.0
aI1
aI4
aI5
aI3
aI0
aI0
aI1
aI3
aI14
aI20
aa(lp209
V0020900608
p210
aVJAN 20, 2010
p211
aVATL vs. SAC
p212
aVW
p213
aI31
aI4
aI9
aF0.444
aI0
aI1
aF0.0
aI5
aI5
aF1.0
aI2
aI2
aI4
aI1
aI1
aI0
aI1
aI0
aI13
aI18
aa(lp214
V0020900596
p215
aVJAN 18, 2010
p216
aVATL vs. OKC
p217
aVL
p218
aI21
aI3
aI7
aF0.429
aI0
aI1
aF0.0
aI1
aI2
aF0.5
aI1
aI1
aI2
aI0
aI0
aI0
aI0
aI2
aI7
aI-3
aa(lp219
V0020900573
p220
aVJAN 15, 2010
p221
aVATL vs. PHX
p222
aVW
p223
aI30
aI3
aI10
aF0.3
aI0
aI2
aF0.0
aI2
aI2
aF1.0
aI3
aI6
aI9
aI0
aI0
aI1
aI0
aI3
aI8
aI2
aa(lp224
V0020900558
p225
aVJAN 13, 2010
p226
aVATL vs. WAS
p227
aVW
p228
aI37
aI6
aI13
aF0.462
aI0
aI2
aF0.0
aI4
aI6
aF0.667
aI3
aI5
aI8
aI2
aI2
aI4
aI0
aI2
aI16
aI12
aa(lp229
V0020900546
p230
aVJAN 11, 2010
p231
aVATL @ BOS
p232
aVW
p233
aI40
aI3
aI9
aF0.333
aI0
aI1
aF0.0
aI8
aI11
aF0.727
aI3
aI5
aI8
aI1
aI2
aI1
aI0
aI2
aI14
aI8
aa(lp234
V0020900531
p235
aVJAN 09, 2010
p236
aVATL @ ORL
p237
aVL
p238
aI30
aI5
aI8
aF0.625
aI1
aI3
aF0.333
aI0
aI0
aF0.0
aI0
aI2
aI2
aI1
aI1
aI1
aI2
aI2
aI11
aI-23
aa(lp239
V0020900520
p240
aVJAN 08, 2010
p241
aVATL vs. BOS
p242
aVW
p243
aI35
aI4
aI8
aF0.5
aI1
aI3
aF0.333
aI2
aI2
aF1.0
aI0
aI6
aI6
aI1
aI3
aI0
aI3
aI4
aI11
aI7
aa(lp244
V0020900507
p245
aVJAN 06, 2010
p246
aVATL vs. NJN
p247
aVW
p248
aI29
aI4
aI7
aF0.571
aI2
aI2
aF1.0
aI2
aI2
aF1.0
aI0
aI2
aI2
aI2
aI1
aI1
aI0
aI1
aI12
aI18
aa(lp249
V0020900494
p250
aVJAN 04, 2010
p251
aVATL @ MIA
p252
aVL
p253
aI32
aI3
aI6
aF0.5
aI1
aI2
aF0.5
aI2
aI2
aF1.0
aI0
aI3
aI3
aI0
aI0
aI1
aI0
aI1
aI9
aI-15
aa(lp254
V0020900474
p255
aVJAN 01, 2010
p256
aVATL vs. NYK
p257
aVL
p258
aI30
aI5
aI9
aF0.556
aI1
aI2
aF0.5
aI0
aI0
aF0.0
aI0
aI2
aI2
aI1
aI0
aI0
aI0
aI2
aI11
aI-5
aa(lp259
V0020900459
p260
aVDEC 30, 2009
p261
aVATL @ CLE
p262
aVL
p263
aI31
aI4
aI5
aF0.8
aI0
aI1
aF0.0
aI0
aI0
aF0.0
aI1
aI6
aI7
aI1
aI1
aI1
aI1
aI2
aI8
aI-3
aa(lp264
V0020900452
p265
aVDEC 29, 2009
p266
aVATL vs. CLE
p267
aVL
p268
aI31
aI3
aI6
aF0.5
aI0
aI1
aF0.0
aI6
aI6
aF1.0
aI0
aI1
aI1
aI1
aI0
aI1
aI1
aI1
aI12
aI3
aa(lp269
V0020900430
p270
aVDEC 26, 2009
p271
aVATL @ IND
p272
aVW
p273
aI19
aI1
aI4
aF0.25
aI1
aI2
aF0.5
aI3
aI4
aF0.75
aI0
aI3
aI3
aI1
aI0
aI0
aI0
aI1
aI6
aI23
aa(lp274
V0020900421
p275
aVDEC 23, 2009
p276
aVATL @ DEN
p277
aVL
p278
aI28
aI5
aI11
aF0.455
aI1
aI3
aF0.333
aI2
aI3
aF0.667
aI1
aI3
aI4
aI2
aI0
aI0
aI1
aI3
aI13
aI-16
aa(lp279
V0020900410
p280
aVDEC 22, 2009
p281
aVATL @ MIN
p282
aVW
p283
aI31
aI4
aI10
aF0.4
aI0
aI2
aF0.0
aI2
aI2
aF1.0
aI0
aI6
aI6
aI1
aI1
aI1
aI1
aI2
aI10
aI19
aa(lp284
V0020900387
p285
aVDEC 19, 2009
p286
aVATL @ CHI
p287
aVL
p288
aI31
aI1
aI7
aF0.143
aI0
aI1
aF0.0
aI2
aI2
aF1.0
aI2
aI5
aI7
aI1
aI2
aI2
aI0
aI0
aI4
aI-17
aa(lp289
V0020900374
p290
aVDEC 18, 2009
p291
aVATL vs. UTA
p292
aVW
p293
aI30
aI6
aI10
aF0.6
aI1
aI2
aF0.5
aI2
aI2
aF1.0
aI1
aI3
aI4
aI1
aI1
aI0
aI1
aI2
aI15
aI21
aa(lp294
V0020900358
p295
aVDEC 16, 2009
p296
aVATL vs. MEM
p297
aVW
p298
aI17
aI2
aI5
aF0.4
aI0
aI1
aF0.0
aI0
aI0
aF0.0
aI3
aI2
aI5
aI3
aI1
aI1
aI2
aI2
aI4
aI0
aa(lp299
V0020900322
p300
aVDEC 11, 2009
p301
aVATL @ TOR
p302
aVW
p303
aI32
aI2
aI8
aF0.25
aI1
aI3
aF0.333
aI4
aI5
aF0.8
aI0
aI1
aI1
aI1
aI0
aI1
aI2
aI0
aI9
aI10
aa(lp304
V0020900308
p305
aVDEC 09, 2009
p306
aVATL vs. CHI
p307
aVW
p308
aI24
aI4
aI10
aF0.4
aI1
aI4
aF0.25
aI3
aI4
aF0.75
aI1
aI7
aI8
aI3
aI1
aI0
aI1
aI2
aI12
aI25
aa(lp309
V0020900286
p310
aVDEC 05, 2009
p311
aVATL @ DAL
p312
aVW
p313
aI36
aI1
aI7
aF0.143
aI1
aI1
aF1.0
aI0
aI0
aF0.0
aI1
aI14
aI15
aI1
aI3
aI1
aI0
aI1
aI3
aI5
aa(lp314
V0020900273
p315
aVDEC 04, 2009
p316
aVATL vs. NYK
p317
aVL
p318
aI39
aI7
aI17
aF0.412
aI2
aI6
aF0.333
aI4
aI5
aF0.8
aI4
aI2
aI6
aI2
aI1
aI0
aI1
aI2
aI20
aI-11
aa(lp319
V0020900259
p320
aVDEC 02, 2009
p321
aVATL vs. TOR
p322
aVW
p323
aI28
aI5
aI9
aF0.556
aI3
aI5
aF0.6
aI2
aI4
aF0.5
aI1
aI6
aI7
aI3
aI0
aI0
aI0
aI1
aI15
aI23
aa(lp324
V0020900239
p325
aVNOV 29, 2009
p326
aVATL @ DET
p327
aVL
p328
aI27
aI3
aI8
aF0.375
aI2
aI3
aF0.667
aI1
aI2
aF0.5
aI0
aI2
aI2
aI0
aI1
aI1
aI3
aI2
aI9
aI-18
aa(lp329
V0020900224
p330
aVNOV 27, 2009
p331
aVATL @ PHI
p332
aVW
p333
aI31
aI1
aI4
aF0.25
aI0
aI1
aF0.0
aI2
aI2
aF1.0
aI0
aI9
aI9
aI0
aI2
aI0
aI1
aI2
aI4
aI4
aa(lp334
V0020900220
p335
aVNOV 26, 2009
p336
aVATL vs. ORL
p337
aVL
p338
aI28
aI3
aI7
aF0.429
aI1
aI2
aF0.5
aI0
aI0
aF0.0
aI0
aI1
aI1
aI3
aI0
aI0
aI1
aI3
aI7
aI-16
aa(lp339
V0020900186
p340
aVNOV 21, 2009
p341
aVATL @ NOH
p342
aVL
p343
aI35
aI8
aI16
aF0.5
aI1
aI5
aF0.2
aI0
aI0
aF0.0
aI5
aI1
aI6
aI0
aI1
aI2
aI2
aI2
aI17
aI0
aa(lp344
V0020900176
p345
aVNOV 20, 2009
p346
aVATL vs. HOU
p347
aVW
p348
aI40
aI13
aI19
aF0.684
aI3
aI5
aF0.6
aI0
aI0
aF0.0
aI5
aI4
aI9
aI0
aI0
aI0
aI1
aI3
aI29
aI7
aa(lp349
V0020900158
p350
aVNOV 18, 2009
p351
aVATL vs. MIA
p352
aVW
p353
aI33
aI5
aI12
aF0.417
aI1
aI1
aF1.0
aI3
aI4
aF0.75
aI3
aI1
aI4
aI0
aI0
aI1
aI1
aI1
aI14
aI-8
aa(lp354
V0020900147
p355
aVNOV 16, 2009
p356
aVATL vs. POR
p357
aVW
p358
aI34
aI2
aI6
aF0.333
aI0
aI0
aF0.0
aI0
aI0
aF0.0
aI1
aI1
aI2
aI3
aI1
aI1
aI2
aI3
aI4
aI10
aa(lp359
V0020900133
p360
aVNOV 14, 2009
p361
aVATL vs. NOH
p362
aVW
p363
aI26
aI2
aI10
aF0.2
aI0
aI1
aF0.0
aI3
aI4
aF0.75
aI3
aI3
aI6
aI3
aI1
aI0
aI0
aI0
aI7
aI26
aa(lp364
V0020900127
p365
aVNOV 13, 2009
p366
aVATL @ BOS
p367
aVW
p368
aI23
aI3
aI7
aF0.429
aI0
aI1
aF0.0
aI0
aI0
aF0.0
aI1
aI2
aI3
aI2
aI0
aI0
aI0
aI1
aI6
aI5
aa(lp369
V0020900114
p370
aVNOV 11, 2009
p371
aVATL @ NYK
p372
aVW
p373
aI22
aI2
aI7
aF0.286
aI0
aI2
aF0.0
aI0
aI0
aF0.0
aI0
aI4
aI4
aI0
aI0
aI0
aI1
aI5
aI4
aI-6
aa(lp374
V0020900085
p375
aVNOV 07, 2009
p376
aVATL vs. DEN
p377
aVW
p378
aI23
aI4
aI6
aF0.667
aI0
aI2
aF0.0
aI6
aI6
aF1.0
aI2
aI0
aI2
aI1
aI1
aI0
aI1
aI5
aI14
aI13
aa(lp379
V0020900072
p380
aVNOV 06, 2009
p381
aVATL @ CHA
p382
aVL
p383
aI30
aI3
aI8
aF0.375
aI0
aI1
aF0.0
aI3
aI4
aF0.75
aI1
aI4
aI5
aI0
aI1
aI3
aI0
aI0
aI9
aI-14
aa(lp384
V0020900068
p385
aVNOV 04, 2009
p386
aVATL @ SAC
p387
aVW
p388
aI31
aI6
aI9
aF0.667
aI1
aI1
aF1.0
aI0
aI0
aF0.0
aI1
aI5
aI6
aI0
aI0
aI1
aI1
aI1
aI13
aI7
aa(lp389
V0020900059
p390
aVNOV 03, 2009
p391
aVATL @ POR
p392
aVW
p393
aI30
aI1
aI4
aF0.25
aI1
aI2
aF0.5
aI4
aI4
aF1.0
aI3
aI4
aI7
aI1
aI0
aI1
aI1
aI0
aI7
aI-6
aa(lp394
V0020900045
p395
aVNOV 01, 2009
p396
aVATL @ LAL
p397
aVL
p398
aI24
aI1
aI6
aF0.167
aI0
aI2
aF0.0
aI4
aI4
aF1.0
aI0
aI2
aI2
aI1
aI0
aI0
aI1
aI1
aI6
aI-6
aa(lp399
V0020900021
p400
aVOCT 30, 2009
p401
aVATL vs. WAS
p402
aVW
p403
aI32
aI2
aI7
aF0.286
aI1
aI4
aF0.25
aI5
aI6
aF0.833
aI2
aI7
aI9
aI0
aI2
aI0
aI1
aI2
aI10
aI8
aa(lp404
V0020900005
p405
aVOCT 28, 2009
p406
aVATL vs. IND
p407
aVW
p408
aI31
aI4
aI8
aF0.5
aI1
aI1
aF1.0
aI5
aI6
aF0.833
aI0
aI4
aI4
aI0
aI2
aI2
aI2
aI4
aI14
aI12
aasS'name'
p409
VMarvin Williams
p410
sS'experience'
p411
I4
s.