(dp0
S'age'
p1
I33
sS'stats'
p2
(lp3
(lp4
V0020900013
p5
aVOCT 28, 2009
p6
aVSAS vs. NOH
p7
aVW
p8
aI22
aI4
aI8
aF0.5
aI0
aI0
aF0.0
aI1
aI2
aF0.5
aI3
aI9
aI12
aI3
aI1
aI0
aI0
aI1
aI9
aI6
aa(lp9
V0020900017
p10
aVOCT 29, 2009
p11
aVSAS @ CHI
p12
aVL
p13
aI34
aI13
aI19
aF0.684
aI0
aI0
aF0.0
aI2
aI4
aF0.5
aI2
aI14
aI16
aI2
aI2
aI3
aI2
aI3
aI28
aI0
aa(lp14
V0020900037
p15
aVOCT 31, 2009
p16
aVSAS vs. SAC
p17
aVW
p18
aI22
aI3
aI5
aF0.6
aI0
aI0
aF0.0
aI1
aI2
aF0.5
aI2
aI8
aI10
aI1
aI1
aI1
aI2
aI2
aI7
aI17
aa(lp19
V0020900071
p20
aVNOV 05, 2009
p21
aVSAS @ UTA
p22
aVL
p23
aI30
aI5
aI10
aF0.5
aI0
aI0
aF0.0
aI5
aI8
aF0.625
aI4
aI9
aI13
aI2
aI0
aI3
aI2
aI2
aI15
aI-16
aa(lp24
V0020900084
p25
aVNOV 06, 2009
p26
aVSAS @ POR
p27
aVL
p28
aI35
aI5
aI14
aF0.357
aI0
aI1
aF0.0
aI4
aI7
aF0.571
aI3
aI5
aI8
aI3
aI0
aI1
aI2
aI2
aI14
aI-5
aa(lp29
V0020900142
p30
aVNOV 14, 2009
p31
aVSAS vs. OKC
p32
aVL
p33
aI37
aI9
aI14
aF0.643
aI0
aI0
aF0.0
aI4
aI4
aF1.0
aI3
aI7
aI10
aI3
aI0
aI2
aI2
aI3
aI22
aI3
aa(lp34
V0020900168
p35
aVNOV 18, 2009
p36
aVSAS @ DAL
p37
aVL
p38
aI41
aI8
aI22
aF0.364
aI0
aI0
aF0.0
aI6
aI8
aF0.75
aI3
aI11
aI14
aI6
aI0
aI4
aI2
aI3
aI22
aI1
aa(lp39
V0020900171
p40
aVNOV 19, 2009
p41
aVSAS vs. UTA
p42
aVL
p43
aI39
aI7
aI14
aF0.5
aI0
aI1
aF0.0
aI7
aI8
aF0.875
aI3
aI6
aI9
aI5
aI1
aI1
aI3
aI1
aI21
aI6
aa(lp44
V0020900188
p45
aVNOV 21, 2009
p46
aVSAS vs. WAS
p47
aVW
p48
aI27
aI6
aI10
aF0.6
aI0
aI0
aF0.0
aI4
aI4
aF1.0
aI3
aI6
aI9
aI7
aI0
aI1
aI2
aI2
aI16
aI19
aa(lp49
V0020900199
p50
aVNOV 23, 2009
p51
aVSAS vs. MIL
p52
aVW
p53
aI32
aI9
aI17
aF0.529
aI0
aI0
aF0.0
aI6
aI7
aF0.857
aI4
aI8
aI12
aI2
aI0
aI0
aI0
aI1
aI24
aI12
aa(lp54
V0020900216
p55
aVNOV 25, 2009
p56
aVSAS vs. GSW
p57
aVW
p58
aI27
aI10
aI12
aF0.833
aI0
aI1
aF0.0
aI0
aI1
aF0.0
aI2
aI8
aI10
aI6
aI0
aI3
aI1
aI1
aI20
aI7
aa(lp59
V0020900229
p60
aVNOV 27, 2009
p61
aVSAS @ HOU
p62
aVW
p63
aI36
aI8
aI17
aF0.471
aI0
aI0
aF0.0
aI5
aI6
aF0.833
aI2
aI10
aI12
aI3
aI0
aI4
aI2
aI1
aI21
aI5
aa(lp64
V0020900245
p65
aVNOV 29, 2009
p66
aVSAS vs. PHI
p67
aVW
p68
aI31
aI8
aI14
aF0.571
aI0
aI0
aF0.0
aI6
aI6
aF1.0
aI4
aI2
aI6
aI5
aI0
aI3
aI2
aI2
aI22
aI1
aa(lp69
V0020900269
p70
aVDEC 03, 2009
p71
aVSAS vs. BOS
p72
aVL
p73
aI32
aI8
aI17
aF0.471
aI0
aI0
aF0.0
aI0
aI2
aF0.0
aI7
aI8
aI15
aI2
aI1
aI2
aI6
aI1
aI16
aI-10
aa(lp74
V0020900285
p75
aVDEC 05, 2009
p76
aVSAS vs. DEN
p77
aVL
p78
aI36
aI10
aI12
aF0.833
aI0
aI0
aF0.0
aI6
aI7
aF0.857
aI2
aI4
aI6
aI2
aI1
aI4
aI2
aI1
aI26
aI-1
aa(lp79
V0020900299
p80
aVDEC 07, 2009
p81
aVSAS @ UTA
p82
aVL
p83
aI35
aI8
aI15
aF0.533
aI0
aI0
aF0.0
aI7
aI7
aF1.0
aI3
aI8
aI11
aI2
aI1
aI1
aI2
aI4
aI23
aI-16
aa(lp84
V0020900315
p85
aVDEC 09, 2009
p86
aVSAS vs. SAC
p87
aVW
p88
aI34
aI7
aI15
aF0.467
aI0
aI0
aF0.0
aI3
aI6
aF0.5
aI3
aI5
aI8
aI4
aI1
aI2
aI0
aI3
aI17
aI21
aa(lp89
V0020900328
p90
aVDEC 11, 2009
p91
aVSAS vs. CHA
p92
aVW
p93
aI31
aI8
aI14
aF0.571
aI0
aI1
aF0.0
aI1
aI2
aF0.5
aI2
aI7
aI9
aI6
aI1
aI1
aI3
aI4
aI17
aI28
aa(lp94
V0020900343
p95
aVDEC 13, 2009
p96
aVSAS @ LAC
p97
aVW
p98
aI26
aI9
aI14
aF0.643
aI0
aI0
aF0.0
aI3
aI3
aF1.0
aI1
aI2
aI3
aI0
aI0
aI1
aI3
aI2
aI21
aI5
aa(lp99
V0020900356
p100
aVDEC 15, 2009
p101
aVSAS @ PHX
p102
aVL
p103
aI35
aI14
aI22
aF0.636
aI0
aI0
aF0.0
aI6
aI7
aF0.857
aI4
aI10
aI14
aI1
aI0
aI3
aI1
aI1
aI34
aI-6
aa(lp104
V0020900369
p105
aVDEC 16, 2009
p106
aVSAS @ GSW
p107
aVW
p108
aI32
aI11
aI22
aF0.5
aI0
aI0
aF0.0
aI5
aI6
aF0.833
aI4
aI11
aI15
aI4
aI1
aI4
aI2
aI0
aI27
aI12
aa(lp109
V0020900391
p110
aVDEC 19, 2009
p111
aVSAS vs. IND
p112
aVW
p113
aI31
aI8
aI18
aF0.444
aI0
aI0
aF0.0
aI3
aI5
aF0.6
aI8
aI8
aI16
aI3
aI2
aI3
aI2
aI4
aI19
aI-4
aa(lp114
V0020900403
p115
aVDEC 21, 2009
p116
aVSAS vs. LAC
p117
aVW
p118
aI25
aI5
aI8
aF0.625
aI0
aI0
aF0.0
aI3
aI4
aF0.75
aI0
aI3
aI3
aI3
aI1
aI2
aI0
aI0
aI13
aI11
aa(lp119
V0020900420
p120
aVDEC 23, 2009
p121
aVSAS vs. POR
p122
aVL
p123
aI41
aI7
aI15
aF0.467
aI0
aI0
aF0.0
aI10
aI11
aF0.909
aI4
aI7
aI11
aI3
aI0
aI1
aI3
aI1
aI24
aI3
aa(lp124
V0020900435
p125
aVDEC 26, 2009
p126
aVSAS @ MIL
p127
aVW
p128
aI32
aI11
aI16
aF0.688
aI0
aI0
aF0.0
aI4
aI4
aF1.0
aI1
aI8
aI9
aI4
aI1
aI1
aI2
aI2
aI26
aI30
aa(lp129
V0020900442
p130
aVDEC 27, 2009
p131
aVSAS @ NYK
p132
aVW
p133
aI30
aI6
aI11
aF0.545
aI0
aI0
aF0.0
aI1
aI2
aF0.5
aI2
aI5
aI7
aI1
aI0
aI1
aI4
aI3
aI13
aI-1
aa(lp134
V0020900457
p135
aVDEC 29, 2009
p136
aVSAS vs. MIN
p137
aVW
p138
aI26
aI5
aI11
aF0.455
aI0
aI0
aF0.0
aI7
aI8
aF0.875
aI2
aI8
aI10
aI1
aI0
aI2
aI2
aI2
aI17
aI15
aa(lp139
V0020900471
p140
aVDEC 31, 2009
p141
aVSAS vs. MIA
p142
aVW
p143
aI28
aI10
aI13
aF0.769
aI0
aI0
aF0.0
aI3
aI3
aF1.0
aI3
aI7
aI10
aI3
aI2
aI0
aI2
aI0
aI23
aI19
aa(lp144
V0020900480
p145
aVJAN 02, 2010
p146
aVSAS @ WAS
p147
aVW
p148
aI36
aI10
aI16
aF0.625
aI0
aI1
aF0.0
aI3
aI6
aF0.5
aI0
aI7
aI7
aI3
aI0
aI1
aI1
aI1
aI23
aI12
aa(lp149
V0020900491
p150
aVJAN 03, 2010
p151
aVSAS @ TOR
p152
aVL
p153
aI29
aI8
aI22
aF0.364
aI0
aI0
aF0.0
aI5
aI9
aF0.556
aI4
aI8
aI12
aI1
aI0
aI0
aI1
aI2
aI21
aI1
aa(lp154
V0020900513
p155
aVJAN 06, 2010
p156
aVSAS vs. DET
p157
aVW
p158
aI30
aI6
aI10
aF0.6
aI0
aI0
aF0.0
aI2
aI2
aF1.0
aI1
aI5
aI6
aI3
aI0
aI1
aI3
aI4
aI14
aI8
aa(lp159
V0020900525
p160
aVJAN 08, 2010
p161
aVSAS vs. DAL
p162
aVL
p163
aI39
aI12
aI19
aF0.632
aI0
aI0
aF0.0
aI7
aI9
aF0.778
aI3
aI9
aI12
aI5
aI0
aI2
aI3
aI1
aI31
aI5
aa(lp164
V0020900541
p165
aVJAN 10, 2010
p166
aVSAS vs. NJN
p167
aVW
p168
aI27
aI7
aI13
aF0.538
aI0
aI0
aF0.0
aI0
aI0
aF0.0
aI5
aI12
aI17
aI3
aI1
aI2
aI2
aI0
aI14
aI11
aa(lp169
V0020900556
p170
aVJAN 12, 2010
p171
aVSAS vs. LAL
p172
aVW
p173
aI40
aI12
aI19
aF0.632
aI0
aI0
aF0.0
aI1
aI4
aF0.25
aI2
aI11
aI13
aI4
aI2
aI4
aI2
aI2
aI25
aI14
aa(lp174
V0020900571
p175
aVJAN 15, 2010
p176
aVSAS @ CHA
p177
aVL
p178
aI33
aI4
aI12
aF0.333
aI0
aI0
aF0.0
aI2
aI3
aF0.667
aI2
aI7
aI9
aI5
aI0
aI0
aI1
aI1
aI10
aI-5
aa(lp179
V0020900588
p180
aVJAN 16, 2010
p181
aVSAS @ MEM
p182
aVL
p183
aI33
aI11
aI17
aF0.647
aI0
aI0
aF0.0
aI1
aI2
aF0.5
aI2
aI6
aI8
aI2
aI0
aI5
aI3
aI3
aI23
aI-5
aa(lp184
V0020900601
p185
aVJAN 18, 2010
p186
aVSAS @ NOH
p187
aVW
p188
aI37
aI7
aI15
aF0.467
aI0
aI0
aF0.0
aI7
aI12
aF0.583
aI4
aI10
aI14
aI3
aI0
aI2
aI1
aI2
aI21
aI10
aa(lp189
V0020900618
p190
aVJAN 20, 2010
p191
aVSAS vs. UTA
p192
aVL
p193
aI36
aI5
aI15
aF0.333
aI0
aI0
aF0.0
aI4
aI6
aF0.667
aI9
aI1
aI10
aI4
aI1
aI0
aI3
aI6
aI14
aI-14
aa(lp194
V0020900633
p195
aVJAN 22, 2010
p196
aVSAS vs. HOU
p197
aVL
p198
aI34
aI5
aI13
aF0.385
aI0
aI0
aF0.0
aI15
aI21
aF0.714
aI5
aI9
aI14
aI2
aI0
aI1
aI0
aI4
aI25
aI-3
aa(lp199
V0020900654
p200
aVJAN 25, 2010
p201
aVSAS vs. CHI
p202
aVL
p203
aI34
aI6
aI14
aF0.429
aI0
aI0
aF0.0
aI3
aI4
aF0.75
aI3
aI2
aI5
aI2
aI0
aI3
aI1
aI4
aI15
aI3
aa(lp204
V0020900671
p205
aVJAN 27, 2010
p206
aVSAS vs. ATL
p207
aVW
p208
aI35
aI5
aI20
aF0.25
aI0
aI0
aF0.0
aI11
aI11
aF1.0
aI10
aI17
aI27
aI6
aI0
aI1
aI0
aI3
aI21
aI10
aa(lp209
V0020900686
p210
aVJAN 29, 2010
p211
aVSAS vs. MEM
p212
aVW
p213
aI34
aI8
aI19
aF0.421
aI0
aI0
aF0.0
aI3
aI3
aF1.0
aI3
aI6
aI9
aI7
aI0
aI1
aI2
aI2
aI19
aI10
aa(lp214
V0020900695
p215
aVJAN 31, 2010
p216
aVSAS vs. DEN
p217
aVL
p218
aI36
aI5
aI10
aF0.5
aI0
aI0
aF0.0
aI6
aI6
aF1.0
aI4
aI6
aI10
aI1
aI0
aI1
aI0
aI2
aI16
aI-11
aa(lp219
V0020900726
p220
aVFEB 03, 2010
p221
aVSAS @ SAC
p222
aVW
p223
aI29
aI8
aI14
aF0.571
aI0
aI0
aF0.0
aI6
aI7
aF0.857
aI5
aI8
aI13
aI2
aI1
aI0
aI0
aI4
aI22
aI8
aa(lp224
V0020900730
p225
aVFEB 04, 2010
p226
aVSAS @ POR
p227
aVL
p228
aI32
aI6
aI12
aF0.5
aI0
aI0
aF0.0
aI3
aI4
aF0.75
aI3
aI9
aI12
aI4
aI2
aI2
aI1
aI3
aI15
aI-9
aa(lp229
V0020900752
p230
aVFEB 06, 2010
p231
aVSAS @ LAC
p232
aVW
p233
aI19
aI5
aI9
aF0.556
aI0
aI0
aF0.0
aI1
aI2
aF0.5
aI1
aI5
aI6
aI2
aI2
aI0
aI2
aI1
aI11
aI27
aa(lp234
V0020900757
p235
aVFEB 08, 2010
p236
aVSAS @ LAL
p237
aVL
p238
aI33
aI8
aI17
aF0.471
aI0
aI0
aF0.0
aI0
aI0
aF0.0
aI2
aI13
aI15
aI1
aI1
aI4
aI2
aI2
aI16
aI-14
aa(lp239
V0020900780
p240
aVFEB 11, 2010
p241
aVSAS @ DEN
p242
aVW
p243
aI27
aI7
aI11
aF0.636
aI0
aI0
aF0.0
aI2
aI5
aF0.4
aI2
aI5
aI7
aI0
aI0
aI1
aI2
aI2
aI16
aI9
aa(lp244
V0020900791
p245
aVFEB 17, 2010
p246
aVSAS @ IND
p247
aVW
p248
aI34
aI4
aI23
aF0.174
aI0
aI0
aF0.0
aI0
aI0
aF0.0
aI11
aI15
aI26
aI5
aI2
aI2
aI2
aI1
aI8
aI19
aa(lp249
V0020900805
p250
aVFEB 19, 2010
p251
aVSAS @ PHI
p252
aVL
p253
aI33
aI4
aI10
aF0.4
aI0
aI0
aF0.0
aI2
aI4
aF0.5
aI2
aI7
aI9
aI2
aI1
aI0
aI1
aI1
aI10
aI-16
aa(lp254
V0020900825
p255
aVFEB 21, 2010
p256
aVSAS @ DET
p257
aVL
p258
aI39
aI11
aI21
aF0.524
aI1
aI2
aF0.5
aI6
aI8
aF0.75
aI3
aI7
aI10
aI3
aI0
aI1
aI2
aI5
aI29
aI-8
aa(lp259
V0020900851
p260
aVFEB 24, 2010
p261
aVSAS vs. OKC
p262
aVW
p263
aI32
aI6
aI11
aF0.545
aI0
aI0
aF0.0
aI7
aI8
aF0.875
aI2
aI13
aI15
aI6
aI1
aI1
aI2
aI0
aI19
aI14
aa(lp264
V0020900866
p265
aVFEB 26, 2010
p266
aVSAS @ HOU
p267
aVL
p268
aI24
aI8
aI17
aF0.471
aI0
aI0
aF0.0
aI1
aI3
aF0.333
aI2
aI6
aI8
aI2
aI0
aI1
aI1
aI3
aI17
aI-25
aa(lp269
V0020900878
p270
aVFEB 28, 2010
p271
aVSAS vs. PHX
p272
aVW
p273
aI32
aI10
aI15
aF0.667
aI0
aI0
aF0.0
aI1
aI2
aF0.5
aI4
aI6
aI10
aI3
aI2
aI2
aI2
aI2
aI21
aI4
aa(lp274
V0020900891
p275
aVMAR 01, 2010
p276
aVSAS @ NOH
p277
aVW
p278
aI35
aI9
aI16
aF0.563
aI0
aI0
aF0.0
aI4
aI6
aF0.667
aI2
aI7
aI9
aI1
aI0
aI2
aI0
aI3
aI22
aI0
aa(lp279
V0020900923
p280
aVMAR 05, 2010
p281
aVSAS vs. NOH
p282
aVW
p283
aI32
aI5
aI12
aF0.417
aI0
aI1
aF0.0
aI2
aI4
aF0.5
aI1
aI7
aI8
aI4
aI0
aI1
aI2
aI1
aI12
aI10
aa(lp284
V0020900929
p285
aVMAR 06, 2010
p286
aVSAS @ MEM
p287
aVW
p288
aI32
aI6
aI14
aF0.429
aI0
aI0
aF0.0
aI5
aI6
aF0.833
aI2
aI2
aI4
aI2
aI2
aI0
aI3
aI3
aI17
aI19
aa(lp289
V0020900940
p290
aVMAR 08, 2010
p291
aVSAS @ CLE
p292
aVL
p293
aI34
aI6
aI12
aF0.5
aI0
aI0
aF0.0
aI1
aI2
aF0.5
aI4
aI1
aI5
aI5
aI1
aI2
aI2
aI2
aI13
aI3
aa(lp294
V0020900960
p295
aVMAR 10, 2010
p296
aVSAS vs. NYK
p297
aVW
p298
aI34
aI8
aI17
aF0.471
aI1
aI1
aF1.0
aI1
aI2
aF0.5
aI3
aI6
aI9
aI4
aI0
aI0
aI3
aI3
aI18
aI14
aa(lp299
V0020900970
p300
aVMAR 12, 2010
p301
aVSAS @ MIN
p302
aVW
p303
aI25
aI6
aI12
aF0.5
aI0
aI0
aF0.0
aI3
aI4
aF0.75
aI2
aI6
aI8
aI2
aI2
aI2
aI0
aI0
aI15
aI25
aa(lp304
V0020900981
p305
aVMAR 13, 2010
p306
aVSAS vs. LAC
p307
aVW
p308
aI13
aI4
aI9
aF0.444
aI0
aI0
aF0.0
aI0
aI0
aF0.0
aI0
aI1
aI1
aI1
aI0
aI1
aI1
aI1
aI8
aI8
aa(lp309
V0020900999
p310
aVMAR 16, 2010
p311
aVSAS @ MIA
p312
aVW
p313
aI31
aI5
aI15
aF0.333
aI0
aI1
aF0.0
aI2
aI2
aF1.0
aI0
aI11
aI11
aI2
aI0
aI1
aI3
aI1
aI12
aI6
aa(lp314
V0020901010
p315
aVMAR 17, 2010
p316
aVSAS @ ORL
p317
aVL
p318
aI25
aI1
aI10
aF0.1
aI0
aI0
aF0.0
aI3
aI4
aF0.75
aI1
aI5
aI6
aI1
aI0
aI0
aI1
aI3
aI5
aI-21
aa(lp319
V0020901024
p320
aVMAR 19, 2010
p321
aVSAS vs. GSW
p322
aVW
p323
aI14
aI8
aI8
aF1.0
aI0
aI0
aF0.0
aI1
aI4
aF0.25
aI1
aI5
aI6
aI5
aI0
aI1
aI0
aI1
aI17
aI13
aa(lp324
V0020901038
p325
aVMAR 21, 2010
p326
aVSAS @ ATL
p327
aVL
p328
aI41
aI11
aI16
aF0.688
aI0
aI0
aF0.0
aI7
aI9
aF0.778
aI5
aI8
aI13
aI3
aI0
aI0
aI3
aI2
aI29
aI-6
aa(lp329
V0020901049
p330
aVMAR 22, 2010
p331
aVSAS @ OKC
p332
aVW
p333
aI35
aI6
aI13
aF0.462
aI0
aI0
aF0.0
aI2
aI4
aF0.5
aI0
aI7
aI7
aI5
aI0
aI1
aI1
aI1
aI14
aI10
aa(lp334
V0020901066
p335
aVMAR 24, 2010
p336
aVSAS vs. LAL
p337
aVL
p338
aI37
aI2
aI11
aF0.182
aI0
aI0
aF0.0
aI2
aI2
aF1.0
aI3
aI9
aI12
aI6
aI2
aI3
aI3
aI2
aI6
aI-12
aa(lp339
V0020901080
p340
aVMAR 26, 2010
p341
aVSAS vs. CLE
p342
aVW
p343
aI27
aI6
aI11
aF0.545
aI0
aI0
aF0.0
aI4
aI6
aF0.667
aI1
aI3
aI4
aI5
aI1
aI3
aI2
aI1
aI16
aI8
aa(lp344
V0020901095
p345
aVMAR 28, 2010
p346
aVSAS @ BOS
p347
aVW
p348
aI27
aI4
aI8
aF0.5
aI0
aI0
aF0.0
aI0
aI0
aF0.0
aI0
aI9
aI9
aI2
aI0
aI1
aI3
aI1
aI8
aI10
aa(lp349
V0020901098
p350
aVMAR 29, 2010
p351
aVSAS @ NJN
p352
aVL
p353
aI31
aI6
aI15
aF0.4
aI0
aI0
aF0.0
aI1
aI4
aF0.25
aI3
aI9
aI12
aI4
aI0
aI2
aI4
aI1
aI13
aI-11
aa(lp354
V0020901117
p355
aVMAR 31, 2010
p356
aVSAS vs. HOU
p357
aVW
p358
aI31
aI8
aI12
aF0.667
aI0
aI0
aF0.0
aI1
aI1
aF1.0
aI2
aI8
aI10
aI3
aI1
aI1
aI3
aI1
aI17
aI24
aa(lp359
V0020901129
p360
aVAPR 02, 2010
p361
aVSAS vs. ORL
p362
aVW
p363
aI24
aI10
aI12
aF0.833
aI0
aI0
aF0.0
aI3
aI3
aF1.0
aI2
aI6
aI8
aI2
aI1
aI1
aI2
aI5
aI23
aI9
aa(lp364
V0020901142
p365
aVAPR 04, 2010
p366
aVSAS @ LAL
p367
aVW
p368
aI38
aI10
aI14
aF0.714
aI0
aI0
aF0.0
aI4
aI5
aF0.8
aI0
aI11
aI11
aI4
aI0
aI0
aI1
aI2
aI24
aI16
aa(lp369
V0020901157
p370
aVAPR 06, 2010
p371
aVSAS @ SAC
p372
aVW
p373
aI29
aI5
aI12
aF0.417
aI0
aI0
aF0.0
aI0
aI0
aF0.0
aI1
aI9
aI10
aI3
aI1
aI1
aI1
aI1
aI10
aI22
aa(lp374
V0020901170
p375
aVAPR 07, 2010
p376
aVSAS @ PHX
p377
aVL
p378
aI34
aI5
aI10
aF0.5
aI0
aI0
aF0.0
aI4
aI7
aF0.571
aI3
aI4
aI7
aI3
aI0
aI2
aI4
aI1
aI14
aI-10
aa(lp379
V0020901185
p380
aVAPR 09, 2010
p381
aVSAS vs. MEM
p382
aVL
p383
aI25
aI6
aI10
aF0.6
aI0
aI1
aF0.0
aI3
aI4
aF0.75
aI3
aI7
aI10
aI5
aI0
aI0
aI1
aI1
aI15
aI4
aa(lp384
V0020901192
p385
aVAPR 10, 2010
p386
aVSAS @ DEN
p387
aVW
p388
aI29
aI8
aI13
aF0.615
aI0
aI0
aF0.0
aI2
aI6
aF0.333
aI2
aI8
aI10
aI3
aI0
aI0
aI1
aI2
aI18
aI7
aa(lp389
V0020901208
p390
aVAPR 12, 2010
p391
aVSAS vs. MIN
p392
aVW
p393
aI19
aI6
aI7
aF0.857
aI0
aI0
aF0.0
aI4
aI4
aF1.0
aI2
aI4
aI6
aI3
aI1
aI0
aI0
aI0
aI16
aI19
aasS'name'
p394
VTim Duncan
p395
sS'experience'
p396
I12
s.