(dp0
S'age'
p1
I33
sS'stats'
p2
(lp3
(lp4
V0020900014
p5
aVOCT 28, 2009
p6
aVDEN vs. UTA
p7
aVW
p8
aI33
aI7
aI15
aF0.467
aI4
aI7
aF0.571
aI7
aI9
aF0.778
aI1
aI2
aI3
aI2
aI0
aI1
aI1
aI5
aI25
aI2
aa(lp9
V0020900018
p10
aVOCT 29, 2009
p11
aVDEN @ POR
p12
aVW
p13
aI44
aI5
aI14
aF0.357
aI1
aI6
aF0.167
aI11
aI12
aF0.917
aI0
aI4
aI4
aI6
aI1
aI0
aI2
aI3
aI22
aI3
aa(lp14
V0020900043
p15
aVNOV 01, 2009
p16
aVDEN vs. MEM
p17
aVW
p18
aI36
aI6
aI14
aF0.429
aI3
aI7
aF0.429
aI7
aI7
aF1.0
aI1
aI2
aI3
aI12
aI1
aI0
aI2
aI1
aI22
aI4
aa(lp19
V0020900052
p20
aVNOV 03, 2009
p21
aVDEN @ IND
p22
aVW
p23
aI30
aI7
aI15
aF0.467
aI5
aI7
aF0.714
aI5
aI6
aF0.833
aI0
aI4
aI4
aI2
aI1
aI0
aI2
aI3
aI24
aI12
aa(lp24
V0020900063
p25
aVNOV 04, 2009
p26
aVDEN @ NJN
p27
aVW
p28
aI25
aI4
aI11
aF0.364
aI2
aI5
aF0.4
aI2
aI2
aF1.0
aI0
aI3
aI3
aI5
aI2
aI0
aI1
aI3
aI12
aI25
aa(lp29
V0020900077
p30
aVNOV 06, 2009
p31
aVDEN @ MIA
p32
aVL
p33
aI31
aI2
aI7
aF0.286
aI0
aI4
aF0.0
aI2
aI2
aF1.0
aI0
aI0
aI0
aI2
aI2
aI0
aI5
aI0
aI6
aI-26
aa(lp34
V0020900085
p35
aVNOV 07, 2009
p36
aVDEN @ ATL
p37
aVL
p38
aI38
aI10
aI22
aF0.455
aI1
aI4
aF0.25
aI6
aI7
aF0.857
aI1
aI2
aI3
aI7
aI1
aI0
aI2
aI4
aI27
aI-19
aa(lp39
V0020900105
p40
aVNOV 10, 2009
p41
aVDEN @ CHI
p42
aVW
p43
aI33
aI5
aI12
aF0.417
aI0
aI3
aF0.0
aI7
aI8
aF0.875
aI1
aI1
aI2
aI6
aI3
aI0
aI1
aI2
aI17
aI-10
aa(lp44
V0020900115
p45
aVNOV 11, 2009
p46
aVDEN @ MIL
p47
aVL
p48
aI37
aI6
aI16
aF0.375
aI3
aI8
aF0.375
aI4
aI4
aF1.0
aI0
aI2
aI2
aI5
aI3
aI0
aI1
aI3
aI19
aI-4
aa(lp49
V0020900131
p50
aVNOV 13, 2009
p51
aVDEN vs. LAL
p52
aVW
p53
aI26
aI1
aI8
aF0.125
aI0
aI3
aF0.0
aI4
aI4
aF1.0
aI0
aI2
aI2
aI8
aI1
aI0
aI1
aI2
aI6
aI19
aa(lp54
V0020900155
p55
aVNOV 17, 2009
p56
aVDEN vs. TOR
p57
aVW
p58
aI27
aI2
aI6
aF0.333
aI0
aI2
aF0.0
aI3
aI3
aF1.0
aI0
aI2
aI2
aI10
aI0
aI0
aI1
aI2
aI7
aI8
aa(lp59
V0020900182
p60
aVNOV 20, 2009
p61
aVDEN @ LAC
p62
aVL
p63
aI30
aI1
aI5
aF0.2
aI0
aI2
aF0.0
aI3
aI4
aF0.75
aI0
aI3
aI3
aI7
aI0
aI0
aI1
aI3
aI5
aI-3
aa(lp64
V0020900189
p65
aVNOV 21, 2009
p66
aVDEN vs. CHI
p67
aVW
p68
aI31
aI5
aI9
aF0.556
aI3
aI5
aF0.6
aI8
aI8
aF1.0
aI0
aI4
aI4
aI5
aI1
aI0
aI2
aI2
aI21
aI-3
aa(lp69
V0020900205
p70
aVNOV 24, 2009
p71
aVDEN vs. NJN
p72
aVW
p73
aI28
aI1
aI8
aF0.125
aI1
aI4
aF0.25
aI2
aI2
aF1.0
aI0
aI4
aI4
aI7
aI1
aI0
aI1
aI2
aI5
aI13
aa(lp74
V0020900213
p75
aVNOV 25, 2009
p76
aVDEN @ MIN
p77
aVW
p78
aI28
aI4
aI6
aF0.667
aI4
aI4
aF1.0
aI7
aI7
aF1.0
aI1
aI2
aI3
aI5
aI1
aI0
aI7
aI4
aI19
aI16
aa(lp79
V0020900230
p80
aVNOV 27, 2009
p81
aVDEN vs. NYK
p82
aVW
p83
aI37
aI9
aI17
aF0.529
aI4
aI8
aF0.5
aI10
aI14
aF0.714
aI0
aI4
aI4
aI8
aI0
aI0
aI3
aI2
aI32
aI7
aa(lp84
V0020900246
p85
aVNOV 29, 2009
p86
aVDEN vs. MIN
p87
aVL
p88
aI34
aI2
aI13
aF0.154
aI2
aI8
aF0.25
aI8
aI10
aF0.8
aI1
aI3
aI4
aI3
aI1
aI2
aI4
aI2
aI14
aI-2
aa(lp89
V0020900256
p90
aVDEC 01, 2009
p91
aVDEN vs. GSW
p92
aVW
p93
aI30
aI5
aI11
aF0.455
aI1
aI6
aF0.167
aI11
aI11
aF1.0
aI1
aI2
aI3
aI8
aI2
aI0
aI2
aI4
aI22
aI11
aa(lp94
V0020900270
p95
aVDEC 03, 2009
p96
aVDEN vs. MIA
p97
aVW
p98
aI27
aI1
aI5
aF0.2
aI1
aI3
aF0.333
aI10
aI11
aF0.909
aI0
aI3
aI3
aI7
aI0
aI0
aI0
aI2
aI13
aI13
aa(lp99
V0020900285
p100
aVDEC 05, 2009
p101
aVDEN @ SAS
p102
aVW
p103
aI33
aI4
aI10
aF0.4
aI2
aI3
aF0.667
aI8
aI9
aF0.889
aI1
aI1
aI2
aI5
aI1
aI1
aI2
aI2
aI18
aI0
aa(lp104
V0020900296
p105
aVDEC 07, 2009
p106
aVDEN @ PHI
p107
aVW
p108
aI42
aI8
aI15
aF0.533
aI4
aI6
aF0.667
aI11
aI11
aF1.0
aI1
aI7
aI8
aI8
aI1
aI0
aI2
aI2
aI31
aI11
aa(lp109
V0020900300
p110
aVDEC 08, 2009
p111
aVDEN @ CHA
p112
aVL
p113
aI34
aI4
aI11
aF0.364
aI0
aI2
aF0.0
aI6
aI6
aF1.0
aI0
aI0
aI0
aI1
aI1
aI0
aI5
aI1
aI14
aI-14
aa(lp114
V0020900317
p115
aVDEC 10, 2009
p116
aVDEN @ DET
p117
aVL
p118
aI35
aI6
aI16
aF0.375
aI1
aI4
aF0.25
aI8
aI8
aF1.0
aI0
aI1
aI1
aI2
aI1
aI0
aI3
aI1
aI21
aI9
aa(lp119
V0020900336
p120
aVDEC 12, 2009
p121
aVDEN vs. PHX
p122
aVW
p123
aI34
aI8
aI18
aF0.444
aI5
aI9
aF0.556
aI3
aI6
aF0.5
aI0
aI1
aI1
aI8
aI2
aI0
aI5
aI4
aI24
aI11
aa(lp124
V0020900348
p125
aVDEC 14, 2009
p126
aVDEN vs. OKC
p127
aVW
p128
aI38
aI1
aI6
aF0.167
aI1
aI4
aF0.25
aI9
aI9
aF1.0
aI0
aI1
aI1
aI7
aI4
aI1
aI4
aI2
aI12
aI1
aa(lp129
V0020900367
p130
aVDEC 16, 2009
p131
aVDEN vs. HOU
p132
aVW
p133
aI20
aI5
aI8
aF0.625
aI2
aI3
aF0.667
aI3
aI3
aF1.0
aI0
aI0
aI0
aI3
aI1
aI0
aI1
aI1
aI15
aI3
aa(lp134
V0020900428
p135
aVDEC 25, 2009
p136
aVDEN @ POR
p137
aVL
p138
aI20
aI3
aI7
aF0.429
aI1
aI3
aF0.333
aI3
aI3
aF1.0
aI1
aI1
aI2
aI5
aI0
aI0
aI1
aI0
aI10
aI-2
aa(lp139
V0020900528
p140
aVJAN 08, 2010
p141
aVDEN vs. CLE
p142
aVW
p143
aI33
aI8
aI14
aF0.571
aI2
aI5
aF0.4
aI5
aI7
aF0.714
aI0
aI1
aI1
aI5
aI1
aI0
aI4
aI3
aI23
aI-10
aa(lp144
V0020900537
p145
aVJAN 09, 2010
p146
aVDEN @ SAC
p147
aVL
p148
aI39
aI8
aI20
aF0.4
aI5
aI10
aF0.5
aI6
aI6
aF1.0
aI0
aI3
aI3
aI3
aI2
aI0
aI1
aI0
aI27
aI-4
aa(lp149
V0020900549
p150
aVJAN 11, 2010
p151
aVDEN vs. MIN
p152
aVW
p153
aI33
aI4
aI11
aF0.364
aI2
aI7
aF0.286
aI8
aI9
aF0.889
aI1
aI2
aI3
aI10
aI2
aI0
aI1
aI2
aI18
aI9
aa(lp154
V0020900566
p155
aVJAN 13, 2010
p156
aVDEN vs. ORL
p157
aVW
p158
aI30
aI8
aI14
aF0.571
aI2
aI3
aF0.667
aI6
aI7
aF0.857
aI0
aI1
aI1
aI5
aI2
aI0
aI4
aI1
aI24
aI17
aa(lp159
V0020900593
p160
aVJAN 17, 2010
p161
aVDEN vs. UTA
p162
aVW
p163
aI31
aI5
aI13
aF0.385
aI2
aI7
aF0.286
aI17
aI19
aF0.895
aI1
aI4
aI5
aI4
aI2
aI0
aI1
aI0
aI29
aI2
aa(lp164
V0020900619
p165
aVJAN 20, 2010
p166
aVDEN @ GSW
p167
aVW
p168
aI38
aI11
aI19
aF0.579
aI6
aI9
aF0.667
aI9
aI11
aF0.818
aI0
aI8
aI8
aI8
aI0
aI0
aI2
aI5
aI37
aI5
aa(lp169
V0020900622
p170
aVJAN 21, 2010
p171
aVDEN vs. LAC
p172
aVW
p173
aI30
aI5
aI9
aF0.556
aI4
aI6
aF0.667
aI6
aI6
aF1.0
aI0
aI3
aI3
aI6
aI0
aI0
aI3
aI3
aI20
aI23
aa(lp174
V0020900643
p175
aVJAN 23, 2010
p176
aVDEN vs. NOH
p177
aVW
p178
aI43
aI6
aI14
aF0.429
aI3
aI7
aF0.429
aI5
aI5
aF1.0
aI1
aI4
aI5
aI9
aI0
aI0
aI2
aI4
aI20
aI10
aa(lp179
V0020900655
p180
aVJAN 25, 2010
p181
aVDEN vs. CHA
p182
aVW
p183
aI35
aI7
aI15
aF0.467
aI1
aI3
aF0.333
aI12
aI13
aF0.923
aI0
aI6
aI6
aI11
aI1
aI0
aI2
aI1
aI27
aI10
aa(lp184
V0020900670
p185
aVJAN 27, 2010
p186
aVDEN @ HOU
p187
aVW
p188
aI39
aI7
aI16
aF0.438
aI1
aI4
aF0.25
aI6
aI8
aF0.75
aI0
aI4
aI4
aI4
aI3
aI0
aI5
aI5
aI21
aI7
aa(lp189
V0020900684
p190
aVJAN 29, 2010
p191
aVDEN @ OKC
p192
aVL
p193
aI33
aI4
aI8
aF0.5
aI2
aI3
aF0.667
aI9
aI9
aF1.0
aI0
aI5
aI5
aI7
aI2
aI0
aI6
aI4
aI19
aI-13
aa(lp194
V0020900695
p195
aVJAN 31, 2010
p196
aVDEN @ SAS
p197
aVW
p198
aI45
aI7
aI15
aF0.467
aI3
aI5
aF0.6
aI8
aI8
aF1.0
aI0
aI6
aI6
aI11
aI2
aI0
aI6
aI0
aI25
aI14
aa(lp199
V0020900708
p200
aVFEB 01, 2010
p201
aVDEN vs. SAC
p202
aVW
p203
aI41
aI6
aI25
aF0.24
aI3
aI10
aF0.3
aI8
aI9
aF0.889
aI0
aI1
aI1
aI9
aI0
aI0
aI2
aI2
aI23
aI-5
aa(lp204
V0020900725
p205
aVFEB 03, 2010
p206
aVDEN vs. PHX
p207
aVL
p208
aI35
aI5
aI14
aF0.357
aI1
aI3
aF0.333
aI0
aI0
aF0.0
aI0
aI1
aI1
aI4
aI1
aI0
aI0
aI0
aI11
aI2
aa(lp209
V0020900740
p210
aVFEB 05, 2010
p211
aVDEN @ LAL
p212
aVW
p213
aI40
aI12
aI20
aF0.6
aI9
aI13
aF0.692
aI6
aI8
aF0.75
aI0
aI4
aI4
aI8
aI1
aI0
aI2
aI1
aI39
aI13
aa(lp214
V0020900766
p215
aVFEB 09, 2010
p216
aVDEN vs. DAL
p217
aVW
p218
aI28
aI6
aI8
aF0.75
aI3
aI5
aF0.6
aI1
aI1
aF1.0
aI0
aI1
aI1
aI6
aI3
aI0
aI2
aI1
aI16
aI25
aa(lp219
V0020900780
p220
aVFEB 11, 2010
p221
aVDEN vs. SAS
p222
aVL
p223
aI35
aI4
aI16
aF0.25
aI1
aI8
aF0.125
aI8
aI10
aF0.8
aI0
aI2
aI2
aI7
aI0
aI0
aI2
aI2
aI17
aI-11
aa(lp224
V0020900802
p225
aVFEB 18, 2010
p226
aVDEN @ CLE
p227
aVW
p228
aI43
aI7
aI20
aF0.35
aI2
aI7
aF0.286
aI2
aI2
aF1.0
aI1
aI0
aI1
aI8
aI0
aI0
aI1
aI4
aI18
aI-2
aa(lp229
V0020900806
p230
aVFEB 19, 2010
p231
aVDEN @ WAS
p232
aVL
p233
aI35
aI9
aI15
aF0.6
aI3
aI5
aF0.6
aI7
aI7
aF1.0
aI0
aI3
aI3
aI2
aI1
aI0
aI3
aI3
aI28
aI-8
aa(lp234
V0020900824
p235
aVFEB 21, 2010
p236
aVDEN vs. BOS
p237
aVW
p238
aI33
aI7
aI11
aF0.636
aI2
aI4
aF0.5
aI10
aI10
aF1.0
aI1
aI3
aI4
aI7
aI0
aI1
aI3
aI3
aI26
aI14
aa(lp239
V0020900858
p240
aVFEB 25, 2010
p241
aVDEN @ GSW
p242
aVW
p243
aI37
aI13
aI19
aF0.684
aI6
aI8
aF0.75
aI5
aI5
aF1.0
aI0
aI6
aI6
aI9
aI1
aI0
aI2
aI1
aI37
aI17
aa(lp244
V0020900867
p245
aVFEB 26, 2010
p246
aVDEN vs. DET
p247
aVW
p248
aI35
aI6
aI11
aF0.545
aI2
aI5
aF0.4
aI11
aI11
aF1.0
aI1
aI1
aI2
aI2
aI0
aI0
aI4
aI2
aI25
aI-5
aa(lp249
V0020900879
p250
aVFEB 28, 2010
p251
aVDEN @ LAL
p252
aVL
p253
aI37
aI4
aI12
aF0.333
aI3
aI7
aF0.429
aI6
aI7
aF0.857
aI0
aI5
aI5
aI4
aI1
aI0
aI5
aI0
aI17
aI4
aa(lp254
V0020900893
p255
aVMAR 01, 2010
p256
aVDEN @ PHX
p257
aVL
p258
aI38
aI7
aI12
aF0.583
aI2
aI4
aF0.5
aI5
aI5
aF1.0
aI0
aI2
aI2
aI4
aI2
aI0
aI4
aI3
aI21
aI-19
aa(lp259
V0020900908
p260
aVMAR 03, 2010
p261
aVDEN vs. OKC
p262
aVW
p263
aI27
aI3
aI9
aF0.333
aI1
aI5
aF0.2
aI6
aI7
aF0.857
aI0
aI2
aI2
aI5
aI1
aI0
aI4
aI1
aI13
aI18
aa(lp264
V0020900922
p265
aVMAR 05, 2010
p266
aVDEN vs. IND
p267
aVW
p268
aI37
aI3
aI13
aF0.231
aI1
aI6
aF0.167
aI7
aI8
aF0.875
aI0
aI6
aI6
aI2
aI2
aI0
aI3
aI2
aI14
aI5
aa(lp269
V0020900939
p270
aVMAR 07, 2010
p271
aVDEN vs. POR
p272
aVW
p273
aI40
aI8
aI14
aF0.571
aI1
aI4
aF0.25
aI4
aI5
aF0.8
aI1
aI3
aI4
aI5
aI0
aI0
aI2
aI2
aI21
aI10
aa(lp274
V0020900957
p275
aVMAR 10, 2010
p276
aVDEN @ MIN
p277
aVW
p278
aI36
aI9
aI18
aF0.5
aI2
aI7
aF0.286
aI5
aI5
aF1.0
aI1
aI2
aI3
aI3
aI1
aI1
aI2
aI1
aI25
aI2
aa(lp279
V0020900971
p280
aVMAR 12, 2010
p281
aVDEN @ NOH
p282
aVW
p283
aI38
aI6
aI14
aF0.429
aI2
aI7
aF0.286
aI7
aI8
aF0.875
aI0
aI1
aI1
aI7
aI4
aI0
aI5
aI2
aI21
aI12
aa(lp284
V0020900978
p285
aVMAR 13, 2010
p286
aVDEN @ MEM
p287
aVW
p288
aI31
aI8
aI15
aF0.533
aI2
aI6
aF0.333
aI4
aI4
aF1.0
aI0
aI4
aI4
aI4
aI0
aI0
aI1
aI1
aI22
aI5
aa(lp289
V0020900993
p290
aVMAR 15, 2010
p291
aVDEN @ HOU
p292
aVL
p293
aI32
aI7
aI13
aF0.538
aI3
aI4
aF0.75
aI0
aI0
aF0.0
aI1
aI1
aI2
aI4
aI0
aI0
aI3
aI6
aI17
aI-14
aa(lp294
V0020901002
p295
aVMAR 16, 2010
p296
aVDEN vs. WAS
p297
aVW
p298
aI32
aI2
aI9
aF0.222
aI0
aI6
aF0.0
aI6
aI7
aF0.857
aI0
aI0
aI0
aI2
aI2
aI0
aI2
aI3
aI10
aI7
aa(lp299
V0020901017
p300
aVMAR 18, 2010
p301
aVDEN vs. NOH
p302
aVW
p303
aI37
aI2
aI12
aF0.167
aI0
aI4
aF0.0
aI6
aI6
aF1.0
aI1
aI2
aI3
aI8
aI1
aI0
aI0
aI1
aI10
aI14
aa(lp304
V0020901034
p305
aVMAR 20, 2010
p306
aVDEN vs. MIL
p307
aVL
p308
aI37
aI5
aI17
aF0.294
aI2
aI5
aF0.4
aI17
aI17
aF1.0
aI0
aI4
aI4
aI3
aI2
aI0
aI1
aI1
aI29
aI-4
aa(lp309
V0020901055
p310
aVMAR 23, 2010
p311
aVDEN @ NYK
p312
aVL
p313
aI37
aI5
aI13
aF0.385
aI1
aI5
aF0.2
aI14
aI15
aF0.933
aI0
aI1
aI1
aI6
aI1
aI0
aI1
aI0
aI25
aI4
aa(lp314
V0020901058
p315
aVMAR 24, 2010
p316
aVDEN @ BOS
p317
aVL
p318
aI34
aI3
aI9
aF0.333
aI1
aI2
aF0.5
aI5
aI5
aF1.0
aI2
aI5
aI7
aI6
aI0
aI0
aI3
aI3
aI12
aI-22
aa(lp319
V0020901075
p320
aVMAR 26, 2010
p321
aVDEN @ TOR
p322
aVW
p323
aI37
aI4
aI18
aF0.222
aI3
aI11
aF0.273
aI7
aI7
aF1.0
aI0
aI2
aI2
aI4
aI1
aI0
aI3
aI3
aI18
aI5
aa(lp324
V0020901092
p325
aVMAR 28, 2010
p326
aVDEN @ ORL
p327
aVL
p328
aI35
aI8
aI17
aF0.471
aI2
aI5
aF0.4
aI0
aI0
aF0.0
aI0
aI5
aI5
aI5
aI0
aI0
aI0
aI0
aI18
aI7
aa(lp329
V0020901100
p330
aVMAR 29, 2010
p331
aVDEN @ DAL
p332
aVL
p333
aI33
aI3
aI14
aF0.214
aI1
aI7
aF0.143
aI4
aI4
aF1.0
aI1
aI2
aI3
aI6
aI0
aI0
aI2
aI4
aI11
aI-25
aa(lp334
V0020901121
p335
aVAPR 01, 2010
p336
aVDEN vs. POR
p337
aVW
p338
aI32
aI6
aI13
aF0.462
aI2
aI8
aF0.25
aI7
aI8
aF0.875
aI1
aI3
aI4
aI6
aI2
aI1
aI1
aI2
aI21
aI16
aa(lp339
V0020901139
p340
aVAPR 03, 2010
p341
aVDEN vs. LAC
p342
aVW
p343
aI34
aI4
aI13
aF0.308
aI3
aI7
aF0.429
aI3
aI4
aF0.75
aI0
aI3
aI3
aI6
aI1
aI0
aI0
aI2
aI14
aI9
aa(lp344
V0020901165
p345
aVAPR 07, 2010
p346
aVDEN @ OKC
p347
aVW
p348
aI37
aI8
aI19
aF0.421
aI4
aI8
aF0.5
aI9
aI9
aF1.0
aI1
aI7
aI8
aI4
aI1
aI0
aI4
aI4
aI29
aI7
aa(lp349
V0020901173
p350
aVAPR 08, 2010
p351
aVDEN vs. LAL
p352
aVW
p353
aI39
aI4
aI14
aF0.286
aI2
aI6
aF0.333
aI2
aI2
aF1.0
aI0
aI4
aI4
aI6
aI0
aI0
aI3
aI1
aI12
aI9
aa(lp354
V0020901192
p355
aVAPR 10, 2010
p356
aVDEN vs. SAS
p357
aVL
p358
aI37
aI8
aI18
aF0.444
aI1
aI5
aF0.2
aI10
aI11
aF0.909
aI0
aI2
aI2
aI3
aI1
aI0
aI3
aI2
aI27
aI-19
aa(lp359
V0020901209
p360
aVAPR 12, 2010
p361
aVDEN vs. MEM
p362
aVW
p363
aI28
aI3
aI11
aF0.273
aI1
aI5
aF0.2
aI4
aI5
aF0.8
aI0
aI4
aI4
aI7
aI3
aI1
aI3
aI0
aI11
aI12
aa(lp364
V0020901216
p365
aVAPR 13, 2010
p366
aVDEN @ PHX
p367
aVL
p368
aI33
aI5
aI13
aF0.385
aI1
aI6
aF0.167
aI5
aI6
aF0.833
aI0
aI3
aI3
aI0
aI0
aI0
aI2
aI0
aI16
aI-20
aasS'name'
p369
VChauncey Billups
p370
sS'experience'
p371
I12
s.