(dp0
S'age'
p1
I32
sS'stats'
p2
(lp3
(lp4
V0020900168
p5
aVNOV 18, 2009
p6
aVDAL vs. SAS
p7
aVW
p8
aI13
aI1
aI4
aF0.25
aI0
aI0
aF0.0
aI0
aI0
aF0.0
aI2
aI0
aI2
aI0
aI0
aI0
aI0
aI2
aI2
aI2
aa(lp9
V0020900179
p10
aVNOV 20, 2009
p11
aVDAL vs. SAC
p12
aVW
p13
aI24
aI5
aI10
aF0.5
aI0
aI2
aF0.0
aI1
aI1
aF1.0
aI3
aI4
aI7
aI2
aI1
aI0
aI0
aI2
aI11
aI-2
aa(lp14
V0020900204
p15
aVNOV 24, 2009
p16
aVDAL vs. GSW
p17
aVL
p18
aI14
aI3
aI3
aF1.0
aI1
aI1
aF1.0
aI2
aI2
aF1.0
aI0
aI1
aI1
aI0
aI1
aI0
aI2
aI2
aI9
aI-3
aa(lp19
V0020900215
p20
aVNOV 25, 2009
p21
aVDAL @ HOU
p22
aVW
p23
aI25
aI9
aI13
aF0.692
aI4
aI8
aF0.5
aI1
aI1
aF1.0
aI1
aI3
aI4
aI3
aI3
aI1
aI3
aI6
aI23
aI33
aa(lp24
V0020900227
p25
aVNOV 27, 2009
p26
aVDAL @ IND
p27
aVW
p28
aI11
aI2
aI4
aF0.5
aI1
aI1
aF1.0
aI0
aI0
aF0.0
aI0
aI1
aI1
aI0
aI0
aI0
aI0
aI1
aI5
aI19
aa(lp29
V0020900235
p30
aVNOV 28, 2009
p31
aVDAL @ CLE
p32
aVL
p33
aI10
aI0
aI3
aF0.0
aI0
aI2
aF0.0
aI0
aI0
aF0.0
aI0
aI0
aI0
aI1
aI0
aI0
aI0
aI1
aI0
aI-7
aa(lp34
V0020900263
p35
aVDEC 02, 2009
p36
aVDAL @ NJN
p37
aVW
p38
aI23
aI4
aI7
aF0.571
aI2
aI3
aF0.667
aI0
aI0
aF0.0
aI0
aI3
aI3
aI0
aI2
aI0
aI0
aI5
aI10
aI-1
aa(lp39
V0020900276
p40
aVDEC 04, 2009
p41
aVDAL @ MEM
p42
aVL
p43
aI16
aI2
aI5
aF0.4
aI0
aI2
aF0.0
aI2
aI2
aF1.0
aI1
aI1
aI2
aI1
aI0
aI0
aI0
aI3
aI6
aI-8
aa(lp44
V0020900286
p45
aVDEC 05, 2009
p46
aVDAL vs. ATL
p47
aVL
p48
aI22
aI2
aI7
aF0.286
aI1
aI3
aF0.333
aI0
aI0
aF0.0
aI2
aI5
aI7
aI2
aI0
aI0
aI4
aI1
aI5
aI-16
aa(lp49
V0020900334
p50
aVDEC 12, 2009
p51
aVDAL vs. CHA
p52
aVW
p53
aI7
aI0
aI2
aF0.0
aI0
aI2
aF0.0
aI3
aI3
aF1.0
aI0
aI0
aI0
aI0
aI0
aI0
aI1
aI1
aI3
aI-1
aa(lp54
V0020900382
p55
aVDEC 18, 2009
p56
aVDAL vs. HOU
p57
aVL
p58
aI12
aI3
aI8
aF0.375
aI2
aI4
aF0.5
aI2
aI2
aF1.0
aI0
aI0
aI0
aI0
aI0
aI0
aI1
aI3
aI10
aI-8
aa(lp59
V0020900398
p60
aVDEC 20, 2009
p61
aVDAL vs. CLE
p62
aVW
p63
aI36
aI7
aI14
aF0.5
aI2
aI6
aF0.333
aI6
aI7
aF0.857
aI1
aI6
aI7
aI2
aI0
aI0
aI1
aI2
aI22
aI3
aa(lp64
V0020900411
p65
aVDEC 22, 2009
p66
aVDAL vs. POR
p67
aVL
p68
aI6
aI0
aI3
aF0.0
aI0
aI1
aF0.0
aI0
aI0
aF0.0
aI0
aI0
aI0
aI0
aI0
aI0
aI0
aI0
aI0
aI6
aa(lp69
V0020900429
p70
aVDEC 26, 2009
p71
aVDAL vs. MEM
p72
aVW
p73
aI11
aI2
aI4
aF0.5
aI1
aI2
aF0.5
aI0
aI2
aF0.0
aI2
aI2
aI4
aI0
aI0
aI0
aI1
aI2
aI5
aI-8
aa(lp74
V0020900493
p75
aVJAN 03, 2010
p76
aVDAL @ LAL
p77
aVL
p78
aI20
aI3
aI6
aF0.5
aI2
aI5
aF0.4
aI4
aI4
aF1.0
aI0
aI0
aI0
aI0
aI1
aI0
aI0
aI0
aI12
aI-2
aa(lp79
V0020900525
p80
aVJAN 08, 2010
p81
aVDAL @ SAS
p82
aVW
p83
aI9
aI2
aI4
aF0.5
aI0
aI0
aF0.0
aI0
aI0
aF0.0
aI0
aI0
aI0
aI1
aI1
aI0
aI0
aI0
aI4
aI-5
aa(lp84
V0020900535
p85
aVJAN 09, 2010
p86
aVDAL vs. UTA
p87
aVL
p88
aI17
aI1
aI5
aF0.2
aI0
aI1
aF0.0
aI0
aI0
aF0.0
aI0
aI2
aI2
aI0
aI1
aI1
aI1
aI0
aI2
aI-18
aa(lp89
V0020900646
p90
aVJAN 24, 2010
p91
aVDAL @ NYK
p92
aVW
p93
aI9
aI3
aI4
aF0.75
aI0
aI0
aF0.0
aI0
aI0
aF0.0
aI1
aI0
aI1
aI2
aI0
aI0
aI0
aI0
aI6
aI5
aasS'name'
p94
VTim Thomas
p95
sS'experience'
p96
I12
s.