(dp0
S'age'
p1
I34
sS'stats'
p2
(lp3
(lp4
V0020901217
p5
aVAPR 14, 2010
p6
aVCLE @ ATL
p7
aVL
p8
aI25
aI3
aI5
aF0.6
aI0
aI1
aF0.0
aI2
aI2
aF1.0
aI0
aI3
aI3
aI4
aI1
aI0
aI0
aI0
aI8
aI-20
aa(lp9
V0020901178
p10
aVAPR 09, 2010
p11
aVCLE vs. IND
p12
aVL
p13
aI29
aI5
aI10
aF0.5
aI2
aI5
aF0.4
aI5
aI5
aF1.0
aI1
aI2
aI3
aI1
aI1
aI0
aI1
aI3
aI17
aI-4
aa(lp14
V0020901171
p15
aVAPR 08, 2010
p16
aVCLE @ CHI
p17
aVL
p18
aI27
aI1
aI3
aF0.333
aI1
aI2
aF0.5
aI1
aI2
aF0.5
aI2
aI4
aI6
aI3
aI0
aI0
aI3
aI5
aI4
aI0
aa(lp19
V0020901150
p20
aVAPR 06, 2010
p21
aVCLE vs. TOR
p22
aVW
p23
aI34
aI7
aI12
aF0.583
aI3
aI6
aF0.5
aI1
aI1
aF1.0
aI0
aI8
aI8
aI6
aI3
aI0
aI1
aI1
aI18
aI13
aa(lp24
V0020901141
p25
aVAPR 04, 2010
p26
aVCLE @ BOS
p27
aVL
p28
aI33
aI4
aI5
aF0.8
aI2
aI2
aF1.0
aI0
aI0
aF0.0
aI2
aI1
aI3
aI2
aI1
aI0
aI0
aI3
aI10
aI1
aa(lp29
V0020901126
p30
aVAPR 02, 2010
p31
aVCLE vs. ATL
p32
aVW
p33
aI24
aI1
aI7
aF0.143
aI1
aI5
aF0.2
aI0
aI0
aF0.0
aI0
aI1
aI1
aI2
aI0
aI0
aI1
aI1
aI3
aI4
aa(lp34
V0020901109
p35
aVMAR 31, 2010
p36
aVCLE vs. MIL
p37
aVW
p38
aI28
aI1
aI4
aF0.25
aI0
aI2
aF0.0
aI2
aI3
aF0.667
aI0
aI2
aI2
aI1
aI1
aI0
aI1
aI1
aI4
aI5
aa(lp39
V0020901087
p40
aVMAR 28, 2010
p41
aVCLE vs. SAC
p42
aVW
p43
aI33
aI3
aI7
aF0.429
aI1
aI5
aF0.2
aI3
aI3
aF1.0
aI1
aI2
aI3
aI3
aI3
aI0
aI2
aI1
aI10
aI10
aa(lp44
V0020901080
p45
aVMAR 26, 2010
p46
aVCLE @ SAS
p47
aVL
p48
aI29
aI2
aI4
aF0.5
aI1
aI2
aF0.5
aI0
aI0
aF0.0
aI0
aI5
aI5
aI5
aI3
aI0
aI2
aI1
aI5
aI3
aa(lp49
V0020901064
p50
aVMAR 24, 2010
p51
aVCLE @ NOH
p52
aVW
p53
aI28
aI2
aI7
aF0.286
aI1
aI6
aF0.167
aI0
aI0
aF0.0
aI0
aI2
aI2
aI3
aI0
aI0
aI1
aI1
aI5
aI12
aa(lp54
V0020901040
p55
aVMAR 21, 2010
p56
aVCLE vs. DET
p57
aVW
p58
aI18
aI4
aI8
aF0.5
aI2
aI5
aF0.4
aI1
aI2
aF0.5
aI0
aI2
aI2
aI5
aI1
aI0
aI0
aI4
aI11
aI17
aa(lp59
V0020901022
p60
aVMAR 19, 2010
p61
aVCLE @ CHI
p62
aVW
p63
aI23
aI3
aI10
aF0.3
aI2
aI6
aF0.333
aI1
aI1
aF1.0
aI0
aI1
aI1
aI1
aI0
aI0
aI1
aI1
aI9
aI3
aa(lp64
V0020901006
p65
aVMAR 17, 2010
p66
aVCLE vs. IND
p67
aVW
p68
aI30
aI1
aI7
aF0.143
aI0
aI4
aF0.0
aI0
aI0
aF0.0
aI2
aI2
aI4
aI3
aI2
aI0
aI0
aI2
aI2
aI20
aa(lp69
V0020900998
p70
aVMAR 16, 2010
p71
aVCLE @ DET
p72
aVW
p73
aI18
aI3
aI7
aF0.429
aI1
aI4
aF0.25
aI0
aI0
aF0.0
aI1
aI0
aI1
aI1
aI0
aI0
aI0
aI4
aI7
aI5
aa(lp74
V0020900984
p75
aVMAR 14, 2010
p76
aVCLE vs. BOS
p77
aVW
p78
aI32
aI2
aI6
aF0.333
aI1
aI4
aF0.25
aI1
aI2
aF0.5
aI0
aI3
aI3
aI1
aI1
aI0
aI0
aI2
aI6
aI-4
aa(lp79
V0020900965
p80
aVMAR 12, 2010
p81
aVCLE @ PHI
p82
aVW
p83
aI22
aI1
aI4
aF0.25
aI1
aI3
aF0.333
aI2
aI2
aF1.0
aI1
aI2
aI3
aI3
aI1
aI0
aI1
aI3
aI5
aI9
aa(lp84
V0020900940
p85
aVMAR 08, 2010
p86
aVCLE vs. SAS
p87
aVW
p88
aI22
aI3
aI3
aF1.0
aI0
aI0
aF0.0
aI2
aI2
aF1.0
aI0
aI2
aI2
aI2
aI0
aI0
aI0
aI2
aI8
aI-7
aa(lp89
V0020900931
p90
aVMAR 06, 2010
p91
aVCLE @ MIL
p92
aVL
p93
aI28
aI2
aI5
aF0.4
aI1
aI3
aF0.333
aI0
aI0
aF0.0
aI1
aI5
aI6
aI3
aI1
aI0
aI2
aI1
aI5
aI-14
aa(lp94
V0020900915
p95
aVMAR 05, 2010
p96
aVCLE vs. DET
p97
aVW
p98
aI30
aI1
aI6
aF0.167
aI0
aI3
aF0.0
aI0
aI0
aF0.0
aI0
aI0
aI0
aI3
aI0
aI0
aI1
aI2
aI2
aI13
aa(lp99
V0020900902
p100
aVMAR 03, 2010
p101
aVCLE @ NJN
p102
aVW
p103
aI30
aI2
aI5
aF0.4
aI2
aI3
aF0.667
aI2
aI2
aF1.0
aI0
aI4
aI4
aI3
aI1
aI0
aI1
aI2
aI8
aI30
aa(lp104
V0020900887
p105
aVMAR 01, 2010
p106
aVCLE vs. NYK
p107
aVW
p108
aI27
aI3
aI4
aF0.75
aI2
aI3
aF0.667
aI0
aI0
aF0.0
aI1
aI4
aI5
aI1
aI1
aI0
aI1
aI1
aI8
aI35
aa(lp109
V0020900859
p110
aVFEB 26, 2010
p111
aVCLE @ TOR
p112
aVW
p113
aI42
aI4
aI8
aF0.5
aI2
aI5
aF0.4
aI0
aI0
aF0.0
aI2
aI0
aI2
aI6
aI2
aI0
aI1
aI0
aI10
aI15
aa(lp114
V0020900857
p115
aVFEB 25, 2010
p116
aVCLE @ BOS
p117
aVW
p118
aI19
aI2
aI4
aF0.5
aI1
aI2
aF0.5
aI0
aI0
aF0.0
aI0
aI3
aI3
aI1
aI0
aI0
aI0
aI1
aI5
aI-7
aa(lp119
V0020900837
p120
aVFEB 23, 2010
p121
aVCLE vs. NOH
p122
aVW
p123
aI27
aI4
aI7
aF0.571
aI3
aI6
aF0.5
aI2
aI2
aF1.0
aI0
aI4
aI4
aI1
aI1
aI0
aI0
aI2
aI13
aI9
aa(lp124
V0020900823
p125
aVFEB 21, 2010
p126
aVCLE @ ORL
p127
aVL
p128
aI26
aI1
aI4
aF0.25
aI1
aI4
aF0.25
aI1
aI2
aF0.5
aI0
aI1
aI1
aI1
aI0
aI0
aI1
aI5
aI4
aI-1
aa(lp129
V0020900804
p130
aVFEB 19, 2010
p131
aVCLE @ CHA
p132
aVL
p133
aI27
aI3
aI4
aF0.75
aI3
aI4
aF0.75
aI2
aI3
aF0.667
aI0
aI0
aI0
aI0
aI0
aI1
aI0
aI4
aI11
aI-9
aa(lp134
V0020900802
p135
aVFEB 18, 2010
p136
aVCLE vs. DEN
p137
aVL
p138
aI30
aI4
aI8
aF0.5
aI2
aI5
aF0.4
aI3
aI5
aF0.6
aI1
aI3
aI4
aI2
aI0
aI0
aI0
aI3
aI13
aI15
aa(lp139
V0020900779
p140
aVFEB 11, 2010
p141
aVCLE vs. ORL
p142
aVW
p143
aI29
aI1
aI6
aF0.167
aI1
aI3
aF0.333
aI4
aI4
aF1.0
aI0
aI2
aI2
aI3
aI3
aI0
aI0
aI3
aI7
aI20
aa(lp144
V0020900759
p145
aVFEB 09, 2010
p146
aVCLE vs. NJN
p147
aVW
p148
aI26
aI2
aI4
aF0.5
aI1
aI3
aF0.333
aI2
aI4
aF0.5
aI0
aI1
aI1
aI2
aI2
aI0
aI0
aI1
aI7
aI-13
aa(lp149
V0020900743
p150
aVFEB 06, 2010
p151
aVCLE vs. NYK
p152
aVW
p153
aI31
aI4
aI6
aF0.667
aI2
aI3
aF0.667
aI1
aI2
aF0.5
aI0
aI3
aI3
aI0
aI0
aI0
aI1
aI1
aI11
aI7
aa(lp154
V0020900729
p155
aVFEB 04, 2010
p156
aVCLE vs. MIA
p157
aVW
p158
aI26
aI2
aI4
aF0.5
aI0
aI1
aF0.0
aI2
aI2
aF1.0
aI0
aI1
aI1
aI1
aI1
aI0
aI2
aI3
aI6
aI7
aa(lp159
V0020900711
p160
aVFEB 02, 2010
p161
aVCLE vs. MEM
p162
aVW
p163
aI24
aI3
aI5
aF0.6
aI1
aI1
aF1.0
aI1
aI1
aF1.0
aI0
aI1
aI1
aI2
aI0
aI1
aI0
aI0
aI8
aI17
aa(lp164
V0020900697
p165
aVJAN 31, 2010
p166
aVCLE vs. LAC
p167
aVW
p168
aI25
aI1
aI3
aF0.333
aI1
aI2
aF0.5
aI2
aI2
aF1.0
aI0
aI3
aI3
aI2
aI0
aI0
aI0
aI3
aI5
aI13
aa(lp169
V0020900677
p170
aVJAN 29, 2010
p171
aVCLE @ IND
p172
aVW
p173
aI29
aI2
aI9
aF0.222
aI2
aI7
aF0.286
aI0
aI0
aF0.0
aI0
aI8
aI8
aI0
aI2
aI0
aI1
aI0
aI6
aI12
aa(lp174
V0020900663
p175
aVJAN 27, 2010
p176
aVCLE vs. MIN
p177
aVW
p178
aI26
aI2
aI5
aF0.4
aI1
aI2
aF0.5
aI2
aI2
aF1.0
aI0
aI1
aI1
aI2
aI0
aI0
aI3
aI0
aI7
aI5
aa(lp179
V0020900651
p180
aVJAN 25, 2010
p181
aVCLE @ MIA
p182
aVW
p183
aI39
aI1
aI4
aF0.25
aI0
aI3
aF0.0
aI0
aI0
aF0.0
aI2
aI4
aI6
aI2
aI0
aI0
aI1
aI1
aI2
aI11
aa(lp184
V0020900638
p185
aVJAN 23, 2010
p186
aVCLE vs. OKC
p187
aVW
p188
aI33
aI1
aI7
aF0.143
aI0
aI4
aF0.0
aI0
aI0
aF0.0
aI1
aI2
aI3
aI1
aI1
aI1
aI3
aI4
aI2
aI1
aa(lp189
V0020900621
p190
aVJAN 21, 2010
p191
aVCLE vs. LAL
p192
aVW
p193
aI26
aI3
aI6
aF0.5
aI2
aI3
aF0.667
aI0
aI0
aF0.0
aI0
aI3
aI3
aI0
aI0
aI0
aI0
aI2
aI8
aI2
aa(lp194
V0020900606
p195
aVJAN 19, 2010
p196
aVCLE vs. TOR
p197
aVW
p198
aI25
aI3
aI3
aF1.0
aI2
aI2
aF1.0
aI0
aI0
aF0.0
aI0
aI5
aI5
aI1
aI0
aI0
aI0
aI3
aI8
aI9
aa(lp199
V0020900591
p200
aVJAN 16, 2010
p201
aVCLE @ LAC
p202
aVW
p203
aI34
aI3
aI9
aF0.333
aI2
aI5
aF0.4
aI0
aI0
aF0.0
aI0
aI3
aI3
aI1
aI3
aI0
aI0
aI3
aI8
aI4
aa(lp204
V0020900570
p205
aVJAN 14, 2010
p206
aVCLE @ UTA
p207
aVL
p208
aI28
aI2
aI6
aF0.333
aI1
aI4
aF0.25
aI6
aI8
aF0.75
aI0
aI1
aI1
aI2
aI0
aI0
aI3
aI3
aI11
aI3
aa(lp209
V0020900552
p210
aVJAN 11, 2010
p211
aVCLE @ GSW
p212
aVW
p213
aI32
aI2
aI5
aF0.4
aI1
aI3
aF0.333
aI0
aI0
aF0.0
aI0
aI3
aI3
aI2
aI1
aI1
aI1
aI3
aI5
aI4
aa(lp214
V0020900542
p215
aVJAN 10, 2010
p216
aVCLE @ POR
p217
aVW
p218
aI18
aI1
aI3
aF0.333
aI0
aI1
aF0.0
aI0
aI0
aF0.0
aI0
aI1
aI1
aI0
aI0
aI0
aI1
aI4
aI2
aI5
aa(lp219
V0020900528
p220
aVJAN 08, 2010
p221
aVCLE @ DEN
p222
aVL
p223
aI32
aI3
aI3
aF1.0
aI2
aI2
aF1.0
aI0
aI0
aF0.0
aI0
aI4
aI4
aI4
aI2
aI0
aI1
aI3
aI8
aI9
aa(lp224
V0020900508
p225
aVJAN 06, 2010
p226
aVCLE vs. WAS
p227
aVW
p228
aI22
aI6
aI8
aF0.75
aI4
aI5
aF0.8
aI0
aI1
aF0.0
aI0
aI0
aI0
aI1
aI0
aI2
aI2
aI0
aI16
aI10
aa(lp229
V0020900489
p230
aVJAN 03, 2010
p231
aVCLE vs. CHA
p232
aVL
p233
aI32
aI2
aI5
aF0.4
aI1
aI3
aF0.333
aI0
aI0
aF0.0
aI0
aI2
aI2
aI2
aI0
aI1
aI0
aI0
aI5
aI2
aa(lp234
V0020900477
p235
aVJAN 02, 2010
p236
aVCLE @ NJN
p237
aVW
p238
aI34
aI1
aI6
aF0.167
aI1
aI2
aF0.5
aI3
aI3
aF1.0
aI1
aI3
aI4
aI2
aI1
aI0
aI0
aI3
aI6
aI5
aa(lp239
V0020900459
p240
aVDEC 30, 2009
p241
aVCLE vs. ATL
p242
aVW
p243
aI33
aI3
aI6
aF0.5
aI0
aI1
aF0.0
aI0
aI0
aF0.0
aI0
aI4
aI4
aI2
aI0
aI0
aI0
aI2
aI6
aI7
aa(lp244
V0020900452
p245
aVDEC 29, 2009
p246
aVCLE @ ATL
p247
aVW
p248
aI23
aI4
aI7
aF0.571
aI0
aI1
aF0.0
aI2
aI3
aF0.667
aI0
aI2
aI2
aI1
aI0
aI1
aI0
aI1
aI10
aI-9
aa(lp249
V0020900440
p250
aVDEC 27, 2009
p251
aVCLE vs. HOU
p252
aVW
p253
aI26
aI2
aI6
aF0.333
aI0
aI3
aF0.0
aI0
aI0
aF0.0
aI0
aI4
aI4
aI2
aI0
aI0
aI0
aI0
aI4
aI17
aa(lp254
V0020900426
p255
aVDEC 25, 2009
p256
aVCLE @ LAL
p257
aVW
p258
aI25
aI1
aI6
aF0.167
aI0
aI4
aF0.0
aI2
aI3
aF0.667
aI0
aI3
aI3
aI2
aI0
aI2
aI1
aI2
aI4
aI11
aa(lp259
V0020900423
p260
aVDEC 23, 2009
p261
aVCLE @ SAC
p262
aVW
p263
aI34
aI2
aI5
aF0.4
aI1
aI1
aF1.0
aI2
aI2
aF1.0
aI0
aI3
aI3
aI3
aI1
aI1
aI0
aI1
aI7
aI11
aa(lp264
V0020900404
p265
aVDEC 21, 2009
p266
aVCLE @ PHX
p267
aVW
p268
aI35
aI3
aI6
aF0.5
aI1
aI3
aF0.333
aI0
aI0
aF0.0
aI0
aI5
aI5
aI3
aI0
aI0
aI0
aI0
aI7
aI19
aa(lp269
V0020900398
p270
aVDEC 20, 2009
p271
aVCLE @ DAL
p272
aVL
p273
aI33
aI5
aI7
aF0.714
aI2
aI3
aF0.667
aI0
aI0
aF0.0
aI0
aI3
aI3
aI2
aI0
aI0
aI1
aI0
aI12
aI-5
aa(lp274
V0020900376
p275
aVDEC 18, 2009
p276
aVCLE vs. MIL
p277
aVW
p278
aI22
aI1
aI4
aF0.25
aI1
aI2
aF0.5
aI0
aI0
aF0.0
aI1
aI3
aI4
aI1
aI1
aI0
aI0
aI0
aI3
aI7
aa(lp279
V0020900361
p280
aVDEC 16, 2009
p281
aVCLE @ PHI
p282
aVW
p283
aI16
aI2
aI3
aF0.667
aI1
aI2
aF0.5
aI1
aI2
aF0.5
aI0
aI1
aI1
aI1
aI1
aI0
aI1
aI1
aI6
aI7
aa(lp284
V0020900352
p285
aVDEC 15, 2009
p286
aVCLE vs. NJN
p287
aVW
p288
aI21
aI2
aI4
aF0.5
aI1
aI2
aF0.5
aI0
aI0
aF0.0
aI0
aI0
aI0
aI4
aI1
aI0
aI0
aI0
aI5
aI-4
aa(lp289
V0020900342
p290
aVDEC 13, 2009
p291
aVCLE @ OKC
p292
aVW
p293
aI28
aI2
aI5
aF0.4
aI1
aI3
aF0.333
aI0
aI0
aF0.0
aI0
aI2
aI2
aI0
aI1
aI1
aI1
aI3
aI5
aI7
aa(lp294
V0020900325
p295
aVDEC 11, 2009
p296
aVCLE vs. POR
p297
aVW
p298
aI37
aI2
aI3
aF0.667
aI2
aI3
aF0.667
aI0
aI0
aF0.0
aI0
aI2
aI2
aI1
aI1
aI0
aI0
aI3
aI6
aI5
aa(lp299
V0020900314
p300
aVDEC 09, 2009
p301
aVCLE @ HOU
p302
aVL
p303
aI26
aI1
aI2
aF0.5
aI1
aI1
aF1.0
aI0
aI0
aF0.0
aI0
aI0
aI0
aI1
aI0
aI0
aI2
aI1
aI3
aI-15
aa(lp304
V0020900304
p305
aVDEC 08, 2009
p306
aVCLE @ MEM
p307
aVL
p308
aI23
aI1
aI3
aF0.333
aI0
aI2
aF0.0
aI0
aI0
aF0.0
aI1
aI1
aI2
aI1
aI0
aI0
aI0
aI1
aI2
aI-11
aa(lp309
V0020900292
p310
aVDEC 06, 2009
p311
aVCLE @ MIL
p312
aVW
p313
aI32
aI3
aI7
aF0.429
aI2
aI3
aF0.667
aI0
aI0
aF0.0
aI0
aI6
aI6
aI2
aI0
aI0
aI1
aI2
aI8
aI12
aa(lp314
V0020900274
p315
aVDEC 04, 2009
p316
aVCLE vs. CHI
p317
aVW
p318
aI26
aI2
aI5
aF0.4
aI1
aI3
aF0.333
aI1
aI2
aF0.5
aI3
aI3
aI6
aI4
aI0
aI0
aI2
aI2
aI6
aI9
aa(lp319
V0020900260
p320
aVDEC 02, 2009
p321
aVCLE vs. PHX
p322
aVW
p323
aI24
aI4
aI7
aF0.571
aI2
aI5
aF0.4
aI0
aI0
aF0.0
aI0
aI3
aI3
aI0
aI0
aI0
aI0
aI2
aI10
aI11
aa(lp324
V0020900235
p325
aVNOV 28, 2009
p326
aVCLE vs. DAL
p327
aVW
p328
aI21
aI3
aI6
aF0.5
aI1
aI2
aF0.5
aI1
aI1
aF1.0
aI0
aI2
aI2
aI2
aI1
aI0
aI0
aI2
aI8
aI5
aa(lp329
V0020900222
p330
aVNOV 27, 2009
p331
aVCLE @ CHA
p332
aVL
p333
aI22
aI0
aI4
aF0.0
aI0
aI3
aF0.0
aI0
aI0
aF0.0
aI0
aI3
aI3
aI1
aI0
aI1
aI0
aI0
aI0
aI-16
aa(lp334
V0020900212
p335
aVNOV 25, 2009
p336
aVCLE @ DET
p337
aVW
p338
aI28
aI4
aI5
aF0.8
aI2
aI2
aF1.0
aI3
aI4
aF0.75
aI1
aI2
aI3
aI1
aI0
aI0
aI3
aI3
aI13
aI1
aa(lp339
V0020900184
p340
aVNOV 21, 2009
p341
aVCLE vs. PHI
p342
aVW
p343
aI28
aI1
aI5
aF0.2
aI0
aI3
aF0.0
aI2
aI2
aF1.0
aI1
aI3
aI4
aI3
aI0
aI0
aI1
aI1
aI4
aI8
aa(lp344
V0020900173
p345
aVNOV 20, 2009
p346
aVCLE @ IND
p347
aVW
p348
aI34
aI5
aI6
aF0.833
aI2
aI3
aF0.667
aI0
aI0
aF0.0
aI0
aI5
aI5
aI1
aI1
aI0
aI1
aI3
aI12
aI3
aa(lp349
V0020900162
p350
aVNOV 18, 2009
p351
aVCLE @ WAS
p352
aVL
p353
aI31
aI2
aI7
aF0.286
aI2
aI5
aF0.4
aI0
aI0
aF0.0
aI1
aI3
aI4
aI1
aI0
aI0
aI2
aI1
aI6
aI-4
aa(lp354
V0020900150
p355
aVNOV 17, 2009
p356
aVCLE vs. GSW
p357
aVW
p358
aI29
aI3
aI8
aF0.375
aI2
aI5
aF0.4
aI1
aI1
aF1.0
aI0
aI2
aI2
aI2
aI2
aI1
aI1
aI1
aI9
aI5
aa(lp359
V0020900137
p360
aVNOV 14, 2009
p361
aVCLE vs. UTA
p362
aVW
p363
aI35
aI5
aI7
aF0.714
aI4
aI6
aF0.667
aI0
aI0
aF0.0
aI1
aI1
aI2
aI3
aI0
aI0
aI0
aI1
aI14
aI8
aa(lp364
V0020900122
p365
aVNOV 12, 2009
p366
aVCLE @ MIA
p367
aVW
p368
aI24
aI1
aI7
aF0.143
aI1
aI3
aF0.333
aI0
aI0
aF0.0
aI0
aI2
aI2
aI0
aI2
aI0
aI2
aI4
aI3
aI0
aa(lp369
V0020900117
p370
aVNOV 11, 2009
p371
aVCLE @ ORL
p372
aVW
p373
aI28
aI3
aI3
aF1.0
aI3
aI3
aF1.0
aI0
aI0
aF0.0
aI0
aI1
aI1
aI0
aI3
aI0
aI2
aI3
aI9
aI0
aa(lp374
V0020900080
p375
aVNOV 06, 2009
p376
aVCLE @ NYK
p377
aVW
p378
aI24
aI2
aI3
aF0.667
aI2
aI3
aF0.667
aI1
aI2
aF0.5
aI0
aI1
aI1
aI2
aI0
aI0
aI1
aI2
aI7
aI-2
aa(lp379
V0020900070
p380
aVNOV 05, 2009
p381
aVCLE vs. CHI
p382
aVL
p383
aI35
aI4
aI9
aF0.444
aI3
aI3
aF1.0
aI0
aI0
aF0.0
aI1
aI3
aI4
aI3
aI2
aI1
aI1
aI2
aI11
aI-4
aa(lp384
V0020900051
p385
aVNOV 03, 2009
p386
aVCLE vs. WAS
p387
aVW
p388
aI28
aI2
aI12
aF0.167
aI1
aI6
aF0.167
aI0
aI0
aF0.0
aI0
aI0
aI0
aI1
aI0
aI0
aI0
aI3
aI5
aI16
aa(lp389
V0020900033
p390
aVOCT 31, 2009
p391
aVCLE vs. CHA
p392
aVW
p393
aI31
aI5
aI8
aF0.625
aI3
aI4
aF0.75
aI0
aI0
aF0.0
aI0
aI2
aI2
aI2
aI2
aI0
aI1
aI3
aI13
aI2
aa(lp394
V0020900026
p395
aVOCT 30, 2009
p396
aVCLE @ MIN
p397
aVW
p398
aI33
aI2
aI7
aF0.286
aI1
aI3
aF0.333
aI1
aI1
aF1.0
aI1
aI1
aI2
aI3
aI3
aI0
aI1
aI2
aI6
aI23
aa(lp399
V0020900007
p400
aVOCT 28, 2009
p401
aVCLE @ TOR
p402
aVL
p403
aI38
aI4
aI12
aF0.333
aI2
aI3
aF0.667
aI2
aI2
aF1.0
aI0
aI5
aI5
aI1
aI0
aI1
aI3
aI3
aI12
aI-7
aa(lp404
V0020900001
p405
aVOCT 27, 2009
p406
aVCLE vs. BOS
p407
aVL
p408
aI40
aI3
aI9
aF0.333
aI2
aI3
aF0.667
aI2
aI2
aF1.0
aI0
aI3
aI3
aI4
aI1
aI2
aI3
aI0
aI10
aI3
aasS'name'
p409
VAnthony Parker
p410
sS'experience'
p411
I12
s.