(dp0
S'stats'
p1
(lp2
(lp3
V0020900148
p4
aVNOV 16, 2009
p5
aVORL vs. CHA
p6
aVW
p7
aI34
aI4
aI15
aF0.267
aI0
aI6
aF0.0
aI2
aI2
aF1.0
aI0
aI2
aI2
aI1
aI1
aI0
aI3
aI5
aI10
aI-6
aa(lp8
V0020900160
p9
aVNOV 18, 2009
p10
aVORL vs. OKC
p11
aVW
p12
aI33
aI7
aI16
aF0.438
aI2
aI6
aF0.333
aI1
aI2
aF0.5
aI1
aI9
aI10
aI9
aI2
aI0
aI1
aI0
aI17
aI29
aa(lp13
V0020900177
p14
aVNOV 20, 2009
p15
aVORL @ BOS
p16
aVW
p17
aI36
aI5
aI11
aF0.455
aI2
aI5
aF0.4
aI4
aI5
aF0.8
aI0
aI10
aI10
aI1
aI1
aI1
aI1
aI4
aI16
aI13
aa(lp18
V0020900192
p19
aVNOV 22, 2009
p20
aVORL @ TOR
p21
aVW
p22
aI28
aI4
aI12
aF0.333
aI0
aI6
aF0.0
aI3
aI3
aF1.0
aI2
aI2
aI4
aI3
aI0
aI0
aI0
aI5
aI11
aI-1
aa(lp23
V0020900211
p24
aVNOV 25, 2009
p25
aVORL vs. MIA
p26
aVL
p27
aI33
aI3
aI15
aF0.2
aI1
aI6
aF0.167
aI2
aI3
aF0.667
aI2
aI3
aI5
aI2
aI0
aI0
aI3
aI0
aI9
aI2
aa(lp28
V0020900220
p29
aVNOV 26, 2009
p30
aVORL @ ATL
p31
aVW
p32
aI35
aI6
aI16
aF0.375
aI2
aI5
aF0.4
aI0
aI0
aF0.0
aI2
aI3
aI5
aI1
aI0
aI0
aI1
aI2
aI14
aI11
aa(lp33
V0020900236
p34
aVNOV 28, 2009
p35
aVORL @ MIL
p36
aVW
p37
aI32
aI6
aI9
aF0.667
aI2
aI3
aF0.667
aI0
aI1
aF0.0
aI4
aI5
aI9
aI0
aI0
aI2
aI1
aI5
aI14
aI7
aa(lp38
V0020900243
p39
aVNOV 29, 2009
p40
aVORL @ NYK
p41
aVW
p42
aI30
aI8
aI15
aF0.533
aI5
aI9
aF0.556
aI5
aI5
aF1.0
aI1
aI7
aI8
aI1
aI0
aI1
aI2
aI3
aI26
aI16
aa(lp43
V0020900261
p44
aVDEC 02, 2009
p45
aVORL vs. NYK
p46
aVW
p47
aI33
aI6
aI8
aF0.75
aI5
aI7
aF0.714
aI3
aI3
aF1.0
aI0
aI11
aI11
aI3
aI0
aI1
aI1
aI2
aI20
aI23
aa(lp48
V0020900289
p49
aVDEC 05, 2009
p50
aVORL @ GSW
p51
aVW
p52
aI42
aI6
aI12
aF0.5
aI3
aI7
aF0.429
aI5
aI6
aF0.833
aI0
aI4
aI4
aI4
aI1
aI0
aI2
aI4
aI20
aI5
aa(lp53
V0020900307
p54
aVDEC 08, 2009
p55
aVORL @ LAC
p56
aVW
p57
aI39
aI5
aI11
aF0.455
aI4
aI7
aF0.571
aI3
aI3
aF1.0
aI0
aI4
aI4
aI2
aI1
aI0
aI2
aI1
aI17
aI4
aa(lp58
V0020900319
p59
aVDEC 10, 2009
p60
aVORL @ UTA
p61
aVL
p62
aI27
aI3
aI8
aF0.375
aI3
aI6
aF0.5
aI1
aI3
aF0.333
aI0
aI4
aI4
aI1
aI3
aI1
aI0
aI2
aI10
aI-18
aa(lp63
V0020900330
p64
aVDEC 11, 2009
p65
aVORL @ PHX
p66
aVL
p67
aI38
aI6
aI16
aF0.375
aI3
aI11
aF0.273
aI9
aI9
aF1.0
aI3
aI3
aI6
aI2
aI0
aI1
aI1
aI2
aI24
aI-6
aa(lp68
V0020900344
p69
aVDEC 14, 2009
p70
aVORL vs. IND
p71
aVW
p72
aI27
aI4
aI10
aF0.4
aI2
aI5
aF0.4
aI0
aI0
aF0.0
aI0
aI3
aI3
aI0
aI1
aI0
aI1
aI3
aI10
aI2
aa(lp73
V0020900360
p74
aVDEC 16, 2009
p75
aVORL vs. TOR
p76
aVW
p77
aI32
aI8
aI13
aF0.615
aI5
aI8
aF0.625
aI0
aI0
aF0.0
aI0
aI2
aI2
aI0
aI0
aI0
aI0
aI2
aI21
aI16
aa(lp78
V0020900371
p79
aVDEC 17, 2009
p80
aVORL @ MIA
p81
aVL
p82
aI30
aI3
aI9
aF0.333
aI2
aI5
aF0.4
aI1
aI2
aF0.5
aI1
aI2
aI3
aI1
aI1
aI0
aI1
aI2
aI9
aI-27
aa(lp83
V0020900385
p84
aVDEC 19, 2009
p85
aVORL vs. POR
p86
aVW
p87
aI34
aI5
aI10
aF0.5
aI2
aI5
aF0.4
aI3
aI4
aF0.75
aI1
aI5
aI6
aI1
aI2
aI0
aI5
aI1
aI15
aI0
aa(lp88
V0020900401
p89
aVDEC 21, 2009
p90
aVORL vs. UTA
p91
aVW
p92
aI35
aI7
aI14
aF0.5
aI4
aI8
aF0.5
aI0
aI2
aF0.0
aI0
aI4
aI4
aI2
aI1
aI1
aI1
aI2
aI18
aI10
aa(lp93
V0020900414
p94
aVDEC 23, 2009
p95
aVORL vs. HOU
p96
aVW
p97
aI29
aI5
aI11
aF0.455
aI4
aI7
aF0.571
aI1
aI2
aF0.5
aI0
aI2
aI2
aI1
aI3
aI0
aI0
aI3
aI15
aI15
aa(lp98
V0020900425
p99
aVDEC 25, 2009
p100
aVORL vs. BOS
p101
aVL
p102
aI37
aI5
aI14
aF0.357
aI3
aI8
aF0.375
aI6
aI7
aF0.857
aI1
aI2
aI3
aI0
aI1
aI0
aI2
aI1
aI19
aI-5
aa(lp103
V0020900461
p104
aVDEC 30, 2009
p105
aVORL vs. MIL
p106
aVW
p107
aI32
aI2
aI6
aF0.333
aI2
aI4
aF0.5
aI2
aI2
aF1.0
aI1
aI6
aI7
aI2
aI0
aI2
aI1
aI1
aI8
aI8
aa(lp108
V0020900475
p109
aVJAN 01, 2010
p110
aVORL @ MIN
p111
aVW
p112
aI27
aI7
aI12
aF0.583
aI5
aI10
aF0.5
aI2
aI2
aF1.0
aI0
aI2
aI2
aI1
aI0
aI1
aI1
aI4
aI21
aI-5
aa(lp113
V0020900482
p114
aVJAN 02, 2010
p115
aVORL @ CHI
p116
aVL
p117
aI29
aI2
aI9
aF0.222
aI2
aI6
aF0.333
aI1
aI2
aF0.5
aI0
aI5
aI5
aI0
aI1
aI0
aI3
aI1
aI7
aI-18
aa(lp118
V0020900499
p119
aVJAN 05, 2010
p120
aVORL @ IND
p121
aVL
p122
aI34
aI2
aI8
aF0.25
aI0
aI2
aF0.0
aI0
aI2
aF0.0
aI1
aI4
aI5
aI1
aI2
aI3
aI0
aI2
aI4
aI-7
aa(lp123
V0020900509
p124
aVJAN 06, 2010
p125
aVORL vs. TOR
p126
aVL
p127
aI40
aI7
aI15
aF0.467
aI5
aI10
aF0.5
aI5
aI5
aF1.0
aI2
aI3
aI5
aI1
aI5
aI0
aI3
aI3
aI24
aI-8
aa(lp128
V0020900519
p129
aVJAN 08, 2010
p130
aVORL @ WAS
p131
aVL
p132
aI30
aI4
aI13
aF0.308
aI0
aI4
aF0.0
aI0
aI0
aF0.0
aI1
aI3
aI4
aI1
aI1
aI0
aI2
aI6
aI8
aI-5
aa(lp133
V0020900531
p134
aVJAN 09, 2010
p135
aVORL vs. ATL
p136
aVW
p137
aI26
aI4
aI8
aF0.5
aI2
aI5
aF0.4
aI3
aI4
aF0.75
aI0
aI0
aI0
aI1
aI1
aI0
aI2
aI0
aI13
aI13
aa(lp138
V0020900557
p139
aVJAN 12, 2010
p140
aVORL @ SAC
p141
aVW
p142
aI29
aI2
aI8
aF0.25
aI1
aI4
aF0.25
aI2
aI2
aF1.0
aI0
aI2
aI2
aI0
aI0
aI1
aI1
aI2
aI7
aI-1
aa(lp143
V0020900566
p144
aVJAN 13, 2010
p145
aVORL @ DEN
p146
aVL
p147
aI23
aI3
aI9
aF0.333
aI0
aI3
aF0.0
aI0
aI1
aF0.0
aI1
aI1
aI2
aI3
aI0
aI1
aI1
aI4
aI6
aI-17
aa(lp148
V0020900583
p149
aVJAN 15, 2010
p150
aVORL @ POR
p151
aVL
p152
aI34
aI7
aI13
aF0.538
aI1
aI5
aF0.2
aI0
aI0
aF0.0
aI1
aI4
aI5
aI1
aI1
aI1
aI3
aI3
aI15
aI-16
aa(lp153
V0020900605
p154
aVJAN 18, 2010
p155
aVORL @ LAL
p156
aVL
p157
aI36
aI6
aI11
aF0.545
aI3
aI7
aF0.429
aI3
aI4
aF0.75
aI2
aI3
aI5
aI1
aI0
aI0
aI3
aI4
aI18
aI6
aa(lp158
V0020900610
p159
aVJAN 20, 2010
p160
aVORL vs. IND
p161
aVW
p162
aI39
aI7
aI16
aF0.438
aI3
aI7
aF0.429
aI1
aI2
aF0.5
aI1
aI6
aI7
aI0
aI1
aI1
aI0
aI3
aI18
aI10
aa(lp163
V0020900623
p164
aVJAN 22, 2010
p165
aVORL vs. SAC
p166
aVW
p167
aI27
aI5
aI13
aF0.385
aI2
aI5
aF0.4
aI3
aI5
aF0.6
aI3
aI3
aI6
aI2
aI0
aI1
aI4
aI4
aI15
aI19
aa(lp168
V0020900636
p169
aVJAN 23, 2010
p170
aVORL @ CHA
p171
aVW
p172
aI42
aI6
aI17
aF0.353
aI4
aI13
aF0.308
aI2
aI2
aF1.0
aI0
aI5
aI5
aI6
aI3
aI0
aI2
aI5
aI18
aI8
aa(lp173
V0020900652
p174
aVJAN 25, 2010
p175
aVORL @ MEM
p176
aVL
p177
aI38
aI6
aI16
aF0.375
aI4
aI8
aF0.5
aI3
aI3
aF1.0
aI4
aI1
aI5
aI3
aI2
aI0
aI3
aI2
aI19
aI-14
aa(lp178
V0020900675
p179
aVJAN 28, 2010
p180
aVORL vs. BOS
p181
aVW
p182
aI36
aI8
aI13
aF0.615
aI2
aI3
aF0.667
aI5
aI6
aF0.833
aI3
aI5
aI8
aI0
aI0
aI0
aI2
aI1
aI23
aI-7
aa(lp183
V0020900689
p184
aVJAN 30, 2010
p185
aVORL vs. ATL
p186
aVW
p187
aI31
aI6
aI10
aF0.6
aI3
aI7
aF0.429
aI2
aI2
aF1.0
aI0
aI3
aI3
aI0
aI0
aI0
aI1
aI1
aI17
aI13
aa(lp188
V0020900698
p189
aVJAN 31, 2010
p190
aVORL @ DET
p191
aVW
p192
aI31
aI5
aI7
aF0.714
aI3
aI4
aF0.75
aI2
aI2
aF1.0
aI0
aI7
aI7
aI4
aI0
aI0
aI3
aI5
aI15
aI9
aa(lp193
V0020900713
p194
aVFEB 02, 2010
p195
aVORL vs. MIL
p196
aVW
p197
aI32
aI5
aI16
aF0.313
aI2
aI4
aF0.5
aI1
aI2
aF0.5
aI0
aI4
aI4
aI0
aI0
aI0
aI0
aI3
aI13
aI6
aa(lp198
V0020900732
p199
aVFEB 05, 2010
p200
aVORL vs. WAS
p201
aVL
p202
aI35
aI5
aI10
aF0.5
aI2
aI5
aF0.4
aI0
aI0
aF0.0
aI0
aI5
aI5
aI0
aI2
aI0
aI1
aI2
aI12
aI-2
aa(lp203
V0020900754
p204
aVFEB 07, 2010
p205
aVORL @ BOS
p206
aVW
p207
aI37
aI5
aI13
aF0.385
aI2
aI3
aF0.667
aI2
aI2
aF1.0
aI1
aI1
aI2
aI2
aI2
aI0
aI2
aI2
aI14
aI8
aa(lp208
V0020900755
p209
aVFEB 08, 2010
p210
aVORL vs. NOH
p211
aVW
p212
aI37
aI5
aI9
aF0.556
aI3
aI5
aF0.6
aI5
aI6
aF0.833
aI1
aI3
aI4
aI0
aI2
aI0
aI1
aI4
aI18
aI12
aa(lp213
V0020900773
p214
aVFEB 10, 2010
p215
aVORL @ CHI
p216
aVW
p217
aI28
aI4
aI11
aF0.364
aI1
aI7
aF0.143
aI2
aI2
aF1.0
aI0
aI1
aI1
aI2
aI3
aI0
aI2
aI2
aI11
aI18
aa(lp218
V0020900779
p219
aVFEB 11, 2010
p220
aVORL @ CLE
p221
aVL
p222
aI34
aI6
aI14
aF0.429
aI3
aI9
aF0.333
aI4
aI6
aF0.667
aI1
aI3
aI4
aI0
aI0
aI0
aI2
aI3
aI19
aI-4
aa(lp223
V0020900792
p224
aVFEB 17, 2010
p225
aVORL vs. DET
p226
aVW
p227
aI34
aI5
aI13
aF0.385
aI2
aI5
aF0.4
aI1
aI1
aF1.0
aI2
aI3
aI5
aI1
aI3
aI0
aI1
aI3
aI13
aI14
aa(lp228
V0020900812
p229
aVFEB 19, 2010
p230
aVORL vs. DAL
p231
aVL
p232
aI37
aI4
aI10
aF0.4
aI2
aI7
aF0.286
aI2
aI2
aF1.0
aI0
aI2
aI2
aI1
aI2
aI0
aI2
aI2
aI12
aI6
aa(lp233
V0020900823
p234
aVFEB 21, 2010
p235
aVORL vs. CLE
p236
aVW
p237
aI37
aI5
aI12
aF0.417
aI2
aI6
aF0.333
aI3
aI4
aF0.75
aI0
aI4
aI4
aI2
aI2
aI0
aI0
aI2
aI15
aI5
aa(lp238
V0020900850
p239
aVFEB 24, 2010
p240
aVORL @ HOU
p241
aVW
p242
aI39
aI6
aI15
aF0.4
aI1
aI5
aF0.2
aI0
aI0
aF0.0
aI2
aI2
aI4
aI1
aI4
aI0
aI0
aI1
aI13
aI4
aa(lp243
V0020900864
p244
aVFEB 26, 2010
p245
aVORL @ NOH
p246
aVL
p247
aI37
aI3
aI11
aF0.273
aI2
aI9
aF0.222
aI1
aI2
aF0.5
aI2
aI5
aI7
aI1
aI2
aI0
aI3
aI2
aI9
aI-5
aa(lp248
V0020900883
p249
aVFEB 28, 2010
p250
aVORL vs. MIA
p251
aVW
p252
aI32
aI8
aI14
aF0.571
aI2
aI7
aF0.286
aI4
aI4
aF1.0
aI0
aI2
aI2
aI2
aI1
aI0
aI1
aI2
aI22
aI11
aa(lp253
V0020900888
p254
aVMAR 01, 2010
p255
aVORL @ PHI
p256
aVW
p257
aI35
aI8
aI12
aF0.667
aI3
aI4
aF0.75
aI0
aI0
aF0.0
aI0
aI2
aI2
aI2
aI1
aI0
aI1
aI3
aI19
aI20
aa(lp258
V0020900900
p259
aVMAR 03, 2010
p260
aVORL vs. GSW
p261
aVW
p262
aI27
aI5
aI10
aF0.5
aI3
aI7
aF0.429
aI4
aI4
aF1.0
aI1
aI3
aI4
aI1
aI1
aI0
aI1
aI1
aI17
aI11
aa(lp263
V0020900920
p264
aVMAR 05, 2010
p265
aVORL @ NJN
p266
aVW
p267
aI35
aI3
aI14
aF0.214
aI1
aI6
aF0.167
aI2
aI2
aF1.0
aI2
aI6
aI8
aI4
aI2
aI0
aI1
aI2
aI9
aI16
aa(lp268
V0020900935
p269
aVMAR 07, 2010
p270
aVORL vs. LAL
p271
aVW
p272
aI39
aI4
aI13
aF0.308
aI4
aI9
aF0.444
aI0
aI1
aF0.0
aI1
aI5
aI6
aI3
aI0
aI0
aI4
aI3
aI12
aI-2
aa(lp273
V0020900947
p274
aVMAR 09, 2010
p275
aVORL vs. LAC
p276
aVW
p277
aI31
aI6
aI11
aF0.545
aI1
aI4
aF0.25
aI2
aI2
aF1.0
aI0
aI1
aI1
aI2
aI1
aI0
aI1
aI1
aI15
aI26
aa(lp278
V0020900962
p279
aVMAR 11, 2010
p280
aVORL vs. CHI
p281
aVW
p282
aI27
aI3
aI7
aF0.429
aI0
aI3
aF0.0
aI0
aI0
aF0.0
aI1
aI5
aI6
aI0
aI2
aI0
aI1
aI0
aI6
aI16
aa(lp283
V0020900977
p284
aVMAR 13, 2010
p285
aVORL @ WAS
p286
aVW
p287
aI18
aI1
aI4
aF0.25
aI1
aI1
aF1.0
aI0
aI0
aF0.0
aI1
aI1
aI2
aI0
aI0
aI0
aI1
aI4
aI3
aI10
aa(lp288
V0020900986
p289
aVMAR 14, 2010
p290
aVORL vs. CHA
p291
aVL
p292
aI34
aI1
aI7
aF0.143
aI1
aI6
aF0.167
aI0
aI0
aF0.0
aI0
aI2
aI2
aI1
aI3
aI0
aI3
aI4
aI3
aI-15
aa(lp293
V0020901010
p294
aVMAR 17, 2010
p295
aVORL vs. SAS
p296
aVW
p297
aI32
aI7
aI10
aF0.7
aI4
aI6
aF0.667
aI2
aI2
aF1.0
aI0
aI4
aI4
aI1
aI0
aI1
aI1
aI1
aI20
aI11
aa(lp298
V0020901016
p299
aVMAR 18, 2010
p300
aVORL @ MIA
p301
aVW
p302
aI43
aI8
aI17
aF0.471
aI4
aI8
aF0.5
aI4
aI4
aF1.0
aI2
aI9
aI11
aI1
aI0
aI2
aI2
aI1
aI24
aI10
aa(lp303
V0020901043
p304
aVMAR 22, 2010
p305
aVORL @ PHI
p306
aVW
p307
aI39
aI8
aI12
aF0.667
aI3
aI7
aF0.429
aI5
aI6
aF0.833
aI0
aI4
aI4
aI2
aI0
aI1
aI0
aI0
aI24
aI14
aa(lp308
V0020901057
p309
aVMAR 24, 2010
p310
aVORL @ ATL
p311
aVL
p312
aI41
aI2
aI9
aF0.222
aI0
aI4
aF0.0
aI2
aI2
aF1.0
aI1
aI4
aI5
aI3
aI0
aI0
aI2
aI2
aI6
aI-2
aa(lp313
V0020901073
p314
aVMAR 26, 2010
p315
aVORL vs. MIN
p316
aVW
p317
aI24
aI4
aI10
aF0.4
aI2
aI6
aF0.333
aI0
aI0
aF0.0
aI0
aI1
aI1
aI0
aI0
aI0
aI2
aI3
aI10
aI9
aa(lp318
V0020901092
p319
aVMAR 28, 2010
p320
aVORL vs. DEN
p321
aVW
p322
aI38
aI4
aI11
aF0.364
aI1
aI5
aF0.2
aI1
aI1
aF1.0
aI1
aI4
aI5
aI1
aI1
aI2
aI2
aI5
aI10
aI8
aa(lp323
V0020901120
p324
aVAPR 01, 2010
p325
aVORL @ DAL
p326
aVW
p327
aI31
aI2
aI6
aF0.333
aI2
aI4
aF0.5
aI0
aI0
aF0.0
aI0
aI3
aI3
aI1
aI0
aI0
aI1
aI5
aI6
aI11
aa(lp328
V0020901129
p329
aVAPR 02, 2010
p330
aVORL @ SAS
p331
aVL
p332
aI42
aI7
aI11
aF0.636
aI4
aI7
aF0.571
aI0
aI0
aF0.0
aI2
aI1
aI3
aI3
aI0
aI1
aI1
aI2
aI18
aI-17
aa(lp333
V0020901144
p334
aVAPR 04, 2010
p335
aVORL vs. MEM
p336
aVW
p337
aI27
aI6
aI8
aF0.75
aI5
aI7
aF0.714
aI1
aI2
aF0.5
aI1
aI2
aI3
aI1
aI2
aI2
aI3
aI4
aI18
aI7
aa(lp338
V0020901166
p339
aVAPR 07, 2010
p340
aVORL vs. WAS
p341
aVW
p342
aI24
aI3
aI7
aF0.429
aI1
aI3
aF0.333
aI3
aI4
aF0.75
aI1
aI2
aI3
aI1
aI1
aI0
aI0
aI1
aI10
aI2
aa(lp343
V0020901174
p344
aVAPR 09, 2010
p345
aVORL vs. NYK
p346
aVW
p347
aI26
aI3
aI5
aF0.6
aI1
aI1
aF1.0
aI0
aI0
aF0.0
aI1
aI2
aI3
aI3
aI3
aI0
aI1
aI4
aI7
aI9
aa(lp348
V0020901195
p349
aVAPR 11, 2010
p350
aVORL @ CLE
p351
aVW
p352
aI25
aI4
aI8
aF0.5
aI3
aI5
aF0.6
aI0
aI0
aF0.0
aI0
aI0
aI0
aI1
aI0
aI0
aI2
aI3
aI11
aI12
aa(lp353
V0020901202
p354
aVAPR 12, 2010
p355
aVORL @ IND
p356
aVW
p357
aI33
aI3
aI8
aF0.375
aI3
aI6
aF0.5
aI5
aI5
aF1.0
aI0
aI6
aI6
aI0
aI2
aI0
aI0
aI2
aI14
aI26
aa(lp358
V0020901225
p359
aVAPR 14, 2010
p360
aVORL vs. PHI
p361
aVW
p362
aI28
aI2
aI8
aF0.25
aI1
aI5
aF0.2
aI4
aI6
aF0.667
aI0
aI4
aI4
aI2
aI1
aI0
aI0
aI1
aI9
aI17
aasS'name'
p363
VRashard Lewis
p364
sS'weight'
p365
V235
p366
sS'age'
p367
I30
sS'experience'
p368
I11
sS'height'
p369
V6-10
p370
sS'position'
p371
VForward
p372
s.