(dp0
S'age'
p1
I28
sS'stats'
p2
(lp3
(lp4
V0020901021
p5
aVMAR 19, 2010
p6
aVNYK vs. PHI
p7
aVW
p8
aI9
aI2
aI5
aF0.4
aI0
aI0
aF0.0
aI0
aI0
aF0.0
aI1
aI1
aI2
aI0
aI0
aI0
aI0
aI1
aI4
aI-1
aa(lp9
V0020901009
p10
aVMAR 17, 2010
p11
aVNYK @ BOS
p12
aVL
p13
aI8
aI3
aI3
aF1.0
aI1
aI1
aF1.0
aI1
aI1
aF1.0
aI0
aI3
aI3
aI0
aI0
aI0
aI1
aI0
aI8
aI5
aa(lp14
V0020900927
p15
aVMAR 06, 2010
p16
aVNYK vs. NJN
p17
aVL
p18
aI4
aI1
aI2
aF0.5
aI0
aI0
aF0.0
aI0
aI0
aF0.0
aI0
aI1
aI1
aI0
aI0
aI1
aI0
aI2
aI2
aI-9
aa(lp19
V0020900887
p20
aVMAR 01, 2010
p21
aVNYK @ CLE
p22
aVL
p23
aI16
aI2
aI4
aF0.5
aI0
aI1
aF0.0
aI0
aI0
aF0.0
aI0
aI2
aI2
aI0
aI1
aI2
aI2
aI1
aI4
aI15
aa(lp24
V0020900833
p25
aVFEB 22, 2010
p26
aVNYK vs. MIL
p27
aVL
p28
aI13
aI2
aI4
aF0.5
aI0
aI2
aF0.0
aI3
aI3
aF1.0
aI1
aI4
aI5
aI0
aI0
aI0
aI3
aI2
aI7
aI-1
aa(lp29
V0020900817
p30
aVFEB 20, 2010
p31
aVNYK vs. OKC
p32
aVL
p33
aI13
aI2
aI6
aF0.333
aI1
aI4
aF0.25
aI0
aI0
aF0.0
aI1
aI2
aI3
aI2
aI0
aI1
aI0
aI3
aI5
aI2
aa(lp34
V0020900796
p35
aVFEB 17, 2010
p36
aVNYK vs. CHI
p37
aVL
p38
aI9
aI1
aI2
aF0.5
aI0
aI1
aF0.0
aI0
aI0
aF0.0
aI0
aI1
aI1
aI0
aI1
aI0
aI3
aI2
aI2
aI0
aa(lp39
V0020900784
p40
aVFEB 16, 2010
p41
aVNYK @ CHI
p42
aVL
p43
aI8
aI0
aI2
aF0.0
aI0
aI1
aF0.0
aI4
aI6
aF0.667
aI1
aI1
aI2
aI0
aI0
aI1
aI0
aI1
aI4
aI-5
aa(lp44
V0020900702
p45
aVJAN 31, 2010
p46
aVNYK @ MIN
p47
aVL
p48
aI7
aI0
aI2
aF0.0
aI0
aI0
aF0.0
aI0
aI0
aF0.0
aI0
aI0
aI0
aI1
aI0
aI0
aI1
aI1
aI0
aI-8
aa(lp49
V0020900691
p50
aVJAN 30, 2010
p51
aVNYK @ WAS
p52
aVL
p53
aI9
aI0
aI3
aF0.0
aI0
aI1
aF0.0
aI0
aI0
aF0.0
aI1
aI1
aI2
aI1
aI0
aI0
aI0
aI1
aI0
aI-7
aa(lp54
V0020900659
p55
aVJAN 26, 2010
p56
aVNYK vs. MIN
p57
aVW
p58
aI12
aI4
aI10
aF0.4
aI4
aI7
aF0.571
aI2
aI2
aF1.0
aI1
aI0
aI1
aI0
aI0
aI2
aI0
aI3
aI14
aI-5
aa(lp59
V0020900646
p60
aVJAN 24, 2010
p61
aVNYK vs. DAL
p62
aVL
p63
aI16
aI3
aI7
aF0.429
aI1
aI2
aF0.5
aI0
aI0
aF0.0
aI1
aI0
aI1
aI1
aI0
aI0
aI2
aI2
aI7
aI-16
aa(lp64
V0020900578
p65
aVJAN 15, 2010
p66
aVNYK vs. TOR
p67
aVL
p68
aI5
aI0
aI0
aF0.0
aI0
aI0
aF0.0
aI0
aI0
aF0.0
aI0
aI0
aI0
aI0
aI0
aI0
aI1
aI1
aI0
aI-4
aa(lp69
V0020900560
p70
aVJAN 13, 2010
p71
aVNYK @ PHI
p72
aVW
p73
aI8
aI0
aI0
aF0.0
aI0
aI0
aF0.0
aI0
aI0
aF0.0
aI0
aI0
aI0
aI1
aI0
aI0
aI0
aI1
aI0
aI-4
aa(lp74
V0020900548
p75
aVJAN 11, 2010
p76
aVNYK @ OKC
p77
aVL
p78
aI20
aI6
aI10
aF0.6
aI2
aI5
aF0.4
aI2
aI2
aF1.0
aI2
aI1
aI3
aI1
aI0
aI2
aI0
aI1
aI16
aI-12
aa(lp79
V0020900536
p80
aVJAN 09, 2010
p81
aVNYK @ HOU
p82
aVL
p83
aI17
aI1
aI4
aF0.25
aI0
aI1
aF0.0
aI0
aI0
aF0.0
aI0
aI1
aI1
aI1
aI0
aI2
aI1
aI2
aI2
aI2
aa(lp84
V0020900517
p85
aVJAN 07, 2010
p86
aVNYK vs. CHA
p87
aVW
p88
aI18
aI2
aI4
aF0.5
aI1
aI2
aF0.5
aI0
aI0
aF0.0
aI0
aI5
aI5
aI0
aI0
aI4
aI3
aI0
aI5
aI5
aa(lp89
V0020900490
p90
aVJAN 03, 2010
p91
aVNYK vs. IND
p92
aVW
p93
aI24
aI3
aI10
aF0.3
aI0
aI4
aF0.0
aI2
aI2
aF1.0
aI2
aI5
aI7
aI3
aI0
aI1
aI2
aI2
aI8
aI5
aa(lp94
V0020900463
p95
aVDEC 30, 2009
p96
aVNYK @ NJN
p97
aVL
p98
aI14
aI1
aI4
aF0.25
aI0
aI0
aF0.0
aI2
aI2
aF1.0
aI2
aI3
aI5
aI2
aI0
aI0
aI0
aI1
aI4
aI-9
aa(lp99
V0020900454
p100
aVDEC 29, 2009
p101
aVNYK @ DET
p102
aVW
p103
aI5
aI1
aI3
aF0.333
aI0
aI1
aF0.0
aI0
aI0
aF0.0
aI0
aI1
aI1
aI0
aI0
aI0
aI0
aI1
aI2
aI-1
aa(lp104
V0020900442
p105
aVDEC 27, 2009
p106
aVNYK vs. SAS
p107
aVL
p108
aI11
aI0
aI1
aF0.0
aI0
aI0
aF0.0
aI0
aI0
aF0.0
aI0
aI2
aI2
aI0
aI0
aI0
aI1
aI0
aI0
aI-11
aa(lp109
V0020900424
p110
aVDEC 25, 2009
p111
aVNYK vs. MIA
p112
aVL
p113
aI9
aI1
aI4
aF0.25
aI0
aI1
aF0.0
aI0
aI0
aF0.0
aI1
aI0
aI1
aI0
aI0
aI0
aI3
aI1
aI2
aI-8
aa(lp114
V0020900408
p115
aVDEC 22, 2009
p116
aVNYK vs. CHI
p117
aVW
p118
aI8
aI0
aI2
aF0.0
aI0
aI1
aF0.0
aI2
aI2
aF1.0
aI1
aI1
aI2
aI2
aI0
aI0
aI1
aI0
aI2
aI3
aa(lp119
V0020900399
p120
aVDEC 20, 2009
p121
aVNYK vs. CHA
p122
aVW
p123
aI15
aI3
aI4
aF0.75
aI3
aI3
aF1.0
aI2
aI2
aF1.0
aI0
aI0
aI0
aI0
aI0
aI0
aI3
aI1
aI11
aI1
aa(lp124
V0020900380
p125
aVDEC 18, 2009
p126
aVNYK vs. LAC
p127
aVW
p128
aI14
aI2
aI4
aF0.5
aI1
aI1
aF1.0
aI4
aI4
aF1.0
aI0
aI2
aI2
aI1
aI0
aI1
aI1
aI3
aI9
aI8
aasS'name'
p129
VJonathan Bender
p130
sS'experience'
p131
I10
s.