(dp0
S'age'
p1
I32
sS'stats'
p2
(lp3
(lp4
V0020900013
p5
aVOCT 28, 2009
p6
aVNOH @ SAS
p7
aVL
p8
aI19
aI0
aI0
aF0.0
aI0
aI0
aF0.0
aI1
aI2
aF0.5
aI0
aI0
aI0
aI1
aI0
aI0
aI0
aI0
aI1
aI-16
aa(lp9
V0020900028
p10
aVOCT 30, 2009
p11
aVNOH vs. SAC
p12
aVW
p13
aI22
aI2
aI6
aF0.333
aI0
aI2
aF0.0
aI0
aI0
aF0.0
aI0
aI3
aI3
aI1
aI1
aI0
aI0
aI0
aI4
aI2
aa(lp14
V0020900040
p15
aVNOV 01, 2009
p16
aVNOH @ BOS
p17
aVL
p18
aI20
aI0
aI2
aF0.0
aI0
aI2
aF0.0
aI0
aI0
aF0.0
aI0
aI4
aI4
aI1
aI1
aI0
aI2
aI3
aI0
aI-9
aa(lp19
V0020900047
p20
aVNOV 02, 2009
p21
aVNOH @ NYK
p22
aVL
p23
aI19
aI1
aI4
aF0.25
aI1
aI3
aF0.333
aI0
aI0
aF0.0
aI0
aI5
aI5
aI0
aI0
aI0
aI0
aI4
aI3
aI-10
aa(lp24
V0020900067
p25
aVNOV 04, 2009
p26
aVNOH vs. DAL
p27
aVW
p28
aI8
aI0
aI1
aF0.0
aI0
aI1
aF0.0
aI0
aI0
aF0.0
aI0
aI0
aI0
aI2
aI0
aI0
aI1
aI2
aI0
aI-9
aa(lp29
V0020900079
p30
aVNOV 06, 2009
p31
aVNOH vs. TOR
p32
aVL
p33
aI16
aI0
aI0
aF0.0
aI0
aI0
aF0.0
aI1
aI2
aF0.5
aI0
aI0
aI0
aI1
aI0
aI0
aI0
aI2
aI1
aI-1
aa(lp34
V0020900097
p35
aVNOV 08, 2009
p36
aVNOH @ LAL
p37
aVL
p38
aI24
aI3
aI7
aF0.429
aI2
aI5
aF0.4
aI2
aI2
aF1.0
aI2
aI4
aI6
aI1
aI2
aI0
aI1
aI3
aI10
aI-5
aa(lp39
V0020900102
p40
aVNOV 09, 2009
p41
aVNOH @ LAC
p42
aVW
p43
aI17
aI2
aI4
aF0.5
aI1
aI2
aF0.5
aI2
aI2
aF1.0
aI1
aI4
aI5
aI1
aI0
aI1
aI1
aI2
aI7
aI2
aa(lp44
V0020900121
p45
aVNOV 11, 2009
p46
aVNOH @ PHX
p47
aVL
p48
aI20
aI3
aI5
aF0.6
aI3
aI3
aF1.0
aI2
aI2
aF1.0
aI0
aI0
aI0
aI2
aI1
aI0
aI0
aI3
aI11
aI-7
aa(lp49
V0020900129
p50
aVNOV 13, 2009
p51
aVNOH vs. POR
p52
aVL
p53
aI24
aI0
aI3
aF0.0
aI0
aI2
aF0.0
aI3
aI4
aF0.75
aI0
aI3
aI3
aI2
aI0
aI1
aI2
aI1
aI3
aI4
aa(lp54
V0020900133
p55
aVNOV 14, 2009
p56
aVNOH @ ATL
p57
aVL
p58
aI25
aI2
aI4
aF0.5
aI0
aI2
aF0.0
aI1
aI1
aF1.0
aI1
aI4
aI5
aI2
aI2
aI0
aI0
aI3
aI5
aI-3
aa(lp59
V0020900153
p60
aVNOV 17, 2009
p61
aVNOH vs. LAC
p62
aVW
p63
aI26
aI1
aI7
aF0.143
aI0
aI3
aF0.0
aI0
aI0
aF0.0
aI0
aI4
aI4
aI3
aI1
aI0
aI1
aI1
aI2
aI3
aa(lp64
V0020900170
p65
aVNOV 19, 2009
p66
aVNOH vs. PHX
p67
aVW
p68
aI16
aI1
aI1
aF1.0
aI1
aI1
aF1.0
aI4
aI4
aF1.0
aI1
aI3
aI4
aI1
aI0
aI0
aI1
aI2
aI7
aI-7
aa(lp69
V0020900186
p70
aVNOV 21, 2009
p71
aVNOH vs. ATL
p72
aVW
p73
aI25
aI3
aI4
aF0.75
aI2
aI2
aF1.0
aI0
aI0
aF0.0
aI0
aI6
aI6
aI1
aI0
aI1
aI1
aI3
aI8
aI10
aa(lp74
V0020900195
p75
aVNOV 22, 2009
p76
aVNOH @ MIA
p77
aVL
p78
aI24
aI5
aI11
aF0.455
aI4
aI8
aF0.5
aI0
aI0
aF0.0
aI0
aI6
aI6
aI3
aI1
aI0
aI1
aI4
aI14
aI3
aa(lp79
V0020900214
p80
aVNOV 25, 2009
p81
aVNOH vs. MIL
p82
aVW
p83
aI29
aI3
aI8
aF0.375
aI2
aI4
aF0.5
aI1
aI1
aF1.0
aI1
aI3
aI4
aI1
aI1
aI0
aI0
aI3
aI9
aI4
aa(lp84
V0020900247
p85
aVNOV 29, 2009
p86
aVNOH @ SAC
p87
aVL
p88
aI42
aI3
aI8
aF0.375
aI2
aI6
aF0.333
aI0
aI0
aF0.0
aI1
aI1
aI2
aI4
aI2
aI1
aI3
aI1
aI8
aI-9
aa(lp89
V0020900258
p90
aVDEC 01, 2009
p91
aVNOH @ LAL
p92
aVL
p93
aI30
aI3
aI6
aF0.5
aI1
aI3
aF0.333
aI0
aI0
aF0.0
aI0
aI4
aI4
aI1
aI1
aI1
aI2
aI3
aI7
aI-17
aa(lp94
V0020900278
p95
aVDEC 04, 2009
p96
aVNOH vs. MIN
p97
aVW
p98
aI21
aI1
aI2
aF0.5
aI1
aI2
aF0.5
aI2
aI2
aF1.0
aI0
aI1
aI1
aI0
aI0
aI0
aI1
aI3
aI5
aI-12
aa(lp99
V0020900305
p100
aVDEC 08, 2009
p101
aVNOH vs. SAC
p102
aVW
p103
aI21
aI1
aI5
aF0.2
aI1
aI5
aF0.2
aI0
aI0
aF0.0
aI0
aI1
aI1
aI2
aI0
aI0
aI0
aI2
aI3
aI-6
aa(lp104
V0020900313
p105
aVDEC 09, 2009
p106
aVNOH @ MIN
p107
aVW
p108
aI21
aI1
aI5
aF0.2
aI1
aI4
aF0.25
aI0
aI1
aF0.0
aI0
aI4
aI4
aI0
aI1
aI0
aI0
aI3
aI3
aI-1
aa(lp109
V0020900327
p110
aVDEC 11, 2009
p111
aVNOH vs. NYK
p112
aVL
p113
aI24
aI1
aI5
aF0.2
aI0
aI3
aF0.0
aI0
aI0
aF0.0
aI0
aI2
aI2
aI1
aI0
aI0
aI0
aI3
aI2
aI-15
aa(lp114
V0020900347
p115
aVDEC 14, 2009
p116
aVNOH @ DAL
p117
aVL
p118
aI28
aI3
aI6
aF0.5
aI3
aI6
aF0.5
aI1
aI3
aF0.333
aI1
aI4
aI5
aI1
aI3
aI1
aI0
aI5
aI10
aI7
aa(lp119
V0020900365
p120
aVDEC 16, 2009
p121
aVNOH vs. DET
p122
aVW
p123
aI19
aI0
aI3
aF0.0
aI0
aI2
aF0.0
aI2
aI2
aF1.0
aI0
aI1
aI1
aI1
aI0
aI0
aI1
aI0
aI2
aI0
aa(lp124
V0020900379
p125
aVDEC 18, 2009
p126
aVNOH vs. DEN
p127
aVW
p128
aI24
aI2
aI4
aF0.5
aI1
aI2
aF0.5
aI2
aI3
aF0.667
aI2
aI5
aI7
aI0
aI0
aI0
aI0
aI3
aI7
aI-10
aa(lp129
V0020900393
p130
aVDEC 20, 2009
p131
aVNOH @ TOR
p132
aVL
p133
aI21
aI1
aI4
aF0.25
aI1
aI4
aF0.25
aI0
aI0
aF0.0
aI0
aI6
aI6
aI2
aI0
aI0
aI2
aI1
aI3
aI-4
aa(lp134
V0020900419
p135
aVDEC 23, 2009
p136
aVNOH vs. GSW
p137
aVW
p138
aI28
aI1
aI3
aF0.333
aI1
aI3
aF0.333
aI2
aI2
aF1.0
aI0
aI8
aI8
aI2
aI0
aI0
aI0
aI3
aI5
aI9
aa(lp139
V0020900432
p140
aVDEC 26, 2009
p141
aVNOH @ CHI
p142
aVL
p143
aI22
aI1
aI5
aF0.2
aI1
aI4
aF0.25
aI2
aI2
aF1.0
aI0
aI5
aI5
aI2
aI0
aI0
aI1
aI2
aI5
aI-1
aa(lp144
V0020900456
p145
aVDEC 29, 2009
p146
aVNOH @ HOU
p147
aVL
p148
aI19
aI2
aI6
aF0.333
aI1
aI2
aF0.5
aI0
aI0
aF0.0
aI0
aI1
aI1
aI1
aI1
aI0
aI1
aI3
aI5
aI-20
aa(lp149
V0020900465
p150
aVDEC 30, 2009
p151
aVNOH vs. MIA
p152
aVW
p153
aI19
aI1
aI3
aF0.333
aI1
aI3
aF0.333
aI0
aI0
aF0.0
aI0
aI5
aI5
aI0
aI0
aI0
aI0
aI3
aI3
aI-10
aa(lp154
V0020900483
p155
aVJAN 02, 2010
p156
aVNOH vs. HOU
p157
aVW
p158
aI23
aI1
aI2
aF0.5
aI1
aI2
aF0.5
aI2
aI2
aF1.0
aI0
aI6
aI6
aI2
aI0
aI0
aI0
aI3
aI5
aI14
aa(lp159
V0020900496
p160
aVJAN 04, 2010
p161
aVNOH @ UTA
p162
aVW
p163
aI27
aI3
aI7
aF0.429
aI2
aI5
aF0.4
aI4
aI4
aF1.0
aI1
aI4
aI5
aI2
aI0
aI1
aI1
aI2
aI12
aI4
aa(lp164
V0020900512
p165
aVJAN 06, 2010
p166
aVNOH @ OKC
p167
aVW
p168
aI22
aI2
aI4
aF0.5
aI1
aI3
aF0.333
aI4
aI4
aF1.0
aI0
aI5
aI5
aI1
aI0
aI0
aI0
aI2
aI9
aI6
aa(lp169
V0020900523
p170
aVJAN 08, 2010
p171
aVNOH vs. NJN
p172
aVW
p173
aI24
aI2
aI6
aF0.333
aI1
aI4
aF0.25
aI2
aI2
aF1.0
aI1
aI2
aI3
aI0
aI1
aI0
aI1
aI3
aI7
aI-3
aa(lp174
V0020900539
p175
aVJAN 10, 2010
p176
aVNOH @ WAS
p177
aVW
p178
aI24
aI3
aI4
aF0.75
aI3
aI4
aF0.75
aI2
aI2
aF1.0
aI0
aI4
aI4
aI0
aI1
aI0
aI1
aI3
aI11
aI21
aa(lp179
V0020900545
p180
aVJAN 11, 2010
p181
aVNOH @ PHI
p182
aVL
p183
aI21
aI3
aI5
aF0.6
aI3
aI4
aF0.75
aI0
aI0
aF0.0
aI1
aI3
aI4
aI0
aI0
aI0
aI0
aI1
aI9
aI9
aa(lp184
V0020900562
p185
aVJAN 13, 2010
p186
aVNOH vs. LAC
p187
aVW
p188
aI19
aI3
aI7
aF0.429
aI2
aI6
aF0.333
aI0
aI0
aF0.0
aI1
aI4
aI5
aI1
aI0
aI0
aI1
aI2
aI8
aI5
aa(lp189
V0020900575
p190
aVJAN 15, 2010
p191
aVNOH @ DET
p192
aVL
p193
aI29
aI2
aI6
aF0.333
aI2
aI5
aF0.4
aI0
aI0
aF0.0
aI0
aI7
aI7
aI3
aI1
aI0
aI0
aI5
aI6
aI3
aa(lp194
V0020900585
p195
aVJAN 16, 2010
p196
aVNOH @ IND
p197
aVW
p198
aI22
aI1
aI4
aF0.25
aI1
aI4
aF0.25
aI2
aI2
aF1.0
aI0
aI1
aI1
aI0
aI1
aI0
aI0
aI1
aI5
aI-1
aa(lp199
V0020900601
p200
aVJAN 18, 2010
p201
aVNOH vs. SAS
p202
aVL
p203
aI28
aI1
aI4
aF0.25
aI0
aI2
aF0.0
aI2
aI2
aF1.0
aI1
aI9
aI10
aI0
aI0
aI0
aI1
aI4
aI4
aI8
aa(lp204
V0020900616
p205
aVJAN 20, 2010
p206
aVNOH vs. MEM
p207
aVW
p208
aI19
aI3
aI6
aF0.5
aI0
aI2
aF0.0
aI0
aI1
aF0.0
aI2
aI2
aI4
aI1
aI0
aI0
aI0
aI4
aI6
aI6
aa(lp209
V0020900631
p210
aVJAN 22, 2010
p211
aVNOH @ MIN
p212
aVW
p213
aI26
aI3
aI7
aF0.429
aI0
aI4
aF0.0
aI0
aI0
aF0.0
aI0
aI3
aI3
aI1
aI0
aI0
aI0
aI4
aI6
aI-3
aa(lp214
V0020900643
p215
aVJAN 23, 2010
p216
aVNOH @ DEN
p217
aVL
p218
aI25
aI3
aI7
aF0.429
aI1
aI5
aF0.2
aI0
aI0
aF0.0
aI0
aI3
aI3
aI2
aI1
aI0
aI1
aI3
aI7
aI6
aa(lp219
V0020900657
p220
aVJAN 25, 2010
p221
aVNOH @ POR
p222
aVW
p223
aI21
aI1
aI5
aF0.2
aI1
aI4
aF0.25
aI2
aI2
aF1.0
aI0
aI5
aI5
aI1
aI0
aI1
aI2
aI1
aI5
aI-16
aa(lp224
V0020900673
p225
aVJAN 27, 2010
p226
aVNOH @ GSW
p227
aVW
p228
aI3
aI0
aI1
aF0.0
aI0
aI1
aF0.0
aI0
aI0
aF0.0
aI0
aI1
aI1
aI0
aI0
aI0
aI0
aI1
aI0
aI1
aa(lp229
V0020900707
p230
aVFEB 01, 2010
p231
aVNOH vs. PHX
p232
aVL
p233
aI24
aI1
aI3
aF0.333
aI0
aI2
aF0.0
aI0
aI0
aF0.0
aI1
aI7
aI8
aI6
aI0
aI0
aI0
aI2
aI2
aI-8
aa(lp234
V0020900723
p235
aVFEB 03, 2010
p236
aVNOH vs. OKC
p237
aVL
p238
aI31
aI3
aI7
aF0.429
aI1
aI4
aF0.25
aI1
aI3
aF0.333
aI2
aI8
aI10
aI6
aI0
aI1
aI1
aI3
aI8
aI8
aa(lp239
V0020900737
p240
aVFEB 05, 2010
p241
aVNOH vs. PHI
p242
aVL
p243
aI28
aI3
aI8
aF0.375
aI2
aI4
aF0.5
aI0
aI0
aF0.0
aI2
aI8
aI10
aI6
aI1
aI0
aI4
aI2
aI8
aI-8
aa(lp244
V0020900741
p245
aVFEB 06, 2010
p246
aVNOH @ CHA
p247
aVW
p248
aI24
aI4
aI9
aF0.444
aI3
aI6
aF0.5
aI0
aI0
aF0.0
aI1
aI7
aI8
aI0
aI0
aI1
aI0
aI4
aI11
aI-5
aa(lp249
V0020900755
p250
aVFEB 08, 2010
p251
aVNOH @ ORL
p252
aVL
p253
aI27
aI3
aI8
aF0.375
aI1
aI4
aF0.25
aI3
aI3
aF1.0
aI0
aI6
aI6
aI0
aI1
aI0
aI1
aI1
aI10
aI2
aa(lp254
V0020900775
p255
aVFEB 10, 2010
p256
aVNOH vs. BOS
p257
aVW
p258
aI22
aI0
aI4
aF0.0
aI0
aI2
aF0.0
aI0
aI0
aF0.0
aI1
aI6
aI7
aI0
aI0
aI0
aI1
aI2
aI0
aI-11
aa(lp259
V0020900798
p260
aVFEB 17, 2010
p261
aVNOH vs. UTA
p262
aVL
p263
aI24
aI3
aI9
aF0.333
aI2
aI5
aF0.4
aI0
aI0
aF0.0
aI2
aI2
aI4
aI1
aI1
aI1
aI0
aI3
aI8
aI-8
aa(lp264
V0020900811
p265
aVFEB 19, 2010
p266
aVNOH vs. IND
p267
aVW
p268
aI25
aI1
aI5
aF0.2
aI0
aI4
aF0.0
aI0
aI0
aF0.0
aI0
aI5
aI5
aI4
aI0
aI2
aI0
aI3
aI2
aI2
aa(lp269
V0020900828
p270
aVFEB 21, 2010
p271
aVNOH vs. HOU
p272
aVW
p273
aI24
aI0
aI1
aF0.0
aI0
aI1
aF0.0
aI0
aI0
aF0.0
aI1
aI6
aI7
aI1
aI1
aI0
aI0
aI2
aI0
aI-1
aa(lp274
V0020900837
p275
aVFEB 23, 2010
p276
aVNOH @ CLE
p277
aVL
p278
aI28
aI0
aI2
aF0.0
aI0
aI2
aF0.0
aI0
aI0
aF0.0
aI0
aI9
aI9
aI1
aI0
aI0
aI0
aI3
aI0
aI10
aa(lp279
V0020900849
p280
aVFEB 24, 2010
p281
aVNOH @ MIL
p282
aVL
p283
aI27
aI1
aI6
aF0.167
aI0
aI4
aF0.0
aI0
aI0
aF0.0
aI0
aI7
aI7
aI2
aI1
aI1
aI2
aI2
aI2
aI-6
aa(lp284
V0020900864
p285
aVFEB 26, 2010
p286
aVNOH vs. ORL
p287
aVW
p288
aI25
aI0
aI1
aF0.0
aI0
aI0
aF0.0
aI2
aI2
aF1.0
aI0
aI9
aI9
aI3
aI2
aI0
aI0
aI3
aI2
aI9
aa(lp289
V0020900885
p290
aVFEB 28, 2010
p291
aVNOH @ DAL
p292
aVL
p293
aI24
aI0
aI1
aF0.0
aI0
aI1
aF0.0
aI0
aI0
aF0.0
aI0
aI2
aI2
aI0
aI0
aI0
aI1
aI4
aI0
aI-11
aa(lp294
V0020900891
p295
aVMAR 01, 2010
p296
aVNOH vs. SAS
p297
aVL
p298
aI23
aI1
aI5
aF0.2
aI1
aI3
aF0.333
aI0
aI0
aF0.0
aI0
aI4
aI4
aI1
aI0
aI0
aI0
aI2
aI3
aI-8
aa(lp299
V0020900905
p300
aVMAR 03, 2010
p301
aVNOH vs. MEM
p302
aVL
p303
aI10
aI0
aI1
aF0.0
aI0
aI1
aF0.0
aI0
aI0
aF0.0
aI0
aI2
aI2
aI1
aI0
aI0
aI1
aI5
aI0
aI-1
aa(lp304
V0020900923
p305
aVMAR 05, 2010
p306
aVNOH @ SAS
p307
aVL
p308
aI21
aI2
aI2
aF1.0
aI1
aI1
aF1.0
aI0
aI0
aF0.0
aI0
aI5
aI5
aI0
aI0
aI0
aI1
aI3
aI5
aI-5
aa(lp309
V0020900944
p310
aVMAR 08, 2010
p311
aVNOH vs. GSW
p312
aVW
p313
aI22
aI1
aI3
aF0.333
aI1
aI3
aF0.333
aI1
aI2
aF0.5
aI0
aI3
aI3
aI4
aI0
aI0
aI1
aI2
aI4
aI-14
aa(lp314
V0020900958
p315
aVMAR 10, 2010
p316
aVNOH @ OKC
p317
aVL
p318
aI13
aI0
aI4
aF0.0
aI0
aI3
aF0.0
aI0
aI0
aF0.0
aI0
aI3
aI3
aI0
aI1
aI0
aI0
aI4
aI0
aI-6
aa(lp319
V0020901014
p320
aVMAR 17, 2010
p321
aVNOH @ GSW
p322
aVL
p323
aI19
aI2
aI3
aF0.667
aI0
aI1
aF0.0
aI1
aI2
aF0.5
aI0
aI1
aI1
aI0
aI0
aI0
aI0
aI3
aI5
aI-10
aa(lp324
V0020901017
p325
aVMAR 18, 2010
p326
aVNOH @ DEN
p327
aVL
p328
aI21
aI0
aI2
aF0.0
aI0
aI2
aF0.0
aI0
aI0
aF0.0
aI0
aI6
aI6
aI2
aI0
aI1
aI0
aI2
aI0
aI-3
aa(lp329
V0020901035
p330
aVMAR 20, 2010
p331
aVNOH @ UTA
p332
aVL
p333
aI24
aI1
aI6
aF0.167
aI1
aI4
aF0.25
aI0
aI0
aF0.0
aI2
aI2
aI4
aI2
aI0
aI0
aI0
aI2
aI3
aI-3
aa(lp334
V0020901048
p335
aVMAR 22, 2010
p336
aVNOH vs. DAL
p337
aVW
p338
aI18
aI0
aI1
aF0.0
aI0
aI1
aF0.0
aI0
aI0
aF0.0
aI0
aI2
aI2
aI5
aI1
aI0
aI0
aI4
aI0
aI20
aa(lp339
V0020901064
p340
aVMAR 24, 2010
p341
aVNOH vs. CLE
p342
aVL
p343
aI21
aI2
aI5
aF0.4
aI2
aI4
aF0.5
aI0
aI0
aF0.0
aI0
aI2
aI2
aI2
aI1
aI1
aI0
aI1
aI6
aI7
aa(lp344
V0020901084
p345
aVMAR 27, 2010
p346
aVNOH vs. POR
p347
aVL
p348
aI18
aI3
aI4
aF0.75
aI3
aI4
aF0.75
aI0
aI0
aF0.0
aI0
aI1
aI1
aI2
aI0
aI0
aI1
aI4
aI9
aI10
aa(lp349
V0020901099
p350
aVMAR 29, 2010
p351
aVNOH vs. LAL
p352
aVW
p353
aI28
aI3
aI5
aF0.6
aI3
aI5
aF0.6
aI4
aI4
aF1.0
aI1
aI5
aI6
aI3
aI0
aI1
aI2
aI4
aI13
aI11
aa(lp354
V0020901116
p355
aVMAR 31, 2010
p356
aVNOH vs. WAS
p357
aVL
p358
aI25
aI2
aI5
aF0.4
aI0
aI2
aF0.0
aI1
aI2
aF0.5
aI1
aI2
aI3
aI2
aI1
aI0
aI1
aI6
aI5
aI10
aa(lp359
V0020901128
p360
aVAPR 02, 2010
p361
aVNOH @ MEM
p362
aVL
p363
aI21
aI2
aI5
aF0.4
aI2
aI5
aF0.4
aI0
aI0
aF0.0
aI0
aI3
aI3
aI0
aI0
aI0
aI1
aI4
aI6
aI1
aa(lp364
V0020901134
p365
aVAPR 03, 2010
p366
aVNOH @ NJN
p367
aVL
p368
aI9
aI0
aI1
aF0.0
aI0
aI1
aF0.0
aI0
aI0
aF0.0
aI0
aI1
aI1
aI2
aI0
aI2
aI1
aI0
aI0
aI-9
aa(lp369
V0020901164
p370
aVAPR 07, 2010
p371
aVNOH vs. CHA
p372
aVL
p373
aI24
aI1
aI6
aF0.167
aI1
aI5
aF0.2
aI2
aI2
aF1.0
aI0
aI1
aI1
aI3
aI1
aI0
aI1
aI5
aI5
aI-11
aa(lp374
V0020901182
p375
aVAPR 09, 2010
p376
aVNOH vs. UTA
p377
aVL
p378
aI28
aI4
aI5
aF0.8
aI4
aI5
aF0.8
aI1
aI2
aF0.5
aI1
aI6
aI7
aI0
aI3
aI0
aI0
aI4
aI13
aI6
aa(lp379
V0020901198
p380
aVAPR 11, 2010
p381
aVNOH vs. MIN
p382
aVW
p383
aI24
aI2
aI4
aF0.5
aI2
aI4
aF0.5
aI0
aI0
aF0.0
aI0
aI5
aI5
aI3
aI2
aI0
aI1
aI5
aI6
aI24
aa(lp384
V0020901221
p385
aVAPR 14, 2010
p386
aVNOH @ HOU
p387
aVW
p388
aI24
aI3
aI7
aF0.429
aI2
aI5
aF0.4
aI2
aI2
aF1.0
aI0
aI5
aI5
aI1
aI2
aI0
aI0
aI0
aI10
aI0
aasS'name'
p389
VJames Posey
p390
sS'experience'
p391
I10
s.