(dp0
S'stats'
p1
(lp2
(lp3
V0020900012
p4
aVOCT 28, 2009
p5
aVSAC @ OKC
p6
aVL
p7
aI13
aI1
aI3
aF0.333
aI0
aI1
aF0.0
aI0
aI0
aF0.0
aI0
aI1
aI1
aI3
aI0
aI0
aI1
aI0
aI2
aI7
aa(lp8
V0020900028
p9
aVOCT 30, 2009
p10
aVSAC @ NOH
p11
aVL
p12
aI0
aI0
aI2
aF0.0
aI0
aI0
aF0.0
aI0
aI0
aF0.0
aI1
aI0
aI1
aI0
aI0
aI0
aI0
aI0
aI0
aI0
aa(lp13
V0020900037
p14
aVOCT 31, 2009
p15
aVSAC @ SAS
p16
aVL
p17
aI8
aI1
aI2
aF0.5
aI1
aI1
aF1.0
aI0
aI0
aF0.0
aI0
aI1
aI1
aI0
aI1
aI0
aI1
aI1
aI3
aI7
aa(lp18
V0020900090
p19
aVNOV 07, 2009
p20
aVSAC @ UTA
p21
aVW
p22
aI8
aI1
aI3
aF0.333
aI1
aI1
aF1.0
aI0
aI0
aF0.0
aI1
aI0
aI1
aI1
aI0
aI0
aI0
aI1
aI3
aI-8
aa(lp23
V0020900096
p24
aVNOV 08, 2009
p25
aVSAC vs. GSW
p26
aVW
p27
aI6
aI0
aI2
aF0.0
aI0
aI1
aF0.0
aI1
aI2
aF0.5
aI0
aI0
aI0
aI1
aI1
aI0
aI0
aI2
aI1
aI-6
aa(lp28
V0020900156
p29
aVNOV 17, 2009
p30
aVSAC vs. CHI
p31
aVL
p32
aI20
aI4
aI6
aF0.667
aI1
aI1
aF1.0
aI0
aI0
aF0.0
aI1
aI2
aI3
aI5
aI1
aI0
aI1
aI1
aI9
aI-1
aa(lp33
V0020900179
p34
aVNOV 20, 2009
p35
aVSAC @ DAL
p36
aVL
p37
aI3
aI0
aI0
aF0.0
aI0
aI0
aF0.0
aI0
aI0
aF0.0
aI0
aI0
aI0
aI0
aI0
aI0
aI1
aI1
aI0
aI3
aa(lp38
V0020900187
p39
aVNOV 21, 2009
p40
aVSAC @ HOU
p41
aVL
p42
aI11
aI2
aI3
aF0.667
aI0
aI1
aF0.0
aI2
aI2
aF1.0
aI0
aI0
aI0
aI4
aI0
aI0
aI1
aI0
aI6
aI-10
aa(lp43
V0020900198
p44
aVNOV 23, 2009
p45
aVSAC @ MEM
p46
aVL
p47
aI18
aI6
aI8
aF0.75
aI1
aI1
aF1.0
aI3
aI5
aF0.6
aI0
aI0
aI0
aI7
aI0
aI0
aI1
aI2
aI16
aI10
aa(lp48
V0020900219
p49
aVNOV 25, 2009
p50
aVSAC vs. NYK
p51
aVW
p52
aI32
aI4
aI13
aF0.308
aI2
aI5
aF0.4
aI5
aI7
aF0.714
aI1
aI3
aI4
aI4
aI2
aI0
aI4
aI4
aI15
aI5
aa(lp53
V0020900233
p54
aVNOV 27, 2009
p55
aVSAC vs. NJN
p56
aVW
p57
aI15
aI2
aI3
aF0.667
aI0
aI1
aF0.0
aI2
aI2
aF1.0
aI0
aI3
aI3
aI3
aI1
aI0
aI1
aI1
aI6
aI12
aa(lp58
V0020900247
p59
aVNOV 29, 2009
p60
aVSAC vs. NOH
p61
aVW
p62
aI24
aI9
aI14
aF0.643
aI2
aI4
aF0.5
aI4
aI4
aF1.0
aI0
aI2
aI2
aI5
aI2
aI0
aI0
aI1
aI24
aI20
aa(lp63
V0020900267
p64
aVDEC 02, 2009
p65
aVSAC vs. IND
p66
aVW
p67
aI15
aI2
aI4
aF0.5
aI1
aI1
aF1.0
aI0
aI0
aF0.0
aI0
aI2
aI2
aI4
aI1
aI0
aI1
aI0
aI5
aI4
aa(lp68
V0020900287
p69
aVDEC 05, 2009
p70
aVSAC @ PHX
p71
aVL
p72
aI22
aI5
aI10
aF0.5
aI1
aI3
aF0.333
aI1
aI2
aF0.5
aI1
aI0
aI1
aI3
aI2
aI1
aI2
aI1
aI12
aI0
aa(lp73
V0020900294
p74
aVDEC 06, 2009
p75
aVSAC vs. MIA
p76
aVL
p77
aI12
aI1
aI2
aF0.5
aI0
aI0
aF0.0
aI0
aI0
aF0.0
aI1
aI1
aI2
aI2
aI2
aI0
aI5
aI0
aI2
aI-2
aa(lp78
V0020900305
p79
aVDEC 08, 2009
p80
aVSAC @ NOH
p81
aVL
p82
aI16
aI2
aI6
aF0.333
aI1
aI2
aF0.5
aI0
aI0
aF0.0
aI1
aI1
aI2
aI4
aI2
aI1
aI0
aI1
aI5
aI4
aa(lp83
V0020900315
p84
aVDEC 09, 2009
p85
aVSAC @ SAS
p86
aVL
p87
aI16
aI1
aI5
aF0.2
aI0
aI0
aF0.0
aI2
aI2
aF1.0
aI1
aI1
aI2
aI4
aI1
aI0
aI2
aI3
aI4
aI-4
aa(lp88
V0020900338
p89
aVDEC 12, 2009
p90
aVSAC vs. MIN
p91
aVW
p92
aI21
aI2
aI5
aF0.4
aI0
aI2
aF0.0
aI1
aI2
aF0.5
aI0
aI1
aI1
aI9
aI2
aI0
aI4
aI3
aI5
aI17
aa(lp93
V0020900357
p94
aVDEC 15, 2009
p95
aVSAC @ POR
p96
aVL
p97
aI8
aI0
aI3
aF0.0
aI0
aI1
aF0.0
aI2
aI3
aF0.667
aI0
aI1
aI1
aI2
aI0
aI0
aI2
aI2
aI2
aI-2
aa(lp98
V0020900368
p99
aVDEC 16, 2009
p100
aVSAC vs. WAS
p101
aVW
p102
aI5
aI0
aI2
aF0.0
aI0
aI1
aF0.0
aI2
aI2
aF1.0
aI0
aI0
aI0
aI2
aI0
aI0
aI1
aI0
aI2
aI12
aa(lp103
V0020900378
p104
aVDEC 18, 2009
p105
aVSAC @ MIN
p106
aVL
p107
aI14
aI2
aI6
aF0.333
aI0
aI2
aF0.0
aI0
aI0
aF0.0
aI0
aI1
aI1
aI1
aI0
aI0
aI2
aI0
aI4
aI-3
aa(lp108
V0020900402
p109
aVDEC 21, 2009
p110
aVSAC @ CHI
p111
aVW
p112
aI20
aI4
aI6
aF0.667
aI1
aI1
aF1.0
aI1
aI2
aF0.5
aI0
aI3
aI3
aI7
aI0
aI1
aI1
aI3
aI10
aI16
aa(lp113
V0020900423
p114
aVDEC 23, 2009
p115
aVSAC vs. CLE
p116
aVL
p117
aI7
aI1
aI4
aF0.25
aI0
aI1
aF0.0
aI0
aI0
aF0.0
aI0
aI1
aI1
aI3
aI0
aI0
aI1
aI0
aI2
aI5
aa(lp118
V0020900437
p119
aVDEC 26, 2009
p120
aVSAC vs. LAL
p121
aVL
p122
aI8
aI0
aI2
aF0.0
aI0
aI0
aF0.0
aI0
aI0
aF0.0
aI0
aI0
aI0
aI2
aI0
aI0
aI2
aI0
aI0
aI-6
aa(lp123
V0020900450
p124
aVDEC 28, 2009
p125
aVSAC vs. DEN
p126
aVW
p127
aI23
aI2
aI11
aF0.182
aI0
aI1
aF0.0
aI2
aI4
aF0.5
aI1
aI2
aI3
aI6
aI0
aI0
aI3
aI1
aI6
aI11
aa(lp128
V0020900468
p129
aVDEC 30, 2009
p130
aVSAC vs. PHI
p131
aVL
p132
aI24
aI6
aI11
aF0.545
aI0
aI1
aF0.0
aI3
aI4
aF0.75
aI1
aI0
aI1
aI5
aI2
aI0
aI0
aI2
aI15
aI-4
aa(lp133
V0020900476
p134
aVJAN 01, 2010
p135
aVSAC @ LAL
p136
aVL
p137
aI17
aI3
aI7
aF0.429
aI1
aI2
aF0.5
aI2
aI2
aF1.0
aI0
aI0
aI0
aI3
aI0
aI0
aI1
aI0
aI9
aI0
aa(lp138
V0020900488
p139
aVJAN 02, 2010
p140
aVSAC vs. DAL
p141
aVL
p142
aI10
aI2
aI4
aF0.5
aI0
aI0
aF0.0
aI0
aI0
aF0.0
aI1
aI1
aI2
aI1
aI0
aI0
aI2
aI2
aI4
aI-4
aa(lp143
V0020900529
p144
aVJAN 08, 2010
p145
aVSAC @ GSW
p146
aVL
p147
aI6
aI2
aI2
aF1.0
aI0
aI0
aF0.0
aI0
aI0
aF0.0
aI0
aI0
aI0
aI2
aI0
aI0
aI0
aI2
aI4
aI0
aa(lp148
V0020900537
p149
aVJAN 09, 2010
p150
aVSAC vs. DEN
p151
aVW
p152
aI7
aI1
aI3
aF0.333
aI0
aI0
aF0.0
aI2
aI2
aF1.0
aI0
aI0
aI0
aI0
aI1
aI0
aI1
aI0
aI4
aI-3
aa(lp153
V0020900557
p154
aVJAN 12, 2010
p155
aVSAC vs. ORL
p156
aVL
p157
aI6
aI0
aI1
aF0.0
aI0
aI1
aF0.0
aI1
aI2
aF0.5
aI0
aI0
aI0
aI2
aI0
aI0
aI1
aI0
aI1
aI-3
aa(lp158
V0020900623
p159
aVJAN 22, 2010
p160
aVSAC @ ORL
p161
aVL
p162
aI10
aI3
aI4
aF0.75
aI1
aI1
aF1.0
aI1
aI1
aF1.0
aI0
aI0
aI0
aI5
aI3
aI0
aI3
aI0
aI8
aI11
aa(lp163
V0020900640
p164
aVJAN 23, 2010
p165
aVSAC @ MIA
p166
aVL
p167
aI9
aI2
aI2
aF1.0
aI0
aI0
aF0.0
aI1
aI3
aF0.333
aI1
aI2
aI3
aI2
aI0
aI0
aI1
aI0
aI5
aI2
aa(lp168
V0020900694
p169
aVJAN 30, 2010
p170
aVSAC vs. CHA
p171
aVL
p172
aI14
aI4
aI7
aF0.571
aI1
aI1
aF1.0
aI0
aI1
aF0.0
aI2
aI2
aI4
aI5
aI1
aI0
aI1
aI1
aI9
aI14
aa(lp173
V0020900708
p174
aVFEB 01, 2010
p175
aVSAC @ DEN
p176
aVL
p177
aI24
aI4
aI11
aF0.364
aI0
aI2
aF0.0
aI0
aI0
aF0.0
aI1
aI1
aI2
aI6
aI2
aI0
aI4
aI2
aI8
aI6
aa(lp178
V0020900726
p179
aVFEB 03, 2010
p180
aVSAC vs. SAS
p181
aVL
p182
aI16
aI5
aI7
aF0.714
aI0
aI0
aF0.0
aI0
aI0
aF0.0
aI0
aI0
aI0
aI3
aI1
aI0
aI0
aI3
aI10
aI-3
aa(lp183
V0020900739
p184
aVFEB 05, 2010
p185
aVSAC vs. PHX
p186
aVL
p187
aI19
aI3
aI4
aF0.75
aI0
aI1
aF0.0
aI4
aI6
aF0.667
aI0
aI2
aI2
aI3
aI1
aI0
aI4
aI5
aI10
aI10
aa(lp188
V0020900763
p189
aVFEB 09, 2010
p190
aVSAC @ NYK
p191
aVW
p192
aI8
aI1
aI1
aF1.0
aI0
aI0
aF0.0
aI1
aI2
aF0.5
aI0
aI1
aI1
aI2
aI0
aI0
aI3
aI1
aI3
aI-4
aa(lp193
V0020900800
p194
aVFEB 17, 2010
p195
aVSAC @ GSW
p196
aVL
p197
aI2
aI0
aI1
aF0.0
aI0
aI1
aF0.0
aI0
aI0
aF0.0
aI0
aI0
aI0
aI0
aI0
aI0
aI1
aI0
aI0
aI-6
aa(lp198
V0020900817
p199
aVFEB 20, 2010
p200
aVNYK vs. OKC
p201
aVL
p202
aI26
aI2
aI8
aF0.25
aI0
aI3
aF0.0
aI1
aI2
aF0.5
aI1
aI2
aI3
aI6
aI1
aI0
aI2
aI1
aI5
aI-6
aa(lp203
V0020900833
p204
aVFEB 22, 2010
p205
aVNYK vs. MIL
p206
aVL
p207
aI29
aI2
aI8
aF0.25
aI0
aI2
aF0.0
aI0
aI0
aF0.0
aI0
aI1
aI1
aI1
aI8
aI0
aI3
aI0
aI4
aI-19
aa(lp208
V0020900838
p209
aVFEB 23, 2010
p210
aVNYK @ BOS
p211
aVL
p212
aI38
aI7
aI10
aF0.7
aI3
aI4
aF0.75
aI1
aI2
aF0.5
aI0
aI5
aI5
aI6
aI2
aI1
aI3
aI1
aI18
aI-3
aa(lp213
V0020900860
p214
aVFEB 26, 2010
p215
aVNYK @ WAS
p216
aVW
p217
aI30
aI2
aI4
aF0.5
aI1
aI1
aF1.0
aI0
aI0
aF0.0
aI0
aI1
aI1
aI7
aI2
aI0
aI2
aI2
aI5
aI-5
aa(lp218
V0020900874
p219
aVFEB 27, 2010
p220
aVNYK vs. MEM
p221
aVL
p222
aI24
aI3
aI6
aF0.5
aI1
aI3
aF0.333
aI0
aI0
aF0.0
aI0
aI0
aI0
aI2
aI0
aI0
aI1
aI1
aI7
aI-15
aa(lp223
V0020900887
p224
aVMAR 01, 2010
p225
aVNYK @ CLE
p226
aVL
p227
aI22
aI3
aI9
aF0.333
aI1
aI2
aF0.5
aI2
aI3
aF0.667
aI0
aI0
aI0
aI5
aI1
aI0
aI1
aI2
aI9
aI-9
aa(lp228
V0020900903
p229
aVMAR 03, 2010
p230
aVNYK vs. DET
p231
aVW
p232
aI19
aI3
aI8
aF0.375
aI0
aI4
aF0.0
aI0
aI0
aF0.0
aI1
aI3
aI4
aI3
aI1
aI0
aI3
aI2
aI6
aI2
aa(lp233
V0020900917
p234
aVMAR 05, 2010
p235
aVNYK @ TOR
p236
aVL
p237
aI17
aI4
aI5
aF0.8
aI0
aI0
aF0.0
aI2
aI2
aF1.0
aI1
aI2
aI3
aI7
aI0
aI0
aI2
aI1
aI10
aI-7
aa(lp238
V0020900927
p239
aVMAR 06, 2010
p240
aVNYK vs. NJN
p241
aVL
p242
aI24
aI4
aI9
aF0.444
aI0
aI2
aF0.0
aI1
aI1
aF1.0
aI0
aI3
aI3
aI5
aI1
aI0
aI2
aI1
aI9
aI-14
aa(lp243
V0020900941
p244
aVMAR 08, 2010
p245
aVNYK vs. ATL
p246
aVW
p247
aI23
aI4
aI10
aF0.4
aI0
aI1
aF0.0
aI1
aI2
aF0.5
aI1
aI2
aI3
aI4
aI0
aI0
aI6
aI3
aI9
aI7
aa(lp248
V0020900960
p249
aVMAR 10, 2010
p250
aVNYK @ SAS
p251
aVL
p252
aI14
aI4
aI6
aF0.667
aI1
aI2
aF0.5
aI0
aI0
aF0.0
aI0
aI0
aI0
aI4
aI0
aI0
aI1
aI3
aI9
aI-5
aa(lp253
V0020900969
p254
aVMAR 12, 2010
p255
aVNYK @ MEM
p256
aVL
p257
aI17
aI3
aI6
aF0.5
aI1
aI1
aF1.0
aI4
aI4
aF1.0
aI1
aI1
aI2
aI4
aI0
aI0
aI1
aI3
aI11
aI-14
aa(lp258
V0020900991
p259
aVMAR 15, 2010
p260
aVNYK @ PHI
p261
aVW
p262
aI6
aI1
aI3
aF0.333
aI0
aI0
aF0.0
aI0
aI0
aF0.0
aI0
aI0
aI0
aI1
aI0
aI0
aI0
aI1
aI2
aI-6
aa(lp263
V0020901009
p264
aVMAR 17, 2010
p265
aVNYK @ BOS
p266
aVL
p267
aI11
aI0
aI1
aF0.0
aI0
aI1
aF0.0
aI0
aI0
aF0.0
aI1
aI0
aI1
aI1
aI1
aI0
aI2
aI0
aI0
aI2
aa(lp268
V0020901021
p269
aVMAR 19, 2010
p270
aVNYK vs. PHI
p271
aVW
p272
aI9
aI1
aI3
aF0.333
aI0
aI2
aF0.0
aI0
aI0
aF0.0
aI0
aI0
aI0
aI1
aI0
aI0
aI3
aI4
aI2
aI-8
aa(lp273
V0020901055
p274
aVMAR 23, 2010
p275
aVNYK vs. DEN
p276
aVW
p277
aI10
aI1
aI3
aF0.333
aI0
aI2
aF0.0
aI2
aI2
aF1.0
aI0
aI0
aI0
aI1
aI0
aI0
aI0
aI0
aI4
aI7
aa(lp278
V0020901081
p279
aVMAR 26, 2010
p280
aVNYK @ PHX
p281
aVL
p282
aI10
aI2
aI3
aF0.667
aI0
aI0
aF0.0
aI0
aI0
aF0.0
aI0
aI0
aI0
aI3
aI1
aI0
aI0
aI0
aI4
aI-9
aa(lp283
V0020901101
p284
aVMAR 29, 2010
p285
aVNYK @ UTA
p286
aVL
p287
aI19
aI6
aI10
aF0.6
aI2
aI3
aF0.667
aI0
aI0
aF0.0
aI0
aI3
aI3
aI3
aI1
aI0
aI3
aI2
aI14
aI3
aa(lp288
V0020901118
p289
aVMAR 31, 2010
p290
aVNYK @ POR
p291
aVL
p292
aI26
aI4
aI5
aF0.8
aI0
aI0
aF0.0
aI4
aI4
aF1.0
aI1
aI1
aI2
aI2
aI0
aI0
aI2
aI2
aI12
aI-8
aa(lp293
V0020901130
p294
aVAPR 02, 2010
p295
aVNYK @ GSW
p296
aVL
p297
aI12
aI1
aI2
aF0.5
aI0
aI0
aF0.0
aI0
aI0
aF0.0
aI0
aI0
aI0
aI1
aI0
aI0
aI3
aI1
aI2
aI-16
aa(lp298
V0020901148
p299
aVAPR 04, 2010
p300
aVNYK @ LAC
p301
aVW
p302
aI22
aI2
aI3
aF0.667
aI0
aI1
aF0.0
aI0
aI0
aF0.0
aI0
aI1
aI1
aI10
aI0
aI1
aI3
aI1
aI4
aI9
aa(lp303
V0020901153
p304
aVAPR 06, 2010
p305
aVNYK vs. BOS
p306
aVW
p307
aI18
aI5
aI10
aF0.5
aI3
aI7
aF0.429
aI1
aI1
aF1.0
aI0
aI0
aI0
aI1
aI0
aI0
aI2
aI1
aI14
aI-18
aa(lp308
V0020901158
p309
aVAPR 07, 2010
p310
aVNYK @ IND
p311
aVL
p312
aI24
aI4
aI8
aF0.5
aI0
aI2
aF0.0
aI0
aI0
aF0.0
aI0
aI2
aI2
aI5
aI1
aI0
aI2
aI1
aI8
aI-6
aa(lp313
V0020901174
p314
aVAPR 09, 2010
p315
aVNYK @ ORL
p316
aVL
p317
aI24
aI4
aI6
aF0.667
aI2
aI2
aF1.0
aI3
aI4
aF0.75
aI0
aI0
aI0
aI3
aI1
aI0
aI1
aI1
aI13
aI-4
aa(lp318
V0020901199
p319
aVAPR 11, 2010
p320
aVNYK vs. MIA
p321
aVL
p322
aI18
aI0
aI2
aF0.0
aI0
aI1
aF0.0
aI1
aI2
aF0.5
aI0
aI2
aI2
aI4
aI0
aI0
aI2
aI1
aI1
aI-9
aa(lp323
V0020901206
p324
aVAPR 12, 2010
p325
aVNYK vs. WAS
p326
aVW
p327
aI18
aI4
aI6
aF0.667
aI2
aI2
aF1.0
aI2
aI2
aF1.0
aI0
aI0
aI0
aI0
aI0
aI0
aI1
aI1
aI12
aI21
aa(lp328
V0020901226
p329
aVAPR 14, 2010
p330
aVNYK @ TOR
p331
aVL
p332
aI20
aI3
aI7
aF0.429
aI0
aI1
aF0.0
aI0
aI0
aF0.0
aI2
aI1
aI3
aI1
aI0
aI0
aI4
aI2
aI6
aI-15
aasS'name'
p333
VSergio Rodriguez
p334
sS'weight'
p335
V176
p336
sS'age'
p337
I23
sS'experience'
p338
I3
sS'height'
p339
V6-3
p340
sS'position'
p341
VGuard
p342
s.