(dp0
S'age'
p1
I26
sS'stats'
p2
(lp3
(lp4
V0020901228
p5
aVAPR 14, 2010
p6
aVLAC vs. LAL
p7
aVW
p8
aI29
aI5
aI9
aF0.556
aI0
aI1
aF0.0
aI2
aI2
aF1.0
aI1
aI5
aI6
aI4
aI1
aI0
aI1
aI5
aI12
aI7
aa(lp9
V0020901212
p10
aVAPR 12, 2010
p11
aVLAC vs. DAL
p12
aVL
p13
aI30
aI6
aI8
aF0.75
aI0
aI0
aF0.0
aI3
aI4
aF0.75
aI2
aI1
aI3
aI2
aI0
aI0
aI0
aI4
aI15
aI-1
aa(lp14
V0020901169
p15
aVAPR 07, 2010
p16
aVLAC vs. POR
p17
aVL
p18
aI12
aI1
aI1
aF1.0
aI0
aI0
aF0.0
aI3
aI4
aF0.75
aI1
aI1
aI2
aI3
aI0
aI0
aI0
aI3
aI5
aI3
aa(lp19
V0020901148
p20
aVAPR 04, 2010
p21
aVLAC vs. NYK
p22
aVL
p23
aI14
aI2
aI4
aF0.5
aI0
aI0
aF0.0
aI2
aI6
aF0.333
aI0
aI2
aI2
aI1
aI0
aI0
aI0
aI2
aI6
aI-4
aa(lp24
V0020901139
p25
aVAPR 03, 2010
p26
aVLAC @ DEN
p27
aVL
p28
aI18
aI3
aI5
aF0.6
aI0
aI0
aF0.0
aI0
aI0
aF0.0
aI1
aI2
aI3
aI2
aI2
aI0
aI0
aI2
aI6
aI-4
aa(lp29
V0020901110
p30
aVMAR 31, 2010
p31
aVLAC @ TOR
p32
aVL
p33
aI21
aI2
aI4
aF0.5
aI0
aI0
aF0.0
aI0
aI0
aF0.0
aI2
aI5
aI7
aI0
aI1
aI0
aI0
aI2
aI4
aI-1
aa(lp34
V0020901105
p35
aVMAR 30, 2010
p36
aVLAC @ MIL
p37
aVL
p38
aI10
aI0
aI3
aF0.0
aI0
aI0
aF0.0
aI0
aI0
aF0.0
aI0
aI1
aI1
aI2
aI0
aI0
aI2
aI3
aI0
aI-6
aa(lp39
V0020901096
p40
aVMAR 28, 2010
p41
aVLAC vs. GSW
p42
aVL
p43
aI12
aI1
aI5
aF0.2
aI0
aI0
aF0.0
aI2
aI2
aF1.0
aI3
aI1
aI4
aI0
aI0
aI0
aI1
aI3
aI4
aI-13
aa(lp44
V0020901069
p45
aVMAR 25, 2010
p46
aVLAC @ HOU
p47
aVW
p48
aI26
aI10
aI13
aF0.769
aI0
aI0
aF0.0
aI5
aI10
aF0.5
aI4
aI6
aI10
aI2
aI2
aI2
aI0
aI4
aI25
aI25
aa(lp49
V0020901056
p50
aVMAR 23, 2010
p51
aVLAC @ DAL
p52
aVL
p53
aI4
aI0
aI0
aF0.0
aI0
aI0
aF0.0
aI0
aI0
aF0.0
aI0
aI0
aI0
aI0
aI0
aI0
aI0
aI2
aI0
aI0
aa(lp54
V0020901039
p55
aVMAR 21, 2010
p56
aVLAC vs. SAC
p57
aVL
p58
aI14
aI1
aI7
aF0.143
aI0
aI0
aF0.0
aI1
aI2
aF0.5
aI1
aI1
aI2
aI0
aI0
aI0
aI1
aI1
aI3
aI8
aa(lp59
V0020901015
p60
aVMAR 17, 2010
p61
aVLAC vs. MIL
p62
aVW
p63
aI16
aI2
aI3
aF0.667
aI0
aI0
aF0.0
aI3
aI4
aF0.75
aI0
aI8
aI8
aI0
aI2
aI0
aI2
aI2
aI7
aI7
aa(lp64
V0020900981
p65
aVMAR 13, 2010
p66
aVLAC @ SAS
p67
aVL
p68
aI18
aI1
aI6
aF0.167
aI0
aI0
aF0.0
aI1
aI2
aF0.5
aI1
aI6
aI7
aI3
aI1
aI1
aI3
aI5
aI3
aI-11
aa(lp69
V0020900964
p70
aVMAR 12, 2010
p71
aVLAC @ CHA
p72
aVL
p73
aI15
aI4
aI6
aF0.667
aI0
aI0
aF0.0
aI0
aI0
aF0.0
aI0
aI1
aI1
aI1
aI0
aI2
aI1
aI1
aI8
aI1
aa(lp74
V0020900956
p75
aVMAR 10, 2010
p76
aVLAC @ MIA
p77
aVL
p78
aI31
aI2
aI6
aF0.333
aI0
aI0
aF0.0
aI1
aI2
aF0.5
aI1
aI7
aI8
aI3
aI2
aI1
aI2
aI5
aI5
aI-2
aa(lp79
V0020900947
p80
aVMAR 09, 2010
p81
aVLAC @ ORL
p82
aVL
p83
aI12
aI3
aI5
aF0.6
aI0
aI0
aF0.0
aI3
aI4
aF0.75
aI0
aI2
aI2
aI0
aI0
aI1
aI1
aI2
aI9
aI-1
aa(lp84
V0020900933
p85
aVMAR 06, 2010
p86
aVLAC @ UTA
p87
aVL
p88
aI10
aI2
aI4
aF0.5
aI0
aI0
aF0.0
aI1
aI2
aF0.5
aI2
aI3
aI5
aI0
aI0
aI0
aI1
aI4
aI5
aI-12
aa(lp89
V0020900924
p90
aVMAR 05, 2010
p91
aVLAC vs. OKC
p92
aVL
p93
aI22
aI7
aI11
aF0.636
aI0
aI1
aF0.0
aI5
aI7
aF0.714
aI6
aI1
aI7
aI1
aI0
aI1
aI2
aI5
aI19
aI5
aa(lp94
V0020900884
p95
aVFEB 28, 2010
p96
aVLAC @ SAC
p97
aVL
p98
aI7
aI1
aI4
aF0.25
aI0
aI0
aF0.0
aI0
aI0
aF0.0
aI1
aI0
aI1
aI1
aI1
aI0
aI0
aI0
aI2
aI-6
aa(lp99
V0020900870
p100
aVFEB 26, 2010
p101
aVLAC @ PHX
p102
aVL
p103
aI20
aI7
aI11
aF0.636
aI0
aI0
aF0.0
aI2
aI3
aF0.667
aI0
aI3
aI3
aI0
aI0
aI0
aI0
aI2
aI16
aI-7
aa(lp104
V0020900855
p105
aVFEB 24, 2010
p106
aVLAC vs. DET
p107
aVW
p108
aI5
aI1
aI1
aF1.0
aI0
aI0
aF0.0
aI0
aI0
aF0.0
aI1
aI0
aI1
aI0
aI0
aI0
aI0
aI0
aI2
aI-1
aa(lp109
V0020900836
p110
aVFEB 22, 2010
p111
aVLAC vs. CHA
p112
aVW
p113
aI19
aI3
aI6
aF0.5
aI0
aI0
aF0.0
aI1
aI4
aF0.25
aI4
aI3
aI7
aI2
aI2
aI0
aI1
aI3
aI7
aI-1
aa(lp114
V0020900822
p115
aVFEB 20, 2010
p116
aVLAC vs. SAC
p117
aVW
p118
aI19
aI3
aI8
aF0.375
aI0
aI0
aF0.0
aI3
aI3
aF1.0
aI2
aI5
aI7
aI1
aI1
aI1
aI3
aI5
aI9
aI6
aa(lp119
V0020900801
p120
aVFEB 17, 2010
p121
aVLAC vs. ATL
p122
aVL
p123
aI24
aI5
aI9
aF0.556
aI0
aI0
aF0.0
aI5
aI6
aF0.833
aI0
aI6
aI6
aI1
aI0
aI2
aI5
aI4
aI15
aI-16
aa(lp124
V0020900788
p125
aVFEB 16, 2010
p126
aVLAC @ POR
p127
aVL
p128
aI25
aI3
aI4
aF0.75
aI0
aI0
aF0.0
aI1
aI2
aF0.5
aI1
aI5
aI6
aI1
aI1
aI0
aI1
aI5
aI7
aI-12
aa(lp129
V0020900778
p130
aVFEB 10, 2010
p131
aVLAC @ GSW
p132
aVL
p133
aI18
aI4
aI4
aF1.0
aI0
aI0
aF0.0
aI6
aI8
aF0.75
aI1
aI0
aI1
aI0
aI0
aI0
aI0
aI0
aI14
aI-8
aa(lp134
V0020900768
p135
aVFEB 09, 2010
p136
aVLAC vs. UTA
p137
aVL
p138
aI18
aI5
aI6
aF0.833
aI0
aI0
aF0.0
aI3
aI5
aF0.6
aI3
aI4
aI7
aI1
aI0
aI1
aI1
aI3
aI13
aI-13
aa(lp139
V0020900752
p140
aVFEB 06, 2010
p141
aVLAC vs. SAS
p142
aVL
p143
aI10
aI2
aI7
aF0.286
aI0
aI0
aF0.0
aI0
aI0
aF0.0
aI1
aI2
aI3
aI0
aI0
aI1
aI0
aI2
aI4
aI0
aa(lp144
V0020900718
p145
aVFEB 03, 2010
p146
aVLAC @ ATL
p147
aVL
p148
aI16
aI3
aI6
aF0.5
aI0
aI0
aF0.0
aI7
aI8
aF0.875
aI1
aI1
aI2
aI0
aI0
aI1
aI2
aI1
aI13
aI-11
aa(lp149
V0020900715
p150
aVFEB 02, 2010
p151
aVLAC @ CHI
p152
aVW
p153
aI19
aI3
aI5
aF0.6
aI0
aI0
aF0.0
aI0
aI1
aF0.0
aI1
aI5
aI6
aI2
aI0
aI0
aI1
aI2
aI6
aI-5
aa(lp154
V0020900697
p155
aVJAN 31, 2010
p156
aVLAC @ CLE
p157
aVL
p158
aI24
aI5
aI8
aF0.625
aI0
aI0
aF0.0
aI1
aI2
aF0.5
aI3
aI1
aI4
aI1
aI0
aI0
aI3
aI3
aI11
aI-10
aa(lp159
V0020900681
p160
aVJAN 29, 2010
p161
aVLAC @ MIN
p162
aVL
p163
aI22
aI3
aI7
aF0.429
aI0
aI0
aF0.0
aI2
aI3
aF0.667
aI1
aI2
aI3
aI1
aI0
aI0
aI2
aI3
aI8
aI-2
aa(lp164
V0020900667
p165
aVJAN 27, 2010
p166
aVLAC @ NJN
p167
aVL
p168
aI37
aI6
aI8
aF0.75
aI0
aI0
aF0.0
aI6
aI12
aF0.5
aI3
aI5
aI8
aI1
aI0
aI0
aI0
aI5
aI18
aI-9
aa(lp169
V0020900650
p170
aVJAN 25, 2010
p171
aVLAC @ BOS
p172
aVL
p173
aI21
aI3
aI6
aF0.5
aI0
aI0
aF0.0
aI7
aI10
aF0.7
aI2
aI3
aI5
aI1
aI0
aI0
aI0
aI4
aI13
aI0
aa(lp174
V0020900647
p175
aVJAN 24, 2010
p176
aVLAC @ WAS
p177
aVW
p178
aI18
aI3
aI6
aF0.5
aI0
aI0
aF0.0
aI1
aI1
aF1.0
aI4
aI3
aI7
aI0
aI0
aI0
aI3
aI2
aI7
aI7
aa(lp179
V0020900622
p180
aVJAN 21, 2010
p181
aVLAC @ DEN
p182
aVL
p183
aI28
aI9
aI14
aF0.643
aI0
aI0
aF0.0
aI3
aI4
aF0.75
aI2
aI4
aI6
aI0
aI1
aI1
aI1
aI4
aI21
aI1
aa(lp184
V0020900620
p185
aVJAN 20, 2010
p186
aVLAC vs. CHI
p187
aVW
p188
aI17
aI3
aI5
aF0.6
aI0
aI0
aF0.0
aI0
aI3
aF0.0
aI1
aI3
aI4
aI1
aI1
aI1
aI3
aI2
aI6
aI10
aa(lp189
V0020900599
p190
aVJAN 18, 2010
p191
aVLAC vs. NJN
p192
aVW
p193
aI19
aI8
aI10
aF0.8
aI0
aI0
aF0.0
aI2
aI2
aF1.0
aI2
aI2
aI4
aI1
aI1
aI0
aI3
aI5
aI18
aI8
aa(lp194
V0020900591
p195
aVJAN 16, 2010
p196
aVLAC vs. CLE
p197
aVL
p198
aI23
aI6
aI10
aF0.6
aI0
aI0
aF0.0
aI4
aI4
aF1.0
aI2
aI4
aI6
aI2
aI0
aI0
aI0
aI4
aI16
aI2
aa(lp199
V0020900582
p200
aVJAN 15, 2010
p201
aVLAC @ LAL
p202
aVL
p203
aI26
aI5
aI11
aF0.455
aI0
aI1
aF0.0
aI7
aI10
aF0.7
aI2
aI3
aI5
aI0
aI0
aI1
aI1
aI4
aI17
aI-12
aa(lp204
V0020900562
p205
aVJAN 13, 2010
p206
aVLAC @ NOH
p207
aVL
p208
aI14
aI1
aI2
aF0.5
aI0
aI0
aF0.0
aI4
aI6
aF0.667
aI1
aI2
aI3
aI2
aI0
aI0
aI1
aI3
aI6
aI6
aa(lp209
V0020900555
p210
aVJAN 12, 2010
p211
aVLAC @ MEM
p212
aVL
p213
aI12
aI4
aI6
aF0.667
aI0
aI0
aF0.0
aI0
aI0
aF0.0
aI1
aI0
aI1
aI2
aI0
aI0
aI3
aI4
aI8
aI-1
aa(lp214
V0020900540
p215
aVJAN 10, 2010
p216
aVLAC vs. MIA
p217
aVW
p218
aI19
aI1
aI3
aF0.333
aI0
aI0
aF0.0
aI7
aI10
aF0.7
aI3
aI4
aI7
aI3
aI0
aI0
aI1
aI1
aI9
aI9
aa(lp219
V0020900516
p220
aVJAN 06, 2010
p221
aVLAC vs. LAL
p222
aVW
p223
aI20
aI6
aI7
aF0.857
aI0
aI0
aF0.0
aI0
aI2
aF0.0
aI2
aI4
aI6
aI3
aI0
aI0
aI1
aI1
aI12
aI9
aa(lp224
V0020900497
p225
aVJAN 04, 2010
p226
aVLAC vs. POR
p227
aVW
p228
aI11
aI4
aI5
aF0.8
aI0
aI0
aF0.0
aI0
aI0
aF0.0
aI0
aI4
aI4
aI1
aI0
aI0
aI3
aI2
aI8
aI12
aa(lp229
V0020900467
p230
aVDEC 30, 2009
p231
aVLAC @ POR
p232
aVL
p233
aI3
aI0
aI1
aF0.0
aI0
aI0
aF0.0
aI0
aI0
aF0.0
aI1
aI0
aI1
aI0
aI0
aI1
aI0
aI1
aI0
aI0
aa(lp234
V0020900444
p235
aVDEC 27, 2009
p236
aVLAC vs. BOS
p237
aVW
p238
aI11
aI3
aI4
aF0.75
aI0
aI0
aF0.0
aI0
aI0
aF0.0
aI1
aI2
aI3
aI1
aI0
aI0
aI0
aI1
aI6
aI-3
aa(lp239
V0020900427
p240
aVDEC 25, 2009
p241
aVLAC @ PHX
p242
aVL
p243
aI18
aI3
aI6
aF0.5
aI0
aI0
aF0.0
aI2
aI3
aF0.667
aI0
aI3
aI3
aI1
aI0
aI0
aI3
aI0
aI8
aI-13
aa(lp244
V0020900412
p245
aVDEC 22, 2009
p246
aVLAC @ HOU
p247
aVL
p248
aI11
aI0
aI0
aF0.0
aI0
aI0
aF0.0
aI1
aI2
aF0.5
aI0
aI1
aI1
aI2
aI1
aI0
aI1
aI4
aI1
aI-7
aa(lp249
V0020900403
p250
aVDEC 21, 2009
p251
aVLAC @ SAS
p252
aVL
p253
aI12
aI2
aI4
aF0.5
aI0
aI0
aF0.0
aI0
aI0
aF0.0
aI0
aI1
aI1
aI1
aI0
aI0
aI1
aI1
aI4
aI5
aa(lp254
V0020900380
p255
aVDEC 18, 2009
p256
aVLAC @ NYK
p257
aVL
p258
aI4
aI0
aI1
aF0.0
aI0
aI0
aF0.0
aI0
aI2
aF0.0
aI0
aI1
aI1
aI1
aI0
aI0
aI1
aI0
aI0
aI-1
aa(lp259
V0020900364
p260
aVDEC 16, 2009
p261
aVLAC @ MIN
p262
aVW
p263
aI15
aI2
aI2
aF1.0
aI0
aI0
aF0.0
aI0
aI0
aF0.0
aI0
aI2
aI2
aI0
aI1
aI1
aI0
aI3
aI4
aI22
aa(lp264
V0020900350
p265
aVDEC 14, 2009
p266
aVLAC vs. WAS
p267
aVW
p268
aI5
aI1
aI2
aF0.5
aI0
aI0
aF0.0
aI0
aI0
aF0.0
aI0
aI0
aI0
aI0
aI1
aI0
aI1
aI2
aI2
aI3
aa(lp269
V0020900343
p270
aVDEC 13, 2009
p271
aVLAC vs. SAS
p272
aVL
p273
aI8
aI3
aI5
aF0.6
aI0
aI0
aF0.0
aI0
aI0
aF0.0
aI0
aI1
aI1
aI0
aI0
aI0
aI1
aI3
aI6
aI-8
aa(lp274
V0020900307
p275
aVDEC 08, 2009
p276
aVLAC vs. ORL
p277
aVL
p278
aI4
aI0
aI1
aF0.0
aI0
aI0
aF0.0
aI1
aI2
aF0.5
aI0
aI0
aI0
aI0
aI1
aI0
aI1
aI0
aI1
aI-5
aa(lp279
V0020900290
p280
aVDEC 05, 2009
p281
aVLAC vs. IND
p282
aVW
p283
aI13
aI0
aI4
aF0.0
aI0
aI0
aF0.0
aI4
aI6
aF0.667
aI3
aI2
aI5
aI2
aI0
aI0
aI0
aI2
aI4
aI-4
aa(lp284
V0020900268
p285
aVDEC 02, 2009
p286
aVLAC vs. HOU
p287
aVL
p288
aI13
aI4
aI5
aF0.8
aI0
aI0
aF0.0
aI0
aI0
aF0.0
aI0
aI1
aI1
aI0
aI0
aI0
aI1
aI2
aI8
aI-9
aa(lp289
V0020900240
p290
aVNOV 29, 2009
p291
aVLAC vs. MEM
p292
aVW
p293
aI18
aI2
aI4
aF0.5
aI0
aI0
aF0.0
aI2
aI4
aF0.5
aI2
aI0
aI2
aI2
aI1
aI2
aI2
aI4
aI6
aI1
aa(lp294
V0020900226
p295
aVNOV 27, 2009
p296
aVLAC @ DET
p297
aVW
p298
aI16
aI2
aI2
aF1.0
aI0
aI0
aF0.0
aI1
aI1
aF1.0
aI0
aI2
aI2
aI3
aI0
aI0
aI1
aI3
aI5
aI-1
aa(lp299
V0020900209
p300
aVNOV 25, 2009
p301
aVLAC @ IND
p302
aVL
p303
aI16
aI2
aI6
aF0.333
aI0
aI0
aF0.0
aI0
aI0
aF0.0
aI4
aI3
aI7
aI1
aI0
aI0
aI1
aI3
aI4
aI-18
aa(lp304
V0020900201
p305
aVNOV 23, 2009
p306
aVLAC vs. MIN
p307
aVW
p308
aI20
aI3
aI5
aF0.6
aI0
aI0
aF0.0
aI1
aI2
aF0.5
aI1
aI3
aI4
aI0
aI0
aI0
aI1
aI3
aI7
aI5
aa(lp309
V0020900182
p310
aVNOV 20, 2009
p311
aVLAC vs. DEN
p312
aVW
p313
aI19
aI3
aI5
aF0.6
aI0
aI0
aF0.0
aI2
aI2
aF1.0
aI1
aI3
aI4
aI5
aI0
aI0
aI3
aI3
aI8
aI8
aa(lp314
V0020900164
p315
aVNOV 18, 2009
p316
aVLAC @ MEM
p317
aVL
p318
aI23
aI6
aI7
aF0.857
aI0
aI0
aF0.0
aI0
aI0
aF0.0
aI0
aI4
aI4
aI1
aI1
aI0
aI1
aI3
aI12
aI-2
aa(lp319
V0020900153
p320
aVNOV 17, 2009
p321
aVLAC @ NOH
p322
aVL
p323
aI10
aI1
aI2
aF0.5
aI0
aI0
aF0.0
aI0
aI2
aF0.0
aI1
aI1
aI2
aI1
aI0
aI0
aI0
aI2
aI2
aI-14
aa(lp324
V0020900144
p325
aVNOV 15, 2009
p326
aVLAC @ OKC
p327
aVW
p328
aI15
aI1
aI2
aF0.5
aI0
aI0
aF0.0
aI2
aI4
aF0.5
aI3
aI1
aI4
aI2
aI1
aI0
aI0
aI1
aI4
aI7
aa(lp329
V0020900132
p330
aVNOV 13, 2009
p331
aVLAC vs. TOR
p332
aVL
p333
aI14
aI2
aI4
aF0.5
aI0
aI0
aF0.0
aI3
aI3
aF1.0
aI2
aI5
aI7
aI1
aI1
aI0
aI1
aI2
aI7
aI2
aa(lp334
V0020900120
p335
aVNOV 11, 2009
p336
aVLAC vs. OKC
p337
aVL
p338
aI18
aI2
aI5
aF0.4
aI0
aI0
aF0.0
aI2
aI2
aF1.0
aI1
aI1
aI2
aI1
aI0
aI0
aI1
aI1
aI6
aI-8
aa(lp339
V0020900102
p340
aVNOV 09, 2009
p341
aVLAC vs. NOH
p342
aVL
p343
aI12
aI2
aI2
aF1.0
aI0
aI0
aF0.0
aI0
aI0
aF0.0
aI1
aI2
aI3
aI0
aI2
aI0
aI0
aI1
aI4
aI-5
aa(lp344
V0020900091
p345
aVNOV 07, 2009
p346
aVLAC vs. MEM
p347
aVW
p348
aI23
aI8
aI11
aF0.727
aI1
aI1
aF1.0
aI1
aI2
aF0.5
aI3
aI2
aI5
aI1
aI2
aI0
aI1
aI3
aI18
aI8
aa(lp349
V0020900082
p350
aVNOV 06, 2009
p351
aVLAC @ GSW
p352
aVW
p353
aI4
aI0
aI0
aF0.0
aI0
aI0
aF0.0
aI0
aI0
aF0.0
aI0
aI3
aI3
aI1
aI0
aI0
aI0
aI2
aI0
aI4
aa(lp354
V0020900050
p355
aVNOV 02, 2009
p356
aVLAC vs. MIN
p357
aVW
p358
aI17
aI4
aI7
aF0.571
aI0
aI0
aF0.0
aI1
aI2
aF0.5
aI0
aI3
aI3
aI1
aI0
aI0
aI3
aI3
aI9
aI1
aa(lp359
V0020900038
p360
aVOCT 31, 2009
p361
aVLAC vs. DAL
p362
aVL
p363
aI18
aI2
aI3
aF0.667
aI0
aI0
aF0.0
aI3
aI4
aF0.75
aI1
aI3
aI4
aI1
aI1
aI0
aI2
aI5
aI7
aI1
aa(lp364
V0020900029
p365
aVOCT 30, 2009
p366
aVLAC @ UTA
p367
aVL
p368
aI16
aI3
aI7
aF0.429
aI0
aI0
aF0.0
aI1
aI1
aF1.0
aI0
aI4
aI4
aI2
aI0
aI3
aI2
aI2
aI7
aI-1
aa(lp369
V0020900016
p370
aVOCT 28, 2009
p371
aVLAC vs. PHX
p372
aVL
p373
aI9
aI0
aI2
aF0.0
aI0
aI0
aF0.0
aI1
aI2
aF0.5
aI0
aI2
aI2
aI0
aI0
aI0
aI1
aI2
aI1
aI-4
aa(lp374
V0020900004
p375
aVOCT 27, 2009
p376
aVLAC @ LAL
p377
aVL
p378
aI20
aI6
aI9
aF0.667
aI0
aI1
aF0.0
aI0
aI2
aF0.0
aI2
aI3
aI5
aI1
aI1
aI1
aI2
aI3
aI12
aI-12
aasS'name'
p379
VCraig Smith
p380
sS'experience'
p381
I3
s.