(dp0
S'age'
p1
I23
sS'stats'
p2
(lp3
(lp4
V0020901224
p5
aVAPR 14, 2010
p6
aVMEM @ OKC
p7
aVL
p8
aI43
aI9
aI21
aF0.429
aI0
aI2
aF0.0
aI7
aI9
aF0.778
aI1
aI4
aI5
aI3
aI3
aI0
aI1
aI2
aI25
aI-15
aa(lp9
V0020901209
p10
aVAPR 12, 2010
p11
aVMEM @ DEN
p12
aVL
p13
aI29
aI3
aI14
aF0.214
aI0
aI1
aF0.0
aI2
aI4
aF0.5
aI1
aI2
aI3
aI1
aI3
aI0
aI2
aI4
aI8
aI-26
aa(lp14
V0020901190
p15
aVAPR 10, 2010
p16
aVMEM vs. PHI
p17
aVL
p18
aI43
aI3
aI7
aF0.429
aI0
aI2
aF0.0
aI8
aI9
aF0.889
aI1
aI5
aI6
aI1
aI0
aI0
aI3
aI1
aI14
aI-14
aa(lp19
V0020901185
p20
aVAPR 09, 2010
p21
aVMEM @ SAS
p22
aVW
p23
aI38
aI9
aI16
aF0.563
aI1
aI3
aF0.333
aI2
aI4
aF0.5
aI1
aI6
aI7
aI4
aI2
aI2
aI2
aI3
aI21
aI1
aa(lp24
V0020901167
p25
aVAPR 07, 2010
p26
aVMEM @ DAL
p27
aVL
p28
aI45
aI9
aI16
aF0.563
aI1
aI2
aF0.5
aI4
aI6
aF0.667
aI0
aI2
aI2
aI0
aI0
aI0
aI2
aI5
aI23
aI-24
aa(lp29
V0020901155
p30
aVAPR 06, 2010
p31
aVMEM vs. HOU
p32
aVL
p33
aI40
aI10
aI18
aF0.556
aI0
aI1
aF0.0
aI0
aI0
aF0.0
aI5
aI3
aI8
aI1
aI2
aI0
aI4
aI2
aI20
aI-18
aa(lp34
V0020901144
p35
aVAPR 04, 2010
p36
aVMEM @ ORL
p37
aVL
p38
aI41
aI6
aI14
aF0.429
aI0
aI1
aF0.0
aI6
aI9
aF0.667
aI2
aI2
aI4
aI1
aI1
aI0
aI5
aI2
aI18
aI-15
aa(lp39
V0020901128
p40
aVAPR 02, 2010
p41
aVMEM vs. NOH
p42
aVW
p43
aI36
aI7
aI19
aF0.368
aI0
aI1
aF0.0
aI6
aI6
aF1.0
aI2
aI7
aI9
aI2
aI1
aI1
aI2
aI0
aI20
aI0
aa(lp44
V0020901114
p45
aVMAR 31, 2010
p46
aVMEM vs. DAL
p47
aVL
p48
aI44
aI5
aI18
aF0.278
aI1
aI7
aF0.143
aI0
aI0
aF0.0
aI3
aI5
aI8
aI0
aI0
aI1
aI4
aI2
aI11
aI-10
aa(lp49
V0020901088
p50
aVMAR 28, 2010
p51
aVMEM @ MIL
p52
aVL
p53
aI50
aI8
aI16
aF0.5
aI1
aI2
aF0.5
aI3
aI4
aF0.75
aI1
aI5
aI6
aI4
aI2
aI0
aI4
aI3
aI20
aI-6
aa(lp54
V0020901067
p55
aVMAR 24, 2010
p56
aVMEM @ GSW
p57
aVL
p58
aI37
aI9
aI12
aF0.75
aI1
aI2
aF0.5
aI6
aI8
aF0.75
aI4
aI6
aI10
aI0
aI1
aI1
aI0
aI5
aI25
aI-3
aa(lp59
V0020901051
p60
aVMAR 22, 2010
p61
aVMEM @ SAC
p62
aVW
p63
aI38
aI6
aI13
aF0.462
aI1
aI1
aF1.0
aI4
aI5
aF0.8
aI3
aI4
aI7
aI3
aI0
aI1
aI3
aI1
aI17
aI27
aa(lp64
V0020901032
p65
aVMAR 20, 2010
p66
aVMEM vs. GSW
p67
aVW
p68
aI38
aI9
aI17
aF0.529
aI4
aI6
aF0.667
aI3
aI3
aF1.0
aI2
aI4
aI6
aI3
aI0
aI1
aI4
aI1
aI25
aI28
aa(lp69
V0020901012
p70
aVMAR 17, 2010
p71
aVMEM @ HOU
p72
aVL
p73
aI37
aI6
aI17
aF0.353
aI0
aI1
aF0.0
aI2
aI4
aF0.5
aI1
aI0
aI1
aI4
aI2
aI0
aI3
aI3
aI14
aI-17
aa(lp74
V0020901001
p75
aVMAR 16, 2010
p76
aVMEM vs. CHI
p77
aVW
p78
aI37
aI5
aI13
aF0.385
aI1
aI3
aF0.333
aI1
aI2
aF0.5
aI2
aI4
aI6
aI3
aI1
aI0
aI3
aI4
aI12
aI20
aa(lp79
V0020900978
p80
aVMAR 13, 2010
p81
aVMEM vs. DEN
p82
aVL
p83
aI39
aI5
aI11
aF0.455
aI1
aI3
aF0.333
aI1
aI2
aF0.5
aI0
aI4
aI4
aI1
aI2
aI1
aI0
aI1
aI12
aI-17
aa(lp84
V0020900969
p85
aVMAR 12, 2010
p86
aVMEM vs. NYK
p87
aVW
p88
aI41
aI7
aI12
aF0.583
aI2
aI5
aF0.4
aI4
aI4
aF1.0
aI0
aI6
aI6
aI2
aI2
aI1
aI2
aI3
aI20
aI15
aa(lp89
V0020900954
p90
aVMAR 10, 2010
p91
aVMEM @ BOS
p92
aVW
p93
aI39
aI10
aI18
aF0.556
aI3
aI5
aF0.6
aI5
aI6
aF0.833
aI1
aI7
aI8
aI2
aI1
aI1
aI2
aI1
aI28
aI28
aa(lp94
V0020900942
p95
aVMAR 08, 2010
p96
aVMEM vs. NJN
p97
aVW
p98
aI38
aI7
aI18
aF0.389
aI0
aI1
aF0.0
aI7
aI9
aF0.778
aI3
aI7
aI10
aI0
aI2
aI0
aI0
aI2
aI21
aI-6
aa(lp99
V0020900929
p100
aVMAR 06, 2010
p101
aVMEM vs. SAS
p102
aVL
p103
aI39
aI5
aI15
aF0.333
aI0
aI0
aF0.0
aI3
aI4
aF0.75
aI1
aI5
aI6
aI0
aI1
aI0
aI3
aI2
aI13
aI0
aa(lp104
V0020900911
p105
aVMAR 04, 2010
p106
aVMEM @ CHI
p107
aVW
p108
aI45
aI6
aI15
aF0.4
aI1
aI4
aF0.25
aI4
aI4
aF1.0
aI1
aI5
aI6
aI1
aI5
aI2
aI3
aI2
aI17
aI11
aa(lp109
V0020900905
p110
aVMAR 03, 2010
p111
aVMEM @ NOH
p112
aVW
p113
aI43
aI5
aI11
aF0.455
aI0
aI0
aF0.0
aI5
aI6
aF0.833
aI1
aI4
aI5
aI6
aI5
aI1
aI5
aI0
aI15
aI5
aa(lp114
V0020900890
p115
aVMAR 01, 2010
p116
aVMEM vs. POR
p117
aVL
p118
aI42
aI8
aI16
aF0.5
aI1
aI5
aF0.2
aI2
aI2
aF1.0
aI2
aI5
aI7
aI2
aI2
aI2
aI4
aI3
aI19
aI1
aa(lp119
V0020900874
p120
aVFEB 27, 2010
p121
aVMEM @ NYK
p122
aVW
p123
aI44
aI10
aI18
aF0.556
aI3
aI4
aF0.75
aI4
aI4
aF1.0
aI0
aI5
aI5
aI3
aI1
aI1
aI0
aI0
aI27
aI11
aa(lp124
V0020900863
p125
aVFEB 26, 2010
p126
aVMEM vs. CHA
p127
aVL
p128
aI40
aI8
aI14
aF0.571
aI2
aI4
aF0.5
aI2
aI2
aF1.0
aI0
aI5
aI5
aI3
aI0
aI2
aI1
aI0
aI20
aI-8
aa(lp129
V0020900847
p130
aVFEB 24, 2010
p131
aVMEM @ WAS
p132
aVW
p133
aI40
aI9
aI20
aF0.45
aI0
aI1
aF0.0
aI2
aI4
aF0.5
aI3
aI4
aI7
aI1
aI3
aI0
aI1
aI4
aI20
aI-5
aa(lp134
V0020900841
p135
aVFEB 23, 2010
p136
aVMEM vs. LAL
p137
aVL
p138
aI42
aI7
aI17
aF0.412
aI0
aI1
aF0.0
aI3
aI4
aF0.75
aI0
aI6
aI6
aI2
aI1
aI2
aI1
aI3
aI17
aI-1
aa(lp139
V0020900826
p140
aVFEB 21, 2010
p141
aVMEM @ NJN
p142
aVW
p143
aI39
aI13
aI21
aF0.619
aI1
aI1
aF1.0
aI2
aI3
aF0.667
aI4
aI4
aI8
aI1
aI1
aI0
aI2
aI1
aI29
aI11
aa(lp144
V0020900808
p145
aVFEB 19, 2010
p146
aVMEM vs. MIA
p147
aVL
p148
aI51
aI6
aI19
aF0.316
aI1
aI5
aF0.2
aI2
aI2
aF1.0
aI0
aI8
aI8
aI1
aI0
aI2
aI3
aI2
aI15
aI-13
aa(lp149
V0020900793
p150
aVFEB 17, 2010
p151
aVMEM @ TOR
p152
aVW
p153
aI46
aI10
aI17
aF0.588
aI1
aI1
aF1.0
aI8
aI10
aF0.8
aI0
aI8
aI8
aI2
aI0
aI1
aI1
aI2
aI29
aI19
aa(lp154
V0020900785
p155
aVFEB 16, 2010
p156
aVMEM vs. PHX
p157
aVL
p158
aI41
aI7
aI19
aF0.368
aI1
aI6
aF0.167
aI6
aI7
aF0.857
aI0
aI2
aI2
aI1
aI2
aI1
aI1
aI1
aI21
aI-17
aa(lp159
V0020900764
p160
aVFEB 09, 2010
p161
aVMEM vs. ATL
p162
aVL
p163
aI34
aI8
aI13
aF0.615
aI0
aI1
aF0.0
aI2
aI2
aF1.0
aI0
aI1
aI1
aI0
aI2
aI0
aI2
aI5
aI18
aI-3
aa(lp164
V0020900746
p165
aVFEB 06, 2010
p166
aVMEM @ MIN
p167
aVL
p168
aI38
aI13
aI18
aF0.722
aI1
aI2
aF0.5
aI0
aI0
aF0.0
aI1
aI7
aI8
aI1
aI2
aI1
aI1
aI2
aI27
aI-4
aa(lp169
V0020900736
p170
aVFEB 05, 2010
p171
aVMEM vs. HOU
p172
aVL
p173
aI30
aI4
aI9
aF0.444
aI0
aI1
aF0.0
aI3
aI4
aF0.75
aI1
aI2
aI3
aI4
aI0
aI0
aI3
aI5
aI11
aI-15
aa(lp174
V0020900711
p175
aVFEB 02, 2010
p176
aVMEM @ CLE
p177
aVL
p178
aI34
aI7
aI14
aF0.5
aI0
aI1
aF0.0
aI1
aI2
aF0.5
aI0
aI3
aI3
aI2
aI1
aI0
aI1
aI4
aI15
aI-22
aa(lp179
V0020900706
p180
aVFEB 01, 2010
p181
aVMEM vs. LAL
p182
aVW
p183
aI44
aI10
aI19
aF0.526
aI2
aI5
aF0.4
aI3
aI4
aF0.75
aI1
aI3
aI4
aI1
aI3
aI0
aI2
aI2
aI25
aI3
aa(lp184
V0020900690
p185
aVJAN 30, 2010
p186
aVMEM vs. NOH
p187
aVL
p188
aI45
aI3
aI14
aF0.214
aI1
aI5
aF0.2
aI3
aI6
aF0.5
aI3
aI4
aI7
aI1
aI1
aI1
aI1
aI4
aI10
aI-2
aa(lp189
V0020900686
p190
aVJAN 29, 2010
p191
aVMEM @ SAS
p192
aVL
p193
aI42
aI4
aI9
aF0.444
aI0
aI1
aF0.0
aI1
aI2
aF0.5
aI0
aI1
aI1
aI3
aI2
aI1
aI3
aI4
aI9
aI-14
aa(lp194
V0020900666
p195
aVJAN 27, 2010
p196
aVMEM @ DET
p197
aVW
p198
aI38
aI4
aI13
aF0.308
aI0
aI2
aF0.0
aI8
aI9
aF0.889
aI2
aI6
aI8
aI2
aI0
aI1
aI1
aI2
aI16
aI14
aa(lp199
V0020900652
p200
aVJAN 25, 2010
p201
aVMEM vs. ORL
p202
aVW
p203
aI41
aI7
aI17
aF0.412
aI1
aI3
aF0.333
aI0
aI2
aF0.0
aI1
aI2
aI3
aI1
aI1
aI0
aI3
aI2
aI15
aI10
aa(lp204
V0020900630
p205
aVJAN 22, 2010
p206
aVMEM vs. OKC
p207
aVW
p208
aI44
aI10
aI22
aF0.455
aI0
aI4
aF0.0
aI5
aI7
aF0.714
aI0
aI6
aI6
aI0
aI1
aI1
aI0
aI5
aI25
aI14
aa(lp209
V0020900616
p210
aVJAN 20, 2010
p211
aVMEM @ NOH
p212
aVL
p213
aI43
aI11
aI16
aF0.688
aI1
aI1
aF1.0
aI3
aI4
aF0.75
aI0
aI3
aI3
aI3
aI2
aI0
aI0
aI3
aI26
aI5
aa(lp214
V0020900603
p215
aVJAN 18, 2010
p216
aVMEM vs. PHX
p217
aVW
p218
aI41
aI11
aI20
aF0.55
aI3
aI5
aF0.6
aI6
aI8
aF0.75
aI4
aI5
aI9
aI0
aI1
aI3
aI3
aI3
aI31
aI6
aa(lp219
V0020900588
p220
aVJAN 16, 2010
p221
aVMEM vs. SAS
p222
aVW
p223
aI37
aI4
aI16
aF0.25
aI0
aI3
aF0.0
aI0
aI0
aF0.0
aI2
aI2
aI4
aI2
aI0
aI1
aI2
aI1
aI8
aI4
aa(lp224
V0020900576
p225
aVJAN 15, 2010
p226
aVMEM vs. MIN
p227
aVW
p228
aI28
aI8
aI16
aF0.5
aI3
aI5
aF0.6
aI2
aI2
aF1.0
aI1
aI0
aI1
aI5
aI2
aI0
aI0
aI1
aI21
aI27
aa(lp229
V0020900555
p230
aVJAN 12, 2010
p231
aVMEM vs. LAC
p232
aVW
p233
aI42
aI9
aI16
aF0.563
aI0
aI0
aF0.0
aI6
aI8
aF0.75
aI0
aI6
aI6
aI1
aI0
aI0
aI2
aI3
aI24
aI2
aa(lp234
V0020900530
p235
aVJAN 09, 2010
p236
aVMEM @ CHA
p237
aVL
p238
aI41
aI6
aI17
aF0.353
aI0
aI3
aF0.0
aI3
aI4
aF0.75
aI2
aI8
aI10
aI2
aI2
aI1
aI3
aI3
aI15
aI-4
aa(lp239
V0020900521
p240
aVJAN 08, 2010
p241
aVMEM vs. UTA
p242
aVW
p243
aI41
aI7
aI15
aF0.467
aI2
aI4
aF0.5
aI6
aI6
aF1.0
aI2
aI5
aI7
aI2
aI2
aI3
aI2
aI3
aI22
aI0
aa(lp244
V0020900515
p245
aVJAN 06, 2010
p246
aVMEM @ UTA
p247
aVL
p248
aI33
aI5
aI13
aF0.385
aI0
aI1
aF0.0
aI1
aI2
aF0.5
aI3
aI5
aI8
aI3
aI0
aI0
aI3
aI1
aI11
aI-15
aa(lp249
V0020900504
p250
aVJAN 05, 2010
p251
aVMEM @ POR
p252
aVW
p253
aI41
aI6
aI18
aF0.333
aI1
aI3
aF0.333
aI5
aI7
aF0.714
aI2
aI2
aI4
aI2
aI0
aI0
aI2
aI1
aI18
aI3
aa(lp254
V0020900485
p255
aVJAN 02, 2010
p256
aVMEM @ PHX
p257
aVW
p258
aI34
aI6
aI21
aF0.286
aI2
aI5
aF0.4
aI2
aI2
aF1.0
aI1
aI5
aI6
aI4
aI1
aI1
aI1
aI3
aI16
aI21
aa(lp259
V0020900460
p260
aVDEC 30, 2009
p261
aVMEM @ IND
p262
aVW
p263
aI43
aI10
aI19
aF0.526
aI1
aI2
aF0.5
aI10
aI11
aF0.909
aI1
aI8
aI9
aI4
aI3
aI1
aI2
aI1
aI31
aI17
aa(lp264
V0020900429
p265
aVDEC 26, 2009
p266
aVMEM @ DAL
p267
aVL
p268
aI42
aI10
aI22
aF0.455
aI0
aI1
aF0.0
aI2
aI4
aF0.5
aI3
aI7
aI10
aI2
aI0
aI1
aI1
aI3
aI22
aI4
aa(lp269
V0020900409
p270
aVDEC 22, 2009
p271
aVMEM vs. GSW
p272
aVW
p273
aI29
aI6
aI9
aF0.667
aI0
aI0
aF0.0
aI4
aI5
aF0.8
aI1
aI3
aI4
aI2
aI0
aI2
aI1
aI5
aI16
aI-6
aa(lp274
V0020900394
p275
aVDEC 20, 2009
p276
aVMEM vs. DEN
p277
aVW
p278
aI39
aI9
aI16
aF0.563
aI0
aI2
aF0.0
aI1
aI3
aF0.333
aI2
aI1
aI3
aI2
aI0
aI0
aI2
aI5
aI19
aI7
aa(lp279
V0020900377
p280
aVDEC 18, 2009
p281
aVMEM vs. IND
p282
aVW
p283
aI34
aI6
aI16
aF0.375
aI0
aI1
aF0.0
aI6
aI6
aF1.0
aI3
aI0
aI3
aI0
aI4
aI0
aI1
aI5
aI18
aI16
aa(lp284
V0020900358
p285
aVDEC 16, 2009
p286
aVMEM @ ATL
p287
aVL
p288
aI30
aI4
aI11
aF0.364
aI1
aI3
aF0.333
aI2
aI2
aF1.0
aI1
aI2
aI3
aI1
aI1
aI1
aI3
aI3
aI11
aI-5
aa(lp289
V0020900346
p290
aVDEC 14, 2009
p291
aVMEM vs. BOS
p292
aVL
p293
aI41
aI7
aI17
aF0.412
aI0
aI5
aF0.0
aI9
aI9
aF1.0
aI1
aI6
aI7
aI2
aI3
aI1
aI1
aI3
aI23
aI-3
aa(lp294
V0020900341
p295
aVDEC 13, 2009
p296
aVMEM @ MIA
p297
aVW
p298
aI38
aI15
aI28
aF0.536
aI3
aI4
aF0.75
aI8
aI12
aF0.667
aI0
aI4
aI4
aI2
aI2
aI0
aI2
aI1
aI41
aI35
aa(lp299
V0020900326
p300
aVDEC 11, 2009
p301
aVMEM vs. OKC
p302
aVL
p303
aI41
aI4
aI16
aF0.25
aI1
aI3
aF0.333
aI7
aI12
aF0.583
aI3
aI4
aI7
aI0
aI0
aI2
aI2
aI2
aI16
aI-8
aa(lp304
V0020900304
p305
aVDEC 08, 2009
p306
aVMEM vs. CLE
p307
aVW
p308
aI45
aI9
aI22
aF0.409
aI1
aI5
aF0.2
aI2
aI6
aF0.333
aI3
aI2
aI5
aI2
aI4
aI3
aI0
aI3
aI21
aI6
aa(lp309
V0020900276
p310
aVDEC 04, 2009
p311
aVMEM vs. DAL
p312
aVW
p313
aI39
aI7
aI18
aF0.389
aI2
aI2
aF1.0
aI2
aI4
aF0.5
aI0
aI6
aI6
aI3
aI2
aI1
aI4
aI1
aI18
aI17
aa(lp314
V0020900265
p315
aVDEC 02, 2009
p316
aVMEM @ MIN
p317
aVW
p318
aI42
aI7
aI14
aF0.5
aI0
aI3
aF0.0
aI6
aI8
aF0.75
aI0
aI3
aI3
aI3
aI2
aI0
aI4
aI1
aI20
aI-4
aa(lp319
V0020900240
p320
aVNOV 29, 2009
p321
aVMEM @ LAC
p322
aVL
p323
aI40
aI7
aI14
aF0.5
aI0
aI2
aF0.0
aI1
aI4
aF0.25
aI1
aI9
aI10
aI0
aI2
aI1
aI2
aI4
aI15
aI-12
aa(lp324
V0020900232
p325
aVNOV 27, 2009
p326
aVMEM @ POR
p327
aVW
p328
aI42
aI5
aI13
aF0.385
aI1
aI2
aF0.5
aI3
aI4
aF0.75
aI0
aI5
aI5
aI3
aI0
aI2
aI2
aI4
aI14
aI9
aa(lp329
V0020900217
p330
aVNOV 25, 2009
p331
aVMEM @ PHX
p332
aVL
p333
aI38
aI6
aI15
aF0.4
aI0
aI1
aF0.0
aI4
aI4
aF1.0
aI3
aI4
aI7
aI2
aI1
aI1
aI1
aI2
aI16
aI-21
aa(lp334
V0020900198
p335
aVNOV 23, 2009
p336
aVMEM vs. SAC
p337
aVW
p338
aI42
aI10
aI17
aF0.588
aI1
aI3
aF0.333
aI3
aI5
aF0.6
aI2
aI6
aI8
aI3
aI3
aI1
aI4
aI3
aI24
aI15
aa(lp339
V0020900185
p340
aVNOV 21, 2009
p341
aVMEM vs. MIL
p342
aVL
p343
aI42
aI8
aI18
aF0.444
aI1
aI4
aF0.25
aI7
aI7
aF1.0
aI3
aI7
aI10
aI3
aI0
aI1
aI4
aI1
aI24
aI-6
aa(lp344
V0020900174
p345
aVNOV 20, 2009
p346
aVMEM @ PHI
p347
aVW
p348
aI41
aI14
aI22
aF0.636
aI2
aI3
aF0.667
aI3
aI4
aF0.75
aI3
aI7
aI10
aI1
aI2
aI2
aI2
aI1
aI33
aI6
aa(lp349
V0020900164
p350
aVNOV 18, 2009
p351
aVMEM vs. LAC
p352
aVW
p353
aI35
aI9
aI15
aF0.6
aI0
aI0
aF0.0
aI3
aI3
aF1.0
aI2
aI2
aI4
aI3
aI3
aI0
aI2
aI2
aI21
aI13
aa(lp354
V0020900140
p355
aVNOV 14, 2009
p356
aVMEM vs. MIN
p357
aVW
p358
aI40
aI7
aI17
aF0.412
aI0
aI3
aF0.0
aI5
aI6
aF0.833
aI1
aI4
aI5
aI6
aI1
aI1
aI4
aI3
aI19
aI13
aa(lp359
V0020900118
p360
aVNOV 11, 2009
p361
aVMEM @ HOU
p362
aVL
p363
aI38
aI6
aI13
aF0.462
aI0
aI1
aF0.0
aI6
aI7
aF0.857
aI0
aI3
aI3
aI2
aI2
aI1
aI4
aI3
aI18
aI-21
aa(lp364
V0020900106
p365
aVNOV 10, 2009
p366
aVMEM vs. POR
p367
aVL
p368
aI40
aI4
aI11
aF0.364
aI0
aI3
aF0.0
aI4
aI7
aF0.571
aI1
aI5
aI6
aI1
aI4
aI1
aI6
aI3
aI12
aI-16
aa(lp369
V0020900091
p370
aVNOV 07, 2009
p371
aVMEM @ LAC
p372
aVL
p373
aI41
aI11
aI20
aF0.55
aI0
aI0
aF0.0
aI11
aI13
aF0.846
aI2
aI4
aI6
aI2
aI1
aI0
aI0
aI4
aI33
aI-1
aa(lp374
V0020900083
p375
aVNOV 06, 2009
p376
aVMEM @ LAL
p377
aVL
p378
aI44
aI8
aI16
aF0.5
aI2
aI2
aF1.0
aI4
aI4
aF1.0
aI0
aI4
aI4
aI0
aI2
aI1
aI2
aI2
aI22
aI-21
aa(lp379
V0020900069
p380
aVNOV 04, 2009
p381
aVMEM @ GSW
p382
aVL
p383
aI36
aI11
aI18
aF0.611
aI2
aI4
aF0.5
aI5
aI8
aF0.625
aI2
aI6
aI8
aI1
aI1
aI0
aI0
aI3
aI29
aI-2
aa(lp384
V0020900049
p385
aVNOV 02, 2009
p386
aVMEM @ SAC
p387
aVL
p388
aI46
aI9
aI23
aF0.391
aI1
aI2
aF0.5
aI2
aI4
aF0.5
aI4
aI9
aI13
aI1
aI2
aI1
aI2
aI2
aI21
aI-8
aa(lp389
V0020900043
p390
aVNOV 01, 2009
p391
aVMEM @ DEN
p392
aVL
p393
aI31
aI7
aI13
aF0.538
aI0
aI2
aF0.0
aI4
aI7
aF0.571
aI0
aI4
aI4
aI1
aI1
aI0
aI2
aI4
aI18
aI-12
aa(lp394
V0020900025
p395
aVOCT 30, 2009
p396
aVMEM vs. TOR
p397
aVW
p398
aI47
aI7
aI15
aF0.467
aI1
aI1
aF1.0
aI2
aI3
aF0.667
aI2
aI7
aI9
aI2
aI3
aI1
aI2
aI1
aI17
aI13
aa(lp399
V0020900010
p400
aVOCT 28, 2009
p401
aVMEM vs. DET
p402
aVL
p403
aI34
aI7
aI12
aF0.583
aI1
aI2
aF0.5
aI1
aI1
aF1.0
aI0
aI5
aI5
aI2
aI0
aI0
aI1
aI4
aI16
aI-11
aasS'name'
p404
VRudy Gay
p405
sS'experience'
p406
I3
s.