(dp0
S'age'
p1
I26
sS'stats'
p2
(lp3
(lp4
V0020900003
p5
aVOCT 27, 2009
p6
aVHOU @ POR
p7
aVL
p8
aI4
aI0
aI1
aF0.0
aI0
aI0
aF0.0
aI1
aI2
aF0.5
aI0
aI0
aI0
aI0
aI1
aI0
aI0
aI1
aI1
aI-9
aa(lp9
V0020900048
p10
aVNOV 02, 2009
p11
aVHOU @ UTA
p12
aVW
p13
aI1
aI0
aI0
aF0.0
aI0
aI0
aF0.0
aI0
aI0
aF0.0
aI0
aI0
aI0
aI0
aI0
aI0
aI0
aI1
aI0
aI-4
aa(lp14
V0020900107
p15
aVNOV 10, 2009
p16
aVHOU @ DAL
p17
aVL
p18
aI3
aI1
aI1
aF1.0
aI0
aI0
aF0.0
aI2
aI2
aF1.0
aI0
aI1
aI1
aI0
aI0
aI0
aI0
aI0
aI4
aI1
aa(lp19
V0020900118
p20
aVNOV 11, 2009
p21
aVHOU vs. MEM
p22
aVW
p23
aI4
aI0
aI2
aF0.0
aI0
aI0
aF0.0
aI0
aI2
aF0.0
aI1
aI2
aI3
aI1
aI0
aI1
aI0
aI1
aI0
aI4
aa(lp24
V0020900155
p25
aVNOV 17, 2009
p26
aVTOR @ DEN
p27
aVL
p28
aI7
aI1
aI4
aF0.25
aI0
aI0
aF0.0
aI3
aI4
aF0.75
aI3
aI1
aI4
aI1
aI1
aI0
aI1
aI0
aI5
aI2
aa(lp29
V0020900175
p30
aVNOV 20, 2009
p31
aVTOR vs. MIA
p32
aVW
p33
aI7
aI1
aI1
aF1.0
aI0
aI0
aF0.0
aI0
aI0
aF0.0
aI0
aI1
aI1
aI0
aI0
aI0
aI1
aI1
aI2
aI3
aa(lp34
V0020900208
p35
aVNOV 25, 2009
p36
aVTOR @ CHA
p37
aVL
p38
aI13
aI1
aI5
aF0.2
aI0
aI0
aF0.0
aI1
aI2
aF0.5
aI2
aI4
aI6
aI0
aI1
aI0
aI0
aI1
aI3
aI-15
aa(lp39
V0020900225
p40
aVNOV 27, 2009
p41
aVTOR @ BOS
p42
aVL
p43
aI5
aI0
aI1
aF0.0
aI0
aI0
aF0.0
aI0
aI0
aF0.0
aI1
aI0
aI1
aI0
aI0
aI0
aI0
aI2
aI0
aI4
aa(lp44
V0020900241
p45
aVNOV 29, 2009
p46
aVTOR vs. PHX
p47
aVL
p48
aI1
aI0
aI0
aF0.0
aI0
aI0
aF0.0
aI2
aI2
aF1.0
aI0
aI0
aI0
aI0
aI0
aI0
aI0
aI1
aI2
aI-3
aa(lp49
V0020900259
p50
aVDEC 02, 2009
p51
aVTOR @ ATL
p52
aVL
p53
aI9
aI3
aI4
aF0.75
aI0
aI0
aF0.0
aI1
aI2
aF0.5
aI1
aI1
aI2
aI0
aI0
aI1
aI1
aI0
aI7
aI-4
aa(lp54
V0020900283
p55
aVDEC 05, 2009
p56
aVTOR @ CHI
p57
aVW
p58
aI9
aI1
aI3
aF0.333
aI0
aI0
aF0.0
aI1
aI2
aF0.5
aI2
aI1
aI3
aI0
aI0
aI1
aI2
aI0
aI3
aI-2
aa(lp59
V0020900312
p60
aVDEC 09, 2009
p61
aVTOR @ MIL
p62
aVL
p63
aI4
aI0
aI0
aF0.0
aI0
aI0
aF0.0
aI0
aI0
aF0.0
aI0
aI2
aI2
aI0
aI0
aI0
aI0
aI0
aI0
aI-4
aa(lp64
V0020900322
p65
aVDEC 11, 2009
p66
aVTOR vs. ATL
p67
aVL
p68
aI2
aI0
aI1
aF0.0
aI0
aI0
aF0.0
aI1
aI2
aF0.5
aI2
aI0
aI2
aI0
aI0
aI2
aI0
aI0
aI1
aI-1
aa(lp69
V0020900339
p70
aVDEC 13, 2009
p71
aVTOR vs. HOU
p72
aVW
p73
aI9
aI1
aI3
aF0.333
aI0
aI0
aF0.0
aI0
aI0
aF0.0
aI3
aI0
aI3
aI0
aI0
aI2
aI2
aI3
aI2
aI0
aa(lp74
V0020900353
p75
aVDEC 15, 2009
p76
aVTOR @ MIA
p77
aVL
p78
aI10
aI1
aI2
aF0.5
aI0
aI0
aF0.0
aI0
aI2
aF0.0
aI0
aI1
aI1
aI1
aI0
aI1
aI0
aI1
aI2
aI0
aa(lp79
V0020900360
p80
aVDEC 16, 2009
p81
aVTOR @ ORL
p82
aVL
p83
aI11
aI2
aI3
aF0.667
aI0
aI0
aF0.0
aI0
aI0
aF0.0
aI1
aI4
aI5
aI0
aI0
aI0
aI1
aI5
aI4
aI0
aa(lp84
V0020900373
p85
aVDEC 18, 2009
p86
aVTOR vs. NJN
p87
aVW
p88
aI9
aI0
aI0
aF0.0
aI0
aI0
aF0.0
aI0
aI0
aF0.0
aI0
aI1
aI1
aI0
aI0
aI0
aI2
aI1
aI0
aI-17
aa(lp89
V0020900415
p90
aVDEC 23, 2009
p91
aVTOR @ DET
p92
aVW
p93
aI6
aI1
aI1
aF1.0
aI0
aI0
aF0.0
aI1
aI2
aF0.5
aI0
aI0
aI0
aI0
aI0
aI1
aI0
aI2
aI3
aI8
aa(lp94
V0020900439
p95
aVDEC 27, 2009
p96
aVTOR vs. DET
p97
aVW
p98
aI1
aI0
aI0
aF0.0
aI0
aI0
aF0.0
aI0
aI0
aF0.0
aI0
aI0
aI0
aI0
aI0
aI0
aI0
aI0
aI0
aI-2
aa(lp99
V0020900481
p100
aVJAN 02, 2010
p101
aVTOR @ BOS
p102
aVL
p103
aI4
aI0
aI1
aF0.0
aI0
aI0
aF0.0
aI0
aI0
aF0.0
aI0
aI0
aI0
aI0
aI1
aI0
aI0
aI0
aI0
aI2
aasS'name'
p104
VPops Mensah-Bonsu
p105
sS'experience'
p106
I3
s.