(dp0
S'age'
p1
I23
sS'stats'
p2
(lp3
(lp4
V0020900072
p5
aVNOV 06, 2009
p6
aVATL @ CHA
p7
aVL
p8
aI4
aI0
aI0
aF0.0
aI0
aI0
aF0.0
aI1
aI2
aF0.5
aI0
aI0
aI0
aI0
aI0
aI1
aI0
aI3
aI1
aI2
aa(lp9
V0020900085
p10
aVNOV 07, 2009
p11
aVATL vs. DEN
p12
aVW
p13
aI4
aI0
aI1
aF0.0
aI0
aI0
aF0.0
aI0
aI0
aF0.0
aI0
aI1
aI1
aI0
aI0
aI0
aI0
aI0
aI0
aI1
aa(lp14
V0020900114
p15
aVNOV 11, 2009
p16
aVATL @ NYK
p17
aVW
p18
aI2
aI0
aI0
aF0.0
aI0
aI0
aF0.0
aI0
aI0
aF0.0
aI0
aI0
aI0
aI0
aI0
aI0
aI0
aI0
aI0
aI-1
aa(lp19
V0020900133
p20
aVNOV 14, 2009
p21
aVATL vs. NOH
p22
aVW
p23
aI4
aI3
aI3
aF1.0
aI0
aI0
aF0.0
aI0
aI0
aF0.0
aI1
aI1
aI2
aI0
aI0
aI0
aI0
aI2
aI6
aI1
aa(lp24
V0020900158
p25
aVNOV 18, 2009
p26
aVATL vs. MIA
p27
aVW
p28
aI2
aI0
aI1
aF0.0
aI0
aI0
aF0.0
aI0
aI0
aF0.0
aI1
aI0
aI1
aI0
aI0
aI0
aI0
aI0
aI0
aI-1
aa(lp29
V0020900259
p30
aVDEC 02, 2009
p31
aVATL vs. TOR
p32
aVW
p33
aI7
aI2
aI4
aF0.5
aI0
aI0
aF0.0
aI2
aI2
aF1.0
aI1
aI4
aI5
aI0
aI0
aI1
aI1
aI3
aI6
aI2
aa(lp34
V0020900308
p35
aVDEC 09, 2009
p36
aVATL vs. CHI
p37
aVW
p38
aI8
aI1
aI2
aF0.5
aI0
aI0
aF0.0
aI1
aI1
aF1.0
aI0
aI2
aI2
aI0
aI0
aI0
aI0
aI0
aI3
aI4
aa(lp39
V0020900322
p40
aVDEC 11, 2009
p41
aVATL @ TOR
p42
aVW
p43
aI2
aI0
aI1
aF0.0
aI0
aI0
aF0.0
aI0
aI0
aF0.0
aI0
aI0
aI0
aI0
aI0
aI0
aI0
aI1
aI0
aI1
aa(lp44
V0020900340
p45
aVDEC 13, 2009
p46
aVATL vs. NJN
p47
aVW
p48
aI8
aI3
aI4
aF0.75
aI0
aI0
aF0.0
aI1
aI2
aF0.5
aI0
aI3
aI3
aI0
aI0
aI0
aI1
aI3
aI7
aI0
aa(lp49
V0020900358
p50
aVDEC 16, 2009
p51
aVATL vs. MEM
p52
aVW
p53
aI9
aI3
aI6
aF0.5
aI0
aI0
aF0.0
aI1
aI3
aF0.333
aI2
aI1
aI3
aI0
aI1
aI0
aI0
aI1
aI7
aI-10
aa(lp54
V0020900374
p55
aVDEC 18, 2009
p56
aVATL vs. UTA
p57
aVW
p58
aI9
aI1
aI2
aF0.5
aI0
aI0
aF0.0
aI1
aI2
aF0.5
aI1
aI0
aI1
aI0
aI0
aI0
aI2
aI3
aI3
aI-12
aa(lp59
V0020900410
p60
aVDEC 22, 2009
p61
aVATL @ MIN
p62
aVW
p63
aI10
aI0
aI0
aF0.0
aI0
aI0
aF0.0
aI3
aI4
aF0.75
aI0
aI2
aI2
aI0
aI1
aI1
aI1
aI6
aI3
aI8
aa(lp64
V0020900421
p65
aVDEC 23, 2009
p66
aVATL @ DEN
p67
aVL
p68
aI2
aI1
aI1
aF1.0
aI0
aI0
aF0.0
aI0
aI0
aF0.0
aI0
aI0
aI0
aI0
aI0
aI0
aI0
aI0
aI2
aI0
aa(lp69
V0020900430
p70
aVDEC 26, 2009
p71
aVATL @ IND
p72
aVW
p73
aI3
aI0
aI1
aF0.0
aI0
aI0
aF0.0
aI0
aI0
aF0.0
aI0
aI0
aI0
aI0
aI0
aI0
aI0
aI0
aI0
aI-3
aa(lp74
V0020900494
p75
aVJAN 04, 2010
p76
aVATL @ MIA
p77
aVL
p78
aI3
aI2
aI3
aF0.667
aI0
aI0
aF0.0
aI0
aI0
aF0.0
aI1
aI1
aI2
aI0
aI0
aI0
aI0
aI1
aI4
aI5
aa(lp79
V0020900507
p80
aVJAN 06, 2010
p81
aVATL vs. NJN
p82
aVW
p83
aI7
aI2
aI3
aF0.667
aI0
aI0
aF0.0
aI0
aI0
aF0.0
aI0
aI3
aI3
aI0
aI0
aI0
aI0
aI0
aI4
aI0
aa(lp84
V0020900531
p85
aVJAN 09, 2010
p86
aVATL @ ORL
p87
aVL
p88
aI9
aI0
aI3
aF0.0
aI0
aI0
aF0.0
aI1
aI2
aF0.5
aI0
aI3
aI3
aI1
aI0
aI0
aI1
aI3
aI1
aI-1
aa(lp89
V0020900608
p90
aVJAN 20, 2010
p91
aVATL vs. SAC
p92
aVW
p93
aI2
aI1
aI1
aF1.0
aI0
aI0
aF0.0
aI2
aI2
aF1.0
aI0
aI0
aI0
aI0
aI1
aI0
aI0
aI0
aI4
aI-3
aa(lp94
V0020900627
p95
aVJAN 22, 2010
p96
aVATL vs. CHA
p97
aVW
p98
aI1
aI0
aI0
aF0.0
aI0
aI0
aF0.0
aI0
aI0
aF0.0
aI0
aI1
aI1
aI0
aI0
aI0
aI0
aI0
aI0
aI0
aa(lp99
V0020900653
p100
aVJAN 25, 2010
p101
aVATL @ HOU
p102
aVW
p103
aI1
aI0
aI0
aF0.0
aI0
aI0
aF0.0
aI0
aI0
aF0.0
aI0
aI0
aI0
aI0
aI0
aI0
aI0
aI1
aI0
aI-4
aa(lp104
V0020900671
p105
aVJAN 27, 2010
p106
aVATL @ SAS
p107
aVL
p108
aI2
aI0
aI0
aF0.0
aI0
aI0
aF0.0
aI0
aI0
aF0.0
aI0
aI0
aI0
aI0
aI0
aI0
aI0
aI0
aI0
aI0
aa(lp109
V0020900764
p110
aVFEB 09, 2010
p111
aVATL @ MEM
p112
aVW
p113
aI4
aI0
aI0
aF0.0
aI0
aI0
aF0.0
aI0
aI0
aF0.0
aI0
aI0
aI0
aI1
aI0
aI0
aI1
aI0
aI0
aI-8
aa(lp114
V0020901000
p115
aVMAR 16, 2010
p116
aVATL @ NJN
p117
aVW
p118
aI4
aI1
aI2
aF0.5
aI0
aI0
aF0.0
aI1
aI2
aF0.5
aI1
aI1
aI2
aI0
aI0
aI0
aI0
aI1
aI3
aI1
aa(lp119
V0020901149
p120
aVAPR 06, 2010
p121
aVATL @ CHA
p122
aVL
p123
aI2
aI1
aI1
aF1.0
aI0
aI0
aF0.0
aI0
aI0
aF0.0
aI0
aI1
aI1
aI0
aI0
aI0
aI0
aI0
aI2
aI4
aa(lp124
V0020901176
p125
aVAPR 09, 2010
p126
aVATL vs. TOR
p127
aVW
p128
aI0
aI0
aI0
aF0.0
aI0
aI0
aF0.0
aI0
aI0
aF0.0
aI0
aI0
aI0
aI0
aI0
aI0
aI1
aI0
aI0
aI-2
aa(lp129
V0020901189
p130
aVAPR 10, 2010
p131
aVATL @ WAS
p132
aVW
p133
aI1
aI0
aI0
aF0.0
aI0
aI0
aF0.0
aI0
aI0
aF0.0
aI0
aI0
aI0
aI0
aI0
aI0
aI0
aI0
aI0
aI0
aa(lp134
V0020901207
p135
aVAPR 12, 2010
p136
aVATL @ MIL
p137
aVW
p138
aI0
aI0
aI0
aF0.0
aI0
aI0
aF0.0
aI0
aI0
aF0.0
aI0
aI0
aI0
aI0
aI0
aI0
aI0
aI0
aI0
aI0
aa(lp139
V0020901217
p140
aVAPR 14, 2010
p141
aVATL vs. CLE
p142
aVW
p143
aI15
aI2
aI2
aF1.0
aI0
aI0
aF0.0
aI2
aI5
aF0.4
aI2
aI4
aI6
aI0
aI2
aI0
aI4
aI6
aI6
aI1
aasS'name'
p144
VRandolph Morris
p145
sS'experience'
p146
I3
s.