(dp0
S'stats'
p1
(lp2
(lp3
V0020900011
p4
aVOCT 28, 2009
p5
aVNJN @ MIN
p6
aVL
p7
aI36
aI5
aI10
aF0.5
aI0
aI1
aF0.0
aI7
aI8
aF0.875
aI2
aI10
aI12
aI1
aI0
aI2
aI3
aI2
aI17
aI9
aa(lp8
V0020900027
p9
aVOCT 30, 2009
p10
aVNJN vs. ORL
p11
aVL
p12
aI34
aI5
aI8
aF0.625
aI0
aI0
aF0.0
aI2
aI2
aF1.0
aI0
aI5
aI5
aI0
aI1
aI2
aI1
aI3
aI12
aI-3
aa(lp13
V0020900032
p14
aVOCT 31, 2009
p15
aVNJN @ WAS
p16
aVL
p17
aI32
aI2
aI10
aF0.2
aI0
aI0
aF0.0
aI2
aI2
aF1.0
aI1
aI6
aI7
aI0
aI0
aI0
aI1
aI4
aI6
aI-13
aa(lp18
V0020900046
p19
aVNOV 02, 2009
p20
aVNJN @ CHA
p21
aVL
p22
aI17
aI1
aI4
aF0.25
aI0
aI0
aF0.0
aI2
aI3
aF0.667
aI2
aI4
aI6
aI1
aI1
aI1
aI4
aI3
aI4
aI8
aa(lp23
V0020900417
p24
aVDEC 23, 2009
p25
aVNJN vs. MIN
p26
aVL
p27
aI30
aI7
aI12
aF0.583
aI4
aI6
aF0.667
aI4
aI4
aF1.0
aI1
aI8
aI9
aI0
aI0
aI0
aI2
aI3
aI22
aI12
aa(lp28
V0020900431
p29
aVDEC 26, 2009
p30
aVNJN vs. HOU
p31
aVL
p32
aI36
aI6
aI13
aF0.462
aI0
aI2
aF0.0
aI5
aI6
aF0.833
aI0
aI6
aI6
aI0
aI1
aI0
aI1
aI4
aI17
aI-7
aa(lp33
V0020900446
p34
aVDEC 28, 2009
p35
aVNJN vs. OKC
p36
aVL
p37
aI42
aI11
aI20
aF0.55
aI0
aI1
aF0.0
aI7
aI9
aF0.778
aI3
aI4
aI7
aI0
aI2
aI0
aI3
aI4
aI29
aI-17
aa(lp38
V0020900463
p39
aVDEC 30, 2009
p40
aVNJN vs. NYK
p41
aVW
p42
aI42
aI9
aI16
aF0.563
aI0
aI1
aF0.0
aI4
aI6
aF0.667
aI3
aI3
aI6
aI0
aI2
aI2
aI1
aI2
aI22
aI13
aa(lp43
V0020900477
p44
aVJAN 02, 2010
p45
aVNJN vs. CLE
p46
aVL
p47
aI41
aI2
aI13
aF0.154
aI1
aI2
aF0.5
aI6
aI8
aF0.75
aI2
aI6
aI8
aI1
aI1
aI3
aI1
aI4
aI11
aI-8
aa(lp48
V0020900501
p49
aVJAN 05, 2010
p50
aVNJN vs. MIL
p51
aVL
p52
aI31
aI7
aI12
aF0.583
aI0
aI0
aF0.0
aI8
aI10
aF0.8
aI1
aI1
aI2
aI0
aI2
aI2
aI2
aI5
aI22
aI-3
aa(lp53
V0020900507
p54
aVJAN 06, 2010
p55
aVNJN @ ATL
p56
aVL
p57
aI36
aI7
aI17
aF0.412
aI0
aI1
aF0.0
aI5
aI6
aF0.833
aI5
aI6
aI11
aI1
aI1
aI1
aI4
aI3
aI19
aI-28
aa(lp58
V0020900523
p59
aVJAN 08, 2010
p60
aVNJN @ NOH
p61
aVL
p62
aI32
aI4
aI10
aF0.4
aI0
aI0
aF0.0
aI0
aI0
aF0.0
aI3
aI7
aI10
aI1
aI0
aI2
aI4
aI3
aI8
aI-6
aa(lp63
V0020900541
p64
aVJAN 10, 2010
p65
aVNJN @ SAS
p66
aVL
p67
aI38
aI4
aI17
aF0.235
aI0
aI1
aF0.0
aI8
aI10
aF0.8
aI4
aI4
aI8
aI1
aI0
aI0
aI1
aI3
aI16
aI-4
aa(lp68
V0020900561
p69
aVJAN 13, 2010
p70
aVNJN vs. BOS
p71
aVL
p72
aI33
aI6
aI12
aF0.5
aI1
aI2
aF0.5
aI6
aI7
aF0.857
aI0
aI3
aI3
aI0
aI0
aI0
aI1
aI2
aI19
aI-21
aa(lp73
V0020900577
p74
aVJAN 15, 2010
p75
aVNJN vs. IND
p76
aVL
p77
aI35
aI5
aI13
aF0.385
aI0
aI0
aF0.0
aI7
aI8
aF0.875
aI3
aI7
aI10
aI0
aI0
aI0
aI0
aI3
aI17
aI-5
aa(lp78
V0020900599
p79
aVJAN 18, 2010
p80
aVNJN @ LAC
p81
aVL
p82
aI31
aI3
aI13
aF0.231
aI1
aI1
aF1.0
aI6
aI6
aF1.0
aI1
aI2
aI3
aI1
aI0
aI2
aI0
aI3
aI13
aI-11
aa(lp83
V0020900617
p84
aVJAN 20, 2010
p85
aVNJN @ PHX
p86
aVL
p87
aI35
aI5
aI10
aF0.5
aI0
aI0
aF0.0
aI4
aI6
aF0.667
aI2
aI4
aI6
aI3
aI0
aI0
aI1
aI4
aI14
aI-11
aa(lp88
V0020900634
p89
aVJAN 22, 2010
p90
aVNJN @ GSW
p91
aVL
p92
aI26
aI1
aI6
aF0.167
aI0
aI0
aF0.0
aI0
aI0
aF0.0
aI2
aI9
aI11
aI1
aI2
aI2
aI3
aI4
aI2
aI-30
aa(lp93
V0020900645
p94
aVJAN 23, 2010
p95
aVNJN @ UTA
p96
aVL
p97
aI29
aI6
aI12
aF0.5
aI1
aI1
aF1.0
aI3
aI5
aF0.6
aI1
aI2
aI3
aI1
aI1
aI0
aI2
aI4
aI16
aI-20
aa(lp98
V0020900667
p99
aVJAN 27, 2010
p100
aVNJN vs. LAC
p101
aVW
p102
aI15
aI3
aI6
aF0.5
aI0
aI0
aF0.0
aI0
aI0
aF0.0
aI1
aI1
aI2
aI1
aI1
aI0
aI0
aI5
aI6
aI3
aa(lp103
V0020900682
p104
aVJAN 29, 2010
p105
aVNJN vs. WAS
p106
aVL
p107
aI29
aI4
aI9
aF0.444
aI0
aI0
aF0.0
aI1
aI4
aF0.25
aI1
aI3
aI4
aI1
aI0
aI0
aI2
aI3
aI9
aI5
aa(lp108
V0020900699
p109
aVJAN 31, 2010
p110
aVNJN vs. PHI
p111
aVL
p112
aI36
aI7
aI15
aF0.467
aI1
aI2
aF0.5
aI0
aI0
aF0.0
aI2
aI10
aI12
aI2
aI3
aI1
aI4
aI4
aI15
aI-6
aa(lp113
V0020900714
p114
aVFEB 02, 2010
p115
aVNJN vs. DET
p116
aVL
p117
aI32
aI1
aI12
aF0.083
aI0
aI3
aF0.0
aI1
aI1
aF1.0
aI2
aI3
aI5
aI0
aI0
aI1
aI0
aI1
aI3
aI8
aa(lp118
V0020900720
p119
aVFEB 03, 2010
p120
aVNJN @ TOR
p121
aVL
p122
aI33
aI7
aI14
aF0.5
aI0
aI0
aF0.0
aI1
aI1
aF1.0
aI3
aI4
aI7
aI2
aI1
aI1
aI2
aI4
aI15
aI-14
aa(lp123
V0020900733
p124
aVFEB 05, 2010
p125
aVNJN @ BOS
p126
aVL
p127
aI31
aI4
aI10
aF0.4
aI0
aI0
aF0.0
aI2
aI2
aF1.0
aI1
aI4
aI5
aI0
aI0
aI1
aI0
aI3
aI10
aI-11
aa(lp128
V0020900744
p129
aVFEB 06, 2010
p130
aVNJN @ DET
p131
aVL
p132
aI24
aI1
aI7
aF0.143
aI0
aI0
aF0.0
aI4
aI4
aF1.0
aI0
aI5
aI5
aI1
aI0
aI1
aI0
aI2
aI6
aI-1
aa(lp133
V0020900759
p134
aVFEB 09, 2010
p135
aVNJN @ CLE
p136
aVL
p137
aI36
aI5
aI9
aF0.556
aI0
aI0
aF0.0
aI1
aI2
aF0.5
aI2
aI6
aI8
aI1
aI0
aI0
aI2
aI5
aI11
aI15
aa(lp138
V0020900772
p139
aVFEB 10, 2010
p140
aVNJN vs. MIL
p141
aVL
p142
aI32
aI4
aI14
aF0.286
aI0
aI0
aF0.0
aI1
aI2
aF0.5
aI5
aI7
aI12
aI2
aI1
aI0
aI2
aI4
aI9
aI-3
aa(lp143
V0020900781
p144
aVFEB 16, 2010
p145
aVNJN @ CHA
p146
aVW
p147
aI28
aI1
aI4
aF0.25
aI0
aI0
aF0.0
aI4
aI5
aF0.8
aI1
aI3
aI4
aI0
aI0
aI1
aI1
aI3
aI6
aI14
aa(lp148
V0020900795
p149
aVFEB 17, 2010
p150
aVNJN vs. MIA
p151
aVL
p152
aI28
aI3
aI7
aF0.429
aI0
aI0
aF0.0
aI3
aI4
aF0.75
aI2
aI7
aI9
aI2
aI0
aI1
aI1
aI4
aI9
aI-10
aa(lp153
V0020900810
p154
aVFEB 19, 2010
p155
aVNJN vs. TOR
p156
aVL
p157
aI32
aI2
aI13
aF0.154
aI0
aI0
aF0.0
aI1
aI2
aF0.5
aI2
aI5
aI7
aI1
aI0
aI3
aI1
aI2
aI5
aI5
aa(lp158
V0020900826
p159
aVFEB 21, 2010
p160
aVNJN vs. MEM
p161
aVL
p162
aI21
aI6
aI9
aF0.667
aI1
aI1
aF1.0
aI2
aI2
aF1.0
aI2
aI2
aI4
aI1
aI0
aI0
aI1
aI5
aI15
aI-12
aa(lp163
V0020900840
p164
aVFEB 23, 2010
p165
aVNJN vs. POR
p166
aVL
p167
aI36
aI3
aI7
aF0.429
aI0
aI0
aF0.0
aI0
aI0
aF0.0
aI0
aI2
aI2
aI0
aI1
aI0
aI3
aI1
aI6
aI-7
aa(lp168
V0020900871
p169
aVFEB 27, 2010
p170
aVNJN @ BOS
p171
aVW
p172
aI30
aI2
aI12
aF0.167
aI0
aI1
aF0.0
aI0
aI0
aF0.0
aI4
aI6
aI10
aI1
aI1
aI1
aI2
aI2
aI4
aI9
aa(lp173
V0020900881
p174
aVFEB 28, 2010
p175
aVNJN vs. WAS
p176
aVL
p177
aI40
aI7
aI17
aF0.412
aI0
aI0
aF0.0
aI6
aI8
aF0.75
aI12
aI7
aI19
aI2
aI1
aI0
aI3
aI5
aI20
aI-3
aa(lp178
V0020900902
p179
aVMAR 03, 2010
p180
aVNJN vs. CLE
p181
aVL
p182
aI42
aI5
aI11
aF0.455
aI2
aI3
aF0.667
aI2
aI2
aF1.0
aI2
aI8
aI10
aI1
aI3
aI2
aI2
aI4
aI14
aI-17
aa(lp183
V0020900920
p184
aVMAR 05, 2010
p185
aVNJN vs. ORL
p186
aVL
p187
aI34
aI1
aI5
aF0.2
aI0
aI0
aF0.0
aI0
aI0
aF0.0
aI1
aI6
aI7
aI4
aI0
aI2
aI0
aI5
aI2
aI-4
aa(lp188
V0020900927
p189
aVMAR 06, 2010
p190
aVNJN @ NYK
p191
aVW
p192
aI9
aI1
aI4
aF0.25
aI0
aI0
aF0.0
aI1
aI1
aF1.0
aI0
aI2
aI2
aI0
aI1
aI0
aI1
aI0
aI3
aI-16
aa(lp193
V0020901031
p194
aVMAR 20, 2010
p195
aVNJN vs. TOR
p196
aVL
p197
aI38
aI3
aI10
aF0.3
aI0
aI0
aF0.0
aI3
aI5
aF0.6
aI1
aI4
aI5
aI2
aI0
aI2
aI1
aI4
aI9
aI-7
aa(lp198
V0020901044
p199
aVMAR 22, 2010
p200
aVNJN vs. MIA
p201
aVL
p202
aI23
aI2
aI8
aF0.25
aI0
aI0
aF0.0
aI0
aI0
aF0.0
aI2
aI3
aI5
aI0
aI0
aI0
aI0
aI2
aI4
aI-8
aa(lp203
V0020901062
p204
aVMAR 24, 2010
p205
aVNJN vs. SAC
p206
aVW
p207
aI27
aI2
aI7
aF0.286
aI0
aI0
aF0.0
aI1
aI1
aF1.0
aI1
aI5
aI6
aI2
aI2
aI0
aI1
aI5
aI5
aI7
aa(lp208
V0020901077
p209
aVMAR 26, 2010
p210
aVNJN vs. DET
p211
aVW
p212
aI37
aI12
aI16
aF0.75
aI2
aI2
aF1.0
aI5
aI7
aF0.714
aI0
aI5
aI5
aI0
aI1
aI1
aI0
aI1
aI31
aI4
aa(lp213
V0020901083
p214
aVMAR 27, 2010
p215
aVNJN @ CHI
p216
aVL
p217
aI17
aI3
aI9
aF0.333
aI1
aI3
aF0.333
aI0
aI0
aF0.0
aI3
aI5
aI8
aI0
aI0
aI0
aI1
aI3
aI7
aI-10
aa(lp218
V0020901098
p219
aVMAR 29, 2010
p220
aVNJN vs. SAS
p221
aVW
p222
aI31
aI3
aI12
aF0.25
aI0
aI1
aF0.0
aI2
aI2
aF1.0
aI1
aI6
aI7
aI0
aI0
aI1
aI0
aI2
aI8
aI7
aa(lp223
V0020901113
p224
aVMAR 31, 2010
p225
aVNJN vs. PHX
p226
aVL
p227
aI34
aI5
aI13
aF0.385
aI0
aI0
aF0.0
aI1
aI1
aF1.0
aI4
aI2
aI6
aI1
aI0
aI1
aI2
aI3
aI11
aI-5
aa(lp228
V0020901134
p229
aVAPR 03, 2010
p230
aVNJN vs. NOH
p231
aVW
p232
aI23
aI5
aI9
aF0.556
aI0
aI0
aF0.0
aI0
aI0
aF0.0
aI2
aI2
aI4
aI1
aI1
aI0
aI1
aI4
aI10
aI6
aa(lp233
V0020901146
p234
aVAPR 04, 2010
p235
aVNJN @ WAS
p236
aVL
p237
aI30
aI1
aI8
aF0.125
aI0
aI1
aF0.0
aI1
aI2
aF0.5
aI3
aI4
aI7
aI2
aI1
aI2
aI2
aI4
aI3
aI-6
aa(lp238
V0020901162
p239
aVAPR 07, 2010
p240
aVNJN @ MIL
p241
aVL
p242
aI34
aI2
aI8
aF0.25
aI0
aI1
aF0.0
aI7
aI8
aF0.875
aI1
aI7
aI8
aI0
aI2
aI1
aI0
aI2
aI11
aI-17
aa(lp243
V0020901181
p244
aVAPR 09, 2010
p245
aVNJN vs. CHI
p246
aVW
p247
aI40
aI6
aI13
aF0.462
aI0
aI1
aF0.0
aI3
aI4
aF0.75
aI4
aI8
aI12
aI2
aI2
aI3
aI2
aI5
aI15
aI8
aa(lp248
V0020901188
p249
aVAPR 10, 2010
p250
aVNJN @ IND
p251
aVL
p252
aI34
aI7
aI12
aF0.583
aI0
aI1
aF0.0
aI4
aI4
aF1.0
aI5
aI2
aI7
aI2
aI1
aI2
aI2
aI3
aI18
aI-6
aa(lp253
V0020901205
p254
aVAPR 12, 2010
p255
aVNJN vs. CHA
p256
aVL
p257
aI36
aI6
aI8
aF0.75
aI0
aI0
aF0.0
aI2
aI2
aF1.0
aI3
aI7
aI10
aI1
aI0
aI3
aI0
aI2
aI14
aI-2
aa(lp258
V0020901222
p259
aVAPR 14, 2010
p260
aVNJN @ MIA
p261
aVL
p262
aI50
aI7
aI17
aF0.412
aI0
aI2
aF0.0
aI9
aI11
aF0.818
aI6
aI9
aI15
aI0
aI0
aI2
aI3
aI5
aI23
aI-3
aasS'name'
p263
VYi Jianlian
p264
sS'weight'
p265
V250
p266
sS'age'
p267
I22
sS'experience'
p268
I2
sS'height'
p269
V7-0
p270
sS'position'
p271
VForward
p272
s.