(dp0
S'age'
p1
I22
sS'stats'
p2
(lp3
(lp4
V0020901227
p5
aVAPR 14, 2010
p6
aVIND @ WAS
p7
aVL
p8
aI13
aI0
aI2
aF0.0
aI0
aI1
aF0.0
aI2
aI2
aF1.0
aI2
aI1
aI3
aI4
aI0
aI0
aI0
aI0
aI2
aI0
aa(lp9
V0020901202
p10
aVAPR 12, 2010
p11
aVIND vs. ORL
p12
aVL
p13
aI12
aI0
aI2
aF0.0
aI0
aI1
aF0.0
aI2
aI4
aF0.5
aI1
aI1
aI2
aI1
aI1
aI0
aI0
aI0
aI2
aI2
aa(lp14
V0020901188
p15
aVAPR 10, 2010
p16
aVIND vs. NJN
p17
aVW
p18
aI17
aI3
aI5
aF0.6
aI0
aI0
aF0.0
aI0
aI0
aF0.0
aI1
aI4
aI5
aI2
aI0
aI0
aI1
aI2
aI6
aI1
aa(lp19
V0020901178
p20
aVAPR 09, 2010
p21
aVIND @ CLE
p22
aVW
p23
aI20
aI3
aI5
aF0.6
aI0
aI0
aF0.0
aI1
aI4
aF0.25
aI1
aI4
aI5
aI5
aI0
aI1
aI0
aI1
aI7
aI6
aa(lp24
V0020901158
p25
aVAPR 07, 2010
p26
aVIND vs. NYK
p27
aVW
p28
aI14
aI2
aI3
aF0.667
aI0
aI0
aF0.0
aI0
aI0
aF0.0
aI1
aI3
aI4
aI2
aI0
aI1
aI0
aI2
aI4
aI5
aa(lp29
V0020901143
p30
aVAPR 04, 2010
p31
aVIND vs. HOU
p32
aVW
p33
aI33
aI8
aI9
aF0.889
aI2
aI3
aF0.667
aI0
aI0
aF0.0
aI2
aI10
aI12
aI1
aI2
aI1
aI0
aI3
aI18
aI28
aa(lp34
V0020901123
p35
aVAPR 02, 2010
p36
aVIND vs. MIA
p37
aVL
p38
aI10
aI0
aI1
aF0.0
aI0
aI0
aF0.0
aI0
aI0
aF0.0
aI0
aI2
aI2
aI1
aI0
aI0
aI0
aI2
aI0
aI8
aa(lp39
V0020901102
p40
aVMAR 30, 2010
p41
aVIND vs. SAC
p42
aVW
p43
aI14
aI1
aI4
aF0.25
aI0
aI0
aF0.0
aI2
aI2
aF1.0
aI1
aI1
aI2
aI0
aI0
aI2
aI1
aI2
aI4
aI-12
aa(lp44
V0020901089
p45
aVMAR 28, 2010
p46
aVIND @ ATL
p47
aVL
p48
aI11
aI0
aI1
aF0.0
aI0
aI0
aF0.0
aI0
aI0
aF0.0
aI1
aI1
aI2
aI0
aI0
aI0
aI1
aI0
aI0
aI-4
aa(lp49
V0020901072
p50
aVMAR 26, 2010
p51
aVIND vs. UTA
p52
aVW
p53
aI28
aI5
aI8
aF0.625
aI1
aI2
aF0.5
aI0
aI2
aF0.0
aI3
aI3
aI6
aI2
aI2
aI3
aI1
aI2
aI11
aI14
aa(lp54
V0020901060
p55
aVMAR 24, 2010
p56
aVIND vs. WAS
p57
aVW
p58
aI30
aI7
aI15
aF0.467
aI0
aI4
aF0.0
aI0
aI1
aF0.0
aI5
aI7
aI12
aI2
aI1
aI2
aI0
aI2
aI14
aI17
aa(lp59
V0020901037
p60
aVMAR 21, 2010
p61
aVIND vs. OKC
p62
aVW
p63
aI7
aI1
aI1
aF1.0
aI0
aI0
aF0.0
aI0
aI0
aF0.0
aI0
aI0
aI0
aI0
aI0
aI0
aI0
aI1
aI2
aI-6
aa(lp64
V0020901018
p65
aVMAR 19, 2010
p66
aVIND vs. DET
p67
aVW
p68
aI11
aI1
aI4
aF0.25
aI1
aI2
aF0.5
aI0
aI0
aF0.0
aI0
aI2
aI2
aI0
aI0
aI0
aI0
aI2
aI3
aI-12
aa(lp69
V0020901006
p70
aVMAR 17, 2010
p71
aVIND @ CLE
p72
aVL
p73
aI2
aI0
aI0
aF0.0
aI0
aI0
aF0.0
aI0
aI0
aF0.0
aI0
aI0
aI0
aI0
aI0
aI0
aI0
aI2
aI0
aI-4
aa(lp74
V0020900983
p75
aVMAR 14, 2010
p76
aVIND @ MIL
p77
aVL
p78
aI7
aI0
aI0
aF0.0
aI0
aI0
aF0.0
aI0
aI0
aF0.0
aI0
aI3
aI3
aI2
aI1
aI0
aI1
aI1
aI0
aI-9
aa(lp79
V0020900966
p80
aVMAR 12, 2010
p81
aVIND @ BOS
p82
aVL
p83
aI22
aI3
aI7
aF0.429
aI2
aI2
aF1.0
aI1
aI2
aF0.5
aI1
aI3
aI4
aI1
aI0
aI0
aI1
aI6
aI9
aI-14
aa(lp84
V0020900946
p85
aVMAR 09, 2010
p86
aVIND vs. PHI
p87
aVW
p88
aI4
aI0
aI0
aF0.0
aI0
aI0
aF0.0
aI0
aI0
aF0.0
aI0
aI1
aI1
aI0
aI1
aI0
aI0
aI1
aI0
aI-8
aa(lp89
V0020900932
p90
aVMAR 06, 2010
p91
aVIND @ PHX
p92
aVL
p93
aI17
aI3
aI7
aF0.429
aI0
aI0
aF0.0
aI1
aI3
aF0.333
aI3
aI0
aI3
aI1
aI0
aI0
aI1
aI4
aI7
aI-11
aa(lp94
V0020900922
p95
aVMAR 05, 2010
p96
aVIND @ DEN
p97
aVL
p98
aI23
aI5
aI6
aF0.833
aI0
aI0
aF0.0
aI0
aI0
aF0.0
aI1
aI3
aI4
aI4
aI2
aI0
aI0
aI4
aI10
aI5
aa(lp99
V0020900909
p100
aVMAR 03, 2010
p101
aVIND @ POR
p102
aVL
p103
aI5
aI1
aI1
aF1.0
aI0
aI0
aF0.0
aI1
aI2
aF0.5
aI0
aI1
aI1
aI1
aI0
aI0
aI1
aI1
aI3
aI4
aa(lp104
V0020900898
p105
aVMAR 02, 2010
p106
aVIND @ LAL
p107
aVL
p108
aI23
aI7
aI12
aF0.583
aI0
aI0
aF0.0
aI1
aI2
aF0.5
aI3
aI1
aI4
aI1
aI2
aI0
aI0
aI4
aI15
aI-26
aa(lp109
V0020900848
p110
aVFEB 24, 2010
p111
aVIND @ CHI
p112
aVL
p113
aI3
aI1
aI1
aF1.0
aI0
aI0
aF0.0
aI0
aI0
aF0.0
aI0
aI1
aI1
aI0
aI0
aI0
aI0
aI0
aI2
aI2
aa(lp114
V0020900834
p115
aVFEB 22, 2010
p116
aVIND @ DAL
p117
aVL
p118
aI16
aI3
aI5
aF0.6
aI0
aI1
aF0.0
aI1
aI2
aF0.5
aI1
aI4
aI5
aI3
aI0
aI0
aI1
aI0
aI7
aI11
aa(lp119
V0020900811
p120
aVFEB 19, 2010
p121
aVIND @ NOH
p122
aVL
p123
aI4
aI0
aI0
aF0.0
aI0
aI0
aF0.0
aI0
aI0
aF0.0
aI0
aI1
aI1
aI0
aI0
aI1
aI1
aI1
aI0
aI-2
aa(lp124
V0020900731
p125
aVFEB 05, 2010
p126
aVIND vs. DET
p127
aVW
p128
aI6
aI2
aI3
aF0.667
aI0
aI0
aF0.0
aI1
aI2
aF0.5
aI1
aI0
aI1
aI2
aI0
aI0
aI0
aI1
aI5
aI-3
aa(lp129
V0020900712
p130
aVFEB 02, 2010
p131
aVIND vs. TOR
p132
aVW
p133
aI2
aI0
aI0
aF0.0
aI0
aI0
aF0.0
aI0
aI0
aF0.0
aI0
aI1
aI1
aI0
aI0
aI0
aI0
aI0
aI0
aI-1
aa(lp134
V0020900677
p135
aVJAN 29, 2010
p136
aVIND vs. CLE
p137
aVL
p138
aI10
aI1
aI4
aF0.25
aI0
aI0
aF0.0
aI0
aI0
aF0.0
aI0
aI2
aI2
aI0
aI0
aI0
aI0
aI4
aI2
aI8
aa(lp139
V0020900629
p140
aVJAN 22, 2010
p141
aVIND @ DET
p142
aVW
p143
aI3
aI0
aI1
aF0.0
aI0
aI0
aF0.0
aI0
aI0
aF0.0
aI1
aI0
aI1
aI0
aI0
aI0
aI1
aI0
aI0
aI-7
aa(lp144
V0020900607
p145
aVJAN 19, 2010
p146
aVIND @ MIA
p147
aVL
p148
aI6
aI0
aI2
aF0.0
aI0
aI1
aF0.0
aI0
aI0
aF0.0
aI0
aI1
aI1
aI0
aI1
aI0
aI0
aI1
aI0
aI-4
aa(lp149
V0020900499
p150
aVJAN 05, 2010
p151
aVIND vs. ORL
p152
aVW
p153
aI13
aI1
aI2
aF0.5
aI0
aI0
aF0.0
aI0
aI0
aF0.0
aI1
aI5
aI6
aI1
aI0
aI0
aI1
aI1
aI2
aI0
aa(lp154
V0020900490
p155
aVJAN 03, 2010
p156
aVIND @ NYK
p157
aVL
p158
aI19
aI3
aI5
aF0.6
aI0
aI0
aF0.0
aI0
aI0
aF0.0
aI0
aI5
aI5
aI1
aI0
aI0
aI2
aI2
aI6
aI-15
aa(lp159
V0020900479
p160
aVJAN 02, 2010
p161
aVIND vs. MIN
p162
aVW
p163
aI25
aI3
aI5
aF0.6
aI1
aI2
aF0.5
aI0
aI0
aF0.0
aI3
aI5
aI8
aI0
aI2
aI2
aI2
aI6
aI7
aI6
aa(lp164
V0020900460
p165
aVDEC 30, 2009
p166
aVIND vs. MEM
p167
aVL
p168
aI23
aI4
aI7
aF0.571
aI0
aI0
aF0.0
aI2
aI3
aF0.667
aI2
aI2
aI4
aI3
aI1
aI1
aI1
aI5
aI10
aI9
aa(lp169
V0020900455
p170
aVDEC 29, 2009
p171
aVIND @ CHI
p172
aVL
p173
aI28
aI4
aI6
aF0.667
aI1
aI2
aF0.5
aI0
aI0
aF0.0
aI1
aI1
aI2
aI3
aI1
aI0
aI0
aI3
aI9
aI3
aa(lp174
V0020900441
p175
aVDEC 27, 2009
p176
aVIND @ MIA
p177
aVL
p178
aI13
aI1
aI3
aF0.333
aI0
aI1
aF0.0
aI3
aI5
aF0.6
aI1
aI4
aI5
aI0
aI0
aI1
aI0
aI1
aI5
aI-3
aa(lp179
V0020900430
p180
aVDEC 26, 2009
p181
aVIND vs. ATL
p182
aVL
p183
aI4
aI0
aI1
aF0.0
aI0
aI0
aF0.0
aI0
aI0
aF0.0
aI0
aI1
aI1
aI1
aI0
aI0
aI0
aI2
aI0
aI5
aa(lp184
V0020900209
p185
aVNOV 25, 2009
p186
aVIND vs. LAC
p187
aVW
p188
aI3
aI0
aI0
aF0.0
aI0
aI0
aF0.0
aI0
aI0
aF0.0
aI0
aI0
aI0
aI0
aI0
aI1
aI0
aI0
aI0
aI-3
aa(lp189
V0020900152
p190
aVNOV 17, 2009
p191
aVIND @ NJN
p192
aVW
p193
aI5
aI0
aI1
aF0.0
aI0
aI0
aF0.0
aI0
aI0
aF0.0
aI2
aI0
aI2
aI0
aI0
aI0
aI1
aI2
aI0
aI-2
aa(lp194
V0020900135
p195
aVNOV 14, 2009
p196
aVIND vs. BOS
p197
aVW
p198
aI5
aI0
aI0
aF0.0
aI0
aI0
aF0.0
aI1
aI2
aF0.5
aI0
aI1
aI1
aI0
aI0
aI0
aI0
aI1
aI1
aI-8
aa(lp199
V0020900073
p200
aVNOV 06, 2009
p201
aVIND vs. WAS
p202
aVW
p203
aI3
aI2
aI3
aF0.667
aI0
aI0
aF0.0
aI0
aI0
aF0.0
aI0
aI0
aI0
aI0
aI0
aI0
aI0
aI1
aI4
aI-4
aa(lp204
V0020900052
p205
aVNOV 03, 2009
p206
aVIND vs. DEN
p207
aVL
p208
aI12
aI1
aI4
aF0.25
aI0
aI1
aF0.0
aI0
aI0
aF0.0
aI1
aI1
aI2
aI0
aI0
aI0
aI1
aI1
aI2
aI4
aa(lp209
V0020900024
p210
aVOCT 30, 2009
p211
aVIND vs. MIA
p212
aVL
p213
aI1
aI0
aI0
aF0.0
aI0
aI0
aF0.0
aI0
aI0
aF0.0
aI0
aI1
aI1
aI0
aI0
aI0
aI0
aI0
aI0
aI-1
aasS'name'
p214
VJosh McRoberts
p215
sS'experience'
p216
I2
s.