(dp0
S'stats'
p1
(lp2
(lp3
V0020900010
p4
aVOCT 28, 2009
p5
aVMEM vs. DET
p6
aVL
p7
aI32
aI1
aI4
aF0.25
aI1
aI2
aF0.5
aI0
aI0
aF0.0
aI0
aI0
aI0
aI3
aI1
aI0
aI2
aI3
aI3
aI-15
aa(lp8
V0020900025
p9
aVOCT 30, 2009
p10
aVMEM vs. TOR
p11
aVW
p12
aI37
aI3
aI7
aF0.429
aI0
aI1
aF0.0
aI4
aI4
aF1.0
aI1
aI5
aI6
aI10
aI0
aI0
aI5
aI1
aI10
aI13
aa(lp13
V0020900043
p14
aVNOV 01, 2009
p15
aVMEM @ DEN
p16
aVL
p17
aI29
aI4
aI9
aF0.444
aI2
aI5
aF0.4
aI1
aI2
aF0.5
aI0
aI2
aI2
aI6
aI2
aI0
aI4
aI4
aI11
aI2
aa(lp18
V0020900049
p19
aVNOV 02, 2009
p20
aVMEM @ SAC
p21
aVL
p22
aI36
aI5
aI11
aF0.455
aI1
aI2
aF0.5
aI2
aI2
aF1.0
aI1
aI2
aI3
aI6
aI1
aI0
aI2
aI4
aI13
aI-6
aa(lp23
V0020900069
p24
aVNOV 04, 2009
p25
aVMEM @ GSW
p26
aVL
p27
aI30
aI3
aI10
aF0.3
aI1
aI3
aF0.333
aI1
aI1
aF1.0
aI1
aI5
aI6
aI6
aI0
aI0
aI5
aI3
aI8
aI-17
aa(lp28
V0020900083
p29
aVNOV 06, 2009
p30
aVMEM @ LAL
p31
aVL
p32
aI27
aI3
aI7
aF0.429
aI1
aI2
aF0.5
aI0
aI0
aF0.0
aI0
aI0
aI0
aI4
aI1
aI0
aI0
aI1
aI7
aI-6
aa(lp33
V0020900091
p34
aVNOV 07, 2009
p35
aVMEM @ LAC
p36
aVL
p37
aI32
aI6
aI13
aF0.462
aI1
aI2
aF0.5
aI3
aI5
aF0.6
aI0
aI0
aI0
aI6
aI1
aI1
aI6
aI1
aI16
aI7
aa(lp38
V0020900106
p39
aVNOV 10, 2009
p40
aVMEM vs. POR
p41
aVL
p42
aI31
aI3
aI10
aF0.3
aI1
aI3
aF0.333
aI0
aI0
aF0.0
aI0
aI0
aI0
aI4
aI0
aI0
aI0
aI2
aI7
aI-18
aa(lp43
V0020900118
p44
aVNOV 11, 2009
p45
aVMEM @ HOU
p46
aVL
p47
aI17
aI1
aI6
aF0.167
aI0
aI1
aF0.0
aI0
aI0
aF0.0
aI0
aI3
aI3
aI3
aI1
aI0
aI2
aI2
aI2
aI-17
aa(lp48
V0020900140
p49
aVNOV 14, 2009
p50
aVMEM vs. MIN
p51
aVW
p52
aI31
aI4
aI8
aF0.5
aI0
aI3
aF0.0
aI2
aI2
aF1.0
aI0
aI0
aI0
aI7
aI1
aI0
aI2
aI2
aI10
aI7
aa(lp53
V0020900164
p54
aVNOV 18, 2009
p55
aVMEM vs. LAC
p56
aVW
p57
aI15
aI0
aI4
aF0.0
aI0
aI1
aF0.0
aI1
aI2
aF0.5
aI0
aI2
aI2
aI2
aI0
aI0
aI2
aI5
aI1
aI3
aa(lp58
V0020900174
p59
aVNOV 20, 2009
p60
aVMEM @ PHI
p61
aVW
p62
aI24
aI1
aI6
aF0.167
aI0
aI1
aF0.0
aI2
aI4
aF0.5
aI1
aI3
aI4
aI6
aI1
aI0
aI3
aI2
aI4
aI2
aa(lp63
V0020900185
p64
aVNOV 21, 2009
p65
aVMEM vs. MIL
p66
aVL
p67
aI30
aI4
aI9
aF0.444
aI1
aI2
aF0.5
aI2
aI2
aF1.0
aI0
aI1
aI1
aI5
aI2
aI0
aI2
aI3
aI11
aI-10
aa(lp68
V0020900198
p69
aVNOV 23, 2009
p70
aVMEM vs. SAC
p71
aVW
p72
aI26
aI3
aI8
aF0.375
aI0
aI2
aF0.0
aI5
aI6
aF0.833
aI1
aI2
aI3
aI7
aI1
aI1
aI2
aI3
aI11
aI23
aa(lp73
V0020900217
p74
aVNOV 25, 2009
p75
aVMEM @ PHX
p76
aVL
p77
aI26
aI3
aI8
aF0.375
aI0
aI1
aF0.0
aI2
aI2
aF1.0
aI0
aI2
aI2
aI3
aI0
aI0
aI2
aI2
aI8
aI-13
aa(lp78
V0020900232
p79
aVNOV 27, 2009
p80
aVMEM @ POR
p81
aVW
p82
aI22
aI2
aI7
aF0.286
aI0
aI0
aF0.0
aI0
aI0
aF0.0
aI0
aI1
aI1
aI3
aI2
aI1
aI1
aI1
aI4
aI5
aa(lp83
V0020900240
p84
aVNOV 29, 2009
p85
aVMEM @ LAC
p86
aVL
p87
aI19
aI5
aI9
aF0.556
aI1
aI5
aF0.2
aI0
aI0
aF0.0
aI0
aI1
aI1
aI2
aI0
aI0
aI1
aI2
aI11
aI-7
aa(lp88
V0020900265
p89
aVDEC 02, 2009
p90
aVMEM @ MIN
p91
aVW
p92
aI33
aI8
aI12
aF0.667
aI4
aI7
aF0.571
aI0
aI0
aF0.0
aI0
aI2
aI2
aI3
aI2
aI1
aI0
aI1
aI20
aI-5
aa(lp93
V0020900276
p94
aVDEC 04, 2009
p95
aVMEM vs. DAL
p96
aVW
p97
aI31
aI4
aI8
aF0.5
aI2
aI4
aF0.5
aI0
aI0
aF0.0
aI0
aI2
aI2
aI3
aI1
aI0
aI2
aI1
aI10
aI10
aa(lp98
V0020900304
p99
aVDEC 08, 2009
p100
aVMEM vs. CLE
p101
aVW
p102
aI39
aI3
aI8
aF0.375
aI1
aI3
aF0.333
aI5
aI6
aF0.833
aI0
aI3
aI3
aI5
aI1
aI0
aI3
aI1
aI12
aI1
aa(lp103
V0020900326
p104
aVDEC 11, 2009
p105
aVMEM vs. OKC
p106
aVL
p107
aI38
aI8
aI16
aF0.5
aI2
aI5
aF0.4
aI2
aI2
aF1.0
aI1
aI1
aI2
aI8
aI3
aI0
aI1
aI1
aI20
aI1
aa(lp108
V0020900341
p109
aVDEC 13, 2009
p110
aVMEM @ MIA
p111
aVW
p112
aI25
aI3
aI4
aF0.75
aI0
aI0
aF0.0
aI2
aI2
aF1.0
aI0
aI1
aI1
aI4
aI1
aI0
aI1
aI1
aI8
aI21
aa(lp113
V0020900346
p114
aVDEC 14, 2009
p115
aVMEM vs. BOS
p116
aVL
p117
aI35
aI5
aI9
aF0.556
aI0
aI2
aF0.0
aI1
aI1
aF1.0
aI0
aI2
aI2
aI4
aI2
aI0
aI1
aI2
aI11
aI-12
aa(lp118
V0020900358
p119
aVDEC 16, 2009
p120
aVMEM @ ATL
p121
aVL
p122
aI31
aI6
aI8
aF0.75
aI0
aI0
aF0.0
aI0
aI0
aF0.0
aI0
aI2
aI2
aI5
aI1
aI0
aI1
aI1
aI12
aI-6
aa(lp123
V0020900377
p124
aVDEC 18, 2009
p125
aVMEM vs. IND
p126
aVW
p127
aI36
aI7
aI11
aF0.636
aI5
aI6
aF0.833
aI0
aI2
aF0.0
aI2
aI3
aI5
aI8
aI0
aI0
aI3
aI2
aI19
aI22
aa(lp128
V0020900394
p129
aVDEC 20, 2009
p130
aVMEM vs. DEN
p131
aVW
p132
aI33
aI4
aI11
aF0.364
aI0
aI1
aF0.0
aI3
aI4
aF0.75
aI1
aI2
aI3
aI5
aI2
aI0
aI4
aI0
aI11
aI1
aa(lp133
V0020900409
p134
aVDEC 22, 2009
p135
aVMEM vs. GSW
p136
aVW
p137
aI39
aI5
aI15
aF0.333
aI1
aI2
aF0.5
aI0
aI0
aF0.0
aI0
aI1
aI1
aI6
aI2
aI0
aI1
aI1
aI11
aI5
aa(lp138
V0020900429
p139
aVDEC 26, 2009
p140
aVMEM @ DAL
p141
aVL
p142
aI32
aI2
aI10
aF0.2
aI0
aI2
aF0.0
aI2
aI2
aF1.0
aI0
aI1
aI1
aI0
aI1
aI0
aI1
aI5
aI6
aI-13
aa(lp143
V0020900447
p144
aVDEC 28, 2009
p145
aVMEM vs. WAS
p146
aVW
p147
aI40
aI9
aI15
aF0.6
aI1
aI4
aF0.25
aI3
aI4
aF0.75
aI0
aI4
aI4
aI5
aI0
aI1
aI0
aI3
aI22
aI-4
aa(lp148
V0020900460
p149
aVDEC 30, 2009
p150
aVMEM @ IND
p151
aVW
p152
aI38
aI5
aI13
aF0.385
aI2
aI3
aF0.667
aI1
aI2
aF0.5
aI0
aI0
aI0
aI7
aI3
aI0
aI1
aI2
aI13
aI2
aa(lp153
V0020900485
p154
aVJAN 02, 2010
p155
aVMEM @ PHX
p156
aVW
p157
aI22
aI2
aI3
aF0.667
aI1
aI2
aF0.5
aI1
aI4
aF0.25
aI0
aI3
aI3
aI7
aI1
aI0
aI0
aI2
aI6
aI13
aa(lp158
V0020900504
p159
aVJAN 05, 2010
p160
aVMEM @ POR
p161
aVW
p162
aI28
aI3
aI8
aF0.375
aI1
aI2
aF0.5
aI0
aI1
aF0.0
aI0
aI2
aI2
aI5
aI1
aI0
aI4
aI6
aI7
aI6
aa(lp163
V0020900515
p164
aVJAN 06, 2010
p165
aVMEM @ UTA
p166
aVL
p167
aI24
aI3
aI9
aF0.333
aI1
aI2
aF0.5
aI0
aI0
aF0.0
aI0
aI2
aI2
aI4
aI0
aI0
aI2
aI0
aI7
aI-14
aa(lp168
V0020900521
p169
aVJAN 08, 2010
p170
aVMEM vs. UTA
p171
aVW
p172
aI33
aI3
aI9
aF0.333
aI0
aI3
aF0.0
aI2
aI3
aF0.667
aI2
aI1
aI3
aI5
aI2
aI0
aI5
aI3
aI8
aI3
aa(lp173
V0020900555
p174
aVJAN 12, 2010
p175
aVMEM vs. LAC
p176
aVW
p177
aI31
aI5
aI11
aF0.455
aI2
aI2
aF1.0
aI1
aI1
aF1.0
aI1
aI2
aI3
aI5
aI0
aI1
aI2
aI3
aI13
aI5
aa(lp178
V0020900576
p179
aVJAN 15, 2010
p180
aVMEM vs. MIN
p181
aVW
p182
aI30
aI7
aI10
aF0.7
aI4
aI5
aF0.8
aI0
aI0
aF0.0
aI0
aI0
aI0
aI8
aI0
aI0
aI1
aI0
aI18
aI32
aa(lp183
V0020900588
p184
aVJAN 16, 2010
p185
aVMEM vs. SAS
p186
aVW
p187
aI34
aI4
aI9
aF0.444
aI2
aI2
aF1.0
aI0
aI0
aF0.0
aI0
aI2
aI2
aI3
aI0
aI0
aI2
aI2
aI10
aI0
aa(lp188
V0020900603
p189
aVJAN 18, 2010
p190
aVMEM vs. PHX
p191
aVW
p192
aI37
aI2
aI7
aF0.286
aI1
aI2
aF0.5
aI0
aI0
aF0.0
aI0
aI5
aI5
aI9
aI2
aI0
aI3
aI3
aI5
aI5
aa(lp193
V0020900616
p194
aVJAN 20, 2010
p195
aVMEM @ NOH
p196
aVL
p197
aI23
aI4
aI9
aF0.444
aI2
aI5
aF0.4
aI2
aI2
aF1.0
aI0
aI5
aI5
aI2
aI3
aI0
aI2
aI4
aI12
aI3
aa(lp198
V0020900630
p199
aVJAN 22, 2010
p200
aVMEM vs. OKC
p201
aVW
p202
aI36
aI4
aI8
aF0.5
aI4
aI5
aF0.8
aI2
aI2
aF1.0
aI0
aI2
aI2
aI4
aI2
aI1
aI4
aI1
aI14
aI-2
aa(lp203
V0020900652
p204
aVJAN 25, 2010
p205
aVMEM vs. ORL
p206
aVW
p207
aI36
aI6
aI10
aF0.6
aI2
aI3
aF0.667
aI0
aI0
aF0.0
aI0
aI1
aI1
aI7
aI2
aI0
aI3
aI1
aI14
aI12
aa(lp208
V0020900666
p209
aVJAN 27, 2010
p210
aVMEM @ DET
p211
aVW
p212
aI36
aI5
aI11
aF0.455
aI2
aI3
aF0.667
aI2
aI2
aF1.0
aI0
aI2
aI2
aI6
aI0
aI0
aI2
aI2
aI14
aI12
aa(lp213
V0020900686
p214
aVJAN 29, 2010
p215
aVMEM @ SAS
p216
aVL
p217
aI38
aI3
aI9
aF0.333
aI0
aI0
aF0.0
aI6
aI7
aF0.857
aI0
aI2
aI2
aI8
aI2
aI0
aI4
aI1
aI12
aI-3
aa(lp218
V0020900690
p219
aVJAN 30, 2010
p220
aVMEM vs. NOH
p221
aVL
p222
aI35
aI4
aI16
aF0.25
aI0
aI4
aF0.0
aI2
aI2
aF1.0
aI2
aI2
aI4
aI5
aI2
aI0
aI0
aI6
aI10
aI8
aa(lp223
V0020900706
p224
aVFEB 01, 2010
p225
aVMEM vs. LAL
p226
aVW
p227
aI28
aI3
aI9
aF0.333
aI0
aI1
aF0.0
aI1
aI4
aF0.25
aI0
aI1
aI1
aI4
aI1
aI0
aI0
aI0
aI7
aI-1
aa(lp228
V0020900711
p229
aVFEB 02, 2010
p230
aVMEM @ CLE
p231
aVL
p232
aI20
aI1
aI6
aF0.167
aI0
aI4
aF0.0
aI1
aI2
aF0.5
aI1
aI1
aI2
aI0
aI1
aI0
aI2
aI0
aI3
aI-18
aa(lp233
V0020900736
p234
aVFEB 05, 2010
p235
aVMEM vs. HOU
p236
aVL
p237
aI29
aI2
aI8
aF0.25
aI0
aI2
aF0.0
aI0
aI0
aF0.0
aI0
aI3
aI3
aI5
aI4
aI1
aI2
aI2
aI4
aI-14
aa(lp238
V0020900746
p239
aVFEB 06, 2010
p240
aVMEM @ MIN
p241
aVL
p242
aI32
aI6
aI11
aF0.545
aI2
aI3
aF0.667
aI0
aI0
aF0.0
aI0
aI1
aI1
aI6
aI0
aI0
aI4
aI3
aI14
aI-5
aa(lp243
V0020900764
p244
aVFEB 09, 2010
p245
aVMEM vs. ATL
p246
aVL
p247
aI32
aI5
aI9
aF0.556
aI2
aI3
aF0.667
aI0
aI0
aF0.0
aI0
aI0
aI0
aI7
aI2
aI1
aI4
aI2
aI12
aI-6
aa(lp248
V0020900785
p249
aVFEB 16, 2010
p250
aVMEM vs. PHX
p251
aVL
p252
aI35
aI3
aI12
aF0.25
aI1
aI3
aF0.333
aI3
aI4
aF0.75
aI0
aI1
aI1
aI11
aI3
aI0
aI0
aI3
aI10
aI-11
aa(lp253
V0020900793
p254
aVFEB 17, 2010
p255
aVMEM @ TOR
p256
aVW
p257
aI40
aI6
aI12
aF0.5
aI1
aI2
aF0.5
aI0
aI0
aF0.0
aI0
aI7
aI7
aI8
aI1
aI1
aI0
aI0
aI13
aI29
aa(lp258
V0020900808
p259
aVFEB 19, 2010
p260
aVMEM vs. MIA
p261
aVL
p262
aI45
aI3
aI9
aF0.333
aI1
aI3
aF0.333
aI3
aI4
aF0.75
aI1
aI5
aI6
aI7
aI2
aI1
aI5
aI6
aI10
aI-7
aa(lp263
V0020900826
p264
aVFEB 21, 2010
p265
aVMEM @ NJN
p266
aVW
p267
aI30
aI3
aI12
aF0.25
aI1
aI3
aF0.333
aI1
aI2
aF0.5
aI2
aI1
aI3
aI6
aI2
aI0
aI3
aI3
aI8
aI2
aa(lp268
V0020900841
p269
aVFEB 23, 2010
p270
aVMEM vs. LAL
p271
aVL
p272
aI33
aI2
aI8
aF0.25
aI1
aI3
aF0.333
aI2
aI2
aF1.0
aI0
aI2
aI2
aI5
aI2
aI0
aI2
aI3
aI7
aI2
aa(lp273
V0020900847
p274
aVFEB 24, 2010
p275
aVMEM @ WAS
p276
aVW
p277
aI30
aI0
aI6
aF0.0
aI0
aI1
aF0.0
aI2
aI2
aF1.0
aI0
aI0
aI0
aI6
aI0
aI0
aI3
aI1
aI2
aI-7
aa(lp278
V0020900863
p279
aVFEB 26, 2010
p280
aVMEM vs. CHA
p281
aVL
p282
aI31
aI4
aI8
aF0.5
aI3
aI3
aF1.0
aI2
aI2
aF1.0
aI0
aI2
aI2
aI3
aI1
aI0
aI2
aI1
aI13
aI-2
aa(lp283
V0020900874
p284
aVFEB 27, 2010
p285
aVMEM @ NYK
p286
aVW
p287
aI38
aI7
aI11
aF0.636
aI2
aI3
aF0.667
aI2
aI4
aF0.5
aI0
aI3
aI3
aI5
aI1
aI0
aI0
aI1
aI18
aI20
aa(lp288
V0020900890
p289
aVMAR 01, 2010
p290
aVMEM vs. POR
p291
aVL
p292
aI33
aI5
aI8
aF0.625
aI2
aI4
aF0.5
aI1
aI2
aF0.5
aI0
aI3
aI3
aI5
aI2
aI0
aI7
aI3
aI13
aI-4
aa(lp293
V0020900905
p294
aVMAR 03, 2010
p295
aVMEM @ NOH
p296
aVW
p297
aI35
aI11
aI18
aF0.611
aI1
aI4
aF0.25
aI3
aI5
aF0.6
aI1
aI2
aI3
aI7
aI5
aI0
aI2
aI5
aI26
aI9
aa(lp298
V0020900911
p299
aVMAR 04, 2010
p300
aVMEM @ CHI
p301
aVW
p302
aI41
aI6
aI15
aF0.4
aI0
aI2
aF0.0
aI2
aI2
aF1.0
aI1
aI0
aI1
aI8
aI1
aI0
aI2
aI2
aI14
aI10
aa(lp303
V0020900929
p304
aVMAR 06, 2010
p305
aVMEM vs. SAS
p306
aVL
p307
aI27
aI4
aI8
aF0.5
aI0
aI2
aF0.0
aI1
aI1
aF1.0
aI1
aI0
aI1
aI4
aI2
aI0
aI1
aI3
aI9
aI3
aa(lp308
V0020900942
p309
aVMAR 08, 2010
p310
aVMEM vs. NJN
p311
aVW
p312
aI35
aI9
aI18
aF0.5
aI2
aI5
aF0.4
aI1
aI2
aF0.5
aI0
aI1
aI1
aI4
aI1
aI0
aI2
aI2
aI21
aI-9
aa(lp313
V0020900954
p314
aVMAR 10, 2010
p315
aVMEM @ BOS
p316
aVW
p317
aI29
aI5
aI9
aF0.556
aI2
aI3
aF0.667
aI0
aI0
aF0.0
aI1
aI5
aI6
aI6
aI0
aI0
aI3
aI3
aI12
aI10
aa(lp318
V0020900969
p319
aVMAR 12, 2010
p320
aVMEM vs. NYK
p321
aVW
p322
aI35
aI4
aI8
aF0.5
aI0
aI0
aF0.0
aI10
aI11
aF0.909
aI0
aI5
aI5
aI6
aI1
aI0
aI1
aI3
aI18
aI12
aa(lp323
V0020900978
p324
aVMAR 13, 2010
p325
aVMEM vs. DEN
p326
aVL
p327
aI27
aI3
aI10
aF0.3
aI0
aI3
aF0.0
aI0
aI0
aF0.0
aI0
aI0
aI0
aI2
aI0
aI0
aI1
aI3
aI6
aI-14
aa(lp328
V0020901001
p329
aVMAR 16, 2010
p330
aVMEM vs. CHI
p331
aVW
p332
aI34
aI6
aI9
aF0.667
aI2
aI3
aF0.667
aI5
aI7
aF0.714
aI1
aI2
aI3
aI10
aI5
aI0
aI3
aI2
aI19
aI17
aa(lp333
V0020901012
p334
aVMAR 17, 2010
p335
aVMEM @ HOU
p336
aVL
p337
aI29
aI5
aI11
aF0.455
aI0
aI1
aF0.0
aI1
aI2
aF0.5
aI2
aI1
aI3
aI3
aI1
aI0
aI2
aI6
aI11
aI-4
aa(lp338
V0020901032
p339
aVMAR 20, 2010
p340
aVMEM vs. GSW
p341
aVW
p342
aI26
aI6
aI12
aF0.5
aI1
aI3
aF0.333
aI2
aI2
aF1.0
aI1
aI1
aI2
aI4
aI2
aI1
aI1
aI2
aI15
aI20
aa(lp343
V0020901051
p344
aVMAR 22, 2010
p345
aVMEM @ SAC
p346
aVW
p347
aI38
aI5
aI13
aF0.385
aI2
aI4
aF0.5
aI0
aI0
aF0.0
aI0
aI3
aI3
aI7
aI2
aI0
aI1
aI1
aI12
aI31
aa(lp348
V0020901067
p349
aVMAR 24, 2010
p350
aVMEM @ GSW
p351
aVL
p352
aI41
aI9
aI20
aF0.45
aI1
aI3
aF0.333
aI2
aI2
aF1.0
aI1
aI2
aI3
aI9
aI2
aI0
aI5
aI1
aI21
aI-3
aa(lp353
V0020901088
p354
aVMAR 28, 2010
p355
aVMEM @ MIL
p356
aVL
p357
aI40
aI7
aI19
aF0.368
aI0
aI2
aF0.0
aI4
aI4
aF1.0
aI1
aI2
aI3
aI10
aI4
aI0
aI3
aI3
aI18
aI5
aa(lp358
V0020901114
p359
aVMAR 31, 2010
p360
aVMEM vs. DAL
p361
aVL
p362
aI42
aI11
aI18
aF0.611
aI1
aI5
aF0.2
aI2
aI5
aF0.4
aI0
aI6
aI6
aI5
aI2
aI0
aI0
aI1
aI25
aI3
aa(lp363
V0020901128
p364
aVAPR 02, 2010
p365
aVMEM vs. NOH
p366
aVW
p367
aI31
aI6
aI14
aF0.429
aI0
aI1
aF0.0
aI3
aI6
aF0.5
aI1
aI5
aI6
aI3
aI0
aI0
aI3
aI4
aI15
aI-6
aa(lp368
V0020901144
p369
aVAPR 04, 2010
p370
aVMEM @ ORL
p371
aVL
p372
aI36
aI6
aI11
aF0.545
aI0
aI2
aF0.0
aI2
aI2
aF1.0
aI1
aI1
aI2
aI4
aI1
aI0
aI2
aI0
aI14
aI-15
aa(lp373
V0020901155
p374
aVAPR 06, 2010
p375
aVMEM vs. HOU
p376
aVL
p377
aI30
aI6
aI13
aF0.462
aI1
aI2
aF0.5
aI2
aI2
aF1.0
aI0
aI3
aI3
aI3
aI1
aI0
aI0
aI3
aI15
aI-19
aa(lp378
V0020901167
p379
aVAPR 07, 2010
p380
aVMEM @ DAL
p381
aVL
p382
aI38
aI7
aI18
aF0.389
aI0
aI4
aF0.0
aI3
aI4
aF0.75
aI0
aI1
aI1
aI7
aI2
aI0
aI2
aI0
aI17
aI-10
aa(lp383
V0020901185
p384
aVAPR 09, 2010
p385
aVMEM @ SAS
p386
aVW
p387
aI35
aI6
aI12
aF0.5
aI0
aI0
aF0.0
aI2
aI3
aF0.667
aI0
aI1
aI1
aI9
aI1
aI0
aI1
aI1
aI14
aI11
aa(lp388
V0020901190
p389
aVAPR 10, 2010
p390
aVMEM vs. PHI
p391
aVL
p392
aI39
aI9
aI15
aF0.6
aI1
aI4
aF0.25
aI4
aI6
aF0.667
aI0
aI2
aI2
aI4
aI4
aI0
aI3
aI4
aI23
aI-17
aa(lp393
V0020901209
p394
aVAPR 12, 2010
p395
aVMEM @ DEN
p396
aVL
p397
aI28
aI8
aI13
aF0.615
aI2
aI4
aF0.5
aI4
aI5
aF0.8
aI0
aI1
aI1
aI3
aI0
aI0
aI2
aI2
aI22
aI-28
aa(lp398
V0020901224
p399
aVAPR 14, 2010
p400
aVMEM @ OKC
p401
aVL
p402
aI36
aI5
aI12
aF0.417
aI0
aI2
aF0.0
aI6
aI7
aF0.857
aI0
aI3
aI3
aI5
aI0
aI0
aI2
aI3
aI16
aI-5
aasS'name'
p403
VMike Conley
p404
sS'weight'
p405
V175
p406
sS'age'
p407
I22
sS'experience'
p408
I2
sS'height'
p409
V6-1
p410
sS'position'
p411
VGuard
p412
s.