(dp0
S'age'
p1
I25
sS'stats'
p2
(lp3
(lp4
V0020900558
p5
aVJAN 13, 2010
p6
aVATL vs. WAS
p7
aVW
p8
aI12
aI2
aI3
aF0.667
aI0
aI0
aF0.0
aI1
aI1
aF1.0
aI4
aI1
aI5
aI0
aI0
aI0
aI2
aI2
aI5
aI2
aa(lp9
V0020900573
p10
aVJAN 15, 2010
p11
aVATL vs. PHX
p12
aVW
p13
aI3
aI0
aI0
aF0.0
aI0
aI0
aF0.0
aI0
aI0
aF0.0
aI0
aI0
aI0
aI0
aI0
aI0
aI0
aI0
aI0
aI-2
aa(lp14
V0020900596
p15
aVJAN 18, 2010
p16
aVATL vs. OKC
p17
aVL
p18
aI7
aI0
aI0
aF0.0
aI0
aI0
aF0.0
aI0
aI0
aF0.0
aI0
aI2
aI2
aI1
aI0
aI0
aI0
aI1
aI0
aI0
aa(lp19
V0020900608
p20
aVJAN 20, 2010
p21
aVATL vs. SAC
p22
aVW
p23
aI9
aI0
aI0
aF0.0
aI0
aI0
aF0.0
aI0
aI0
aF0.0
aI1
aI1
aI2
aI0
aI0
aI0
aI1
aI3
aI0
aI1
aa(lp24
V0020900653
p25
aVJAN 25, 2010
p26
aVATL @ HOU
p27
aVW
p28
aI1
aI0
aI0
aF0.0
aI0
aI0
aF0.0
aI0
aI0
aF0.0
aI0
aI0
aI0
aI0
aI0
aI0
aI0
aI0
aI0
aI-4
aa(lp29
V0020900671
p30
aVJAN 27, 2010
p31
aVATL @ SAS
p32
aVL
p33
aI2
aI0
aI1
aF0.0
aI0
aI1
aF0.0
aI0
aI2
aF0.0
aI0
aI1
aI1
aI0
aI0
aI0
aI0
aI0
aI0
aI0
aa(lp34
V0020900679
p35
aVJAN 29, 2010
p36
aVATL vs. BOS
p37
aVW
p38
aI0
aI0
aI0
aF0.0
aI0
aI0
aF0.0
aI0
aI0
aF0.0
aI0
aI0
aI0
aI0
aI0
aI0
aI0
aI0
aI0
aI1
aa(lp39
V0020900689
p40
aVJAN 30, 2010
p41
aVATL @ ORL
p42
aVL
p43
aI13
aI0
aI0
aF0.0
aI0
aI0
aF0.0
aI2
aI2
aF1.0
aI1
aI2
aI3
aI0
aI2
aI0
aI0
aI1
aI2
aI2
aa(lp44
V0020900716
p45
aVFEB 02, 2010
p46
aVATL @ OKC
p47
aVL
p48
aI3
aI1
aI3
aF0.333
aI0
aI0
aF0.0
aI0
aI0
aF0.0
aI1
aI0
aI1
aI0
aI0
aI0
aI0
aI1
aI2
aI0
aa(lp49
V0020900735
p50
aVFEB 05, 2010
p51
aVATL vs. CHI
p52
aVW
p53
aI1
aI0
aI0
aF0.0
aI0
aI0
aF0.0
aI0
aI0
aF0.0
aI0
aI0
aI0
aI0
aI0
aI0
aI0
aI0
aI0
aI-1
aa(lp54
V0020900764
p55
aVFEB 09, 2010
p56
aVATL @ MEM
p57
aVW
p58
aI4
aI1
aI1
aF1.0
aI0
aI0
aF0.0
aI0
aI0
aF0.0
aI0
aI1
aI1
aI0
aI0
aI0
aI0
aI0
aI2
aI-6
aa(lp59
V0020900769
p60
aVFEB 10, 2010
p61
aVATL vs. MIA
p62
aVL
p63
aI1
aI0
aI0
aF0.0
aI0
aI0
aF0.0
aI0
aI0
aF0.0
aI0
aI0
aI0
aI0
aI0
aI0
aI0
aI1
aI0
aI-2
aa(lp64
V0020900813
p65
aVFEB 19, 2010
p66
aVATL @ PHX
p67
aVL
p68
aI0
aI0
aI0
aF0.0
aI0
aI0
aF0.0
aI0
aI0
aF0.0
aI0
aI0
aI0
aI0
aI0
aI0
aI0
aI0
aI0
aI0
aa(lp69
V0020900829
p70
aVFEB 21, 2010
p71
aVATL @ GSW
p72
aVL
p73
aI4
aI0
aI0
aF0.0
aI0
aI0
aF0.0
aI0
aI0
aF0.0
aI1
aI0
aI1
aI0
aI0
aI0
aI0
aI0
aI0
aI-6
aa(lp74
V0020900835
p75
aVFEB 22, 2010
p76
aVATL @ UTA
p77
aVW
p78
aI2
aI0
aI0
aF0.0
aI0
aI0
aF0.0
aI0
aI0
aF0.0
aI0
aI0
aI0
aI0
aI0
aI0
aI0
aI0
aI0
aI1
aa(lp79
V0020900845
p80
aVFEB 24, 2010
p81
aVATL vs. MIN
p82
aVW
p83
aI0
aI0
aI0
aF0.0
aI0
aI0
aF0.0
aI0
aI0
aF0.0
aI0
aI0
aI0
aI0
aI0
aI0
aI0
aI1
aI0
aI-1
aa(lp84
V0020900861
p85
aVFEB 26, 2010
p86
aVATL vs. DAL
p87
aVL
p88
aI0
aI0
aI0
aF0.0
aI0
aI0
aF0.0
aI0
aI0
aF0.0
aI0
aI0
aI0
aI0
aI0
aI0
aI0
aI0
aI0
aI0
aa(lp89
V0020900889
p90
aVMAR 01, 2010
p91
aVATL @ CHI
p92
aVW
p93
aI3
aI1
aI1
aF1.0
aI0
aI0
aF0.0
aI0
aI0
aF0.0
aI0
aI0
aI0
aI1
aI1
aI0
aI0
aI0
aI2
aI5
aa(lp94
V0020900899
p95
aVMAR 03, 2010
p96
aVATL vs. PHI
p97
aVW
p98
aI3
aI1
aI1
aF1.0
aI0
aI0
aF0.0
aI0
aI0
aF0.0
aI0
aI1
aI1
aI1
aI0
aI0
aI0
aI1
aI2
aI-1
aa(lp99
V0020900919
p100
aVMAR 05, 2010
p101
aVATL vs. GSW
p102
aVW
p103
aI3
aI0
aI0
aF0.0
aI0
aI0
aF0.0
aI0
aI0
aF0.0
aI0
aI0
aI0
aI0
aI0
aI0
aI0
aI2
aI0
aI1
aa(lp104
V0020900926
p105
aVMAR 06, 2010
p106
aVATL @ MIA
p107
aVL
p108
aI0
aI0
aI0
aF0.0
aI0
aI0
aF0.0
aI0
aI0
aF0.0
aI0
aI0
aI0
aI0
aI0
aI0
aI0
aI0
aI0
aI-3
aa(lp109
V0020900742
p110
aVMAR 11, 2010
p111
aVATL @ WAS
p112
aVW
p113
aI1
aI0
aI0
aF0.0
aI0
aI0
aF0.0
aI0
aI0
aF0.0
aI0
aI0
aI0
aI0
aI0
aI0
aI0
aI0
aI0
aI4
aa(lp114
V0020900976
p115
aVMAR 13, 2010
p116
aVATL vs. DET
p117
aVW
p118
aI2
aI0
aI0
aF0.0
aI0
aI0
aF0.0
aI0
aI0
aF0.0
aI0
aI0
aI0
aI1
aI1
aI0
aI2
aI1
aI0
aI-2
aa(lp119
V0020901000
p120
aVMAR 16, 2010
p121
aVATL @ NJN
p122
aVW
p123
aI11
aI1
aI2
aF0.5
aI0
aI0
aF0.0
aI0
aI0
aF0.0
aI0
aI3
aI3
aI1
aI0
aI0
aI0
aI1
aI2
aI-3
aa(lp124
V0020901008
p125
aVMAR 17, 2010
p126
aVATL @ TOR
p127
aVL
p128
aI0
aI0
aI0
aF0.0
aI0
aI0
aF0.0
aI0
aI0
aF0.0
aI0
aI0
aI0
aI0
aI0
aI0
aI0
aI0
aI0
aI-2
aa(lp129
V0020901020
p130
aVMAR 19, 2010
p131
aVATL vs. CHA
p132
aVW
p133
aI2
aI0
aI0
aF0.0
aI0
aI0
aF0.0
aI0
aI0
aF0.0
aI0
aI0
aI0
aI0
aI0
aI0
aI0
aI0
aI0
aI-7
aa(lp134
V0020901038
p135
aVMAR 21, 2010
p136
aVATL vs. SAS
p137
aVW
p138
aI0
aI0
aI0
aF0.0
aI0
aI0
aF0.0
aI0
aI0
aF0.0
aI0
aI0
aI0
aI0
aI0
aI0
aI0
aI0
aI0
aI2
aa(lp139
V0020901046
p140
aVMAR 22, 2010
p141
aVATL @ MIL
p142
aVL
p143
aI0
aI0
aI0
aF0.0
aI0
aI0
aF0.0
aI0
aI0
aF0.0
aI0
aI0
aI0
aI0
aI0
aI0
aI0
aI0
aI0
aI0
aa(lp144
V0020901057
p145
aVMAR 24, 2010
p146
aVATL vs. ORL
p147
aVW
p148
aI1
aI0
aI0
aF0.0
aI0
aI0
aF0.0
aI0
aI0
aF0.0
aI0
aI0
aI0
aI0
aI0
aI0
aI0
aI1
aI0
aI-5
aa(lp149
V0020901074
p150
aVMAR 26, 2010
p151
aVATL @ PHI
p152
aVL
p153
aI0
aI0
aI0
aF0.0
aI0
aI0
aF0.0
aI0
aI0
aF0.0
aI0
aI0
aI0
aI0
aI0
aI0
aI0
aI0
aI0
aI0
aa(lp154
V0020901089
p155
aVMAR 28, 2010
p156
aVATL vs. IND
p157
aVW
p158
aI3
aI0
aI2
aF0.0
aI0
aI0
aF0.0
aI1
aI2
aF0.5
aI0
aI0
aI0
aI0
aI1
aI0
aI0
aI0
aI1
aI-2
aa(lp159
V0020901107
p160
aVMAR 31, 2010
p161
aVATL vs. LAL
p162
aVW
p163
aI2
aI0
aI0
aF0.0
aI0
aI0
aF0.0
aI0
aI0
aF0.0
aI0
aI0
aI0
aI0
aI0
aI0
aI0
aI1
aI0
aI1
aa(lp164
V0020901133
p165
aVAPR 03, 2010
p166
aVATL vs. DET
p167
aVW
p168
aI1
aI0
aI0
aF0.0
aI0
aI0
aF0.0
aI0
aI0
aF0.0
aI0
aI0
aI0
aI0
aI0
aI0
aI0
aI0
aI0
aI-2
aa(lp169
V0020901149
p170
aVAPR 06, 2010
p171
aVATL @ CHA
p172
aVL
p173
aI12
aI1
aI2
aF0.5
aI0
aI0
aF0.0
aI0
aI0
aF0.0
aI0
aI2
aI2
aI0
aI0
aI0
aI1
aI2
aI2
aI-14
aa(lp174
V0020901160
p175
aVAPR 07, 2010
p176
aVATL @ DET
p177
aVL
p178
aI0
aI0
aI0
aF0.0
aI0
aI0
aF0.0
aI0
aI0
aF0.0
aI0
aI0
aI0
aI0
aI0
aI0
aI0
aI1
aI0
aI-2
aa(lp179
V0020901176
p180
aVAPR 09, 2010
p181
aVATL vs. TOR
p182
aVW
p183
aI1
aI0
aI0
aF0.0
aI0
aI0
aF0.0
aI0
aI0
aF0.0
aI0
aI0
aI0
aI0
aI0
aI0
aI0
aI1
aI0
aI-4
aa(lp184
V0020901189
p185
aVAPR 10, 2010
p186
aVATL @ WAS
p187
aVW
p188
aI1
aI0
aI0
aF0.0
aI0
aI0
aF0.0
aI0
aI0
aF0.0
aI0
aI0
aI0
aI0
aI1
aI0
aI0
aI0
aI0
aI0
aa(lp189
V0020901207
p190
aVAPR 12, 2010
p191
aVATL @ MIL
p192
aVW
p193
aI0
aI0
aI0
aF0.0
aI0
aI0
aF0.0
aI0
aI0
aF0.0
aI0
aI0
aI0
aI0
aI0
aI0
aI0
aI0
aI0
aI0
aa(lp194
V0020901217
p195
aVAPR 14, 2010
p196
aVATL vs. CLE
p197
aVW
p198
aI33
aI4
aI5
aF0.8
aI0
aI0
aF0.0
aI2
aI3
aF0.667
aI0
aI5
aI5
aI4
aI2
aI0
aI1
aI4
aI10
aI23
aasS'name'
p199
VMario West
p200
sS'experience'
p201
I2
s.