(dp0
S'age'
p1
I23
sS'stats'
p2
(lp3
(lp4
V0020900005
p5
aVOCT 28, 2009
p6
aVIND @ ATL
p7
aVL
p8
aI25
aI3
aI6
aF0.5
aI0
aI0
aF0.0
aI0
aI0
aF0.0
aI2
aI7
aI9
aI3
aI0
aI1
aI3
aI3
aI6
aI-16
aa(lp9
V0020900024
p10
aVOCT 30, 2009
p11
aVIND vs. MIA
p12
aVL
p13
aI16
aI4
aI10
aF0.4
aI0
aI0
aF0.0
aI0
aI0
aF0.0
aI3
aI3
aI6
aI0
aI0
aI2
aI0
aI5
aI8
aI-6
aa(lp14
V0020900052
p15
aVNOV 03, 2009
p16
aVIND vs. DEN
p17
aVL
p18
aI34
aI6
aI11
aF0.545
aI0
aI0
aF0.0
aI2
aI2
aF1.0
aI3
aI9
aI12
aI2
aI1
aI4
aI1
aI5
aI14
aI-7
aa(lp19
V0020900064
p20
aVNOV 04, 2009
p21
aVIND @ NYK
p22
aVW
p23
aI29
aI7
aI12
aF0.583
aI0
aI0
aF0.0
aI1
aI3
aF0.333
aI7
aI7
aI14
aI1
aI1
aI2
aI5
aI0
aI15
aI13
aa(lp24
V0020900073
p25
aVNOV 06, 2009
p26
aVIND vs. WAS
p27
aVW
p28
aI28
aI5
aI9
aF0.556
aI0
aI0
aF0.0
aI2
aI2
aF1.0
aI6
aI5
aI11
aI2
aI0
aI5
aI4
aI5
aI12
aI13
aa(lp29
V0020900109
p30
aVNOV 11, 2009
p31
aVIND vs. GSW
p32
aVW
p33
aI25
aI5
aI12
aF0.417
aI0
aI0
aF0.0
aI6
aI7
aF0.857
aI4
aI5
aI9
aI4
aI0
aI2
aI4
aI5
aI16
aI20
aa(lp34
V0020900135
p35
aVNOV 14, 2009
p36
aVIND vs. BOS
p37
aVW
p38
aI30
aI5
aI7
aF0.714
aI0
aI1
aF0.0
aI1
aI2
aF0.5
aI1
aI1
aI2
aI4
aI2
aI1
aI2
aI4
aI11
aI8
aa(lp39
V0020900152
p40
aVNOV 17, 2009
p41
aVIND @ NJN
p42
aVW
p43
aI32
aI9
aI11
aF0.818
aI0
aI0
aF0.0
aI1
aI2
aF0.5
aI5
aI5
aI10
aI2
aI1
aI3
aI1
aI3
aI19
aI17
aa(lp44
V0020900159
p45
aVNOV 18, 2009
p46
aVIND vs. NYK
p47
aVL
p48
aI32
aI4
aI8
aF0.5
aI0
aI0
aF0.0
aI6
aI8
aF0.75
aI4
aI8
aI12
aI2
aI0
aI2
aI1
aI4
aI14
aI0
aa(lp49
V0020900173
p50
aVNOV 20, 2009
p51
aVIND vs. CLE
p52
aVL
p53
aI16
aI2
aI4
aF0.5
aI0
aI0
aF0.0
aI0
aI0
aF0.0
aI1
aI1
aI2
aI1
aI0
aI0
aI1
aI5
aI4
aI7
aa(lp54
V0020900194
p55
aVNOV 22, 2009
p56
aVIND @ CHA
p57
aVL
p58
aI24
aI3
aI9
aF0.333
aI0
aI0
aF0.0
aI1
aI2
aF0.5
aI1
aI3
aI4
aI1
aI0
aI1
aI2
aI2
aI7
aI-3
aa(lp59
V0020900202
p60
aVNOV 24, 2009
p61
aVIND @ TOR
p62
aVL
p63
aI13
aI3
aI6
aF0.5
aI0
aI0
aF0.0
aI2
aI3
aF0.667
aI1
aI2
aI3
aI2
aI0
aI0
aI1
aI0
aI8
aI-17
aa(lp64
V0020900209
p65
aVNOV 25, 2009
p66
aVIND vs. LAC
p67
aVW
p68
aI26
aI2
aI7
aF0.286
aI0
aI0
aF0.0
aI0
aI1
aF0.0
aI0
aI3
aI3
aI2
aI0
aI3
aI0
aI5
aI4
aI2
aa(lp69
V0020900227
p70
aVNOV 27, 2009
p71
aVIND vs. DAL
p72
aVL
p73
aI12
aI3
aI7
aF0.429
aI0
aI0
aF0.0
aI0
aI0
aF0.0
aI1
aI0
aI1
aI1
aI0
aI0
aI0
aI2
aI6
aI-12
aa(lp74
V0020900252
p75
aVNOV 30, 2009
p76
aVIND @ GSW
p77
aVL
p78
aI11
aI1
aI1
aF1.0
aI0
aI0
aF0.0
aI0
aI0
aF0.0
aI2
aI0
aI2
aI0
aI0
aI0
aI1
aI5
aI2
aI-24
aa(lp79
V0020900267
p80
aVDEC 02, 2009
p81
aVIND @ SAC
p82
aVL
p83
aI16
aI3
aI8
aF0.375
aI0
aI0
aF0.0
aI1
aI1
aF1.0
aI3
aI4
aI7
aI1
aI0
aI1
aI3
aI3
aI7
aI-16
aa(lp84
V0020900280
p85
aVDEC 04, 2009
p86
aVIND @ UTA
p87
aVL
p88
aI15
aI0
aI3
aF0.0
aI0
aI0
aF0.0
aI0
aI0
aF0.0
aI0
aI1
aI1
aI2
aI0
aI1
aI0
aI2
aI0
aI1
aa(lp89
V0020900290
p90
aVDEC 05, 2009
p91
aVIND @ LAC
p92
aVL
p93
aI25
aI5
aI8
aF0.625
aI0
aI0
aF0.0
aI2
aI4
aF0.5
aI1
aI3
aI4
aI3
aI0
aI2
aI2
aI3
aI12
aI-2
aa(lp94
V0020900309
p95
aVDEC 09, 2009
p96
aVIND vs. POR
p97
aVL
p98
aI18
aI3
aI9
aF0.333
aI0
aI0
aF0.0
aI0
aI2
aF0.0
aI2
aI2
aI4
aI1
aI0
aI0
aI1
aI2
aI6
aI-4
aa(lp99
V0020900320
p100
aVDEC 11, 2009
p101
aVIND vs. NJN
p102
aVW
p103
aI27
aI8
aI17
aF0.471
aI1
aI1
aF1.0
aI3
aI3
aF1.0
aI7
aI2
aI9
aI0
aI1
aI3
aI2
aI3
aI20
aI4
aa(lp104
V0020900331
p105
aVDEC 12, 2009
p106
aVIND @ WAS
p107
aVW
p108
aI23
aI1
aI9
aF0.111
aI0
aI0
aF0.0
aI2
aI2
aF1.0
aI3
aI5
aI8
aI0
aI0
aI1
aI2
aI3
aI4
aI-7
aa(lp109
V0020900344
p110
aVDEC 14, 2009
p111
aVIND @ ORL
p112
aVL
p113
aI15
aI4
aI5
aF0.8
aI0
aI0
aF0.0
aI0
aI0
aF0.0
aI2
aI3
aI5
aI3
aI0
aI0
aI0
aI5
aI8
aI11
aa(lp114
V0020900359
p115
aVDEC 16, 2009
p116
aVIND vs. CHA
p117
aVW
p118
aI14
aI4
aI5
aF0.8
aI0
aI0
aF0.0
aI0
aI0
aF0.0
aI0
aI2
aI2
aI1
aI0
aI1
aI1
aI5
aI8
aI17
aa(lp119
V0020900377
p120
aVDEC 18, 2009
p121
aVIND @ MEM
p122
aVL
p123
aI16
aI2
aI3
aF0.667
aI0
aI0
aF0.0
aI2
aI2
aF1.0
aI0
aI1
aI1
aI1
aI0
aI0
aI3
aI4
aI6
aI-13
aa(lp124
V0020900391
p125
aVDEC 19, 2009
p126
aVIND @ SAS
p127
aVL
p128
aI35
aI9
aI15
aF0.6
aI0
aI0
aF0.0
aI2
aI2
aF1.0
aI2
aI5
aI7
aI3
aI1
aI6
aI2
aI4
aI20
aI12
aa(lp129
V0020900400
p130
aVDEC 21, 2009
p131
aVIND vs. MIL
p132
aVL
p133
aI29
aI7
aI15
aF0.467
aI0
aI1
aF0.0
aI2
aI2
aF1.0
aI3
aI4
aI7
aI1
aI1
aI1
aI2
aI1
aI16
aI-2
aa(lp134
V0020900407
p135
aVDEC 22, 2009
p136
aVIND @ BOS
p137
aVL
p138
aI33
aI2
aI8
aF0.25
aI0
aI0
aF0.0
aI2
aI4
aF0.5
aI2
aI1
aI3
aI0
aI0
aI6
aI3
aI5
aI6
aI-9
aa(lp139
V0020900430
p140
aVDEC 26, 2009
p141
aVIND vs. ATL
p142
aVL
p143
aI19
aI2
aI6
aF0.333
aI0
aI0
aF0.0
aI2
aI2
aF1.0
aI1
aI3
aI4
aI0
aI0
aI1
aI2
aI2
aI6
aI-22
aa(lp144
V0020900441
p145
aVDEC 27, 2009
p146
aVIND @ MIA
p147
aVL
p148
aI17
aI3
aI5
aF0.6
aI0
aI0
aF0.0
aI1
aI2
aF0.5
aI1
aI2
aI3
aI0
aI0
aI0
aI3
aI5
aI7
aI-23
aa(lp149
V0020900455
p150
aVDEC 29, 2009
p151
aVIND @ CHI
p152
aVL
p153
aI26
aI6
aI15
aF0.4
aI0
aI0
aF0.0
aI5
aI6
aF0.833
aI2
aI4
aI6
aI2
aI0
aI0
aI3
aI4
aI17
aI-5
aa(lp154
V0020900460
p155
aVDEC 30, 2009
p156
aVIND vs. MEM
p157
aVL
p158
aI30
aI8
aI14
aF0.571
aI0
aI0
aF0.0
aI9
aI10
aF0.9
aI3
aI10
aI13
aI2
aI1
aI1
aI4
aI4
aI25
aI7
aa(lp159
V0020900479
p160
aVJAN 02, 2010
p161
aVIND vs. MIN
p162
aVW
p163
aI27
aI10
aI18
aF0.556
aI0
aI0
aF0.0
aI1
aI1
aF1.0
aI2
aI5
aI7
aI4
aI1
aI3
aI1
aI4
aI21
aI-2
aa(lp164
V0020900490
p165
aVJAN 03, 2010
p166
aVIND @ NYK
p167
aVL
p168
aI25
aI4
aI10
aF0.4
aI0
aI0
aF0.0
aI0
aI0
aF0.0
aI2
aI1
aI3
aI7
aI0
aI2
aI0
aI6
aI8
aI-10
aa(lp169
V0020900499
p170
aVJAN 05, 2010
p171
aVIND vs. ORL
p172
aVW
p173
aI35
aI10
aI19
aF0.526
aI0
aI0
aF0.0
aI6
aI9
aF0.667
aI4
aI4
aI8
aI3
aI0
aI4
aI2
aI4
aI26
aI12
aa(lp174
V0020900522
p175
aVJAN 08, 2010
p176
aVIND @ MIN
p177
aVL
p178
aI32
aI7
aI13
aF0.538
aI0
aI0
aF0.0
aI1
aI1
aF1.0
aI1
aI5
aI6
aI3
aI1
aI3
aI3
aI5
aI15
aI5
aa(lp179
V0020900534
p180
aVJAN 09, 2010
p181
aVIND @ OKC
p182
aVL
p183
aI15
aI4
aI11
aF0.364
aI0
aI1
aF0.0
aI1
aI1
aF1.0
aI3
aI2
aI5
aI0
aI0
aI0
aI1
aI4
aI9
aI-11
aa(lp184
V0020900544
p185
aVJAN 11, 2010
p186
aVIND vs. TOR
p187
aVW
p188
aI7
aI1
aI4
aF0.25
aI0
aI0
aF0.0
aI0
aI0
aF0.0
aI0
aI0
aI0
aI0
aI0
aI0
aI1
aI2
aI2
aI-14
aa(lp189
V0020900559
p190
aVJAN 13, 2010
p191
aVIND vs. PHX
p192
aVW
p193
aI24
aI4
aI10
aF0.4
aI0
aI0
aF0.0
aI6
aI7
aF0.857
aI2
aI6
aI8
aI0
aI0
aI2
aI2
aI6
aI14
aI11
aa(lp194
V0020900577
p195
aVJAN 15, 2010
p196
aVIND @ NJN
p197
aVW
p198
aI33
aI5
aI10
aF0.5
aI0
aI0
aF0.0
aI2
aI3
aF0.667
aI1
aI5
aI6
aI4
aI1
aI5
aI2
aI3
aI12
aI11
aa(lp199
V0020900585
p200
aVJAN 16, 2010
p201
aVIND vs. NOH
p202
aVL
p203
aI34
aI12
aI19
aF0.632
aI0
aI0
aF0.0
aI3
aI3
aF1.0
aI2
aI8
aI10
aI2
aI1
aI3
aI4
aI4
aI27
aI2
aa(lp204
V0020900607
p205
aVJAN 19, 2010
p206
aVIND @ MIA
p207
aVL
p208
aI27
aI6
aI12
aF0.5
aI0
aI0
aF0.0
aI0
aI2
aF0.0
aI2
aI2
aI4
aI2
aI0
aI1
aI2
aI4
aI12
aI-19
aa(lp209
V0020900610
p210
aVJAN 20, 2010
p211
aVIND @ ORL
p212
aVL
p213
aI18
aI0
aI2
aF0.0
aI0
aI0
aF0.0
aI3
aI4
aF0.75
aI1
aI2
aI3
aI2
aI0
aI2
aI2
aI4
aI3
aI-22
aa(lp214
V0020900629
p215
aVJAN 22, 2010
p216
aVIND @ DET
p217
aVW
p218
aI33
aI6
aI9
aF0.667
aI0
aI0
aF0.0
aI2
aI2
aF1.0
aI1
aI6
aI7
aI2
aI2
aI3
aI4
aI3
aI14
aI29
aa(lp219
V0020900637
p220
aVJAN 23, 2010
p221
aVIND vs. PHI
p222
aVL
p223
aI24
aI1
aI6
aF0.167
aI0
aI0
aF0.0
aI2
aI2
aF1.0
aI1
aI3
aI4
aI1
aI0
aI1
aI1
aI1
aI4
aI-15
aa(lp224
V0020900649
p225
aVJAN 25, 2010
p226
aVIND @ PHI
p227
aVW
p228
aI19
aI4
aI6
aF0.667
aI0
aI0
aF0.0
aI2
aI3
aF0.667
aI1
aI3
aI4
aI2
aI0
aI0
aI0
aI1
aI10
aI4
aa(lp229
V0020900664
p230
aVJAN 27, 2010
p231
aVIND vs. LAL
p232
aVL
p233
aI28
aI10
aI18
aF0.556
aI0
aI0
aF0.0
aI1
aI2
aF0.5
aI4
aI2
aI6
aI2
aI0
aI2
aI2
aI3
aI21
aI-3
aa(lp234
V0020900677
p235
aVJAN 29, 2010
p236
aVIND vs. CLE
p237
aVL
p238
aI25
aI2
aI9
aF0.222
aI0
aI0
aF0.0
aI0
aI0
aF0.0
aI2
aI2
aI4
aI1
aI1
aI0
aI0
aI6
aI4
aI-6
aa(lp239
V0020900700
p240
aVJAN 31, 2010
p241
aVIND @ TOR
p242
aVL
p243
aI20
aI5
aI9
aF0.556
aI0
aI0
aF0.0
aI2
aI4
aF0.5
aI1
aI3
aI4
aI2
aI1
aI1
aI0
aI5
aI12
aI8
aa(lp244
V0020900712
p245
aVFEB 02, 2010
p246
aVIND vs. TOR
p247
aVW
p248
aI29
aI7
aI12
aF0.583
aI0
aI0
aF0.0
aI4
aI4
aF1.0
aI3
aI6
aI9
aI2
aI0
aI1
aI1
aI5
aI18
aI13
aa(lp249
V0020900731
p250
aVFEB 05, 2010
p251
aVIND vs. DET
p252
aVW
p253
aI31
aI4
aI8
aF0.5
aI0
aI0
aF0.0
aI2
aI2
aF1.0
aI5
aI6
aI11
aI1
aI0
aI1
aI2
aI3
aI10
aI29
aa(lp254
V0020900748
p255
aVFEB 06, 2010
p256
aVIND @ MIL
p257
aVL
p258
aI25
aI5
aI7
aF0.714
aI0
aI0
aF0.0
aI0
aI0
aF0.0
aI1
aI3
aI4
aI0
aI1
aI2
aI4
aI5
aI10
aI-8
aa(lp259
V0020900760
p260
aVFEB 09, 2010
p261
aVIND vs. CHI
p262
aVL
p263
aI30
aI4
aI13
aF0.308
aI0
aI0
aF0.0
aI1
aI2
aF0.5
aI3
aI5
aI8
aI5
aI1
aI0
aI2
aI2
aI9
aI-1
aa(lp264
V0020900791
p265
aVFEB 17, 2010
p266
aVIND vs. SAS
p267
aVL
p268
aI32
aI6
aI13
aF0.462
aI0
aI0
aF0.0
aI2
aI2
aF1.0
aI3
aI4
aI7
aI2
aI1
aI6
aI2
aI3
aI14
aI9
aa(lp269
V0020900811
p270
aVFEB 19, 2010
p271
aVIND @ NOH
p272
aVL
p273
aI31
aI6
aI9
aF0.667
aI0
aI0
aF0.0
aI1
aI1
aF1.0
aI1
aI5
aI6
aI2
aI0
aI4
aI0
aI4
aI13
aI-3
aa(lp274
V0020900820
p275
aVFEB 20, 2010
p276
aVIND @ HOU
p277
aVW
p278
aI25
aI3
aI8
aF0.375
aI0
aI0
aF0.0
aI1
aI3
aF0.333
aI1
aI8
aI9
aI3
aI0
aI2
aI1
aI1
aI7
aI3
aa(lp279
V0020900834
p280
aVFEB 22, 2010
p281
aVIND @ DAL
p282
aVL
p283
aI23
aI4
aI6
aF0.667
aI0
aI0
aF0.0
aI0
aI1
aF0.0
aI1
aI3
aI4
aI1
aI0
aI2
aI3
aI4
aI8
aI-2
aa(lp284
V0020900848
p285
aVFEB 24, 2010
p286
aVIND @ CHI
p287
aVL
p288
aI23
aI3
aI5
aF0.6
aI0
aI0
aF0.0
aI2
aI2
aF1.0
aI2
aI4
aI6
aI1
aI2
aI1
aI1
aI3
aI8
aI0
aa(lp289
V0020900856
p290
aVFEB 25, 2010
p291
aVIND vs. MIL
p292
aVL
p293
aI11
aI6
aI7
aF0.857
aI0
aI0
aF0.0
aI0
aI0
aF0.0
aI1
aI0
aI1
aI0
aI0
aI1
aI0
aI1
aI12
aI-7
aa(lp294
V0020900873
p295
aVFEB 27, 2010
p296
aVIND vs. CHI
p297
aVW
p298
aI19
aI3
aI11
aF0.273
aI0
aI0
aF0.0
aI6
aI6
aF1.0
aI3
aI4
aI7
aI3
aI1
aI1
aI3
aI3
aI12
aI13
aa(lp299
V0020900898
p300
aVMAR 02, 2010
p301
aVIND @ LAL
p302
aVL
p303
aI22
aI6
aI12
aF0.5
aI0
aI0
aF0.0
aI0
aI2
aF0.0
aI3
aI3
aI6
aI0
aI0
aI0
aI1
aI5
aI12
aI7
aa(lp304
V0020900909
p305
aVMAR 03, 2010
p306
aVIND @ POR
p307
aVL
p308
aI23
aI2
aI5
aF0.4
aI0
aI0
aF0.0
aI0
aI0
aF0.0
aI1
aI2
aI3
aI1
aI0
aI1
aI3
aI3
aI4
aI-6
aa(lp309
V0020900922
p310
aVMAR 05, 2010
p311
aVIND @ DEN
p312
aVL
p313
aI28
aI4
aI7
aF0.571
aI0
aI0
aF0.0
aI4
aI4
aF1.0
aI0
aI4
aI4
aI3
aI0
aI0
aI4
aI5
aI12
aI-5
aa(lp314
V0020900932
p315
aVMAR 06, 2010
p316
aVIND @ PHX
p317
aVL
p318
aI26
aI5
aI11
aF0.455
aI0
aI0
aF0.0
aI12
aI12
aF1.0
aI4
aI2
aI6
aI2
aI0
aI5
aI1
aI6
aI22
aI3
aa(lp319
V0020900946
p320
aVMAR 09, 2010
p321
aVIND vs. PHI
p322
aVW
p323
aI25
aI5
aI14
aF0.357
aI0
aI0
aF0.0
aI2
aI2
aF1.0
aI6
aI5
aI11
aI7
aI0
aI1
aI2
aI1
aI12
aI15
aa(lp324
V0020900966
p325
aVMAR 12, 2010
p326
aVIND @ BOS
p327
aVL
p328
aI40
aI9
aI14
aF0.643
aI0
aI0
aF0.0
aI5
aI7
aF0.714
aI0
aI3
aI3
aI0
aI0
aI0
aI2
aI2
aI23
aI-9
aa(lp329
V0020900983
p330
aVMAR 14, 2010
p331
aVIND @ MIL
p332
aVL
p333
aI29
aI1
aI5
aF0.2
aI0
aI0
aF0.0
aI4
aI4
aF1.0
aI1
aI3
aI4
aI1
aI0
aI1
aI3
aI3
aI6
aI-9
aa(lp334
V0020900997
p335
aVMAR 16, 2010
p336
aVIND vs. CHA
p337
aVW
p338
aI23
aI4
aI9
aF0.444
aI0
aI0
aF0.0
aI1
aI1
aF1.0
aI4
aI1
aI5
aI3
aI1
aI0
aI0
aI3
aI9
aI2
aa(lp339
V0020901006
p340
aVMAR 17, 2010
p341
aVIND @ CLE
p342
aVL
p343
aI28
aI8
aI12
aF0.667
aI0
aI0
aF0.0
aI4
aI4
aF1.0
aI3
aI2
aI5
aI2
aI0
aI0
aI1
aI4
aI20
aI-6
aa(lp344
V0020901018
p345
aVMAR 19, 2010
p346
aVIND vs. DET
p347
aVW
p348
aI43
aI7
aI13
aF0.538
aI0
aI0
aF0.0
aI1
aI1
aF1.0
aI1
aI5
aI6
aI2
aI1
aI1
aI4
aI3
aI15
aI13
aa(lp349
V0020901037
p350
aVMAR 21, 2010
p351
aVIND vs. OKC
p352
aVW
p353
aI25
aI8
aI13
aF0.615
aI0
aI0
aF0.0
aI4
aI5
aF0.8
aI4
aI4
aI8
aI3
aI0
aI1
aI2
aI4
aI20
aI20
aa(lp354
V0020901054
p355
aVMAR 23, 2010
p356
aVIND @ DET
p357
aVW
p358
aI30
aI2
aI6
aF0.333
aI0
aI0
aF0.0
aI1
aI6
aF0.167
aI2
aI3
aI5
aI0
aI0
aI2
aI3
aI4
aI5
aI1
aa(lp359
V0020901072
p360
aVMAR 26, 2010
p361
aVIND vs. UTA
p362
aVW
p363
aI37
aI5
aI11
aF0.455
aI0
aI0
aF0.0
aI4
aI5
aF0.8
aI2
aI2
aI4
aI6
aI0
aI5
aI3
aI2
aI14
aI21
aa(lp364
V0020901089
p365
aVMAR 28, 2010
p366
aVIND @ ATL
p367
aVL
p368
aI23
aI3
aI9
aF0.333
aI0
aI0
aF0.0
aI0
aI1
aF0.0
aI1
aI1
aI2
aI1
aI1
aI0
aI2
aI4
aI6
aI-7
aa(lp369
V0020901102
p370
aVMAR 30, 2010
p371
aVIND vs. SAC
p372
aVW
p373
aI30
aI5
aI12
aF0.417
aI0
aI0
aF0.0
aI0
aI0
aF0.0
aI1
aI5
aI6
aI4
aI1
aI3
aI1
aI4
aI10
aI11
aa(lp374
V0020901123
p375
aVAPR 02, 2010
p376
aVIND vs. MIA
p377
aVL
p378
aI19
aI1
aI8
aF0.125
aI0
aI0
aF0.0
aI1
aI2
aF0.5
aI2
aI2
aI4
aI1
aI0
aI1
aI1
aI6
aI3
aI-16
aa(lp379
V0020901143
p380
aVAPR 04, 2010
p381
aVIND vs. HOU
p382
aVW
p383
aI29
aI8
aI15
aF0.533
aI0
aI0
aF0.0
aI4
aI4
aF1.0
aI5
aI6
aI11
aI7
aI0
aI2
aI2
aI1
aI20
aI7
aa(lp384
V0020901158
p385
aVAPR 07, 2010
p386
aVIND vs. NYK
p387
aVW
p388
aI21
aI6
aI8
aF0.75
aI0
aI0
aF0.0
aI3
aI6
aF0.5
aI4
aI2
aI6
aI0
aI0
aI0
aI0
aI3
aI15
aI-4
aa(lp389
V0020901178
p390
aVAPR 09, 2010
p391
aVIND @ CLE
p392
aVW
p393
aI32
aI5
aI10
aF0.5
aI0
aI0
aF0.0
aI2
aI2
aF1.0
aI1
aI2
aI3
aI3
aI1
aI3
aI2
aI3
aI12
aI1
aa(lp394
V0020901188
p395
aVAPR 10, 2010
p396
aVIND vs. NJN
p397
aVW
p398
aI27
aI8
aI10
aF0.8
aI0
aI0
aF0.0
aI0
aI2
aF0.0
aI2
aI3
aI5
aI4
aI0
aI1
aI1
aI3
aI16
aI15
aa(lp399
V0020901202
p400
aVAPR 12, 2010
p401
aVIND vs. ORL
p402
aVL
p403
aI31
aI4
aI13
aF0.308
aI2
aI2
aF1.0
aI2
aI2
aF1.0
aI1
aI4
aI5
aI4
aI1
aI0
aI2
aI4
aI12
aI-19
aa(lp404
V0020901227
p405
aVAPR 14, 2010
p406
aVIND @ WAS
p407
aVL
p408
aI29
aI10
aI16
aF0.625
aI0
aI0
aF0.0
aI9
aI11
aF0.818
aI2
aI5
aI7
aI0
aI1
aI1
aI0
aI5
aI29
aI6
aasS'name'
p409
VRoy Hibbert
p410
sS'experience'
p411
I1
s.