(dp0
S'age'
p1
I21
sS'stats'
p2
(lp3
(lp4
V0020900764
p5
aVFEB 09, 2010
p6
aVMEM vs. ATL
p7
aVL
p8
aI19
aI2
aI3
aF0.667
aI0
aI0
aF0.0
aI0
aI0
aF0.0
aI1
aI3
aI4
aI0
aI0
aI0
aI1
aI1
aI4
aI-1
aa(lp9
V0020900785
p10
aVFEB 16, 2010
p11
aVMEM vs. PHX
p12
aVL
p13
aI18
aI0
aI5
aF0.0
aI0
aI0
aF0.0
aI0
aI0
aF0.0
aI2
aI4
aI6
aI1
aI0
aI0
aI1
aI2
aI0
aI-5
aa(lp14
V0020900793
p15
aVFEB 17, 2010
p16
aVMEM @ TOR
p17
aVW
p18
aI15
aI3
aI5
aF0.6
aI0
aI0
aF0.0
aI1
aI2
aF0.5
aI0
aI1
aI1
aI0
aI0
aI0
aI1
aI3
aI7
aI-22
aa(lp19
V0020900808
p20
aVFEB 19, 2010
p21
aVMEM vs. MIA
p22
aVL
p23
aI7
aI0
aI1
aF0.0
aI0
aI0
aF0.0
aI0
aI0
aF0.0
aI0
aI2
aI2
aI0
aI0
aI0
aI1
aI1
aI0
aI-10
aa(lp24
V0020900826
p25
aVFEB 21, 2010
p26
aVMEM @ NJN
p27
aVW
p28
aI3
aI0
aI1
aF0.0
aI0
aI0
aF0.0
aI0
aI0
aF0.0
aI0
aI0
aI0
aI0
aI0
aI1
aI1
aI1
aI0
aI-6
aa(lp29
V0020900841
p30
aVFEB 23, 2010
p31
aVMEM vs. LAL
p32
aVL
p33
aI9
aI1
aI4
aF0.25
aI0
aI0
aF0.0
aI0
aI0
aF0.0
aI1
aI2
aI3
aI1
aI1
aI0
aI0
aI0
aI2
aI1
aa(lp34
V0020900847
p35
aVFEB 24, 2010
p36
aVMEM @ WAS
p37
aVW
p38
aI9
aI2
aI5
aF0.4
aI0
aI0
aF0.0
aI0
aI0
aF0.0
aI2
aI3
aI5
aI0
aI1
aI0
aI0
aI1
aI4
aI9
aa(lp39
V0020900863
p40
aVFEB 26, 2010
p41
aVMEM vs. CHA
p42
aVL
p43
aI17
aI1
aI2
aF0.5
aI0
aI0
aF0.0
aI0
aI2
aF0.0
aI2
aI3
aI5
aI2
aI2
aI2
aI1
aI1
aI2
aI-1
aa(lp44
V0020900874
p45
aVFEB 27, 2010
p46
aVMEM @ NYK
p47
aVW
p48
aI8
aI0
aI2
aF0.0
aI0
aI0
aF0.0
aI0
aI0
aF0.0
aI0
aI2
aI2
aI0
aI0
aI0
aI0
aI1
aI0
aI-8
aa(lp49
V0020900890
p50
aVMAR 01, 2010
p51
aVMEM vs. POR
p52
aVL
p53
aI7
aI1
aI2
aF0.5
aI0
aI0
aF0.0
aI0
aI0
aF0.0
aI2
aI1
aI3
aI0
aI0
aI0
aI0
aI1
aI2
aI-2
aa(lp54
V0020900905
p55
aVMAR 03, 2010
p56
aVMEM @ NOH
p57
aVW
p58
aI6
aI1
aI2
aF0.5
aI0
aI0
aF0.0
aI1
aI2
aF0.5
aI0
aI0
aI0
aI0
aI0
aI0
aI0
aI0
aI3
aI1
aa(lp59
V0020900911
p60
aVMAR 04, 2010
p61
aVMEM @ CHI
p62
aVW
p63
aI11
aI2
aI2
aF1.0
aI0
aI0
aF0.0
aI0
aI0
aF0.0
aI1
aI0
aI1
aI2
aI0
aI0
aI0
aI5
aI4
aI0
aa(lp64
V0020900929
p65
aVMAR 06, 2010
p66
aVMEM vs. SAS
p67
aVL
p68
aI11
aI1
aI4
aF0.25
aI0
aI0
aF0.0
aI2
aI2
aF1.0
aI0
aI2
aI2
aI0
aI0
aI1
aI0
aI0
aI4
aI-9
aa(lp69
V0020900942
p70
aVMAR 08, 2010
p71
aVMEM vs. NJN
p72
aVW
p73
aI18
aI3
aI4
aF0.75
aI0
aI0
aF0.0
aI1
aI2
aF0.5
aI2
aI1
aI3
aI0
aI1
aI0
aI1
aI2
aI7
aI0
aa(lp74
V0020900954
p75
aVMAR 10, 2010
p76
aVMEM @ BOS
p77
aVW
p78
aI2
aI0
aI1
aF0.0
aI0
aI0
aF0.0
aI0
aI0
aF0.0
aI0
aI0
aI0
aI0
aI0
aI0
aI0
aI0
aI0
aI-6
aa(lp79
V0020900969
p80
aVMAR 12, 2010
p81
aVMEM vs. NYK
p82
aVW
p83
aI4
aI0
aI0
aF0.0
aI0
aI0
aF0.0
aI0
aI0
aF0.0
aI0
aI0
aI0
aI0
aI0
aI0
aI1
aI2
aI0
aI-1
aa(lp84
V0020900978
p85
aVMAR 13, 2010
p86
aVMEM vs. DEN
p87
aVL
p88
aI4
aI0
aI2
aF0.0
aI0
aI0
aF0.0
aI0
aI0
aF0.0
aI0
aI0
aI0
aI0
aI0
aI0
aI0
aI0
aI0
aI0
aa(lp89
V0020901001
p90
aVMAR 16, 2010
p91
aVMEM vs. CHI
p92
aVW
p93
aI9
aI0
aI1
aF0.0
aI0
aI0
aF0.0
aI0
aI0
aF0.0
aI1
aI0
aI1
aI2
aI0
aI0
aI0
aI2
aI0
aI-6
aa(lp94
V0020901012
p95
aVMAR 17, 2010
p96
aVMEM @ HOU
p97
aVL
p98
aI18
aI4
aI6
aF0.667
aI0
aI0
aF0.0
aI1
aI2
aF0.5
aI0
aI1
aI1
aI1
aI0
aI0
aI1
aI3
aI9
aI-7
aa(lp99
V0020901032
p100
aVMAR 20, 2010
p101
aVMEM vs. GSW
p102
aVW
p103
aI26
aI8
aI12
aF0.667
aI0
aI0
aF0.0
aI0
aI0
aF0.0
aI6
aI7
aI13
aI0
aI0
aI3
aI2
aI3
aI16
aI8
aa(lp104
V0020901051
p105
aVMAR 22, 2010
p106
aVMEM @ SAC
p107
aVW
p108
aI23
aI4
aI6
aF0.667
aI0
aI0
aF0.0
aI1
aI4
aF0.25
aI1
aI5
aI6
aI2
aI0
aI1
aI1
aI2
aI9
aI12
aa(lp109
V0020901067
p110
aVMAR 24, 2010
p111
aVMEM @ GSW
p112
aVL
p113
aI19
aI2
aI5
aF0.4
aI0
aI0
aF0.0
aI1
aI2
aF0.5
aI1
aI2
aI3
aI0
aI1
aI0
aI2
aI5
aI5
aI-20
aa(lp114
V0020901088
p115
aVMAR 28, 2010
p116
aVMEM @ MIL
p117
aVL
p118
aI8
aI1
aI1
aF1.0
aI0
aI0
aF0.0
aI0
aI0
aF0.0
aI1
aI2
aI3
aI0
aI0
aI1
aI0
aI2
aI2
aI2
aa(lp119
V0020901114
p120
aVMAR 31, 2010
p121
aVMEM vs. DAL
p122
aVL
p123
aI15
aI0
aI3
aF0.0
aI0
aI0
aF0.0
aI0
aI0
aF0.0
aI2
aI2
aI4
aI0
aI1
aI0
aI0
aI2
aI0
aI-8
aa(lp124
V0020901128
p125
aVAPR 02, 2010
p126
aVMEM vs. NOH
p127
aVW
p128
aI23
aI4
aI10
aF0.4
aI0
aI1
aF0.0
aI0
aI0
aF0.0
aI1
aI4
aI5
aI1
aI1
aI1
aI2
aI4
aI8
aI2
aa(lp129
V0020901144
p130
aVAPR 04, 2010
p131
aVMEM @ ORL
p132
aVL
p133
aI25
aI2
aI8
aF0.25
aI0
aI0
aF0.0
aI2
aI2
aF1.0
aI2
aI5
aI7
aI1
aI0
aI2
aI3
aI5
aI6
aI-13
aa(lp134
V0020901155
p135
aVAPR 06, 2010
p136
aVMEM vs. HOU
p137
aVL
p138
aI22
aI4
aI7
aF0.571
aI0
aI0
aF0.0
aI0
aI0
aF0.0
aI4
aI8
aI12
aI1
aI0
aI0
aI0
aI2
aI8
aI-1
aa(lp139
V0020901167
p140
aVAPR 07, 2010
p141
aVMEM @ DAL
p142
aVL
p143
aI14
aI1
aI2
aF0.5
aI0
aI0
aF0.0
aI3
aI4
aF0.75
aI0
aI1
aI1
aI0
aI0
aI0
aI2
aI3
aI5
aI-16
aa(lp144
V0020901185
p145
aVAPR 09, 2010
p146
aVMEM @ SAS
p147
aVW
p148
aI31
aI6
aI13
aF0.462
aI0
aI0
aF0.0
aI1
aI2
aF0.5
aI1
aI3
aI4
aI0
aI1
aI0
aI0
aI2
aI13
aI9
aa(lp149
V0020901190
p150
aVAPR 10, 2010
p151
aVMEM vs. PHI
p152
aVL
p153
aI23
aI6
aI12
aF0.5
aI0
aI0
aF0.0
aI2
aI2
aF1.0
aI0
aI2
aI2
aI0
aI3
aI0
aI1
aI1
aI14
aI-3
aa(lp154
V0020901209
p155
aVAPR 12, 2010
p156
aVMEM @ DEN
p157
aVL
p158
aI23
aI4
aI13
aF0.308
aI0
aI0
aF0.0
aI1
aI2
aF0.5
aI3
aI7
aI10
aI0
aI2
aI2
aI0
aI2
aI9
aI-3
aa(lp159
V0020901224
p160
aVAPR 14, 2010
p161
aVMEM @ OKC
p162
aVL
p163
aI8
aI0
aI2
aF0.0
aI0
aI0
aF0.0
aI0
aI0
aF0.0
aI1
aI0
aI1
aI1
aI0
aI0
aI0
aI1
aI0
aI-3
aasS'name'
p164
VDarrell Arthur
p165
sS'experience'
p166
I1
s.