(dp0
S'age'
p1
I23
sS'stats'
p2
(lp3
(lp4
V0020900020
p5
aVOCT 30, 2009
p6
aVMIL @ PHI
p7
aVL
p8
aI18
aI0
aI3
aF0.0
aI0
aI0
aF0.0
aI0
aI0
aF0.0
aI1
aI3
aI4
aI2
aI0
aI0
aI2
aI3
aI0
aI-12
aa(lp9
V0020900036
p10
aVOCT 31, 2009
p11
aVMIL vs. DET
p12
aVW
p13
aI28
aI3
aI6
aF0.5
aI0
aI0
aF0.0
aI1
aI2
aF0.5
aI3
aI5
aI8
aI0
aI0
aI0
aI2
aI3
aI7
aI15
aa(lp14
V0020900056
p15
aVNOV 03, 2009
p16
aVMIL @ CHI
p17
aVL
p18
aI27
aI2
aI6
aF0.333
aI0
aI2
aF0.0
aI0
aI0
aF0.0
aI0
aI1
aI1
aI2
aI1
aI0
aI1
aI2
aI4
aI-10
aa(lp19
V0020900078
p20
aVNOV 06, 2009
p21
aVMIL @ MIN
p22
aVW
p23
aI18
aI1
aI6
aF0.167
aI0
aI0
aF0.0
aI0
aI0
aF0.0
aI2
aI3
aI5
aI1
aI0
aI0
aI1
aI3
aI2
aI1
aa(lp24
V0020900089
p25
aVNOV 07, 2009
p26
aVMIL vs. NYK
p27
aVW
p28
aI26
aI1
aI6
aF0.167
aI0
aI0
aF0.0
aI0
aI0
aF0.0
aI3
aI2
aI5
aI0
aI1
aI0
aI1
aI3
aI2
aI-3
aa(lp29
V0020900115
p30
aVNOV 11, 2009
p31
aVMIL vs. DEN
p32
aVW
p33
aI35
aI3
aI8
aF0.375
aI0
aI0
aF0.0
aI4
aI4
aF1.0
aI4
aI5
aI9
aI1
aI2
aI1
aI1
aI4
aI10
aI3
aa(lp34
V0020900141
p35
aVNOV 14, 2009
p36
aVMIL vs. GSW
p37
aVW
p38
aI38
aI3
aI5
aF0.6
aI1
aI1
aF1.0
aI1
aI2
aF0.5
aI5
aI7
aI12
aI3
aI2
aI0
aI3
aI5
aI8
aI13
aa(lp39
V0020900149
p40
aVNOV 16, 2009
p41
aVMIL vs. DAL
p42
aVL
p43
aI42
aI5
aI11
aF0.455
aI1
aI1
aF1.0
aI2
aI3
aF0.667
aI3
aI3
aI6
aI3
aI0
aI1
aI1
aI3
aI13
aI7
aa(lp44
V0020900275
p45
aVDEC 04, 2009
p46
aVMIL @ DET
p47
aVL
p48
aI13
aI0
aI0
aF0.0
aI0
aI0
aF0.0
aI0
aI2
aF0.0
aI0
aI3
aI3
aI0
aI0
aI1
aI0
aI2
aI0
aI-12
aa(lp49
V0020900292
p50
aVDEC 06, 2009
p51
aVMIL vs. CLE
p52
aVL
p53
aI23
aI3
aI4
aF0.75
aI0
aI1
aF0.0
aI0
aI0
aF0.0
aI2
aI1
aI3
aI1
aI2
aI0
aI0
aI1
aI6
aI5
aa(lp54
V0020900302
p55
aVDEC 08, 2009
p56
aVMIL @ BOS
p57
aVL
p58
aI29
aI3
aI5
aF0.6
aI0
aI0
aF0.0
aI1
aI1
aF1.0
aI2
aI3
aI5
aI0
aI0
aI0
aI2
aI1
aI7
aI-13
aa(lp59
V0020900312
p60
aVDEC 09, 2009
p61
aVMIL vs. TOR
p62
aVW
p63
aI40
aI6
aI8
aF0.75
aI0
aI1
aF0.0
aI4
aI5
aF0.8
aI0
aI4
aI4
aI0
aI2
aI1
aI2
aI4
aI16
aI18
aa(lp64
V0020900335
p65
aVDEC 12, 2009
p66
aVMIL vs. POR
p67
aVW
p68
aI42
aI2
aI4
aF0.5
aI0
aI0
aF0.0
aI0
aI0
aF0.0
aI2
aI2
aI4
aI2
aI0
aI1
aI1
aI6
aI4
aI1
aa(lp69
V0020900363
p70
aVDEC 16, 2009
p71
aVMIL vs. LAL
p72
aVL
p73
aI26
aI2
aI7
aF0.286
aI1
aI2
aF0.5
aI0
aI0
aF0.0
aI1
aI3
aI4
aI4
aI1
aI0
aI1
aI4
aI5
aI-3
aa(lp74
V0020900376
p75
aVDEC 18, 2009
p76
aVMIL @ CLE
p77
aVL
p78
aI14
aI1
aI2
aF0.5
aI0
aI0
aF0.0
aI0
aI0
aF0.0
aI0
aI0
aI0
aI0
aI0
aI0
aI2
aI0
aI2
aI1
aa(lp79
V0020900390
p80
aVDEC 19, 2009
p81
aVMIL vs. SAC
p82
aVL
p83
aI36
aI5
aI5
aF1.0
aI1
aI1
aF1.0
aI3
aI4
aF0.75
aI2
aI2
aI4
aI0
aI1
aI1
aI2
aI3
aI14
aI7
aa(lp84
V0020900400
p85
aVDEC 21, 2009
p86
aVMIL @ IND
p87
aVW
p88
aI22
aI2
aI4
aF0.5
aI0
aI1
aF0.0
aI2
aI4
aF0.5
aI2
aI2
aI4
aI2
aI0
aI1
aI0
aI2
aI6
aI14
aa(lp89
V0020900418
p90
aVDEC 23, 2009
p91
aVMIL vs. WAS
p92
aVL
p93
aI34
aI3
aI6
aF0.5
aI0
aI0
aF0.0
aI5
aI8
aF0.625
aI3
aI2
aI5
aI3
aI1
aI1
aI0
aI4
aI11
aI-6
aa(lp94
V0020900435
p95
aVDEC 26, 2009
p96
aVMIL vs. SAS
p97
aVL
p98
aI11
aI0
aI1
aF0.0
aI0
aI0
aF0.0
aI0
aI2
aF0.0
aI1
aI2
aI3
aI1
aI0
aI0
aI1
aI1
aI0
aI3
aa(lp99
V0020900445
p100
aVDEC 28, 2009
p101
aVMIL @ CHA
p102
aVL
p103
aI36
aI3
aI6
aF0.5
aI0
aI0
aF0.0
aI3
aI4
aF0.75
aI2
aI8
aI10
aI1
aI2
aI1
aI3
aI3
aI9
aI-7
aa(lp104
V0020900461
p105
aVDEC 30, 2009
p106
aVMIL @ ORL
p107
aVL
p108
aI31
aI3
aI7
aF0.429
aI0
aI0
aF0.0
aI2
aI2
aF1.0
aI3
aI2
aI5
aI1
aI1
aI0
aI2
aI2
aI8
aI-15
aa(lp109
V0020900484
p110
aVJAN 02, 2010
p111
aVMIL vs. OKC
p112
aVW
p113
aI38
aI2
aI8
aF0.25
aI1
aI1
aF1.0
aI1
aI2
aF0.5
aI1
aI1
aI2
aI0
aI1
aI2
aI1
aI3
aI6
aI4
aa(lp114
V0020900501
p115
aVJAN 05, 2010
p116
aVMIL @ NJN
p117
aVW
p118
aI19
aI2
aI5
aF0.4
aI0
aI0
aF0.0
aI3
aI4
aF0.75
aI3
aI6
aI9
aI3
aI0
aI1
aI0
aI0
aI7
aI0
aa(lp119
V0020900524
p120
aVJAN 08, 2010
p121
aVMIL vs. CHI
p122
aVW
p123
aI22
aI0
aI3
aF0.0
aI0
aI0
aF0.0
aI1
aI2
aF0.5
aI1
aI1
aI2
aI2
aI1
aI0
aI2
aI1
aI1
aI8
aa(lp124
V0020900543
p125
aVJAN 10, 2010
p126
aVMIL @ LAL
p127
aVL
p128
aI17
aI3
aI5
aF0.6
aI0
aI0
aF0.0
aI2
aI2
aF1.0
aI3
aI1
aI4
aI1
aI1
aI0
aI1
aI2
aI8
aI-6
aa(lp129
V0020900550
p130
aVJAN 11, 2010
p131
aVMIL @ PHX
p132
aVL
p133
aI17
aI3
aI4
aF0.75
aI0
aI0
aF0.0
aI0
aI1
aF0.0
aI2
aI3
aI5
aI0
aI1
aI0
aI2
aI3
aI6
aI-1
aa(lp134
V0020900567
p135
aVJAN 13, 2010
p136
aVMIL @ POR
p137
aVL
p138
aI16
aI0
aI1
aF0.0
aI0
aI1
aF0.0
aI1
aI2
aF0.5
aI0
aI2
aI2
aI1
aI0
aI0
aI0
aI2
aI1
aI-21
aa(lp139
V0020900581
p140
aVJAN 15, 2010
p141
aVMIL @ GSW
p142
aVW
p143
aI38
aI5
aI7
aF0.714
aI0
aI1
aF0.0
aI3
aI4
aF0.75
aI1
aI8
aI9
aI1
aI1
aI2
aI0
aI3
aI13
aI9
aa(lp144
V0020900590
p145
aVJAN 16, 2010
p146
aVMIL @ UTA
p147
aVL
p148
aI11
aI1
aI3
aF0.333
aI0
aI0
aF0.0
aI0
aI0
aF0.0
aI0
aI0
aI0
aI0
aI0
aI0
aI0
aI4
aI2
aI-5
aa(lp149
V0020900598
p150
aVJAN 18, 2010
p151
aVMIL @ HOU
p152
aVL
p153
aI44
aI7
aI11
aF0.636
aI1
aI1
aF1.0
aI0
aI0
aF0.0
aI3
aI5
aI8
aI1
aI1
aI0
aI2
aI5
aI15
aI3
aa(lp154
V0020900614
p155
aVJAN 20, 2010
p156
aVMIL vs. TOR
p157
aVW
p158
aI31
aI4
aI6
aF0.667
aI0
aI0
aF0.0
aI0
aI0
aF0.0
aI2
aI3
aI5
aI4
aI0
aI1
aI1
aI4
aI8
aI9
aa(lp159
V0020900625
p160
aVJAN 22, 2010
p161
aVMIL @ TOR
p162
aVL
p163
aI22
aI2
aI4
aF0.5
aI0
aI0
aF0.0
aI2
aI2
aF1.0
aI2
aI1
aI3
aI2
aI1
aI0
aI2
aI3
aI6
aI-9
aa(lp164
V0020900642
p165
aVJAN 23, 2010
p166
aVMIL vs. MIN
p167
aVW
p168
aI11
aI0
aI0
aF0.0
aI0
aI0
aF0.0
aI1
aI2
aF0.5
aI1
aI2
aI3
aI0
aI0
aI1
aI1
aI4
aI1
aI2
aa(lp169
V0020900660
p170
aVJAN 26, 2010
p171
aVMIL @ DAL
p172
aVL
p173
aI30
aI1
aI5
aF0.2
aI0
aI0
aF0.0
aI1
aI2
aF0.5
aI3
aI1
aI4
aI0
aI2
aI2
aI1
aI2
aI3
aI0
aa(lp174
V0020900668
p175
aVJAN 27, 2010
p176
aVMIL vs. PHI
p177
aVW
p178
aI38
aI1
aI6
aF0.167
aI0
aI1
aF0.0
aI0
aI2
aF0.0
aI4
aI4
aI8
aI0
aI4
aI1
aI1
aI1
aI2
aI6
aa(lp179
V0020900693
p180
aVJAN 30, 2010
p181
aVMIL vs. MIA
p182
aVW
p183
aI7
aI0
aI2
aF0.0
aI0
aI0
aF0.0
aI0
aI0
aF0.0
aI0
aI2
aI2
aI0
aI0
aI0
aI1
aI1
aI0
aI-3
aa(lp184
V0020900705
p185
aVFEB 01, 2010
p186
aVMIL @ MIA
p187
aVW
p188
aI18
aI1
aI2
aF0.5
aI0
aI0
aF0.0
aI2
aI2
aF1.0
aI3
aI2
aI5
aI1
aI0
aI1
aI2
aI3
aI4
aI-2
aa(lp189
V0020900713
p190
aVFEB 02, 2010
p191
aVMIL @ ORL
p192
aVL
p193
aI20
aI1
aI4
aF0.25
aI0
aI0
aF0.0
aI0
aI0
aF0.0
aI4
aI2
aI6
aI1
aI1
aI1
aI0
aI1
aI2
aI-5
aa(lp194
V0020900734
p195
aVFEB 05, 2010
p196
aVMIL @ NYK
p197
aVW
p198
aI34
aI6
aI7
aF0.857
aI0
aI0
aF0.0
aI4
aI5
aF0.8
aI4
aI2
aI6
aI0
aI2
aI2
aI2
aI4
aI16
aI12
aa(lp199
V0020900748
p200
aVFEB 06, 2010
p201
aVMIL vs. IND
p202
aVW
p203
aI43
aI7
aI9
aF0.778
aI0
aI1
aF0.0
aI4
aI4
aF1.0
aI3
aI8
aI11
aI1
aI1
aI1
aI0
aI1
aI18
aI6
aa(lp204
V0020900765
p205
aVFEB 09, 2010
p206
aVMIL vs. DET
p207
aVL
p208
aI38
aI4
aI8
aF0.5
aI0
aI0
aF0.0
aI1
aI2
aF0.5
aI6
aI5
aI11
aI2
aI1
aI1
aI1
aI2
aI9
aI2
aa(lp209
V0020900772
p210
aVFEB 10, 2010
p211
aVMIL @ NJN
p212
aVW
p213
aI22
aI4
aI4
aF1.0
aI0
aI0
aF0.0
aI0
aI1
aF0.0
aI6
aI6
aI12
aI1
aI1
aI0
aI0
aI2
aI8
aI0
aa(lp214
V0020900797
p215
aVFEB 17, 2010
p216
aVMIL vs. HOU
p217
aVL
p218
aI27
aI6
aI11
aF0.545
aI0
aI0
aF0.0
aI6
aI8
aF0.75
aI5
aI3
aI8
aI1
aI1
aI1
aI1
aI5
aI18
aI-2
aa(lp219
V0020900807
p220
aVFEB 19, 2010
p221
aVMIL @ DET
p222
aVW
p223
aI16
aI0
aI2
aF0.0
aI0
aI0
aF0.0
aI0
aI0
aF0.0
aI2
aI2
aI4
aI1
aI0
aI1
aI2
aI2
aI0
aI-11
aa(lp224
V0020900821
p225
aVFEB 20, 2010
p226
aVMIL vs. CHA
p227
aVW
p228
aI40
aI6
aI7
aF0.857
aI0
aI0
aF0.0
aI0
aI0
aF0.0
aI2
aI5
aI7
aI1
aI1
aI2
aI2
aI4
aI12
aI5
aa(lp229
V0020900833
p230
aVFEB 22, 2010
p231
aVMIL @ NYK
p232
aVW
p233
aI33
aI5
aI6
aF0.833
aI0
aI0
aF0.0
aI1
aI2
aF0.5
aI3
aI8
aI11
aI4
aI1
aI0
aI0
aI3
aI11
aI14
aa(lp234
V0020900849
p235
aVFEB 24, 2010
p236
aVMIL vs. NOH
p237
aVW
p238
aI24
aI4
aI7
aF0.571
aI0
aI0
aF0.0
aI2
aI3
aF0.667
aI4
aI6
aI10
aI0
aI0
aI0
aI0
aI3
aI10
aI13
aa(lp239
V0020900856
p240
aVFEB 25, 2010
p241
aVMIL @ IND
p242
aVW
p243
aI24
aI3
aI7
aF0.429
aI0
aI0
aF0.0
aI0
aI0
aF0.0
aI4
aI5
aI9
aI0
aI1
aI1
aI0
aI4
aI6
aI-4
aa(lp244
V0020900872
p245
aVFEB 27, 2010
p246
aVMIL @ MIA
p247
aVW
p248
aI24
aI3
aI5
aF0.6
aI0
aI0
aF0.0
aI3
aI3
aF1.0
aI3
aI4
aI7
aI0
aI0
aI1
aI1
aI0
aI9
aI18
aa(lp249
V0020900880
p250
aVFEB 28, 2010
p251
aVMIL @ ATL
p252
aVL
p253
aI13
aI0
aI2
aF0.0
aI0
aI0
aF0.0
aI0
aI0
aF0.0
aI0
aI0
aI0
aI1
aI0
aI0
aI2
aI2
aI0
aI-20
aa(lp254
V0020900904
p255
aVMAR 03, 2010
p256
aVMIL vs. WAS
p257
aVW
p258
aI21
aI1
aI3
aF0.333
aI0
aI0
aF0.0
aI2
aI2
aF1.0
aI1
aI0
aI1
aI0
aI1
aI1
aI3
aI2
aI4
aI0
aa(lp259
V0020900918
p260
aVMAR 05, 2010
p261
aVMIL @ WAS
p262
aVW
p263
aI19
aI3
aI4
aF0.75
aI0
aI0
aF0.0
aI0
aI0
aF0.0
aI3
aI2
aI5
aI2
aI1
aI0
aI1
aI2
aI6
aI14
aa(lp264
V0020900931
p265
aVMAR 06, 2010
p266
aVMIL vs. CLE
p267
aVW
p268
aI42
aI5
aI9
aF0.556
aI0
aI0
aF0.0
aI0
aI0
aF0.0
aI4
aI7
aI11
aI1
aI4
aI1
aI2
aI3
aI10
aI13
aa(lp269
V0020900950
p270
aVMAR 09, 2010
p271
aVMIL vs. BOS
p272
aVW
p273
aI25
aI0
aI4
aF0.0
aI0
aI0
aF0.0
aI2
aI2
aF1.0
aI1
aI3
aI4
aI1
aI0
aI1
aI1
aI0
aI2
aI6
aa(lp274
V0020900973
p275
aVMAR 12, 2010
p276
aVMIL vs. UTA
p277
aVW
p278
aI24
aI2
aI4
aF0.5
aI0
aI0
aF0.0
aI0
aI0
aF0.0
aI2
aI4
aI6
aI0
aI1
aI0
aI0
aI3
aI4
aI8
aa(lp279
V0020900983
p280
aVMAR 14, 2010
p281
aVMIL vs. IND
p282
aVW
p283
aI23
aI4
aI7
aF0.571
aI0
aI0
aF0.0
aI2
aI3
aF0.667
aI3
aI3
aI6
aI0
aI0
aI0
aI1
aI3
aI10
aI0
aa(lp284
V0020901015
p285
aVMAR 17, 2010
p286
aVMIL @ LAC
p287
aVL
p288
aI27
aI2
aI6
aF0.333
aI0
aI0
aF0.0
aI2
aI2
aF1.0
aI5
aI3
aI8
aI1
aI0
aI1
aI0
aI1
aI6
aI-20
aa(lp289
V0020901027
p290
aVMAR 19, 2010
p291
aVMIL @ SAC
p292
aVW
p293
aI23
aI2
aI4
aF0.5
aI0
aI0
aF0.0
aI0
aI0
aF0.0
aI1
aI4
aI5
aI0
aI3
aI1
aI1
aI3
aI4
aI0
aa(lp294
V0020901034
p295
aVMAR 20, 2010
p296
aVMIL @ DEN
p297
aVW
p298
aI36
aI3
aI7
aF0.429
aI0
aI0
aF0.0
aI6
aI6
aF1.0
aI1
aI5
aI6
aI2
aI0
aI0
aI0
aI2
aI12
aI12
aa(lp299
V0020901046
p300
aVMAR 22, 2010
p301
aVMIL vs. ATL
p302
aVW
p303
aI23
aI1
aI4
aF0.25
aI0
aI0
aF0.0
aI0
aI0
aF0.0
aI2
aI1
aI3
aI1
aI0
aI0
aI0
aI1
aI2
aI-4
aa(lp304
V0020901063
p305
aVMAR 24, 2010
p306
aVMIL vs. PHI
p307
aVL
p308
aI15
aI2
aI3
aF0.667
aI0
aI0
aF0.0
aI1
aI2
aF0.5
aI3
aI2
aI5
aI0
aI3
aI0
aI0
aI1
aI5
aI-15
aa(lp309
V0020901079
p310
aVMAR 26, 2010
p311
aVMIL vs. MIA
p312
aVL
p313
aI38
aI2
aI11
aF0.182
aI0
aI0
aF0.0
aI1
aI2
aF0.5
aI8
aI3
aI11
aI2
aI1
aI0
aI0
aI2
aI5
aI-9
aa(lp314
V0020901088
p315
aVMAR 28, 2010
p316
aVMIL vs. MEM
p317
aVW
p318
aI11
aI0
aI2
aF0.0
aI0
aI0
aF0.0
aI1
aI2
aF0.5
aI2
aI2
aI4
aI0
aI0
aI1
aI1
aI3
aI1
aI3
aa(lp319
V0020901105
p320
aVMAR 30, 2010
p321
aVMIL vs. LAC
p322
aVW
p323
aI22
aI3
aI6
aF0.5
aI0
aI0
aF0.0
aI2
aI2
aF1.0
aI4
aI1
aI5
aI2
aI1
aI0
aI1
aI2
aI8
aI8
aa(lp324
V0020901109
p325
aVMAR 31, 2010
p326
aVMIL @ CLE
p327
aVL
p328
aI20
aI2
aI3
aF0.667
aI0
aI0
aF0.0
aI0
aI0
aF0.0
aI0
aI4
aI4
aI1
aI1
aI0
aI0
aI4
aI4
aI-4
aa(lp329
V0020901122
p330
aVAPR 02, 2010
p331
aVMIL @ CHA
p332
aVL
p333
aI31
aI1
aI2
aF0.5
aI0
aI0
aF0.0
aI2
aI2
aF1.0
aI1
aI3
aI4
aI2
aI2
aI1
aI1
aI3
aI4
aI-3
aa(lp334
V0020901138
p335
aVAPR 03, 2010
p336
aVMIL vs. PHX
p337
aVW
p338
aI21
aI0
aI0
aF0.0
aI0
aI0
aF0.0
aI0
aI0
aF0.0
aI4
aI2
aI6
aI0
aI0
aI0
aI1
aI5
aI0
aI-4
aa(lp339
V0020901154
p340
aVAPR 06, 2010
p341
aVMIL @ CHI
p342
aVW
p343
aI16
aI0
aI2
aF0.0
aI0
aI0
aF0.0
aI0
aI0
aF0.0
aI1
aI3
aI4
aI0
aI2
aI0
aI0
aI0
aI0
aI1
aa(lp344
V0020901162
p345
aVAPR 07, 2010
p346
aVMIL vs. NJN
p347
aVW
p348
aI18
aI2
aI4
aF0.5
aI0
aI0
aF0.0
aI2
aI2
aF1.0
aI1
aI2
aI3
aI3
aI1
aI0
aI0
aI2
aI6
aI6
aa(lp349
V0020901175
p350
aVAPR 09, 2010
p351
aVMIL @ PHI
p352
aVW
p353
aI29
aI5
aI9
aF0.556
aI0
aI0
aF0.0
aI3
aI3
aF1.0
aI2
aI7
aI9
aI1
aI0
aI0
aI1
aI1
aI13
aI3
aa(lp354
V0020901191
p355
aVAPR 10, 2010
p356
aVMIL vs. BOS
p357
aVL
p358
aI15
aI1
aI4
aF0.25
aI0
aI0
aF0.0
aI0
aI0
aF0.0
aI1
aI3
aI4
aI2
aI0
aI1
aI0
aI5
aI2
aI-3
aa(lp359
V0020901207
p360
aVAPR 12, 2010
p361
aVMIL vs. ATL
p362
aVL
p363
aI19
aI1
aI5
aF0.2
aI0
aI0
aF0.0
aI0
aI0
aF0.0
aI3
aI3
aI6
aI1
aI0
aI0
aI0
aI0
aI2
aI-8
aa(lp364
V0020901218
p365
aVAPR 14, 2010
p366
aVMIL @ BOS
p367
aVW
p368
aI22
aI3
aI5
aF0.6
aI0
aI1
aF0.0
aI1
aI5
aF0.2
aI2
aI1
aI3
aI3
aI0
aI0
aI0
aI0
aI7
aI-10
aasS'name'
p369
VLuc Mbah a Moute
p370
sS'experience'
p371
I1
s.