(dp0
S'age'
p1
I22
sS'stats'
p2
(lp3
(lp4
V0020901208
p5
aVAPR 12, 2010
p6
aVSAS vs. MIN
p7
aVW
p8
aI15
aI5
aI8
aF0.625
aI1
aI3
aF0.333
aI3
aI6
aF0.5
aI1
aI1
aI2
aI2
aI1
aI0
aI2
aI0
aI14
aI-2
aa(lp9
V0020901192
p10
aVAPR 10, 2010
p11
aVSAS @ DEN
p12
aVW
p13
aI5
aI0
aI1
aF0.0
aI0
aI0
aF0.0
aI0
aI0
aF0.0
aI0
aI0
aI0
aI0
aI0
aI0
aI0
aI0
aI0
aI-3
aa(lp14
V0020901185
p15
aVAPR 09, 2010
p16
aVSAS vs. MEM
p17
aVL
p18
aI4
aI0
aI0
aF0.0
aI0
aI0
aF0.0
aI0
aI0
aF0.0
aI0
aI0
aI0
aI0
aI0
aI0
aI0
aI0
aI0
aI-5
aa(lp19
V0020901170
p20
aVAPR 07, 2010
p21
aVSAS @ PHX
p22
aVL
p23
aI6
aI0
aI2
aF0.0
aI0
aI1
aF0.0
aI4
aI4
aF1.0
aI1
aI0
aI1
aI0
aI0
aI0
aI0
aI0
aI4
aI7
aa(lp24
V0020901157
p25
aVAPR 06, 2010
p26
aVSAS @ SAC
p27
aVW
p28
aI2
aI0
aI1
aF0.0
aI0
aI0
aF0.0
aI2
aI2
aF1.0
aI0
aI0
aI0
aI0
aI0
aI1
aI0
aI0
aI2
aI-1
aa(lp29
V0020901142
p30
aVAPR 04, 2010
p31
aVSAS @ LAL
p32
aVW
p33
aI8
aI1
aI3
aF0.333
aI0
aI1
aF0.0
aI0
aI1
aF0.0
aI1
aI1
aI2
aI0
aI0
aI1
aI1
aI0
aI2
aI0
aa(lp34
V0020901129
p35
aVAPR 02, 2010
p36
aVSAS vs. ORL
p37
aVW
p38
aI1
aI0
aI0
aF0.0
aI0
aI0
aF0.0
aI0
aI0
aF0.0
aI0
aI0
aI0
aI0
aI0
aI0
aI0
aI0
aI0
aI0
aa(lp39
V0020901117
p40
aVMAR 31, 2010
p41
aVSAS vs. HOU
p42
aVW
p43
aI23
aI2
aI6
aF0.333
aI0
aI1
aF0.0
aI5
aI5
aF1.0
aI0
aI3
aI3
aI0
aI0
aI0
aI0
aI2
aI9
aI9
aa(lp44
V0020901098
p45
aVMAR 29, 2010
p46
aVSAS @ NJN
p47
aVL
p48
aI26
aI2
aI4
aF0.5
aI0
aI0
aF0.0
aI0
aI0
aF0.0
aI2
aI3
aI5
aI0
aI0
aI0
aI1
aI3
aI4
aI-6
aa(lp49
V0020901095
p50
aVMAR 28, 2010
p51
aVSAS @ BOS
p52
aVW
p53
aI3
aI0
aI1
aF0.0
aI0
aI0
aF0.0
aI0
aI0
aF0.0
aI0
aI1
aI1
aI1
aI1
aI0
aI0
aI1
aI0
aI-2
aa(lp54
V0020901080
p55
aVMAR 26, 2010
p56
aVSAS vs. CLE
p57
aVW
p58
aI4
aI1
aI2
aF0.5
aI0
aI0
aF0.0
aI0
aI0
aF0.0
aI0
aI0
aI0
aI0
aI0
aI0
aI0
aI4
aI2
aI-10
aa(lp59
V0020901066
p60
aVMAR 24, 2010
p61
aVSAS vs. LAL
p62
aVL
p63
aI1
aI0
aI0
aF0.0
aI0
aI0
aF0.0
aI0
aI0
aF0.0
aI0
aI0
aI0
aI0
aI0
aI0
aI0
aI0
aI0
aI2
aa(lp64
V0020901049
p65
aVMAR 22, 2010
p66
aVSAS @ OKC
p67
aVW
p68
aI7
aI0
aI1
aF0.0
aI0
aI1
aF0.0
aI0
aI0
aF0.0
aI1
aI1
aI2
aI0
aI0
aI0
aI0
aI0
aI0
aI4
aa(lp69
V0020901038
p70
aVMAR 21, 2010
p71
aVSAS @ ATL
p72
aVL
p73
aI3
aI0
aI0
aF0.0
aI0
aI0
aF0.0
aI0
aI0
aF0.0
aI0
aI0
aI0
aI0
aI0
aI0
aI0
aI0
aI0
aI-8
aa(lp74
V0020901024
p75
aVMAR 19, 2010
p76
aVSAS vs. GSW
p77
aVW
p78
aI29
aI7
aI9
aF0.778
aI0
aI1
aF0.0
aI2
aI4
aF0.5
aI1
aI3
aI4
aI2
aI0
aI1
aI0
aI2
aI16
aI20
aa(lp79
V0020901010
p80
aVMAR 17, 2010
p81
aVSAS @ ORL
p82
aVL
p83
aI25
aI3
aI8
aF0.375
aI1
aI2
aF0.5
aI0
aI0
aF0.0
aI0
aI2
aI2
aI2
aI1
aI1
aI0
aI3
aI7
aI-16
aa(lp84
V0020900999
p85
aVMAR 16, 2010
p86
aVSAS @ MIA
p87
aVW
p88
aI2
aI0
aI0
aF0.0
aI0
aI0
aF0.0
aI0
aI0
aF0.0
aI0
aI0
aI0
aI0
aI0
aI0
aI0
aI0
aI0
aI-4
aa(lp89
V0020900981
p90
aVMAR 13, 2010
p91
aVSAS vs. LAC
p92
aVW
p93
aI28
aI6
aI8
aF0.75
aI0
aI0
aF0.0
aI0
aI0
aF0.0
aI0
aI2
aI2
aI0
aI0
aI0
aI0
aI2
aI12
aI19
aa(lp94
V0020900970
p95
aVMAR 12, 2010
p96
aVSAS @ MIN
p97
aVW
p98
aI9
aI1
aI1
aF1.0
aI0
aI0
aF0.0
aI1
aI2
aF0.5
aI0
aI3
aI3
aI0
aI0
aI0
aI2
aI3
aI3
aI-9
aa(lp99
V0020900960
p100
aVMAR 10, 2010
p101
aVSAS vs. NYK
p102
aVW
p103
aI12
aI2
aI2
aF1.0
aI0
aI0
aF0.0
aI0
aI0
aF0.0
aI1
aI2
aI3
aI0
aI0
aI1
aI0
aI1
aI4
aI3
aa(lp104
V0020900940
p105
aVMAR 08, 2010
p106
aVSAS @ CLE
p107
aVL
p108
aI6
aI1
aI2
aF0.5
aI0
aI0
aF0.0
aI0
aI0
aF0.0
aI1
aI2
aI3
aI0
aI0
aI0
aI1
aI2
aI2
aI0
aa(lp109
V0020900929
p110
aVMAR 06, 2010
p111
aVSAS @ MEM
p112
aVW
p113
aI1
aI0
aI0
aF0.0
aI0
aI0
aF0.0
aI0
aI0
aF0.0
aI0
aI0
aI0
aI0
aI0
aI0
aI0
aI0
aI0
aI0
aa(lp114
V0020900923
p115
aVMAR 05, 2010
p116
aVSAS vs. NOH
p117
aVW
p118
aI1
aI0
aI0
aF0.0
aI0
aI0
aF0.0
aI0
aI0
aF0.0
aI0
aI0
aI0
aI0
aI0
aI0
aI0
aI0
aI0
aI0
aa(lp119
V0020900891
p120
aVMAR 01, 2010
p121
aVSAS @ NOH
p122
aVW
p123
aI2
aI0
aI0
aF0.0
aI0
aI0
aF0.0
aI0
aI0
aF0.0
aI0
aI0
aI0
aI0
aI0
aI0
aI0
aI0
aI0
aI-1
aa(lp124
V0020900878
p125
aVFEB 28, 2010
p126
aVSAS vs. PHX
p127
aVW
p128
aI1
aI0
aI0
aF0.0
aI0
aI0
aF0.0
aI0
aI0
aF0.0
aI0
aI0
aI0
aI0
aI0
aI0
aI0
aI0
aI0
aI-9
aa(lp129
V0020900866
p130
aVFEB 26, 2010
p131
aVSAS @ HOU
p132
aVL
p133
aI18
aI4
aI6
aF0.667
aI0
aI0
aF0.0
aI0
aI2
aF0.0
aI3
aI2
aI5
aI1
aI0
aI1
aI0
aI1
aI8
aI18
aa(lp134
V0020900513
p135
aVJAN 06, 2010
p136
aVSAS vs. DET
p137
aVW
p138
aI3
aI0
aI0
aF0.0
aI0
aI0
aF0.0
aI0
aI0
aF0.0
aI0
aI1
aI1
aI2
aI0
aI1
aI0
aI0
aI0
aI2
aa(lp139
V0020900480
p140
aVJAN 02, 2010
p141
aVSAS @ WAS
p142
aVW
p143
aI0
aI0
aI0
aF0.0
aI0
aI0
aF0.0
aI0
aI0
aF0.0
aI0
aI0
aI0
aI0
aI0
aI0
aI0
aI0
aI0
aI0
aa(lp144
V0020900471
p145
aVDEC 31, 2009
p146
aVSAS vs. MIA
p147
aVW
p148
aI9
aI0
aI1
aF0.0
aI0
aI0
aF0.0
aI0
aI0
aF0.0
aI1
aI1
aI2
aI0
aI1
aI0
aI2
aI0
aI0
aI-4
aa(lp149
V0020900457
p150
aVDEC 29, 2009
p151
aVSAS vs. MIN
p152
aVW
p153
aI5
aI1
aI3
aF0.333
aI0
aI1
aF0.0
aI0
aI0
aF0.0
aI0
aI0
aI0
aI0
aI0
aI0
aI0
aI0
aI2
aI2
aa(lp154
V0020900435
p155
aVDEC 26, 2009
p156
aVSAS @ MIL
p157
aVW
p158
aI4
aI1
aI1
aF1.0
aI0
aI0
aF0.0
aI0
aI0
aF0.0
aI0
aI0
aI0
aI0
aI0
aI1
aI0
aI1
aI2
aI-4
aa(lp159
V0020900403
p160
aVDEC 21, 2009
p161
aVSAS vs. LAC
p162
aVW
p163
aI3
aI0
aI1
aF0.0
aI0
aI0
aF0.0
aI0
aI0
aF0.0
aI0
aI0
aI0
aI1
aI0
aI0
aI0
aI0
aI0
aI-3
aa(lp164
V0020900391
p165
aVDEC 19, 2009
p166
aVSAS vs. IND
p167
aVW
p168
aI1
aI0
aI0
aF0.0
aI0
aI0
aF0.0
aI0
aI0
aF0.0
aI0
aI0
aI0
aI0
aI0
aI0
aI0
aI1
aI0
aI2
aa(lp169
V0020900369
p170
aVDEC 16, 2009
p171
aVSAS @ GSW
p172
aVW
p173
aI1
aI0
aI0
aF0.0
aI0
aI0
aF0.0
aI0
aI0
aF0.0
aI0
aI0
aI0
aI0
aI0
aI0
aI0
aI0
aI0
aI1
aa(lp174
V0020900356
p175
aVDEC 15, 2009
p176
aVSAS @ PHX
p177
aVL
p178
aI3
aI0
aI0
aF0.0
aI0
aI0
aF0.0
aI0
aI0
aF0.0
aI0
aI0
aI0
aI1
aI0
aI0
aI0
aI0
aI0
aI1
aa(lp179
V0020900343
p180
aVDEC 13, 2009
p181
aVSAS @ LAC
p182
aVW
p183
aI7
aI0
aI0
aF0.0
aI0
aI0
aF0.0
aI0
aI2
aF0.0
aI0
aI3
aI3
aI1
aI0
aI1
aI0
aI0
aI0
aI-3
aa(lp184
V0020900328
p185
aVDEC 11, 2009
p186
aVSAS vs. CHA
p187
aVW
p188
aI2
aI0
aI0
aF0.0
aI0
aI0
aF0.0
aI0
aI0
aF0.0
aI0
aI1
aI1
aI1
aI0
aI0
aI0
aI0
aI0
aI3
aa(lp189
V0020900315
p190
aVDEC 09, 2009
p191
aVSAS vs. SAC
p192
aVW
p193
aI0
aI0
aI0
aF0.0
aI0
aI0
aF0.0
aI0
aI0
aF0.0
aI0
aI0
aI0
aI0
aI0
aI0
aI0
aI0
aI0
aI0
aa(lp194
V0020900299
p195
aVDEC 07, 2009
p196
aVSAS @ UTA
p197
aVL
p198
aI1
aI0
aI0
aF0.0
aI0
aI0
aF0.0
aI0
aI0
aF0.0
aI0
aI0
aI0
aI0
aI0
aI0
aI0
aI0
aI0
aI1
aa(lp199
V0020900245
p200
aVNOV 29, 2009
p201
aVSAS vs. PHI
p202
aVW
p203
aI3
aI1
aI1
aF1.0
aI0
aI0
aF0.0
aI0
aI0
aF0.0
aI0
aI1
aI1
aI0
aI0
aI0
aI0
aI0
aI2
aI6
aa(lp204
V0020900229
p205
aVNOV 27, 2009
p206
aVSAS @ HOU
p207
aVW
p208
aI0
aI0
aI0
aF0.0
aI0
aI0
aF0.0
aI0
aI0
aF0.0
aI0
aI0
aI0
aI0
aI0
aI0
aI0
aI0
aI0
aI0
aa(lp209
V0020900216
p210
aVNOV 25, 2009
p211
aVSAS vs. GSW
p212
aVW
p213
aI4
aI0
aI1
aF0.0
aI0
aI0
aF0.0
aI0
aI0
aF0.0
aI0
aI0
aI0
aI0
aI0
aI0
aI0
aI0
aI0
aI-8
aa(lp214
V0020900199
p215
aVNOV 23, 2009
p216
aVSAS vs. MIL
p217
aVW
p218
aI3
aI0
aI0
aF0.0
aI0
aI0
aF0.0
aI0
aI0
aF0.0
aI0
aI0
aI0
aI0
aI0
aI0
aI1
aI0
aI0
aI-4
aa(lp219
V0020900188
p220
aVNOV 21, 2009
p221
aVSAS vs. WAS
p222
aVW
p223
aI6
aI1
aI1
aF1.0
aI0
aI0
aF0.0
aI0
aI0
aF0.0
aI0
aI0
aI0
aI0
aI0
aI0
aI0
aI0
aI2
aI-5
aa(lp224
V0020900171
p225
aVNOV 19, 2009
p226
aVSAS vs. UTA
p227
aVL
p228
aI10
aI0
aI1
aF0.0
aI0
aI0
aF0.0
aI0
aI2
aF0.0
aI0
aI2
aI2
aI2
aI0
aI0
aI0
aI3
aI0
aI0
aa(lp229
V0020900168
p230
aVNOV 18, 2009
p231
aVSAS @ DAL
p232
aVL
p233
aI6
aI1
aI1
aF1.0
aI0
aI0
aF0.0
aI0
aI0
aF0.0
aI0
aI1
aI1
aI0
aI0
aI0
aI1
aI0
aI2
aI0
aa(lp234
V0020900100
p235
aVNOV 09, 2009
p236
aVSAS vs. TOR
p237
aVW
p238
aI1
aI0
aI0
aF0.0
aI0
aI0
aF0.0
aI0
aI0
aF0.0
aI0
aI0
aI0
aI0
aI0
aI0
aI0
aI0
aI0
aI-7
aasS'name'
p239
VMalik Hairston
p240
sS'experience'
p241
I1
s.