(dp0
S'age'
p1
I23
sS'stats'
p2
(lp3
(lp4
V0020900060
p5
aVNOV 04, 2009
p6
aVPHX @ ORL
p7
aVL
p8
aI8
aI1
aI2
aF0.5
aI0
aI0
aF0.0
aI0
aI0
aF0.0
aI0
aI1
aI1
aI0
aI0
aI0
aI1
aI1
aI2
aI4
aa(lp9
V0020900295
p10
aVDEC 06, 2009
p11
aVPHX @ LAL
p12
aVL
p13
aI6
aI0
aI1
aF0.0
aI0
aI0
aF0.0
aI0
aI0
aF0.0
aI0
aI0
aI0
aI0
aI0
aI1
aI0
aI1
aI0
aI0
aa(lp14
V0020900853
p15
aVFEB 24, 2010
p16
aVPHX vs. PHI
p17
aVW
p18
aI2
aI1
aI1
aF1.0
aI0
aI0
aF0.0
aI0
aI0
aF0.0
aI0
aI0
aI0
aI0
aI0
aI0
aI0
aI0
aI2
aI-3
aa(lp19
V0020900870
p20
aVFEB 26, 2010
p21
aVPHX vs. LAC
p22
aVW
p23
aI1
aI0
aI0
aF0.0
aI0
aI0
aF0.0
aI0
aI0
aF0.0
aI0
aI0
aI0
aI0
aI0
aI0
aI0
aI0
aI0
aI0
aa(lp24
V0020900893
p25
aVMAR 01, 2010
p26
aVPHX vs. DEN
p27
aVW
p28
aI2
aI0
aI1
aF0.0
aI0
aI0
aF0.0
aI0
aI0
aF0.0
aI0
aI0
aI0
aI0
aI0
aI0
aI0
aI0
aI0
aI-3
aa(lp29
V0020900910
p30
aVMAR 03, 2010
p31
aVPHX @ LAC
p32
aVW
p33
aI3
aI1
aI1
aF1.0
aI0
aI0
aF0.0
aI0
aI2
aF0.0
aI0
aI0
aI0
aI0
aI0
aI1
aI0
aI0
aI2
aI1
aa(lp34
V0020900988
p35
aVMAR 14, 2010
p36
aVPHX vs. NOH
p37
aVW
p38
aI4
aI0
aI1
aF0.0
aI0
aI0
aF0.0
aI0
aI0
aF0.0
aI0
aI0
aI0
aI0
aI0
aI0
aI0
aI1
aI0
aI-7
aa(lp39
V0020901003
p40
aVMAR 16, 2010
p41
aVPHX vs. MIN
p42
aVW
p43
aI7
aI1
aI3
aF0.333
aI0
aI2
aF0.0
aI2
aI2
aF1.0
aI0
aI1
aI1
aI1
aI0
aI0
aI0
aI1
aI4
aI5
aasS'name'
p44
VTaylor Griffin
p45
sS'experience'
p46
I0
s.