(dp0
S'age'
p1
I20
sS'stats'
p2
(lp3
(lp4
V0020901220
p5
aVAPR 14, 2010
p6
aVSAS @ DAL
p7
aVL
p8
aI37
aI12
aI21
aF0.571
aI0
aI0
aF0.0
aI3
aI4
aF0.75
aI8
aI15
aI23
aI4
aI3
aI0
aI3
aI3
aI27
aI9
aa(lp9
V0020901208
p10
aVAPR 12, 2010
p11
aVSAS vs. MIN
p12
aVW
p13
aI25
aI2
aI6
aF0.333
aI0
aI0
aF0.0
aI0
aI0
aF0.0
aI3
aI3
aI6
aI1
aI2
aI1
aI3
aI4
aI4
aI18
aa(lp14
V0020901192
p15
aVAPR 10, 2010
p16
aVSAS @ DEN
p17
aVW
p18
aI19
aI5
aI9
aF0.556
aI0
aI0
aF0.0
aI2
aI4
aF0.5
aI4
aI4
aI8
aI1
aI0
aI0
aI3
aI4
aI12
aI12
aa(lp19
V0020901185
p20
aVAPR 09, 2010
p21
aVSAS vs. MEM
p22
aVL
p23
aI8
aI2
aI2
aF1.0
aI0
aI0
aF0.0
aI1
aI5
aF0.2
aI1
aI2
aI3
aI0
aI0
aI0
aI0
aI4
aI5
aI1
aa(lp24
V0020901170
p25
aVAPR 07, 2010
p26
aVSAS @ PHX
p27
aVL
p28
aI15
aI2
aI4
aF0.5
aI0
aI0
aF0.0
aI2
aI3
aF0.667
aI4
aI4
aI8
aI0
aI0
aI0
aI1
aI0
aI6
aI-1
aa(lp29
V0020901157
p30
aVAPR 06, 2010
p31
aVSAS @ SAC
p32
aVW
p33
aI19
aI6
aI6
aF1.0
aI0
aI0
aF0.0
aI1
aI2
aF0.5
aI0
aI4
aI4
aI0
aI0
aI1
aI0
aI2
aI13
aI-13
aa(lp34
V0020901142
p35
aVAPR 04, 2010
p36
aVSAS @ LAL
p37
aVW
p38
aI9
aI1
aI2
aF0.5
aI0
aI0
aF0.0
aI0
aI0
aF0.0
aI0
aI1
aI1
aI0
aI1
aI0
aI0
aI2
aI2
aI3
aa(lp39
V0020901129
p40
aVAPR 02, 2010
p41
aVSAS vs. ORL
p42
aVW
p43
aI9
aI1
aI2
aF0.5
aI0
aI0
aF0.0
aI0
aI0
aF0.0
aI1
aI4
aI5
aI0
aI1
aI1
aI0
aI2
aI2
aI-1
aa(lp44
V0020901117
p45
aVMAR 31, 2010
p46
aVSAS vs. HOU
p47
aVW
p48
aI17
aI4
aI6
aF0.667
aI0
aI0
aF0.0
aI2
aI2
aF1.0
aI5
aI4
aI9
aI0
aI0
aI0
aI1
aI5
aI10
aI-7
aa(lp49
V0020901098
p50
aVMAR 29, 2010
p51
aVSAS @ NJN
p52
aVL
p53
aI17
aI5
aI9
aF0.556
aI0
aI0
aF0.0
aI1
aI2
aF0.5
aI5
aI6
aI11
aI1
aI0
aI0
aI2
aI1
aI11
aI5
aa(lp54
V0020901095
p55
aVMAR 28, 2010
p56
aVSAS @ BOS
p57
aVW
p58
aI21
aI3
aI4
aF0.75
aI0
aI0
aF0.0
aI1
aI2
aF0.5
aI4
aI7
aI11
aI0
aI0
aI1
aI3
aI5
aI7
aI10
aa(lp59
V0020901080
p60
aVMAR 26, 2010
p61
aVSAS vs. CLE
p62
aVW
p63
aI21
aI2
aI5
aF0.4
aI0
aI0
aF0.0
aI2
aI2
aF1.0
aI3
aI4
aI7
aI2
aI0
aI0
aI2
aI1
aI6
aI0
aa(lp64
V0020901066
p65
aVMAR 24, 2010
p66
aVSAS vs. LAL
p67
aVL
p68
aI10
aI2
aI5
aF0.4
aI0
aI0
aF0.0
aI1
aI2
aF0.5
aI4
aI2
aI6
aI1
aI0
aI0
aI1
aI4
aI5
aI1
aa(lp69
V0020901049
p70
aVMAR 22, 2010
p71
aVSAS @ OKC
p72
aVW
p73
aI13
aI3
aI6
aF0.5
aI0
aI1
aF0.0
aI1
aI2
aF0.5
aI1
aI2
aI3
aI0
aI1
aI0
aI0
aI4
aI7
aI-7
aa(lp74
V0020901038
p75
aVMAR 21, 2010
p76
aVSAS @ ATL
p77
aVL
p78
aI12
aI1
aI1
aF1.0
aI0
aI0
aF0.0
aI1
aI2
aF0.5
aI0
aI2
aI2
aI1
aI0
aI0
aI2
aI1
aI3
aI3
aa(lp79
V0020901024
p80
aVMAR 19, 2010
p81
aVSAS vs. GSW
p82
aVW
p83
aI26
aI5
aI8
aF0.625
aI0
aI0
aF0.0
aI4
aI7
aF0.571
aI3
aI6
aI9
aI5
aI0
aI1
aI2
aI2
aI14
aI9
aa(lp84
V0020901010
p85
aVMAR 17, 2010
p86
aVSAS @ ORL
p87
aVL
p88
aI14
aI3
aI5
aF0.6
aI0
aI0
aF0.0
aI1
aI2
aF0.5
aI2
aI3
aI5
aI2
aI0
aI0
aI3
aI2
aI7
aI-8
aa(lp89
V0020900999
p90
aVMAR 16, 2010
p91
aVSAS @ MIA
p92
aVW
p93
aI15
aI1
aI3
aF0.333
aI0
aI0
aF0.0
aI0
aI0
aF0.0
aI0
aI4
aI4
aI0
aI0
aI1
aI2
aI1
aI2
aI10
aa(lp94
V0020900981
p95
aVMAR 13, 2010
p96
aVSAS vs. LAC
p97
aVW
p98
aI30
aI4
aI8
aF0.5
aI0
aI0
aF0.0
aI0
aI1
aF0.0
aI1
aI7
aI8
aI2
aI1
aI0
aI2
aI2
aI8
aI20
aa(lp99
V0020900970
p100
aVMAR 12, 2010
p101
aVSAS @ MIN
p102
aVW
p103
aI19
aI2
aI7
aF0.286
aI0
aI0
aF0.0
aI1
aI2
aF0.5
aI2
aI4
aI6
aI1
aI0
aI0
aI1
aI4
aI5
aI-4
aa(lp104
V0020900960
p105
aVMAR 10, 2010
p106
aVSAS vs. NYK
p107
aVW
p108
aI18
aI3
aI5
aF0.6
aI0
aI1
aF0.0
aI0
aI2
aF0.0
aI3
aI2
aI5
aI0
aI1
aI0
aI3
aI4
aI6
aI-7
aa(lp109
V0020900940
p110
aVMAR 08, 2010
p111
aVSAS @ CLE
p112
aVL
p113
aI11
aI0
aI3
aF0.0
aI0
aI0
aF0.0
aI0
aI0
aF0.0
aI3
aI1
aI4
aI0
aI1
aI0
aI1
aI3
aI0
aI-5
aa(lp114
V0020900929
p115
aVMAR 06, 2010
p116
aVSAS @ MEM
p117
aVW
p118
aI22
aI5
aI9
aF0.556
aI0
aI0
aF0.0
aI0
aI3
aF0.0
aI3
aI2
aI5
aI1
aI3
aI1
aI0
aI3
aI10
aI-9
aa(lp119
V0020900923
p120
aVMAR 05, 2010
p121
aVSAS vs. NOH
p122
aVW
p123
aI32
aI5
aI7
aF0.714
aI0
aI0
aF0.0
aI0
aI2
aF0.0
aI4
aI8
aI12
aI1
aI1
aI1
aI2
aI3
aI10
aI8
aa(lp124
V0020900891
p125
aVMAR 01, 2010
p126
aVSAS @ NOH
p127
aVW
p128
aI26
aI3
aI6
aF0.5
aI0
aI0
aF0.0
aI2
aI3
aF0.667
aI3
aI3
aI6
aI4
aI1
aI2
aI1
aI5
aI8
aI18
aa(lp129
V0020900878
p130
aVFEB 28, 2010
p131
aVSAS vs. PHX
p132
aVW
p133
aI19
aI6
aI12
aF0.5
aI0
aI0
aF0.0
aI2
aI4
aF0.5
aI2
aI5
aI7
aI0
aI0
aI0
aI0
aI1
aI14
aI3
aa(lp134
V0020900866
p135
aVFEB 26, 2010
p136
aVSAS @ HOU
p137
aVL
p138
aI18
aI4
aI4
aF1.0
aI0
aI0
aF0.0
aI2
aI2
aF1.0
aI3
aI3
aI6
aI1
aI1
aI1
aI1
aI6
aI10
aI-2
aa(lp139
V0020900851
p140
aVFEB 24, 2010
p141
aVSAS vs. OKC
p142
aVW
p143
aI16
aI3
aI4
aF0.75
aI0
aI0
aF0.0
aI3
aI4
aF0.75
aI2
aI1
aI3
aI2
aI1
aI0
aI2
aI5
aI9
aI-6
aa(lp144
V0020900825
p145
aVFEB 21, 2010
p146
aVSAS @ DET
p147
aVL
p148
aI14
aI1
aI3
aF0.333
aI0
aI0
aF0.0
aI4
aI5
aF0.8
aI1
aI2
aI3
aI2
aI0
aI0
aI0
aI1
aI6
aI-1
aa(lp149
V0020900805
p150
aVFEB 19, 2010
p151
aVSAS @ PHI
p152
aVL
p153
aI16
aI5
aI7
aF0.714
aI0
aI0
aF0.0
aI2
aI2
aF1.0
aI2
aI2
aI4
aI1
aI2
aI0
aI3
aI3
aI12
aI-4
aa(lp154
V0020900791
p155
aVFEB 17, 2010
p156
aVSAS @ IND
p157
aVW
p158
aI10
aI2
aI5
aF0.4
aI0
aI0
aF0.0
aI0
aI0
aF0.0
aI0
aI1
aI1
aI0
aI1
aI0
aI2
aI5
aI4
aI-10
aa(lp159
V0020900780
p160
aVFEB 11, 2010
p161
aVSAS @ DEN
p162
aVW
p163
aI21
aI8
aI11
aF0.727
aI0
aI0
aF0.0
aI1
aI1
aF1.0
aI4
aI5
aI9
aI0
aI0
aI0
aI1
aI4
aI17
aI10
aa(lp164
V0020900757
p165
aVFEB 08, 2010
p166
aVSAS @ LAL
p167
aVL
p168
aI18
aI5
aI11
aF0.455
aI0
aI0
aF0.0
aI1
aI1
aF1.0
aI1
aI1
aI2
aI0
aI0
aI1
aI2
aI4
aI11
aI-1
aa(lp169
V0020900752
p170
aVFEB 06, 2010
p171
aVSAS @ LAC
p172
aVW
p173
aI21
aI2
aI7
aF0.286
aI0
aI0
aF0.0
aI1
aI1
aF1.0
aI3
aI3
aI6
aI0
aI2
aI0
aI0
aI2
aI5
aI-2
aa(lp174
V0020900730
p175
aVFEB 04, 2010
p176
aVSAS @ POR
p177
aVL
p178
aI21
aI4
aI7
aF0.571
aI0
aI0
aF0.0
aI3
aI4
aF0.75
aI1
aI3
aI4
aI1
aI1
aI0
aI2
aI5
aI11
aI3
aa(lp179
V0020900726
p180
aVFEB 03, 2010
p181
aVSAS @ SAC
p182
aVW
p183
aI24
aI9
aI11
aF0.818
aI0
aI0
aF0.0
aI2
aI3
aF0.667
aI2
aI4
aI6
aI1
aI2
aI1
aI2
aI2
aI20
aI3
aa(lp184
V0020900695
p185
aVJAN 31, 2010
p186
aVSAS vs. DEN
p187
aVL
p188
aI11
aI4
aI4
aF1.0
aI0
aI0
aF0.0
aI2
aI2
aF1.0
aI1
aI2
aI3
aI0
aI0
aI1
aI0
aI3
aI10
aI0
aa(lp189
V0020900686
p190
aVJAN 29, 2010
p191
aVSAS vs. MEM
p192
aVW
p193
aI18
aI4
aI8
aF0.5
aI0
aI0
aF0.0
aI0
aI1
aF0.0
aI5
aI5
aI10
aI0
aI1
aI1
aI1
aI2
aI8
aI-6
aa(lp194
V0020900671
p195
aVJAN 27, 2010
p196
aVSAS vs. ATL
p197
aVW
p198
aI16
aI2
aI4
aF0.5
aI0
aI0
aF0.0
aI0
aI0
aF0.0
aI4
aI5
aI9
aI1
aI1
aI0
aI2
aI0
aI4
aI9
aa(lp199
V0020900654
p200
aVJAN 25, 2010
p201
aVSAS vs. CHI
p202
aVL
p203
aI31
aI4
aI13
aF0.308
aI0
aI0
aF0.0
aI0
aI2
aF0.0
aI8
aI3
aI11
aI0
aI2
aI0
aI2
aI3
aI8
aI-12
aa(lp204
V0020900633
p205
aVJAN 22, 2010
p206
aVSAS vs. HOU
p207
aVL
p208
aI22
aI3
aI7
aF0.429
aI0
aI0
aF0.0
aI0
aI0
aF0.0
aI2
aI5
aI7
aI1
aI1
aI0
aI1
aI2
aI6
aI-13
aa(lp209
V0020900618
p210
aVJAN 20, 2010
p211
aVSAS vs. UTA
p212
aVL
p213
aI29
aI2
aI6
aF0.333
aI0
aI0
aF0.0
aI0
aI0
aF0.0
aI2
aI9
aI11
aI0
aI0
aI2
aI0
aI1
aI4
aI-12
aa(lp214
V0020900601
p215
aVJAN 18, 2010
p216
aVSAS @ NOH
p217
aVW
p218
aI33
aI3
aI7
aF0.429
aI0
aI0
aF0.0
aI2
aI6
aF0.333
aI5
aI8
aI13
aI0
aI0
aI0
aI2
aI2
aI8
aI19
aa(lp219
V0020900588
p220
aVJAN 16, 2010
p221
aVSAS @ MEM
p222
aVL
p223
aI24
aI4
aI7
aF0.571
aI0
aI0
aF0.0
aI0
aI0
aF0.0
aI1
aI7
aI8
aI0
aI1
aI1
aI1
aI5
aI8
aI7
aa(lp224
V0020900571
p225
aVJAN 15, 2010
p226
aVSAS @ CHA
p227
aVL
p228
aI31
aI5
aI10
aF0.5
aI0
aI0
aF0.0
aI1
aI2
aF0.5
aI7
aI9
aI16
aI1
aI1
aI0
aI2
aI1
aI11
aI-13
aa(lp229
V0020900563
p230
aVJAN 13, 2010
p231
aVSAS @ OKC
p232
aVW
p233
aI31
aI11
aI17
aF0.647
aI0
aI0
aF0.0
aI6
aI8
aF0.75
aI10
aI11
aI21
aI0
aI2
aI2
aI2
aI6
aI28
aI7
aa(lp234
V0020900556
p235
aVJAN 12, 2010
p236
aVSAS vs. LAL
p237
aVW
p238
aI7
aI1
aI2
aF0.5
aI0
aI0
aF0.0
aI0
aI0
aF0.0
aI0
aI2
aI2
aI0
aI0
aI0
aI0
aI0
aI2
aI2
aa(lp239
V0020900541
p240
aVJAN 10, 2010
p241
aVSAS vs. NJN
p242
aVW
p243
aI15
aI2
aI6
aF0.333
aI0
aI0
aF0.0
aI0
aI0
aF0.0
aI1
aI1
aI2
aI0
aI0
aI0
aI2
aI3
aI4
aI-2
aa(lp244
V0020900525
p245
aVJAN 08, 2010
p246
aVSAS vs. DAL
p247
aVL
p248
aI8
aI1
aI3
aF0.333
aI0
aI0
aF0.0
aI0
aI1
aF0.0
aI0
aI1
aI1
aI0
aI1
aI0
aI1
aI3
aI2
aI-8
aa(lp249
V0020900513
p250
aVJAN 06, 2010
p251
aVSAS vs. DET
p252
aVW
p253
aI26
aI3
aI4
aF0.75
aI0
aI0
aF0.0
aI4
aI5
aF0.8
aI1
aI7
aI8
aI1
aI1
aI0
aI1
aI1
aI10
aI0
aa(lp254
V0020900491
p255
aVJAN 03, 2010
p256
aVSAS @ TOR
p257
aVL
p258
aI18
aI4
aI7
aF0.571
aI0
aI0
aF0.0
aI0
aI2
aF0.0
aI2
aI4
aI6
aI0
aI0
aI1
aI3
aI4
aI8
aI-4
aa(lp259
V0020900480
p260
aVJAN 02, 2010
p261
aVSAS @ WAS
p262
aVW
p263
aI15
aI0
aI1
aF0.0
aI0
aI0
aF0.0
aI2
aI4
aF0.5
aI1
aI4
aI5
aI1
aI1
aI0
aI3
aI3
aI2
aI6
aa(lp264
V0020900471
p265
aVDEC 31, 2009
p266
aVSAS vs. MIA
p267
aVW
p268
aI26
aI5
aI12
aF0.417
aI0
aI0
aF0.0
aI4
aI4
aF1.0
aI2
aI3
aI5
aI1
aI1
aI1
aI2
aI1
aI14
aI27
aa(lp269
V0020900457
p270
aVDEC 29, 2009
p271
aVSAS vs. MIN
p272
aVW
p273
aI24
aI3
aI7
aF0.429
aI0
aI0
aF0.0
aI5
aI8
aF0.625
aI2
aI4
aI6
aI2
aI0
aI1
aI2
aI4
aI11
aI3
aa(lp274
V0020900442
p275
aVDEC 27, 2009
p276
aVSAS @ NYK
p277
aVW
p278
aI35
aI4
aI11
aF0.364
aI0
aI0
aF0.0
aI0
aI0
aF0.0
aI4
aI6
aI10
aI2
aI1
aI2
aI3
aI3
aI8
aI7
aa(lp279
V0020900435
p280
aVDEC 26, 2009
p281
aVSAS @ MIL
p282
aVW
p283
aI26
aI4
aI6
aF0.667
aI0
aI0
aF0.0
aI0
aI0
aF0.0
aI6
aI5
aI11
aI3
aI1
aI1
aI3
aI5
aI8
aI17
aa(lp284
V0020900420
p285
aVDEC 23, 2009
p286
aVSAS vs. POR
p287
aVL
p288
aI17
aI3
aI3
aF1.0
aI0
aI0
aF0.0
aI0
aI0
aF0.0
aI1
aI1
aI2
aI0
aI0
aI0
aI1
aI2
aI6
aI-19
aa(lp289
V0020900403
p290
aVDEC 21, 2009
p291
aVSAS vs. LAC
p292
aVW
p293
aI16
aI4
aI5
aF0.8
aI0
aI0
aF0.0
aI0
aI3
aF0.0
aI1
aI5
aI6
aI0
aI0
aI0
aI1
aI3
aI8
aI-3
aa(lp294
V0020900391
p295
aVDEC 19, 2009
p296
aVSAS vs. IND
p297
aVW
p298
aI20
aI1
aI3
aF0.333
aI0
aI0
aF0.0
aI0
aI2
aF0.0
aI3
aI5
aI8
aI0
aI1
aI0
aI0
aI1
aI2
aI4
aa(lp299
V0020900369
p300
aVDEC 16, 2009
p301
aVSAS @ GSW
p302
aVW
p303
aI16
aI4
aI7
aF0.571
aI0
aI0
aF0.0
aI0
aI0
aF0.0
aI3
aI2
aI5
aI3
aI2
aI0
aI0
aI3
aI8
aI-2
aa(lp304
V0020900356
p305
aVDEC 15, 2009
p306
aVSAS @ PHX
p307
aVL
p308
aI13
aI5
aI9
aF0.556
aI0
aI0
aF0.0
aI2
aI4
aF0.5
aI3
aI3
aI6
aI1
aI2
aI0
aI0
aI5
aI12
aI-6
aa(lp309
V0020900343
p310
aVDEC 13, 2009
p311
aVSAS @ LAC
p312
aVW
p313
aI17
aI7
aI9
aF0.778
aI0
aI0
aF0.0
aI0
aI0
aF0.0
aI3
aI6
aI9
aI0
aI1
aI1
aI2
aI1
aI14
aI23
aa(lp314
V0020900328
p315
aVDEC 11, 2009
p316
aVSAS vs. CHA
p317
aVW
p318
aI3
aI0
aI0
aF0.0
aI0
aI0
aF0.0
aI2
aI2
aF1.0
aI0
aI1
aI1
aI0
aI0
aI0
aI0
aI1
aI2
aI-1
aa(lp319
V0020900315
p320
aVDEC 09, 2009
p321
aVSAS vs. SAC
p322
aVW
p323
aI14
aI0
aI1
aF0.0
aI0
aI0
aF0.0
aI1
aI2
aF0.5
aI0
aI4
aI4
aI1
aI0
aI0
aI2
aI2
aI1
aI-7
aa(lp324
V0020900299
p325
aVDEC 07, 2009
p326
aVSAS @ UTA
p327
aVL
p328
aI14
aI0
aI1
aF0.0
aI0
aI0
aF0.0
aI1
aI2
aF0.5
aI0
aI2
aI2
aI0
aI1
aI2
aI0
aI1
aI1
aI17
aa(lp329
V0020900285
p330
aVDEC 05, 2009
p331
aVSAS vs. DEN
p332
aVL
p333
aI13
aI2
aI5
aF0.4
aI0
aI0
aF0.0
aI0
aI0
aF0.0
aI0
aI2
aI2
aI0
aI0
aI0
aI2
aI4
aI4
aI-8
aa(lp334
V0020900269
p335
aVDEC 03, 2009
p336
aVSAS vs. BOS
p337
aVL
p338
aI22
aI9
aI11
aF0.818
aI0
aI0
aF0.0
aI0
aI1
aF0.0
aI5
aI6
aI11
aI0
aI0
aI2
aI1
aI2
aI18
aI10
aa(lp339
V0020900245
p340
aVNOV 29, 2009
p341
aVSAS vs. PHI
p342
aVW
p343
aI17
aI5
aI8
aF0.625
aI0
aI0
aF0.0
aI1
aI3
aF0.333
aI7
aI3
aI10
aI0
aI0
aI3
aI2
aI3
aI11
aI7
aa(lp344
V0020900229
p345
aVNOV 27, 2009
p346
aVSAS @ HOU
p347
aVW
p348
aI10
aI3
aI4
aF0.75
aI0
aI0
aF0.0
aI1
aI1
aF1.0
aI0
aI5
aI5
aI0
aI0
aI0
aI0
aI5
aI7
aI3
aa(lp349
V0020900216
p350
aVNOV 25, 2009
p351
aVSAS vs. GSW
p352
aVW
p353
aI11
aI2
aI5
aF0.4
aI0
aI0
aF0.0
aI1
aI1
aF1.0
aI1
aI2
aI3
aI2
aI0
aI0
aI2
aI1
aI5
aI-2
aa(lp354
V0020900199
p355
aVNOV 23, 2009
p356
aVSAS vs. MIL
p357
aVW
p358
aI16
aI2
aI3
aF0.667
aI0
aI0
aF0.0
aI1
aI2
aF0.5
aI2
aI6
aI8
aI0
aI0
aI0
aI1
aI4
aI5
aI2
aa(lp359
V0020900188
p360
aVNOV 21, 2009
p361
aVSAS vs. WAS
p362
aVW
p363
aI7
aI1
aI3
aF0.333
aI0
aI0
aF0.0
aI1
aI4
aF0.25
aI0
aI2
aI2
aI0
aI0
aI1
aI1
aI0
aI3
aI-1
aa(lp364
V0020900171
p365
aVNOV 19, 2009
p366
aVSAS vs. UTA
p367
aVL
p368
aI9
aI1
aI2
aF0.5
aI0
aI0
aF0.0
aI1
aI2
aF0.5
aI1
aI1
aI2
aI1
aI0
aI0
aI0
aI0
aI3
aI-5
aa(lp369
V0020900168
p370
aVNOV 18, 2009
p371
aVSAS @ DAL
p372
aVL
p373
aI6
aI0
aI0
aF0.0
aI0
aI0
aF0.0
aI0
aI0
aF0.0
aI0
aI1
aI1
aI2
aI0
aI1
aI1
aI2
aI0
aI0
aa(lp374
V0020900142
p375
aVNOV 14, 2009
p376
aVSAS vs. OKC
p377
aVL
p378
aI14
aI3
aI5
aF0.6
aI0
aI0
aF0.0
aI1
aI1
aF1.0
aI1
aI0
aI1
aI1
aI0
aI1
aI3
aI2
aI7
aI-13
aa(lp379
V0020900119
p380
aVNOV 11, 2009
p381
aVSAS vs. DAL
p382
aVW
p383
aI20
aI1
aI2
aF0.5
aI0
aI0
aF0.0
aI1
aI2
aF0.5
aI0
aI6
aI6
aI1
aI0
aI1
aI0
aI4
aI3
aI6
aa(lp384
V0020900100
p385
aVNOV 09, 2009
p386
aVSAS vs. TOR
p387
aVW
p388
aI19
aI3
aI7
aF0.429
aI0
aI0
aF0.0
aI0
aI0
aF0.0
aI4
aI3
aI7
aI1
aI0
aI0
aI1
aI5
aI6
aI-4
aa(lp389
V0020900084
p390
aVNOV 06, 2009
p391
aVSAS @ POR
p392
aVL
p393
aI10
aI0
aI2
aF0.0
aI0
aI0
aF0.0
aI0
aI0
aF0.0
aI0
aI4
aI4
aI0
aI0
aI0
aI0
aI0
aI0
aI-8
aa(lp394
V0020900071
p395
aVNOV 05, 2009
p396
aVSAS @ UTA
p397
aVL
p398
aI21
aI7
aI10
aF0.7
aI0
aI0
aF0.0
aI0
aI0
aF0.0
aI5
aI4
aI9
aI0
aI0
aI1
aI0
aI0
aI14
aI5
aa(lp399
V0020900037
p400
aVOCT 31, 2009
p401
aVSAS vs. SAC
p402
aVW
p403
aI26
aI2
aI4
aF0.5
aI0
aI0
aF0.0
aI1
aI2
aF0.5
aI1
aI9
aI10
aI1
aI2
aI0
aI3
aI4
aI5
aI2
aa(lp404
V0020900017
p405
aVOCT 29, 2009
p406
aVSAS @ CHI
p407
aVL
p408
aI13
aI3
aI3
aF1.0
aI0
aI0
aF0.0
aI0
aI0
aF0.0
aI2
aI2
aI4
aI0
aI0
aI0
aI1
aI4
aI6
aI-4
aa(lp409
V0020900013
p410
aVOCT 28, 2009
p411
aVSAS vs. NOH
p412
aVW
p413
aI23
aI7
aI10
aF0.7
aI0
aI0
aF0.0
aI0
aI1
aF0.0
aI5
aI6
aI11
aI3
aI0
aI0
aI2
aI4
aI14
aI11
aasS'name'
p414
VDeJuan Blair
p415
sS'experience'
p416
I0
s.