(dp0
S'age'
p1
I21
sS'stats'
p2
(lp3
(lp4
V0020900497
p5
aVJAN 04, 2010
p6
aVPOR @ LAC
p7
aVL
p8
aI5
aI0
aI3
aF0.0
aI0
aI0
aF0.0
aI0
aI0
aF0.0
aI0
aI0
aI0
aI2
aI0
aI0
aI0
aI1
aI0
aI5
aa(lp9
V0020900710
p10
aVFEB 01, 2010
p11
aVPOR vs. CHA
p12
aVW
p13
aI2
aI0
aI1
aF0.0
aI0
aI0
aF0.0
aI0
aI0
aF0.0
aI0
aI0
aI0
aI0
aI0
aI0
aI1
aI0
aI0
aI0
aa(lp14
V0020900728
p15
aVFEB 03, 2010
p16
aVPOR @ UTA
p17
aVL
p18
aI1
aI1
aI1
aF1.0
aI0
aI0
aF0.0
aI0
aI0
aF0.0
aI0
aI0
aI0
aI0
aI0
aI0
aI0
aI0
aI2
aI0
aa(lp19
V0020900750
p20
aVFEB 06, 2010
p21
aVPOR vs. LAL
p22
aVL
p23
aI2
aI0
aI0
aF0.0
aI0
aI0
aF0.0
aI1
aI2
aF0.5
aI0
aI0
aI0
aI0
aI0
aI0
aI0
aI0
aI1
aI2
aa(lp24
V0020900788
p25
aVFEB 16, 2010
p26
aVPOR vs. LAC
p27
aVW
p28
aI2
aI1
aI2
aF0.5
aI0
aI0
aF0.0
aI0
aI0
aF0.0
aI1
aI0
aI1
aI1
aI0
aI0
aI1
aI0
aI2
aI-2
aa(lp29
V0020900815
p30
aVFEB 19, 2010
p31
aVPOR vs. BOS
p32
aVL
p33
aI3
aI1
aI1
aF1.0
aI0
aI0
aF0.0
aI0
aI0
aF0.0
aI0
aI0
aI0
aI0
aI0
aI0
aI0
aI0
aI2
aI0
aa(lp34
V0020900846
p35
aVFEB 24, 2010
p36
aVPOR @ TOR
p37
aVW
p38
aI1
aI0
aI0
aF0.0
aI0
aI0
aF0.0
aI0
aI0
aF0.0
aI0
aI0
aI0
aI0
aI0
aI0
aI0
aI0
aI0
aI0
aa(lp39
V0020900875
p40
aVFEB 27, 2010
p41
aVPOR @ MIN
p42
aVW
p43
aI4
aI3
aI5
aF0.6
aI0
aI1
aF0.0
aI2
aI2
aF1.0
aI0
aI0
aI0
aI0
aI0
aI0
aI0
aI0
aI8
aI-10
aa(lp44
V0020900909
p45
aVMAR 03, 2010
p46
aVPOR vs. IND
p47
aVW
p48
aI6
aI0
aI3
aF0.0
aI0
aI0
aF0.0
aI0
aI0
aF0.0
aI0
aI0
aI0
aI0
aI0
aI0
aI0
aI1
aI0
aI-2
aa(lp49
V0020901229
p50
aVAPR 14, 2010
p51
aVPOR vs. GSW
p52
aVL
p53
aI13
aI4
aI8
aF0.5
aI2
aI3
aF0.667
aI1
aI3
aF0.333
aI0
aI1
aI1
aI2
aI0
aI0
aI2
aI4
aI11
aI-8
aasS'name'
p54
VPatty Mills
p55
sS'experience'
p56
I0
s.