(dp0
S'stats'
p1
(lp2
(lp3
V0020900012
p4
aVOCT 28, 2009
p5
aVSAC @ OKC
p6
aVL
p7
aI6
aI2
aI2
aF1.0
aI0
aI0
aF0.0
aI0
aI0
aF0.0
aI0
aI1
aI1
aI0
aI0
aI0
aI0
aI1
aI4
aI3
aa(lp8
V0020900028
p9
aVOCT 30, 2009
p10
aVSAC @ NOH
p11
aVL
p12
aI19
aI2
aI4
aF0.5
aI0
aI0
aF0.0
aI1
aI5
aF0.2
aI5
aI5
aI10
aI1
aI0
aI0
aI0
aI4
aI5
aI-3
aa(lp13
V0020900037
p14
aVOCT 31, 2009
p15
aVSAC @ SAS
p16
aVL
p17
aI10
aI1
aI2
aF0.5
aI0
aI0
aF0.0
aI0
aI2
aF0.0
aI2
aI1
aI3
aI0
aI0
aI0
aI0
aI1
aI2
aI-10
aa(lp18
V0020900049
p19
aVNOV 02, 2009
p20
aVSAC vs. MEM
p21
aVW
p22
aI6
aI1
aI1
aF1.0
aI0
aI0
aF0.0
aI0
aI0
aF0.0
aI0
aI1
aI1
aI0
aI0
aI0
aI0
aI1
aI2
aI1
aa(lp23
V0020900068
p24
aVNOV 04, 2009
p25
aVSAC vs. ATL
p26
aVL
p27
aI2
aI0
aI1
aF0.0
aI0
aI0
aF0.0
aI0
aI0
aF0.0
aI1
aI0
aI1
aI0
aI0
aI0
aI0
aI2
aI0
aI-5
aa(lp28
V0020900096
p29
aVNOV 08, 2009
p30
aVSAC vs. GSW
p31
aVW
p32
aI5
aI1
aI1
aF1.0
aI0
aI0
aF0.0
aI0
aI0
aF0.0
aI2
aI1
aI3
aI0
aI0
aI0
aI1
aI2
aI2
aI-12
aa(lp33
V0020900130
p34
aVNOV 13, 2009
p35
aVSAC vs. HOU
p36
aVW
p37
aI12
aI1
aI2
aF0.5
aI0
aI0
aF0.0
aI2
aI2
aF1.0
aI2
aI2
aI4
aI1
aI0
aI0
aI1
aI2
aI4
aI3
aa(lp38
V0020900156
p39
aVNOV 17, 2009
p40
aVSAC vs. CHI
p41
aVL
p42
aI1
aI0
aI0
aF0.0
aI0
aI0
aF0.0
aI0
aI0
aF0.0
aI0
aI1
aI1
aI0
aI0
aI0
aI0
aI0
aI0
aI2
aa(lp43
V0020900187
p44
aVNOV 21, 2009
p45
aVSAC @ HOU
p46
aVL
p47
aI0
aI0
aI0
aF0.0
aI0
aI0
aF0.0
aI0
aI0
aF0.0
aI0
aI0
aI0
aI0
aI0
aI0
aI0
aI0
aI0
aI0
aa(lp48
V0020900198
p49
aVNOV 23, 2009
p50
aVSAC @ MEM
p51
aVL
p52
aI14
aI3
aI3
aF1.0
aI0
aI0
aF0.0
aI1
aI2
aF0.5
aI2
aI1
aI3
aI1
aI0
aI0
aI1
aI4
aI7
aI10
aa(lp53
V0020900219
p54
aVNOV 25, 2009
p55
aVSAC vs. NYK
p56
aVW
p57
aI26
aI3
aI6
aF0.5
aI0
aI0
aF0.0
aI0
aI0
aF0.0
aI4
aI5
aI9
aI1
aI1
aI0
aI1
aI3
aI6
aI9
aa(lp58
V0020900233
p59
aVNOV 27, 2009
p60
aVSAC vs. NJN
p61
aVW
p62
aI14
aI0
aI1
aF0.0
aI0
aI0
aF0.0
aI0
aI0
aF0.0
aI1
aI3
aI4
aI1
aI0
aI0
aI0
aI1
aI0
aI5
aa(lp63
V0020900247
p64
aVNOV 29, 2009
p65
aVSAC vs. NOH
p66
aVW
p67
aI17
aI2
aI3
aF0.667
aI0
aI0
aF0.0
aI1
aI2
aF0.5
aI4
aI4
aI8
aI0
aI0
aI0
aI2
aI2
aI5
aI19
aa(lp68
V0020900267
p69
aVDEC 02, 2009
p70
aVSAC vs. IND
p71
aVW
p72
aI7
aI0
aI2
aF0.0
aI0
aI0
aF0.0
aI0
aI0
aF0.0
aI1
aI1
aI2
aI0
aI0
aI0
aI1
aI1
aI0
aI-9
aa(lp73
V0020900294
p74
aVDEC 06, 2009
p75
aVSAC vs. MIA
p76
aVL
p77
aI6
aI0
aI0
aF0.0
aI0
aI0
aF0.0
aI0
aI0
aF0.0
aI0
aI2
aI2
aI1
aI0
aI0
aI0
aI0
aI0
aI2
aa(lp78
V0020900338
p79
aVDEC 12, 2009
p80
aVSAC vs. MIN
p81
aVW
p82
aI19
aI2
aI3
aF0.667
aI0
aI0
aF0.0
aI2
aI3
aF0.667
aI4
aI4
aI8
aI1
aI0
aI0
aI0
aI4
aI6
aI2
aa(lp83
V0020900357
p84
aVDEC 15, 2009
p85
aVSAC @ POR
p86
aVL
p87
aI9
aI0
aI1
aF0.0
aI0
aI0
aF0.0
aI0
aI0
aF0.0
aI1
aI2
aI3
aI0
aI0
aI0
aI0
aI1
aI0
aI-1
aa(lp88
V0020900368
p89
aVDEC 16, 2009
p90
aVSAC vs. WAS
p91
aVW
p92
aI1
aI0
aI0
aF0.0
aI0
aI0
aF0.0
aI0
aI0
aF0.0
aI0
aI0
aI0
aI0
aI0
aI0
aI0
aI0
aI0
aI-3
aa(lp93
V0020900402
p94
aVDEC 21, 2009
p95
aVSAC @ CHI
p96
aVW
p97
aI17
aI0
aI1
aF0.0
aI0
aI0
aF0.0
aI0
aI0
aF0.0
aI3
aI3
aI6
aI1
aI1
aI0
aI0
aI3
aI0
aI26
aa(lp98
V0020900423
p99
aVDEC 23, 2009
p100
aVSAC vs. CLE
p101
aVL
p102
aI8
aI0
aI1
aF0.0
aI0
aI0
aF0.0
aI0
aI0
aF0.0
aI1
aI1
aI2
aI1
aI0
aI0
aI0
aI3
aI0
aI-3
aa(lp103
V0020900437
p104
aVDEC 26, 2009
p105
aVSAC vs. LAL
p106
aVL
p107
aI21
aI0
aI1
aF0.0
aI0
aI0
aF0.0
aI1
aI2
aF0.5
aI4
aI5
aI9
aI0
aI1
aI0
aI0
aI4
aI1
aI-2
aa(lp108
V0020900450
p109
aVDEC 28, 2009
p110
aVSAC vs. DEN
p111
aVW
p112
aI17
aI1
aI3
aF0.333
aI0
aI0
aF0.0
aI4
aI4
aF1.0
aI4
aI6
aI10
aI1
aI0
aI2
aI1
aI5
aI6
aI-3
aa(lp113
V0020900468
p114
aVDEC 30, 2009
p115
aVSAC vs. PHI
p116
aVL
p117
aI8
aI2
aI2
aF1.0
aI0
aI0
aF0.0
aI1
aI2
aF0.5
aI3
aI0
aI3
aI1
aI1
aI0
aI1
aI3
aI5
aI-2
aa(lp118
V0020900476
p119
aVJAN 01, 2010
p120
aVSAC @ LAL
p121
aVL
p122
aI5
aI1
aI1
aF1.0
aI0
aI0
aF0.0
aI0
aI0
aF0.0
aI0
aI0
aI0
aI0
aI0
aI0
aI0
aI0
aI2
aI8
aa(lp123
V0020900488
p124
aVJAN 02, 2010
p125
aVSAC vs. DAL
p126
aVL
p127
aI11
aI0
aI0
aF0.0
aI0
aI0
aF0.0
aI2
aI2
aF1.0
aI3
aI1
aI4
aI0
aI1
aI0
aI0
aI3
aI2
aI3
aa(lp128
V0020900505
p129
aVJAN 05, 2010
p130
aVSAC vs. PHX
p131
aVL
p132
aI23
aI3
aI3
aF1.0
aI0
aI0
aF0.0
aI0
aI0
aF0.0
aI5
aI3
aI8
aI1
aI2
aI0
aI3
aI4
aI6
aI2
aa(lp133
V0020900529
p134
aVJAN 08, 2010
p135
aVSAC @ GSW
p136
aVL
p137
aI17
aI0
aI0
aF0.0
aI0
aI0
aF0.0
aI4
aI4
aF1.0
aI1
aI3
aI4
aI1
aI1
aI0
aI0
aI1
aI4
aI9
aa(lp138
V0020900537
p139
aVJAN 09, 2010
p140
aVSAC vs. DEN
p141
aVW
p142
aI38
aI2
aI9
aF0.222
aI0
aI0
aF0.0
aI1
aI2
aF0.5
aI7
aI5
aI12
aI1
aI0
aI1
aI0
aI4
aI5
aI-3
aa(lp143
V0020900557
p144
aVJAN 12, 2010
p145
aVSAC vs. ORL
p146
aVL
p147
aI13
aI2
aI2
aF1.0
aI0
aI0
aF0.0
aI5
aI6
aF0.833
aI5
aI1
aI6
aI0
aI0
aI0
aI0
aI4
aI9
aI-7
aa(lp148
V0020900572
p149
aVJAN 15, 2010
p150
aVSAC @ PHI
p151
aVL
p152
aI17
aI0
aI3
aF0.0
aI0
aI0
aF0.0
aI0
aI0
aF0.0
aI3
aI2
aI5
aI0
aI1
aI0
aI1
aI2
aI0
aI-13
aa(lp153
V0020900586
p154
aVJAN 16, 2010
p155
aVSAC @ WAS
p156
aVL
p157
aI13
aI0
aI2
aF0.0
aI0
aI0
aF0.0
aI2
aI2
aF1.0
aI3
aI2
aI5
aI0
aI2
aI0
aI0
aI3
aI2
aI4
aa(lp158
V0020900597
p159
aVJAN 18, 2010
p160
aVSAC @ CHA
p161
aVL
p162
aI30
aI0
aI1
aF0.0
aI0
aI0
aF0.0
aI0
aI0
aF0.0
aI7
aI7
aI14
aI1
aI1
aI1
aI3
aI5
aI0
aI4
aa(lp163
V0020900608
p164
aVJAN 20, 2010
p165
aVSAC @ ATL
p166
aVL
p167
aI23
aI3
aI4
aF0.75
aI0
aI0
aF0.0
aI0
aI1
aF0.0
aI1
aI2
aI3
aI0
aI0
aI0
aI1
aI4
aI6
aI-4
aa(lp168
V0020900623
p169
aVJAN 22, 2010
p170
aVSAC @ ORL
p171
aVL
p172
aI19
aI3
aI7
aF0.429
aI0
aI0
aF0.0
aI0
aI2
aF0.0
aI3
aI3
aI6
aI0
aI0
aI1
aI0
aI4
aI6
aI-14
aa(lp173
V0020900640
p174
aVJAN 23, 2010
p175
aVSAC @ MIA
p176
aVL
p177
aI24
aI2
aI4
aF0.5
aI0
aI0
aF0.0
aI2
aI4
aF0.5
aI1
aI4
aI5
aI1
aI0
aI0
aI1
aI2
aI6
aI-20
aa(lp178
V0020900687
p179
aVJAN 29, 2010
p180
aVSAC @ UTA
p181
aVL
p182
aI12
aI0
aI0
aF0.0
aI0
aI0
aF0.0
aI0
aI0
aF0.0
aI0
aI2
aI2
aI0
aI0
aI0
aI1
aI5
aI0
aI-1
aa(lp183
V0020900694
p184
aVJAN 30, 2010
p185
aVSAC vs. CHA
p186
aVL
p187
aI11
aI0
aI1
aF0.0
aI0
aI0
aF0.0
aI0
aI0
aF0.0
aI2
aI0
aI2
aI0
aI0
aI0
aI0
aI1
aI0
aI-12
aa(lp188
V0020900708
p189
aVFEB 01, 2010
p190
aVSAC @ DEN
p191
aVL
p192
aI22
aI5
aI6
aF0.833
aI0
aI0
aF0.0
aI1
aI2
aF0.5
aI4
aI7
aI11
aI2
aI0
aI0
aI1
aI5
aI11
aI-9
aa(lp193
V0020900726
p194
aVFEB 03, 2010
p195
aVSAC vs. SAS
p196
aVL
p197
aI15
aI1
aI1
aF1.0
aI0
aI0
aF0.0
aI2
aI2
aF1.0
aI1
aI1
aI2
aI0
aI0
aI0
aI0
aI3
aI4
aI-16
aa(lp198
V0020900739
p199
aVFEB 05, 2010
p200
aVSAC vs. PHX
p201
aVL
p202
aI22
aI1
aI3
aF0.333
aI0
aI0
aF0.0
aI4
aI8
aF0.5
aI2
aI4
aI6
aI1
aI1
aI0
aI0
aI4
aI6
aI8
aa(lp203
V0020900763
p204
aVFEB 09, 2010
p205
aVSAC @ NYK
p206
aVW
p207
aI16
aI1
aI3
aF0.333
aI0
aI0
aF0.0
aI0
aI0
aF0.0
aI5
aI1
aI6
aI1
aI0
aI0
aI0
aI3
aI2
aI2
aa(lp208
V0020900771
p209
aVFEB 10, 2010
p210
aVSAC @ DET
p211
aVW
p212
aI3
aI0
aI0
aF0.0
aI0
aI0
aF0.0
aI0
aI0
aF0.0
aI0
aI0
aI0
aI0
aI0
aI0
aI0
aI0
aI0
aI3
aa(lp213
V0020900789
p214
aVFEB 16, 2010
p215
aVSAC vs. BOS
p216
aVL
p217
aI5
aI1
aI1
aF1.0
aI0
aI0
aF0.0
aI0
aI0
aF0.0
aI1
aI0
aI1
aI0
aI1
aI0
aI0
aI0
aI2
aI-10
aa(lp218
V0020900800
p219
aVFEB 17, 2010
p220
aVSAC @ GSW
p221
aVL
p222
aI14
aI2
aI3
aF0.667
aI0
aI0
aF0.0
aI0
aI1
aF0.0
aI2
aI4
aI6
aI0
aI0
aI0
aI0
aI2
aI4
aI-4
aa(lp223
V0020901102
p224
aVMAR 30, 2010
p225
aVSAC @ IND
p226
aVL
p227
aI9
aI1
aI1
aF1.0
aI0
aI0
aF0.0
aI0
aI0
aF0.0
aI1
aI2
aI3
aI0
aI0
aI0
aI1
aI2
aI2
aI3
aa(lp228
V0020901115
p229
aVMAR 31, 2010
p230
aVSAC @ MIN
p231
aVL
p232
aI13
aI1
aI1
aF1.0
aI0
aI0
aF0.0
aI0
aI1
aF0.0
aI0
aI2
aI2
aI1
aI0
aI0
aI0
aI1
aI2
aI-5
aa(lp233
V0020901140
p234
aVAPR 03, 2010
p235
aVSAC vs. POR
p236
aVL
p237
aI3
aI0
aI0
aF0.0
aI0
aI0
aF0.0
aI0
aI0
aF0.0
aI0
aI0
aI0
aI0
aI1
aI0
aI0
aI0
aI0
aI0
aa(lp238
V0020901157
p239
aVAPR 06, 2010
p240
aVSAC vs. SAS
p241
aVL
p242
aI0
aI0
aI0
aF0.0
aI0
aI0
aF0.0
aI0
aI0
aF0.0
aI0
aI0
aI0
aI0
aI0
aI0
aI0
aI0
aI0
aI-2
aa(lp243
V0020901172
p244
aVAPR 08, 2010
p245
aVSAC vs. LAC
p246
aVW
p247
aI8
aI0
aI0
aF0.0
aI0
aI0
aF0.0
aI0
aI0
aF0.0
aI1
aI1
aI2
aI0
aI0
aI0
aI2
aI1
aI0
aI8
aa(lp248
V0020901193
p249
aVAPR 10, 2010
p250
aVSAC vs. DAL
p251
aVL
p252
aI6
aI1
aI1
aF1.0
aI0
aI0
aF0.0
aI0
aI0
aF0.0
aI1
aI1
aI2
aI0
aI0
aI0
aI0
aI2
aI2
aI2
aa(lp253
V0020901211
p254
aVAPR 12, 2010
p255
aVSAC vs. HOU
p256
aVL
p257
aI4
aI1
aI1
aF1.0
aI0
aI0
aF0.0
aI1
aI1
aF1.0
aI0
aI1
aI1
aI0
aI0
aI0
aI0
aI0
aI3
aI-4
aa(lp258
V0020901215
p259
aVAPR 13, 2010
p260
aVSAC @ LAL
p261
aVL
p262
aI12
aI3
aI5
aF0.6
aI0
aI0
aF0.0
aI0
aI0
aF0.0
aI2
aI0
aI2
aI1
aI0
aI0
aI0
aI3
aI6
aI7
aasS'name'
p263
VJon Brockman
p264
sS'weight'
p265
V255
p266
sS'age'
p267
I22
sS'experience'
p268
I0
sS'height'
p269
V6-7
p270
sS'position'
p271
VForward
p272
s.