(dp0
S'stats'
p1
(lp2
(lp3
V0020900762
p4
aVFEB 09, 2010
p5
aVHOU @ MIA
p6
aVL
p7
aI14
aI1
aI4
aF0.25
aI0
aI2
aF0.0
aI0
aI0
aF0.0
aI1
aI2
aI3
aI0
aI0
aI0
aI0
aI3
aI2
aI-10
aa(lp8
V0020900787
p9
aVFEB 16, 2010
p10
aVHOU vs. UTA
p11
aVL
p12
aI17
aI2
aI3
aF0.667
aI0
aI0
aF0.0
aI1
aI2
aF0.5
aI0
aI1
aI1
aI1
aI1
aI1
aI2
aI3
aI5
aI4
aa(lp13
V0020900797
p14
aVFEB 17, 2010
p15
aVHOU @ MIL
p16
aVW
p17
aI19
aI3
aI5
aF0.6
aI0
aI1
aF0.0
aI5
aI7
aF0.714
aI1
aI2
aI3
aI1
aI0
aI1
aI2
aI0
aI11
aI-1
aa(lp18
V0020900820
p19
aVFEB 20, 2010
p20
aVHOU vs. IND
p21
aVL
p22
aI8
aI2
aI3
aF0.667
aI2
aI3
aF0.667
aI1
aI4
aF0.25
aI0
aI0
aI0
aI1
aI1
aI0
aI1
aI0
aI7
aI-1
aa(lp23
V0020900828
p24
aVFEB 21, 2010
p25
aVHOU @ NOH
p26
aVL
p27
aI12
aI1
aI4
aF0.25
aI0
aI2
aF0.0
aI0
aI0
aF0.0
aI0
aI1
aI1
aI0
aI0
aI1
aI4
aI1
aI2
aI-6
aa(lp28
V0020900850
p29
aVFEB 24, 2010
p30
aVHOU vs. ORL
p31
aVL
p32
aI8
aI0
aI0
aF0.0
aI0
aI0
aF0.0
aI0
aI0
aF0.0
aI0
aI2
aI2
aI1
aI0
aI1
aI2
aI1
aI0
aI-5
aa(lp33
V0020900866
p34
aVFEB 26, 2010
p35
aVHOU vs. SAS
p36
aVW
p37
aI5
aI0
aI0
aF0.0
aI0
aI0
aF0.0
aI0
aI0
aF0.0
aI0
aI0
aI0
aI0
aI0
aI0
aI0
aI1
aI0
aI-10
aa(lp38
V0020900876
p39
aVFEB 27, 2010
p40
aVHOU @ UTA
p41
aVL
p42
aI18
aI3
aI7
aF0.429
aI0
aI3
aF0.0
aI5
aI7
aF0.714
aI0
aI1
aI1
aI0
aI2
aI0
aI1
aI3
aI11
aI-1
aa(lp43
V0020900892
p44
aVMAR 01, 2010
p45
aVHOU vs. TOR
p46
aVW
p47
aI18
aI1
aI3
aF0.333
aI1
aI1
aF1.0
aI4
aI4
aF1.0
aI0
aI3
aI3
aI3
aI0
aI0
aI2
aI4
aI7
aI-7
aa(lp48
V0020900907
p49
aVMAR 03, 2010
p50
aVSAC @ HOU
p51
aVW
p52
aI0
aI0
aI0
aF0.0
aI0
aI0
aF0.0
aI0
aI0
aF0.0
aI0
aI0
aI0
aI0
aI0
aI0
aI0
aI0
aI0
aI3
aa(lp53
V0020900921
p54
aVMAR 05, 2010
p55
aVSAC @ DAL
p56
aVL
p57
aI8
aI1
aI2
aF0.5
aI0
aI0
aF0.0
aI1
aI1
aF1.0
aI0
aI1
aI1
aI1
aI0
aI0
aI0
aI0
aI3
aI5
aa(lp58
V0020900951
p59
aVMAR 09, 2010
p60
aVSAC @ POR
p61
aVL
p62
aI7
aI1
aI3
aF0.333
aI0
aI1
aF0.0
aI2
aI2
aF1.0
aI1
aI0
aI1
aI0
aI0
aI0
aI1
aI0
aI4
aI-9
aa(lp63
V0020900961
p64
aVMAR 10, 2010
p65
aVSAC vs. TOR
p66
aVW
p67
aI1
aI0
aI1
aF0.0
aI0
aI0
aF0.0
aI0
aI0
aF0.0
aI0
aI0
aI0
aI0
aI0
aI0
aI0
aI0
aI0
aI-2
aa(lp68
V0020900975
p69
aVMAR 12, 2010
p70
aVSAC vs. POR
p71
aVL
p72
aI6
aI1
aI2
aF0.5
aI0
aI1
aF0.0
aI2
aI2
aF1.0
aI0
aI1
aI1
aI1
aI1
aI0
aI1
aI1
aI4
aI2
aa(lp73
V0020901010
p74
aVMAR 17, 2010
p75
aVSAS @ ORL
p76
aVL
p77
aI13
aI1
aI4
aF0.25
aI0
aI0
aF0.0
aI0
aI0
aF0.0
aI0
aI0
aI0
aI0
aI0
aI0
aI0
aI3
aI2
aI-8
aa(lp78
V0020901024
p79
aVMAR 19, 2010
p80
aVSAS vs. GSW
p81
aVW
p82
aI20
aI3
aI8
aF0.375
aI1
aI2
aF0.5
aI2
aI3
aF0.667
aI0
aI0
aI0
aI1
aI1
aI0
aI0
aI0
aI9
aI10
aa(lp83
V0020901066
p84
aVMAR 24, 2010
p85
aVSAS vs. LAL
p86
aVL
p87
aI1
aI0
aI1
aF0.0
aI0
aI0
aF0.0
aI2
aI2
aF1.0
aI0
aI0
aI0
aI0
aI0
aI0
aI0
aI0
aI2
aI2
aa(lp88
V0020901095
p89
aVMAR 28, 2010
p90
aVSAS @ BOS
p91
aVW
p92
aI3
aI0
aI1
aF0.0
aI0
aI1
aF0.0
aI0
aI0
aF0.0
aI0
aI0
aI0
aI0
aI0
aI0
aI1
aI1
aI0
aI-2
aa(lp93
V0020901098
p94
aVMAR 29, 2010
p95
aVSAS @ NJN
p96
aVL
p97
aI12
aI1
aI4
aF0.25
aI1
aI1
aF1.0
aI0
aI0
aF0.0
aI0
aI0
aI0
aI1
aI0
aI0
aI0
aI0
aI3
aI0
aa(lp98
V0020901117
p99
aVMAR 31, 2010
p100
aVSAS vs. HOU
p101
aVW
p102
aI8
aI0
aI1
aF0.0
aI0
aI0
aF0.0
aI0
aI0
aF0.0
aI0
aI0
aI0
aI0
aI0
aI0
aI1
aI1
aI0
aI-3
aa(lp103
V0020901142
p104
aVAPR 04, 2010
p105
aVSAS @ LAL
p106
aVW
p107
aI1
aI0
aI0
aF0.0
aI0
aI0
aF0.0
aI0
aI0
aF0.0
aI0
aI0
aI0
aI0
aI0
aI0
aI0
aI0
aI0
aI2
aa(lp108
V0020901157
p109
aVAPR 06, 2010
p110
aVSAS @ SAC
p111
aVW
p112
aI27
aI5
aI8
aF0.625
aI1
aI2
aF0.5
aI4
aI4
aF1.0
aI0
aI3
aI3
aI4
aI0
aI0
aI1
aI4
aI15
aI9
aa(lp113
V0020901170
p114
aVAPR 07, 2010
p115
aVSAS @ PHX
p116
aVL
p117
aI23
aI4
aI9
aF0.444
aI1
aI3
aF0.333
aI2
aI4
aF0.5
aI0
aI2
aI2
aI0
aI1
aI0
aI3
aI3
aI11
aI6
aa(lp118
V0020901185
p119
aVAPR 09, 2010
p120
aVSAS vs. MEM
p121
aVL
p122
aI26
aI3
aI7
aF0.429
aI2
aI4
aF0.5
aI0
aI0
aF0.0
aI1
aI3
aI4
aI2
aI2
aI0
aI2
aI1
aI8
aI10
aa(lp123
V0020901192
p124
aVAPR 10, 2010
p125
aVSAS @ DEN
p126
aVW
p127
aI20
aI3
aI5
aF0.6
aI3
aI4
aF0.75
aI2
aI4
aF0.5
aI2
aI2
aI4
aI0
aI2
aI0
aI1
aI5
aI11
aI13
aa(lp128
V0020901208
p129
aVAPR 12, 2010
p130
aVSAS vs. MIN
p131
aVW
p132
aI12
aI2
aI3
aF0.667
aI0
aI0
aF0.0
aI1
aI2
aF0.5
aI0
aI1
aI1
aI1
aI1
aI0
aI0
aI1
aI5
aI-2
aa(lp133
V0020901220
p134
aVAPR 14, 2010
p135
aVSAS @ DAL
p136
aVL
p137
aI25
aI6
aI13
aF0.462
aI1
aI6
aF0.167
aI1
aI2
aF0.5
aI0
aI0
aI0
aI3
aI1
aI2
aI2
aI6
aI14
aI-3
aasS'name'
p138
VGarrett Temple
p139
sS'weight'
p140
V195
p141
sS'age'
p142
I23
sS'experience'
p143
I0
sS'height'
p144
V6-6
p145
sS'position'
p146
VGuard
p147
s.