(dp0
S'age'
p1
I32
sS'stats'
p2
(lp3
(lp4
V0020900012
p5
aVOCT 28, 2009
p6
aVSAC @ OKC
p7
aVL
p8
aI17
aI1
aI4
aF0.25
aI0
aI0
aF0.0
aI0
aI0
aF0.0
aI0
aI2
aI2
aI0
aI0
aI0
aI1
aI2
aI2
aI-18
aa(lp9
V0020900028
p10
aVOCT 30, 2009
p11
aVSAC @ NOH
p12
aVL
p13
aI18
aI2
aI5
aF0.4
aI0
aI0
aF0.0
aI0
aI0
aF0.0
aI2
aI4
aI6
aI1
aI0
aI1
aI1
aI1
aI4
aI7
aa(lp14
V0020900037
p15
aVOCT 31, 2009
p16
aVSAC @ SAS
p17
aVL
p18
aI21
aI2
aI3
aF0.667
aI0
aI0
aF0.0
aI3
aI4
aF0.75
aI2
aI3
aI5
aI1
aI1
aI0
aI2
aI1
aI7
aI-14
aa(lp19
V0020900049
p20
aVNOV 02, 2009
p21
aVSAC vs. MEM
p22
aVW
p23
aI7
aI0
aI0
aF0.0
aI0
aI0
aF0.0
aI0
aI0
aF0.0
aI0
aI0
aI0
aI0
aI0
aI0
aI0
aI0
aI0
aI-10
aa(lp24
V0020900068
p25
aVNOV 04, 2009
p26
aVSAC vs. ATL
p27
aVL
p28
aI3
aI0
aI0
aF0.0
aI0
aI0
aF0.0
aI0
aI0
aF0.0
aI0
aI0
aI0
aI0
aI0
aI0
aI0
aI1
aI0
aI-6
aasS'name'
p29
VDesmond Mason
p30
sS'experience'
p31
I9
s.