(dp0
S'age'
p1
I29
sS'stats'
p2
(lp3
(lp4
V0020900009
p5
aVOCT 28, 2009
p6
aVMIA vs. NYK
p7
aVW
p8
aI17
aI2
aI2
aF1.0
aI1
aI1
aF1.0
aI0
aI0
aF0.0
aI1
aI1
aI2
aI1
aI0
aI0
aI0
aI1
aI5
aI24
aa(lp9
V0020900024
p10
aVOCT 30, 2009
p11
aVMIA @ IND
p12
aVW
p13
aI28
aI1
aI2
aF0.5
aI0
aI1
aF0.0
aI0
aI0
aF0.0
aI0
aI1
aI1
aI2
aI0
aI0
aI1
aI4
aI2
aI14
aa(lp14
V0020900041
p15
aVNOV 01, 2009
p16
aVMIA vs. CHI
p17
aVW
p18
aI27
aI2
aI6
aF0.333
aI2
aI5
aF0.4
aI0
aI0
aF0.0
aI0
aI4
aI4
aI2
aI2
aI0
aI0
aI2
aI6
aI5
aa(lp19
V0020900055
p20
aVNOV 03, 2009
p21
aVMIA vs. PHX
p22
aVL
p23
aI38
aI7
aI17
aF0.412
aI4
aI9
aF0.444
aI0
aI0
aF0.0
aI6
aI4
aI10
aI2
aI2
aI1
aI1
aI2
aI18
aI-7
aa(lp24
V0020900062
p25
aVNOV 04, 2009
p26
aVMIA @ WAS
p27
aVW
p28
aI43
aI7
aI10
aF0.7
aI5
aI7
aF0.714
aI0
aI0
aF0.0
aI0
aI9
aI9
aI1
aI0
aI0
aI3
aI2
aI19
aI12
aa(lp29
V0020900077
p30
aVNOV 06, 2009
p31
aVMIA vs. DEN
p32
aVW
p33
aI38
aI6
aI15
aF0.4
aI1
aI7
aF0.143
aI0
aI0
aF0.0
aI2
aI7
aI9
aI2
aI0
aI0
aI1
aI4
aI13
aI10
aa(lp34
V0020900104
p35
aVNOV 10, 2009
p36
aVMIA vs. WAS
p37
aVW
p38
aI33
aI0
aI2
aF0.0
aI0
aI1
aF0.0
aI0
aI0
aF0.0
aI0
aI5
aI5
aI1
aI1
aI0
aI3
aI5
aI0
aI18
aa(lp39
V0020900122
p40
aVNOV 12, 2009
p41
aVMIA vs. CLE
p42
aVL
p43
aI27
aI0
aI2
aF0.0
aI0
aI2
aF0.0
aI0
aI0
aF0.0
aI0
aI2
aI2
aI0
aI1
aI0
aI1
aI5
aI0
aI-7
aa(lp44
V0020900138
p45
aVNOV 14, 2009
p46
aVMIA vs. NJN
p47
aVW
p48
aI23
aI5
aI8
aF0.625
aI3
aI5
aF0.6
aI0
aI0
aF0.0
aI1
aI4
aI5
aI1
aI0
aI0
aI0
aI3
aI13
aI-1
aa(lp49
V0020900151
p50
aVNOV 17, 2009
p51
aVMIA vs. OKC
p52
aVL
p53
aI18
aI1
aI3
aF0.333
aI0
aI1
aF0.0
aI0
aI0
aF0.0
aI0
aI1
aI1
aI1
aI0
aI0
aI1
aI1
aI2
aI-11
aa(lp54
V0020900158
p55
aVNOV 18, 2009
p56
aVMIA @ ATL
p57
aVL
p58
aI21
aI2
aI3
aF0.667
aI2
aI3
aF0.667
aI0
aI0
aF0.0
aI0
aI4
aI4
aI1
aI0
aI0
aI1
aI3
aI6
aI-17
aa(lp59
V0020900242
p60
aVNOV 29, 2009
p61
aVMIA vs. BOS
p62
aVL
p63
aI9
aI0
aI2
aF0.0
aI0
aI1
aF0.0
aI0
aI0
aF0.0
aI0
aI2
aI2
aI0
aI0
aI0
aI1
aI0
aI0
aI0
aa(lp64
V0020900257
p65
aVDEC 01, 2009
p66
aVMIA @ POR
p67
aVW
p68
aI40
aI8
aI15
aF0.533
aI4
aI10
aF0.4
aI0
aI0
aF0.0
aI0
aI9
aI9
aI2
aI1
aI1
aI0
aI3
aI20
aI6
aa(lp69
V0020900270
p70
aVDEC 03, 2009
p71
aVMIA @ DEN
p72
aVL
p73
aI30
aI1
aI4
aF0.25
aI1
aI3
aF0.333
aI0
aI1
aF0.0
aI0
aI4
aI4
aI2
aI2
aI1
aI1
aI3
aI3
aI-17
aa(lp74
V0020900281
p75
aVDEC 04, 2009
p76
aVMIA @ LAL
p77
aVL
p78
aI38
aI4
aI8
aF0.5
aI1
aI2
aF0.5
aI4
aI4
aF1.0
aI2
aI6
aI8
aI2
aI2
aI0
aI2
aI2
aI13
aI9
aa(lp79
V0020900294
p80
aVDEC 06, 2009
p81
aVMIA @ SAC
p82
aVW
p83
aI36
aI7
aI15
aF0.467
aI5
aI12
aF0.417
aI1
aI2
aF0.5
aI0
aI5
aI5
aI2
aI0
aI1
aI2
aI3
aI20
aI15
aa(lp84
V0020900323
p85
aVDEC 11, 2009
p86
aVMIA vs. DAL
p87
aVL
p88
aI7
aI0
aI2
aF0.0
aI0
aI2
aF0.0
aI0
aI0
aF0.0
aI0
aI0
aI0
aI0
aI0
aI0
aI0
aI0
aI0
aI-12
aa(lp89
V0020900371
p90
aVDEC 17, 2009
p91
aVMIA vs. ORL
p92
aVW
p93
aI21
aI4
aI9
aF0.444
aI3
aI7
aF0.429
aI0
aI0
aF0.0
aI0
aI4
aI4
aI1
aI0
aI0
aI1
aI0
aI11
aI15
aa(lp94
V0020900397
p95
aVDEC 20, 2009
p96
aVMIA vs. POR
p97
aVL
p98
aI33
aI7
aI7
aF1.0
aI7
aI7
aF1.0
aI1
aI2
aF0.5
aI0
aI4
aI4
aI1
aI1
aI0
aI0
aI0
aI22
aI-14
aa(lp99
V0020900416
p100
aVDEC 23, 2009
p101
aVMIA vs. UTA
p102
aVW
p103
aI31
aI4
aI8
aF0.5
aI2
aI5
aF0.4
aI1
aI2
aF0.5
aI2
aI5
aI7
aI1
aI0
aI0
aI0
aI2
aI11
aI17
aa(lp104
V0020900424
p105
aVDEC 25, 2009
p106
aVMIA @ NYK
p107
aVW
p108
aI31
aI3
aI10
aF0.3
aI1
aI7
aF0.143
aI1
aI1
aF1.0
aI1
aI0
aI1
aI1
aI0
aI0
aI1
aI5
aI8
aI9
aa(lp109
V0020900441
p110
aVDEC 27, 2009
p111
aVMIA vs. IND
p112
aVW
p113
aI27
aI3
aI7
aF0.429
aI0
aI1
aF0.0
aI2
aI2
aF1.0
aI1
aI8
aI9
aI2
aI3
aI1
aI2
aI0
aI8
aI41
aa(lp114
V0020900465
p115
aVDEC 30, 2009
p116
aVMIA @ NOH
p117
aVL
p118
aI34
aI5
aI14
aF0.357
aI4
aI9
aF0.444
aI0
aI0
aF0.0
aI2
aI6
aI8
aI2
aI1
aI0
aI1
aI2
aI14
aI-10
aa(lp119
V0020900471
p120
aVDEC 31, 2009
p121
aVMIA @ SAS
p122
aVL
p123
aI24
aI0
aI3
aF0.0
aI0
aI3
aF0.0
aI0
aI0
aF0.0
aI0
aI3
aI3
aI0
aI1
aI1
aI0
aI3
aI0
aI-6
aa(lp124
V0020900478
p125
aVJAN 02, 2010
p126
aVMIA vs. CHA
p127
aVL
p128
aI43
aI7
aI15
aF0.467
aI6
aI12
aF0.5
aI0
aI0
aF0.0
aI0
aI5
aI5
aI0
aI1
aI0
aI3
aI3
aI20
aI-2
aa(lp129
V0020900494
p130
aVJAN 04, 2010
p131
aVMIA vs. ATL
p132
aVW
p133
aI27
aI1
aI7
aF0.143
aI1
aI4
aF0.25
aI5
aI6
aF0.833
aI1
aI9
aI10
aI0
aI0
aI0
aI3
aI3
aI8
aI6
aa(lp134
V0020900510
p135
aVJAN 06, 2010
p136
aVMIA vs. BOS
p137
aVL
p138
aI36
aI1
aI6
aF0.167
aI1
aI5
aF0.2
aI1
aI2
aF0.5
aI1
aI5
aI6
aI3
aI1
aI0
aI1
aI4
aI4
aI-10
aa(lp139
V0020900526
p140
aVJAN 08, 2010
p141
aVMIA @ PHX
p142
aVW
p143
aI20
aI0
aI3
aF0.0
aI0
aI1
aF0.0
aI2
aI2
aF1.0
aI0
aI3
aI3
aI0
aI0
aI1
aI0
aI2
aI2
aI-10
aa(lp144
V0020900540
p145
aVJAN 10, 2010
p146
aVMIA @ LAC
p147
aVL
p148
aI28
aI1
aI7
aF0.143
aI0
aI3
aF0.0
aI2
aI2
aF1.0
aI2
aI5
aI7
aI3
aI2
aI1
aI0
aI1
aI4
aI-7
aa(lp149
V0020900551
p150
aVJAN 11, 2010
p151
aVMIA @ UTA
p152
aVL
p153
aI27
aI3
aI6
aF0.5
aI2
aI3
aF0.667
aI0
aI0
aF0.0
aI1
aI3
aI4
aI1
aI1
aI0
aI2
aI0
aI8
aI-15
aa(lp154
V0020900568
p155
aVJAN 13, 2010
p156
aVMIA @ GSW
p157
aVW
p158
aI20
aI4
aI7
aF0.571
aI3
aI6
aF0.5
aI0
aI0
aF0.0
aI0
aI2
aI2
aI0
aI1
aI0
aI0
aI4
aI11
aI7
aa(lp159
V0020900580
p160
aVJAN 15, 2010
p161
aVMIA @ HOU
p162
aVW
p163
aI24
aI4
aI8
aF0.5
aI3
aI7
aF0.429
aI4
aI4
aF1.0
aI0
aI4
aI4
aI0
aI0
aI0
aI0
aI1
aI15
aI-5
aa(lp164
V0020900589
p165
aVJAN 16, 2010
p166
aVMIA @ OKC
p167
aVL
p168
aI16
aI0
aI3
aF0.0
aI0
aI0
aF0.0
aI0
aI0
aF0.0
aI0
aI3
aI3
aI0
aI0
aI0
aI1
aI4
aI0
aI-10
aa(lp169
V0020900607
p170
aVJAN 19, 2010
p171
aVMIA vs. IND
p172
aVW
p173
aI26
aI2
aI4
aF0.5
aI1
aI3
aF0.333
aI0
aI0
aF0.0
aI1
aI6
aI7
aI0
aI1
aI0
aI1
aI3
aI5
aI16
aa(lp174
V0020900609
p175
aVJAN 20, 2010
p176
aVMIA @ CHA
p177
aVL
p178
aI15
aI1
aI6
aF0.167
aI1
aI4
aF0.25
aI1
aI2
aF0.5
aI1
aI1
aI2
aI1
aI3
aI0
aI0
aI4
aI4
aI-22
aa(lp179
V0020900626
p180
aVJAN 22, 2010
p181
aVMIA @ WAS
p182
aVW
p183
aI21
aI2
aI4
aF0.5
aI2
aI4
aF0.5
aI0
aI0
aF0.0
aI0
aI3
aI3
aI0
aI0
aI0
aI0
aI4
aI6
aI11
aa(lp184
V0020900640
p185
aVJAN 23, 2010
p186
aVMIA vs. SAC
p187
aVW
p188
aI25
aI3
aI4
aF0.75
aI1
aI2
aF0.5
aI2
aI4
aF0.5
aI0
aI3
aI3
aI3
aI0
aI1
aI0
aI2
aI9
aI29
aa(lp189
V0020900651
p190
aVJAN 25, 2010
p191
aVMIA vs. CLE
p192
aVL
p193
aI36
aI1
aI5
aF0.2
aI0
aI3
aF0.0
aI0
aI0
aF0.0
aI0
aI2
aI2
aI0
aI1
aI0
aI1
aI3
aI2
aI8
aa(lp194
V0020900665
p195
aVJAN 27, 2010
p196
aVMIA @ TOR
p197
aVL
p198
aI24
aI2
aI7
aF0.286
aI1
aI5
aF0.2
aI0
aI0
aF0.0
aI1
aI2
aI3
aI1
aI3
aI0
aI0
aI1
aI5
aI8
aa(lp199
V0020900680
p200
aVJAN 29, 2010
p201
aVMIA @ DET
p202
aVW
p203
aI21
aI3
aI7
aF0.429
aI1
aI3
aF0.333
aI0
aI0
aF0.0
aI2
aI1
aI3
aI3
aI0
aI0
aI0
aI0
aI7
aI17
aa(lp204
V0020900693
p205
aVJAN 30, 2010
p206
aVMIA @ MIL
p207
aVL
p208
aI37
aI6
aI10
aF0.6
aI3
aI6
aF0.5
aI1
aI2
aF0.5
aI2
aI4
aI6
aI2
aI2
aI1
aI1
aI0
aI16
aI-1
aa(lp209
V0020900705
p210
aVFEB 01, 2010
p211
aVMIA vs. MIL
p212
aVL
p213
aI32
aI1
aI6
aF0.167
aI1
aI4
aF0.25
aI0
aI0
aF0.0
aI1
aI2
aI3
aI1
aI2
aI0
aI0
aI1
aI3
aI-3
aa(lp214
V0020900722
p215
aVFEB 03, 2010
p216
aVMIA @ BOS
p217
aVL
p218
aI34
aI4
aI7
aF0.571
aI2
aI5
aF0.4
aI2
aI2
aF1.0
aI2
aI3
aI5
aI3
aI1
aI0
aI1
aI3
aI12
aI0
aa(lp219
V0020900729
p220
aVFEB 04, 2010
p221
aVMIA @ CLE
p222
aVL
p223
aI28
aI0
aI7
aF0.0
aI0
aI3
aF0.0
aI0
aI0
aF0.0
aI0
aI2
aI2
aI0
aI0
aI0
aI0
aI2
aI0
aI-11
aa(lp224
V0020900745
p225
aVFEB 06, 2010
p226
aVMIA @ CHI
p227
aVL
p228
aI37
aI5
aI13
aF0.385
aI3
aI8
aF0.375
aI0
aI0
aF0.0
aI0
aI5
aI5
aI1
aI0
aI1
aI2
aI3
aI13
aI3
aa(lp229
V0020900762
p230
aVFEB 09, 2010
p231
aVMIA vs. HOU
p232
aVW
p233
aI14
aI1
aI2
aF0.5
aI1
aI1
aF1.0
aI2
aI2
aF1.0
aI0
aI0
aI0
aI1
aI1
aI0
aI0
aI3
aI5
aI-1
aa(lp234
V0020900769
p235
aVFEB 10, 2010
p236
aVMIA @ ATL
p237
aVW
p238
aI17
aI1
aI5
aF0.2
aI0
aI2
aF0.0
aI0
aI0
aF0.0
aI2
aI2
aI4
aI0
aI0
aI0
aI0
aI1
aI2
aI-9
aa(lp239
V0020900782
p240
aVFEB 16, 2010
p241
aVMIA @ PHI
p242
aVW
p243
aI23
aI4
aI8
aF0.5
aI1
aI3
aF0.333
aI1
aI2
aF0.5
aI3
aI7
aI10
aI2
aI1
aI0
aI0
aI4
aI10
aI19
aa(lp244
V0020900795
p245
aVFEB 17, 2010
p246
aVMIA @ NJN
p247
aVW
p248
aI34
aI6
aI12
aF0.5
aI2
aI3
aF0.667
aI2
aI2
aF1.0
aI5
aI9
aI14
aI0
aI1
aI0
aI1
aI1
aI16
aI3
aa(lp249
V0020900808
p250
aVFEB 19, 2010
p251
aVMIA @ MEM
p252
aVW
p253
aI41
aI3
aI8
aF0.375
aI2
aI6
aF0.333
aI0
aI2
aF0.0
aI1
aI8
aI9
aI3
aI2
aI1
aI0
aI2
aI8
aI10
aa(lp254
V0020900819
p255
aVFEB 20, 2010
p256
aVMIA @ DAL
p257
aVL
p258
aI28
aI3
aI8
aF0.375
aI2
aI6
aF0.333
aI0
aI0
aF0.0
aI1
aI1
aI2
aI1
aI1
aI0
aI0
aI3
aI8
aI-17
aa(lp259
V0020900839
p260
aVFEB 23, 2010
p261
aVMIA vs. MIN
p262
aVL
p263
aI26
aI1
aI5
aF0.2
aI0
aI2
aF0.0
aI3
aI3
aF1.0
aI0
aI4
aI4
aI0
aI1
aI1
aI1
aI0
aI5
aI0
aa(lp264
V0020900872
p265
aVFEB 27, 2010
p266
aVMIA vs. MIL
p267
aVL
p268
aI10
aI1
aI1
aF1.0
aI0
aI0
aF0.0
aI0
aI0
aF0.0
aI1
aI2
aI3
aI0
aI0
aI0
aI1
aI0
aI2
aI-6
aa(lp269
V0020900883
p270
aVFEB 28, 2010
p271
aVMIA @ ORL
p272
aVL
p273
aI31
aI2
aI6
aF0.333
aI0
aI2
aF0.0
aI0
aI0
aF0.0
aI3
aI7
aI10
aI1
aI0
aI0
aI1
aI4
aI4
aI-9
aa(lp274
V0020900896
p275
aVMAR 02, 2010
p276
aVMIA vs. GSW
p277
aVW
p278
aI35
aI6
aI8
aF0.75
aI2
aI3
aF0.667
aI1
aI2
aF0.5
aI2
aI5
aI7
aI1
aI2
aI0
aI2
aI3
aI15
aI12
aa(lp279
V0020900912
p280
aVMAR 04, 2010
p281
aVMIA vs. LAL
p282
aVW
p283
aI37
aI8
aI13
aF0.615
aI7
aI11
aF0.636
aI2
aI2
aF1.0
aI1
aI4
aI5
aI0
aI3
aI1
aI0
aI3
aI25
aI2
aa(lp284
V0020900926
p285
aVMAR 06, 2010
p286
aVMIA vs. ATL
p287
aVW
p288
aI39
aI7
aI14
aF0.5
aI5
aI12
aF0.417
aI3
aI4
aF0.75
aI1
aI10
aI11
aI2
aI2
aI0
aI1
aI2
aI22
aI11
aa(lp289
V0020900945
p290
aVMAR 09, 2010
p291
aVMIA @ CHA
p292
aVL
p293
aI31
aI2
aI8
aF0.25
aI2
aI7
aF0.286
aI1
aI2
aF0.5
aI0
aI2
aI2
aI0
aI0
aI0
aI0
aI4
aI7
aI-3
aa(lp294
V0020900956
p295
aVMAR 10, 2010
p296
aVMIA vs. LAC
p297
aVW
p298
aI26
aI3
aI8
aF0.375
aI2
aI6
aF0.333
aI0
aI0
aF0.0
aI0
aI6
aI6
aI1
aI1
aI0
aI2
aI2
aI8
aI17
aa(lp299
V0020900967
p300
aVMAR 12, 2010
p301
aVMIA vs. CHI
p302
aVW
p303
aI34
aI8
aI12
aF0.667
aI7
aI11
aF0.636
aI0
aI1
aF0.0
aI1
aI6
aI7
aI2
aI0
aI1
aI0
aI1
aI23
aI22
aa(lp304
V0020900985
p305
aVMAR 14, 2010
p306
aVMIA vs. PHI
p307
aVW
p308
aI32
aI2
aI8
aF0.25
aI2
aI7
aF0.286
aI2
aI2
aF1.0
aI0
aI3
aI3
aI4
aI4
aI0
aI0
aI4
aI8
aI15
aa(lp309
V0020900999
p310
aVMAR 16, 2010
p311
aVMIA vs. SAS
p312
aVL
p313
aI20
aI0
aI3
aF0.0
aI0
aI2
aF0.0
aI0
aI0
aF0.0
aI0
aI3
aI3
aI0
aI2
aI0
aI1
aI3
aI0
aI-13
aa(lp314
V0020901016
p315
aVMAR 18, 2010
p316
aVMIA vs. ORL
p317
aVL
p318
aI20
aI3
aI8
aF0.375
aI2
aI5
aF0.4
aI0
aI0
aF0.0
aI0
aI1
aI1
aI1
aI1
aI0
aI1
aI1
aI8
aI-7
aa(lp319
V0020901030
p320
aVMAR 20, 2010
p321
aVMIA vs. CHA
p322
aVW
p323
aI27
aI6
aI14
aF0.429
aI6
aI12
aF0.5
aI0
aI0
aF0.0
aI0
aI5
aI5
aI0
aI1
aI1
aI2
aI3
aI18
aI14
aa(lp324
V0020901044
p325
aVMAR 22, 2010
p326
aVMIA @ NJN
p327
aVW
p328
aI27
aI2
aI7
aF0.286
aI2
aI7
aF0.286
aI0
aI0
aF0.0
aI1
aI5
aI6
aI0
aI0
aI0
aI0
aI1
aI6
aI10
aa(lp329
V0020901068
p330
aVMAR 25, 2010
p331
aVMIA @ CHI
p332
aVW
p333
aI25
aI4
aI8
aF0.5
aI0
aI3
aF0.0
aI1
aI1
aF1.0
aI2
aI6
aI8
aI0
aI0
aI0
aI0
aI3
aI9
aI21
aa(lp334
V0020901079
p335
aVMAR 26, 2010
p336
aVMIA @ MIL
p337
aVW
p338
aI23
aI1
aI5
aF0.2
aI0
aI4
aF0.0
aI0
aI0
aF0.0
aI0
aI3
aI3
aI1
aI0
aI0
aI1
aI3
aI2
aI8
aa(lp339
V0020901091
p340
aVMAR 28, 2010
p341
aVMIA vs. TOR
p342
aVW
p343
aI28
aI3
aI9
aF0.333
aI1
aI5
aF0.2
aI0
aI0
aF0.0
aI0
aI9
aI9
aI2
aI1
aI0
aI1
aI2
aI7
aI0
aa(lp344
V0020901112
p345
aVMAR 31, 2010
p346
aVMIA @ DET
p347
aVW
p348
aI24
aI6
aI9
aF0.667
aI4
aI5
aF0.8
aI0
aI0
aF0.0
aI1
aI6
aI7
aI2
aI1
aI0
aI1
aI1
aI16
aI0
aa(lp349
V0020901123
p350
aVAPR 02, 2010
p351
aVMIA @ IND
p352
aVW
p353
aI25
aI3
aI7
aF0.429
aI1
aI4
aF0.25
aI0
aI0
aF0.0
aI1
aI1
aI2
aI0
aI0
aI0
aI0
aI3
aI7
aI5
aa(lp354
V0020901136
p355
aVAPR 03, 2010
p356
aVMIA @ MIN
p357
aVW
p358
aI25
aI5
aI6
aF0.833
aI4
aI5
aF0.8
aI0
aI0
aF0.0
aI0
aI2
aI2
aI2
aI2
aI0
aI3
aI2
aI14
aI7
aa(lp359
V0020901161
p360
aVAPR 07, 2010
p361
aVMIA vs. PHI
p362
aVW
p363
aI25
aI4
aI7
aF0.571
aI1
aI3
aF0.333
aI0
aI0
aF0.0
aI1
aI5
aI6
aI3
aI4
aI0
aI0
aI1
aI9
aI-1
aa(lp364
V0020901179
p365
aVAPR 09, 2010
p366
aVMIA vs. DET
p367
aVL
p368
aI23
aI4
aI8
aF0.5
aI1
aI3
aF0.333
aI0
aI1
aF0.0
aI0
aI3
aI3
aI3
aI1
aI0
aI0
aI1
aI9
aI-13
aa(lp369
V0020901199
p370
aVAPR 11, 2010
p371
aVMIA @ NYK
p372
aVW
p373
aI25
aI5
aI8
aF0.625
aI4
aI7
aF0.571
aI0
aI0
aF0.0
aI0
aI1
aI1
aI3
aI1
aI0
aI1
aI3
aI14
aI9
aa(lp374
V0020901203
p375
aVAPR 12, 2010
p376
aVMIA @ PHI
p377
aVW
p378
aI30
aI5
aI13
aF0.385
aI2
aI6
aF0.333
aI3
aI3
aF1.0
aI2
aI10
aI12
aI4
aI0
aI1
aI1
aI1
aI15
aI-3
aa(lp379
V0020901222
p380
aVAPR 14, 2010
p381
aVMIA vs. NJN
p382
aVW
p383
aI24
aI3
aI7
aF0.429
aI1
aI3
aF0.333
aI1
aI2
aF0.5
aI2
aI3
aI5
aI2
aI1
aI1
aI2
aI1
aI8
aI8
aasS'name'
p384
VQuentin Richardson
p385
sS'experience'
p386
I9
s.