(dp0
S'age'
p1
I32
sS'stats'
p2
(lp3
(lp4
V0020901208
p5
aVAPR 12, 2010
p6
aVMIN @ SAS
p7
aVL
p8
aI11
aI0
aI0
aF0.0
aI0
aI0
aF0.0
aI2
aI2
aF1.0
aI2
aI0
aI2
aI3
aI0
aI0
aI0
aI3
aI2
aI7
aa(lp9
V0020901198
p10
aVAPR 11, 2010
p11
aVMIN @ NOH
p12
aVL
p13
aI13
aI0
aI0
aF0.0
aI0
aI0
aF0.0
aI1
aI2
aF0.5
aI0
aI4
aI4
aI3
aI1
aI0
aI2
aI6
aI1
aI0
aa(lp14
V0020900783
p15
aVFEB 16, 2010
p16
aVMIN @ DET
p17
aVL
p18
aI5
aI0
aI0
aF0.0
aI0
aI0
aF0.0
aI0
aI0
aF0.0
aI0
aI1
aI1
aI0
aI0
aI0
aI0
aI1
aI0
aI-5
aa(lp19
V0020900761
p20
aVFEB 09, 2010
p21
aVMIN @ PHI
p22
aVL
p23
aI10
aI1
aI2
aF0.5
aI0
aI0
aF0.0
aI0
aI0
aF0.0
aI0
aI0
aI0
aI0
aI1
aI0
aI1
aI0
aI2
aI-2
aa(lp24
V0020900659
p25
aVJAN 26, 2010
p26
aVMIN @ NYK
p27
aVL
p28
aI4
aI0
aI0
aF0.0
aI0
aI0
aF0.0
aI0
aI0
aF0.0
aI0
aI0
aI0
aI0
aI0
aI0
aI0
aI1
aI0
aI11
aa(lp29
V0020900642
p30
aVJAN 23, 2010
p31
aVMIN @ MIL
p32
aVL
p33
aI9
aI0
aI1
aF0.0
aI0
aI0
aF0.0
aI0
aI0
aF0.0
aI0
aI0
aI0
aI0
aI1
aI0
aI1
aI1
aI0
aI-14
aa(lp34
V0020900631
p35
aVJAN 22, 2010
p36
aVMIN vs. NOH
p37
aVL
p38
aI12
aI0
aI1
aF0.0
aI0
aI0
aF0.0
aI0
aI0
aF0.0
aI1
aI1
aI2
aI1
aI0
aI0
aI0
aI2
aI0
aI3
aa(lp39
V0020900615
p40
aVJAN 20, 2010
p41
aVMIN vs. OKC
p42
aVL
p43
aI17
aI2
aI4
aF0.5
aI0
aI0
aF0.0
aI0
aI0
aF0.0
aI1
aI2
aI3
aI1
aI0
aI1
aI0
aI2
aI4
aI-6
aa(lp44
V0020900600
p45
aVJAN 18, 2010
p46
aVMIN vs. PHI
p47
aVW
p48
aI12
aI2
aI3
aF0.667
aI1
aI1
aF1.0
aI4
aI4
aF1.0
aI1
aI1
aI2
aI3
aI0
aI0
aI0
aI2
aI9
aI1
aa(lp49
V0020900576
p50
aVJAN 15, 2010
p51
aVMIN @ MEM
p52
aVL
p53
aI17
aI0
aI1
aF0.0
aI0
aI1
aF0.0
aI4
aI4
aF1.0
aI0
aI3
aI3
aI0
aI0
aI0
aI0
aI5
aI4
aI-5
aa(lp54
V0020900549
p55
aVJAN 11, 2010
p56
aVMIN @ DEN
p57
aVL
p58
aI4
aI0
aI0
aF0.0
aI0
aI0
aF0.0
aI0
aI0
aF0.0
aI0
aI1
aI1
aI0
aI0
aI0
aI0
aI2
aI0
aI-8
aa(lp59
V0020900533
p60
aVJAN 09, 2010
p61
aVMIN @ CHI
p62
aVL
p63
aI8
aI1
aI1
aF1.0
aI1
aI1
aF1.0
aI0
aI0
aF0.0
aI0
aI0
aI0
aI0
aI1
aI0
aI0
aI2
aI3
aI-1
aa(lp64
V0020900522
p65
aVJAN 08, 2010
p66
aVMIN vs. IND
p67
aVW
p68
aI4
aI0
aI1
aF0.0
aI0
aI0
aF0.0
aI2
aI2
aF1.0
aI0
aI0
aI0
aI0
aI0
aI0
aI0
aI0
aI2
aI2
aa(lp69
V0020900457
p70
aVDEC 29, 2009
p71
aVMIN @ SAS
p72
aVL
p73
aI5
aI0
aI0
aF0.0
aI0
aI0
aF0.0
aI0
aI0
aF0.0
aI0
aI2
aI2
aI0
aI1
aI0
aI0
aI1
aI0
aI-4
aa(lp74
V0020900417
p75
aVDEC 23, 2009
p76
aVMIN @ NJN
p77
aVW
p78
aI1
aI0
aI0
aF0.0
aI0
aI0
aF0.0
aI0
aI0
aF0.0
aI0
aI0
aI0
aI0
aI0
aI0
aI1
aI3
aI0
aI-2
aa(lp79
V0020900265
p80
aVDEC 02, 2009
p81
aVMIN vs. MEM
p82
aVL
p83
aI4
aI0
aI0
aF0.0
aI0
aI0
aF0.0
aI0
aI0
aF0.0
aI0
aI0
aI0
aI0
aI0
aI0
aI0
aI1
aI0
aI0
aa(lp84
V0020900231
p85
aVNOV 27, 2009
p86
aVMIN vs. PHX
p87
aVL
p88
aI12
aI1
aI2
aF0.5
aI0
aI1
aF0.0
aI0
aI0
aF0.0
aI0
aI0
aI0
aI3
aI0
aI0
aI0
aI0
aI2
aI2
aa(lp89
V0020900213
p90
aVNOV 25, 2009
p91
aVMIN vs. DEN
p92
aVL
p93
aI5
aI0
aI1
aF0.0
aI0
aI0
aF0.0
aI0
aI0
aF0.0
aI0
aI0
aI0
aI1
aI1
aI0
aI0
aI1
aI0
aI-5
aa(lp94
V0020900201
p95
aVNOV 23, 2009
p96
aVMIN @ LAC
p97
aVL
p98
aI2
aI0
aI0
aF0.0
aI0
aI0
aF0.0
aI0
aI0
aF0.0
aI0
aI0
aI0
aI0
aI0
aI0
aI0
aI2
aI0
aI-3
aa(lp99
V0020900166
p100
aVNOV 18, 2009
p101
aVMIN vs. HOU
p102
aVL
p103
aI3
aI0
aI1
aF0.0
aI0
aI0
aF0.0
aI0
aI0
aF0.0
aI0
aI1
aI1
aI0
aI0
aI0
aI0
aI3
aI0
aI0
aa(lp104
V0020900140
p105
aVNOV 14, 2009
p106
aVMIN @ MEM
p107
aVL
p108
aI18
aI1
aI3
aF0.333
aI0
aI1
aF0.0
aI0
aI0
aF0.0
aI0
aI0
aI0
aI0
aI2
aI0
aI0
aI1
aI2
aI-4
aa(lp109
V0020900128
p110
aVNOV 13, 2009
p111
aVMIN vs. DAL
p112
aVL
p113
aI12
aI2
aI2
aF1.0
aI0
aI0
aF0.0
aI0
aI0
aF0.0
aI0
aI0
aI0
aI0
aI0
aI1
aI0
aI4
aI4
aI-5
aa(lp114
V0020900101
p115
aVNOV 09, 2009
p116
aVMIN @ GSW
p117
aVL
p118
aI10
aI0
aI1
aF0.0
aI0
aI1
aF0.0
aI2
aI2
aF1.0
aI0
aI1
aI1
aI0
aI0
aI1
aI1
aI2
aI2
aI-12
aa(lp119
V0020900078
p120
aVNOV 06, 2009
p121
aVMIN vs. MIL
p122
aVL
p123
aI5
aI0
aI2
aF0.0
aI0
aI0
aF0.0
aI0
aI0
aF0.0
aI0
aI0
aI0
aI0
aI0
aI0
aI0
aI0
aI0
aI-4
aa(lp124
V0020900065
p125
aVNOV 04, 2009
p126
aVMIN vs. BOS
p127
aVL
p128
aI12
aI1
aI3
aF0.333
aI0
aI0
aF0.0
aI0
aI0
aF0.0
aI0
aI0
aI0
aI2
aI0
aI0
aI0
aI2
aI2
aI-5
aa(lp129
V0020900050
p130
aVNOV 02, 2009
p131
aVMIN @ LAC
p132
aVL
p133
aI13
aI0
aI1
aF0.0
aI0
aI0
aF0.0
aI0
aI0
aF0.0
aI0
aI2
aI2
aI2
aI0
aI0
aI0
aI4
aI0
aI-3
aa(lp134
V0020900044
p135
aVNOV 01, 2009
p136
aVMIN @ PHX
p137
aVL
p138
aI11
aI0
aI0
aF0.0
aI0
aI0
aF0.0
aI2
aI2
aF1.0
aI0
aI0
aI0
aI2
aI0
aI0
aI1
aI2
aI2
aI-8
aa(lp139
V0020900026
p140
aVOCT 30, 2009
p141
aVMIN vs. CLE
p142
aVL
p143
aI9
aI0
aI2
aF0.0
aI0
aI1
aF0.0
aI0
aI0
aF0.0
aI1
aI0
aI1
aI2
aI0
aI0
aI0
aI0
aI0
aI6
aa(lp144
V0020900011
p145
aVOCT 28, 2009
p146
aVMIN vs. NJN
p147
aVW
p148
aI20
aI3
aI4
aF0.75
aI1
aI2
aF0.5
aI0
aI0
aF0.0
aI1
aI3
aI4
aI1
aI1
aI0
aI0
aI3
aI7
aI6
aasS'name'
p149
VBrian Cardinal
p150
sS'experience'
p151
I9
s.