(dp0
S'age'
p1
I32
sS'stats'
p2
(lp3
(lp4
V0020900011
p5
aVOCT 28, 2009
p6
aVMIN vs. NJN
p7
aVW
p8
aI20
aI3
aI4
aF0.75
aI1
aI2
aF0.5
aI0
aI0
aF0.0
aI1
aI3
aI4
aI1
aI1
aI0
aI0
aI3
aI7
aI6
aa(lp9
V0020900026
p10
aVOCT 30, 2009
p11
aVMIN vs. CLE
p12
aVL
p13
aI9
aI0
aI2
aF0.0
aI0
aI1
aF0.0
aI0
aI0
aF0.0
aI1
aI0
aI1
aI2
aI0
aI0
aI0
aI0
aI0
aI6
aa(lp14
V0020900044
p15
aVNOV 01, 2009
p16
aVMIN @ PHX
p17
aVL
p18
aI11
aI0
aI0
aF0.0
aI0
aI0
aF0.0
aI2
aI2
aF1.0
aI0
aI0
aI0
aI2
aI0
aI0
aI1
aI2
aI2
aI-8
aa(lp19
V0020900050
p20
aVNOV 02, 2009
p21
aVMIN @ LAC
p22
aVL
p23
aI13
aI0
aI1
aF0.0
aI0
aI0
aF0.0
aI0
aI0
aF0.0
aI0
aI2
aI2
aI2
aI0
aI0
aI0
aI4
aI0
aI-3
aa(lp24
V0020900065
p25
aVNOV 04, 2009
p26
aVMIN vs. BOS
p27
aVL
p28
aI12
aI1
aI3
aF0.333
aI0
aI0
aF0.0
aI0
aI0
aF0.0
aI0
aI0
aI0
aI2
aI0
aI0
aI0
aI2
aI2
aI-5
aa(lp29
V0020900078
p30
aVNOV 06, 2009
p31
aVMIN vs. MIL
p32
aVL
p33
aI5
aI0
aI2
aF0.0
aI0
aI0
aF0.0
aI0
aI0
aF0.0
aI0
aI0
aI0
aI0
aI0
aI0
aI0
aI0
aI0
aI-4
aa(lp34
V0020900101
p35
aVNOV 09, 2009
p36
aVMIN @ GSW
p37
aVL
p38
aI10
aI0
aI1
aF0.0
aI0
aI1
aF0.0
aI2
aI2
aF1.0
aI0
aI1
aI1
aI0
aI0
aI1
aI1
aI2
aI2
aI-12
aa(lp39
V0020900128
p40
aVNOV 13, 2009
p41
aVMIN vs. DAL
p42
aVL
p43
aI12
aI2
aI2
aF1.0
aI0
aI0
aF0.0
aI0
aI0
aF0.0
aI0
aI0
aI0
aI0
aI0
aI1
aI0
aI4
aI4
aI-5
aa(lp44
V0020900140
p45
aVNOV 14, 2009
p46
aVMIN @ MEM
p47
aVL
p48
aI18
aI1
aI3
aF0.333
aI0
aI1
aF0.0
aI0
aI0
aF0.0
aI0
aI0
aI0
aI0
aI2
aI0
aI0
aI1
aI2
aI-4
aa(lp49
V0020900166
p50
aVNOV 18, 2009
p51
aVMIN vs. HOU
p52
aVL
p53
aI3
aI0
aI1
aF0.0
aI0
aI0
aF0.0
aI0
aI0
aF0.0
aI0
aI1
aI1
aI0
aI0
aI0
aI0
aI3
aI0
aI0
aa(lp54
V0020900201
p55
aVNOV 23, 2009
p56
aVMIN @ LAC
p57
aVL
p58
aI2
aI0
aI0
aF0.0
aI0
aI0
aF0.0
aI0
aI0
aF0.0
aI0
aI0
aI0
aI0
aI0
aI0
aI0
aI2
aI0
aI-3
aa(lp59
V0020900213
p60
aVNOV 25, 2009
p61
aVMIN vs. DEN
p62
aVL
p63
aI5
aI0
aI1
aF0.0
aI0
aI0
aF0.0
aI0
aI0
aF0.0
aI0
aI0
aI0
aI1
aI1
aI0
aI0
aI1
aI0
aI-5
aa(lp64
V0020900231
p65
aVNOV 27, 2009
p66
aVMIN vs. PHX
p67
aVL
p68
aI12
aI1
aI2
aF0.5
aI0
aI1
aF0.0
aI0
aI0
aF0.0
aI0
aI0
aI0
aI3
aI0
aI0
aI0
aI0
aI2
aI2
aa(lp69
V0020900265
p70
aVDEC 02, 2009
p71
aVMIN vs. MEM
p72
aVL
p73
aI4
aI0
aI0
aF0.0
aI0
aI0
aF0.0
aI0
aI0
aF0.0
aI0
aI0
aI0
aI0
aI0
aI0
aI0
aI1
aI0
aI0
aa(lp74
V0020900417
p75
aVDEC 23, 2009
p76
aVMIN @ NJN
p77
aVW
p78
aI1
aI0
aI0
aF0.0
aI0
aI0
aF0.0
aI0
aI0
aF0.0
aI0
aI0
aI0
aI0
aI0
aI0
aI1
aI3
aI0
aI-2
aa(lp79
V0020900457
p80
aVDEC 29, 2009
p81
aVMIN @ SAS
p82
aVL
p83
aI5
aI0
aI0
aF0.0
aI0
aI0
aF0.0
aI0
aI0
aF0.0
aI0
aI2
aI2
aI0
aI1
aI0
aI0
aI1
aI0
aI-4
aa(lp84
V0020900522
p85
aVJAN 08, 2010
p86
aVMIN vs. IND
p87
aVW
p88
aI4
aI0
aI1
aF0.0
aI0
aI0
aF0.0
aI2
aI2
aF1.0
aI0
aI0
aI0
aI0
aI0
aI0
aI0
aI0
aI2
aI2
aa(lp89
V0020900533
p90
aVJAN 09, 2010
p91
aVMIN @ CHI
p92
aVL
p93
aI8
aI1
aI1
aF1.0
aI1
aI1
aF1.0
aI0
aI0
aF0.0
aI0
aI0
aI0
aI0
aI1
aI0
aI0
aI2
aI3
aI-1
aa(lp94
V0020900549
p95
aVJAN 11, 2010
p96
aVMIN @ DEN
p97
aVL
p98
aI4
aI0
aI0
aF0.0
aI0
aI0
aF0.0
aI0
aI0
aF0.0
aI0
aI1
aI1
aI0
aI0
aI0
aI0
aI2
aI0
aI-8
aa(lp99
V0020900576
p100
aVJAN 15, 2010
p101
aVMIN @ MEM
p102
aVL
p103
aI17
aI0
aI1
aF0.0
aI0
aI1
aF0.0
aI4
aI4
aF1.0
aI0
aI3
aI3
aI0
aI0
aI0
aI0
aI5
aI4
aI-5
aa(lp104
V0020900600
p105
aVJAN 18, 2010
p106
aVMIN vs. PHI
p107
aVW
p108
aI12
aI2
aI3
aF0.667
aI1
aI1
aF1.0
aI4
aI4
aF1.0
aI1
aI1
aI2
aI3
aI0
aI0
aI0
aI2
aI9
aI1
aa(lp109
V0020900615
p110
aVJAN 20, 2010
p111
aVMIN vs. OKC
p112
aVL
p113
aI17
aI2
aI4
aF0.5
aI0
aI0
aF0.0
aI0
aI0
aF0.0
aI1
aI2
aI3
aI1
aI0
aI1
aI0
aI2
aI4
aI-6
aa(lp114
V0020900631
p115
aVJAN 22, 2010
p116
aVMIN vs. NOH
p117
aVL
p118
aI12
aI0
aI1
aF0.0
aI0
aI0
aF0.0
aI0
aI0
aF0.0
aI1
aI1
aI2
aI1
aI0
aI0
aI0
aI2
aI0
aI3
aa(lp119
V0020900642
p120
aVJAN 23, 2010
p121
aVMIN @ MIL
p122
aVL
p123
aI9
aI0
aI1
aF0.0
aI0
aI0
aF0.0
aI0
aI0
aF0.0
aI0
aI0
aI0
aI0
aI1
aI0
aI1
aI1
aI0
aI-14
aa(lp124
V0020900659
p125
aVJAN 26, 2010
p126
aVMIN @ NYK
p127
aVL
p128
aI4
aI0
aI0
aF0.0
aI0
aI0
aF0.0
aI0
aI0
aF0.0
aI0
aI0
aI0
aI0
aI0
aI0
aI0
aI1
aI0
aI11
aa(lp129
V0020900761
p130
aVFEB 09, 2010
p131
aVMIN @ PHI
p132
aVL
p133
aI10
aI1
aI2
aF0.5
aI0
aI0
aF0.0
aI0
aI0
aF0.0
aI0
aI0
aI0
aI0
aI1
aI0
aI1
aI0
aI2
aI-2
aa(lp134
V0020900783
p135
aVFEB 16, 2010
p136
aVMIN @ DET
p137
aVL
p138
aI5
aI0
aI0
aF0.0
aI0
aI0
aF0.0
aI0
aI0
aF0.0
aI0
aI1
aI1
aI0
aI0
aI0
aI0
aI1
aI0
aI-5
aa(lp139
V0020901198
p140
aVAPR 11, 2010
p141
aVMIN @ NOH
p142
aVL
p143
aI13
aI0
aI0
aF0.0
aI0
aI0
aF0.0
aI1
aI2
aF0.5
aI0
aI4
aI4
aI3
aI1
aI0
aI2
aI6
aI1
aI0
aa(lp144
V0020901208
p145
aVAPR 12, 2010
p146
aVMIN @ SAS
p147
aVL
p148
aI11
aI0
aI0
aF0.0
aI0
aI0
aF0.0
aI2
aI2
aF1.0
aI2
aI0
aI2
aI3
aI0
aI0
aI0
aI3
aI2
aI7
aasS'name'
p149
VBrian Cardinal
p150
sS'experience'
p151
I9
s.