(dp0
S'stats'
p1
(lp2
(lp3
V0020900005
p4
aVOCT 28, 2009
p5
aVATL vs. IND
p6
aVW
p7
aI39
aI10
aI21
aF0.476
aI2
aI5
aF0.4
aI3
aI4
aF0.75
aI0
aI0
aI0
aI6
aI4
aI0
aI4
aI2
aI25
aI17
aa(lp8
V0020900021
p9
aVOCT 30, 2009
p10
aVATL vs. WAS
p11
aVW
p12
aI30
aI5
aI16
aF0.313
aI0
aI2
aF0.0
aI7
aI7
aF1.0
aI0
aI5
aI5
aI6
aI0
aI0
aI2
aI4
aI17
aI0
aa(lp13
V0020900045
p14
aVNOV 01, 2009
p15
aVATL @ LAL
p16
aVL
p17
aI36
aI8
aI16
aF0.5
aI3
aI6
aF0.5
aI8
aI10
aF0.8
aI0
aI9
aI9
aI4
aI1
aI0
aI1
aI1
aI27
aI-5
aa(lp18
V0020900059
p19
aVNOV 03, 2009
p20
aVATL @ POR
p21
aVW
p22
aI46
aI9
aI19
aF0.474
aI1
aI5
aF0.2
aI0
aI0
aF0.0
aI2
aI6
aI8
aI3
aI0
aI1
aI4
aI2
aI19
aI4
aa(lp23
V0020900068
p24
aVNOV 04, 2009
p25
aVATL @ SAC
p26
aVW
p27
aI37
aI11
aI22
aF0.5
aI0
aI4
aF0.0
aI4
aI4
aF1.0
aI2
aI6
aI8
aI4
aI0
aI0
aI6
aI3
aI26
aI9
aa(lp28
V0020900072
p29
aVNOV 06, 2009
p30
aVATL @ CHA
p31
aVL
p32
aI31
aI5
aI12
aF0.417
aI0
aI4
aF0.0
aI3
aI3
aF1.0
aI0
aI3
aI3
aI1
aI1
aI0
aI0
aI2
aI13
aI-23
aa(lp33
V0020900085
p34
aVNOV 07, 2009
p35
aVATL vs. DEN
p36
aVW
p37
aI34
aI9
aI19
aF0.474
aI2
aI5
aF0.4
aI2
aI2
aF1.0
aI0
aI7
aI7
aI5
aI0
aI0
aI2
aI4
aI22
aI22
aa(lp38
V0020900114
p39
aVNOV 11, 2009
p40
aVATL @ NYK
p41
aVW
p42
aI44
aI8
aI19
aF0.421
aI1
aI3
aF0.333
aI2
aI2
aF1.0
aI2
aI5
aI7
aI5
aI0
aI0
aI4
aI2
aI19
aI18
aa(lp43
V0020900127
p44
aVNOV 13, 2009
p45
aVATL @ BOS
p46
aVW
p47
aI40
aI9
aI21
aF0.429
aI1
aI3
aF0.333
aI5
aI6
aF0.833
aI0
aI7
aI7
aI3
aI1
aI0
aI3
aI2
aI24
aI23
aa(lp48
V0020900133
p49
aVNOV 14, 2009
p50
aVATL vs. NOH
p51
aVW
p52
aI33
aI10
aI16
aF0.625
aI2
aI3
aF0.667
aI4
aI7
aF0.571
aI3
aI2
aI5
aI7
aI1
aI0
aI2
aI0
aI26
aI26
aa(lp53
V0020900147
p54
aVNOV 16, 2009
p55
aVATL vs. POR
p56
aVW
p57
aI45
aI13
aI31
aF0.419
aI3
aI7
aF0.429
aI6
aI6
aF1.0
aI2
aI1
aI3
aI9
aI1
aI0
aI3
aI0
aI35
aI8
aa(lp58
V0020900158
p59
aVNOV 18, 2009
p60
aVATL vs. MIA
p61
aVW
p62
aI38
aI11
aI21
aF0.524
aI5
aI11
aF0.455
aI3
aI3
aF1.0
aI1
aI1
aI2
aI3
aI1
aI0
aI0
aI3
aI30
aI19
aa(lp63
V0020900176
p64
aVNOV 20, 2009
p65
aVATL vs. HOU
p66
aVW
p67
aI45
aI6
aI18
aF0.333
aI0
aI2
aF0.0
aI7
aI8
aF0.875
aI3
aI3
aI6
aI9
aI2
aI0
aI4
aI2
aI19
aI4
aa(lp68
V0020900186
p69
aVNOV 21, 2009
p70
aVATL @ NOH
p71
aVL
p72
aI42
aI6
aI18
aF0.333
aI1
aI5
aF0.2
aI1
aI1
aF1.0
aI1
aI4
aI5
aI3
aI0
aI0
aI1
aI1
aI14
aI-8
aa(lp73
V0020900220
p74
aVNOV 26, 2009
p75
aVATL vs. ORL
p76
aVL
p77
aI42
aI9
aI21
aF0.429
aI3
aI7
aF0.429
aI1
aI2
aF0.5
aI3
aI4
aI7
aI2
aI3
aI0
aI2
aI1
aI22
aI-10
aa(lp78
V0020900224
p79
aVNOV 27, 2009
p80
aVATL @ PHI
p81
aVW
p82
aI30
aI3
aI8
aF0.375
aI1
aI2
aF0.5
aI2
aI2
aF1.0
aI2
aI2
aI4
aI2
aI2
aI0
aI4
aI5
aI9
aI3
aa(lp83
V0020900239
p84
aVNOV 29, 2009
p85
aVATL @ DET
p86
aVL
p87
aI43
aI5
aI19
aF0.263
aI0
aI5
aF0.0
aI0
aI0
aF0.0
aI0
aI2
aI2
aI3
aI0
aI0
aI2
aI4
aI10
aI-1
aa(lp88
V0020900259
p89
aVDEC 02, 2009
p90
aVATL vs. TOR
p91
aVW
p92
aI26
aI5
aI11
aF0.455
aI0
aI2
aF0.0
aI2
aI2
aF1.0
aI0
aI6
aI6
aI11
aI1
aI0
aI1
aI1
aI12
aI17
aa(lp93
V0020900273
p94
aVDEC 04, 2009
p95
aVATL vs. NYK
p96
aVL
p97
aI44
aI12
aI24
aF0.5
aI0
aI5
aF0.0
aI5
aI7
aF0.714
aI1
aI7
aI8
aI8
aI0
aI0
aI1
aI3
aI29
aI-2
aa(lp98
V0020900286
p99
aVDEC 05, 2009
p100
aVATL @ DAL
p101
aVW
p102
aI44
aI13
aI24
aF0.542
aI1
aI5
aF0.2
aI4
aI4
aF1.0
aI1
aI6
aI7
aI3
aI1
aI0
aI3
aI2
aI31
aI6
aa(lp103
V0020900308
p104
aVDEC 09, 2009
p105
aVATL vs. CHI
p106
aVW
p107
aI29
aI6
aI16
aF0.375
aI0
aI3
aF0.0
aI0
aI0
aF0.0
aI2
aI3
aI5
aI5
aI2
aI0
aI3
aI1
aI12
aI23
aa(lp108
V0020900322
p109
aVDEC 11, 2009
p110
aVATL @ TOR
p111
aVW
p112
aI27
aI8
aI15
aF0.533
aI2
aI3
aF0.667
aI2
aI2
aF1.0
aI0
aI3
aI3
aI5
aI2
aI0
aI2
aI2
aI20
aI6
aa(lp113
V0020900340
p114
aVDEC 13, 2009
p115
aVATL vs. NJN
p116
aVW
p117
aI31
aI7
aI12
aF0.583
aI2
aI3
aF0.667
aI5
aI5
aF1.0
aI1
aI2
aI3
aI10
aI4
aI0
aI0
aI2
aI21
aI21
aa(lp118
V0020900358
p119
aVDEC 16, 2009
p120
aVATL vs. MEM
p121
aVW
p122
aI29
aI10
aI16
aF0.625
aI2
aI4
aF0.5
aI4
aI4
aF1.0
aI2
aI6
aI8
aI3
aI2
aI0
aI2
aI0
aI26
aI1
aa(lp123
V0020900374
p124
aVDEC 18, 2009
p125
aVATL vs. UTA
p126
aVW
p127
aI27
aI4
aI11
aF0.364
aI0
aI3
aF0.0
aI4
aI6
aF0.667
aI3
aI6
aI9
aI7
aI1
aI0
aI1
aI0
aI12
aI35
aa(lp128
V0020900387
p129
aVDEC 19, 2009
p130
aVATL @ CHI
p131
aVL
p132
aI48
aI16
aI32
aF0.5
aI5
aI7
aF0.714
aI3
aI4
aF0.75
aI1
aI5
aI6
aI4
aI0
aI0
aI2
aI2
aI40
aI5
aa(lp133
V0020900410
p134
aVDEC 22, 2009
p135
aVATL @ MIN
p136
aVW
p137
aI34
aI9
aI18
aF0.5
aI3
aI5
aF0.6
aI0
aI2
aF0.0
aI2
aI1
aI3
aI6
aI0
aI0
aI0
aI2
aI21
aI12
aa(lp138
V0020900421
p139
aVDEC 23, 2009
p140
aVATL @ DEN
p141
aVL
p142
aI40
aI5
aI12
aF0.417
aI2
aI6
aF0.333
aI4
aI4
aF1.0
aI0
aI5
aI5
aI9
aI0
aI0
aI3
aI3
aI16
aI-12
aa(lp143
V0020900430
p144
aVDEC 26, 2009
p145
aVATL @ IND
p146
aVW
p147
aI33
aI8
aI14
aF0.571
aI2
aI6
aF0.333
aI6
aI7
aF0.857
aI0
aI2
aI2
aI1
aI1
aI0
aI0
aI1
aI24
aI31
aa(lp148
V0020900452
p149
aVDEC 29, 2009
p150
aVATL vs. CLE
p151
aVL
p152
aI43
aI5
aI14
aF0.357
aI2
aI5
aF0.4
aI3
aI4
aF0.75
aI0
aI2
aI2
aI4
aI1
aI0
aI4
aI1
aI15
aI-6
aa(lp153
V0020900459
p154
aVDEC 30, 2009
p155
aVATL @ CLE
p156
aVL
p157
aI40
aI15
aI25
aF0.6
aI3
aI6
aF0.5
aI2
aI2
aF1.0
aI3
aI1
aI4
aI3
aI2
aI0
aI2
aI3
aI35
aI-15
aa(lp158
V0020900474
p159
aVJAN 01, 2010
p160
aVATL vs. NYK
p161
aVL
p162
aI45
aI12
aI30
aF0.4
aI4
aI13
aF0.308
aI0
aI1
aF0.0
aI2
aI6
aI8
aI5
aI2
aI0
aI1
aI3
aI28
aI-1
aa(lp163
V0020900494
p164
aVJAN 04, 2010
p165
aVATL @ MIA
p166
aVL
p167
aI38
aI4
aI15
aF0.267
aI0
aI1
aF0.0
aI3
aI4
aF0.75
aI2
aI4
aI6
aI3
aI1
aI0
aI2
aI2
aI11
aI-25
aa(lp168
V0020900507
p169
aVJAN 06, 2010
p170
aVATL vs. NJN
p171
aVW
p172
aI30
aI8
aI13
aF0.615
aI4
aI6
aF0.667
aI0
aI0
aF0.0
aI0
aI0
aI0
aI5
aI1
aI0
aI1
aI2
aI20
aI17
aa(lp173
V0020900520
p174
aVJAN 08, 2010
p175
aVATL vs. BOS
p176
aVW
p177
aI40
aI5
aI16
aF0.313
aI2
aI4
aF0.5
aI0
aI0
aF0.0
aI1
aI2
aI3
aI8
aI1
aI0
aI4
aI1
aI12
aI9
aa(lp178
V0020900531
p179
aVJAN 09, 2010
p180
aVATL @ ORL
p181
aVL
p182
aI26
aI2
aI9
aF0.222
aI1
aI2
aF0.5
aI2
aI4
aF0.5
aI2
aI3
aI5
aI3
aI1
aI0
aI3
aI2
aI7
aI-32
aa(lp183
V0020900546
p184
aVJAN 11, 2010
p185
aVATL @ BOS
p186
aVW
p187
aI43
aI14
aI25
aF0.56
aI5
aI7
aF0.714
aI3
aI4
aF0.75
aI1
aI2
aI3
aI1
aI0
aI0
aI1
aI2
aI36
aI12
aa(lp188
V0020900558
p189
aVJAN 13, 2010
p190
aVATL vs. WAS
p191
aVW
p192
aI44
aI10
aI23
aF0.435
aI4
aI9
aF0.444
aI0
aI0
aF0.0
aI1
aI4
aI5
aI2
aI1
aI1
aI2
aI1
aI24
aI5
aa(lp193
V0020900573
p194
aVJAN 15, 2010
p195
aVATL vs. PHX
p196
aVW
p197
aI43
aI8
aI22
aF0.364
aI1
aI7
aF0.143
aI2
aI2
aF1.0
aI2
aI4
aI6
aI6
aI0
aI0
aI2
aI1
aI19
aI10
aa(lp198
V0020900596
p199
aVJAN 18, 2010
p200
aVATL vs. OKC
p201
aVL
p202
aI45
aI10
aI23
aF0.435
aI0
aI4
aF0.0
aI3
aI3
aF1.0
aI1
aI0
aI1
aI5
aI0
aI0
aI1
aI3
aI23
aI-3
aa(lp203
V0020900608
p204
aVJAN 20, 2010
p205
aVATL vs. SAC
p206
aVW
p207
aI31
aI7
aI14
aF0.5
aI2
aI5
aF0.4
aI1
aI3
aF0.333
aI0
aI3
aI3
aI7
aI1
aI0
aI1
aI3
aI17
aI18
aa(lp208
V0020900627
p209
aVJAN 22, 2010
p210
aVATL vs. CHA
p211
aVW
p212
aI35
aI7
aI17
aF0.412
aI0
aI5
aF0.0
aI5
aI5
aF1.0
aI0
aI1
aI1
aI7
aI2
aI0
aI1
aI3
aI19
aI22
aa(lp213
V0020900653
p214
aVJAN 25, 2010
p215
aVATL @ HOU
p216
aVW
p217
aI39
aI8
aI16
aF0.5
aI2
aI5
aF0.4
aI2
aI2
aF1.0
aI0
aI6
aI6
aI4
aI1
aI0
aI1
aI0
aI20
aI13
aa(lp218
V0020900671
p219
aVJAN 27, 2010
p220
aVATL @ SAS
p221
aVL
p222
aI40
aI15
aI26
aF0.577
aI1
aI5
aF0.2
aI0
aI0
aF0.0
aI0
aI4
aI4
aI2
aI3
aI0
aI2
aI3
aI31
aI-15
aa(lp223
V0020900679
p224
aVJAN 29, 2010
p225
aVATL vs. BOS
p226
aVW
p227
aI43
aI10
aI22
aF0.455
aI2
aI3
aF0.667
aI5
aI5
aF1.0
aI0
aI5
aI5
aI1
aI3
aI0
aI2
aI1
aI27
aI1
aa(lp228
V0020900689
p229
aVJAN 30, 2010
p230
aVATL @ ORL
p231
aVL
p232
aI35
aI8
aI16
aF0.5
aI2
aI3
aF0.667
aI1
aI2
aF0.5
aI1
aI5
aI6
aI7
aI0
aI0
aI1
aI2
aI19
aI-20
aa(lp233
V0020900716
p234
aVFEB 02, 2010
p235
aVATL @ OKC
p236
aVL
p237
aI42
aI13
aI20
aF0.65
aI3
aI6
aF0.5
aI8
aI8
aF1.0
aI2
aI2
aI4
aI3
aI1
aI0
aI5
aI5
aI37
aI-6
aa(lp238
V0020900718
p239
aVFEB 03, 2010
p240
aVATL vs. LAC
p241
aVW
p242
aI44
aI11
aI21
aF0.524
aI3
aI4
aF0.75
aI9
aI10
aF0.9
aI1
aI1
aI2
aI4
aI2
aI0
aI1
aI2
aI34
aI9
aa(lp243
V0020900735
p244
aVFEB 05, 2010
p245
aVATL vs. CHI
p246
aVW
p247
aI41
aI8
aI20
aF0.4
aI2
aI5
aF0.4
aI0
aI0
aF0.0
aI0
aI5
aI5
aI2
aI0
aI0
aI2
aI1
aI18
aI10
aa(lp248
V0020900764
p249
aVFEB 09, 2010
p250
aVATL @ MEM
p251
aVW
p252
aI26
aI5
aI9
aF0.556
aI1
aI1
aF1.0
aI0
aI0
aF0.0
aI0
aI0
aI0
aI5
aI0
aI0
aI0
aI4
aI11
aI8
aa(lp253
V0020900769
p254
aVFEB 10, 2010
p255
aVATL vs. MIA
p256
aVL
p257
aI44
aI7
aI21
aF0.333
aI2
aI8
aF0.25
aI0
aI0
aF0.0
aI1
aI3
aI4
aI3
aI2
aI1
aI4
aI0
aI16
aI-14
aa(lp258
V0020900801
p259
aVFEB 17, 2010
p260
aVATL @ LAC
p261
aVW
p262
aI31
aI8
aI15
aF0.533
aI0
aI1
aF0.0
aI2
aI4
aF0.5
aI0
aI2
aI2
aI3
aI0
aI0
aI1
aI2
aI18
aI14
aa(lp263
V0020900813
p264
aVFEB 19, 2010
p265
aVATL @ PHX
p266
aVL
p267
aI43
aI8
aI16
aF0.5
aI2
aI4
aF0.5
aI1
aI2
aF0.5
aI2
aI7
aI9
aI2
aI2
aI0
aI3
aI1
aI19
aI4
aa(lp268
V0020900829
p269
aVFEB 21, 2010
p270
aVATL @ GSW
p271
aVL
p272
aI42
aI12
aI22
aF0.545
aI2
aI3
aF0.667
aI5
aI5
aF1.0
aI0
aI5
aI5
aI3
aI2
aI0
aI3
aI3
aI31
aI-2
aa(lp273
V0020900835
p274
aVFEB 22, 2010
p275
aVATL @ UTA
p276
aVW
p277
aI39
aI12
aI19
aF0.632
aI2
aI3
aF0.667
aI2
aI4
aF0.5
aI1
aI5
aI6
aI6
aI1
aI0
aI1
aI3
aI28
aI21
aa(lp278
V0020900845
p279
aVFEB 24, 2010
p280
aVATL vs. MIN
p281
aVW
p282
aI38
aI7
aI16
aF0.438
aI1
aI3
aF0.333
aI6
aI7
aF0.857
aI1
aI2
aI3
aI5
aI1
aI0
aI1
aI1
aI21
aI12
aa(lp283
V0020900861
p284
aVFEB 26, 2010
p285
aVATL vs. DAL
p286
aVL
p287
aI47
aI11
aI21
aF0.524
aI2
aI6
aF0.333
aI3
aI4
aF0.75
aI0
aI5
aI5
aI10
aI1
aI1
aI2
aI2
aI27
aI-3
aa(lp288
V0020900880
p289
aVFEB 28, 2010
p290
aVATL vs. MIL
p291
aVW
p292
aI44
aI10
aI26
aF0.385
aI2
aI5
aF0.4
aI2
aI2
aF1.0
aI2
aI4
aI6
aI4
aI4
aI0
aI3
aI4
aI24
aI4
aa(lp293
V0020900889
p294
aVMAR 01, 2010
p295
aVATL @ CHI
p296
aVW
p297
aI36
aI5
aI15
aF0.333
aI0
aI3
aF0.0
aI4
aI4
aF1.0
aI2
aI7
aI9
aI3
aI0
aI1
aI1
aI1
aI14
aI25
aa(lp298
V0020900899
p299
aVMAR 03, 2010
p300
aVATL vs. PHI
p301
aVW
p302
aI33
aI6
aI13
aF0.462
aI1
aI2
aF0.5
aI5
aI6
aF0.833
aI1
aI2
aI3
aI5
aI1
aI0
aI2
aI2
aI18
aI13
aa(lp303
V0020900919
p304
aVMAR 05, 2010
p305
aVATL vs. GSW
p306
aVW
p307
aI37
aI3
aI14
aF0.214
aI0
aI1
aF0.0
aI4
aI5
aF0.8
aI0
aI1
aI1
aI8
aI1
aI0
aI3
aI3
aI10
aI0
aa(lp308
V0020900926
p309
aVMAR 06, 2010
p310
aVATL @ MIA
p311
aVL
p312
aI42
aI8
aI23
aF0.348
aI2
aI11
aF0.182
aI2
aI3
aF0.667
aI0
aI4
aI4
aI4
aI1
aI0
aI1
aI1
aI20
aI-15
aa(lp313
V0020900941
p314
aVMAR 08, 2010
p315
aVATL @ NYK
p316
aVL
p317
aI41
aI8
aI17
aF0.471
aI1
aI4
aF0.25
aI5
aI6
aF0.833
aI1
aI3
aI4
aI5
aI1
aI0
aI1
aI1
aI22
aI-1
aa(lp318
V0020900742
p319
aVMAR 11, 2010
p320
aVATL @ WAS
p321
aVW
p322
aI39
aI8
aI19
aF0.421
aI1
aI5
aF0.2
aI1
aI2
aF0.5
aI4
aI3
aI7
aI5
aI2
aI0
aI4
aI2
aI18
aI3
aa(lp323
V0020900976
p324
aVMAR 13, 2010
p325
aVATL vs. DET
p326
aVW
p327
aI36
aI10
aI15
aF0.667
aI2
aI4
aF0.5
aI4
aI5
aF0.8
aI1
aI3
aI4
aI5
aI0
aI0
aI1
aI1
aI26
aI12
aa(lp328
V0020901020
p329
aVMAR 19, 2010
p330
aVATL vs. CHA
p331
aVW
p332
aI41
aI7
aI21
aF0.333
aI1
aI1
aF1.0
aI3
aI4
aF0.75
aI1
aI2
aI3
aI4
aI3
aI0
aI5
aI1
aI18
aI-9
aa(lp333
V0020901038
p334
aVMAR 21, 2010
p335
aVATL vs. SAS
p336
aVW
p337
aI46
aI8
aI23
aF0.348
aI1
aI4
aF0.25
aI3
aI4
aF0.75
aI2
aI2
aI4
aI13
aI2
aI0
aI2
aI1
aI20
aI10
aa(lp338
V0020901046
p339
aVMAR 22, 2010
p340
aVATL @ MIL
p341
aVL
p342
aI38
aI13
aI25
aF0.52
aI1
aI2
aF0.5
aI0
aI1
aF0.0
aI0
aI6
aI6
aI3
aI0
aI0
aI1
aI2
aI27
aI-7
aa(lp343
V0020901057
p344
aVMAR 24, 2010
p345
aVATL vs. ORL
p346
aVW
p347
aI39
aI5
aI17
aF0.294
aI0
aI1
aF0.0
aI7
aI7
aF1.0
aI1
aI5
aI6
aI8
aI1
aI0
aI2
aI1
aI17
aI-4
aa(lp348
V0020901074
p349
aVMAR 26, 2010
p350
aVATL @ PHI
p351
aVL
p352
aI38
aI7
aI13
aF0.538
aI4
aI6
aF0.667
aI2
aI2
aF1.0
aI1
aI4
aI5
aI6
aI1
aI0
aI0
aI1
aI20
aI-1
aa(lp353
V0020901089
p354
aVMAR 28, 2010
p355
aVATL vs. IND
p356
aVW
p357
aI34
aI5
aI13
aF0.385
aI0
aI4
aF0.0
aI4
aI5
aF0.8
aI0
aI5
aI5
aI4
aI0
aI0
aI1
aI3
aI14
aI0
aa(lp358
V0020901107
p359
aVMAR 31, 2010
p360
aVATL vs. LAL
p361
aVW
p362
aI36
aI10
aI20
aF0.5
aI5
aI9
aF0.556
aI0
aI1
aF0.0
aI0
aI3
aI3
aI8
aI0
aI0
aI1
aI2
aI25
aI7
aa(lp363
V0020901126
p364
aVAPR 02, 2010
p365
aVATL @ CLE
p366
aVL
p367
aI37
aI6
aI17
aF0.353
aI1
aI5
aF0.2
aI0
aI0
aF0.0
aI0
aI3
aI3
aI5
aI0
aI0
aI0
aI1
aI13
aI-9
aa(lp368
V0020901176
p369
aVAPR 09, 2010
p370
aVATL vs. TOR
p371
aVW
p372
aI28
aI6
aI14
aF0.429
aI2
aI6
aF0.333
aI4
aI7
aF0.571
aI0
aI3
aI3
aI7
aI2
aI0
aI0
aI3
aI18
aI8
aa(lp373
V0020901189
p374
aVAPR 10, 2010
p375
aVATL @ WAS
p376
aVW
p377
aI34
aI8
aI14
aF0.571
aI2
aI6
aF0.333
aI2
aI2
aF1.0
aI0
aI4
aI4
aI3
aI0
aI0
aI1
aI0
aI20
aI4
aa(lp378
V0020901207
p379
aVAPR 12, 2010
p380
aVATL @ MIL
p381
aVW
p382
aI40
aI12
aI19
aF0.632
aI4
aI6
aF0.667
aI3
aI4
aF0.75
aI0
aI7
aI7
aI3
aI0
aI0
aI0
aI1
aI31
aI14
aasS'name'
p383
VJoe Johnson
p384
sS'weight'
p385
V240
p386
sS'age'
p387
I28
sS'experience'
p388
I8
sS'height'
p389
V6-7
p390
sS'position'
p391
VForward-Guard
p392
s.