(dp0
S'age'
p1
I28
sS'stats'
p2
(lp3
(lp4
V0020900746
p5
aVFEB 06, 2010
p6
aVMEM @ MIN
p7
aVL
p8
aI5
aI1
aI1
aF1.0
aI0
aI0
aF0.0
aI0
aI0
aF0.0
aI0
aI1
aI1
aI0
aI0
aI0
aI0
aI0
aI2
aI-2
aa(lp9
V0020900736
p10
aVFEB 05, 2010
p11
aVMEM vs. HOU
p12
aVL
p13
aI7
aI1
aI1
aF1.0
aI0
aI0
aF0.0
aI2
aI2
aF1.0
aI0
aI2
aI2
aI0
aI0
aI2
aI0
aI0
aI4
aI-2
aa(lp14
V0020900711
p15
aVFEB 02, 2010
p16
aVMEM @ CLE
p17
aVL
p18
aI6
aI2
aI5
aF0.4
aI0
aI0
aF0.0
aI0
aI2
aF0.0
aI2
aI1
aI3
aI0
aI0
aI1
aI0
aI0
aI4
aI6
aa(lp19
V0020900686
p20
aVJAN 29, 2010
p21
aVMEM @ SAS
p22
aVL
p23
aI3
aI0
aI1
aF0.0
aI0
aI0
aF0.0
aI0
aI0
aF0.0
aI0
aI1
aI1
aI0
aI0
aI1
aI0
aI0
aI0
aI0
aa(lp24
V0020900603
p25
aVJAN 18, 2010
p26
aVMEM vs. PHX
p27
aVW
p28
aI8
aI2
aI3
aF0.667
aI0
aI0
aF0.0
aI0
aI0
aF0.0
aI0
aI0
aI0
aI0
aI0
aI0
aI0
aI0
aI4
aI-5
aa(lp29
V0020900576
p30
aVJAN 15, 2010
p31
aVMEM vs. MIN
p32
aVW
p33
aI4
aI0
aI5
aF0.0
aI0
aI0
aF0.0
aI0
aI0
aF0.0
aI2
aI0
aI2
aI0
aI0
aI0
aI0
aI0
aI0
aI-2
aa(lp34
V0020900521
p35
aVJAN 08, 2010
p36
aVMEM vs. UTA
p37
aVW
p38
aI8
aI0
aI0
aF0.0
aI0
aI0
aF0.0
aI0
aI0
aF0.0
aI0
aI1
aI1
aI0
aI0
aI0
aI0
aI1
aI0
aI-3
aa(lp39
V0020900515
p40
aVJAN 06, 2010
p41
aVMEM @ UTA
p42
aVL
p43
aI14
aI0
aI1
aF0.0
aI0
aI0
aF0.0
aI8
aI12
aF0.667
aI1
aI3
aI4
aI0
aI0
aI1
aI0
aI1
aI8
aI6
aa(lp44
V0020900485
p45
aVJAN 02, 2010
p46
aVMEM @ PHX
p47
aVW
p48
aI6
aI1
aI2
aF0.5
aI0
aI0
aF0.0
aI0
aI0
aF0.0
aI1
aI0
aI1
aI0
aI0
aI0
aI1
aI1
aI2
aI-7
aa(lp49
V0020900358
p50
aVDEC 16, 2009
p51
aVMEM @ ATL
p52
aVL
p53
aI10
aI1
aI7
aF0.143
aI0
aI0
aF0.0
aI1
aI2
aF0.5
aI4
aI2
aI6
aI0
aI0
aI0
aI1
aI0
aI3
aI8
aa(lp54
V0020900341
p55
aVDEC 13, 2009
p56
aVMEM @ MIA
p57
aVW
p58
aI7
aI3
aI3
aF1.0
aI0
aI0
aF0.0
aI0
aI0
aF0.0
aI0
aI1
aI1
aI0
aI0
aI0
aI1
aI1
aI6
aI0
aa(lp59
V0020900251
p60
aVNOV 30, 2009
p61
aVMEM @ UTA
p62
aVL
p63
aI9
aI0
aI1
aF0.0
aI0
aI0
aF0.0
aI1
aI4
aF0.25
aI1
aI1
aI2
aI0
aI0
aI0
aI0
aI0
aI1
aI1
aa(lp64
V0020900164
p65
aVNOV 18, 2009
p66
aVMEM vs. LAC
p67
aVW
p68
aI4
aI1
aI1
aF1.0
aI0
aI0
aF0.0
aI0
aI0
aF0.0
aI0
aI0
aI0
aI0
aI0
aI0
aI0
aI0
aI2
aI-1
aa(lp69
V0020900140
p70
aVNOV 14, 2009
p71
aVMEM vs. MIN
p72
aVW
p73
aI7
aI0
aI1
aF0.0
aI0
aI0
aF0.0
aI0
aI0
aF0.0
aI1
aI3
aI4
aI0
aI0
aI1
aI0
aI0
aI0
aI-8
aa(lp74
V0020900118
p75
aVNOV 11, 2009
p76
aVMEM @ HOU
p77
aVL
p78
aI21
aI2
aI5
aF0.4
aI0
aI0
aF0.0
aI2
aI6
aF0.333
aI4
aI6
aI10
aI0
aI0
aI1
aI2
aI0
aI6
aI-11
aa(lp79
V0020900106
p80
aVNOV 10, 2009
p81
aVMEM vs. POR
p82
aVL
p83
aI1
aI0
aI1
aF0.0
aI0
aI0
aF0.0
aI0
aI0
aF0.0
aI0
aI0
aI0
aI0
aI1
aI0
aI0
aI0
aI0
aI2
aa(lp84
V0020900083
p85
aVNOV 06, 2009
p86
aVMEM @ LAL
p87
aVL
p88
aI7
aI2
aI3
aF0.667
aI0
aI0
aF0.0
aI0
aI0
aF0.0
aI0
aI1
aI1
aI0
aI0
aI1
aI0
aI1
aI4
aI1
aa(lp89
V0020900049
p90
aVNOV 02, 2009
p91
aVMEM @ SAC
p92
aVL
p93
aI7
aI0
aI0
aF0.0
aI0
aI0
aF0.0
aI3
aI4
aF0.75
aI1
aI1
aI2
aI0
aI0
aI0
aI2
aI1
aI3
aI-3
aa(lp94
V0020900043
p95
aVNOV 01, 2009
p96
aVMEM @ DEN
p97
aVL
p98
aI9
aI1
aI1
aF1.0
aI0
aI0
aF0.0
aI0
aI0
aF0.0
aI0
aI0
aI0
aI0
aI0
aI1
aI2
aI1
aI2
aI-2
aa(lp99
V0020900025
p100
aVOCT 30, 2009
p101
aVMEM vs. TOR
p102
aVW
p103
aI7
aI0
aI0
aF0.0
aI0
aI0
aF0.0
aI1
aI2
aF0.5
aI1
aI0
aI1
aI0
aI0
aI1
aI0
aI3
aI1
aI-5
aa(lp104
V0020900010
p105
aVOCT 28, 2009
p106
aVMEM vs. DET
p107
aVL
p108
aI9
aI0
aI1
aF0.0
aI0
aI0
aF0.0
aI1
aI2
aF0.5
aI0
aI0
aI0
aI0
aI0
aI0
aI0
aI0
aI1
aI-6
aasS'name'
p109
VSteven Hunter
p110
sS'experience'
p111
I8
s.