(dp0
S'stats'
p1
(lp2
(lp3
V0020900010
p4
aVOCT 28, 2009
p5
aVMEM vs. DET
p6
aVL
p7
aI9
aI0
aI1
aF0.0
aI0
aI0
aF0.0
aI1
aI2
aF0.5
aI0
aI0
aI0
aI0
aI0
aI0
aI0
aI0
aI1
aI-6
aa(lp8
V0020900025
p9
aVOCT 30, 2009
p10
aVMEM vs. TOR
p11
aVW
p12
aI7
aI0
aI0
aF0.0
aI0
aI0
aF0.0
aI1
aI2
aF0.5
aI1
aI0
aI1
aI0
aI0
aI1
aI0
aI3
aI1
aI-5
aa(lp13
V0020900043
p14
aVNOV 01, 2009
p15
aVMEM @ DEN
p16
aVL
p17
aI9
aI1
aI1
aF1.0
aI0
aI0
aF0.0
aI0
aI0
aF0.0
aI0
aI0
aI0
aI0
aI0
aI1
aI2
aI1
aI2
aI-2
aa(lp18
V0020900049
p19
aVNOV 02, 2009
p20
aVMEM @ SAC
p21
aVL
p22
aI7
aI0
aI0
aF0.0
aI0
aI0
aF0.0
aI3
aI4
aF0.75
aI1
aI1
aI2
aI0
aI0
aI0
aI2
aI1
aI3
aI-3
aa(lp23
V0020900083
p24
aVNOV 06, 2009
p25
aVMEM @ LAL
p26
aVL
p27
aI7
aI2
aI3
aF0.667
aI0
aI0
aF0.0
aI0
aI0
aF0.0
aI0
aI1
aI1
aI0
aI0
aI1
aI0
aI1
aI4
aI1
aa(lp28
V0020900106
p29
aVNOV 10, 2009
p30
aVMEM vs. POR
p31
aVL
p32
aI1
aI0
aI1
aF0.0
aI0
aI0
aF0.0
aI0
aI0
aF0.0
aI0
aI0
aI0
aI0
aI1
aI0
aI0
aI0
aI0
aI2
aa(lp33
V0020900118
p34
aVNOV 11, 2009
p35
aVMEM @ HOU
p36
aVL
p37
aI21
aI2
aI5
aF0.4
aI0
aI0
aF0.0
aI2
aI6
aF0.333
aI4
aI6
aI10
aI0
aI0
aI1
aI2
aI0
aI6
aI-11
aa(lp38
V0020900140
p39
aVNOV 14, 2009
p40
aVMEM vs. MIN
p41
aVW
p42
aI7
aI0
aI1
aF0.0
aI0
aI0
aF0.0
aI0
aI0
aF0.0
aI1
aI3
aI4
aI0
aI0
aI1
aI0
aI0
aI0
aI-8
aa(lp43
V0020900164
p44
aVNOV 18, 2009
p45
aVMEM vs. LAC
p46
aVW
p47
aI4
aI1
aI1
aF1.0
aI0
aI0
aF0.0
aI0
aI0
aF0.0
aI0
aI0
aI0
aI0
aI0
aI0
aI0
aI0
aI2
aI-1
aa(lp48
V0020900251
p49
aVNOV 30, 2009
p50
aVMEM @ UTA
p51
aVL
p52
aI9
aI0
aI1
aF0.0
aI0
aI0
aF0.0
aI1
aI4
aF0.25
aI1
aI1
aI2
aI0
aI0
aI0
aI0
aI0
aI1
aI1
aa(lp53
V0020900341
p54
aVDEC 13, 2009
p55
aVMEM @ MIA
p56
aVW
p57
aI7
aI3
aI3
aF1.0
aI0
aI0
aF0.0
aI0
aI0
aF0.0
aI0
aI1
aI1
aI0
aI0
aI0
aI1
aI1
aI6
aI0
aa(lp58
V0020900358
p59
aVDEC 16, 2009
p60
aVMEM @ ATL
p61
aVL
p62
aI10
aI1
aI7
aF0.143
aI0
aI0
aF0.0
aI1
aI2
aF0.5
aI4
aI2
aI6
aI0
aI0
aI0
aI1
aI0
aI3
aI8
aa(lp63
V0020900485
p64
aVJAN 02, 2010
p65
aVMEM @ PHX
p66
aVW
p67
aI6
aI1
aI2
aF0.5
aI0
aI0
aF0.0
aI0
aI0
aF0.0
aI1
aI0
aI1
aI0
aI0
aI0
aI1
aI1
aI2
aI-7
aa(lp68
V0020900515
p69
aVJAN 06, 2010
p70
aVMEM @ UTA
p71
aVL
p72
aI14
aI0
aI1
aF0.0
aI0
aI0
aF0.0
aI8
aI12
aF0.667
aI1
aI3
aI4
aI0
aI0
aI1
aI0
aI1
aI8
aI6
aa(lp73
V0020900521
p74
aVJAN 08, 2010
p75
aVMEM vs. UTA
p76
aVW
p77
aI8
aI0
aI0
aF0.0
aI0
aI0
aF0.0
aI0
aI0
aF0.0
aI0
aI1
aI1
aI0
aI0
aI0
aI0
aI1
aI0
aI-3
aa(lp78
V0020900576
p79
aVJAN 15, 2010
p80
aVMEM vs. MIN
p81
aVW
p82
aI4
aI0
aI5
aF0.0
aI0
aI0
aF0.0
aI0
aI0
aF0.0
aI2
aI0
aI2
aI0
aI0
aI0
aI0
aI0
aI0
aI-2
aa(lp83
V0020900603
p84
aVJAN 18, 2010
p85
aVMEM vs. PHX
p86
aVW
p87
aI8
aI2
aI3
aF0.667
aI0
aI0
aF0.0
aI0
aI0
aF0.0
aI0
aI0
aI0
aI0
aI0
aI0
aI0
aI0
aI4
aI-5
aa(lp88
V0020900686
p89
aVJAN 29, 2010
p90
aVMEM @ SAS
p91
aVL
p92
aI3
aI0
aI1
aF0.0
aI0
aI0
aF0.0
aI0
aI0
aF0.0
aI0
aI1
aI1
aI0
aI0
aI1
aI0
aI0
aI0
aI0
aa(lp93
V0020900711
p94
aVFEB 02, 2010
p95
aVMEM @ CLE
p96
aVL
p97
aI6
aI2
aI5
aF0.4
aI0
aI0
aF0.0
aI0
aI2
aF0.0
aI2
aI1
aI3
aI0
aI0
aI1
aI0
aI0
aI4
aI6
aa(lp98
V0020900736
p99
aVFEB 05, 2010
p100
aVMEM vs. HOU
p101
aVL
p102
aI7
aI1
aI1
aF1.0
aI0
aI0
aF0.0
aI2
aI2
aF1.0
aI0
aI2
aI2
aI0
aI0
aI2
aI0
aI0
aI4
aI-2
aa(lp103
V0020900746
p104
aVFEB 06, 2010
p105
aVMEM @ MIN
p106
aVL
p107
aI5
aI1
aI1
aF1.0
aI0
aI0
aF0.0
aI0
aI0
aF0.0
aI0
aI1
aI1
aI0
aI0
aI0
aI0
aI0
aI2
aI-2
aasS'name'
p108
VSteven Hunter
p109
sS'weight'
p110
V240
p111
sS'age'
p112
I28
sS'experience'
p113
I8
sS'height'
p114
V7-0
p115
sS'position'
p116
VCenter
p117
s.