(dp0
S'stats'
p1
(lp2
(lp3
V0020900010
p4
aVOCT 28, 2009
p5
aVMEM vs. DET
p6
aVL
p7
aI30
aI6
aI13
aF0.462
aI0
aI0
aF0.0
aI2
aI4
aF0.5
aI5
aI4
aI9
aI2
aI0
aI0
aI2
aI4
aI14
aI-11
aa(lp8
V0020900025
p9
aVOCT 30, 2009
p10
aVMEM vs. TOR
p11
aVW
p12
aI36
aI13
aI21
aF0.619
aI0
aI0
aF0.0
aI4
aI4
aF1.0
aI6
aI1
aI7
aI3
aI0
aI1
aI2
aI4
aI30
aI17
aa(lp13
V0020900043
p14
aVNOV 01, 2009
p15
aVMEM @ DEN
p16
aVL
p17
aI33
aI6
aI11
aF0.545
aI0
aI0
aF0.0
aI0
aI0
aF0.0
aI4
aI2
aI6
aI7
aI0
aI0
aI4
aI4
aI12
aI-5
aa(lp18
V0020900049
p19
aVNOV 02, 2009
p20
aVMEM @ SAC
p21
aVL
p22
aI42
aI12
aI21
aF0.571
aI0
aI0
aF0.0
aI6
aI7
aF0.857
aI4
aI12
aI16
aI1
aI0
aI1
aI4
aI6
aI30
aI8
aa(lp23
V0020900069
p24
aVNOV 04, 2009
p25
aVMEM @ GSW
p26
aVL
p27
aI38
aI5
aI9
aF0.556
aI0
aI0
aF0.0
aI6
aI8
aF0.75
aI2
aI8
aI10
aI3
aI2
aI1
aI3
aI2
aI16
aI6
aa(lp28
V0020900083
p29
aVNOV 06, 2009
p30
aVMEM @ LAL
p31
aVL
p32
aI38
aI9
aI17
aF0.529
aI0
aI0
aF0.0
aI3
aI3
aF1.0
aI7
aI8
aI15
aI2
aI0
aI1
aI4
aI2
aI21
aI-11
aa(lp33
V0020900091
p34
aVNOV 07, 2009
p35
aVMEM @ LAC
p36
aVL
p37
aI36
aI6
aI17
aF0.353
aI0
aI2
aF0.0
aI7
aI9
aF0.778
aI7
aI5
aI12
aI5
aI0
aI0
aI2
aI1
aI19
aI-9
aa(lp38
V0020900106
p39
aVNOV 10, 2009
p40
aVMEM vs. POR
p41
aVL
p42
aI35
aI5
aI14
aF0.357
aI0
aI0
aF0.0
aI1
aI2
aF0.5
aI8
aI4
aI12
aI1
aI1
aI0
aI2
aI1
aI11
aI-8
aa(lp43
V0020900118
p44
aVNOV 11, 2009
p45
aVMEM @ HOU
p46
aVL
p47
aI35
aI9
aI15
aF0.6
aI0
aI0
aF0.0
aI0
aI0
aF0.0
aI2
aI8
aI10
aI0
aI1
aI0
aI2
aI3
aI18
aI-8
aa(lp48
V0020900140
p49
aVNOV 14, 2009
p50
aVMEM vs. MIN
p51
aVW
p52
aI29
aI2
aI9
aF0.222
aI0
aI0
aF0.0
aI4
aI4
aF1.0
aI3
aI4
aI7
aI1
aI1
aI0
aI2
aI0
aI8
aI4
aa(lp53
V0020900164
p54
aVNOV 18, 2009
p55
aVMEM vs. LAC
p56
aVW
p57
aI33
aI8
aI14
aF0.571
aI0
aI0
aF0.0
aI5
aI5
aF1.0
aI2
aI6
aI8
aI1
aI0
aI1
aI1
aI4
aI21
aI16
aa(lp58
V0020900174
p59
aVNOV 20, 2009
p60
aVMEM @ PHI
p61
aVW
p62
aI38
aI9
aI19
aF0.474
aI0
aI1
aF0.0
aI3
aI3
aF1.0
aI6
aI5
aI11
aI1
aI3
aI0
aI2
aI3
aI21
aI0
aa(lp63
V0020900185
p64
aVNOV 21, 2009
p65
aVMEM vs. MIL
p66
aVL
p67
aI36
aI7
aI9
aF0.778
aI0
aI0
aF0.0
aI4
aI4
aF1.0
aI1
aI5
aI6
aI1
aI1
aI2
aI2
aI1
aI18
aI-10
aa(lp68
V0020900198
p69
aVNOV 23, 2009
p70
aVMEM vs. SAC
p71
aVW
p72
aI29
aI6
aI11
aF0.545
aI0
aI0
aF0.0
aI4
aI7
aF0.571
aI0
aI3
aI3
aI2
aI1
aI0
aI1
aI3
aI16
aI8
aa(lp73
V0020900217
p74
aVNOV 25, 2009
p75
aVMEM @ PHX
p76
aVL
p77
aI32
aI11
aI21
aF0.524
aI0
aI0
aF0.0
aI2
aI2
aF1.0
aI10
aI3
aI13
aI1
aI0
aI0
aI3
aI1
aI24
aI-18
aa(lp78
V0020900232
p79
aVNOV 27, 2009
p80
aVMEM @ POR
p81
aVW
p82
aI35
aI10
aI20
aF0.5
aI0
aI0
aF0.0
aI1
aI2
aF0.5
aI3
aI6
aI9
aI0
aI1
aI0
aI1
aI3
aI21
aI4
aa(lp83
V0020900240
p84
aVNOV 29, 2009
p85
aVMEM @ LAC
p86
aVL
p87
aI40
aI1
aI8
aF0.125
aI0
aI0
aF0.0
aI3
aI6
aF0.5
aI1
aI5
aI6
aI4
aI1
aI0
aI3
aI2
aI5
aI-16
aa(lp88
V0020900251
p89
aVNOV 30, 2009
p90
aVMEM @ UTA
p91
aVL
p92
aI35
aI6
aI13
aF0.462
aI0
aI0
aF0.0
aI3
aI4
aF0.75
aI4
aI5
aI9
aI1
aI1
aI0
aI3
aI2
aI15
aI-27
aa(lp93
V0020900265
p94
aVDEC 02, 2009
p95
aVMEM @ MIN
p96
aVW
p97
aI37
aI8
aI17
aF0.471
aI0
aI1
aF0.0
aI4
aI5
aF0.8
aI3
aI7
aI10
aI1
aI1
aI0
aI0
aI2
aI20
aI0
aa(lp98
V0020900276
p99
aVDEC 04, 2009
p100
aVMEM vs. DAL
p101
aVW
p102
aI39
aI11
aI20
aF0.55
aI0
aI0
aF0.0
aI2
aI2
aF1.0
aI9
aI6
aI15
aI3
aI0
aI0
aI3
aI3
aI24
aI10
aa(lp103
V0020900304
p104
aVDEC 08, 2009
p105
aVMEM vs. CLE
p106
aVW
p107
aI47
aI10
aI19
aF0.526
aI1
aI1
aF1.0
aI11
aI11
aF1.0
aI7
aI7
aI14
aI2
aI4
aI1
aI1
aI4
aI32
aI4
aa(lp108
V0020900326
p109
aVDEC 11, 2009
p110
aVMEM vs. OKC
p111
aVL
p112
aI40
aI8
aI21
aF0.381
aI0
aI1
aF0.0
aI3
aI5
aF0.6
aI11
aI9
aI20
aI1
aI0
aI0
aI2
aI1
aI19
aI3
aa(lp113
V0020900341
p114
aVDEC 13, 2009
p115
aVMEM @ MIA
p116
aVW
p117
aI31
aI5
aI16
aF0.313
aI1
aI1
aF1.0
aI2
aI2
aF1.0
aI4
aI3
aI7
aI1
aI0
aI1
aI2
aI3
aI13
aI28
aa(lp118
V0020900346
p119
aVDEC 14, 2009
p120
aVMEM vs. BOS
p121
aVL
p122
aI42
aI7
aI14
aF0.5
aI0
aI0
aF0.0
aI6
aI6
aF1.0
aI3
aI2
aI5
aI2
aI2
aI0
aI5
aI3
aI20
aI-2
aa(lp123
V0020900358
p124
aVDEC 16, 2009
p125
aVMEM @ ATL
p126
aVL
p127
aI31
aI4
aI9
aF0.444
aI0
aI0
aF0.0
aI2
aI2
aF1.0
aI0
aI10
aI10
aI1
aI3
aI0
aI2
aI2
aI10
aI-2
aa(lp128
V0020900377
p129
aVDEC 18, 2009
p130
aVMEM vs. IND
p131
aVW
p132
aI41
aI11
aI20
aF0.55
aI0
aI2
aF0.0
aI4
aI5
aF0.8
aI3
aI13
aI16
aI3
aI0
aI3
aI5
aI3
aI26
aI19
aa(lp133
V0020900394
p134
aVDEC 20, 2009
p135
aVMEM vs. DEN
p136
aVW
p137
aI43
aI13
aI21
aF0.619
aI1
aI1
aF1.0
aI5
aI5
aF1.0
aI9
aI15
aI24
aI3
aI1
aI1
aI2
aI3
aI32
aI-2
aa(lp138
V0020900409
p139
aVDEC 22, 2009
p140
aVMEM vs. GSW
p141
aVW
p142
aI40
aI14
aI21
aF0.667
aI0
aI1
aF0.0
aI5
aI5
aF1.0
aI6
aI12
aI18
aI2
aI1
aI0
aI3
aI3
aI33
aI10
aa(lp143
V0020900429
p144
aVDEC 26, 2009
p145
aVMEM @ DAL
p146
aVL
p147
aI42
aI12
aI19
aF0.632
aI0
aI0
aF0.0
aI3
aI5
aF0.6
aI7
aI7
aI14
aI2
aI1
aI0
aI1
aI2
aI27
aI-6
aa(lp148
V0020900447
p149
aVDEC 28, 2009
p150
aVMEM vs. WAS
p151
aVW
p152
aI43
aI7
aI17
aF0.412
aI0
aI0
aF0.0
aI9
aI9
aF1.0
aI6
aI13
aI19
aI2
aI1
aI1
aI3
aI5
aI23
aI-3
aa(lp153
V0020900460
p154
aVDEC 30, 2009
p155
aVMEM @ IND
p156
aVW
p157
aI37
aI12
aI22
aF0.545
aI0
aI1
aF0.0
aI4
aI5
aF0.8
aI5
aI8
aI13
aI1
aI0
aI0
aI2
aI4
aI28
aI1
aa(lp158
V0020900485
p159
aVJAN 02, 2010
p160
aVMEM @ PHX
p161
aVW
p162
aI32
aI9
aI16
aF0.563
aI0
aI0
aF0.0
aI0
aI0
aF0.0
aI2
aI9
aI11
aI3
aI0
aI1
aI0
aI2
aI18
aI21
aa(lp163
V0020900504
p164
aVJAN 05, 2010
p165
aVMEM @ POR
p166
aVW
p167
aI41
aI10
aI16
aF0.625
aI0
aI0
aF0.0
aI7
aI8
aF0.875
aI5
aI9
aI14
aI3
aI3
aI0
aI1
aI2
aI27
aI16
aa(lp168
V0020900515
p169
aVJAN 06, 2010
p170
aVMEM @ UTA
p171
aVL
p172
aI31
aI7
aI15
aF0.467
aI0
aI0
aF0.0
aI4
aI4
aF1.0
aI5
aI2
aI7
aI1
aI1
aI0
aI0
aI3
aI18
aI-23
aa(lp173
V0020900521
p174
aVJAN 08, 2010
p175
aVMEM vs. UTA
p176
aVW
p177
aI44
aI9
aI22
aF0.409
aI0
aI1
aF0.0
aI11
aI15
aF0.733
aI5
aI10
aI15
aI0
aI0
aI1
aI2
aI3
aI29
aI8
aa(lp178
V0020900530
p179
aVJAN 09, 2010
p180
aVMEM @ CHA
p181
aVL
p182
aI39
aI7
aI17
aF0.412
aI0
aI1
aF0.0
aI3
aI5
aF0.6
aI2
aI10
aI12
aI1
aI0
aI1
aI1
aI2
aI17
aI2
aa(lp183
V0020900555
p184
aVJAN 12, 2010
p185
aVMEM vs. LAC
p186
aVW
p187
aI43
aI7
aI18
aF0.389
aI0
aI0
aF0.0
aI6
aI7
aF0.857
aI4
aI3
aI7
aI4
aI0
aI0
aI2
aI5
aI20
aI-2
aa(lp188
V0020900576
p189
aVJAN 15, 2010
p190
aVMEM vs. MIN
p191
aVW
p192
aI30
aI8
aI12
aF0.667
aI1
aI2
aF0.5
aI3
aI4
aF0.75
aI1
aI11
aI12
aI5
aI0
aI0
aI2
aI0
aI20
aI30
aa(lp193
V0020900588
p194
aVJAN 16, 2010
p195
aVMEM vs. SAS
p196
aVW
p197
aI35
aI8
aI15
aF0.533
aI0
aI0
aF0.0
aI7
aI12
aF0.583
aI4
aI11
aI15
aI1
aI3
aI0
aI3
aI2
aI23
aI-5
aa(lp198
V0020900603
p199
aVJAN 18, 2010
p200
aVMEM vs. PHX
p201
aVW
p202
aI43
aI10
aI22
aF0.455
aI0
aI1
aF0.0
aI7
aI9
aF0.778
aI3
aI8
aI11
aI0
aI0
aI1
aI3
aI2
aI27
aI9
aa(lp203
V0020900616
p204
aVJAN 20, 2010
p205
aVMEM @ NOH
p206
aVL
p207
aI40
aI11
aI18
aF0.611
aI0
aI0
aF0.0
aI3
aI4
aF0.75
aI6
aI6
aI12
aI2
aI1
aI0
aI2
aI2
aI25
aI6
aa(lp208
V0020900630
p209
aVJAN 22, 2010
p210
aVMEM vs. OKC
p211
aVW
p212
aI39
aI9
aI20
aF0.45
aI0
aI2
aF0.0
aI7
aI11
aF0.636
aI4
aI3
aI7
aI4
aI1
aI0
aI1
aI2
aI25
aI-4
aa(lp213
V0020900652
p214
aVJAN 25, 2010
p215
aVMEM vs. ORL
p216
aVW
p217
aI40
aI9
aI21
aF0.429
aI1
aI1
aF1.0
aI4
aI5
aF0.8
aI9
aI10
aI19
aI3
aI0
aI0
aI1
aI3
aI23
aI7
aa(lp218
V0020900666
p219
aVJAN 27, 2010
p220
aVMEM @ DET
p221
aVW
p222
aI42
aI11
aI22
aF0.5
aI0
aI0
aF0.0
aI2
aI2
aF1.0
aI4
aI9
aI13
aI3
aI1
aI2
aI3
aI4
aI24
aI6
aa(lp223
V0020900686
p224
aVJAN 29, 2010
p225
aVMEM @ SAS
p226
aVL
p227
aI39
aI7
aI12
aF0.583
aI0
aI0
aF0.0
aI5
aI6
aF0.833
aI2
aI11
aI13
aI1
aI1
aI0
aI1
aI1
aI19
aI-5
aa(lp228
V0020900690
p229
aVJAN 30, 2010
p230
aVMEM vs. NOH
p231
aVL
p232
aI45
aI11
aI19
aF0.579
aI1
aI3
aF0.333
aI2
aI3
aF0.667
aI3
aI9
aI12
aI5
aI1
aI0
aI3
aI3
aI25
aI-1
aa(lp233
V0020900706
p234
aVFEB 01, 2010
p235
aVMEM vs. LAL
p236
aVW
p237
aI42
aI9
aI18
aF0.5
aI0
aI0
aF0.0
aI4
aI5
aF0.8
aI3
aI14
aI17
aI1
aI0
aI0
aI1
aI4
aI22
aI-1
aa(lp238
V0020900711
p239
aVFEB 02, 2010
p240
aVMEM @ CLE
p241
aVL
p242
aI30
aI3
aI14
aF0.214
aI0
aI0
aF0.0
aI2
aI3
aF0.667
aI1
aI3
aI4
aI0
aI4
aI0
aI5
aI2
aI8
aI-25
aa(lp243
V0020900736
p244
aVFEB 05, 2010
p245
aVMEM vs. HOU
p246
aVL
p247
aI35
aI7
aI16
aF0.438
aI0
aI0
aF0.0
aI0
aI0
aF0.0
aI2
aI6
aI8
aI1
aI0
aI2
aI1
aI1
aI14
aI-15
aa(lp248
V0020900746
p249
aVFEB 06, 2010
p250
aVMEM @ MIN
p251
aVL
p252
aI44
aI7
aI18
aF0.389
aI0
aI1
aF0.0
aI0
aI1
aF0.0
aI2
aI11
aI13
aI6
aI1
aI1
aI0
aI1
aI14
aI-5
aa(lp253
V0020900764
p254
aVFEB 09, 2010
p255
aVMEM vs. ATL
p256
aVL
p257
aI38
aI9
aI17
aF0.529
aI0
aI1
aF0.0
aI2
aI3
aF0.667
aI6
aI8
aI14
aI3
aI1
aI0
aI4
aI2
aI20
aI-6
aa(lp258
V0020900785
p259
aVFEB 16, 2010
p260
aVMEM vs. PHX
p261
aVL
p262
aI39
aI7
aI17
aF0.412
aI0
aI0
aF0.0
aI4
aI5
aF0.8
aI3
aI12
aI15
aI0
aI1
aI0
aI2
aI3
aI18
aI0
aa(lp263
V0020900793
p264
aVFEB 17, 2010
p265
aVMEM @ TOR
p266
aVW
p267
aI47
aI10
aI23
aF0.435
aI0
aI0
aF0.0
aI4
aI7
aF0.571
aI5
aI6
aI11
aI5
aI1
aI1
aI2
aI5
aI24
aI11
aa(lp268
V0020900808
p269
aVFEB 19, 2010
p270
aVMEM vs. MIA
p271
aVL
p272
aI50
aI7
aI20
aF0.35
aI1
aI1
aF1.0
aI1
aI1
aF1.0
aI3
aI16
aI19
aI3
aI1
aI0
aI5
aI5
aI16
aI-3
aa(lp273
V0020900826
p274
aVFEB 21, 2010
p275
aVMEM @ NJN
p276
aVW
p277
aI35
aI7
aI14
aF0.5
aI0
aI0
aF0.0
aI4
aI5
aF0.8
aI6
aI4
aI10
aI1
aI1
aI0
aI1
aI2
aI18
aI13
aa(lp278
V0020900841
p279
aVFEB 23, 2010
p280
aVMEM vs. LAL
p281
aVL
p282
aI39
aI8
aI12
aF0.667
aI0
aI1
aF0.0
aI4
aI4
aF1.0
aI4
aI10
aI14
aI3
aI4
aI3
aI6
aI3
aI20
aI-2
aa(lp283
V0020900847
p284
aVFEB 24, 2010
p285
aVMEM @ WAS
p286
aVW
p287
aI38
aI8
aI15
aF0.533
aI1
aI1
aF1.0
aI5
aI6
aF0.833
aI3
aI6
aI9
aI4
aI1
aI1
aI2
aI3
aI22
aI-3
aa(lp288
V0020900863
p289
aVFEB 26, 2010
p290
aVMEM vs. CHA
p291
aVL
p292
aI41
aI10
aI15
aF0.667
aI0
aI0
aF0.0
aI4
aI6
aF0.667
aI3
aI7
aI10
aI1
aI2
aI0
aI4
aI2
aI24
aI-5
aa(lp293
V0020900874
p294
aVFEB 27, 2010
p295
aVMEM @ NYK
p296
aVW
p297
aI39
aI10
aI24
aF0.417
aI0
aI2
aF0.0
aI11
aI13
aF0.846
aI10
aI15
aI25
aI2
aI2
aI1
aI2
aI3
aI31
aI4
aa(lp298
V0020900890
p299
aVMAR 01, 2010
p300
aVMEM vs. POR
p301
aVL
p302
aI41
aI7
aI13
aF0.538
aI0
aI0
aF0.0
aI8
aI8
aF1.0
aI0
aI7
aI7
aI0
aI1
aI1
aI1
aI2
aI22
aI-8
aa(lp303
V0020900905
p304
aVMAR 03, 2010
p305
aVMEM @ NOH
p306
aVW
p307
aI42
aI7
aI14
aF0.5
aI1
aI2
aF0.5
aI8
aI10
aF0.8
aI3
aI8
aI11
aI0
aI1
aI0
aI2
aI1
aI23
aI3
aa(lp308
V0020900911
p309
aVMAR 04, 2010
p310
aVMEM @ CHI
p311
aVW
p312
aI40
aI12
aI18
aF0.667
aI0
aI1
aF0.0
aI7
aI8
aF0.875
aI4
aI14
aI18
aI1
aI1
aI0
aI2
aI2
aI31
aI10
aa(lp313
V0020900929
p314
aVMAR 06, 2010
p315
aVMEM vs. SAS
p316
aVL
p317
aI36
aI4
aI12
aF0.333
aI1
aI3
aF0.333
aI6
aI7
aF0.857
aI2
aI5
aI7
aI0
aI0
aI0
aI2
aI2
aI15
aI1
aa(lp318
V0020900954
p319
aVMAR 10, 2010
p320
aVMEM @ BOS
p321
aVW
p322
aI33
aI6
aI16
aF0.375
aI0
aI0
aF0.0
aI1
aI2
aF0.5
aI2
aI8
aI10
aI0
aI2
aI0
aI1
aI3
aI13
aI12
aa(lp323
V0020900969
p324
aVMAR 12, 2010
p325
aVMEM vs. NYK
p326
aVW
p327
aI36
aI7
aI20
aF0.35
aI0
aI2
aF0.0
aI10
aI11
aF0.909
aI2
aI9
aI11
aI0
aI0
aI1
aI1
aI3
aI24
aI14
aa(lp328
V0020900978
p329
aVMAR 13, 2010
p330
aVMEM vs. DEN
p331
aVL
p332
aI36
aI8
aI17
aF0.471
aI1
aI3
aF0.333
aI5
aI6
aF0.833
aI2
aI10
aI12
aI0
aI0
aI0
aI2
aI4
aI22
aI-7
aa(lp333
V0020901001
p334
aVMAR 16, 2010
p335
aVMEM vs. CHI
p336
aVW
p337
aI35
aI7
aI15
aF0.467
aI0
aI1
aF0.0
aI4
aI6
aF0.667
aI4
aI8
aI12
aI2
aI1
aI0
aI3
aI4
aI18
aI-1
aa(lp338
V0020901012
p339
aVMAR 17, 2010
p340
aVMEM @ HOU
p341
aVL
p342
aI38
aI12
aI21
aF0.571
aI0
aI1
aF0.0
aI6
aI11
aF0.545
aI5
aI10
aI15
aI2
aI0
aI1
aI4
aI2
aI30
aI-13
aa(lp343
V0020901032
p344
aVMAR 20, 2010
p345
aVMEM vs. GSW
p346
aVW
p347
aI31
aI8
aI16
aF0.5
aI1
aI2
aF0.5
aI3
aI3
aF1.0
aI4
aI9
aI13
aI4
aI1
aI0
aI1
aI1
aI20
aI15
aa(lp348
V0020901051
p349
aVMAR 22, 2010
p350
aVMEM @ SAC
p351
aVW
p352
aI38
aI9
aI17
aF0.529
aI0
aI0
aF0.0
aI7
aI11
aF0.636
aI4
aI8
aI12
aI3
aI1
aI0
aI0
aI2
aI25
aI27
aa(lp353
V0020901067
p354
aVMAR 24, 2010
p355
aVMEM @ GSW
p356
aVL
p357
aI31
aI5
aI13
aF0.385
aI0
aI0
aF0.0
aI6
aI7
aF0.857
aI3
aI2
aI5
aI0
aI1
aI0
aI4
aI2
aI16
aI-16
aa(lp358
V0020901088
p359
aVMAR 28, 2010
p360
aVMEM @ MIL
p361
aVL
p362
aI45
aI13
aI23
aF0.565
aI1
aI1
aF1.0
aI4
aI6
aF0.667
aI6
aI9
aI15
aI1
aI1
aI0
aI4
aI5
aI31
aI-8
aa(lp363
V0020901114
p364
aVMAR 31, 2010
p365
aVMEM vs. DAL
p366
aVL
p367
aI40
aI8
aI21
aF0.381
aI1
aI3
aF0.333
aI7
aI10
aF0.7
aI5
aI7
aI12
aI3
aI0
aI1
aI1
aI6
aI24
aI2
aa(lp368
V0020901128
p369
aVAPR 02, 2010
p370
aVMEM vs. NOH
p371
aVW
p372
aI22
aI3
aI9
aF0.333
aI0
aI0
aF0.0
aI0
aI1
aF0.0
aI1
aI5
aI6
aI0
aI0
aI0
aI0
aI3
aI6
aI10
aa(lp373
V0020901144
p374
aVAPR 04, 2010
p375
aVMEM @ ORL
p376
aVL
p377
aI43
aI7
aI14
aF0.5
aI0
aI0
aF0.0
aI10
aI15
aF0.667
aI5
aI13
aI18
aI1
aI4
aI0
aI1
aI5
aI24
aI-4
aa(lp378
V0020901155
p379
aVAPR 06, 2010
p380
aVMEM vs. HOU
p381
aVL
p382
aI37
aI8
aI18
aF0.444
aI0
aI0
aF0.0
aI6
aI8
aF0.75
aI2
aI5
aI7
aI1
aI2
aI1
aI2
aI5
aI22
aI1
aa(lp383
V0020901167
p384
aVAPR 07, 2010
p385
aVMEM @ DAL
p386
aVL
p387
aI36
aI6
aI14
aF0.429
aI0
aI1
aF0.0
aI5
aI8
aF0.625
aI4
aI9
aI13
aI3
aI0
aI0
aI2
aI6
aI17
aI-13
aa(lp388
V0020901185
p389
aVAPR 09, 2010
p390
aVMEM @ SAS
p391
aVW
p392
aI44
aI9
aI19
aF0.474
aI0
aI1
aF0.0
aI10
aI13
aF0.769
aI5
aI10
aI15
aI0
aI2
aI0
aI2
aI3
aI28
aI10
aa(lp393
V0020901190
p394
aVAPR 10, 2010
p395
aVMEM vs. PHI
p396
aVL
p397
aI39
aI6
aI11
aF0.545
aI1
aI1
aF1.0
aI6
aI8
aF0.75
aI2
aI8
aI10
aI2
aI3
aI0
aI4
aI3
aI19
aI-21
aa(lp398
V0020901209
p399
aVAPR 12, 2010
p400
aVMEM @ DEN
p401
aVL
p402
aI27
aI4
aI13
aF0.308
aI0
aI0
aF0.0
aI4
aI4
aF1.0
aI4
aI3
aI7
aI0
aI0
aI0
aI0
aI5
aI12
aI-24
aa(lp403
V0020901224
p404
aVAPR 14, 2010
p405
aVMEM @ OKC
p406
aVL
p407
aI41
aI8
aI16
aF0.5
aI0
aI0
aF0.0
aI5
aI7
aF0.714
aI3
aI8
aI11
aI0
aI1
aI0
aI1
aI1
aI21
aI-4
aasS'name'
p408
VZach Randolph
p409
sS'weight'
p410
V260
p411
sS'age'
p412
I28
sS'experience'
p413
I8
sS'height'
p414
V6-9
p415
sS'position'
p416
VForward
p417
s.