(dp0
S'age'
p1
I31
sS'stats'
p2
(lp3
(lp4
V0020900164
p5
aVNOV 18, 2009
p6
aVMEM vs. LAC
p7
aVW
p8
aI6
aI0
aI2
aF0.0
aI0
aI1
aF0.0
aI0
aI0
aF0.0
aI0
aI2
aI2
aI0
aI1
aI0
aI1
aI2
aI0
aI1
aa(lp9
V0020900174
p10
aVNOV 20, 2009
p11
aVMEM @ PHI
p12
aVW
p13
aI5
aI0
aI0
aF0.0
aI0
aI0
aF0.0
aI0
aI0
aF0.0
aI0
aI0
aI0
aI0
aI0
aI0
aI0
aI1
aI0
aI-3
aa(lp14
V0020900198
p15
aVNOV 23, 2009
p16
aVMEM vs. SAC
p17
aVW
p18
aI22
aI3
aI7
aF0.429
aI0
aI0
aF0.0
aI1
aI1
aF1.0
aI0
aI1
aI1
aI3
aI0
aI0
aI3
aI2
aI7
aI-12
aa(lp19
V0020900217
p20
aVNOV 25, 2009
p21
aVMEM @ PHX
p22
aVL
p23
aI21
aI4
aI8
aF0.5
aI0
aI1
aF0.0
aI4
aI4
aF1.0
aI0
aI1
aI1
aI2
aI1
aI0
aI1
aI4
aI12
aI2
aa(lp24
V0020900232
p25
aVNOV 27, 2009
p26
aVMEM @ POR
p27
aVW
p28
aI26
aI5
aI8
aF0.625
aI2
aI4
aF0.5
aI4
aI4
aF1.0
aI0
aI2
aI2
aI5
aI0
aI1
aI2
aI3
aI16
aI5
aa(lp29
V0020900240
p30
aVNOV 29, 2009
p31
aVMEM @ LAC
p32
aVL
p33
aI30
aI5
aI9
aF0.556
aI2
aI5
aF0.4
aI0
aI0
aF0.0
aI1
aI1
aI2
aI7
aI3
aI1
aI5
aI4
aI12
aI-5
aa(lp34
V0020900251
p35
aVNOV 30, 2009
p36
aVMEM @ UTA
p37
aVL
p38
aI31
aI3
aI13
aF0.231
aI0
aI3
aF0.0
aI2
aI3
aF0.667
aI1
aI1
aI2
aI7
aI0
aI0
aI3
aI5
aI8
aI-20
aa(lp39
V0020900265
p40
aVDEC 02, 2009
p41
aVMEM @ MIN
p42
aVW
p43
aI15
aI0
aI1
aF0.0
aI0
aI1
aF0.0
aI0
aI0
aF0.0
aI0
aI1
aI1
aI3
aI2
aI0
aI2
aI3
aI0
aI7
aa(lp44
V0020900276
p45
aVDEC 04, 2009
p46
aVMEM vs. DAL
p47
aVW
p48
aI15
aI0
aI4
aF0.0
aI0
aI2
aF0.0
aI0
aI0
aF0.0
aI0
aI3
aI3
aI5
aI1
aI0
aI1
aI1
aI0
aI10
aa(lp49
V0020900304
p50
aVDEC 08, 2009
p51
aVMEM vs. CLE
p52
aVW
p53
aI7
aI0
aI2
aF0.0
aI0
aI1
aF0.0
aI0
aI0
aF0.0
aI0
aI0
aI0
aI2
aI0
aI0
aI0
aI0
aI0
aI-5
aa(lp54
V0020900326
p55
aVDEC 11, 2009
p56
aVMEM vs. OKC
p57
aVL
p58
aI10
aI1
aI3
aF0.333
aI0
aI0
aF0.0
aI0
aI0
aF0.0
aI1
aI0
aI1
aI3
aI1
aI0
aI0
aI0
aI2
aI-9
aa(lp59
V0020900341
p60
aVDEC 13, 2009
p61
aVMEM @ MIA
p62
aVW
p63
aI17
aI0
aI0
aF0.0
aI0
aI0
aF0.0
aI0
aI0
aF0.0
aI2
aI1
aI3
aI5
aI0
aI0
aI1
aI5
aI0
aI7
aa(lp64
V0020900346
p65
aVDEC 14, 2009
p66
aVMEM vs. BOS
p67
aVL
p68
aI13
aI1
aI1
aF1.0
aI0
aI0
aF0.0
aI0
aI0
aF0.0
aI0
aI2
aI2
aI4
aI0
aI0
aI1
aI1
aI2
aI7
aa(lp69
V0020900358
p70
aVDEC 16, 2009
p71
aVMEM @ ATL
p72
aVL
p73
aI19
aI2
aI4
aF0.5
aI0
aI0
aF0.0
aI0
aI0
aF0.0
aI0
aI3
aI3
aI5
aI3
aI0
aI3
aI1
aI4
aI-6
aa(lp74
V0020900377
p75
aVDEC 18, 2009
p76
aVMEM vs. IND
p77
aVW
p78
aI11
aI1
aI3
aF0.333
aI1
aI1
aF1.0
aI0
aI0
aF0.0
aI0
aI2
aI2
aI0
aI0
aI0
aI1
aI1
aI3
aI-11
aa(lp79
V0020900394
p80
aVDEC 20, 2009
p81
aVMEM vs. DEN
p82
aVW
p83
aI15
aI0
aI1
aF0.0
aI0
aI1
aF0.0
aI0
aI0
aF0.0
aI0
aI4
aI4
aI4
aI3
aI0
aI2
aI1
aI0
aI5
aa(lp84
V0020900409
p85
aVDEC 22, 2009
p86
aVMEM vs. GSW
p87
aVW
p88
aI16
aI0
aI0
aF0.0
aI0
aI0
aF0.0
aI1
aI2
aF0.5
aI0
aI0
aI0
aI3
aI0
aI0
aI2
aI0
aI1
aI19
aa(lp89
V0020900429
p90
aVDEC 26, 2009
p91
aVMEM @ DAL
p92
aVL
p93
aI16
aI1
aI6
aF0.167
aI0
aI1
aF0.0
aI0
aI0
aF0.0
aI0
aI3
aI3
aI1
aI0
aI0
aI1
aI3
aI2
aI8
aa(lp94
V0020900447
p95
aVDEC 28, 2009
p96
aVMEM vs. WAS
p97
aVW
p98
aI15
aI1
aI3
aF0.333
aI0
aI1
aF0.0
aI0
aI0
aF0.0
aI0
aI2
aI2
aI2
aI1
aI0
aI1
aI0
aI2
aI5
aa(lp99
V0020900460
p100
aVDEC 30, 2009
p101
aVMEM @ IND
p102
aVW
p103
aI15
aI1
aI3
aF0.333
aI1
aI2
aF0.5
aI0
aI0
aF0.0
aI0
aI2
aI2
aI1
aI2
aI0
aI3
aI2
aI3
aI12
aa(lp104
V0020900485
p105
aVJAN 02, 2010
p106
aVMEM @ PHX
p107
aVW
p108
aI26
aI2
aI4
aF0.5
aI0
aI2
aF0.0
aI2
aI2
aF1.0
aI1
aI6
aI7
aI2
aI3
aI0
aI1
aI5
aI6
aI12
aa(lp109
V0020900504
p110
aVJAN 05, 2010
p111
aVMEM @ POR
p112
aVW
p113
aI20
aI2
aI5
aF0.4
aI0
aI1
aF0.0
aI0
aI0
aF0.0
aI0
aI0
aI0
aI6
aI1
aI0
aI2
aI1
aI4
aI-2
aa(lp114
V0020900530
p115
aVJAN 09, 2010
p116
aVMEM @ CHA
p117
aVL
p118
aI20
aI1
aI4
aF0.25
aI0
aI2
aF0.0
aI1
aI2
aF0.5
aI0
aI2
aI2
aI5
aI1
aI0
aI2
aI2
aI3
aI2
aa(lp119
V0020900555
p120
aVJAN 12, 2010
p121
aVMEM vs. LAC
p122
aVW
p123
aI17
aI1
aI4
aF0.25
aI0
aI1
aF0.0
aI0
aI0
aF0.0
aI1
aI1
aI2
aI2
aI1
aI0
aI2
aI3
aI2
aI-3
aa(lp124
V0020900576
p125
aVJAN 15, 2010
p126
aVMEM vs. MIN
p127
aVW
p128
aI8
aI2
aI2
aF1.0
aI0
aI0
aF0.0
aI0
aI0
aF0.0
aI0
aI0
aI0
aI2
aI1
aI0
aI2
aI0
aI4
aI-8
aa(lp129
V0020900588
p130
aVJAN 16, 2010
p131
aVMEM vs. SAS
p132
aVW
p133
aI14
aI2
aI4
aF0.5
aI0
aI0
aF0.0
aI0
aI0
aF0.0
aI0
aI1
aI1
aI1
aI0
aI1
aI4
aI1
aI4
aI6
aa(lp134
V0020900603
p135
aVJAN 18, 2010
p136
aVMEM vs. PHX
p137
aVW
p138
aI11
aI0
aI0
aF0.0
aI0
aI0
aF0.0
aI1
aI2
aF0.5
aI0
aI0
aI0
aI3
aI0
aI1
aI1
aI0
aI1
aI2
aa(lp139
V0020900616
p140
aVJAN 20, 2010
p141
aVMEM @ NOH
p142
aVL
p143
aI23
aI5
aI10
aF0.5
aI0
aI2
aF0.0
aI4
aI4
aF1.0
aI3
aI2
aI5
aI5
aI1
aI0
aI4
aI3
aI14
aI1
aa(lp144
V0020900630
p145
aVJAN 22, 2010
p146
aVMEM vs. OKC
p147
aVW
p148
aI12
aI0
aI1
aF0.0
aI0
aI0
aF0.0
aI0
aI0
aF0.0
aI0
aI1
aI1
aI5
aI0
aI0
aI1
aI3
aI0
aI4
aa(lp149
V0020900652
p150
aVJAN 25, 2010
p151
aVMEM vs. ORL
p152
aVW
p153
aI12
aI0
aI2
aF0.0
aI0
aI1
aF0.0
aI0
aI0
aF0.0
aI0
aI2
aI2
aI0
aI0
aI0
aI2
aI1
aI0
aI-7
aa(lp154
V0020900666
p155
aVJAN 27, 2010
p156
aVMEM @ DET
p157
aVW
p158
aI12
aI0
aI1
aF0.0
aI0
aI0
aF0.0
aI0
aI0
aF0.0
aI0
aI1
aI1
aI2
aI1
aI0
aI1
aI1
aI0
aI-6
aa(lp159
V0020900686
p160
aVJAN 29, 2010
p161
aVMEM @ SAS
p162
aVL
p163
aI10
aI1
aI2
aF0.5
aI1
aI1
aF1.0
aI0
aI0
aF0.0
aI0
aI1
aI1
aI1
aI1
aI0
aI0
aI0
aI3
aI-4
aa(lp164
V0020900690
p165
aVJAN 30, 2010
p166
aVMEM vs. NOH
p167
aVL
p168
aI15
aI2
aI5
aF0.4
aI0
aI1
aF0.0
aI0
aI0
aF0.0
aI0
aI0
aI0
aI3
aI0
aI1
aI3
aI3
aI4
aI-11
aa(lp169
V0020900706
p170
aVFEB 01, 2010
p171
aVMEM vs. LAL
p172
aVW
p173
aI20
aI1
aI4
aF0.25
aI0
aI1
aF0.0
aI0
aI0
aF0.0
aI1
aI1
aI2
aI4
aI1
aI0
aI0
aI2
aI2
aI3
aa(lp174
V0020900711
p175
aVFEB 02, 2010
p176
aVMEM @ CLE
p177
aVL
p178
aI18
aI5
aI8
aF0.625
aI0
aI1
aF0.0
aI2
aI3
aF0.667
aI0
aI4
aI4
aI2
aI2
aI0
aI2
aI0
aI12
aI-1
aa(lp179
V0020900736
p180
aVFEB 05, 2010
p181
aVMEM vs. HOU
p182
aVL
p183
aI15
aI0
aI5
aF0.0
aI0
aI2
aF0.0
aI0
aI0
aF0.0
aI0
aI1
aI1
aI2
aI1
aI0
aI1
aI2
aI0
aI-4
aa(lp184
V0020901167
p185
aVAPR 07, 2010
p186
aVMEM @ DAL
p187
aVL
p188
aI9
aI0
aI1
aF0.0
aI0
aI0
aF0.0
aI0
aI0
aF0.0
aI0
aI1
aI1
aI1
aI1
aI0
aI2
aI1
aI0
aI-3
aa(lp189
V0020901190
p190
aVAPR 10, 2010
p191
aVMEM vs. PHI
p192
aVL
p193
aI2
aI0
aI0
aF0.0
aI0
aI0
aF0.0
aI0
aI0
aF0.0
aI0
aI0
aI0
aI0
aI0
aI0
aI0
aI0
aI0
aI-1
aasS'name'
p194
VJamaal Tinsley
p195
sS'experience'
p196
I8
s.