(dp0
S'age'
p1
I34
sS'stats'
p2
(lp3
(lp4
V0020900721
p5
aVFEB 03, 2010
p6
aVWAS @ NYK
p7
aVL
p8
aI3
aI0
aI1
aF0.0
aI0
aI0
aF0.0
aI0
aI0
aF0.0
aI0
aI0
aI0
aI0
aI0
aI0
aI0
aI1
aI0
aI-6
aa(lp9
V0020900658
p10
aVJAN 26, 2010
p11
aVWAS vs. LAL
p12
aVL
p13
aI2
aI0
aI0
aF0.0
aI0
aI0
aF0.0
aI1
aI2
aF0.5
aI1
aI0
aI1
aI0
aI0
aI0
aI1
aI0
aI1
aI-4
aa(lp14
V0020900647
p15
aVJAN 24, 2010
p16
aVWAS vs. LAC
p17
aVL
p18
aI19
aI4
aI11
aF0.364
aI2
aI5
aF0.4
aI1
aI2
aF0.5
aI0
aI1
aI1
aI2
aI2
aI0
aI3
aI1
aI11
aI3
aa(lp19
V0020900073
p20
aVNOV 06, 2009
p21
aVWAS @ IND
p22
aVL
p23
aI22
aI2
aI8
aF0.25
aI0
aI1
aF0.0
aI2
aI4
aF0.5
aI0
aI1
aI1
aI3
aI1
aI0
aI1
aI1
aI6
aI9
aasS'name'
p24
VMike James
p25
sS'experience'
p26
I8
s.