(dp0
S'age'
p1
I30
sS'stats'
p2
(lp3
(lp4
V0020900228
p5
aVNOV 27, 2009
p6
aVOKC vs. MIL
p7
aVW
p8
aI10
aI1
aI2
aF0.5
aI0
aI0
aF0.0
aI0
aI0
aF0.0
aI0
aI0
aI0
aI0
aI0
aI0
aI0
aI2
aI2
aI-13
aa(lp9
V0020900244
p10
aVNOV 29, 2009
p11
aVOKC vs. HOU
p12
aVL
p13
aI14
aI1
aI2
aF0.5
aI0
aI0
aF0.0
aI0
aI0
aF0.0
aI0
aI1
aI1
aI1
aI0
aI0
aI1
aI1
aI2
aI-7
aa(lp14
V0020900266
p15
aVDEC 02, 2009
p16
aVOKC vs. PHI
p17
aVW
p18
aI14
aI2
aI4
aF0.5
aI1
aI1
aF1.0
aI0
aI2
aF0.0
aI1
aI2
aI3
aI1
aI0
aI0
aI0
aI0
aI5
aI-4
aa(lp19
V0020900279
p20
aVDEC 04, 2009
p21
aVOKC vs. BOS
p22
aVL
p23
aI21
aI2
aI4
aF0.5
aI1
aI2
aF0.5
aI2
aI2
aF1.0
aI0
aI0
aI0
aI2
aI0
aI0
aI3
aI2
aI7
aI-5
aasS'name'
p24
VMike Wilks
p25
sS'experience'
p26
I7
s.