(dp0
S'age'
p1
I28
sS'stats'
p2
(lp3
(lp4
V0020901221
p5
aVAPR 14, 2010
p6
aVHOU vs. NOH
p7
aVL
p8
aI15
aI3
aI6
aF0.5
aI0
aI0
aF0.0
aI0
aI0
aF0.0
aI2
aI0
aI2
aI1
aI0
aI1
aI1
aI2
aI6
aI-5
aa(lp9
V0020901211
p10
aVAPR 12, 2010
p11
aVHOU @ SAC
p12
aVW
p13
aI20
aI1
aI4
aF0.25
aI0
aI0
aF0.0
aI1
aI1
aF1.0
aI2
aI5
aI7
aI1
aI0
aI0
aI1
aI3
aI3
aI5
aa(lp14
V0020901201
p15
aVAPR 11, 2010
p16
aVHOU @ PHX
p17
aVL
p18
aI16
aI2
aI5
aF0.4
aI0
aI1
aF0.0
aI0
aI1
aF0.0
aI1
aI1
aI2
aI1
aI0
aI1
aI0
aI4
aI4
aI-10
aa(lp19
V0020901184
p20
aVAPR 09, 2010
p21
aVHOU vs. CHA
p22
aVW
p23
aI18
aI2
aI5
aF0.4
aI0
aI2
aF0.0
aI0
aI1
aF0.0
aI0
aI1
aI1
aI3
aI0
aI0
aI1
aI4
aI4
aI9
aa(lp24
V0020901168
p25
aVAPR 07, 2010
p26
aVHOU vs. UTA
p27
aVW
p28
aI23
aI2
aI5
aF0.4
aI1
aI1
aF1.0
aI1
aI2
aF0.5
aI2
aI2
aI4
aI3
aI2
aI1
aI1
aI1
aI6
aI-6
aa(lp29
V0020901155
p30
aVAPR 06, 2010
p31
aVHOU @ MEM
p32
aVW
p33
aI28
aI4
aI9
aF0.444
aI0
aI0
aF0.0
aI4
aI6
aF0.667
aI4
aI6
aI10
aI0
aI0
aI4
aI1
aI5
aI12
aI5
aa(lp34
V0020901143
p35
aVAPR 04, 2010
p36
aVHOU @ IND
p37
aVL
p38
aI23
aI1
aI5
aF0.2
aI0
aI1
aF0.0
aI2
aI2
aF1.0
aI0
aI2
aI2
aI3
aI2
aI0
aI2
aI0
aI4
aI-12
aa(lp39
V0020901045
p40
aVMAR 22, 2010
p41
aVHOU @ CHI
p42
aVL
p43
aI14
aI1
aI2
aF0.5
aI0
aI1
aF0.0
aI0
aI0
aF0.0
aI0
aI0
aI0
aI1
aI0
aI0
aI1
aI1
aI2
aI11
aa(lp44
V0020901036
p45
aVMAR 21, 2010
p46
aVHOU @ NYK
p47
aVW
p48
aI13
aI0
aI1
aF0.0
aI0
aI0
aF0.0
aI0
aI0
aF0.0
aI1
aI2
aI3
aI0
aI1
aI2
aI1
aI0
aI0
aI9
aa(lp49
V0020900948
p50
aVMAR 09, 2010
p51
aVHOU @ WAS
p52
aVW
p53
aI7
aI1
aI3
aF0.333
aI0
aI0
aF0.0
aI0
aI0
aF0.0
aI1
aI2
aI3
aI0
aI0
aI0
aI0
aI0
aI2
aI5
aa(lp54
V0020900936
p55
aVMAR 07, 2010
p56
aVHOU @ DET
p57
aVL
p58
aI20
aI2
aI5
aF0.4
aI0
aI1
aF0.0
aI2
aI3
aF0.667
aI1
aI0
aI1
aI0
aI0
aI1
aI0
aI1
aI6
aI4
aa(lp59
V0020900930
p60
aVMAR 06, 2010
p61
aVHOU @ MIN
p62
aVW
p63
aI23
aI2
aI4
aF0.5
aI0
aI0
aF0.0
aI0
aI0
aF0.0
aI2
aI5
aI7
aI2
aI0
aI0
aI0
aI4
aI4
aI16
aa(lp64
V0020900907
p65
aVMAR 03, 2010
p66
aVHOU vs. SAC
p67
aVL
p68
aI28
aI3
aI5
aF0.6
aI0
aI0
aF0.0
aI0
aI2
aF0.0
aI4
aI2
aI6
aI0
aI1
aI1
aI0
aI3
aI6
aI5
aa(lp69
V0020900892
p70
aVMAR 01, 2010
p71
aVHOU vs. TOR
p72
aVW
p73
aI10
aI0
aI1
aF0.0
aI0
aI0
aF0.0
aI0
aI0
aF0.0
aI0
aI0
aI0
aI0
aI0
aI0
aI1
aI3
aI0
aI-6
aa(lp74
V0020900876
p75
aVFEB 27, 2010
p76
aVHOU @ UTA
p77
aVL
p78
aI16
aI2
aI5
aF0.4
aI0
aI0
aF0.0
aI3
aI4
aF0.75
aI2
aI1
aI3
aI0
aI1
aI0
aI0
aI2
aI7
aI-15
aa(lp79
V0020900866
p80
aVFEB 26, 2010
p81
aVHOU vs. SAS
p82
aVW
p83
aI8
aI1
aI2
aF0.5
aI0
aI0
aF0.0
aI0
aI2
aF0.0
aI3
aI0
aI3
aI0
aI0
aI1
aI1
aI4
aI2
aI-9
aa(lp84
V0020900850
p85
aVFEB 24, 2010
p86
aVHOU vs. ORL
p87
aVL
p88
aI23
aI4
aI6
aF0.667
aI0
aI0
aF0.0
aI1
aI1
aF1.0
aI0
aI2
aI2
aI1
aI1
aI0
aI1
aI4
aI9
aI-21
aa(lp89
V0020900828
p90
aVFEB 21, 2010
p91
aVHOU @ NOH
p92
aVL
p93
aI28
aI5
aI11
aF0.455
aI0
aI2
aF0.0
aI1
aI2
aF0.5
aI6
aI3
aI9
aI2
aI1
aI1
aI2
aI5
aI11
aI-9
aa(lp94
V0020900796
p95
aVFEB 17, 2010
p96
aVNYK vs. CHI
p97
aVL
p98
aI6
aI1
aI3
aF0.333
aI0
aI1
aF0.0
aI0
aI0
aF0.0
aI1
aI2
aI3
aI0
aI1
aI1
aI0
aI2
aI2
aI0
aa(lp99
V0020900784
p100
aVFEB 16, 2010
p101
aVNYK @ CHI
p102
aVL
p103
aI27
aI2
aI4
aF0.5
aI2
aI4
aF0.5
aI2
aI2
aF1.0
aI1
aI0
aI1
aI1
aI0
aI2
aI4
aI1
aI8
aI-21
aa(lp104
V0020900763
p105
aVFEB 09, 2010
p106
aVNYK vs. SAC
p107
aVL
p108
aI41
aI4
aI10
aF0.4
aI2
aI4
aF0.5
aI3
aI3
aF1.0
aI5
aI5
aI10
aI2
aI2
aI1
aI1
aI3
aI13
aI-10
aa(lp109
V0020900743
p110
aVFEB 06, 2010
p111
aVNYK @ CLE
p112
aVL
p113
aI37
aI3
aI4
aF0.75
aI1
aI2
aF0.5
aI5
aI5
aF1.0
aI1
aI6
aI7
aI3
aI0
aI0
aI2
aI5
aI12
aI4
aa(lp114
V0020900734
p115
aVFEB 05, 2010
p116
aVNYK vs. MIL
p117
aVL
p118
aI27
aI2
aI6
aF0.333
aI2
aI5
aF0.4
aI0
aI0
aF0.0
aI2
aI1
aI3
aI1
aI1
aI2
aI1
aI2
aI6
aI-17
aa(lp119
V0020900721
p120
aVFEB 03, 2010
p121
aVNYK vs. WAS
p122
aVW
p123
aI39
aI2
aI9
aF0.222
aI0
aI1
aF0.0
aI0
aI0
aF0.0
aI6
aI2
aI8
aI3
aI2
aI1
aI2
aI2
aI4
aI10
aa(lp124
V0020900702
p125
aVJAN 31, 2010
p126
aVNYK @ MIN
p127
aVL
p128
aI39
aI5
aI10
aF0.5
aI3
aI6
aF0.5
aI1
aI2
aF0.5
aI2
aI4
aI6
aI5
aI1
aI3
aI1
aI4
aI14
aI-15
aa(lp129
V0020900691
p130
aVJAN 30, 2010
p131
aVNYK @ WAS
p132
aVL
p133
aI48
aI7
aI11
aF0.636
aI2
aI4
aF0.5
aI1
aI5
aF0.2
aI4
aI0
aI4
aI1
aI1
aI0
aI1
aI2
aI17
aI-10
aa(lp134
V0020900674
p135
aVJAN 28, 2010
p136
aVNYK vs. TOR
p137
aVL
p138
aI19
aI2
aI3
aF0.667
aI1
aI1
aF1.0
aI0
aI0
aF0.0
aI0
aI0
aI0
aI0
aI2
aI0
aI1
aI2
aI5
aI-1
aa(lp139
V0020900659
p140
aVJAN 26, 2010
p141
aVNYK vs. MIN
p142
aVW
p143
aI31
aI4
aI5
aF0.8
aI0
aI0
aF0.0
aI0
aI0
aF0.0
aI2
aI4
aI6
aI2
aI3
aI3
aI5
aI3
aI8
aI36
aa(lp144
V0020900646
p145
aVJAN 24, 2010
p146
aVNYK vs. DAL
p147
aVL
p148
aI29
aI4
aI9
aF0.444
aI0
aI1
aF0.0
aI6
aI6
aF1.0
aI3
aI1
aI4
aI0
aI2
aI0
aI1
aI2
aI14
aI-27
aa(lp149
V0020900632
p150
aVJAN 22, 2010
p151
aVNYK vs. LAL
p152
aVL
p153
aI43
aI1
aI3
aF0.333
aI0
aI0
aF0.0
aI0
aI0
aF0.0
aI2
aI1
aI3
aI3
aI0
aI0
aI0
aI5
aI2
aI-14
aa(lp154
V0020900594
p155
aVJAN 18, 2010
p156
aVNYK vs. DET
p157
aVW
p158
aI37
aI1
aI4
aF0.25
aI0
aI2
aF0.0
aI3
aI4
aF0.75
aI3
aI4
aI7
aI2
aI0
aI0
aI2
aI4
aI5
aI8
aa(lp159
V0020900587
p160
aVJAN 16, 2010
p161
aVNYK @ DET
p162
aVL
p163
aI33
aI1
aI3
aF0.333
aI0
aI0
aF0.0
aI2
aI3
aF0.667
aI2
aI3
aI5
aI0
aI2
aI2
aI2
aI4
aI4
aI-10
aa(lp164
V0020900578
p165
aVJAN 15, 2010
p166
aVNYK vs. TOR
p167
aVL
p168
aI31
aI1
aI3
aF0.333
aI0
aI1
aF0.0
aI2
aI2
aF1.0
aI4
aI6
aI10
aI2
aI1
aI0
aI0
aI5
aI4
aI0
aa(lp169
V0020900560
p170
aVJAN 13, 2010
p171
aVNYK @ PHI
p172
aVW
p173
aI43
aI6
aI9
aF0.667
aI1
aI3
aF0.333
aI2
aI4
aF0.5
aI4
aI5
aI9
aI3
aI2
aI1
aI2
aI3
aI15
aI8
aa(lp174
V0020900548
p175
aVJAN 11, 2010
p176
aVNYK @ OKC
p177
aVL
p178
aI29
aI3
aI5
aF0.6
aI1
aI1
aF1.0
aI1
aI2
aF0.5
aI3
aI0
aI3
aI2
aI1
aI1
aI3
aI2
aI8
aI-17
aa(lp179
V0020900536
p180
aVJAN 09, 2010
p181
aVNYK @ HOU
p182
aVL
p183
aI39
aI4
aI10
aF0.4
aI0
aI2
aF0.0
aI4
aI5
aF0.8
aI2
aI4
aI6
aI2
aI0
aI2
aI2
aI3
aI12
aI-13
aa(lp184
V0020900517
p185
aVJAN 07, 2010
p186
aVNYK vs. CHA
p187
aVW
p188
aI42
aI3
aI5
aF0.6
aI0
aI0
aF0.0
aI0
aI0
aF0.0
aI2
aI8
aI10
aI2
aI1
aI2
aI0
aI3
aI6
aI12
aa(lp189
V0020900490
p190
aVJAN 03, 2010
p191
aVNYK vs. IND
p192
aVW
p193
aI26
aI0
aI1
aF0.0
aI0
aI0
aF0.0
aI1
aI2
aF0.5
aI2
aI2
aI4
aI1
aI1
aI2
aI0
aI0
aI1
aI32
aa(lp194
V0020900474
p195
aVJAN 01, 2010
p196
aVNYK @ ATL
p197
aVW
p198
aI33
aI1
aI2
aF0.5
aI0
aI1
aF0.0
aI0
aI0
aF0.0
aI0
aI1
aI1
aI2
aI0
aI2
aI0
aI4
aI2
aI0
aa(lp199
V0020900463
p200
aVDEC 30, 2009
p201
aVNYK @ NJN
p202
aVL
p203
aI24
aI0
aI3
aF0.0
aI0
aI1
aF0.0
aI0
aI0
aF0.0
aI1
aI2
aI3
aI1
aI1
aI0
aI0
aI5
aI0
aI-5
aa(lp204
V0020900454
p205
aVDEC 29, 2009
p206
aVNYK @ DET
p207
aVW
p208
aI38
aI2
aI4
aF0.5
aI0
aI1
aF0.0
aI1
aI1
aF1.0
aI2
aI6
aI8
aI0
aI2
aI3
aI0
aI2
aI5
aI20
aa(lp209
V0020900442
p210
aVDEC 27, 2009
p211
aVNYK vs. SAS
p212
aVL
p213
aI35
aI2
aI10
aF0.2
aI0
aI2
aF0.0
aI0
aI0
aF0.0
aI2
aI2
aI4
aI1
aI1
aI2
aI0
aI3
aI4
aI6
aa(lp214
V0020900424
p215
aVDEC 25, 2009
p216
aVNYK vs. MIA
p217
aVL
p218
aI24
aI1
aI2
aF0.5
aI0
aI1
aF0.0
aI1
aI3
aF0.333
aI3
aI1
aI4
aI1
aI0
aI2
aI1
aI4
aI3
aI-13
aa(lp219
V0020900408
p220
aVDEC 22, 2009
p221
aVNYK vs. CHI
p222
aVW
p223
aI34
aI3
aI7
aF0.429
aI1
aI2
aF0.5
aI3
aI6
aF0.5
aI0
aI4
aI4
aI1
aI2
aI0
aI1
aI4
aI10
aI7
aa(lp224
V0020900399
p225
aVDEC 20, 2009
p226
aVNYK vs. CHA
p227
aVW
p228
aI31
aI0
aI0
aF0.0
aI0
aI0
aF0.0
aI0
aI0
aF0.0
aI0
aI5
aI5
aI2
aI1
aI2
aI1
aI3
aI0
aI-8
aa(lp229
V0020900380
p230
aVDEC 18, 2009
p231
aVNYK vs. LAC
p232
aVW
p233
aI31
aI1
aI5
aF0.2
aI0
aI0
aF0.0
aI0
aI0
aF0.0
aI2
aI0
aI2
aI1
aI0
aI0
aI1
aI5
aI2
aI-10
aa(lp234
V0020900370
p235
aVDEC 17, 2009
p236
aVNYK @ CHI
p237
aVL
p238
aI40
aI3
aI7
aF0.429
aI0
aI1
aF0.0
aI0
aI0
aF0.0
aI3
aI6
aI9
aI3
aI0
aI2
aI1
aI5
aI6
aI-9
aa(lp239
V0020900351
p240
aVDEC 15, 2009
p241
aVNYK @ CHA
p242
aVL
p243
aI37
aI4
aI6
aF0.667
aI1
aI1
aF1.0
aI2
aI4
aF0.5
aI2
aI3
aI5
aI3
aI6
aI2
aI0
aI6
aI11
aI15
aa(lp244
V0020900327
p245
aVDEC 11, 2009
p246
aVNYK @ NOH
p247
aVW
p248
aI33
aI1
aI3
aF0.333
aI0
aI0
aF0.0
aI2
aI2
aF1.0
aI0
aI4
aI4
aI2
aI3
aI2
aI1
aI3
aI4
aI28
aa(lp249
V0020900297
p250
aVDEC 07, 2009
p251
aVNYK vs. POR
p252
aVW
p253
aI23
aI3
aI7
aF0.429
aI0
aI1
aF0.0
aI0
aI0
aF0.0
aI4
aI0
aI4
aI1
aI2
aI2
aI1
aI6
aI6
aI7
aa(lp254
V0020900291
p255
aVDEC 06, 2009
p256
aVNYK vs. NJN
p257
aVW
p258
aI36
aI0
aI1
aF0.0
aI0
aI0
aF0.0
aI5
aI8
aF0.625
aI3
aI2
aI5
aI2
aI3
aI0
aI4
aI2
aI5
aI20
aa(lp259
V0020900273
p260
aVDEC 04, 2009
p261
aVNYK @ ATL
p262
aVW
p263
aI23
aI1
aI2
aF0.5
aI0
aI1
aF0.0
aI2
aI3
aF0.667
aI0
aI1
aI1
aI1
aI0
aI1
aI0
aI4
aI4
aI-1
aa(lp264
V0020900261
p265
aVDEC 02, 2009
p266
aVNYK @ ORL
p267
aVL
p268
aI20
aI1
aI3
aF0.333
aI0
aI1
aF0.0
aI0
aI1
aF0.0
aI2
aI2
aI4
aI1
aI1
aI0
aI3
aI3
aI2
aI-9
aa(lp269
V0020900255
p270
aVDEC 01, 2009
p271
aVNYK vs. PHX
p272
aVW
p273
aI26
aI4
aI6
aF0.667
aI0
aI0
aF0.0
aI2
aI4
aF0.5
aI5
aI0
aI5
aI4
aI1
aI4
aI0
aI3
aI10
aI30
aa(lp274
V0020900243
p275
aVNOV 29, 2009
p276
aVNYK vs. ORL
p277
aVL
p278
aI16
aI1
aI1
aF1.0
aI0
aI0
aF0.0
aI0
aI0
aF0.0
aI0
aI1
aI1
aI1
aI0
aI0
aI1
aI4
aI2
aI-7
aa(lp279
V0020900230
p280
aVNOV 27, 2009
p281
aVNYK @ DEN
p282
aVL
p283
aI21
aI2
aI3
aF0.667
aI0
aI0
aF0.0
aI2
aI5
aF0.4
aI2
aI3
aI5
aI2
aI0
aI0
aI0
aI3
aI6
aI2
aa(lp284
V0020900219
p285
aVNOV 25, 2009
p286
aVNYK @ SAC
p287
aVL
p288
aI15
aI0
aI2
aF0.0
aI0
aI1
aF0.0
aI2
aI2
aF1.0
aI2
aI1
aI3
aI1
aI0
aI1
aI2
aI2
aI2
aI-2
aa(lp289
V0020900207
p290
aVNOV 24, 2009
p291
aVNYK @ LAL
p292
aVL
p293
aI19
aI0
aI1
aF0.0
aI0
aI0
aF0.0
aI0
aI0
aF0.0
aI0
aI0
aI0
aI2
aI1
aI0
aI1
aI3
aI0
aI-2
aa(lp294
V0020900183
p295
aVNOV 21, 2009
p296
aVNYK @ NJN
p297
aVW
p298
aI12
aI2
aI3
aF0.667
aI0
aI0
aF0.0
aI0
aI0
aF0.0
aI3
aI0
aI3
aI1
aI2
aI0
aI1
aI2
aI4
aI-9
aa(lp299
V0020900159
p300
aVNOV 18, 2009
p301
aVNYK @ IND
p302
aVW
p303
aI28
aI1
aI3
aF0.333
aI0
aI1
aF0.0
aI3
aI3
aF1.0
aI1
aI1
aI2
aI2
aI2
aI1
aI2
aI4
aI5
aI16
aa(lp304
V0020900126
p305
aVNOV 13, 2009
p306
aVNYK vs. GSW
p307
aVL
p308
aI3
aI1
aI1
aF1.0
aI0
aI0
aF0.0
aI0
aI0
aF0.0
aI0
aI0
aI0
aI0
aI0
aI0
aI0
aI0
aI2
aI3
aa(lp309
V0020900114
p310
aVNOV 11, 2009
p311
aVNYK vs. ATL
p312
aVL
p313
aI18
aI2
aI3
aF0.667
aI0
aI0
aF0.0
aI0
aI0
aF0.0
aI1
aI0
aI1
aI1
aI1
aI1
aI3
aI1
aI4
aI1
aa(lp314
V0020900099
p315
aVNOV 09, 2009
p316
aVNYK vs. UTA
p317
aVL
p318
aI31
aI2
aI2
aF1.0
aI0
aI0
aF0.0
aI1
aI4
aF0.25
aI3
aI5
aI8
aI2
aI0
aI3
aI1
aI0
aI5
aI9
aa(lp319
V0020900089
p320
aVNOV 07, 2009
p321
aVNYK @ MIL
p322
aVL
p323
aI17
aI0
aI2
aF0.0
aI0
aI1
aF0.0
aI0
aI0
aF0.0
aI0
aI5
aI5
aI2
aI0
aI1
aI1
aI2
aI0
aI-6
aa(lp324
V0020900080
p325
aVNOV 06, 2009
p326
aVNYK vs. CLE
p327
aVL
p328
aI16
aI0
aI1
aF0.0
aI0
aI0
aF0.0
aI0
aI0
aF0.0
aI0
aI1
aI1
aI1
aI0
aI0
aI0
aI3
aI0
aI-15
aa(lp329
V0020900064
p330
aVNOV 04, 2009
p331
aVNYK vs. IND
p332
aVL
p333
aI17
aI2
aI5
aF0.4
aI0
aI0
aF0.0
aI0
aI0
aF0.0
aI3
aI2
aI5
aI1
aI0
aI1
aI2
aI3
aI4
aI-11
aa(lp334
V0020900047
p335
aVNOV 02, 2009
p336
aVNYK vs. NOH
p337
aVW
p338
aI16
aI1
aI4
aF0.25
aI0
aI1
aF0.0
aI1
aI2
aF0.5
aI2
aI1
aI3
aI0
aI0
aI0
aI0
aI0
aI3
aI-8
aa(lp339
V0020900034
p340
aVOCT 31, 2009
p341
aVNYK vs. PHI
p342
aVL
p343
aI16
aI0
aI3
aF0.0
aI0
aI1
aF0.0
aI0
aI0
aF0.0
aI0
aI1
aI1
aI1
aI0
aI0
aI1
aI2
aI0
aI-20
aa(lp344
V0020900019
p345
aVOCT 30, 2009
p346
aVNYK @ CHA
p347
aVL
p348
aI28
aI4
aI7
aF0.571
aI3
aI4
aF0.75
aI0
aI0
aF0.0
aI1
aI2
aI3
aI1
aI0
aI1
aI0
aI5
aI11
aI8
aa(lp349
V0020900009
p350
aVOCT 28, 2009
p351
aVNYK @ MIA
p352
aVL
p353
aI36
aI1
aI4
aF0.25
aI0
aI2
aF0.0
aI0
aI0
aF0.0
aI1
aI4
aI5
aI4
aI1
aI2
aI3
aI4
aI2
aI-18
aasS'name'
p354
VJared Jeffries
p355
sS'experience'
p356
I7
s.