(dp0
S'age'
p1
I25
sS'stats'
p2
(lp3
(lp4
V0020900003
p5
aVOCT 27, 2009
p6
aVPOR vs. HOU
p7
aVW
p8
aI33
aI9
aI14
aF0.643
aI3
aI5
aF0.6
aI2
aI2
aF1.0
aI0
aI4
aI4
aI2
aI2
aI1
aI1
aI2
aI23
aI15
aa(lp9
V0020900018
p10
aVOCT 29, 2009
p11
aVPOR vs. DEN
p12
aVL
p13
aI16
aI1
aI8
aF0.125
aI0
aI1
aF0.0
aI2
aI2
aF1.0
aI3
aI4
aI7
aI0
aI0
aI0
aI1
aI2
aI4
aI5
aa(lp14
V0020900035
p15
aVOCT 31, 2009
p16
aVPOR @ HOU
p17
aVL
p18
aI20
aI1
aI8
aF0.125
aI0
aI3
aF0.0
aI2
aI2
aF1.0
aI2
aI2
aI4
aI1
aI0
aI1
aI0
aI1
aI4
aI-2
aa(lp19
V0020900042
p20
aVNOV 01, 2009
p21
aVPOR @ OKC
p22
aVW
p23
aI32
aI4
aI10
aF0.4
aI2
aI4
aF0.5
aI2
aI4
aF0.5
aI1
aI5
aI6
aI2
aI1
aI1
aI3
aI1
aI12
aI3
aa(lp24
V0020900059
p25
aVNOV 03, 2009
p26
aVPOR vs. ATL
p27
aVL
p28
aI23
aI7
aI15
aF0.467
aI1
aI2
aF0.5
aI4
aI4
aF1.0
aI2
aI1
aI3
aI0
aI1
aI2
aI0
aI2
aI19
aI-8
aa(lp29
V0020900084
p30
aVNOV 06, 2009
p31
aVPOR vs. SAS
p32
aVW
p33
aI24
aI4
aI9
aF0.444
aI1
aI3
aF0.333
aI0
aI0
aF0.0
aI0
aI3
aI3
aI0
aI1
aI1
aI2
aI0
aI9
aI7
aa(lp34
V0020900095
p35
aVNOV 08, 2009
p36
aVPOR vs. MIN
p37
aVW
p38
aI19
aI5
aI9
aF0.556
aI3
aI4
aF0.75
aI6
aI6
aF1.0
aI0
aI1
aI1
aI1
aI1
aI1
aI0
aI0
aI19
aI13
aa(lp39
V0020900106
p40
aVNOV 10, 2009
p41
aVPOR @ MEM
p42
aVW
p43
aI22
aI1
aI9
aF0.111
aI0
aI2
aF0.0
aI2
aI2
aF1.0
aI2
aI3
aI5
aI0
aI0
aI0
aI2
aI1
aI4
aI1
aa(lp44
V0020900116
p45
aVNOV 11, 2009
p46
aVPOR @ MIN
p47
aVW
p48
aI23
aI3
aI8
aF0.375
aI2
aI4
aF0.5
aI1
aI2
aF0.5
aI0
aI0
aI0
aI1
aI0
aI1
aI1
aI3
aI9
aI14
aa(lp49
V0020900129
p50
aVNOV 13, 2009
p51
aVPOR @ NOH
p52
aVW
p53
aI19
aI3
aI11
aF0.273
aI0
aI3
aF0.0
aI0
aI0
aF0.0
aI3
aI2
aI5
aI1
aI1
aI0
aI1
aI1
aI6
aI-6
aa(lp54
V0020900134
p55
aVNOV 14, 2009
p56
aVPOR @ CHA
p57
aVW
p58
aI1
aI0
aI0
aF0.0
aI0
aI0
aF0.0
aI0
aI0
aF0.0
aI0
aI0
aI0
aI0
aI0
aI0
aI1
aI0
aI0
aI-3
aa(lp59
V0020900836
p60
aVFEB 22, 2010
p61
aVLAC vs. CHA
p62
aVW
p63
aI16
aI4
aI6
aF0.667
aI2
aI3
aF0.667
aI0
aI0
aF0.0
aI0
aI1
aI1
aI0
aI0
aI0
aI0
aI3
aI10
aI0
aa(lp64
V0020900855
p65
aVFEB 24, 2010
p66
aVLAC vs. DET
p67
aVW
p68
aI19
aI1
aI4
aF0.25
aI0
aI3
aF0.0
aI2
aI2
aF1.0
aI1
aI3
aI4
aI1
aI0
aI0
aI0
aI1
aI4
aI10
aa(lp69
V0020900870
p70
aVFEB 26, 2010
p71
aVLAC @ PHX
p72
aVL
p73
aI23
aI7
aI13
aF0.538
aI4
aI7
aF0.571
aI0
aI0
aF0.0
aI1
aI1
aI2
aI1
aI0
aI1
aI0
aI1
aI18
aI8
aa(lp74
V0020900884
p75
aVFEB 28, 2010
p76
aVLAC @ SAC
p77
aVL
p78
aI22
aI3
aI10
aF0.3
aI0
aI4
aF0.0
aI5
aI5
aF1.0
aI2
aI6
aI8
aI1
aI2
aI0
aI0
aI1
aI11
aI-5
aa(lp79
V0020900894
p80
aVMAR 01, 2010
p81
aVLAC vs. UTA
p82
aVW
p83
aI15
aI3
aI6
aF0.5
aI2
aI3
aF0.667
aI0
aI0
aF0.0
aI1
aI1
aI2
aI0
aI1
aI0
aI1
aI1
aI8
aI5
aa(lp84
V0020900910
p85
aVMAR 03, 2010
p86
aVLAC vs. PHX
p87
aVL
p88
aI17
aI1
aI9
aF0.111
aI0
aI3
aF0.0
aI1
aI2
aF0.5
aI0
aI2
aI2
aI1
aI0
aI0
aI1
aI1
aI3
aI-15
aa(lp89
V0020900924
p90
aVMAR 05, 2010
p91
aVLAC vs. OKC
p92
aVL
p93
aI17
aI2
aI7
aF0.286
aI2
aI4
aF0.5
aI0
aI0
aF0.0
aI0
aI2
aI2
aI1
aI2
aI1
aI1
aI0
aI6
aI-5
aa(lp94
V0020900933
p95
aVMAR 06, 2010
p96
aVLAC @ UTA
p97
aVL
p98
aI25
aI3
aI11
aF0.273
aI2
aI4
aF0.5
aI0
aI0
aF0.0
aI1
aI5
aI6
aI2
aI0
aI1
aI2
aI0
aI8
aI-13
aa(lp99
V0020900947
p100
aVMAR 09, 2010
p101
aVLAC @ ORL
p102
aVL
p103
aI32
aI2
aI8
aF0.25
aI1
aI4
aF0.25
aI0
aI0
aF0.0
aI0
aI2
aI2
aI1
aI0
aI0
aI1
aI1
aI5
aI-22
aa(lp104
V0020900956
p105
aVMAR 10, 2010
p106
aVLAC @ MIA
p107
aVL
p108
aI14
aI2
aI3
aF0.667
aI0
aI0
aF0.0
aI0
aI2
aF0.0
aI0
aI1
aI1
aI0
aI0
aI0
aI2
aI3
aI4
aI5
aa(lp109
V0020900964
p110
aVMAR 12, 2010
p111
aVLAC @ CHA
p112
aVL
p113
aI38
aI6
aI10
aF0.6
aI4
aI8
aF0.5
aI0
aI0
aF0.0
aI1
aI0
aI1
aI2
aI1
aI1
aI2
aI3
aI16
aI-4
aa(lp114
V0020900981
p115
aVMAR 13, 2010
p116
aVLAC @ SAS
p117
aVL
p118
aI41
aI7
aI15
aF0.467
aI2
aI4
aF0.5
aI1
aI1
aF1.0
aI1
aI4
aI5
aI6
aI1
aI1
aI1
aI1
aI17
aI-17
aa(lp119
V0020900996
p120
aVMAR 15, 2010
p121
aVLAC vs. NOH
p122
aVL
p123
aI22
aI4
aI8
aF0.5
aI1
aI2
aF0.5
aI4
aI4
aF1.0
aI2
aI5
aI7
aI0
aI0
aI0
aI0
aI0
aI13
aI5
aa(lp124
V0020901015
p125
aVMAR 17, 2010
p126
aVLAC vs. MIL
p127
aVW
p128
aI26
aI3
aI6
aF0.5
aI1
aI3
aF0.333
aI4
aI4
aF1.0
aI0
aI3
aI3
aI1
aI0
aI2
aI0
aI1
aI11
aI6
aa(lp129
V0020901039
p130
aVMAR 21, 2010
p131
aVLAC vs. SAC
p132
aVL
p133
aI22
aI2
aI7
aF0.286
aI0
aI1
aF0.0
aI2
aI4
aF0.5
aI0
aI3
aI3
aI1
aI1
aI0
aI1
aI2
aI6
aI3
aa(lp134
V0020901056
p135
aVMAR 23, 2010
p136
aVLAC @ DAL
p137
aVL
p138
aI19
aI1
aI7
aF0.143
aI1
aI4
aF0.25
aI0
aI0
aF0.0
aI0
aI2
aI2
aI0
aI0
aI0
aI1
aI2
aI3
aI-28
aa(lp139
V0020901069
p140
aVMAR 25, 2010
p141
aVLAC @ HOU
p142
aVW
p143
aI8
aI0
aI1
aF0.0
aI0
aI1
aF0.0
aI0
aI0
aF0.0
aI0
aI2
aI2
aI1
aI0
aI0
aI0
aI1
aI0
aI7
aa(lp144
V0020901096
p145
aVMAR 28, 2010
p146
aVLAC vs. GSW
p147
aVL
p148
aI9
aI0
aI0
aF0.0
aI0
aI0
aF0.0
aI0
aI0
aF0.0
aI0
aI0
aI0
aI0
aI0
aI1
aI1
aI2
aI0
aI-13
aa(lp149
V0020901105
p150
aVMAR 30, 2010
p151
aVLAC @ MIL
p152
aVL
p153
aI27
aI3
aI10
aF0.3
aI2
aI4
aF0.5
aI5
aI6
aF0.833
aI2
aI3
aI5
aI1
aI1
aI0
aI2
aI1
aI13
aI-6
aa(lp154
V0020901110
p155
aVMAR 31, 2010
p156
aVLAC @ TOR
p157
aVL
p158
aI16
aI2
aI6
aF0.333
aI1
aI4
aF0.25
aI0
aI0
aF0.0
aI0
aI2
aI2
aI0
aI0
aI0
aI1
aI0
aI5
aI-8
aa(lp159
V0020901139
p160
aVAPR 03, 2010
p161
aVLAC @ DEN
p162
aVL
p163
aI16
aI5
aI8
aF0.625
aI1
aI2
aF0.5
aI1
aI1
aF1.0
aI0
aI5
aI5
aI2
aI0
aI0
aI1
aI1
aI12
aI5
aa(lp164
V0020901212
p165
aVAPR 12, 2010
p166
aVLAC vs. DAL
p167
aVL
p168
aI25
aI5
aI11
aF0.455
aI1
aI3
aF0.333
aI2
aI2
aF1.0
aI4
aI4
aI8
aI2
aI0
aI0
aI1
aI2
aI13
aI-12
aa(lp169
V0020901228
p170
aVAPR 14, 2010
p171
aVLAC vs. LAL
p172
aVW
p173
aI32
aI6
aI14
aF0.429
aI1
aI3
aF0.333
aI1
aI2
aF0.5
aI4
aI6
aI10
aI2
aI2
aI1
aI1
aI2
aI14
aI12
aasS'name'
p174
VTravis Outlaw
p175
sS'experience'
p176
I6
s.