(dp0
S'age'
p1
I29
sS'stats'
p2
(lp3
(lp4
V0020901212
p5
aVAPR 12, 2010
p6
aVDAL @ LAC
p7
aVW
p8
aI9
aI3
aI6
aF0.5
aI0
aI1
aF0.0
aI0
aI0
aF0.0
aI0
aI1
aI1
aI0
aI0
aI0
aI0
aI0
aI6
aI-11
aa(lp9
V0020901193
p10
aVAPR 10, 2010
p11
aVDAL @ SAC
p12
aVW
p13
aI1
aI0
aI1
aF0.0
aI0
aI0
aF0.0
aI0
aI0
aF0.0
aI0
aI0
aI0
aI0
aI0
aI0
aI0
aI0
aI0
aI3
aa(lp14
V0020901167
p15
aVAPR 07, 2010
p16
aVDAL vs. MEM
p17
aVW
p18
aI3
aI1
aI2
aF0.5
aI0
aI0
aF0.0
aI0
aI0
aF0.0
aI0
aI0
aI0
aI0
aI0
aI0
aI0
aI0
aI2
aI2
aa(lp19
V0020901100
p20
aVMAR 29, 2010
p21
aVDAL vs. DEN
p22
aVW
p23
aI2
aI1
aI2
aF0.5
aI0
aI1
aF0.0
aI0
aI0
aF0.0
aI0
aI2
aI2
aI0
aI0
aI0
aI0
aI0
aI2
aI-1
aa(lp24
V0020901086
p25
aVMAR 27, 2010
p26
aVDAL @ GSW
p27
aVW
p28
aI7
aI0
aI3
aF0.0
aI0
aI2
aF0.0
aI2
aI2
aF1.0
aI0
aI0
aI0
aI0
aI1
aI0
aI0
aI0
aI2
aI-9
aa(lp29
V0020901048
p30
aVMAR 22, 2010
p31
aVDAL @ NOH
p32
aVL
p33
aI3
aI0
aI2
aF0.0
aI0
aI0
aF0.0
aI0
aI0
aF0.0
aI0
aI1
aI1
aI0
aI0
aI0
aI0
aI1
aI0
aI2
aa(lp34
V0020900979
p35
aVMAR 13, 2010
p36
aVDAL vs. NYK
p37
aVL
p38
aI6
aI1
aI3
aF0.333
aI0
aI1
aF0.0
aI2
aI2
aF1.0
aI1
aI1
aI2
aI0
aI0
aI0
aI1
aI1
aI4
aI-6
aa(lp39
V0020900943
p40
aVMAR 08, 2010
p41
aVDAL @ MIN
p42
aVW
p43
aI8
aI1
aI2
aF0.5
aI0
aI1
aF0.0
aI2
aI2
aF1.0
aI0
aI1
aI1
aI1
aI0
aI0
aI0
aI3
aI4
aI9
aa(lp44
V0020900834
p45
aVFEB 22, 2010
p46
aVDAL vs. IND
p47
aVW
p48
aI3
aI0
aI2
aF0.0
aI0
aI0
aF0.0
aI0
aI0
aF0.0
aI0
aI0
aI0
aI0
aI0
aI0
aI0
aI0
aI0
aI-10
aa(lp49
V0020900766
p50
aVFEB 09, 2010
p51
aVDAL @ DEN
p52
aVL
p53
aI14
aI2
aI6
aF0.333
aI0
aI3
aF0.0
aI0
aI0
aF0.0
aI1
aI1
aI2
aI1
aI1
aI0
aI2
aI0
aI4
aI-4
aa(lp54
V0020900709
p55
aVFEB 01, 2010
p56
aVDAL @ UTA
p57
aVL
p58
aI2
aI0
aI0
aF0.0
aI0
aI0
aF0.0
aI0
aI0
aF0.0
aI0
aI0
aI0
aI1
aI0
aI0
aI0
aI0
aI0
aI4
aa(lp59
V0020900646
p60
aVJAN 24, 2010
p61
aVDAL @ NYK
p62
aVW
p63
aI8
aI3
aI4
aF0.75
aI1
aI1
aF1.0
aI0
aI0
aF0.0
aI0
aI0
aI0
aI1
aI0
aI0
aI0
aI2
aI7
aI1
aa(lp64
V0020900624
p65
aVJAN 22, 2010
p66
aVDAL @ PHI
p67
aVL
p68
aI1
aI0
aI0
aF0.0
aI0
aI0
aF0.0
aI0
aI0
aF0.0
aI0
aI0
aI0
aI0
aI0
aI0
aI0
aI0
aI0
aI3
aa(lp69
V0020900612
p70
aVJAN 20, 2010
p71
aVDAL @ WAS
p72
aVW
p73
aI2
aI0
aI1
aF0.0
aI0
aI0
aF0.0
aI0
aI0
aF0.0
aI0
aI0
aI0
aI0
aI0
aI0
aI0
aI0
aI0
aI-2
aa(lp74
V0020900592
p75
aVJAN 17, 2010
p76
aVDAL @ TOR
p77
aVL
p78
aI5
aI2
aI3
aF0.667
aI1
aI2
aF0.5
aI0
aI0
aF0.0
aI0
aI0
aI0
aI0
aI0
aI0
aI0
aI0
aI5
aI1
aa(lp79
V0020900535
p80
aVJAN 09, 2010
p81
aVDAL vs. UTA
p82
aVL
p83
aI9
aI1
aI1
aF1.0
aI1
aI1
aF1.0
aI0
aI0
aF0.0
aI0
aI0
aI0
aI0
aI0
aI0
aI1
aI1
aI3
aI-1
aa(lp84
V0020900276
p85
aVDEC 04, 2009
p86
aVDAL @ MEM
p87
aVL
p88
aI3
aI0
aI1
aF0.0
aI0
aI0
aF0.0
aI0
aI0
aF0.0
aI0
aI0
aI0
aI0
aI0
aI0
aI0
aI0
aI0
aI4
aa(lp89
V0020900235
p90
aVNOV 28, 2009
p91
aVDAL @ CLE
p92
aVL
p93
aI3
aI0
aI0
aF0.0
aI0
aI0
aF0.0
aI0
aI0
aF0.0
aI0
aI0
aI0
aI0
aI0
aI0
aI0
aI0
aI0
aI-1
aa(lp94
V0020900227
p95
aVNOV 27, 2009
p96
aVDAL @ IND
p97
aVW
p98
aI8
aI0
aI3
aF0.0
aI0
aI2
aF0.0
aI0
aI0
aF0.0
aI1
aI0
aI1
aI1
aI0
aI0
aI1
aI1
aI0
aI-4
aa(lp99
V0020900215
p100
aVNOV 25, 2009
p101
aVDAL @ HOU
p102
aVW
p103
aI3
aI1
aI1
aF1.0
aI0
aI0
aF0.0
aI0
aI0
aF0.0
aI0
aI0
aI0
aI1
aI2
aI0
aI1
aI1
aI2
aI6
aa(lp104
V0020900128
p105
aVNOV 13, 2009
p106
aVDAL @ MIN
p107
aVW
p108
aI3
aI0
aI2
aF0.0
aI0
aI1
aF0.0
aI0
aI0
aF0.0
aI0
aI0
aI0
aI0
aI1
aI0
aI1
aI0
aI0
aI-5
aa(lp109
V0020900088
p110
aVNOV 07, 2009
p111
aVDAL vs. TOR
p112
aVW
p113
aI3
aI2
aI2
aF1.0
aI1
aI1
aF1.0
aI0
aI0
aF0.0
aI0
aI0
aI0
aI0
aI0
aI0
aI0
aI0
aI5
aI7
aa(lp114
V0020900058
p115
aVNOV 03, 2009
p116
aVDAL vs. UTA
p117
aVW
p118
aI6
aI0
aI2
aF0.0
aI0
aI1
aF0.0
aI0
aI0
aF0.0
aI1
aI1
aI2
aI0
aI0
aI0
aI0
aI1
aI0
aI-3
aa(lp119
V0020900038
p120
aVOCT 31, 2009
p121
aVDAL @ LAC
p122
aVW
p123
aI6
aI0
aI0
aF0.0
aI0
aI0
aF0.0
aI0
aI0
aF0.0
aI0
aI0
aI0
aI0
aI0
aI0
aI0
aI2
aI0
aI7
aa(lp124
V0020900031
p125
aVOCT 30, 2009
p126
aVDAL @ LAL
p127
aVW
p128
aI3
aI0
aI1
aF0.0
aI0
aI1
aF0.0
aI0
aI0
aF0.0
aI0
aI0
aI0
aI0
aI0
aI0
aI0
aI0
aI0
aI-5
aasS'name'
p129
VMatt Carroll
p130
sS'experience'
p131
I6
s.