(dp0
S'age'
p1
I24
sS'stats'
p2
(lp3
(lp4
V0020901216
p5
aVAPR 13, 2010
p6
aVDEN @ PHX
p7
aVL
p8
aI20
aI4
aI13
aF0.308
aI3
aI8
aF0.375
aI0
aI0
aF0.0
aI1
aI1
aI2
aI1
aI2
aI0
aI0
aI3
aI11
aI-5
aa(lp9
V0020901209
p10
aVAPR 12, 2010
p11
aVDEN vs. MEM
p12
aVW
p13
aI33
aI9
aI20
aF0.45
aI6
aI15
aF0.4
aI2
aI3
aF0.667
aI1
aI2
aI3
aI3
aI1
aI0
aI2
aI4
aI26
aI13
aa(lp14
V0020901192
p15
aVAPR 10, 2010
p16
aVDEN vs. SAS
p17
aVL
p18
aI26
aI4
aI12
aF0.333
aI3
aI7
aF0.429
aI2
aI2
aF1.0
aI0
aI1
aI1
aI3
aI1
aI1
aI3
aI1
aI13
aI-6
aa(lp19
V0020901173
p20
aVAPR 08, 2010
p21
aVDEN vs. LAL
p22
aVW
p23
aI32
aI10
aI19
aF0.526
aI5
aI11
aF0.455
aI1
aI2
aF0.5
aI1
aI5
aI6
aI1
aI1
aI0
aI0
aI3
aI26
aI5
aa(lp24
V0020901165
p25
aVAPR 07, 2010
p26
aVDEN @ OKC
p27
aVW
p28
aI30
aI4
aI13
aF0.308
aI0
aI5
aF0.0
aI2
aI3
aF0.667
aI0
aI1
aI1
aI1
aI4
aI2
aI1
aI4
aI10
aI0
aa(lp29
V0020901139
p30
aVAPR 03, 2010
p31
aVDEN vs. LAC
p32
aVW
p33
aI19
aI3
aI11
aF0.273
aI1
aI7
aF0.143
aI1
aI1
aF1.0
aI1
aI2
aI3
aI3
aI3
aI0
aI1
aI2
aI8
aI3
aa(lp34
V0020901121
p35
aVAPR 01, 2010
p36
aVDEN vs. POR
p37
aVW
p38
aI31
aI6
aI16
aF0.375
aI2
aI10
aF0.2
aI1
aI1
aF1.0
aI0
aI4
aI4
aI3
aI2
aI0
aI0
aI4
aI15
aI23
aa(lp39
V0020901100
p40
aVMAR 29, 2010
p41
aVDEN @ DAL
p42
aVL
p43
aI34
aI10
aI16
aF0.625
aI3
aI6
aF0.5
aI4
aI6
aF0.667
aI1
aI3
aI4
aI0
aI1
aI1
aI5
aI1
aI27
aI-5
aa(lp44
V0020901092
p45
aVMAR 28, 2010
p46
aVDEN @ ORL
p47
aVL
p48
aI22
aI6
aI10
aF0.6
aI1
aI3
aF0.333
aI0
aI1
aF0.0
aI0
aI2
aI2
aI0
aI0
aI0
aI4
aI2
aI13
aI-10
aa(lp49
V0020901075
p50
aVMAR 26, 2010
p51
aVDEN @ TOR
p52
aVW
p53
aI27
aI6
aI12
aF0.5
aI1
aI3
aF0.333
aI3
aI5
aF0.6
aI0
aI4
aI4
aI3
aI1
aI0
aI1
aI2
aI16
aI2
aa(lp54
V0020901058
p55
aVMAR 24, 2010
p56
aVDEN @ BOS
p57
aVL
p58
aI31
aI8
aI14
aF0.571
aI1
aI3
aF0.333
aI4
aI7
aF0.571
aI0
aI2
aI2
aI3
aI2
aI0
aI1
aI3
aI21
aI-3
aa(lp59
V0020901055
p60
aVMAR 23, 2010
p61
aVDEN @ NYK
p62
aVL
p63
aI23
aI4
aI16
aF0.25
aI2
aI9
aF0.222
aI1
aI2
aF0.5
aI0
aI4
aI4
aI2
aI0
aI0
aI4
aI2
aI11
aI-15
aa(lp64
V0020901034
p65
aVMAR 20, 2010
p66
aVDEN vs. MIL
p67
aVL
p68
aI25
aI5
aI16
aF0.313
aI1
aI5
aF0.2
aI0
aI0
aF0.0
aI1
aI3
aI4
aI1
aI0
aI0
aI2
aI4
aI11
aI-1
aa(lp69
V0020901017
p70
aVMAR 18, 2010
p71
aVDEN vs. NOH
p72
aVW
p73
aI22
aI7
aI18
aF0.389
aI1
aI3
aF0.333
aI2
aI2
aF1.0
aI1
aI2
aI3
aI2
aI0
aI1
aI1
aI1
aI17
aI12
aa(lp74
V0020901002
p75
aVMAR 16, 2010
p76
aVDEN vs. WAS
p77
aVW
p78
aI28
aI7
aI16
aF0.438
aI1
aI7
aF0.143
aI2
aI2
aF1.0
aI0
aI2
aI2
aI3
aI0
aI1
aI2
aI3
aI17
aI8
aa(lp79
V0020900993
p80
aVMAR 15, 2010
p81
aVDEN @ HOU
p82
aVL
p83
aI29
aI8
aI18
aF0.444
aI0
aI5
aF0.0
aI1
aI2
aF0.5
aI0
aI0
aI0
aI4
aI0
aI0
aI0
aI2
aI17
aI-7
aa(lp84
V0020900978
p85
aVMAR 13, 2010
p86
aVDEN @ MEM
p87
aVW
p88
aI28
aI11
aI16
aF0.688
aI7
aI10
aF0.7
aI1
aI2
aF0.5
aI0
aI2
aI2
aI2
aI0
aI0
aI0
aI2
aI30
aI20
aa(lp89
V0020900971
p90
aVMAR 12, 2010
p91
aVDEN @ NOH
p92
aVW
p93
aI25
aI1
aI12
aF0.083
aI0
aI6
aF0.0
aI1
aI2
aF0.5
aI1
aI2
aI3
aI4
aI2
aI0
aI1
aI2
aI3
aI1
aa(lp94
V0020900957
p95
aVMAR 10, 2010
p96
aVDEN @ MIN
p97
aVW
p98
aI33
aI6
aI15
aF0.4
aI3
aI10
aF0.3
aI0
aI0
aF0.0
aI1
aI3
aI4
aI3
aI2
aI0
aI0
aI4
aI15
aI9
aa(lp99
V0020900939
p100
aVMAR 07, 2010
p101
aVDEN vs. POR
p102
aVW
p103
aI29
aI8
aI14
aF0.571
aI4
aI8
aF0.5
aI2
aI2
aF1.0
aI0
aI2
aI2
aI7
aI2
aI0
aI1
aI1
aI22
aI7
aa(lp104
V0020900922
p105
aVMAR 05, 2010
p106
aVDEN vs. IND
p107
aVW
p108
aI32
aI6
aI15
aF0.4
aI3
aI10
aF0.3
aI5
aI5
aF1.0
aI0
aI4
aI4
aI8
aI1
aI0
aI2
aI2
aI20
aI3
aa(lp109
V0020900908
p110
aVMAR 03, 2010
p111
aVDEN vs. OKC
p112
aVW
p113
aI24
aI6
aI8
aF0.75
aI4
aI5
aF0.8
aI2
aI2
aF1.0
aI0
aI2
aI2
aI0
aI2
aI0
aI2
aI1
aI18
aI23
aa(lp114
V0020900893
p115
aVMAR 01, 2010
p116
aVDEN @ PHX
p117
aVL
p118
aI33
aI6
aI14
aF0.429
aI4
aI10
aF0.4
aI0
aI0
aF0.0
aI0
aI3
aI3
aI1
aI0
aI0
aI2
aI3
aI16
aI-15
aa(lp119
V0020900879
p120
aVFEB 28, 2010
p121
aVDEN @ LAL
p122
aVL
p123
aI25
aI3
aI12
aF0.25
aI1
aI7
aF0.143
aI0
aI0
aF0.0
aI2
aI3
aI5
aI2
aI4
aI0
aI0
aI2
aI7
aI-11
aa(lp124
V0020900867
p125
aVFEB 26, 2010
p126
aVDEN vs. DET
p127
aVW
p128
aI28
aI5
aI10
aF0.5
aI2
aI4
aF0.5
aI3
aI5
aF0.6
aI0
aI5
aI5
aI4
aI5
aI1
aI0
aI0
aI15
aI17
aa(lp129
V0020900858
p130
aVFEB 25, 2010
p131
aVDEN @ GSW
p132
aVW
p133
aI32
aI8
aI17
aF0.471
aI7
aI13
aF0.538
aI2
aI2
aF1.0
aI1
aI7
aI8
aI3
aI4
aI0
aI2
aI2
aI25
aI21
aa(lp134
V0020900824
p135
aVFEB 21, 2010
p136
aVDEN vs. BOS
p137
aVW
p138
aI27
aI6
aI16
aF0.375
aI5
aI11
aF0.455
aI2
aI2
aF1.0
aI0
aI4
aI4
aI1
aI0
aI0
aI1
aI4
aI19
aI-1
aa(lp139
V0020900806
p140
aVFEB 19, 2010
p141
aVDEN @ WAS
p142
aVL
p143
aI23
aI1
aI8
aF0.125
aI0
aI3
aF0.0
aI2
aI2
aF1.0
aI1
aI1
aI2
aI1
aI1
aI0
aI0
aI4
aI4
aI0
aa(lp144
V0020900802
p145
aVFEB 18, 2010
p146
aVDEN @ CLE
p147
aVW
p148
aI30
aI6
aI12
aF0.5
aI1
aI3
aF0.333
aI1
aI2
aF0.5
aI0
aI3
aI3
aI2
aI1
aI1
aI1
aI2
aI14
aI7
aa(lp149
V0020900780
p150
aVFEB 11, 2010
p151
aVDEN vs. SAS
p152
aVL
p153
aI23
aI4
aI14
aF0.286
aI0
aI4
aF0.0
aI6
aI9
aF0.667
aI2
aI4
aI6
aI1
aI2
aI2
aI1
aI2
aI14
aI-14
aa(lp154
V0020900766
p155
aVFEB 09, 2010
p156
aVDEN vs. DAL
p157
aVW
p158
aI24
aI5
aI11
aF0.455
aI2
aI4
aF0.5
aI0
aI0
aF0.0
aI1
aI2
aI3
aI3
aI1
aI0
aI3
aI2
aI12
aI31
aa(lp159
V0020900749
p160
aVFEB 06, 2010
p161
aVDEN @ UTA
p162
aVL
p163
aI33
aI6
aI18
aF0.333
aI2
aI6
aF0.333
aI5
aI5
aF1.0
aI0
aI5
aI5
aI3
aI2
aI1
aI2
aI4
aI19
aI1
aa(lp164
V0020900740
p165
aVFEB 05, 2010
p166
aVDEN @ LAL
p167
aVW
p168
aI35
aI11
aI17
aF0.647
aI3
aI4
aF0.75
aI2
aI2
aF1.0
aI0
aI4
aI4
aI4
aI1
aI0
aI4
aI2
aI27
aI20
aa(lp169
V0020900725
p170
aVFEB 03, 2010
p171
aVDEN vs. PHX
p172
aVL
p173
aI31
aI5
aI12
aF0.417
aI2
aI6
aF0.333
aI3
aI6
aF0.5
aI0
aI4
aI4
aI5
aI1
aI0
aI2
aI1
aI15
aI-11
aa(lp174
V0020900708
p175
aVFEB 01, 2010
p176
aVDEN vs. SAC
p177
aVW
p178
aI33
aI4
aI13
aF0.308
aI0
aI7
aF0.0
aI1
aI1
aF1.0
aI0
aI2
aI2
aI2
aI2
aI0
aI0
aI3
aI9
aI10
aa(lp179
V0020900695
p180
aVJAN 31, 2010
p181
aVDEN @ SAS
p182
aVW
p183
aI32
aI5
aI9
aF0.556
aI3
aI4
aF0.75
aI5
aI6
aF0.833
aI0
aI3
aI3
aI3
aI1
aI0
aI3
aI1
aI18
aI17
aa(lp184
V0020900684
p185
aVJAN 29, 2010
p186
aVDEN @ OKC
p187
aVL
p188
aI29
aI6
aI15
aF0.4
aI5
aI10
aF0.5
aI1
aI2
aF0.5
aI0
aI3
aI3
aI0
aI2
aI0
aI2
aI4
aI18
aI-12
aa(lp189
V0020900670
p190
aVJAN 27, 2010
p191
aVDEN @ HOU
p192
aVW
p193
aI38
aI7
aI16
aF0.438
aI3
aI8
aF0.375
aI5
aI8
aF0.625
aI0
aI5
aI5
aI2
aI3
aI0
aI2
aI2
aI22
aI18
aa(lp194
V0020900655
p195
aVJAN 25, 2010
p196
aVDEN vs. CHA
p197
aVW
p198
aI28
aI5
aI14
aF0.357
aI2
aI9
aF0.222
aI0
aI0
aF0.0
aI1
aI5
aI6
aI3
aI2
aI1
aI1
aI2
aI12
aI5
aa(lp199
V0020900643
p200
aVJAN 23, 2010
p201
aVDEN vs. NOH
p202
aVW
p203
aI12
aI1
aI5
aF0.2
aI1
aI5
aF0.2
aI0
aI0
aF0.0
aI0
aI1
aI1
aI0
aI0
aI0
aI1
aI0
aI3
aI-10
aa(lp204
V0020900622
p205
aVJAN 21, 2010
p206
aVDEN vs. LAC
p207
aVW
p208
aI24
aI1
aI7
aF0.143
aI0
aI3
aF0.0
aI1
aI2
aF0.5
aI0
aI0
aI0
aI2
aI0
aI0
aI3
aI1
aI3
aI-2
aa(lp209
V0020900619
p210
aVJAN 20, 2010
p211
aVDEN @ GSW
p212
aVW
p213
aI34
aI6
aI15
aF0.4
aI2
aI6
aF0.333
aI0
aI0
aF0.0
aI0
aI6
aI6
aI2
aI2
aI0
aI1
aI4
aI14
aI7
aa(lp214
V0020900593
p215
aVJAN 17, 2010
p216
aVDEN vs. UTA
p217
aVW
p218
aI22
aI4
aI12
aF0.333
aI2
aI6
aF0.333
aI1
aI1
aF1.0
aI0
aI5
aI5
aI5
aI1
aI1
aI2
aI1
aI11
aI2
aa(lp219
V0020900566
p220
aVJAN 13, 2010
p221
aVDEN vs. ORL
p222
aVW
p223
aI24
aI6
aI9
aF0.667
aI3
aI4
aF0.75
aI2
aI4
aF0.5
aI0
aI2
aI2
aI3
aI0
aI0
aI3
aI0
aI17
aI6
aa(lp224
V0020900549
p225
aVJAN 11, 2010
p226
aVDEN vs. MIN
p227
aVW
p228
aI27
aI5
aI12
aF0.417
aI2
aI8
aF0.25
aI0
aI0
aF0.0
aI0
aI4
aI4
aI6
aI2
aI1
aI2
aI2
aI12
aI10
aa(lp229
V0020900537
p230
aVJAN 09, 2010
p231
aVDEN @ SAC
p232
aVL
p233
aI37
aI8
aI21
aF0.381
aI2
aI8
aF0.25
aI2
aI4
aF0.5
aI1
aI3
aI4
aI2
aI3
aI0
aI4
aI5
aI20
aI6
aa(lp234
V0020900528
p235
aVJAN 08, 2010
p236
aVDEN vs. CLE
p237
aVW
p238
aI27
aI3
aI10
aF0.3
aI1
aI3
aF0.333
aI4
aI4
aF1.0
aI0
aI2
aI2
aI3
aI0
aI0
aI5
aI2
aI11
aI9
aa(lp239
V0020900503
p240
aVJAN 05, 2010
p241
aVDEN vs. GSW
p242
aVW
p243
aI33
aI8
aI20
aF0.4
aI1
aI4
aF0.25
aI4
aI5
aF0.8
aI0
aI5
aI5
aI3
aI0
aI0
aI3
aI1
aI21
aI6
aa(lp244
V0020900492
p245
aVJAN 03, 2010
p246
aVDEN vs. PHI
p247
aVL
p248
aI35
aI4
aI12
aF0.333
aI0
aI4
aF0.0
aI0
aI0
aF0.0
aI0
aI2
aI2
aI3
aI2
aI0
aI6
aI5
aI8
aI-7
aa(lp249
V0020900486
p250
aVJAN 02, 2010
p251
aVDEN @ UTA
p252
aVW
p253
aI33
aI7
aI19
aF0.368
aI1
aI8
aF0.125
aI3
aI5
aF0.6
aI1
aI1
aI2
aI4
aI0
aI0
aI0
aI5
aI18
aI5
aa(lp254
V0020900450
p255
aVDEC 28, 2009
p256
aVDEN @ SAC
p257
aVL
p258
aI23
aI1
aI9
aF0.111
aI0
aI3
aF0.0
aI2
aI4
aF0.5
aI1
aI2
aI3
aI1
aI2
aI0
aI4
aI6
aI4
aI-16
aa(lp259
V0020900443
p260
aVDEC 27, 2009
p261
aVDEN vs. DAL
p262
aVL
p263
aI28
aI3
aI12
aF0.25
aI2
aI6
aF0.333
aI3
aI3
aF1.0
aI0
aI3
aI3
aI4
aI2
aI0
aI2
aI3
aI11
aI-6
aa(lp264
V0020900428
p265
aVDEC 25, 2009
p266
aVDEN @ POR
p267
aVL
p268
aI29
aI9
aI23
aF0.391
aI2
aI6
aF0.333
aI0
aI0
aF0.0
aI1
aI2
aI3
aI0
aI0
aI0
aI2
aI1
aI20
aI-7
aa(lp269
V0020900421
p270
aVDEC 23, 2009
p271
aVDEN vs. ATL
p272
aVW
p273
aI30
aI15
aI25
aF0.6
aI10
aI17
aF0.588
aI1
aI6
aF0.167
aI0
aI2
aI2
aI3
aI0
aI0
aI0
aI1
aI41
aI6
aa(lp274
V0020900394
p275
aVDEC 20, 2009
p276
aVDEN @ MEM
p277
aVL
p278
aI29
aI2
aI12
aF0.167
aI2
aI6
aF0.333
aI1
aI2
aF0.5
aI0
aI2
aI2
aI0
aI2
aI0
aI3
aI0
aI7
aI1
aa(lp279
V0020900379
p280
aVDEC 18, 2009
p281
aVDEN @ NOH
p282
aVL
p283
aI30
aI11
aI17
aF0.647
aI0
aI3
aF0.0
aI3
aI5
aF0.6
aI1
aI2
aI3
aI1
aI1
aI0
aI1
aI1
aI25
aI3
aa(lp284
V0020900367
p285
aVDEC 16, 2009
p286
aVDEN vs. HOU
p287
aVW
p288
aI29
aI9
aI14
aF0.643
aI2
aI5
aF0.4
aI1
aI3
aF0.333
aI0
aI3
aI3
aI3
aI2
aI0
aI2
aI3
aI21
aI16
aa(lp289
V0020900348
p290
aVDEC 14, 2009
p291
aVDEN vs. OKC
p292
aVW
p293
aI33
aI5
aI14
aF0.357
aI1
aI5
aF0.2
aI8
aI10
aF0.8
aI1
aI2
aI3
aI2
aI0
aI0
aI3
aI4
aI19
aI3
aa(lp294
V0020900336
p295
aVDEC 12, 2009
p296
aVDEN vs. PHX
p297
aVW
p298
aI21
aI0
aI8
aF0.0
aI0
aI3
aF0.0
aI2
aI2
aF1.0
aI0
aI1
aI1
aI0
aI1
aI0
aI1
aI3
aI2
aI-9
aa(lp299
V0020900317
p300
aVDEC 10, 2009
p301
aVDEN @ DET
p302
aVL
p303
aI30
aI5
aI16
aF0.313
aI2
aI5
aF0.4
aI2
aI2
aF1.0
aI1
aI6
aI7
aI1
aI2
aI0
aI0
aI2
aI14
aI-6
aa(lp304
V0020900300
p305
aVDEC 08, 2009
p306
aVDEN @ CHA
p307
aVL
p308
aI30
aI7
aI16
aF0.438
aI1
aI5
aF0.2
aI1
aI1
aF1.0
aI0
aI2
aI2
aI4
aI4
aI0
aI1
aI3
aI16
aI-12
aa(lp309
V0020900296
p310
aVDEC 07, 2009
p311
aVDEN @ PHI
p312
aVW
p313
aI21
aI3
aI9
aF0.333
aI3
aI4
aF0.75
aI2
aI2
aF1.0
aI0
aI2
aI2
aI1
aI0
aI0
aI2
aI1
aI11
aI10
aa(lp314
V0020900285
p315
aVDEC 05, 2009
p316
aVDEN @ SAS
p317
aVW
p318
aI29
aI6
aI17
aF0.353
aI1
aI4
aF0.25
aI4
aI5
aF0.8
aI0
aI7
aI7
aI1
aI3
aI2
aI4
aI3
aI17
aI17
aa(lp319
V0020900270
p320
aVDEC 03, 2009
p321
aVDEN vs. MIA
p322
aVW
p323
aI29
aI5
aI11
aF0.455
aI3
aI6
aF0.5
aI3
aI6
aF0.5
aI1
aI3
aI4
aI6
aI0
aI2
aI3
aI3
aI16
aI14
aa(lp324
V0020900256
p325
aVDEC 01, 2009
p326
aVDEN vs. GSW
p327
aVW
p328
aI21
aI5
aI12
aF0.417
aI0
aI2
aF0.0
aI0
aI0
aF0.0
aI0
aI3
aI3
aI4
aI1
aI0
aI5
aI2
aI10
aI17
aa(lp329
V0020900246
p330
aVNOV 29, 2009
p331
aVDEN vs. MIN
p332
aVL
p333
aI22
aI3
aI11
aF0.273
aI0
aI4
aF0.0
aI1
aI2
aF0.5
aI1
aI0
aI1
aI3
aI0
aI0
aI1
aI1
aI7
aI2
aa(lp334
V0020900230
p335
aVNOV 27, 2009
p336
aVDEN vs. NYK
p337
aVW
p338
aI25
aI6
aI11
aF0.545
aI4
aI6
aF0.667
aI1
aI2
aF0.5
aI0
aI3
aI3
aI2
aI0
aI1
aI0
aI2
aI17
aI-6
aa(lp339
V0020900213
p340
aVNOV 25, 2009
p341
aVDEN @ MIN
p342
aVW
p343
aI17
aI6
aI11
aF0.545
aI2
aI4
aF0.5
aI0
aI0
aF0.0
aI0
aI1
aI1
aI1
aI1
aI0
aI2
aI1
aI14
aI2
aa(lp344
V0020900205
p345
aVNOV 24, 2009
p346
aVDEN vs. NJN
p347
aVW
p348
aI31
aI4
aI8
aF0.5
aI0
aI2
aF0.0
aI5
aI6
aF0.833
aI0
aI1
aI1
aI4
aI1
aI1
aI4
aI0
aI13
aI1
aa(lp349
V0020900189
p350
aVNOV 21, 2009
p351
aVDEN vs. CHI
p352
aVW
p353
aI31
aI8
aI17
aF0.471
aI3
aI9
aF0.333
aI0
aI0
aF0.0
aI1
aI2
aI3
aI4
aI0
aI0
aI0
aI1
aI19
aI23
aa(lp354
V0020900182
p355
aVNOV 20, 2009
p356
aVDEN @ LAC
p357
aVL
p358
aI30
aI4
aI13
aF0.308
aI1
aI7
aF0.143
aI0
aI0
aF0.0
aI1
aI1
aI2
aI1
aI2
aI0
aI2
aI3
aI9
aI-8
aa(lp359
V0020900155
p360
aVNOV 17, 2009
p361
aVDEN vs. TOR
p362
aVW
p363
aI22
aI11
aI17
aF0.647
aI5
aI9
aF0.556
aI2
aI2
aF1.0
aI0
aI1
aI1
aI1
aI1
aI0
aI2
aI5
aI29
aI12
aa(lp364
V0020900131
p365
aVNOV 13, 2009
p366
aVDEN vs. LAL
p367
aVW
p368
aI23
aI7
aI16
aF0.438
aI4
aI10
aF0.4
aI2
aI2
aF1.0
aI0
aI3
aI3
aI1
aI0
aI0
aI1
aI1
aI20
aI6
aa(lp369
V0020900115
p370
aVNOV 11, 2009
p371
aVDEN @ MIL
p372
aVL
p373
aI28
aI7
aI15
aF0.467
aI1
aI5
aF0.2
aI3
aI3
aF1.0
aI0
aI2
aI2
aI0
aI4
aI0
aI2
aI3
aI18
aI-6
aa(lp374
V0020900105
p375
aVNOV 10, 2009
p376
aVDEN @ CHI
p377
aVW
p378
aI29
aI1
aI9
aF0.111
aI0
aI3
aF0.0
aI3
aI4
aF0.75
aI0
aI3
aI3
aI5
aI1
aI0
aI3
aI2
aI5
aI12
aasS'name'
p379
VJ.R. Smith
p380
sS'experience'
p381
I5
s.