(dp0
S'age'
p1
I24
sS'stats'
p2
(lp3
(lp4
V0020900003
p5
aVOCT 27, 2009
p6
aVHOU @ POR
p7
aVL
p8
aI33
aI3
aI8
aF0.375
aI2
aI4
aF0.5
aI4
aI6
aF0.667
aI0
aI3
aI3
aI2
aI1
aI0
aI4
aI3
aI12
aI-10
aa(lp9
V0020900015
p10
aVOCT 28, 2009
p11
aVHOU @ GSW
p12
aVW
p13
aI40
aI9
aI21
aF0.429
aI4
aI9
aF0.444
aI3
aI4
aF0.75
aI2
aI3
aI5
aI5
aI2
aI1
aI6
aI5
aI25
aI2
aa(lp14
V0020900035
p15
aVOCT 31, 2009
p16
aVHOU vs. POR
p17
aVW
p18
aI43
aI11
aI17
aF0.647
aI5
aI8
aF0.625
aI6
aI9
aF0.667
aI1
aI2
aI3
aI3
aI2
aI0
aI2
aI4
aI33
aI5
aa(lp19
V0020900048
p20
aVNOV 02, 2009
p21
aVHOU @ UTA
p22
aVW
p23
aI34
aI6
aI15
aF0.4
aI2
aI4
aF0.5
aI1
aI1
aF1.0
aI0
aI2
aI2
aI3
aI2
aI0
aI2
aI2
aI15
aI4
aa(lp24
V0020900066
p25
aVNOV 04, 2009
p26
aVHOU vs. LAL
p27
aVL
p28
aI48
aI5
aI21
aF0.238
aI2
aI7
aF0.286
aI3
aI4
aF0.75
aI3
aI6
aI9
aI5
aI0
aI1
aI3
aI3
aI15
aI2
aa(lp29
V0020900081
p30
aVNOV 06, 2009
p31
aVHOU vs. OKC
p32
aVW
p33
aI36
aI8
aI18
aF0.444
aI2
aI5
aF0.4
aI3
aI3
aF1.0
aI1
aI4
aI5
aI6
aI1
aI0
aI3
aI3
aI21
aI13
aa(lp34
V0020900107
p35
aVNOV 10, 2009
p36
aVHOU @ DAL
p37
aVL
p38
aI32
aI3
aI10
aF0.3
aI1
aI3
aF0.333
aI2
aI3
aF0.667
aI1
aI4
aI5
aI2
aI2
aI1
aI3
aI1
aI9
aI-12
aa(lp39
V0020900118
p40
aVNOV 11, 2009
p41
aVHOU vs. MEM
p42
aVW
p43
aI34
aI7
aI17
aF0.412
aI1
aI8
aF0.125
aI2
aI3
aF0.667
aI0
aI5
aI5
aI7
aI2
aI0
aI1
aI3
aI17
aI18
aa(lp44
V0020900130
p45
aVNOV 13, 2009
p46
aVHOU @ SAC
p47
aVL
p48
aI44
aI10
aI21
aF0.476
aI4
aI12
aF0.333
aI4
aI4
aF1.0
aI2
aI4
aI6
aI5
aI5
aI1
aI0
aI1
aI28
aI0
aa(lp49
V0020900146
p50
aVNOV 15, 2009
p51
aVHOU @ LAL
p52
aVW
p53
aI39
aI2
aI12
aF0.167
aI1
aI7
aF0.143
aI4
aI6
aF0.667
aI0
aI8
aI8
aI4
aI4
aI2
aI6
aI3
aI9
aI9
aa(lp54
V0020900154
p55
aVNOV 17, 2009
p56
aVHOU vs. PHX
p57
aVL
p58
aI39
aI8
aI21
aF0.381
aI3
aI5
aF0.6
aI0
aI0
aF0.0
aI1
aI8
aI9
aI4
aI3
aI0
aI0
aI3
aI19
aI-2
aa(lp59
V0020900166
p60
aVNOV 18, 2009
p61
aVHOU @ MIN
p62
aVW
p63
aI38
aI6
aI19
aF0.316
aI4
aI13
aF0.308
aI2
aI2
aF1.0
aI0
aI4
aI4
aI3
aI2
aI0
aI4
aI1
aI18
aI15
aa(lp64
V0020900176
p65
aVNOV 20, 2009
p66
aVHOU @ ATL
p67
aVL
p68
aI38
aI7
aI18
aF0.389
aI2
aI8
aF0.25
aI0
aI0
aF0.0
aI2
aI6
aI8
aI2
aI1
aI0
aI3
aI1
aI16
aI-12
aa(lp69
V0020900187
p70
aVNOV 21, 2009
p71
aVHOU vs. SAC
p72
aVW
p73
aI44
aI7
aI19
aF0.368
aI1
aI6
aF0.167
aI4
aI4
aF1.0
aI1
aI3
aI4
aI1
aI3
aI0
aI0
aI3
aI19
aI8
aa(lp74
V0020900215
p75
aVNOV 25, 2009
p76
aVHOU vs. DAL
p77
aVL
p78
aI37
aI8
aI15
aF0.533
aI2
aI6
aF0.333
aI2
aI3
aF0.667
aI0
aI1
aI1
aI3
aI2
aI2
aI2
aI1
aI20
aI-20
aa(lp79
V0020900229
p80
aVNOV 27, 2009
p81
aVHOU vs. SAS
p82
aVL
p83
aI44
aI6
aI21
aF0.286
aI4
aI6
aF0.667
aI1
aI4
aF0.25
aI3
aI8
aI11
aI5
aI2
aI1
aI2
aI4
aI17
aI-10
aa(lp84
V0020900244
p85
aVNOV 29, 2009
p86
aVHOU @ OKC
p87
aVW
p88
aI41
aI7
aI23
aF0.304
aI1
aI9
aF0.111
aI2
aI2
aF1.0
aI0
aI2
aI2
aI3
aI4
aI2
aI3
aI3
aI17
aI10
aa(lp89
V0020900268
p90
aVDEC 02, 2009
p91
aVHOU @ LAC
p92
aVW
p93
aI34
aI7
aI16
aF0.438
aI2
aI6
aF0.333
aI0
aI0
aF0.0
aI0
aI3
aI3
aI4
aI1
aI0
aI2
aI4
aI16
aI18
aa(lp94
V0020900271
p95
aVDEC 03, 2009
p96
aVHOU @ GSW
p97
aVW
p98
aI47
aI8
aI19
aF0.421
aI1
aI6
aF0.167
aI1
aI2
aF0.5
aI4
aI1
aI5
aI4
aI3
aI2
aI5
aI4
aI18
aI5
aa(lp99
V0020900288
p100
aVDEC 05, 2009
p101
aVHOU @ POR
p102
aVL
p103
aI36
aI3
aI12
aF0.25
aI0
aI2
aF0.0
aI1
aI2
aF0.5
aI0
aI4
aI4
aI1
aI2
aI0
aI0
aI2
aI7
aI-4
aa(lp104
V0020900314
p105
aVDEC 09, 2009
p106
aVHOU vs. CLE
p107
aVW
p108
aI45
aI11
aI19
aF0.579
aI4
aI6
aF0.667
aI0
aI0
aF0.0
aI0
aI5
aI5
aI2
aI2
aI0
aI3
aI2
aI26
aI18
aa(lp109
V0020900321
p110
aVDEC 11, 2009
p111
aVHOU @ PHI
p112
aVW
p113
aI42
aI5
aI13
aF0.385
aI2
aI5
aF0.4
aI1
aI6
aF0.167
aI1
aI11
aI12
aI3
aI2
aI0
aI2
aI2
aI13
aI2
aa(lp114
V0020900339
p115
aVDEC 13, 2009
p116
aVHOU @ TOR
p117
aVL
p118
aI26
aI0
aI9
aF0.0
aI0
aI3
aF0.0
aI1
aI2
aF0.5
aI0
aI2
aI2
aI1
aI1
aI0
aI4
aI2
aI1
aI-22
aa(lp119
V0020900367
p120
aVDEC 16, 2009
p121
aVHOU @ DEN
p122
aVL
p123
aI35
aI7
aI18
aF0.389
aI1
aI8
aF0.125
aI3
aI3
aF1.0
aI2
aI6
aI8
aI4
aI1
aI0
aI3
aI3
aI18
aI-15
aa(lp124
V0020900382
p125
aVDEC 18, 2009
p126
aVHOU @ DAL
p127
aVW
p128
aI44
aI5
aI10
aF0.5
aI0
aI1
aF0.0
aI3
aI5
aF0.6
aI3
aI5
aI8
aI2
aI0
aI1
aI2
aI2
aI13
aI-8
aa(lp129
V0020900389
p130
aVDEC 19, 2009
p131
aVHOU vs. OKC
p132
aVW
p133
aI47
aI11
aI20
aF0.55
aI5
aI8
aF0.625
aI4
aI10
aF0.4
aI1
aI7
aI8
aI6
aI2
aI1
aI1
aI1
aI31
aI5
aa(lp134
V0020900412
p135
aVDEC 22, 2009
p136
aVHOU vs. LAC
p137
aVW
p138
aI35
aI2
aI11
aF0.182
aI0
aI4
aF0.0
aI3
aI6
aF0.5
aI1
aI3
aI4
aI6
aI1
aI2
aI1
aI3
aI7
aI4
aa(lp139
V0020900414
p140
aVDEC 23, 2009
p141
aVHOU @ ORL
p142
aVL
p143
aI36
aI1
aI10
aF0.1
aI0
aI3
aF0.0
aI4
aI4
aF1.0
aI1
aI6
aI7
aI1
aI1
aI0
aI1
aI2
aI6
aI-23
aa(lp144
V0020900431
p145
aVDEC 26, 2009
p146
aVHOU @ NJN
p147
aVW
p148
aI43
aI5
aI17
aF0.294
aI1
aI8
aF0.125
aI2
aI2
aF1.0
aI3
aI8
aI11
aI8
aI0
aI0
aI1
aI3
aI13
aI9
aa(lp149
V0020900440
p150
aVDEC 27, 2009
p151
aVHOU @ CLE
p152
aVL
p153
aI31
aI2
aI10
aF0.2
aI2
aI5
aF0.4
aI5
aI8
aF0.625
aI2
aI3
aI5
aI3
aI0
aI0
aI2
aI0
aI11
aI-22
aa(lp154
V0020900456
p155
aVDEC 29, 2009
p156
aVHOU vs. NOH
p157
aVW
p158
aI38
aI5
aI15
aF0.333
aI2
aI8
aF0.25
aI1
aI2
aF0.5
aI2
aI3
aI5
aI5
aI1
aI0
aI3
aI3
aI13
aI-4
aa(lp159
V0020900470
p160
aVDEC 31, 2009
p161
aVHOU vs. DAL
p162
aVW
p163
aI41
aI4
aI10
aF0.4
aI0
aI2
aF0.0
aI3
aI6
aF0.5
aI1
aI8
aI9
aI7
aI3
aI0
aI5
aI2
aI11
aI5
aa(lp164
V0020900483
p165
aVJAN 02, 2010
p166
aVHOU @ NOH
p167
aVL
p168
aI38
aI7
aI14
aF0.5
aI2
aI7
aF0.286
aI3
aI4
aF0.75
aI0
aI7
aI7
aI3
aI1
aI0
aI7
aI2
aI19
aI-6
aa(lp169
V0020900506
p170
aVJAN 05, 2010
p171
aVHOU @ LAL
p172
aVL
p173
aI38
aI5
aI14
aF0.357
aI1
aI5
aF0.2
aI1
aI1
aF1.0
aI1
aI2
aI3
aI8
aI1
aI0
aI2
aI1
aI12
aI-2
aa(lp174
V0020900514
p175
aVJAN 06, 2010
p176
aVHOU @ PHX
p177
aVL
p178
aI33
aI5
aI14
aF0.357
aI4
aI11
aF0.364
aI1
aI1
aF1.0
aI0
aI4
aI4
aI1
aI1
aI0
aI0
aI1
aI15
aI-19
aa(lp179
V0020900536
p180
aVJAN 09, 2010
p181
aVHOU vs. NYK
p182
aVW
p183
aI23
aI4
aI8
aF0.5
aI2
aI6
aF0.333
aI0
aI0
aF0.0
aI0
aI2
aI2
aI3
aI3
aI0
aI1
aI5
aI10
aI-5
aa(lp184
V0020900553
p185
aVJAN 12, 2010
p186
aVHOU @ CHA
p187
aVL
p188
aI39
aI7
aI16
aF0.438
aI2
aI6
aF0.333
aI3
aI6
aF0.5
aI3
aI3
aI6
aI4
aI2
aI0
aI4
aI2
aI19
aI-10
aa(lp189
V0020900565
p190
aVJAN 13, 2010
p191
aVHOU vs. MIN
p192
aVW
p193
aI57
aI7
aI19
aF0.368
aI0
aI5
aF0.0
aI5
aI7
aF0.714
aI0
aI7
aI7
aI7
aI2
aI0
aI4
aI2
aI19
aI10
aa(lp194
V0020900580
p195
aVJAN 15, 2010
p196
aVHOU vs. MIA
p197
aVL
p198
aI35
aI5
aI14
aF0.357
aI2
aI4
aF0.5
aI3
aI4
aF0.75
aI1
aI5
aI6
aI3
aI1
aI1
aI3
aI1
aI15
aI7
aa(lp199
V0020900598
p200
aVJAN 18, 2010
p201
aVHOU vs. MIL
p202
aVW
p203
aI40
aI4
aI9
aF0.444
aI1
aI5
aF0.2
aI2
aI2
aF1.0
aI0
aI4
aI4
aI0
aI1
aI0
aI3
aI3
aI11
aI-11
aa(lp204
V0020900633
p205
aVJAN 22, 2010
p206
aVHOU @ SAS
p207
aVW
p208
aI33
aI5
aI11
aF0.455
aI1
aI3
aF0.333
aI2
aI3
aF0.667
aI0
aI6
aI6
aI4
aI1
aI0
aI2
aI1
aI13
aI6
aa(lp209
V0020900641
p210
aVJAN 23, 2010
p211
aVHOU vs. CHI
p212
aVL
p213
aI39
aI3
aI14
aF0.214
aI1
aI7
aF0.143
aI1
aI2
aF0.5
aI2
aI3
aI5
aI2
aI3
aI0
aI0
aI1
aI8
aI-6
aa(lp214
V0020900653
p215
aVJAN 25, 2010
p216
aVHOU vs. ATL
p217
aVL
p218
aI23
aI4
aI11
aF0.364
aI0
aI4
aF0.0
aI0
aI0
aF0.0
aI0
aI2
aI2
aI2
aI0
aI0
aI2
aI0
aI8
aI-8
aa(lp219
V0020900670
p220
aVJAN 27, 2010
p221
aVHOU vs. DEN
p222
aVL
p223
aI38
aI8
aI21
aF0.381
aI2
aI6
aF0.333
aI1
aI2
aF0.5
aI1
aI9
aI10
aI3
aI2
aI0
aI0
aI3
aI19
aI10
aa(lp224
V0020900685
p225
aVJAN 29, 2010
p226
aVHOU vs. POR
p227
aVW
p228
aI39
aI5
aI11
aF0.455
aI1
aI2
aF0.5
aI1
aI4
aF0.25
aI0
aI4
aI4
aI3
aI2
aI0
aI2
aI0
aI12
aI4
aa(lp229
V0020900701
p230
aVJAN 31, 2010
p231
aVHOU vs. PHX
p232
aVL
p233
aI45
aI7
aI21
aF0.333
aI4
aI10
aF0.4
aI3
aI6
aF0.5
aI3
aI4
aI7
aI4
aI2
aI1
aI0
aI3
aI21
aI3
aa(lp234
V0020900717
p235
aVFEB 02, 2010
p236
aVHOU vs. GSW
p237
aVW
p238
aI39
aI6
aI16
aF0.375
aI1
aI6
aF0.167
aI5
aI5
aF1.0
aI0
aI5
aI5
aI2
aI1
aI0
aI2
aI2
aI18
aI22
aa(lp239
V0020900736
p240
aVFEB 05, 2010
p241
aVHOU @ MEM
p242
aVW
p243
aI33
aI7
aI16
aF0.438
aI2
aI6
aF0.333
aI1
aI2
aF0.5
aI1
aI7
aI8
aI1
aI2
aI1
aI1
aI1
aI17
aI13
aa(lp244
V0020900747
p245
aVFEB 06, 2010
p246
aVHOU vs. PHI
p247
aVL
p248
aI36
aI3
aI9
aF0.333
aI1
aI2
aF0.5
aI2
aI4
aF0.5
aI0
aI2
aI2
aI4
aI2
aI1
aI1
aI1
aI9
aI-22
aa(lp249
V0020900787
p250
aVFEB 16, 2010
p251
aVHOU vs. UTA
p252
aVL
p253
aI36
aI4
aI10
aF0.4
aI2
aI5
aF0.4
aI5
aI5
aF1.0
aI2
aI3
aI5
aI6
aI2
aI0
aI4
aI2
aI15
aI-9
aa(lp254
V0020900797
p255
aVFEB 17, 2010
p256
aVHOU @ MIL
p257
aVW
p258
aI27
aI8
aI11
aF0.727
aI6
aI7
aF0.857
aI0
aI0
aF0.0
aI0
aI1
aI1
aI3
aI2
aI0
aI2
aI4
aI22
aI25
aa(lp259
V0020900820
p260
aVFEB 20, 2010
p261
aVHOU vs. IND
p262
aVL
p263
aI36
aI6
aI11
aF0.545
aI3
aI5
aF0.6
aI1
aI1
aF1.0
aI3
aI6
aI9
aI5
aI1
aI2
aI1
aI3
aI16
aI-11
aa(lp264
V0020900828
p265
aVFEB 21, 2010
p266
aVHOU @ NOH
p267
aVL
p268
aI29
aI2
aI10
aF0.2
aI1
aI7
aF0.143
aI0
aI0
aF0.0
aI1
aI5
aI6
aI8
aI0
aI1
aI3
aI3
aI5
aI0
aa(lp269
V0020900948
p270
aVMAR 09, 2010
p271
aVHOU @ WAS
p272
aVW
p273
aI28
aI4
aI13
aF0.308
aI3
aI7
aF0.429
aI2
aI2
aF1.0
aI2
aI1
aI3
aI2
aI2
aI0
aI1
aI2
aI13
aI0
aa(lp274
V0020900980
p275
aVMAR 13, 2010
p276
aVHOU vs. NJN
p277
aVW
p278
aI36
aI5
aI11
aF0.455
aI2
aI6
aF0.333
aI0
aI0
aF0.0
aI0
aI10
aI10
aI6
aI1
aI0
aI4
aI2
aI12
aI6
aa(lp279
V0020900993
p280
aVMAR 15, 2010
p281
aVHOU vs. DEN
p282
aVW
p283
aI36
aI5
aI9
aF0.556
aI1
aI2
aF0.5
aI1
aI2
aF0.5
aI0
aI5
aI5
aI4
aI2
aI0
aI1
aI3
aI12
aI0
aa(lp284
V0020901012
p285
aVMAR 17, 2010
p286
aVHOU vs. MEM
p287
aVW
p288
aI22
aI2
aI7
aF0.286
aI0
aI2
aF0.0
aI3
aI4
aF0.75
aI1
aI2
aI3
aI1
aI1
aI4
aI1
aI1
aI7
aI1
aa(lp289
V0020901023
p290
aVMAR 19, 2010
p291
aVHOU vs. BOS
p292
aVL
p293
aI32
aI4
aI10
aF0.4
aI2
aI5
aF0.4
aI1
aI2
aF0.5
aI2
aI2
aI4
aI2
aI3
aI0
aI5
aI1
aI11
aI6
aa(lp294
V0020901036
p295
aVMAR 21, 2010
p296
aVHOU @ NYK
p297
aVW
p298
aI35
aI5
aI9
aF0.556
aI0
aI2
aF0.0
aI2
aI2
aF1.0
aI0
aI7
aI7
aI6
aI3
aI1
aI1
aI0
aI12
aI8
aa(lp299
V0020901045
p300
aVMAR 22, 2010
p301
aVHOU @ CHI
p302
aVL
p303
aI37
aI6
aI14
aF0.429
aI2
aI5
aF0.4
aI4
aI6
aF0.667
aI2
aI7
aI9
aI5
aI3
aI0
aI2
aI4
aI18
aI-10
aa(lp304
V0020901065
p305
aVMAR 24, 2010
p306
aVHOU @ OKC
p307
aVL
p308
aI30
aI8
aI14
aF0.571
aI3
aI4
aF0.75
aI1
aI2
aF0.5
aI0
aI3
aI3
aI2
aI2
aI2
aI1
aI2
aI20
aI-9
aa(lp309
V0020901069
p310
aVMAR 25, 2010
p311
aVHOU vs. LAC
p312
aVL
p313
aI41
aI7
aI20
aF0.35
aI3
aI10
aF0.3
aI1
aI3
aF0.333
aI0
aI8
aI8
aI8
aI3
aI1
aI3
aI4
aI18
aI-5
aa(lp314
V0020901085
p315
aVMAR 27, 2010
p316
aVHOU vs. LAL
p317
aVL
p318
aI39
aI3
aI11
aF0.273
aI1
aI4
aF0.25
aI2
aI2
aF1.0
aI1
aI2
aI3
aI5
aI2
aI0
aI0
aI4
aI9
aI-5
aa(lp319
V0020901106
p320
aVMAR 30, 2010
p321
aVHOU vs. WAS
p322
aVW
p323
aI28
aI0
aI7
aF0.0
aI0
aI3
aF0.0
aI2
aI4
aF0.5
aI2
aI3
aI5
aI3
aI2
aI1
aI0
aI2
aI2
aI2
aa(lp324
V0020901117
p325
aVMAR 31, 2010
p326
aVHOU @ SAS
p327
aVL
p328
aI31
aI4
aI8
aF0.5
aI1
aI2
aF0.5
aI3
aI4
aF0.75
aI2
aI4
aI6
aI4
aI2
aI0
aI3
aI2
aI12
aI-15
aa(lp329
V0020901143
p330
aVAPR 04, 2010
p331
aVHOU @ IND
p332
aVL
p333
aI26
aI2
aI9
aF0.222
aI2
aI5
aF0.4
aI1
aI4
aF0.25
aI1
aI2
aI3
aI2
aI4
aI2
aI3
aI2
aI7
aI-21
aa(lp334
V0020901155
p335
aVAPR 06, 2010
p336
aVHOU @ MEM
p337
aVW
p338
aI35
aI4
aI11
aF0.364
aI1
aI6
aF0.167
aI3
aI4
aF0.75
aI3
aI5
aI8
aI1
aI2
aI0
aI2
aI3
aI12
aI16
aa(lp339
V0020901168
p340
aVAPR 07, 2010
p341
aVHOU vs. UTA
p342
aVW
p343
aI26
aI2
aI5
aF0.4
aI1
aI2
aF0.5
aI2
aI4
aF0.5
aI0
aI2
aI2
aI4
aI1
aI0
aI0
aI2
aI7
aI23
aa(lp344
V0020901184
p345
aVAPR 09, 2010
p346
aVHOU vs. CHA
p347
aVW
p348
aI37
aI7
aI13
aF0.538
aI3
aI8
aF0.375
aI0
aI0
aF0.0
aI1
aI8
aI9
aI8
aI1
aI1
aI3
aI4
aI17
aI9
aa(lp349
V0020901201
p350
aVAPR 11, 2010
p351
aVHOU @ PHX
p352
aVL
p353
aI36
aI4
aI7
aF0.571
aI3
aI4
aF0.75
aI0
aI0
aF0.0
aI1
aI4
aI5
aI5
aI0
aI0
aI2
aI1
aI11
aI-6
aa(lp354
V0020901211
p355
aVAPR 12, 2010
p356
aVHOU @ SAC
p357
aVW
p358
aI39
aI10
aI18
aF0.556
aI5
aI9
aF0.556
aI4
aI4
aF1.0
aI2
aI3
aI5
aI2
aI2
aI2
aI3
aI3
aI29
aI6
aa(lp359
V0020901221
p360
aVAPR 14, 2010
p361
aVHOU vs. NOH
p362
aVL
p363
aI38
aI11
aI18
aF0.611
aI3
aI7
aF0.429
aI1
aI4
aF0.25
aI2
aI8
aI10
aI10
aI0
aI2
aI3
aI0
aI26
aI2
aasS'name'
p364
VTrevor Ariza
p365
sS'experience'
p366
I5
s.