(dp0
S'age'
p1
I39
sS'stats'
p2
(lp3
(lp4
V0020900547
p5
aVJAN 11, 2010
p6
aVCHI vs. DET
p7
aVW
p8
aI7
aI1
aI4
aF0.25
aI0
aI1
aF0.0
aI0
aI0
aF0.0
aI0
aI1
aI1
aI0
aI0
aI0
aI0
aI0
aI2
aI-2
aa(lp9
V0020900333
p10
aVDEC 12, 2009
p11
aVCHI vs. BOS
p12
aVL
p13
aI2
aI0
aI0
aF0.0
aI0
aI0
aF0.0
aI0
aI0
aF0.0
aI0
aI1
aI1
aI0
aI0
aI0
aI0
aI0
aI0
aI-2
aa(lp14
V0020900308
p15
aVDEC 09, 2009
p16
aVCHI @ ATL
p17
aVL
p18
aI8
aI0
aI0
aF0.0
aI0
aI0
aF0.0
aI0
aI0
aF0.0
aI0
aI0
aI0
aI2
aI0
aI0
aI0
aI1
aI0
aI-3
aa(lp19
V0020900303
p20
aVDEC 08, 2009
p21
aVCHI vs. NJN
p22
aVL
p23
aI1
aI0
aI0
aF0.0
aI0
aI0
aF0.0
aI0
aI0
aF0.0
aI0
aI0
aI0
aI0
aI0
aI0
aI0
aI0
aI0
aI-2
aa(lp24
V0020900283
p25
aVDEC 05, 2009
p26
aVCHI vs. TOR
p27
aVL
p28
aI27
aI1
aI6
aF0.167
aI0
aI3
aF0.0
aI0
aI0
aF0.0
aI0
aI3
aI3
aI1
aI1
aI0
aI1
aI2
aI2
aI-2
aa(lp29
V0020900274
p30
aVDEC 04, 2009
p31
aVCHI @ CLE
p32
aVL
p33
aI19
aI1
aI5
aF0.2
aI0
aI2
aF0.0
aI2
aI2
aF1.0
aI0
aI1
aI1
aI1
aI0
aI0
aI2
aI1
aI4
aI1
aa(lp34
V0020900264
p35
aVDEC 02, 2009
p36
aVCHI vs. DET
p37
aVW
p38
aI11
aI0
aI1
aF0.0
aI0
aI0
aF0.0
aI0
aI0
aF0.0
aI0
aI0
aI0
aI0
aI0
aI0
aI0
aI4
aI0
aI-8
aa(lp39
V0020900249
p40
aVNOV 30, 2009
p41
aVCHI @ MIL
p42
aVL
p43
aI22
aI2
aI9
aF0.222
aI1
aI3
aF0.333
aI0
aI0
aF0.0
aI1
aI4
aI5
aI2
aI0
aI0
aI0
aI1
aI5
aI6
aa(lp44
V0020900221
p45
aVNOV 26, 2009
p46
aVCHI @ UTA
p47
aVL
p48
aI8
aI0
aI1
aF0.0
aI0
aI0
aF0.0
aI0
aI0
aF0.0
aI0
aI1
aI1
aI0
aI0
aI0
aI0
aI0
aI0
aI0
aa(lp49
V0020900200
p50
aVNOV 23, 2009
p51
aVCHI @ POR
p52
aVL
p53
aI3
aI0
aI1
aF0.0
aI0
aI1
aF0.0
aI0
aI0
aF0.0
aI0
aI0
aI0
aI1
aI0
aI0
aI0
aI1
aI0
aI-1
aa(lp54
V0020900189
p55
aVNOV 21, 2009
p56
aVCHI @ DEN
p57
aVL
p58
aI3
aI0
aI0
aF0.0
aI0
aI0
aF0.0
aI0
aI0
aF0.0
aI0
aI0
aI0
aI0
aI0
aI0
aI0
aI0
aI0
aI4
aa(lp59
V0020900172
p60
aVNOV 19, 2009
p61
aVCHI @ LAL
p62
aVL
p63
aI5
aI0
aI1
aF0.0
aI0
aI1
aF0.0
aI0
aI0
aF0.0
aI0
aI2
aI2
aI1
aI0
aI0
aI0
aI0
aI0
aI5
aa(lp64
V0020900022
p65
aVOCT 30, 2009
p66
aVCHI @ BOS
p67
aVL
p68
aI7
aI0
aI2
aF0.0
aI0
aI2
aF0.0
aI0
aI0
aF0.0
aI0
aI0
aI0
aI1
aI0
aI0
aI1
aI2
aI0
aI-8
aasS'name'
p69
VLindsey Hunter
p70
sS'experience'
p71
I16
s.