(dp0
S'age'
p1
I27
sS'stats'
p2
(lp3
(lp4
V0021301222
p5
aVAPR 16, 2014
p6
aVWAS @ BOS
p7
aVW
p8
aI23
aI2
aI6
aF0.333
aI1
aI3
aF0.333
aI0
aI0
aF0.0
aI1
aI3
aI4
aI0
aI0
aI0
aI0
aI2
aI5
aI10
aa(lp9
V0021301206
p10
aVAPR 14, 2014
p11
aVWAS vs. MIA
p12
aVW
p13
aI26
aI2
aI5
aF0.4
aI1
aI4
aF0.25
aI2
aI2
aF1.0
aI0
aI2
aI2
aI1
aI0
aI0
aI1
aI3
aI7
aI-3
aa(lp14
V0021301191
p15
aVAPR 12, 2014
p16
aVWAS vs. MIL
p17
aVW
p18
aI23
aI2
aI6
aF0.333
aI2
aI4
aF0.5
aI2
aI3
aF0.667
aI1
aI2
aI3
aI3
aI0
aI0
aI0
aI4
aI8
aI2
aa(lp19
V0021301176
p20
aVAPR 11, 2014
p21
aVWAS @ ORL
p22
aVW
p23
aI8
aI0
aI2
aF0.0
aI0
aI1
aF0.0
aI1
aI2
aF0.5
aI0
aI0
aI0
aI0
aI1
aI0
aI1
aI0
aI1
aI-4
aa(lp24
V0021301165
p25
aVAPR 09, 2014
p26
aVWAS vs. CHA
p27
aVL
p28
aI24
aI2
aI5
aF0.4
aI1
aI4
aF0.25
aI2
aI2
aF1.0
aI0
aI3
aI3
aI0
aI0
aI0
aI0
aI1
aI7
aI2
aa(lp29
V0021301144
p30
aVAPR 05, 2014
p31
aVWAS vs. CHI
p32
aVL
p33
aI17
aI1
aI4
aF0.25
aI0
aI2
aF0.0
aI0
aI0
aF0.0
aI1
aI2
aI3
aI1
aI1
aI0
aI1
aI3
aI2
aI-19
aa(lp34
V0021301136
p35
aVAPR 04, 2014
p36
aVWAS @ NYK
p37
aVW
p38
aI32
aI2
aI6
aF0.333
aI2
aI4
aF0.5
aI0
aI0
aF0.0
aI0
aI3
aI3
aI0
aI3
aI0
aI1
aI2
aI6
aI-4
aa(lp39
V0021301119
p40
aVAPR 02, 2014
p41
aVWAS vs. BOS
p42
aVW
p43
aI28
aI3
aI6
aF0.5
aI2
aI4
aF0.5
aI0
aI0
aF0.0
aI1
aI1
aI2
aI2
aI0
aI0
aI0
aI1
aI8
aI4
aa(lp44
V0021301101
p45
aVMAR 31, 2014
p46
aVWAS @ CHA
p47
aVL
p48
aI27
aI5
aI7
aF0.714
aI2
aI3
aF0.667
aI2
aI2
aF1.0
aI0
aI2
aI2
aI1
aI0
aI0
aI1
aI2
aI14
aI10
aa(lp49
V0021301089
p50
aVMAR 29, 2014
p51
aVWAS vs. ATL
p52
aVW
p53
aI20
aI3
aI7
aF0.429
aI0
aI3
aF0.0
aI0
aI0
aF0.0
aI0
aI0
aI0
aI0
aI1
aI0
aI1
aI2
aI6
aI17
aa(lp54
V0021301077
p55
aVMAR 28, 2014
p56
aVWAS vs. IND
p57
aVW
p58
aI24
aI3
aI6
aF0.5
aI3
aI6
aF0.5
aI2
aI2
aF1.0
aI1
aI2
aI3
aI2
aI1
aI0
aI2
aI1
aI11
aI20
aa(lp59
V0021301062
p60
aVMAR 26, 2014
p61
aVWAS vs. PHX
p62
aVL
p63
aI24
aI3
aI4
aF0.75
aI3
aI4
aF0.75
aI1
aI2
aF0.5
aI0
aI2
aI2
aI0
aI0
aI0
aI0
aI3
aI10
aI-19
aa(lp64
V0021301042
p65
aVMAR 23, 2014
p66
aVWAS @ DEN
p67
aVL
p68
aI24
aI1
aI4
aF0.25
aI0
aI2
aF0.0
aI3
aI4
aF0.75
aI1
aI1
aI2
aI2
aI0
aI0
aI1
aI1
aI5
aI-4
aa(lp69
V0021301031
p70
aVMAR 21, 2014
p71
aVWAS @ LAL
p72
aVW
p73
aI27
aI1
aI5
aF0.2
aI0
aI2
aF0.0
aI0
aI0
aF0.0
aI0
aI1
aI1
aI0
aI0
aI1
aI0
aI1
aI2
aI-4
aa(lp74
V0021301020
p75
aVMAR 20, 2014
p76
aVWAS @ POR
p77
aVL
p78
aI28
aI3
aI9
aF0.333
aI2
aI3
aF0.667
aI0
aI0
aF0.0
aI1
aI1
aI2
aI3
aI0
aI0
aI2
aI1
aI8
aI-9
aa(lp79
V0021301006
p80
aVMAR 18, 2014
p81
aVWAS @ SAC
p82
aVL
p83
aI24
aI3
aI6
aF0.5
aI2
aI5
aF0.4
aI1
aI1
aF1.0
aI0
aI2
aI2
aI1
aI0
aI0
aI0
aI1
aI9
aI1
aa(lp84
V0021300982
p85
aVMAR 15, 2014
p86
aVWAS vs. BKN
p87
aVW
p88
aI28
aI2
aI6
aF0.333
aI1
aI5
aF0.2
aI2
aI2
aF1.0
aI0
aI0
aI0
aI1
aI0
aI0
aI1
aI2
aI7
aI10
aa(lp89
V0021300972
p90
aVMAR 14, 2014
p91
aVWAS @ ORL
p92
aVW
p93
aI19
aI0
aI4
aF0.0
aI0
aI3
aF0.0
aI0
aI0
aF0.0
aI1
aI0
aI1
aI1
aI0
aI0
aI0
aI1
aI0
aI-3
aa(lp94
V0021300961
p95
aVMAR 12, 2014
p96
aVWAS vs. CHA
p97
aVL
p98
aI31
aI2
aI6
aF0.333
aI1
aI4
aF0.25
aI2
aI2
aF1.0
aI1
aI3
aI4
aI0
aI0
aI0
aI0
aI2
aI7
aI-10
aa(lp99
V0021300945
p100
aVMAR 10, 2014
p101
aVWAS @ MIA
p102
aVL
p103
aI30
aI5
aI9
aF0.556
aI4
aI8
aF0.5
aI3
aI4
aF0.75
aI0
aI1
aI1
aI0
aI0
aI1
aI0
aI2
aI17
aI5
aa(lp104
V0021300931
p105
aVMAR 08, 2014
p106
aVWAS @ MIL
p107
aVW
p108
aI25
aI5
aI7
aF0.714
aI2
aI3
aF0.667
aI3
aI4
aF0.75
aI1
aI0
aI1
aI0
aI0
aI0
aI1
aI2
aI15
aI10
aa(lp109
V0021300875
p110
aVMAR 01, 2014
p111
aVWAS @ PHI
p112
aVW
p113
aI28
aI5
aI13
aF0.385
aI2
aI5
aF0.4
aI5
aI7
aF0.714
aI1
aI2
aI3
aI1
aI2
aI0
aI0
aI2
aI17
aI4
aa(lp114
V0021300864
p115
aVFEB 27, 2014
p116
aVWAS @ TOR
p117
aVW
p118
aI37
aI3
aI9
aF0.333
aI1
aI5
aF0.2
aI0
aI0
aF0.0
aI1
aI0
aI1
aI2
aI1
aI0
aI0
aI2
aI7
aI7
aa(lp119
V0021300848
p120
aVFEB 25, 2014
p121
aVWAS vs. ORL
p122
aVW
p123
aI27
aI1
aI4
aF0.25
aI0
aI2
aF0.0
aI3
aI3
aF1.0
aI0
aI2
aI2
aI1
aI0
aI0
aI1
aI1
aI5
aI0
aa(lp124
V0021300835
p125
aVFEB 23, 2014
p126
aVWAS @ CLE
p127
aVW
p128
aI22
aI3
aI8
aF0.375
aI1
aI4
aF0.25
aI0
aI0
aF0.0
aI0
aI2
aI2
aI1
aI1
aI0
aI1
aI1
aI7
aI1
aa(lp129
V0021300826
p130
aVFEB 22, 2014
p131
aVWAS vs. NOP
p132
aVW
p133
aI25
aI4
aI9
aF0.444
aI3
aI6
aF0.5
aI1
aI1
aF1.0
aI0
aI3
aI3
aI0
aI0
aI1
aI1
aI2
aI12
aI-10
aa(lp134
V0021300804
p135
aVFEB 19, 2014
p136
aVWAS @ ATL
p137
aVW
p138
aI23
aI5
aI10
aF0.5
aI3
aI5
aF0.6
aI0
aI0
aF0.0
aI0
aI0
aI0
aI2
aI0
aI0
aI1
aI2
aI13
aI16
aa(lp139
V0021300794
p140
aVFEB 18, 2014
p141
aVWAS vs. TOR
p142
aVL
p143
aI24
aI2
aI5
aF0.4
aI2
aI5
aF0.4
aI1
aI1
aF1.0
aI0
aI1
aI1
aI1
aI0
aI0
aI0
aI2
aI7
aI-15
aa(lp144
V0021300784
p145
aVFEB 12, 2014
p146
aVWAS @ HOU
p147
aVL
p148
aI10
aI0
aI1
aF0.0
aI0
aI1
aF0.0
aI0
aI0
aF0.0
aI0
aI1
aI1
aI2
aI1
aI0
aI0
aI1
aI0
aI2
aa(lp149
V0021300773
p150
aVFEB 11, 2014
p151
aVWAS @ MEM
p152
aVL
p153
aI20
aI1
aI5
aF0.2
aI1
aI5
aF0.2
aI0
aI0
aF0.0
aI0
aI1
aI1
aI0
aI1
aI0
aI0
aI2
aI3
aI-11
aa(lp154
V0021300762
p155
aVFEB 09, 2014
p156
aVWAS vs. SAC
p157
aVW
p158
aI24
aI3
aI10
aF0.3
aI2
aI8
aF0.25
aI0
aI0
aF0.0
aI0
aI2
aI2
aI0
aI0
aI2
aI0
aI1
aI8
aI-3
aa(lp159
V0021300742
p160
aVFEB 07, 2014
p161
aVWAS vs. CLE
p162
aVL
p163
aI24
aI6
aI10
aF0.6
aI6
aI10
aF0.6
aI0
aI0
aF0.0
aI1
aI1
aI2
aI0
aI0
aI0
aI0
aI3
aI18
aI-9
aa(lp164
V0021300727
p165
aVFEB 05, 2014
p166
aVWAS vs. SAS
p167
aVL
p168
aI36
aI3
aI5
aF0.6
aI2
aI4
aF0.5
aI2
aI2
aF1.0
aI2
aI2
aI4
aI1
aI0
aI0
aI1
aI2
aI10
aI9
aa(lp169
V0021300711
p170
aVFEB 03, 2014
p171
aVWAS vs. POR
p172
aVW
p173
aI23
aI2
aI6
aF0.333
aI0
aI3
aF0.0
aI1
aI1
aF1.0
aI0
aI1
aI1
aI0
aI0
aI0
aI0
aI2
aI5
aI2
aa(lp174
V0021300698
p175
aVFEB 01, 2014
p176
aVWAS vs. OKC
p177
aVW
p178
aI22
aI3
aI9
aF0.333
aI2
aI7
aF0.286
aI2
aI2
aF1.0
aI0
aI3
aI3
aI1
aI0
aI0
aI0
aI0
aI10
aI16
aa(lp179
V0021300685
p180
aVJAN 29, 2014
p181
aVWAS @ LAC
p182
aVL
p183
aI27
aI3
aI8
aF0.375
aI3
aI7
aF0.429
aI0
aI0
aF0.0
aI0
aI2
aI2
aI1
aI0
aI0
aI1
aI1
aI9
aI-5
aa(lp184
V0021300673
p185
aVJAN 28, 2014
p186
aVWAS @ GSW
p187
aVW
p188
aI28
aI3
aI9
aF0.333
aI2
aI5
aF0.4
aI2
aI3
aF0.667
aI0
aI1
aI1
aI2
aI0
aI1
aI1
aI3
aI10
aI-2
aa(lp189
V0021300652
p190
aVJAN 25, 2014
p191
aVWAS @ UTA
p192
aVL
p193
aI27
aI2
aI5
aF0.4
aI0
aI3
aF0.0
aI0
aI0
aF0.0
aI1
aI3
aI4
aI2
aI0
aI0
aI0
aI1
aI4
aI-3
aa(lp194
V0021300625
p195
aVJAN 22, 2014
p196
aVWAS vs. BOS
p197
aVL
p198
aI33
aI3
aI9
aF0.333
aI3
aI8
aF0.375
aI1
aI1
aF1.0
aI0
aI2
aI2
aI0
aI0
aI0
aI2
aI4
aI10
aI-5
aa(lp199
V0021300609
p200
aVJAN 20, 2014
p201
aVWAS vs. PHI
p202
aVW
p203
aI31
aI2
aI7
aF0.286
aI1
aI6
aF0.167
aI3
aI3
aF1.0
aI0
aI3
aI3
aI2
aI0
aI1
aI1
aI3
aI8
aI9
aa(lp204
V0021300595
p205
aVJAN 18, 2014
p206
aVWAS vs. DET
p207
aVL
p208
aI29
aI6
aI8
aF0.75
aI3
aI5
aF0.6
aI0
aI0
aF0.0
aI0
aI2
aI2
aI2
aI1
aI0
aI4
aI6
aI15
aI-1
aa(lp209
V0021300585
p210
aVJAN 17, 2014
p211
aVWAS vs. CHI
p212
aVW
p213
aI36
aI5
aI8
aF0.625
aI4
aI5
aF0.8
aI0
aI0
aF0.0
aI0
aI1
aI1
aI3
aI2
aI0
aI1
aI0
aI14
aI0
aa(lp214
V0021300568
p215
aVJAN 15, 2014
p216
aVWAS vs. MIA
p217
aVW
p218
aI31
aI4
aI8
aF0.5
aI3
aI7
aF0.429
aI0
aI0
aF0.0
aI0
aI2
aI2
aI0
aI1
aI0
aI3
aI4
aI11
aI7
aa(lp219
V0021300558
p220
aVJAN 13, 2014
p221
aVWAS @ CHI
p222
aVW
p223
aI27
aI5
aI9
aF0.556
aI2
aI4
aF0.5
aI0
aI0
aF0.0
aI1
aI1
aI2
aI2
aI0
aI0
aI0
aI1
aI12
aI2
aa(lp224
V0021300544
p225
aVJAN 11, 2014
p226
aVWAS vs. HOU
p227
aVL
p228
aI23
aI1
aI3
aF0.333
aI1
aI3
aF0.333
aI0
aI0
aF0.0
aI0
aI3
aI3
aI0
aI0
aI0
aI2
aI3
aI3
aI19
aa(lp229
V0021300531
p230
aVJAN 10, 2014
p231
aVWAS @ IND
p232
aVL
p233
aI25
aI1
aI2
aF0.5
aI0
aI1
aF0.0
aI2
aI2
aF1.0
aI0
aI2
aI2
aI0
aI1
aI0
aI2
aI2
aI4
aI0
aa(lp234
V0021300525
p235
aVJAN 08, 2014
p236
aVWAS @ NOP
p237
aVW
p238
aI21
aI2
aI6
aF0.333
aI2
aI3
aF0.667
aI0
aI0
aF0.0
aI0
aI2
aI2
aI0
aI0
aI0
aI0
aI3
aI6
aI7
aa(lp239
V0021300508
p240
aVJAN 07, 2014
p241
aVWAS @ CHA
p242
aVW
p243
aI31
aI4
aI7
aF0.571
aI2
aI3
aF0.667
aI0
aI0
aF0.0
aI0
aI3
aI3
aI1
aI0
aI1
aI2
aI2
aI10
aI-4
aa(lp244
V0021300501
p245
aVJAN 05, 2014
p246
aVWAS vs. GSW
p247
aVL
p248
aI31
aI4
aI10
aF0.4
aI1
aI5
aF0.2
aI2
aI2
aF1.0
aI0
aI5
aI5
aI0
aI2
aI0
aI0
aI1
aI11
aI-2
aa(lp249
V0021300482
p250
aVJAN 03, 2014
p251
aVWAS vs. TOR
p252
aVL
p253
aI31
aI3
aI7
aF0.429
aI2
aI4
aF0.5
aI4
aI4
aF1.0
aI0
aI3
aI3
aI1
aI0
aI0
aI0
aI2
aI12
aI1
aa(lp254
V0021300468
p255
aVJAN 01, 2014
p256
aVWAS vs. DAL
p257
aVL
p258
aI22
aI3
aI9
aF0.333
aI1
aI6
aF0.167
aI1
aI1
aF1.0
aI0
aI1
aI1
aI2
aI0
aI0
aI1
aI2
aI8
aI-20
aa(lp259
V0021300453
p260
aVDEC 30, 2013
p261
aVWAS @ DET
p262
aVW
p263
aI22
aI4
aI7
aF0.571
aI2
aI4
aF0.5
aI0
aI0
aF0.0
aI0
aI4
aI4
aI1
aI0
aI0
aI0
aI2
aI10
aI17
aa(lp264
V0021300439
p265
aVDEC 28, 2013
p266
aVWAS vs. DET
p267
aVW
p268
aI25
aI3
aI11
aF0.273
aI1
aI5
aF0.2
aI0
aI0
aF0.0
aI1
aI1
aI2
aI1
aI0
aI0
aI4
aI2
aI7
aI3
aa(lp269
V0021300431
p270
aVDEC 27, 2013
p271
aVWAS @ MIN
p272
aVL
p273
aI30
aI4
aI11
aF0.364
aI3
aI7
aF0.429
aI0
aI0
aF0.0
aI1
aI2
aI3
aI1
aI0
aI0
aI1
aI4
aI11
aI-11
aa(lp274
V0021300393
p275
aVDEC 21, 2013
p276
aVWAS @ BOS
p277
aVW
p278
aI21
aI2
aI4
aF0.5
aI1
aI2
aF0.5
aI0
aI2
aF0.0
aI0
aI1
aI1
aI0
aI0
aI0
aI1
aI2
aI5
aI-8
aa(lp279
V0021300374
p280
aVDEC 18, 2013
p281
aVWAS @ BKN
p282
aVW
p283
aI29
aI3
aI6
aF0.5
aI2
aI3
aF0.667
aI5
aI6
aF0.833
aI1
aI5
aI6
aI2
aI0
aI0
aI1
aI4
aI13
aI-8
aa(lp284
V0021300361
p285
aVDEC 16, 2013
p286
aVWAS @ NYK
p287
aVW
p288
aI36
aI9
aI13
aF0.692
aI6
aI8
aF0.75
aI6
aI7
aF0.857
aI0
aI5
aI5
aI3
aI1
aI1
aI0
aI0
aI30
aI10
aa(lp289
V0021300343
p290
aVDEC 14, 2013
p291
aVWAS vs. LAC
p292
aVL
p293
aI33
aI4
aI9
aF0.444
aI0
aI3
aF0.0
aI4
aI6
aF0.667
aI0
aI1
aI1
aI0
aI0
aI0
aI0
aI2
aI12
aI-22
aa(lp294
V0021300332
p295
aVDEC 13, 2013
p296
aVWAS @ ATL
p297
aVL
p298
aI39
aI4
aI12
aF0.333
aI0
aI3
aF0.0
aI7
aI7
aF1.0
aI2
aI6
aI8
aI0
aI1
aI0
aI2
aI1
aI15
aI-5
aa(lp299
V0021300281
p300
aVDEC 06, 2013
p301
aVWAS vs. MIL
p302
aVL
p303
aI12
aI3
aI7
aF0.429
aI2
aI5
aF0.4
aI0
aI0
aF0.0
aI0
aI0
aI0
aI0
aI0
aI0
aI0
aI0
aI8
aI-4
aa(lp304
V0021300256
p305
aVDEC 02, 2013
p306
aVWAS vs. ORL
p307
aVW
p308
aI34
aI2
aI6
aF0.333
aI1
aI2
aF0.5
aI0
aI0
aF0.0
aI0
aI4
aI4
aI0
aI0
aI0
aI0
aI3
aI5
aI19
aa(lp309
V0021300241
p310
aVNOV 30, 2013
p311
aVWAS vs. ATL
p312
aVW
p313
aI41
aI6
aI11
aF0.545
aI5
aI9
aF0.556
aI2
aI4
aF0.5
aI1
aI2
aI3
aI2
aI1
aI1
aI2
aI3
aI19
aI-1
aa(lp314
V0021300236
p315
aVNOV 29, 2013
p316
aVWAS @ IND
p317
aVL
p318
aI37
aI3
aI6
aF0.5
aI2
aI4
aF0.5
aI0
aI0
aF0.0
aI1
aI4
aI5
aI1
aI0
aI0
aI2
aI0
aI8
aI-9
aa(lp319
V0021300222
p320
aVNOV 27, 2013
p321
aVWAS @ MIL
p322
aVW
p323
aI43
aI7
aI16
aF0.438
aI4
aI11
aF0.364
aI0
aI1
aF0.0
aI0
aI5
aI5
aI7
aI0
aI0
aI1
aI0
aI18
aI14
aa(lp324
V0021300212
p325
aVNOV 26, 2013
p326
aVWAS vs. LAL
p327
aVW
p328
aI43
aI8
aI15
aF0.533
aI4
aI8
aF0.5
aI0
aI0
aF0.0
aI2
aI7
aI9
aI3
aI4
aI1
aI0
aI1
aI20
aI12
aa(lp329
V0021300189
p330
aVNOV 23, 2013
p331
aVWAS vs. NYK
p332
aVW
p333
aI40
aI6
aI11
aF0.545
aI5
aI10
aF0.5
aI2
aI2
aF1.0
aI0
aI3
aI3
aI3
aI0
aI0
aI1
aI3
aI19
aI14
aa(lp334
V0021300178
p335
aVNOV 22, 2013
p336
aVWAS @ TOR
p337
aVL
p338
aI42
aI3
aI8
aF0.375
aI1
aI4
aF0.25
aI2
aI3
aF0.667
aI0
aI4
aI4
aI5
aI2
aI1
aI0
aI4
aI9
aI3
aa(lp339
V0021300162
p340
aVNOV 20, 2013
p341
aVWAS @ CLE
p342
aVW
p343
aI36
aI5
aI11
aF0.455
aI2
aI8
aF0.25
aI3
aI3
aF1.0
aI2
aI2
aI4
aI5
aI1
aI0
aI1
aI1
aI15
aI21
aa(lp344
V0021300156
p345
aVNOV 19, 2013
p346
aVWAS vs. MIN
p347
aVW
p348
aI43
aI6
aI13
aF0.462
aI5
aI10
aF0.5
aI0
aI0
aF0.0
aI0
aI9
aI9
aI2
aI0
aI1
aI0
aI1
aI17
aI7
aa(lp349
V0021300138
p350
aVNOV 16, 2013
p351
aVWAS vs. CLE
p352
aVL
p353
aI43
aI4
aI12
aF0.333
aI2
aI8
aF0.25
aI4
aI4
aF1.0
aI3
aI4
aI7
aI1
aI1
aI0
aI1
aI5
aI14
aI-13
aa(lp354
V0021300117
p355
aVNOV 13, 2013
p356
aVWAS @ SAS
p357
aVL
p358
aI35
aI8
aI16
aF0.5
aI3
aI6
aF0.5
aI2
aI2
aF1.0
aI2
aI8
aI10
aI2
aI4
aI0
aI1
aI1
aI21
aI-3
aa(lp359
V0021300108
p360
aVNOV 12, 2013
p361
aVWAS @ DAL
p362
aVL
p363
aI20
aI2
aI5
aF0.4
aI0
aI3
aF0.0
aI2
aI2
aF1.0
aI2
aI2
aI4
aI1
aI0
aI0
aI1
aI1
aI6
aI-25
aa(lp364
V0021300095
p365
aVNOV 10, 2013
p366
aVWAS @ OKC
p367
aVL
p368
aI29
aI3
aI10
aF0.3
aI1
aI7
aF0.143
aI1
aI1
aF1.0
aI1
aI4
aI5
aI0
aI1
aI1
aI1
aI4
aI8
aI-7
aa(lp369
V0021300077
p370
aVNOV 08, 2013
p371
aVWAS vs. BKN
p372
aVW
p373
aI16
aI0
aI1
aF0.0
aI0
aI1
aF0.0
aI0
aI0
aF0.0
aI0
aI0
aI0
aI2
aI0
aI0
aI0
aI4
aI0
aI-15
aa(lp374
V0021300063
p375
aVNOV 06, 2013
p376
aVWAS @ PHI
p377
aVW
p378
aI26
aI4
aI10
aF0.4
aI4
aI7
aF0.571
aI2
aI2
aF1.0
aI0
aI4
aI4
aI3
aI1
aI0
aI0
aI0
aI14
aI-6
aa(lp379
V0021300042
p380
aVNOV 03, 2013
p381
aVWAS @ MIA
p382
aVL
p383
aI34
aI4
aI7
aF0.571
aI2
aI4
aF0.5
aI3
aI4
aF0.75
aI1
aI6
aI7
aI4
aI2
aI0
aI0
aI2
aI13
aI-3
aa(lp384
V0021300022
p385
aVNOV 01, 2013
p386
aVWAS vs. PHI
p387
aVL
p388
aI24
aI4
aI9
aF0.444
aI3
aI7
aF0.429
aI2
aI2
aF1.0
aI1
aI1
aI2
aI0
aI2
aI1
aI0
aI0
aI13
aI-13
aa(lp389
V0021300007
p390
aVOCT 30, 2013
p391
aVWAS @ DET
p392
aVL
p393
aI21
aI1
aI1
aF1.0
aI1
aI1
aF1.0
aI2
aI2
aF1.0
aI0
aI2
aI2
aI0
aI0
aI0
aI0
aI2
aI5
aI-3
aasS'name'
p394
VMartell Webster
p395
sS'experience'
p396
I8
s.