(dp0
S'stats'
p1
(lp2
(lp3
V0021300012
p4
aVOCT 30, 2013
p5
aVDAL vs. ATL
p6
aVW
p7
aI35
aI1
aI7
aF0.143
aI1
aI5
aF0.2
aI2
aI2
aF1.0
aI0
aI2
aI2
aI11
aI1
aI0
aI4
aI3
aI5
aI4
aa(lp8
V0021300025
p9
aVNOV 01, 2013
p10
aVDAL @ HOU
p11
aVL
p12
aI25
aI0
aI8
aF0.0
aI0
aI3
aF0.0
aI0
aI0
aF0.0
aI0
aI1
aI1
aI6
aI1
aI0
aI1
aI2
aI0
aI-5
aa(lp13
V0021300036
p14
aVNOV 02, 2013
p15
aVDAL vs. MEM
p16
aVW
p17
aI39
aI4
aI11
aF0.364
aI3
aI7
aF0.429
aI4
aI4
aF1.0
aI2
aI0
aI2
aI5
aI1
aI0
aI0
aI2
aI15
aI6
aa(lp18
V0021300056
p19
aVNOV 05, 2013
p20
aVDAL vs. LAL
p21
aVW
p22
aI22
aI4
aI6
aF0.667
aI4
aI6
aF0.667
aI0
aI0
aF0.0
aI0
aI4
aI4
aI5
aI0
aI0
aI1
aI1
aI12
aI22
aa(lp23
V0021300069
p24
aVNOV 06, 2013
p25
aVDAL @ OKC
p26
aVL
p27
aI32
aI3
aI6
aF0.5
aI1
aI2
aF0.5
aI2
aI2
aF1.0
aI1
aI1
aI2
aI3
aI3
aI0
aI3
aI1
aI9
aI-11
aa(lp28
V0021300080
p29
aVNOV 08, 2013
p30
aVDAL @ MIN
p31
aVL
p32
aI33
aI7
aI11
aF0.636
aI6
aI8
aF0.75
aI1
aI1
aF1.0
aI0
aI4
aI4
aI7
aI1
aI0
aI1
aI2
aI21
aI-14
aa(lp33
V0021300092
p34
aVNOV 09, 2013
p35
aVDAL @ MIL
p36
aVW
p37
aI36
aI3
aI8
aF0.375
aI3
aI6
aF0.5
aI0
aI0
aF0.0
aI2
aI5
aI7
aI3
aI1
aI0
aI1
aI1
aI9
aI-3
aa(lp38
V0021300108
p39
aVNOV 12, 2013
p40
aVDAL vs. WAS
p41
aVW
p42
aI33
aI4
aI8
aF0.5
aI3
aI6
aF0.5
aI0
aI0
aF0.0
aI0
aI1
aI1
aI4
aI2
aI0
aI2
aI2
aI11
aI-2
aa(lp43
V0021300130
p44
aVNOV 15, 2013
p45
aVDAL @ MIA
p46
aVL
p47
aI35
aI4
aI10
aF0.4
aI4
aI9
aF0.444
aI0
aI0
aF0.0
aI0
aI1
aI1
aI5
aI0
aI0
aI3
aI1
aI12
aI8
aa(lp48
V0021300137
p49
aVNOV 16, 2013
p50
aVDAL @ ORL
p51
aVW
p52
aI31
aI5
aI10
aF0.5
aI1
aI4
aF0.25
aI0
aI0
aF0.0
aI0
aI1
aI1
aI9
aI0
aI0
aI0
aI1
aI11
aI-1
aa(lp53
V0021300153
p54
aVNOV 18, 2013
p55
aVDAL vs. PHI
p56
aVW
p57
aI32
aI5
aI13
aF0.385
aI4
aI10
aF0.4
aI0
aI0
aF0.0
aI1
aI2
aI3
aI4
aI1
aI0
aI2
aI3
aI14
aI-2
aa(lp58
V0021300172
p59
aVNOV 20, 2013
p60
aVDAL vs. HOU
p61
aVW
p62
aI29
aI4
aI8
aF0.5
aI3
aI5
aF0.6
aI2
aI2
aF1.0
aI0
aI1
aI1
aI2
aI1
aI0
aI2
aI3
aI13
aI-1
aa(lp63
V0021300184
p64
aVNOV 22, 2013
p65
aVDAL vs. UTA
p66
aVW
p67
aI30
aI2
aI3
aF0.667
aI1
aI2
aF0.5
aI0
aI0
aF0.0
aI0
aI1
aI1
aI4
aI2
aI0
aI2
aI2
aI5
aI10
aa(lp68
V0021300195
p69
aVNOV 23, 2013
p70
aVDAL @ DEN
p71
aVL
p72
aI34
aI5
aI10
aF0.5
aI1
aI4
aF0.25
aI0
aI0
aF0.0
aI0
aI2
aI2
aI5
aI1
aI0
aI0
aI3
aI11
aI1
aa(lp73
V0021300207
p74
aVNOV 25, 2013
p75
aVDAL vs. DEN
p76
aVL
p77
aI30
aI4
aI6
aF0.667
aI3
aI4
aF0.75
aI1
aI2
aF0.5
aI0
aI0
aI0
aI4
aI0
aI0
aI2
aI3
aI12
aI-10
aa(lp78
V0021300225
p79
aVNOV 27, 2013
p80
aVDAL vs. GSW
p81
aVW
p82
aI28
aI5
aI10
aF0.5
aI2
aI4
aF0.5
aI0
aI0
aF0.0
aI0
aI2
aI2
aI3
aI0
aI0
aI1
aI2
aI12
aI-13
aa(lp83
V0021300231
p84
aVNOV 29, 2013
p85
aVDAL @ ATL
p86
aVL
p87
aI26
aI5
aI11
aF0.455
aI4
aI7
aF0.571
aI2
aI2
aF1.0
aI0
aI0
aI0
aI3
aI0
aI0
aI1
aI2
aI16
aI8
aa(lp88
V0021300266
p89
aVDEC 03, 2013
p90
aVDAL vs. CHA
p91
aVW
p92
aI33
aI4
aI10
aF0.4
aI4
aI5
aF0.8
aI0
aI0
aF0.0
aI0
aI1
aI1
aI1
aI0
aI1
aI0
aI2
aI12
aI-3
aa(lp93
V0021300273
p94
aVDEC 04, 2013
p95
aVDAL @ NOP
p96
aVW
p97
aI31
aI4
aI11
aF0.364
aI3
aI10
aF0.3
aI1
aI1
aF1.0
aI0
aI0
aI0
aI4
aI2
aI0
aI1
aI0
aI12
aI-1
aa(lp98
V0021300298
p99
aVDEC 07, 2013
p100
aVDAL @ POR
p101
aVW
p102
aI32
aI7
aI10
aF0.7
aI0
aI1
aF0.0
aI1
aI2
aF0.5
aI0
aI2
aI2
aI7
aI2
aI0
aI1
aI4
aI15
aI-1
aa(lp103
V0021300309
p104
aVDEC 09, 2013
p105
aVDAL @ SAC
p106
aVL
p107
aI22
aI4
aI10
aF0.4
aI3
aI7
aF0.429
aI0
aI0
aF0.0
aI0
aI2
aI2
aI2
aI0
aI0
aI2
aI2
aI11
aI-30
aa(lp108
V0021300326
p109
aVDEC 11, 2013
p110
aVDAL @ GSW
p111
aVL
p112
aI34
aI7
aI15
aF0.467
aI3
aI9
aF0.333
aI1
aI1
aF1.0
aI0
aI4
aI4
aI5
aI0
aI0
aI1
aI2
aI18
aI-4
aa(lp113
V0021300348
p114
aVDEC 14, 2013
p115
aVDAL vs. MIL
p116
aVW
p117
aI23
aI7
aI10
aF0.7
aI4
aI6
aF0.667
aI0
aI0
aF0.0
aI0
aI1
aI1
aI1
aI1
aI0
aI1
aI1
aI18
aI19
aa(lp118
V0021300377
p119
aVDEC 18, 2013
p120
aVDAL vs. MEM
p121
aVW
p122
aI32
aI5
aI7
aF0.714
aI2
aI4
aF0.5
aI0
aI0
aF0.0
aI0
aI1
aI1
aI3
aI0
aI0
aI0
aI1
aI12
aI8
aa(lp123
V0021300389
p124
aVDEC 20, 2013
p125
aVDAL vs. TOR
p126
aVL
p127
aI37
aI8
aI13
aF0.615
aI7
aI10
aF0.7
aI0
aI0
aF0.0
aI1
aI3
aI4
aI9
aI2
aI0
aI1
aI1
aI23
aI1
aa(lp128
V0021300400
p129
aVDEC 21, 2013
p130
aVDAL @ PHX
p131
aVL
p132
aI31
aI4
aI5
aF0.8
aI1
aI2
aF0.5
aI0
aI0
aF0.0
aI0
aI3
aI3
aI6
aI1
aI1
aI0
aI2
aI9
aI-19
aa(lp133
V0021300412
p134
aVDEC 23, 2013
p135
aVDAL @ HOU
p136
aVW
p137
aI33
aI6
aI12
aF0.5
aI3
aI7
aF0.429
aI0
aI0
aF0.0
aI0
aI1
aI1
aI5
aI0
aI0
aI1
aI5
aI15
aI1
aa(lp138
V0021300425
p139
aVDEC 26, 2013
p140
aVDAL vs. SAS
p141
aVL
p142
aI33
aI5
aI11
aF0.455
aI3
aI4
aF0.75
aI0
aI0
aF0.0
aI0
aI7
aI7
aI3
aI2
aI0
aI0
aI5
aI13
aI5
aa(lp143
V0021300441
p144
aVDEC 28, 2013
p145
aVDAL @ CHI
p146
aVW
p147
aI36
aI4
aI11
aF0.364
aI1
aI6
aF0.167
aI0
aI0
aF0.0
aI2
aI2
aI4
aI7
aI2
aI0
aI1
aI0
aI9
aI14
aa(lp148
V0021300455
p149
aVDEC 30, 2013
p150
aVDAL @ MIN
p151
aVW
p152
aI37
aI3
aI7
aF0.429
aI2
aI4
aF0.5
aI0
aI0
aF0.0
aI0
aI2
aI2
aI8
aI3
aI0
aI3
aI2
aI8
aI7
aa(lp153
V0021300468
p154
aVJAN 01, 2014
p155
aVDAL @ WAS
p156
aVW
p157
aI33
aI3
aI14
aF0.214
aI3
aI10
aF0.3
aI2
aI2
aF1.0
aI0
aI6
aI6
aI3
aI2
aI0
aI0
aI1
aI11
aI2
aa(lp158
V0021300486
p159
aVJAN 03, 2014
p160
aVDAL vs. LAC
p161
aVL
p162
aI33
aI4
aI10
aF0.4
aI3
aI8
aF0.375
aI0
aI0
aF0.0
aI0
aI6
aI6
aI5
aI0
aI0
aI0
aI3
aI11
aI-14
aa(lp163
V0021300503
p164
aVJAN 05, 2014
p165
aVDAL vs. NYK
p166
aVL
p167
aI36
aI5
aI13
aF0.385
aI2
aI8
aF0.25
aI0
aI0
aF0.0
aI1
aI1
aI2
aI6
aI0
aI0
aI2
aI1
aI12
aI-5
aa(lp168
V0021300516
p169
aVJAN 07, 2014
p170
aVDAL vs. LAL
p171
aVW
p172
aI36
aI5
aI8
aF0.625
aI2
aI4
aF0.5
aI0
aI0
aF0.0
aI1
aI1
aI2
aI8
aI5
aI0
aI1
aI1
aI12
aI24
aa(lp173
V0021300520
p174
aVJAN 08, 2014
p175
aVDAL @ SAS
p176
aVL
p177
aI26
aI2
aI11
aF0.182
aI1
aI4
aF0.25
aI0
aI0
aF0.0
aI0
aI2
aI2
aI2
aI2
aI0
aI0
aI2
aI5
aI-15
aa(lp178
V0021300536
p179
aVJAN 10, 2014
p180
aVDAL @ NOP
p181
aVW
p182
aI32
aI4
aI6
aF0.667
aI3
aI5
aF0.6
aI0
aI0
aF0.0
aI0
aI5
aI5
aI6
aI2
aI0
aI2
aI0
aI11
aI14
aa(lp183
V0021300549
p184
aVJAN 11, 2014
p185
aVDAL vs. NOP
p186
aVW
p187
aI35
aI5
aI10
aF0.5
aI4
aI7
aF0.571
aI3
aI4
aF0.75
aI1
aI1
aI2
aI5
aI1
aI0
aI2
aI3
aI17
aI4
aa(lp188
V0021300560
p189
aVJAN 13, 2014
p190
aVDAL vs. ORL
p191
aVW
p192
aI32
aI5
aI9
aF0.556
aI3
aI6
aF0.5
aI0
aI0
aF0.0
aI0
aI1
aI1
aI4
aI2
aI0
aI1
aI1
aI13
aI11
aa(lp193
V0021300577
p194
aVJAN 15, 2014
p195
aVDAL @ LAC
p196
aVL
p197
aI36
aI6
aI9
aF0.667
aI4
aI6
aF0.667
aI0
aI0
aF0.0
aI0
aI1
aI1
aI3
aI1
aI0
aI1
aI3
aI16
aI-8
aa(lp198
V0021300591
p199
aVJAN 17, 2014
p200
aVDAL @ PHX
p201
aVW
p202
aI19
aI2
aI8
aF0.25
aI0
aI4
aF0.0
aI0
aI0
aF0.0
aI0
aI0
aI0
aI4
aI1
aI0
aI1
aI3
aI4
aI-9
aa(lp203
V0021300600
p204
aVJAN 18, 2014
p205
aVDAL vs. POR
p206
aVL
p207
aI20
aI2
aI6
aF0.333
aI0
aI2
aF0.0
aI1
aI1
aF1.0
aI0
aI2
aI2
aI3
aI0
aI0
aI1
aI1
aI5
aI-16
aa(lp208
V0021300606
p209
aVJAN 20, 2014
p210
aVDAL @ CLE
p211
aVW
p212
aI28
aI4
aI8
aF0.5
aI1
aI4
aF0.25
aI2
aI2
aF1.0
aI1
aI0
aI1
aI6
aI0
aI0
aI1
aI2
aI11
aI-5
aa(lp213
V0021300624
p214
aVJAN 22, 2014
p215
aVDAL @ TOR
p216
aVL
p217
aI34
aI5
aI11
aF0.455
aI2
aI4
aF0.5
aI1
aI2
aF0.5
aI1
aI3
aI4
aI5
aI0
aI0
aI1
aI2
aI13
aI-4
aa(lp218
V0021300637
p219
aVJAN 24, 2014
p220
aVDAL @ BKN
p221
aVL
p222
aI36
aI5
aI15
aF0.333
aI3
aI7
aF0.429
aI2
aI2
aF1.0
aI0
aI1
aI1
aI2
aI1
aI0
aI1
aI2
aI15
aI0
aa(lp223
V0021300659
p224
aVJAN 26, 2014
p225
aVDAL vs. DET
p226
aVW
p227
aI34
aI7
aI8
aF0.875
aI1
aI2
aF0.5
aI2
aI2
aF1.0
aI1
aI1
aI2
aI4
aI1
aI0
aI2
aI2
aI17
aI2
aa(lp228
V0021300681
p229
aVJAN 29, 2014
p230
aVDAL vs. HOU
p231
aVL
p232
aI37
aI2
aI12
aF0.167
aI2
aI7
aF0.286
aI2
aI3
aF0.667
aI1
aI2
aI3
aI5
aI1
aI1
aI0
aI3
aI8
aI5
aa(lp233
V0021300693
p234
aVJAN 31, 2014
p235
aVDAL vs. SAC
p236
aVW
p237
aI34
aI6
aI14
aF0.429
aI1
aI6
aF0.167
aI1
aI2
aF0.5
aI0
aI1
aI1
aI7
aI1
aI0
aI1
aI2
aI14
aI-1
aa(lp238
V0021300717
p239
aVFEB 03, 2014
p240
aVDAL vs. CLE
p241
aVW
p242
aI33
aI4
aI7
aF0.571
aI3
aI5
aF0.6
aI0
aI0
aF0.0
aI0
aI2
aI2
aI10
aI0
aI0
aI1
aI0
aI11
aI19
aa(lp243
V0021300730
p244
aVFEB 05, 2014
p245
aVDAL @ MEM
p246
aVW
p247
aI31
aI2
aI9
aF0.222
aI1
aI4
aF0.25
aI0
aI0
aF0.0
aI0
aI1
aI1
aI4
aI0
aI0
aI2
aI1
aI5
aI3
aa(lp248
V0021300746
p249
aVFEB 07, 2014
p250
aVDAL vs. UTA
p251
aVW
p252
aI33
aI4
aI11
aF0.364
aI4
aI7
aF0.571
aI0
aI0
aF0.0
aI2
aI2
aI4
aI7
aI2
aI0
aI1
aI0
aI12
aI16
aa(lp253
V0021300758
p254
aVFEB 09, 2014
p255
aVDAL @ BOS
p256
aVW
p257
aI32
aI7
aI13
aF0.538
aI3
aI6
aF0.5
aI1
aI2
aF0.5
aI2
aI3
aI5
aI5
aI0
aI0
aI1
aI0
aI18
aI-1
aa(lp258
V0021300770
p259
aVFEB 11, 2014
p260
aVDAL @ CHA
p261
aVL
p262
aI23
aI3
aI8
aF0.375
aI2
aI2
aF1.0
aI0
aI0
aF0.0
aI0
aI0
aI0
aI2
aI0
aI1
aI2
aI0
aI8
aI-17
aa(lp263
V0021300777
p264
aVFEB 12, 2014
p265
aVDAL @ IND
p266
aVW
p267
aI22
aI1
aI7
aF0.143
aI1
aI5
aF0.2
aI1
aI2
aF0.5
aI1
aI3
aI4
aI2
aI0
aI1
aI3
aI4
aI4
aI9
aa(lp268
V0021300798
p269
aVFEB 18, 2014
p270
aVDAL vs. MIA
p271
aVL
p272
aI29
aI4
aI9
aF0.444
aI2
aI6
aF0.333
aI2
aI2
aF1.0
aI0
aI3
aI3
aI3
aI0
aI0
aI2
aI2
aI12
aI-20
aa(lp273
V0021300817
p274
aVFEB 21, 2014
p275
aVDAL @ PHI
p276
aVW
p277
aI30
aI3
aI6
aF0.5
aI2
aI4
aF0.5
aI0
aI0
aF0.0
aI0
aI3
aI3
aI10
aI1
aI1
aI2
aI2
aI8
aI8
aa(lp278
V0021300828
p279
aVFEB 22, 2014
p280
aVDAL @ DET
p281
aVW
p282
aI29
aI4
aI8
aF0.5
aI2
aI4
aF0.5
aI1
aI2
aF0.5
aI0
aI4
aI4
aI4
aI1
aI0
aI4
aI2
aI11
aI9
aa(lp283
V0021300843
p284
aVFEB 24, 2014
p285
aVDAL @ NYK
p286
aVW
p287
aI34
aI6
aI9
aF0.667
aI5
aI8
aF0.625
aI3
aI3
aF1.0
aI1
aI2
aI3
aI6
aI0
aI0
aI0
aI0
aI20
aI2
aa(lp288
V0021300856
p289
aVFEB 26, 2014
p290
aVDAL vs. NOP
p291
aVW
p292
aI26
aI3
aI7
aF0.429
aI3
aI5
aF0.6
aI0
aI0
aF0.0
aI0
aI2
aI2
aI5
aI1
aI0
aI0
aI2
aI9
aI12
aa(lp293
V0021300870
p294
aVFEB 28, 2014
p295
aVDAL vs. CHI
p296
aVL
p297
aI33
aI5
aI12
aF0.417
aI3
aI7
aF0.429
aI0
aI0
aF0.0
aI1
aI2
aI3
aI2
aI2
aI0
aI0
aI1
aI13
aI3
aa(lp298
V0021300888
p299
aVMAR 02, 2014
p300
aVDAL @ SAS
p301
aVL
p302
aI31
aI4
aI11
aF0.364
aI0
aI1
aF0.0
aI0
aI0
aF0.0
aI1
aI1
aI2
aI6
aI3
aI1
aI2
aI1
aI8
aI-8
aa(lp303
V0021300912
p304
aVMAR 05, 2014
p305
aVDAL @ DEN
p306
aVL
p307
aI31
aI2
aI5
aF0.4
aI1
aI4
aF0.25
aI0
aI0
aF0.0
aI1
aI1
aI2
aI6
aI1
aI0
aI4
aI1
aI5
aI-11
aa(lp308
V0021300924
p309
aVMAR 07, 2014
p310
aVDAL vs. POR
p311
aVW
p312
aI30
aI8
aI16
aF0.5
aI3
aI6
aF0.5
aI0
aI0
aF0.0
aI0
aI0
aI0
aI2
aI1
aI0
aI0
aI2
aI19
aI-11
aa(lp313
V0021300941
p314
aVMAR 09, 2014
p315
aVDAL vs. IND
p316
aVW
p317
aI30
aI4
aI8
aF0.5
aI2
aI5
aF0.4
aI0
aI0
aF0.0
aI1
aI2
aI3
aI7
aI0
aI0
aI1
aI2
aI10
aI-7
aa(lp318
V0021300956
p319
aVMAR 11, 2014
p320
aVDAL @ GSW
p321
aVL
p322
aI30
aI5
aI11
aF0.455
aI2
aI5
aF0.4
aI1
aI1
aF1.0
aI0
aI2
aI2
aI5
aI0
aI0
aI6
aI0
aI13
aI0
aa(lp323
V0021300964
p324
aVMAR 12, 2014
p325
aVDAL @ UTA
p326
aVW
p327
aI32
aI3
aI8
aF0.375
aI2
aI4
aF0.5
aI2
aI2
aF1.0
aI0
aI1
aI1
aI5
aI0
aI0
aI0
aI1
aI10
aI1
aa(lp328
V0021300992
p329
aVMAR 16, 2014
p330
aVDAL @ OKC
p331
aVW
p332
aI29
aI6
aI11
aF0.545
aI4
aI8
aF0.5
aI0
aI0
aF0.0
aI0
aI5
aI5
aI7
aI2
aI1
aI1
aI1
aI16
aI18
aa(lp333
V0021301001
p334
aVMAR 17, 2014
p335
aVDAL vs. BOS
p336
aVW
p337
aI31
aI2
aI6
aF0.333
aI2
aI4
aF0.5
aI0
aI0
aF0.0
aI0
aI0
aI0
aI6
aI1
aI1
aI1
aI1
aI6
aI9
aa(lp338
V0021301014
p339
aVMAR 19, 2014
p340
aVDAL vs. MIN
p341
aVL
p342
aI28
aI5
aI9
aF0.556
aI2
aI4
aF0.5
aI0
aI0
aF0.0
aI0
aI3
aI3
aI4
aI1
aI0
aI0
aI2
aI12
aI8
aa(lp343
V0021301028
p344
aVMAR 21, 2014
p345
aVDAL vs. DEN
p346
aVW
p347
aI27
aI4
aI9
aF0.444
aI2
aI4
aF0.5
aI0
aI0
aF0.0
aI0
aI4
aI4
aI6
aI0
aI1
aI1
aI1
aI10
aI7
aa(lp348
V0021301044
p349
aVMAR 23, 2014
p350
aVDAL vs. BKN
p351
aVL
p352
aI1
aI0
aI0
aF0.0
aI0
aI0
aF0.0
aI0
aI0
aF0.0
aI0
aI0
aI0
aI0
aI0
aI0
aI0
aI0
aI0
aI0
aa(lp353
V0021301059
p354
aVMAR 25, 2014
p355
aVDAL vs. OKC
p356
aVW
p357
aI37
aI7
aI10
aF0.7
aI6
aI9
aF0.667
aI2
aI2
aF1.0
aI0
aI4
aI4
aI8
aI0
aI0
aI0
aI1
aI22
aI21
aa(lp358
V0021301074
p359
aVMAR 27, 2014
p360
aVDAL vs. LAC
p361
aVL
p362
aI29
aI3
aI6
aF0.5
aI3
aI4
aF0.75
aI0
aI0
aF0.0
aI1
aI4
aI5
aI3
aI1
aI0
aI2
aI0
aI9
aI-17
aa(lp363
V0021301090
p364
aVMAR 29, 2014
p365
aVDAL vs. SAC
p366
aVW
p367
aI38
aI4
aI11
aF0.364
aI3
aI8
aF0.375
aI0
aI0
aF0.0
aI0
aI0
aI0
aI7
aI0
aI0
aI1
aI1
aI11
aI10
aa(lp368
V0021301112
p369
aVAPR 01, 2014
p370
aVDAL vs. GSW
p371
aVL
p372
aI37
aI3
aI9
aF0.333
aI1
aI4
aF0.25
aI1
aI1
aF1.0
aI0
aI2
aI2
aI6
aI0
aI0
aI3
aI2
aI8
aI-8
aa(lp373
V0021301128
p374
aVAPR 03, 2014
p375
aVDAL @ LAC
p376
aVW
p377
aI27
aI8
aI13
aF0.615
aI3
aI5
aF0.6
aI0
aI0
aF0.0
aI0
aI2
aI2
aI1
aI0
aI0
aI1
aI4
aI19
aI-15
aa(lp378
V0021301142
p379
aVAPR 04, 2014
p380
aVDAL @ LAL
p381
aVW
p382
aI29
aI4
aI11
aF0.364
aI2
aI8
aF0.25
aI1
aI1
aF1.0
aI0
aI3
aI3
aI2
aI0
aI0
aI1
aI3
aI11
aI3
aa(lp383
V0021301151
p384
aVAPR 06, 2014
p385
aVDAL @ SAC
p386
aVW
p387
aI31
aI5
aI10
aF0.5
aI4
aI7
aF0.571
aI0
aI0
aF0.0
aI1
aI3
aI4
aI2
aI2
aI0
aI0
aI1
aI14
aI5
aa(lp388
V0021301159
p389
aVAPR 08, 2014
p390
aVDAL @ UTA
p391
aVW
p392
aI31
aI4
aI6
aF0.667
aI0
aI2
aF0.0
aI2
aI4
aF0.5
aI0
aI3
aI3
aI4
aI0
aI1
aI2
aI2
aI10
aI9
aa(lp393
V0021301174
p394
aVAPR 10, 2014
p395
aVDAL vs. SAS
p396
aVL
p397
aI28
aI5
aI11
aF0.455
aI2
aI3
aF0.667
aI2
aI2
aF1.0
aI0
aI3
aI3
aI1
aI0
aI0
aI2
aI0
aI14
aI-22
aa(lp398
V0021301195
p399
aVAPR 12, 2014
p400
aVDAL vs. PHX
p401
aVW
p402
aI17
aI0
aI3
aF0.0
aI0
aI1
aF0.0
aI0
aI0
aF0.0
aI0
aI1
aI1
aI2
aI0
aI0
aI1
aI0
aI0
aI-9
aa(lp403
V0021301216
p404
aVAPR 16, 2014
p405
aVDAL @ MEM
p406
aVL
p407
aI27
aI4
aI8
aF0.5
aI1
aI5
aF0.2
aI0
aI0
aF0.0
aI1
aI1
aI2
aI5
aI0
aI0
aI1
aI3
aI9
aI-9
aasS'name'
p408
VJose Calderon
p409
sS'weight'
p410
V200
p411
sS'age'
p412
I32
sS'experience'
p413
I8
sS'height'
p414
V6-3
p415
sS'position'
p416
VGuard
p417
s.