(dp0
S'stats'
p1
(lp2
(lp3
V0021300013
p4
aVOCT 30, 2013
p5
aVSAS vs. MEM
p6
aVW
p7
aI17
aI1
aI6
aF0.167
aI0
aI0
aF0.0
aI1
aI3
aF0.333
aI0
aI6
aI6
aI2
aI0
aI0
aI0
aI2
aI3
aI-1
aa(lp8
V0021300039
p9
aVNOV 02, 2013
p10
aVSAS @ POR
p11
aVL
p12
aI31
aI12
aI23
aF0.522
aI0
aI1
aF0.0
aI0
aI0
aF0.0
aI3
aI4
aI7
aI1
aI0
aI1
aI0
aI3
aI24
aI-8
aa(lp13
V0021300057
p14
aVNOV 05, 2013
p15
aVSAS @ DEN
p16
aVW
p17
aI34
aI7
aI15
aF0.467
aI0
aI0
aF0.0
aI3
aI3
aF1.0
aI2
aI6
aI8
aI8
aI0
aI4
aI4
aI4
aI17
aI-1
aa(lp18
V0021300068
p19
aVNOV 06, 2013
p20
aVSAS vs. PHX
p21
aVW
p22
aI28
aI7
aI12
aF0.583
aI0
aI0
aF0.0
aI3
aI4
aF0.75
aI1
aI4
aI5
aI5
aI0
aI1
aI2
aI1
aI17
aI10
aa(lp23
V0021300082
p24
aVNOV 08, 2013
p25
aVSAS vs. GSW
p26
aVW
p27
aI32
aI3
aI11
aF0.273
aI0
aI0
aF0.0
aI2
aI2
aF1.0
aI1
aI3
aI4
aI5
aI1
aI2
aI3
aI2
aI8
aI3
aa(lp28
V0021300094
p29
aVNOV 10, 2013
p30
aVSAS @ NYK
p31
aVW
p32
aI24
aI1
aI4
aF0.25
aI0
aI0
aF0.0
aI9
aI11
aF0.818
aI2
aI8
aI10
aI2
aI0
aI1
aI2
aI1
aI11
aI18
aa(lp33
V0021300117
p34
aVNOV 13, 2013
p35
aVSAS vs. WAS
p36
aVW
p37
aI26
aI1
aI12
aF0.083
aI0
aI0
aF0.0
aI0
aI0
aF0.0
aI0
aI8
aI8
aI3
aI0
aI2
aI2
aI0
aI2
aI-3
aa(lp38
V0021300133
p39
aVNOV 15, 2013
p40
aVSAS @ UTA
p41
aVW
p42
aI34
aI7
aI16
aF0.438
aI0
aI0
aF0.0
aI0
aI1
aF0.0
aI2
aI7
aI9
aI2
aI0
aI3
aI1
aI0
aI14
aI11
aa(lp43
V0021300170
p44
aVNOV 20, 2013
p45
aVSAS vs. BOS
p46
aVW
p47
aI28
aI3
aI13
aF0.231
aI0
aI0
aF0.0
aI7
aI8
aF0.875
aI1
aI8
aI9
aI3
aI0
aI0
aI0
aI2
aI13
aI2
aa(lp48
V0021300181
p49
aVNOV 22, 2013
p50
aVSAS @ MEM
p51
aVW
p52
aI32
aI3
aI8
aF0.375
aI0
aI0
aF0.0
aI2
aI3
aF0.667
aI0
aI6
aI6
aI4
aI0
aI2
aI1
aI2
aI8
aI6
aa(lp53
V0021300194
p54
aVNOV 23, 2013
p55
aVSAS vs. CLE
p56
aVW
p57
aI16
aI4
aI6
aF0.667
aI0
aI0
aF0.0
aI1
aI2
aF0.5
aI1
aI5
aI6
aI1
aI0
aI3
aI0
aI0
aI9
aI32
aa(lp58
V0021300208
p59
aVNOV 25, 2013
p60
aVSAS vs. NOP
p61
aVW
p62
aI25
aI4
aI8
aF0.5
aI0
aI0
aF0.0
aI2
aI4
aF0.5
aI1
aI4
aI5
aI3
aI1
aI3
aI3
aI0
aI10
aI17
aa(lp63
V0021300224
p64
aVNOV 27, 2013
p65
aVSAS @ OKC
p66
aVL
p67
aI28
aI5
aI14
aF0.357
aI0
aI0
aF0.0
aI1
aI2
aF0.5
aI2
aI6
aI8
aI0
aI1
aI2
aI3
aI0
aI11
aI-5
aa(lp68
V0021300229
p69
aVNOV 29, 2013
p70
aVSAS @ ORL
p71
aVW
p72
aI23
aI8
aI13
aF0.615
aI0
aI0
aF0.0
aI3
aI3
aF1.0
aI3
aI6
aI9
aI2
aI1
aI1
aI2
aI2
aI19
aI3
aa(lp73
V0021300245
p74
aVNOV 30, 2013
p75
aVSAS vs. HOU
p76
aVL
p77
aI33
aI8
aI13
aF0.615
aI0
aI1
aF0.0
aI4
aI5
aF0.8
aI1
aI7
aI8
aI3
aI1
aI3
aI2
aI2
aI20
aI-4
aa(lp78
V0021300258
p79
aVDEC 02, 2013
p80
aVSAS vs. ATL
p81
aVW
p82
aI35
aI10
aI15
aF0.667
aI0
aI0
aF0.0
aI3
aI4
aF0.75
aI6
aI15
aI21
aI2
aI1
aI2
aI3
aI0
aI23
aI1
aa(lp83
V0021300296
p84
aVDEC 07, 2013
p85
aVSAS vs. IND
p86
aVL
p87
aI26
aI3
aI10
aF0.3
aI0
aI0
aF0.0
aI4
aI4
aF1.0
aI2
aI4
aI6
aI4
aI0
aI1
aI2
aI3
aI10
aI-18
aa(lp88
V0021300312
p89
aVDEC 10, 2013
p90
aVSAS @ TOR
p91
aVW
p92
aI24
aI6
aI11
aF0.545
aI0
aI0
aF0.0
aI2
aI5
aF0.4
aI2
aI5
aI7
aI1
aI0
aI0
aI3
aI1
aI14
aI5
aa(lp93
V0021300321
p94
aVDEC 11, 2013
p95
aVSAS @ MIL
p96
aVW
p97
aI24
aI9
aI12
aF0.75
aI0
aI0
aF0.0
aI3
aI3
aF1.0
aI6
aI10
aI16
aI3
aI0
aI2
aI1
aI1
aI21
aI31
aa(lp98
V0021300338
p99
aVDEC 13, 2013
p100
aVSAS vs. MIN
p101
aVW
p102
aI35
aI5
aI11
aF0.455
aI0
aI0
aF0.0
aI2
aI2
aF1.0
aI3
aI11
aI14
aI8
aI2
aI3
aI2
aI2
aI12
aI-2
aa(lp103
V0021300349
p104
aVDEC 14, 2013
p105
aVSAS @ UTA
p106
aVW
p107
aI29
aI9
aI17
aF0.529
aI0
aI0
aF0.0
aI4
aI6
aF0.667
aI2
aI10
aI12
aI3
aI0
aI0
aI2
aI2
aI22
aI5
aa(lp108
V0021300363
p109
aVDEC 16, 2013
p110
aVSAS @ LAC
p111
aVL
p112
aI32
aI5
aI12
aF0.417
aI0
aI0
aF0.0
aI7
aI8
aF0.875
aI2
aI9
aI11
aI5
aI1
aI1
aI2
aI4
aI17
aI-6
aa(lp113
V0021300378
p114
aVDEC 18, 2013
p115
aVSAS @ PHX
p116
aVW
p117
aI31
aI6
aI13
aF0.462
aI0
aI0
aF0.0
aI5
aI5
aF1.0
aI6
aI7
aI13
aI2
aI2
aI3
aI5
aI1
aI17
aI5
aa(lp118
V0021300399
p119
aVDEC 21, 2013
p120
aVSAS vs. OKC
p121
aVL
p122
aI35
aI7
aI14
aF0.5
aI0
aI0
aF0.0
aI3
aI4
aF0.75
aI3
aI7
aI10
aI1
aI1
aI2
aI2
aI0
aI17
aI-10
aa(lp123
V0021300414
p124
aVDEC 23, 2013
p125
aVSAS vs. TOR
p126
aVW
p127
aI28
aI4
aI15
aF0.267
aI0
aI0
aF0.0
aI1
aI2
aF0.5
aI3
aI9
aI12
aI4
aI0
aI4
aI0
aI3
aI9
aI1
aa(lp128
V0021300421
p129
aVDEC 25, 2013
p130
aVSAS vs. HOU
p131
aVL
p132
aI34
aI4
aI12
aF0.333
aI0
aI0
aF0.0
aI3
aI6
aF0.5
aI4
aI10
aI14
aI5
aI1
aI6
aI0
aI4
aI11
aI-26
aa(lp133
V0021300425
p134
aVDEC 26, 2013
p135
aVSAS @ DAL
p136
aVW
p137
aI32
aI7
aI16
aF0.438
aI0
aI0
aF0.0
aI7
aI8
aF0.875
aI2
aI11
aI13
aI3
aI0
aI2
aI3
aI2
aI21
aI-7
aa(lp138
V0021300451
p139
aVDEC 29, 2013
p140
aVSAS vs. SAC
p141
aVW
p142
aI33
aI8
aI17
aF0.471
aI0
aI0
aF0.0
aI1
aI1
aF1.0
aI3
aI10
aI13
aI2
aI0
aI2
aI2
aI2
aI17
aI-5
aa(lp143
V0021300465
p144
aVDEC 31, 2013
p145
aVSAS vs. BKN
p146
aVW
p147
aI24
aI7
aI11
aF0.636
aI0
aI0
aF0.0
aI1
aI2
aF0.5
aI0
aI5
aI5
aI1
aI1
aI0
aI1
aI0
aI15
aI23
aa(lp148
V0021300477
p149
aVJAN 02, 2014
p150
aVSAS vs. NYK
p151
aVL
p152
aI32
aI3
aI8
aF0.375
aI0
aI0
aF0.0
aI3
aI4
aF0.75
aI1
aI6
aI7
aI2
aI0
aI2
aI1
aI0
aI9
aI-6
aa(lp153
V0021300494
p154
aVJAN 04, 2014
p155
aVSAS vs. LAC
p156
aVW
p157
aI32
aI9
aI18
aF0.5
aI0
aI0
aF0.0
aI1
aI1
aF1.0
aI3
aI8
aI11
aI4
aI1
aI1
aI0
aI1
aI19
aI25
aa(lp158
V0021300514
p159
aVJAN 07, 2014
p160
aVSAS @ MEM
p161
aVW
p162
aI38
aI9
aI16
aF0.563
aI0
aI0
aF0.0
aI6
aI8
aF0.75
aI2
aI15
aI17
aI4
aI1
aI2
aI5
aI2
aI24
aI1
aa(lp163
V0021300520
p164
aVJAN 08, 2014
p165
aVSAS vs. DAL
p166
aVW
p167
aI29
aI5
aI8
aF0.625
aI0
aI0
aF0.0
aI6
aI6
aF1.0
aI3
aI10
aI13
aI1
aI0
aI2
aI4
aI0
aI16
aI17
aa(lp168
V0021300554
p169
aVJAN 12, 2014
p170
aVSAS vs. MIN
p171
aVW
p172
aI28
aI5
aI9
aF0.556
aI0
aI0
aF0.0
aI5
aI6
aF0.833
aI0
aI8
aI8
aI5
aI0
aI4
aI3
aI0
aI15
aI17
aa(lp173
V0021300559
p174
aVJAN 13, 2014
p175
aVSAS @ NOP
p176
aVW
p177
aI26
aI7
aI14
aF0.5
aI0
aI0
aF0.0
aI4
aI7
aF0.571
aI2
aI7
aI9
aI2
aI0
aI0
aI3
aI6
aI18
aI6
aa(lp178
V0021300573
p179
aVJAN 15, 2014
p180
aVSAS vs. UTA
p181
aVW
p182
aI24
aI7
aI10
aF0.7
aI0
aI0
aF0.0
aI1
aI1
aF1.0
aI0
aI8
aI8
aI4
aI0
aI3
aI1
aI1
aI15
aI18
aa(lp183
V0021300589
p184
aVJAN 17, 2014
p185
aVSAS vs. POR
p186
aVL
p187
aI36
aI6
aI16
aF0.375
aI0
aI0
aF0.0
aI1
aI3
aF0.333
aI1
aI6
aI7
aI3
aI0
aI2
aI3
aI2
aI13
aI-7
aa(lp188
V0021300604
p189
aVJAN 19, 2014
p190
aVSAS vs. MIL
p191
aVW
p192
aI28
aI4
aI7
aF0.571
aI0
aI0
aF0.0
aI3
aI7
aF0.429
aI1
aI12
aI13
aI2
aI0
aI3
aI0
aI1
aI11
aI14
aa(lp193
V0021300630
p194
aVJAN 22, 2014
p195
aVSAS vs. OKC
p196
aVL
p197
aI33
aI6
aI10
aF0.6
aI0
aI0
aF0.0
aI2
aI6
aF0.333
aI3
aI10
aI13
aI3
aI2
aI1
aI2
aI0
aI14
aI-10
aa(lp198
V0021300635
p199
aVJAN 24, 2014
p200
aVSAS @ ATL
p201
aVW
p202
aI27
aI7
aI14
aF0.5
aI0
aI0
aF0.0
aI3
aI6
aF0.5
aI4
aI12
aI16
aI2
aI0
aI4
aI3
aI1
aI17
aI21
aa(lp203
V0021300654
p204
aVJAN 26, 2014
p205
aVSAS @ MIA
p206
aVL
p207
aI24
aI9
aI13
aF0.692
aI0
aI1
aF0.0
aI5
aI5
aF1.0
aI1
aI2
aI3
aI0
aI2
aI1
aI1
aI3
aI23
aI-20
aa(lp208
V0021300671
p209
aVJAN 28, 2014
p210
aVSAS @ HOU
p211
aVL
p212
aI30
aI6
aI10
aF0.6
aI0
aI0
aF0.0
aI0
aI2
aF0.0
aI6
aI8
aI14
aI2
aI1
aI4
aI3
aI5
aI12
aI2
aa(lp213
V0021300683
p214
aVJAN 29, 2014
p215
aVSAS vs. CHI
p216
aVL
p217
aI35
aI7
aI14
aF0.5
aI0
aI0
aF0.0
aI3
aI4
aF0.75
aI3
aI9
aI12
aI1
aI1
aI1
aI4
aI1
aI17
aI-21
aa(lp218
V0021300704
p219
aVFEB 01, 2014
p220
aVSAS vs. SAC
p221
aVW
p222
aI33
aI8
aI13
aF0.615
aI0
aI0
aF0.0
aI7
aI12
aF0.583
aI4
aI13
aI17
aI5
aI0
aI2
aI1
aI0
aI23
aI4
aa(lp223
V0021300715
p224
aVFEB 03, 2014
p225
aVSAS @ NOP
p226
aVW
p227
aI29
aI10
aI20
aF0.5
aI0
aI0
aF0.0
aI1
aI3
aF0.333
aI2
aI5
aI7
aI2
aI1
aI6
aI4
aI2
aI21
aI-10
aa(lp228
V0021300727
p229
aVFEB 05, 2014
p230
aVSAS @ WAS
p231
aVW
p232
aI40
aI13
aI20
aF0.65
aI0
aI0
aF0.0
aI5
aI7
aF0.714
aI2
aI9
aI11
aI5
aI2
aI3
aI3
aI6
aI31
aI13
aa(lp233
V0021300749
p234
aVFEB 08, 2014
p235
aVSAS @ CHA
p236
aVW
p237
aI32
aI6
aI13
aF0.462
aI0
aI0
aF0.0
aI4
aI6
aF0.667
aI2
aI10
aI12
aI0
aI0
aI2
aI5
aI4
aI16
aI-3
aa(lp238
V0021300766
p239
aVFEB 10, 2014
p240
aVSAS @ DET
p241
aVL
p242
aI22
aI5
aI8
aF0.625
aI0
aI0
aF0.0
aI1
aI2
aF0.5
aI0
aI8
aI8
aI4
aI0
aI1
aI6
aI0
aI11
aI-21
aa(lp243
V0021300780
p244
aVFEB 12, 2014
p245
aVSAS @ BOS
p246
aVW
p247
aI35
aI9
aI15
aF0.6
aI0
aI0
aF0.0
aI7
aI8
aF0.875
aI1
aI8
aI9
aI2
aI0
aI1
aI3
aI2
aI25
aI18
aa(lp248
V0021300800
p249
aVFEB 18, 2014
p250
aVSAS @ LAC
p251
aVW
p252
aI38
aI8
aI19
aF0.421
aI0
aI0
aF0.0
aI3
aI4
aF0.75
aI4
aI9
aI13
aI7
aI0
aI1
aI4
aI5
aI19
aI0
aa(lp253
V0021300822
p254
aVFEB 21, 2014
p255
aVSAS @ PHX
p256
aVL
p257
aI21
aI4
aI10
aF0.4
aI0
aI1
aF0.0
aI5
aI5
aF1.0
aI0
aI5
aI5
aI0
aI1
aI0
aI2
aI1
aI13
aI-14
aa(lp258
V0021300859
p259
aVFEB 26, 2014
p260
aVSAS vs. DET
p261
aVW
p262
aI27
aI5
aI12
aF0.417
aI0
aI0
aF0.0
aI3
aI3
aF1.0
aI2
aI7
aI9
aI1
aI2
aI1
aI2
aI3
aI13
aI17
aa(lp263
V0021300871
p264
aVFEB 28, 2014
p265
aVSAS vs. CHA
p266
aVW
p267
aI33
aI6
aI12
aF0.5
aI0
aI0
aF0.0
aI5
aI5
aF1.0
aI2
aI14
aI16
aI6
aI1
aI1
aI4
aI2
aI17
aI19
aa(lp268
V0021300888
p269
aVMAR 02, 2014
p270
aVSAS vs. DAL
p271
aVW
p272
aI35
aI5
aI11
aF0.455
aI0
aI0
aF0.0
aI7
aI9
aF0.778
aI2
aI7
aI9
aI2
aI0
aI2
aI4
aI3
aI17
aI-1
aa(lp273
V0021300898
p274
aVMAR 04, 2014
p275
aVSAS @ CLE
p276
aVW
p277
aI26
aI2
aI5
aF0.4
aI0
aI0
aF0.0
aI3
aI4
aF0.75
aI0
aI8
aI8
aI4
aI0
aI3
aI0
aI1
aI7
aI5
aa(lp278
V0021300914
p279
aVMAR 06, 2014
p280
aVSAS vs. MIA
p281
aVW
p282
aI33
aI9
aI13
aF0.692
aI0
aI0
aF0.0
aI5
aI5
aF1.0
aI2
aI9
aI11
aI2
aI0
aI1
aI3
aI4
aI23
aI7
aa(lp283
V0021300932
p284
aVMAR 08, 2014
p285
aVSAS vs. ORL
p286
aVW
p287
aI29
aI4
aI13
aF0.308
aI0
aI0
aF0.0
aI3
aI5
aF0.6
aI1
aI9
aI10
aI2
aI1
aI3
aI1
aI2
aI11
aI15
aa(lp288
V0021300952
p289
aVMAR 11, 2014
p290
aVSAS @ CHI
p291
aVW
p292
aI27
aI2
aI9
aF0.222
aI0
aI0
aF0.0
aI0
aI0
aF0.0
aI2
aI7
aI9
aI5
aI1
aI0
aI0
aI1
aI4
aI17
aa(lp293
V0021300965
p294
aVMAR 12, 2014
p295
aVSAS vs. POR
p296
aVW
p297
aI26
aI5
aI9
aF0.556
aI0
aI0
aF0.0
aI0
aI0
aF0.0
aI2
aI9
aI11
aI2
aI0
aI0
aI0
aI1
aI10
aI-7
aa(lp298
V0021300978
p299
aVMAR 14, 2014
p300
aVSAS vs. LAL
p301
aVW
p302
aI15
aI4
aI10
aF0.4
aI0
aI0
aF0.0
aI1
aI1
aF1.0
aI0
aI8
aI8
aI2
aI0
aI3
aI1
aI1
aI9
aI20
aa(lp303
V0021300993
p304
aVMAR 16, 2014
p305
aVSAS vs. UTA
p306
aVW
p307
aI30
aI7
aI10
aF0.7
aI0
aI0
aF0.0
aI2
aI2
aF1.0
aI1
aI5
aI6
aI6
aI1
aI2
aI2
aI1
aI16
aI12
aa(lp308
V0021301017
p309
aVMAR 19, 2014
p310
aVSAS @ LAL
p311
aVW
p312
aI32
aI5
aI10
aF0.5
aI0
aI0
aF0.0
aI2
aI2
aF1.0
aI5
aI11
aI16
aI6
aI3
aI0
aI4
aI4
aI12
aI28
aa(lp313
V0021301030
p314
aVMAR 21, 2014
p315
aVSAS @ SAC
p316
aVW
p317
aI34
aI3
aI12
aF0.25
aI0
aI0
aF0.0
aI4
aI6
aF0.667
aI3
aI6
aI9
aI6
aI0
aI2
aI0
aI2
aI10
aI14
aa(lp318
V0021301054
p319
aVMAR 24, 2014
p320
aVSAS vs. PHI
p321
aVW
p322
aI23
aI9
aI12
aF0.75
aI0
aI0
aF0.0
aI1
aI2
aF0.5
aI2
aI3
aI5
aI2
aI1
aI0
aI2
aI2
aI19
aI-1
aa(lp323
V0021301068
p324
aVMAR 26, 2014
p325
aVSAS vs. DEN
p326
aVW
p327
aI36
aI12
aI20
aF0.6
aI0
aI0
aF0.0
aI5
aI6
aF0.833
aI2
aI11
aI13
aI5
aI2
aI2
aI5
aI2
aI29
aI4
aa(lp328
V0021301084
p329
aVMAR 28, 2014
p330
aVSAS @ DEN
p331
aVW
p332
aI22
aI9
aI15
aF0.6
aI0
aI1
aF0.0
aI2
aI3
aF0.667
aI1
aI7
aI8
aI4
aI1
aI2
aI0
aI2
aI20
aI14
aa(lp333
V0021301092
p334
aVMAR 29, 2014
p335
aVSAS vs. NOP
p336
aVW
p337
aI25
aI5
aI9
aF0.556
aI0
aI0
aF0.0
aI2
aI5
aF0.4
aI2
aI6
aI8
aI6
aI0
aI4
aI3
aI0
aI12
aI27
aa(lp338
V0021301102
p339
aVMAR 31, 2014
p340
aVSAS @ IND
p341
aVW
p342
aI31
aI3
aI10
aF0.3
aI0
aI0
aF0.0
aI3
aI4
aF0.75
aI2
aI4
aI6
aI4
aI1
aI3
aI3
aI3
aI9
aI18
aa(lp343
V0021301123
p344
aVAPR 02, 2014
p345
aVSAS vs. GSW
p346
aVW
p347
aI20
aI7
aI11
aF0.636
aI0
aI0
aF0.0
aI1
aI2
aF0.5
aI3
aI5
aI8
aI0
aI0
aI0
aI1
aI2
aI15
aI7
aa(lp348
V0021301127
p349
aVAPR 03, 2014
p350
aVSAS @ OKC
p351
aVL
p352
aI28
aI5
aI15
aF0.333
aI0
aI0
aF0.0
aI7
aI8
aF0.875
aI2
aI6
aI8
aI1
aI0
aI2
aI0
aI2
aI17
aI-9
aa(lp353
V0021301154
p354
aVAPR 06, 2014
p355
aVSAS vs. MEM
p356
aVW
p357
aI28
aI5
aI10
aF0.5
aI0
aI0
aF0.0
aI3
aI3
aF1.0
aI1
aI4
aI5
aI1
aI2
aI1
aI2
aI2
aI13
aI17
aa(lp358
V0021300275
p359
aVAPR 08, 2014
p360
aVSAS @ MIN
p361
aVL
p362
aI20
aI4
aI11
aF0.364
aI0
aI0
aF0.0
aI2
aI4
aF0.5
aI3
aI3
aI6
aI1
aI0
aI4
aI3
aI2
aI10
aI-26
aa(lp363
V0021301174
p364
aVAPR 10, 2014
p365
aVSAS @ DAL
p366
aVW
p367
aI39
aI7
aI12
aF0.583
aI0
aI0
aF0.0
aI6
aI9
aF0.667
aI4
aI11
aI15
aI2
aI1
aI1
aI3
aI3
aI20
aI-4
aa(lp368
V0021301209
p369
aVAPR 14, 2014
p370
aVSAS @ HOU
p371
aVL
p372
aI30
aI4
aI10
aF0.4
aI0
aI0
aF0.0
aI4
aI4
aF1.0
aI5
aI4
aI9
aI2
aI0
aI0
aI2
aI0
aI12
aI-14
aasS'name'
p373
VTim Duncan
p374
sS'weight'
p375
V250
p376
sS'age'
p377
I37
sS'experience'
p378
I16
sS'height'
p379
V6-11
p380
sS'position'
p381
VCenter-Forward
p382
s.