(dp0
S'age'
p1
I36
sS'stats'
p2
(lp3
(lp4
V0021301223
p5
aVAPR 16, 2014
p6
aVCHI @ CHA
p7
aVL
p8
aI6
aI1
aI3
aF0.333
aI0
aI0
aF0.0
aI0
aI0
aF0.0
aI0
aI2
aI2
aI0
aI0
aI0
aI0
aI0
aI2
aI3
aa(lp9
V0021301208
p10
aVAPR 14, 2014
p11
aVCHI vs. ORL
p12
aVW
p13
aI7
aI1
aI2
aF0.5
aI0
aI0
aF0.0
aI0
aI0
aF0.0
aI0
aI1
aI1
aI0
aI0
aI0
aI0
aI0
aI2
aI-1
aa(lp14
V0021301197
p15
aVAPR 13, 2014
p16
aVCHI @ NYK
p17
aVL
p18
aI4
aI1
aI1
aF1.0
aI0
aI0
aF0.0
aI0
aI0
aF0.0
aI1
aI0
aI1
aI0
aI0
aI0
aI0
aI1
aI2
aI-5
aa(lp19
V0021301181
p20
aVAPR 11, 2014
p21
aVCHI vs. DET
p22
aVW
p23
aI5
aI2
aI2
aF1.0
aI0
aI0
aF0.0
aI0
aI0
aF0.0
aI0
aI0
aI0
aI0
aI1
aI0
aI0
aI0
aI4
aI-7
aa(lp24
V0021301169
p25
aVAPR 09, 2014
p26
aVCHI @ MIN
p27
aVW
p28
aI4
aI1
aI1
aF1.0
aI0
aI0
aF0.0
aI0
aI0
aF0.0
aI0
aI0
aI0
aI1
aI0
aI0
aI0
aI0
aI2
aI-2
aa(lp29
V0021301144
p30
aVAPR 05, 2014
p31
aVCHI @ WAS
p32
aVW
p33
aI7
aI0
aI0
aF0.0
aI0
aI0
aF0.0
aI0
aI0
aF0.0
aI0
aI1
aI1
aI0
aI0
aI1
aI1
aI2
aI0
aI1
aa(lp34
V0021301137
p35
aVAPR 04, 2014
p36
aVCHI vs. MIL
p37
aVW
p38
aI5
aI1
aI1
aF1.0
aI0
aI0
aF0.0
aI0
aI0
aF0.0
aI0
aI1
aI1
aI1
aI0
aI0
aI1
aI2
aI2
aI2
aa(lp39
V0021301120
p40
aVAPR 02, 2014
p41
aVCHI @ ATL
p42
aVW
p43
aI6
aI1
aI1
aF1.0
aI0
aI0
aF0.0
aI0
aI0
aF0.0
aI0
aI3
aI3
aI0
aI0
aI1
aI0
aI1
aI2
aI1
aa(lp44
V0021301106
p45
aVMAR 31, 2014
p46
aVCHI vs. BOS
p47
aVW
p48
aI5
aI0
aI0
aF0.0
aI0
aI0
aF0.0
aI0
aI0
aF0.0
aI0
aI0
aI0
aI0
aI0
aI0
aI0
aI0
aI0
aI-7
aa(lp49
V0021301097
p50
aVMAR 30, 2014
p51
aVCHI @ BOS
p52
aVW
p53
aI5
aI1
aI1
aF1.0
aI0
aI0
aF0.0
aI0
aI0
aF0.0
aI0
aI0
aI0
aI0
aI0
aI0
aI0
aI2
aI2
aI1
aa(lp54
V0021301080
p55
aVMAR 28, 2014
p56
aVCHI vs. POR
p57
aVL
p58
aI5
aI0
aI1
aF0.0
aI0
aI0
aF0.0
aI0
aI0
aF0.0
aI0
aI1
aI1
aI0
aI0
aI1
aI0
aI1
aI0
aI-5
aa(lp59
V0021301050
p60
aVMAR 24, 2014
p61
aVCHI vs. IND
p62
aVW
p63
aI4
aI0
aI0
aF0.0
aI0
aI0
aF0.0
aI0
aI0
aF0.0
aI1
aI2
aI3
aI0
aI0
aI0
aI0
aI0
aI0
aI1
aa(lp64
V0021301034
p65
aVMAR 22, 2014
p66
aVCHI vs. PHI
p67
aVW
p68
aI6
aI0
aI0
aF0.0
aI0
aI0
aF0.0
aI0
aI0
aF0.0
aI0
aI2
aI2
aI1
aI1
aI1
aI1
aI1
aI0
aI5
aa(lp69
V0021301022
p70
aVMAR 21, 2014
p71
aVCHI @ IND
p72
aVL
p73
aI5
aI0
aI0
aF0.0
aI0
aI0
aF0.0
aI0
aI0
aF0.0
aI0
aI1
aI1
aI0
aI0
aI1
aI0
aI0
aI0
aI-7
aa(lp74
V0021301008
p75
aVMAR 19, 2014
p76
aVCHI @ PHI
p77
aVW
p78
aI4
aI0
aI2
aF0.0
aI0
aI0
aF0.0
aI0
aI0
aF0.0
aI2
aI1
aI3
aI1
aI0
aI1
aI0
aI1
aI0
aI4
aa(lp79
V0021300999
p80
aVMAR 17, 2014
p81
aVCHI vs. OKC
p82
aVL
p83
aI6
aI1
aI3
aF0.333
aI0
aI0
aF0.0
aI2
aI3
aF0.667
aI3
aI5
aI8
aI0
aI0
aI1
aI1
aI0
aI4
aI3
aa(lp84
V0021300986
p85
aVMAR 15, 2014
p86
aVCHI vs. SAC
p87
aVW
p88
aI4
aI0
aI0
aF0.0
aI0
aI0
aF0.0
aI0
aI0
aF0.0
aI0
aI2
aI2
aI0
aI0
aI0
aI0
aI1
aI0
aI2
aa(lp89
V0021300968
p90
aVMAR 13, 2014
p91
aVCHI vs. HOU
p92
aVW
p93
aI7
aI1
aI1
aF1.0
aI0
aI0
aF0.0
aI0
aI0
aF0.0
aI1
aI4
aI5
aI1
aI0
aI1
aI0
aI0
aI2
aI5
aa(lp94
V0021300952
p95
aVMAR 11, 2014
p96
aVCHI vs. SAS
p97
aVL
p98
aI14
aI3
aI5
aF0.6
aI0
aI0
aF0.0
aI0
aI0
aF0.0
aI1
aI4
aI5
aI0
aI0
aI1
aI1
aI1
aI6
aI12
aa(lp99
V0021300934
p100
aVMAR 09, 2014
p101
aVCHI vs. MIA
p102
aVW
p103
aI4
aI1
aI1
aF1.0
aI0
aI0
aF0.0
aI0
aI0
aF0.0
aI1
aI0
aI1
aI0
aI0
aI0
aI0
aI2
aI2
aI-1
aa(lp104
V0021300917
p105
aVMAR 07, 2014
p106
aVCHI vs. MEM
p107
aVL
p108
aI4
aI0
aI0
aF0.0
aI0
aI0
aF0.0
aI0
aI0
aF0.0
aI0
aI1
aI1
aI0
aI0
aI0
aI1
aI1
aI0
aI-1
aa(lp109
V0021300909
p110
aVMAR 05, 2014
p111
aVCHI @ DET
p112
aVW
p113
aI6
aI1
aI2
aF0.5
aI0
aI0
aF0.0
aI0
aI0
aF0.0
aI1
aI1
aI2
aI0
aI0
aI0
aI1
aI1
aI2
aI-1
aa(lp114
V0021300891
p115
aVMAR 03, 2014
p116
aVCHI @ BKN
p117
aVL
p118
aI10
aI1
aI1
aF1.0
aI0
aI0
aF0.0
aI0
aI0
aF0.0
aI0
aI4
aI4
aI0
aI0
aI0
aI0
aI0
aI2
aI5
aa(lp119
V0021300870
p120
aVFEB 28, 2014
p121
aVCHI @ DAL
p122
aVW
p123
aI4
aI0
aI0
aF0.0
aI0
aI0
aF0.0
aI0
aI0
aF0.0
aI1
aI0
aI1
aI0
aI0
aI0
aI0
aI1
aI0
aI-2
aa(lp124
V0021300855
p125
aVFEB 26, 2014
p126
aVCHI vs. GSW
p127
aVW
p128
aI9
aI4
aI7
aF0.571
aI0
aI0
aF0.0
aI0
aI1
aF0.0
aI1
aI2
aI3
aI0
aI0
aI0
aI2
aI2
aI8
aI-2
aa(lp129
V0021300849
p130
aVFEB 25, 2014
p131
aVCHI @ ATL
p132
aVW
p133
aI5
aI0
aI0
aF0.0
aI0
aI0
aF0.0
aI0
aI0
aF0.0
aI0
aI2
aI2
aI1
aI0
aI0
aI0
aI0
aI0
aI7
aa(lp134
V0021300834
p135
aVFEB 23, 2014
p136
aVCHI @ MIA
p137
aVL
p138
aI4
aI0
aI2
aF0.0
aI0
aI0
aF0.0
aI0
aI0
aF0.0
aI1
aI3
aI4
aI0
aI0
aI0
aI1
aI1
aI0
aI-3
aa(lp139
V0021300820
p140
aVFEB 21, 2014
p141
aVCHI vs. DEN
p142
aVW
p143
aI13
aI3
aI6
aF0.5
aI0
aI0
aF0.0
aI0
aI2
aF0.0
aI1
aI1
aI2
aI1
aI0
aI0
aI1
aI4
aI6
aI-8
aa(lp144
V0021300803
p145
aVFEB 19, 2014
p146
aVCHI @ TOR
p147
aVW
p148
aI4
aI0
aI0
aF0.0
aI0
aI0
aF0.0
aI0
aI0
aF0.0
aI0
aI2
aI2
aI0
aI1
aI0
aI0
aI2
aI0
aI0
aa(lp149
V0021300790
p150
aVFEB 13, 2014
p151
aVCHI vs. BKN
p152
aVW
p153
aI4
aI1
aI1
aF1.0
aI0
aI0
aF0.0
aI0
aI0
aF0.0
aI0
aI1
aI1
aI0
aI0
aI0
aI1
aI0
aI2
aI0
aa(lp154
V0021300772
p155
aVFEB 11, 2014
p156
aVCHI vs. ATL
p157
aVW
p158
aI5
aI1
aI1
aF1.0
aI0
aI0
aF0.0
aI0
aI0
aF0.0
aI1
aI1
aI2
aI0
aI1
aI0
aI1
aI0
aI2
aI0
aa(lp159
V0021300757
p160
aVFEB 09, 2014
p161
aVCHI @ LAL
p162
aVW
p163
aI7
aI0
aI0
aF0.0
aI0
aI0
aF0.0
aI0
aI0
aF0.0
aI0
aI3
aI3
aI0
aI0
aI0
aI0
aI2
aI0
aI0
aa(lp164
V0021300738
p165
aVFEB 06, 2014
p166
aVCHI @ GSW
p167
aVL
p168
aI6
aI0
aI1
aF0.0
aI0
aI0
aF0.0
aI0
aI0
aF0.0
aI1
aI1
aI2
aI0
aI0
aI0
aI0
aI1
aI0
aI-2
aa(lp169
V0021300723
p170
aVFEB 04, 2014
p171
aVCHI @ PHX
p172
aVW
p173
aI5
aI0
aI0
aF0.0
aI0
aI0
aF0.0
aI0
aI0
aF0.0
aI0
aI1
aI1
aI0
aI0
aI0
aI0
aI0
aI0
aI4
aa(lp174
V0021300720
p175
aVFEB 03, 2014
p176
aVCHI @ SAC
p177
aVL
p178
aI17
aI0
aI2
aF0.0
aI0
aI0
aF0.0
aI0
aI2
aF0.0
aI3
aI2
aI5
aI1
aI0
aI0
aI0
aI0
aI0
aI-8
aa(lp179
V0021300703
p180
aVFEB 01, 2014
p181
aVCHI @ NOP
p182
aVL
p183
aI7
aI0
aI1
aF0.0
aI0
aI0
aF0.0
aI0
aI0
aF0.0
aI0
aI0
aI0
aI0
aI1
aI0
aI1
aI1
aI0
aI-4
aa(lp184
V0021300683
p185
aVJAN 29, 2014
p186
aVCHI @ SAS
p187
aVW
p188
aI4
aI0
aI0
aF0.0
aI0
aI0
aF0.0
aI0
aI0
aF0.0
aI1
aI0
aI1
aI0
aI0
aI0
aI0
aI1
aI0
aI-9
aa(lp189
V0021300664
p190
aVJAN 27, 2014
p191
aVCHI vs. MIN
p192
aVL
p193
aI23
aI3
aI5
aF0.6
aI0
aI0
aF0.0
aI3
aI4
aF0.75
aI1
aI4
aI5
aI1
aI1
aI1
aI0
aI4
aI9
aI-4
aa(lp194
V0021300646
p195
aVJAN 25, 2014
p196
aVCHI @ CHA
p197
aVW
p198
aI4
aI0
aI0
aF0.0
aI0
aI0
aF0.0
aI0
aI0
aF0.0
aI0
aI2
aI2
aI0
aI0
aI1
aI0
aI1
aI0
aI6
aa(lp199
V0021300641
p200
aVJAN 24, 2014
p201
aVCHI vs. LAC
p202
aVL
p203
aI7
aI0
aI2
aF0.0
aI0
aI0
aF0.0
aI0
aI0
aF0.0
aI2
aI2
aI4
aI0
aI0
aI0
aI0
aI0
aI0
aI5
aa(lp204
V0021300622
p205
aVJAN 22, 2014
p206
aVCHI @ CLE
p207
aVW
p208
aI9
aI1
aI5
aF0.2
aI0
aI0
aF0.0
aI0
aI0
aF0.0
aI1
aI0
aI1
aI0
aI0
aI2
aI0
aI2
aI2
aI-4
aa(lp209
V0021300613
p210
aVJAN 20, 2014
p211
aVCHI vs. LAL
p212
aVW
p213
aI4
aI0
aI1
aF0.0
aI0
aI0
aF0.0
aI0
aI0
aF0.0
aI0
aI1
aI1
aI0
aI0
aI0
aI0
aI0
aI0
aI-8
aa(lp214
V0021300596
p215
aVJAN 18, 2014
p216
aVCHI vs. PHI
p217
aVW
p218
aI8
aI2
aI5
aF0.4
aI0
aI0
aF0.0
aI0
aI0
aF0.0
aI0
aI3
aI3
aI0
aI0
aI2
aI1
aI3
aI4
aI-2
aa(lp219
V0021300585
p220
aVJAN 17, 2014
p221
aVCHI @ WAS
p222
aVL
p223
aI6
aI1
aI1
aF1.0
aI0
aI0
aF0.0
aI0
aI0
aF0.0
aI0
aI0
aI0
aI0
aI0
aI0
aI0
aI2
aI2
aI2
aa(lp224
V0021300566
p225
aVJAN 15, 2014
p226
aVCHI @ ORL
p227
aVW
p228
aI6
aI0
aI1
aF0.0
aI0
aI0
aF0.0
aI0
aI0
aF0.0
aI1
aI1
aI2
aI0
aI0
aI0
aI1
aI1
aI0
aI-1
aa(lp229
V0021300558
p230
aVJAN 13, 2014
p231
aVCHI vs. WAS
p232
aVL
p233
aI1
aI0
aI0
aF0.0
aI0
aI0
aF0.0
aI0
aI0
aF0.0
aI0
aI0
aI0
aI0
aI0
aI0
aI0
aI0
aI0
aI-2
aa(lp234
V0021300547
p235
aVJAN 11, 2014
p236
aVCHI vs. CHA
p237
aVW
p238
aI5
aI0
aI0
aF0.0
aI0
aI0
aF0.0
aI0
aI0
aF0.0
aI1
aI1
aI2
aI0
aI0
aI1
aI0
aI0
aI0
aI6
aa(lp239
V0021300538
p240
aVJAN 10, 2014
p241
aVCHI @ MIL
p242
aVW
p243
aI6
aI0
aI0
aF0.0
aI0
aI0
aF0.0
aI0
aI0
aF0.0
aI1
aI3
aI4
aI1
aI1
aI0
aI0
aI0
aI0
aI8
aa(lp244
V0021300513
p245
aVJAN 07, 2014
p246
aVCHI vs. PHX
p247
aVW
p248
aI12
aI2
aI3
aF0.667
aI0
aI0
aF0.0
aI0
aI1
aF0.0
aI3
aI1
aI4
aI1
aI0
aI1
aI2
aI2
aI4
aI4
aa(lp249
V0021300492
p250
aVJAN 04, 2014
p251
aVCHI vs. ATL
p252
aVW
p253
aI14
aI2
aI6
aF0.333
aI0
aI0
aF0.0
aI3
aI4
aF0.75
aI3
aI3
aI6
aI1
aI0
aI1
aI2
aI0
aI7
aI3
aa(lp254
V0021300475
p255
aVJAN 02, 2014
p256
aVCHI vs. BOS
p257
aVW
p258
aI4
aI1
aI1
aF1.0
aI0
aI0
aF0.0
aI0
aI0
aF0.0
aI1
aI0
aI1
aI0
aI0
aI0
aI0
aI1
aI2
aI-6
aa(lp259
V0021300463
p260
aVDEC 31, 2013
p261
aVCHI vs. TOR
p262
aVL
p263
aI8
aI1
aI2
aF0.5
aI0
aI0
aF0.0
aI0
aI0
aF0.0
aI1
aI2
aI3
aI0
aI0
aI0
aI1
aI2
aI2
aI8
aa(lp264
V0021300454
p265
aVDEC 30, 2013
p266
aVCHI @ MEM
p267
aVW
p268
aI4
aI0
aI2
aF0.0
aI0
aI0
aF0.0
aI0
aI0
aF0.0
aI1
aI1
aI2
aI0
aI1
aI1
aI0
aI1
aI0
aI2
aa(lp269
V0021300441
p270
aVDEC 28, 2013
p271
aVCHI vs. DAL
p272
aVL
p273
aI4
aI0
aI1
aF0.0
aI0
aI0
aF0.0
aI0
aI0
aF0.0
aI1
aI1
aI2
aI0
aI0
aI1
aI0
aI0
aI0
aI-8
aa(lp274
V0021300418
p275
aVDEC 25, 2013
p276
aVCHI @ BKN
p277
aVW
p278
aI7
aI0
aI1
aF0.0
aI0
aI0
aF0.0
aI0
aI0
aF0.0
aI0
aI0
aI0
aI0
aI0
aI0
aI0
aI0
aI0
aI-1
aa(lp279
V0021300397
p280
aVDEC 21, 2013
p281
aVCHI vs. CLE
p282
aVW
p283
aI7
aI2
aI4
aF0.5
aI0
aI0
aF0.0
aI2
aI2
aF1.0
aI1
aI1
aI2
aI0
aI0
aI0
aI1
aI0
aI6
aI-2
aa(lp284
V0021300381
p285
aVDEC 19, 2013
p286
aVCHI @ OKC
p287
aVL
p288
aI9
aI1
aI3
aF0.333
aI0
aI0
aF0.0
aI2
aI2
aF1.0
aI1
aI1
aI2
aI0
aI0
aI1
aI0
aI0
aI4
aI6
aa(lp289
V0021300379
p290
aVDEC 18, 2013
p291
aVCHI @ HOU
p292
aVL
p293
aI4
aI0
aI0
aF0.0
aI0
aI0
aF0.0
aI0
aI0
aF0.0
aI0
aI0
aI0
aI1
aI0
aI0
aI1
aI1
aI0
aI0
aa(lp294
V0021300346
p295
aVDEC 14, 2013
p296
aVCHI vs. TOR
p297
aVL
p298
aI7
aI0
aI0
aF0.0
aI0
aI0
aF0.0
aI1
aI2
aF0.5
aI0
aI0
aI0
aI0
aI0
aI0
aI2
aI3
aI1
aI-7
aa(lp299
V0021300337
p300
aVDEC 13, 2013
p301
aVCHI @ MIL
p302
aVW
p303
aI5
aI1
aI1
aF1.0
aI0
aI0
aF0.0
aI1
aI2
aF0.5
aI0
aI0
aI0
aI0
aI0
aI1
aI1
aI1
aI3
aI-8
aa(lp304
V0021300324
p305
aVDEC 11, 2013
p306
aVCHI @ NYK
p307
aVL
p308
aI3
aI0
aI2
aF0.0
aI0
aI0
aF0.0
aI0
aI0
aF0.0
aI2
aI0
aI2
aI0
aI0
aI0
aI0
aI1
aI0
aI-8
aa(lp309
V0021300316
p310
aVDEC 10, 2013
p311
aVCHI vs. MIL
p312
aVL
p313
aI12
aI0
aI2
aF0.0
aI0
aI0
aF0.0
aI1
aI2
aF0.5
aI1
aI3
aI4
aI1
aI0
aI1
aI1
aI2
aI1
aI-4
aa(lp314
V0021300292
p315
aVDEC 07, 2013
p316
aVCHI vs. DET
p317
aVL
p318
aI6
aI1
aI2
aF0.5
aI0
aI0
aF0.0
aI0
aI0
aF0.0
aI1
aI1
aI2
aI0
aI1
aI0
aI1
aI1
aI2
aI2
aa(lp319
V0021300279
p320
aVDEC 05, 2013
p321
aVCHI vs. MIA
p322
aVW
p323
aI5
aI0
aI2
aF0.0
aI0
aI0
aF0.0
aI0
aI0
aF0.0
aI0
aI1
aI1
aI1
aI0
aI0
aI0
aI1
aI0
aI-1
aa(lp324
V0021300257
p325
aVDEC 02, 2013
p326
aVCHI vs. NOP
p327
aVL
p328
aI5
aI0
aI1
aF0.0
aI0
aI0
aF0.0
aI0
aI0
aF0.0
aI2
aI0
aI2
aI0
aI0
aI0
aI1
aI0
aI0
aI2
aa(lp329
V0021300242
p330
aVNOV 30, 2013
p331
aVCHI @ CLE
p332
aVL
p333
aI5
aI0
aI0
aF0.0
aI0
aI0
aF0.0
aI0
aI0
aF0.0
aI1
aI0
aI1
aI1
aI0
aI0
aI0
aI0
aI0
aI3
aa(lp334
V0021300220
p335
aVNOV 27, 2013
p336
aVCHI @ DET
p337
aVW
p338
aI7
aI1
aI1
aF1.0
aI0
aI0
aF0.0
aI0
aI0
aF0.0
aI1
aI0
aI1
aI0
aI1
aI0
aI0
aI0
aI2
aI7
aa(lp339
V0021300209
p340
aVNOV 25, 2013
p341
aVCHI @ UTA
p342
aVL
p343
aI4
aI0
aI0
aF0.0
aI0
aI0
aF0.0
aI0
aI0
aF0.0
aI0
aI0
aI0
aI0
aI0
aI0
aI0
aI0
aI0
aI-3
aa(lp344
V0021300198
p345
aVNOV 24, 2013
p346
aVCHI @ LAC
p347
aVL
p348
aI21
aI2
aI6
aF0.333
aI0
aI0
aF0.0
aI0
aI0
aF0.0
aI5
aI6
aI11
aI0
aI0
aI1
aI2
aI2
aI4
aI-17
aa(lp349
V0021300185
p350
aVNOV 22, 2013
p351
aVCHI @ POR
p352
aVL
p353
aI18
aI0
aI1
aF0.0
aI0
aI0
aF0.0
aI1
aI2
aF0.5
aI4
aI5
aI9
aI0
aI2
aI0
aI0
aI2
aI1
aI15
aa(lp354
V0021300175
p355
aVNOV 21, 2013
p356
aVCHI @ DEN
p357
aVL
p358
aI8
aI0
aI1
aF0.0
aI0
aI0
aF0.0
aI0
aI0
aF0.0
aI0
aI1
aI1
aI0
aI0
aI0
aI0
aI0
aI0
aI-2
aa(lp359
V0021300151
p360
aVNOV 18, 2013
p361
aVCHI vs. CHA
p362
aVW
p363
aI7
aI0
aI1
aF0.0
aI0
aI0
aF0.0
aI0
aI0
aF0.0
aI1
aI3
aI4
aI0
aI0
aI1
aI0
aI4
aI0
aI1
aa(lp364
V0021300140
p365
aVNOV 16, 2013
p366
aVCHI vs. IND
p367
aVW
p368
aI11
aI1
aI1
aF1.0
aI0
aI0
aF0.0
aI0
aI0
aF0.0
aI0
aI1
aI1
aI1
aI0
aI1
aI0
aI1
aI2
aI2
aa(lp369
V0021300126
p370
aVNOV 15, 2013
p371
aVCHI @ TOR
p372
aVW
p373
aI7
aI1
aI2
aF0.5
aI0
aI0
aF0.0
aI0
aI0
aF0.0
aI1
aI0
aI1
aI0
aI1
aI1
aI0
aI0
aI2
aI5
aa(lp374
V0021300102
p375
aVNOV 11, 2013
p376
aVCHI vs. CLE
p377
aVW
p378
aI8
aI0
aI2
aF0.0
aI0
aI0
aF0.0
aI0
aI0
aF0.0
aI3
aI0
aI3
aI0
aI0
aI1
aI1
aI1
aI0
aI2
aa(lp379
V0021300079
p380
aVNOV 08, 2013
p381
aVCHI vs. UTA
p382
aVW
p383
aI14
aI3
aI6
aF0.5
aI0
aI0
aF0.0
aI0
aI1
aF0.0
aI2
aI1
aI3
aI1
aI0
aI1
aI1
aI4
aI6
aI2
aa(lp384
V0021300061
p385
aVNOV 06, 2013
p386
aVCHI @ IND
p387
aVL
p388
aI13
aI1
aI2
aF0.5
aI0
aI0
aF0.0
aI0
aI0
aF0.0
aI0
aI2
aI2
aI0
aI1
aI0
aI1
aI1
aI2
aI8
aa(lp389
V0021300034
p390
aVNOV 02, 2013
p391
aVCHI @ PHI
p392
aVL
p393
aI8
aI1
aI1
aF1.0
aI0
aI0
aF0.0
aI0
aI0
aF0.0
aI1
aI2
aI3
aI1
aI0
aI1
aI1
aI0
aI2
aI2
aa(lp394
V0021300018
p395
aVOCT 31, 2013
p396
aVCHI vs. NYK
p397
aVW
p398
aI4
aI0
aI0
aF0.0
aI0
aI0
aF0.0
aI0
aI0
aF0.0
aI0
aI0
aI0
aI0
aI0
aI0
aI2
aI0
aI0
aI0
aa(lp399
V0021300002
p400
aVOCT 29, 2013
p401
aVCHI @ MIA
p402
aVL
p403
aI5
aI0
aI0
aF0.0
aI0
aI0
aF0.0
aI0
aI0
aF0.0
aI1
aI1
aI2
aI1
aI0
aI0
aI0
aI1
aI0
aI-9
aasS'name'
p404
VNazr Mohammed
p405
sS'experience'
p406
I15
s.