(dp0
S'stats'
p1
(lp2
(lp3
V0021300006
p4
aVOCT 30, 2013
p5
aVTOR vs. BOS
p6
aVW
p7
aI35
aI2
aI8
aF0.25
aI0
aI3
aF0.0
aI7
aI12
aF0.583
aI2
aI1
aI3
aI8
aI2
aI0
aI2
aI2
aI11
aI2
aa(lp8
V0021300023
p9
aVNOV 01, 2013
p10
aVTOR @ ATL
p11
aVL
p12
aI34
aI5
aI7
aF0.714
aI3
aI5
aF0.6
aI3
aI6
aF0.5
aI0
aI3
aI3
aI4
aI0
aI0
aI4
aI2
aI16
aI-19
aa(lp13
V0021300037
p14
aVNOV 02, 2013
p15
aVTOR @ MIL
p16
aVW
p17
aI34
aI5
aI14
aF0.357
aI2
aI4
aF0.5
aI2
aI4
aF0.5
aI1
aI5
aI6
aI4
aI0
aI0
aI0
aI3
aI14
aI11
aa(lp18
V0021300051
p19
aVNOV 05, 2013
p20
aVTOR vs. MIA
p21
aVL
p22
aI35
aI4
aI11
aF0.364
aI2
aI8
aF0.25
aI3
aI3
aF1.0
aI2
aI1
aI3
aI5
aI1
aI0
aI1
aI4
aI13
aI0
aa(lp23
V0021300060
p24
aVNOV 06, 2013
p25
aVTOR @ CHA
p26
aVL
p27
aI33
aI3
aI7
aF0.429
aI2
aI3
aF0.667
aI0
aI0
aF0.0
aI1
aI2
aI3
aI6
aI1
aI1
aI2
aI5
aI8
aI-9
aa(lp28
V0021300074
p29
aVNOV 08, 2013
p30
aVTOR @ IND
p31
aVL
p32
aI37
aI4
aI10
aF0.4
aI2
aI6
aF0.333
aI2
aI2
aF1.0
aI2
aI5
aI7
aI8
aI1
aI0
aI2
aI4
aI12
aI7
aa(lp33
V0021300085
p34
aVNOV 09, 2013
p35
aVTOR vs. UTA
p36
aVW
p37
aI15
aI3
aI5
aF0.6
aI3
aI4
aF0.75
aI0
aI0
aF0.0
aI1
aI1
aI2
aI4
aI2
aI0
aI1
aI0
aI9
aI13
aa(lp38
V0021300103
p39
aVNOV 11, 2013
p40
aVTOR @ HOU
p41
aVL
p42
aI48
aI6
aI16
aF0.375
aI4
aI10
aF0.4
aI0
aI0
aF0.0
aI1
aI1
aI2
aI2
aI1
aI0
aI2
aI6
aI16
aI1
aa(lp43
V0021300114
p44
aVNOV 13, 2013
p45
aVTOR @ MEM
p46
aVW
p47
aI35
aI6
aI10
aF0.6
aI3
aI5
aF0.6
aI6
aI8
aF0.75
aI0
aI3
aI3
aI6
aI2
aI0
aI2
aI2
aI21
aI7
aa(lp48
V0021300126
p49
aVNOV 15, 2013
p50
aVTOR vs. CHI
p51
aVL
p52
aI38
aI3
aI15
aF0.2
aI0
aI7
aF0.0
aI0
aI0
aF0.0
aI1
aI2
aI3
aI8
aI3
aI0
aI1
aI3
aI6
aI-10
aa(lp53
V0021300147
p54
aVNOV 17, 2013
p55
aVTOR vs. POR
p56
aVL
p57
aI45
aI3
aI11
aF0.273
aI1
aI7
aF0.143
aI3
aI4
aF0.75
aI0
aI7
aI7
aI10
aI4
aI0
aI0
aI3
aI10
aI-1
aa(lp58
V0021300165
p59
aVNOV 20, 2013
p60
aVTOR @ PHI
p61
aVW
p62
aI38
aI4
aI12
aF0.333
aI3
aI5
aF0.6
aI2
aI2
aF1.0
aI0
aI3
aI3
aI10
aI3
aI1
aI2
aI4
aI13
aI15
aa(lp63
V0021300178
p64
aVNOV 22, 2013
p65
aVTOR vs. WAS
p66
aVW
p67
aI36
aI4
aI9
aF0.444
aI2
aI5
aF0.4
aI2
aI2
aF1.0
aI2
aI4
aI6
aI9
aI3
aI1
aI3
aI4
aI12
aI-2
aa(lp68
V0021300211
p69
aVNOV 26, 2013
p70
aVTOR vs. BKN
p71
aVL
p72
aI38
aI8
aI15
aF0.533
aI2
aI5
aF0.4
aI6
aI6
aF1.0
aI0
aI0
aI0
aI6
aI2
aI0
aI2
aI5
aI24
aI6
aa(lp73
V0021300230
p74
aVNOV 29, 2013
p75
aVTOR vs. MIA
p76
aVL
p77
aI43
aI4
aI10
aF0.4
aI3
aI8
aF0.375
aI4
aI4
aF1.0
aI1
aI3
aI4
aI6
aI2
aI0
aI7
aI5
aI15
aI-2
aa(lp78
V0021300248
p79
aVDEC 01, 2013
p80
aVTOR vs. DEN
p81
aVL
p82
aI39
aI5
aI15
aF0.333
aI3
aI9
aF0.333
aI4
aI4
aF1.0
aI0
aI3
aI3
aI7
aI2
aI0
aI5
aI3
aI17
aI-13
aa(lp83
V0021300268
p84
aVDEC 03, 2013
p85
aVTOR @ GSW
p86
aVL
p87
aI38
aI7
aI13
aF0.538
aI2
aI7
aF0.286
aI4
aI4
aF1.0
aI0
aI4
aI4
aI9
aI2
aI0
aI3
aI5
aI20
aI3
aa(lp88
V0021300287
p89
aVDEC 06, 2013
p90
aVTOR @ PHX
p91
aVL
p92
aI39
aI7
aI16
aF0.438
aI2
aI6
aF0.333
aI5
aI6
aF0.833
aI1
aI0
aI1
aI7
aI0
aI0
aI2
aI4
aI21
aI-11
aa(lp93
V0021300303
p94
aVDEC 08, 2013
p95
aVTOR @ LAL
p96
aVW
p97
aI37
aI8
aI13
aF0.615
aI1
aI5
aF0.2
aI6
aI6
aF1.0
aI1
aI4
aI5
aI8
aI3
aI0
aI3
aI2
aI23
aI19
aa(lp98
V0021300312
p99
aVDEC 10, 2013
p100
aVTOR vs. SAS
p101
aVL
p102
aI32
aI4
aI10
aF0.4
aI3
aI7
aF0.429
aI0
aI0
aF0.0
aI1
aI6
aI7
aI7
aI1
aI0
aI4
aI3
aI11
aI-4
aa(lp103
V0021300331
p104
aVDEC 13, 2013
p105
aVTOR vs. PHI
p106
aVW
p107
aI34
aI2
aI9
aF0.222
aI0
aI5
aF0.0
aI2
aI2
aF1.0
aI1
aI2
aI3
aI11
aI1
aI0
aI1
aI3
aI6
aI21
aa(lp108
V0021300346
p109
aVDEC 14, 2013
p110
aVTOR @ CHI
p111
aVW
p112
aI33
aI7
aI14
aF0.5
aI2
aI5
aF0.4
aI0
aI0
aF0.0
aI0
aI3
aI3
aI6
aI2
aI0
aI1
aI3
aI16
aI18
aa(lp113
V0021300371
p114
aVDEC 18, 2013
p115
aVTOR vs. CHA
p116
aVL
p117
aI41
aI6
aI14
aF0.429
aI3
aI7
aF0.429
aI2
aI2
aF1.0
aI2
aI2
aI4
aI6
aI2
aI1
aI5
aI5
aI17
aI-11
aa(lp118
V0021300389
p119
aVDEC 20, 2013
p120
aVTOR @ DAL
p121
aVW
p122
aI41
aI7
aI16
aF0.438
aI3
aI7
aF0.429
aI3
aI3
aF1.0
aI2
aI3
aI5
aI6
aI1
aI0
aI3
aI2
aI20
aI-7
aa(lp123
V0021300405
p124
aVDEC 22, 2013
p125
aVTOR @ OKC
p126
aVW
p127
aI37
aI6
aI16
aF0.375
aI3
aI6
aF0.5
aI7
aI7
aF1.0
aI2
aI5
aI7
aI9
aI4
aI0
aI2
aI3
aI22
aI4
aa(lp128
V0021300414
p129
aVDEC 23, 2013
p130
aVTOR @ SAS
p131
aVL
p132
aI39
aI6
aI15
aF0.4
aI2
aI5
aF0.4
aI9
aI9
aF1.0
aI1
aI3
aI4
aI9
aI1
aI0
aI1
aI2
aI23
aI-3
aa(lp133
V0021300430
p134
aVDEC 27, 2013
p135
aVTOR @ NYK
p136
aVW
p137
aI38
aI4
aI10
aF0.4
aI2
aI5
aF0.4
aI5
aI8
aF0.625
aI0
aI4
aI4
aI11
aI1
aI0
aI3
aI2
aI15
aI6
aa(lp138
V0021300438
p139
aVDEC 28, 2013
p140
aVTOR vs. NYK
p141
aVW
p142
aI38
aI10
aI17
aF0.588
aI4
aI7
aF0.571
aI8
aI10
aF0.8
aI1
aI7
aI8
aI11
aI1
aI0
aI1
aI3
aI32
aI17
aa(lp143
V0021300463
p144
aVDEC 31, 2013
p145
aVTOR @ CHI
p146
aVW
p147
aI32
aI4
aI10
aF0.4
aI3
aI8
aF0.375
aI2
aI4
aF0.5
aI1
aI3
aI4
aI6
aI2
aI0
aI1
aI2
aI13
aI-10
aa(lp148
V0021300469
p149
aVJAN 01, 2014
p150
aVTOR vs. IND
p151
aVW
p152
aI34
aI4
aI9
aF0.444
aI1
aI4
aF0.25
aI4
aI4
aF1.0
aI0
aI4
aI4
aI14
aI2
aI1
aI1
aI3
aI13
aI19
aa(lp153
V0021300482
p154
aVJAN 03, 2014
p155
aVTOR @ WAS
p156
aVW
p157
aI35
aI7
aI13
aF0.538
aI4
aI4
aF1.0
aI1
aI2
aF0.5
aI1
aI4
aI5
aI11
aI3
aI0
aI2
aI2
aI19
aI19
aa(lp158
V0021300500
p159
aVJAN 05, 2014
p160
aVTOR @ MIA
p161
aVL
p162
aI37
aI5
aI14
aF0.357
aI2
aI8
aF0.25
aI2
aI4
aF0.5
aI0
aI4
aI4
aI9
aI3
aI0
aI1
aI4
aI14
aI4
aa(lp163
V0021300510
p164
aVJAN 07, 2014
p165
aVTOR @ IND
p166
aVL
p167
aI34
aI7
aI13
aF0.538
aI2
aI5
aF0.4
aI0
aI3
aF0.0
aI0
aI3
aI3
aI2
aI0
aI0
aI4
aI4
aI16
aI-13
aa(lp168
V0021300521
p169
aVJAN 08, 2014
p170
aVTOR vs. DET
p171
aVW
p172
aI34
aI4
aI9
aF0.444
aI4
aI6
aF0.667
aI9
aI9
aF1.0
aI1
aI4
aI5
aI9
aI1
aI0
aI1
aI4
aI21
aI17
aa(lp173
V0021300543
p174
aVJAN 11, 2014
p175
aVTOR vs. BKN
p176
aVW
p177
aI35
aI4
aI11
aF0.364
aI3
aI7
aF0.429
aI1
aI2
aF0.5
aI1
aI5
aI6
aI4
aI0
aI1
aI2
aI3
aI12
aI10
aa(lp178
V0021300555
p179
aVJAN 13, 2014
p180
aVTOR vs. MIL
p181
aVW
p182
aI30
aI6
aI8
aF0.75
aI4
aI5
aF0.8
aI7
aI7
aF1.0
aI1
aI1
aI2
aI5
aI4
aI1
aI0
aI3
aI23
aI15
aa(lp183
V0021300569
p184
aVJAN 15, 2014
p185
aVTOR @ BOS
p186
aVL
p187
aI42
aI6
aI17
aF0.353
aI3
aI8
aF0.375
aI3
aI4
aF0.75
aI2
aI5
aI7
aI12
aI0
aI1
aI3
aI4
aI18
aI-2
aa(lp188
V0021300584
p189
aVJAN 17, 2014
p190
aVTOR vs. MIN
p191
aVW
p192
aI34
aI7
aI12
aF0.583
aI6
aI9
aF0.667
aI4
aI5
aF0.8
aI0
aI5
aI5
aI6
aI1
aI0
aI2
aI3
aI24
aI5
aa(lp193
V0021300601
p194
aVJAN 19, 2014
p195
aVTOR vs. LAL
p196
aVL
p197
aI35
aI8
aI13
aF0.615
aI3
aI7
aF0.429
aI2
aI2
aF1.0
aI0
aI2
aI2
aI9
aI0
aI1
aI3
aI2
aI21
aI-15
aa(lp198
V0021300608
p199
aVJAN 20, 2014
p200
aVTOR @ CHA
p201
aVL
p202
aI38
aI9
aI22
aF0.409
aI3
aI9
aF0.333
aI0
aI1
aF0.0
aI0
aI4
aI4
aI4
aI0
aI0
aI2
aI5
aI21
aI-15
aa(lp203
V0021300624
p204
aVJAN 22, 2014
p205
aVTOR vs. DAL
p206
aVW
p207
aI35
aI0
aI10
aF0.0
aI0
aI6
aF0.0
aI3
aI4
aF0.75
aI0
aI4
aI4
aI5
aI2
aI0
aI1
aI4
aI3
aI-5
aa(lp208
V0021300634
p209
aVJAN 24, 2014
p210
aVTOR @ PHI
p211
aVW
p212
aI36
aI7
aI11
aF0.636
aI3
aI5
aF0.6
aI1
aI3
aF0.333
aI4
aI6
aI10
aI13
aI0
aI0
aI2
aI3
aI18
aI-1
aa(lp213
V0021300647
p214
aVJAN 25, 2014
p215
aVTOR vs. LAC
p216
aVL
p217
aI39
aI2
aI10
aF0.2
aI1
aI6
aF0.167
aI6
aI9
aF0.667
aI3
aI1
aI4
aI12
aI1
aI1
aI3
aI3
aI11
aI0
aa(lp218
V0021300663
p219
aVJAN 27, 2014
p220
aVTOR @ BKN
p221
aVW
p222
aI35
aI10
aI18
aF0.556
aI4
aI7
aF0.571
aI7
aI8
aF0.875
aI0
aI5
aI5
aI7
aI5
aI0
aI4
aI5
aI31
aI1
aa(lp223
V0021300676
p224
aVJAN 29, 2014
p225
aVTOR vs. ORL
p226
aVW
p227
aI37
aI11
aI20
aF0.55
aI6
aI11
aF0.545
aI5
aI7
aF0.714
aI3
aI4
aI7
aI11
aI0
aI0
aI4
aI3
aI33
aI19
aa(lp228
V0021300694
p229
aVJAN 31, 2014
p230
aVTOR @ DEN
p231
aVW
p232
aI31
aI5
aI15
aF0.333
aI3
aI11
aF0.273
aI0
aI0
aF0.0
aI0
aI3
aI3
aI6
aI2
aI0
aI3
aI1
aI13
aI15
aa(lp233
V0021300707
p234
aVFEB 01, 2014
p235
aVTOR @ POR
p236
aVL
p237
aI44
aI7
aI15
aF0.467
aI3
aI7
aF0.429
aI6
aI7
aF0.857
aI0
aI5
aI5
aI8
aI2
aI0
aI2
aI5
aI23
aI-2
aa(lp238
V0021300719
p239
aVFEB 03, 2014
p240
aVTOR @ UTA
p241
aVW
p242
aI25
aI1
aI8
aF0.125
aI0
aI5
aF0.0
aI0
aI0
aF0.0
aI0
aI4
aI4
aI3
aI1
aI0
aI1
aI0
aI2
aI-4
aa(lp243
V0021300735
p244
aVFEB 05, 2014
p245
aVTOR @ SAC
p246
aVL
p247
aI41
aI7
aI16
aF0.438
aI2
aI6
aF0.333
aI5
aI6
aF0.833
aI2
aI5
aI7
aI8
aI1
aI2
aI3
aI6
aI21
aI3
aa(lp248
V0021300748
p249
aVFEB 07, 2014
p250
aVTOR @ LAC
p251
aVL
p252
aI41
aI6
aI18
aF0.333
aI2
aI7
aF0.286
aI5
aI6
aF0.833
aI3
aI3
aI6
aI3
aI0
aI0
aI3
aI5
aI19
aI-10
aa(lp253
V0021300765
p254
aVFEB 10, 2014
p255
aVTOR vs. NOP
p256
aVW
p257
aI39
aI8
aI13
aF0.615
aI1
aI4
aF0.25
aI2
aI2
aF1.0
aI5
aI2
aI7
aI12
aI2
aI0
aI2
aI2
aI19
aI19
aa(lp258
V0021300779
p259
aVFEB 12, 2014
p260
aVTOR vs. ATL
p261
aVW
p262
aI32
aI5
aI14
aF0.357
aI1
aI4
aF0.25
aI5
aI6
aF0.833
aI2
aI4
aI6
aI13
aI2
aI0
aI3
aI2
aI16
aI14
aa(lp263
V0021300794
p264
aVFEB 18, 2014
p265
aVTOR @ WAS
p266
aVW
p267
aI35
aI8
aI19
aF0.421
aI2
aI5
aF0.4
aI6
aI6
aF1.0
aI1
aI1
aI2
aI11
aI2
aI0
aI3
aI4
aI24
aI3
aa(lp268
V0021300803
p269
aVFEB 19, 2014
p270
aVTOR vs. CHI
p271
aVL
p272
aI34
aI4
aI13
aF0.308
aI1
aI4
aF0.25
aI7
aI7
aF1.0
aI1
aI4
aI5
aI7
aI1
aI0
aI2
aI6
aI16
aI8
aa(lp273
V0021300818
p274
aVFEB 21, 2014
p275
aVTOR vs. CLE
p276
aVW
p277
aI35
aI5
aI13
aF0.385
aI1
aI4
aF0.25
aI3
aI4
aF0.75
aI2
aI4
aI6
aI9
aI3
aI0
aI2
aI4
aI14
aI2
aa(lp278
V0021300836
p279
aVFEB 23, 2014
p280
aVTOR vs. ORL
p281
aVW
p282
aI37
aI7
aI13
aF0.538
aI4
aI5
aF0.8
aI10
aI11
aF0.909
aI0
aI4
aI4
aI6
aI0
aI0
aI7
aI3
aI28
aI25
aa(lp283
V0021300846
p284
aVFEB 25, 2014
p285
aVTOR @ CLE
p286
aVW
p287
aI35
aI3
aI15
aF0.2
aI0
aI9
aF0.0
aI7
aI7
aF1.0
aI0
aI5
aI5
aI9
aI1
aI0
aI0
aI4
aI13
aI1
aa(lp288
V0021300864
p289
aVFEB 27, 2014
p290
aVTOR vs. WAS
p291
aVL
p292
aI54
aI6
aI18
aF0.333
aI1
aI5
aF0.2
aI5
aI7
aF0.714
aI3
aI6
aI9
aI10
aI3
aI1
aI2
aI6
aI18
aI-2
aa(lp293
V0021300884
p294
aVMAR 02, 2014
p295
aVTOR vs. GSW
p296
aVW
p297
aI31
aI3
aI13
aF0.231
aI3
aI6
aF0.5
aI4
aI4
aF1.0
aI2
aI1
aI3
aI8
aI2
aI0
aI2
aI4
aI13
aI7
aa(lp298
V0021300919
p299
aVMAR 07, 2014
p300
aVTOR vs. SAC
p301
aVW
p302
aI39
aI2
aI11
aF0.182
aI1
aI5
aF0.2
aI7
aI8
aF0.875
aI0
aI3
aI3
aI7
aI1
aI0
aI4
aI3
aI12
aI13
aa(lp303
V0021300940
p304
aVMAR 09, 2014
p305
aVTOR @ MIN
p306
aVW
p307
aI36
aI5
aI13
aF0.385
aI1
aI3
aF0.333
aI9
aI10
aF0.9
aI4
aI8
aI12
aI11
aI2
aI0
aI4
aI3
aI20
aI4
aa(lp308
V0021300944
p309
aVMAR 10, 2014
p310
aVTOR @ BKN
p311
aVL
p312
aI38
aI8
aI16
aF0.5
aI4
aI8
aF0.5
aI1
aI1
aF1.0
aI2
aI6
aI8
aI7
aI2
aI0
aI4
aI5
aI21
aI-5
aa(lp313
V0021300960
p314
aVMAR 12, 2014
p315
aVTOR vs. DET
p316
aVW
p317
aI34
aI6
aI13
aF0.462
aI3
aI6
aF0.5
aI4
aI6
aF0.667
aI1
aI3
aI4
aI6
aI0
aI0
aI4
aI2
aI19
aI5
aa(lp318
V0021300974
p319
aVMAR 14, 2014
p320
aVTOR vs. MEM
p321
aVW
p322
aI39
aI6
aI14
aF0.429
aI4
aI7
aF0.571
aI6
aI7
aF0.857
aI1
aI6
aI7
aI12
aI1
aI1
aI0
aI3
aI22
aI18
aa(lp323
V0021300988
p324
aVMAR 16, 2014
p325
aVTOR vs. PHX
p326
aVL
p327
aI40
aI9
aI19
aF0.474
aI2
aI8
aF0.25
aI8
aI9
aF0.889
aI1
aI4
aI5
aI13
aI2
aI1
aI3
aI5
aI28
aI5
aa(lp328
V0021301004
p329
aVMAR 18, 2014
p330
aVTOR @ ATL
p331
aVL
p332
aI41
aI8
aI16
aF0.5
aI0
aI4
aF0.0
aI4
aI4
aF1.0
aI0
aI7
aI7
aI9
aI1
aI0
aI2
aI5
aI20
aI4
aa(lp333
V0021301012
p334
aVMAR 19, 2014
p335
aVTOR @ NOP
p336
aVW
p337
aI37
aI6
aI18
aF0.333
aI3
aI7
aF0.429
aI8
aI10
aF0.8
aI3
aI5
aI8
aI5
aI2
aI0
aI6
aI1
aI23
aI10
aa(lp338
V0021301024
p339
aVMAR 21, 2014
p340
aVTOR vs. OKC
p341
aVL
p342
aI46
aI6
aI16
aF0.375
aI5
aI11
aF0.455
aI8
aI9
aF0.889
aI1
aI5
aI6
aI4
aI3
aI0
aI2
aI4
aI25
aI1
aa(lp343
V0021301040
p344
aVMAR 23, 2014
p345
aVTOR vs. ATL
p346
aVW
p347
aI27
aI9
aI17
aF0.529
aI3
aI7
aF0.429
aI4
aI7
aF0.571
aI1
aI1
aI2
aI4
aI4
aI0
aI1
aI2
aI25
aI11
aa(lp348
V0021301057
p349
aVMAR 25, 2014
p350
aVTOR @ CLE
p351
aVL
p352
aI34
aI8
aI18
aF0.444
aI3
aI7
aF0.429
aI3
aI7
aF0.429
aI1
aI4
aI5
aI10
aI3
aI0
aI2
aI4
aI22
aI0
aa(lp353
V0021301063
p354
aVMAR 26, 2014
p355
aVTOR @ BOS
p356
aVW
p357
aI34
aI8
aI17
aF0.471
aI4
aI8
aF0.5
aI3
aI3
aF1.0
aI1
aI8
aI9
aI4
aI0
aI0
aI2
aI3
aI23
aI11
aa(lp358
V0021301076
p359
aVMAR 28, 2014
p360
aVTOR vs. BOS
p361
aVW
p362
aI34
aI4
aI13
aF0.308
aI0
aI6
aF0.0
aI1
aI2
aF0.5
aI2
aI4
aI6
aI5
aI0
aI0
aI3
aI2
aI9
aI5
aa(lp363
V0021301096
p364
aVMAR 30, 2014
p365
aVTOR @ ORL
p366
aVW
p367
aI36
aI6
aI18
aF0.333
aI2
aI7
aF0.286
aI2
aI2
aF1.0
aI0
aI3
aI3
aI4
aI2
aI0
aI6
aI3
aI16
aI0
aa(lp368
V0021301105
p369
aVMAR 31, 2014
p370
aVTOR @ MIA
p371
aVL
p372
aI26
aI4
aI11
aF0.364
aI1
aI5
aF0.2
aI2
aI3
aF0.667
aI1
aI0
aI1
aI4
aI0
aI0
aI5
aI2
aI11
aI-19
aa(lp373
V0021301164
p374
aVAPR 09, 2014
p375
aVTOR vs. PHI
p376
aVW
p377
aI38
aI9
aI19
aF0.474
aI2
aI7
aF0.286
aI9
aI9
aF1.0
aI0
aI5
aI5
aI8
aI0
aI0
aI0
aI3
aI29
aI12
aa(lp378
V0021301177
p379
aVAPR 11, 2014
p380
aVTOR vs. NYK
p381
aVL
p382
aI39
aI7
aI13
aF0.538
aI4
aI7
aF0.571
aI7
aI9
aF0.778
aI1
aI1
aI2
aI2
aI0
aI0
aI3
aI3
aI25
aI-8
aa(lp383
V0021301198
p384
aVAPR 13, 2014
p385
aVTOR @ DET
p386
aVW
p387
aI34
aI9
aI18
aF0.5
aI4
aI7
aF0.571
aI6
aI8
aF0.75
aI1
aI1
aI2
aI7
aI2
aI0
aI2
aI6
aI28
aI8
aa(lp388
V0021301205
p389
aVAPR 14, 2014
p390
aVTOR vs. MIL
p391
aVW
p392
aI37
aI10
aI24
aF0.417
aI3
aI9
aF0.333
aI1
aI1
aF1.0
aI3
aI2
aI5
aI4
aI1
aI0
aI1
aI3
aI24
aI16
aa(lp393
V0021301226
p394
aVAPR 16, 2014
p395
aVTOR @ NYK
p396
aVL
p397
aI26
aI8
aI15
aF0.533
aI3
aI8
aF0.375
aI3
aI5
aF0.6
aI0
aI3
aI3
aI5
aI1
aI0
aI4
aI4
aI22
aI-10
aasS'name'
p398
VKyle Lowry
p399
sS'weight'
p400
V205
p401
sS'age'
p402
I27
sS'experience'
p403
I7
sS'height'
p404
V6-0
p405
sS'position'
p406
VGuard
p407
s.