(dp0
S'stats'
p1
(lp2
(lp3
V0021300014
p4
aVOCT 30, 2013
p5
aVOKC @ UTA
p6
aVW
p7
aI31
aI6
aI11
aF0.545
aI2
aI5
aF0.4
aI0
aI0
aF0.0
aI0
aI4
aI4
aI1
aI2
aI0
aI1
aI2
aI14
aI9
aa(lp8
V0021300027
p9
aVNOV 01, 2013
p10
aVOKC @ MIN
p11
aVL
p12
aI23
aI1
aI8
aF0.125
aI0
aI2
aF0.0
aI2
aI2
aF1.0
aI3
aI1
aI4
aI1
aI2
aI0
aI0
aI3
aI4
aI-19
aa(lp13
V0021300044
p14
aVNOV 03, 2013
p15
aVOKC vs. PHX
p16
aVW
p17
aI24
aI1
aI5
aF0.2
aI0
aI3
aF0.0
aI0
aI0
aF0.0
aI0
aI1
aI1
aI1
aI0
aI0
aI0
aI2
aI2
aI-6
aa(lp18
V0021300069
p19
aVNOV 06, 2013
p20
aVOKC vs. DAL
p21
aVW
p22
aI24
aI2
aI5
aF0.4
aI0
aI3
aF0.0
aI1
aI2
aF0.5
aI0
aI2
aI2
aI4
aI2
aI0
aI1
aI0
aI5
aI1
aa(lp23
V0021300078
p24
aVNOV 08, 2013
p25
aVOKC @ DET
p26
aVW
p27
aI29
aI3
aI9
aF0.333
aI1
aI6
aF0.167
aI2
aI2
aF1.0
aI3
aI4
aI7
aI2
aI0
aI0
aI4
aI1
aI9
aI-8
aa(lp28
V0021300095
p29
aVNOV 10, 2013
p30
aVOKC vs. WAS
p31
aVW
p32
aI36
aI4
aI8
aF0.5
aI0
aI0
aF0.0
aI0
aI0
aF0.0
aI2
aI6
aI8
aI3
aI2
aI1
aI1
aI2
aI8
aI4
aa(lp33
V0021300122
p34
aVNOV 13, 2013
p35
aVOKC @ LAC
p36
aVL
p37
aI35
aI2
aI5
aF0.4
aI0
aI2
aF0.0
aI3
aI3
aF1.0
aI0
aI3
aI3
aI1
aI6
aI1
aI4
aI5
aI7
aI-4
aa(lp38
V0021300124
p39
aVNOV 14, 2013
p40
aVOKC @ GSW
p41
aVL
p42
aI34
aI3
aI8
aF0.375
aI2
aI3
aF0.667
aI1
aI1
aF1.0
aI2
aI7
aI9
aI1
aI0
aI0
aI0
aI0
aI9
aI1
aa(lp43
V0021300152
p44
aVNOV 18, 2013
p45
aVOKC vs. DEN
p46
aVW
p47
aI22
aI3
aI6
aF0.5
aI2
aI3
aF0.667
aI0
aI0
aF0.0
aI2
aI1
aI3
aI1
aI1
aI1
aI0
aI2
aI8
aI-10
aa(lp48
V0021300174
p49
aVNOV 21, 2013
p50
aVOKC vs. LAC
p51
aVW
p52
aI22
aI2
aI6
aF0.333
aI1
aI3
aF0.333
aI2
aI2
aF1.0
aI1
aI4
aI5
aI1
aI0
aI0
aI1
aI1
aI7
aI3
aa(lp53
V0021300200
p54
aVNOV 24, 2013
p55
aVOKC vs. UTA
p56
aVW
p57
aI27
aI3
aI6
aF0.5
aI1
aI3
aF0.333
aI2
aI2
aF1.0
aI0
aI3
aI3
aI3
aI2
aI0
aI1
aI0
aI9
aI20
aa(lp58
V0021300224
p59
aVNOV 27, 2013
p60
aVOKC vs. SAS
p61
aVW
p62
aI28
aI3
aI4
aF0.75
aI0
aI0
aF0.0
aI0
aI0
aF0.0
aI2
aI5
aI7
aI3
aI0
aI0
aI1
aI1
aI6
aI7
aa(lp63
V0021300235
p64
aVNOV 29, 2013
p65
aVOKC vs. GSW
p66
aVW
p67
aI33
aI2
aI5
aF0.4
aI1
aI2
aF0.5
aI2
aI2
aF1.0
aI2
aI4
aI6
aI1
aI1
aI0
aI2
aI3
aI7
aI-4
aa(lp68
V0021300253
p69
aVDEC 01, 2013
p70
aVOKC vs. MIN
p71
aVW
p72
aI23
aI1
aI2
aF0.5
aI0
aI0
aF0.0
aI0
aI0
aF0.0
aI0
aI3
aI3
aI1
aI1
aI1
aI3
aI2
aI2
aI-8
aa(lp73
V0021300267
p74
aVDEC 03, 2013
p75
aVOKC @ SAC
p76
aVW
p77
aI18
aI1
aI3
aF0.333
aI1
aI1
aF1.0
aI0
aI0
aF0.0
aI0
aI3
aI3
aI0
aI0
aI0
aI1
aI3
aI3
aI-7
aa(lp78
V0021300276
p79
aVDEC 04, 2013
p80
aVOKC @ POR
p81
aVL
p82
aI20
aI1
aI4
aF0.25
aI0
aI0
aF0.0
aI0
aI0
aF0.0
aI0
aI3
aI3
aI0
aI3
aI0
aI1
aI0
aI2
aI-4
aa(lp83
V0021300286
p84
aVDEC 06, 2013
p85
aVOKC @ NOP
p86
aVW
p87
aI27
aI4
aI5
aF0.8
aI0
aI0
aF0.0
aI1
aI2
aF0.5
aI0
aI3
aI3
aI1
aI0
aI1
aI0
aI1
aI9
aI-1
aa(lp88
V0021300302
p89
aVDEC 08, 2013
p90
aVOKC vs. IND
p91
aVW
p92
aI27
aI2
aI4
aF0.5
aI0
aI0
aF0.0
aI0
aI0
aF0.0
aI0
aI2
aI2
aI1
aI0
aI1
aI0
aI3
aI4
aI19
aa(lp93
V0021300353
p94
aVDEC 15, 2013
p95
aVOKC vs. ORL
p96
aVW
p97
aI23
aI3
aI8
aF0.375
aI0
aI3
aF0.0
aI0
aI0
aF0.0
aI1
aI2
aI3
aI0
aI4
aI0
aI0
aI2
aI6
aI5
aa(lp98
V0021300367
p99
aVDEC 17, 2013
p100
aVOKC @ DEN
p101
aVW
p102
aI23
aI1
aI4
aF0.25
aI0
aI2
aF0.0
aI0
aI0
aF0.0
aI2
aI2
aI4
aI0
aI1
aI1
aI1
aI2
aI2
aI6
aa(lp103
V0021300381
p104
aVDEC 19, 2013
p105
aVOKC vs. CHI
p106
aVW
p107
aI22
aI4
aI11
aF0.364
aI1
aI4
aF0.25
aI1
aI2
aF0.5
aI1
aI4
aI5
aI4
aI2
aI1
aI0
aI0
aI10
aI11
aa(lp108
V0021300399
p109
aVDEC 21, 2013
p110
aVOKC @ SAS
p111
aVW
p112
aI20
aI2
aI4
aF0.5
aI1
aI2
aF0.5
aI0
aI0
aF0.0
aI0
aI4
aI4
aI1
aI0
aI0
aI0
aI2
aI5
aI-7
aa(lp113
V0021300405
p114
aVDEC 22, 2013
p115
aVOKC vs. TOR
p116
aVL
p117
aI18
aI1
aI2
aF0.5
aI1
aI1
aF1.0
aI2
aI2
aF1.0
aI1
aI1
aI2
aI1
aI1
aI0
aI1
aI5
aI5
aI1
aa(lp118
V0021300419
p119
aVDEC 25, 2013
p120
aVOKC @ NYK
p121
aVW
p122
aI22
aI1
aI3
aF0.333
aI1
aI2
aF0.5
aI0
aI0
aF0.0
aI0
aI4
aI4
aI3
aI0
aI0
aI0
aI1
aI3
aI14
aa(lp123
V0021300427
p124
aVDEC 27, 2013
p125
aVOKC @ CHA
p126
aVW
p127
aI24
aI3
aI5
aF0.6
aI3
aI5
aF0.6
aI3
aI4
aF0.75
aI0
aI3
aI3
aI2
aI0
aI0
aI0
aI1
aI12
aI8
aa(lp128
V0021300450
p129
aVDEC 29, 2013
p130
aVOKC vs. HOU
p131
aVW
p132
aI29
aI5
aI10
aF0.5
aI1
aI6
aF0.167
aI2
aI2
aF1.0
aI0
aI2
aI2
aI2
aI0
aI0
aI0
aI1
aI13
aI22
aa(lp133
V0021300466
p134
aVDEC 31, 2013
p135
aVOKC vs. POR
p136
aVL
p137
aI28
aI1
aI2
aF0.5
aI0
aI0
aF0.0
aI2
aI2
aF1.0
aI0
aI5
aI5
aI0
aI1
aI0
aI0
aI1
aI4
aI0
aa(lp138
V0021300476
p139
aVJAN 02, 2014
p140
aVOKC vs. BKN
p141
aVL
p142
aI32
aI2
aI3
aF0.667
aI1
aI2
aF0.5
aI3
aI4
aF0.75
aI1
aI3
aI4
aI1
aI1
aI1
aI4
aI1
aI8
aI-15
aa(lp143
V0021300493
p144
aVJAN 04, 2014
p145
aVOKC @ MIN
p146
aVW
p147
aI21
aI2
aI7
aF0.286
aI1
aI4
aF0.25
aI0
aI0
aF0.0
aI0
aI1
aI1
aI1
aI0
aI1
aI2
aI0
aI5
aI-10
aa(lp148
V0021300502
p149
aVJAN 05, 2014
p150
aVOKC vs. BOS
p151
aVW
p152
aI24
aI1
aI8
aF0.125
aI1
aI5
aF0.2
aI0
aI0
aF0.0
aI1
aI2
aI3
aI0
aI1
aI1
aI1
aI0
aI3
aI23
aa(lp153
V0021300518
p154
aVJAN 07, 2014
p155
aVOKC @ UTA
p156
aVL
p157
aI20
aI2
aI7
aF0.286
aI0
aI2
aF0.0
aI0
aI0
aF0.0
aI1
aI1
aI2
aI1
aI0
aI0
aI0
aI2
aI4
aI-8
aa(lp158
V0021300530
p159
aVJAN 09, 2014
p160
aVOKC @ DEN
p161
aVL
p162
aI23
aI2
aI4
aF0.5
aI0
aI1
aF0.0
aI0
aI0
aF0.0
aI1
aI6
aI7
aI0
aI2
aI0
aI0
aI1
aI4
aI-12
aa(lp163
V0021300548
p164
aVJAN 11, 2014
p165
aVOKC vs. MIL
p166
aVW
p167
aI39
aI6
aI16
aF0.375
aI2
aI6
aF0.333
aI0
aI0
aF0.0
aI3
aI3
aI6
aI4
aI2
aI2
aI1
aI2
aI14
aI10
aa(lp168
V0021300564
p169
aVJAN 14, 2014
p170
aVOKC @ MEM
p171
aVL
p172
aI19
aI0
aI4
aF0.0
aI0
aI2
aF0.0
aI0
aI0
aF0.0
aI0
aI1
aI1
aI1
aI1
aI0
aI2
aI2
aI0
aI-15
aa(lp173
V0021300580
p174
aVJAN 16, 2014
p175
aVOKC @ HOU
p176
aVW
p177
aI25
aI2
aI6
aF0.333
aI0
aI2
aF0.0
aI1
aI1
aF1.0
aI1
aI5
aI6
aI1
aI2
aI0
aI0
aI1
aI5
aI-2
aa(lp178
V0021300592
p179
aVJAN 17, 2014
p180
aVOKC vs. GSW
p181
aVW
p182
aI30
aI1
aI3
aF0.333
aI1
aI2
aF0.5
aI1
aI2
aF0.5
aI1
aI3
aI4
aI0
aI2
aI1
aI3
aI0
aI4
aI6
aa(lp183
V0021300603
p184
aVJAN 19, 2014
p185
aVOKC vs. SAC
p186
aVW
p187
aI29
aI4
aI5
aF0.8
aI2
aI2
aF1.0
aI0
aI0
aF0.0
aI1
aI3
aI4
aI2
aI3
aI0
aI1
aI1
aI10
aI10
aa(lp188
V0021300619
p189
aVJAN 21, 2014
p190
aVOKC vs. POR
p191
aVW
p192
aI31
aI2
aI3
aF0.667
aI1
aI1
aF1.0
aI0
aI0
aF0.0
aI0
aI2
aI2
aI0
aI0
aI1
aI0
aI0
aI5
aI10
aa(lp193
V0021300630
p194
aVJAN 22, 2014
p195
aVOKC @ SAS
p196
aVW
p197
aI24
aI1
aI4
aF0.25
aI0
aI0
aF0.0
aI0
aI3
aF0.0
aI1
aI2
aI3
aI0
aI1
aI1
aI0
aI0
aI2
aI7
aa(lp198
V0021300636
p199
aVJAN 24, 2014
p200
aVOKC @ BOS
p201
aVW
p202
aI27
aI6
aI6
aF1.0
aI1
aI1
aF1.0
aI0
aI0
aF0.0
aI1
aI1
aI2
aI0
aI0
aI0
aI2
aI2
aI13
aI16
aa(lp203
V0021300648
p204
aVJAN 25, 2014
p205
aVOKC @ PHI
p206
aVW
p207
aI31
aI3
aI7
aF0.429
aI2
aI5
aF0.4
aI3
aI4
aF0.75
aI0
aI1
aI1
aI0
aI0
aI0
aI2
aI1
aI11
aI1
aa(lp208
V0021300666
p209
aVJAN 27, 2014
p210
aVOKC vs. ATL
p211
aVW
p212
aI36
aI2
aI6
aF0.333
aI1
aI3
aF0.333
aI0
aI0
aF0.0
aI2
aI2
aI4
aI3
aI3
aI0
aI0
aI1
aI5
aI7
aa(lp213
V0021300675
p214
aVJAN 29, 2014
p215
aVOKC @ MIA
p216
aVW
p217
aI34
aI3
aI7
aF0.429
aI1
aI3
aF0.333
aI2
aI4
aF0.5
aI1
aI4
aI5
aI4
aI6
aI0
aI1
aI1
aI9
aI12
aa(lp218
V0021300692
p219
aVJAN 31, 2014
p220
aVOKC @ BKN
p221
aVW
p222
aI38
aI5
aI9
aF0.556
aI1
aI4
aF0.25
aI3
aI4
aF0.75
aI0
aI3
aI3
aI4
aI3
aI0
aI1
aI3
aI14
aI19
aa(lp223
V0021300698
p224
aVFEB 01, 2014
p225
aVOKC @ WAS
p226
aVL
p227
aI28
aI3
aI5
aF0.6
aI2
aI2
aF1.0
aI0
aI0
aF0.0
aI2
aI6
aI8
aI3
aI1
aI0
aI1
aI0
aI8
aI1
aa(lp228
V0021300716
p229
aVFEB 03, 2014
p230
aVOKC vs. MEM
p231
aVW
p232
aI30
aI2
aI5
aF0.4
aI1
aI3
aF0.333
aI2
aI3
aF0.667
aI0
aI2
aI2
aI2
aI1
aI0
aI1
aI0
aI7
aI14
aa(lp233
V0021300732
p234
aVFEB 05, 2014
p235
aVOKC vs. MIN
p236
aVW
p237
aI32
aI3
aI12
aF0.25
aI1
aI8
aF0.125
aI5
aI6
aF0.833
aI2
aI4
aI6
aI2
aI1
aI1
aI0
aI0
aI12
aI9
aa(lp238
V0021300740
p239
aVFEB 07, 2014
p240
aVOKC @ ORL
p241
aVL
p242
aI29
aI3
aI7
aF0.429
aI2
aI4
aF0.5
aI0
aI0
aF0.0
aI0
aI4
aI4
aI2
aI1
aI0
aI1
aI2
aI8
aI-2
aa(lp243
V0021300756
p244
aVFEB 09, 2014
p245
aVOKC vs. NYK
p246
aVW
p247
aI29
aI4
aI7
aF0.571
aI2
aI3
aF0.667
aI2
aI2
aF1.0
aI2
aI0
aI2
aI2
aI4
aI0
aI1
aI1
aI12
aI10
aa(lp248
V0021300775
p249
aVFEB 11, 2014
p250
aVOKC @ POR
p251
aVW
p252
aI23
aI0
aI2
aF0.0
aI0
aI0
aF0.0
aI2
aI2
aF1.0
aI0
aI2
aI2
aI0
aI0
aI0
aI0
aI0
aI2
aI-3
aa(lp253
V0021300791
p254
aVFEB 13, 2014
p255
aVOKC @ LAL
p256
aVW
p257
aI29
aI3
aI4
aF0.75
aI1
aI2
aF0.5
aI0
aI0
aF0.0
aI1
aI3
aI4
aI3
aI3
aI0
aI1
aI1
aI7
aI-4
aa(lp258
V0021300813
p259
aVFEB 20, 2014
p260
aVOKC vs. MIA
p261
aVL
p262
aI26
aI1
aI3
aF0.333
aI0
aI0
aF0.0
aI0
aI0
aF0.0
aI0
aI3
aI3
aI0
aI1
aI0
aI1
aI3
aI2
aI-24
aa(lp263
V0021300833
p264
aVFEB 23, 2014
p265
aVOKC vs. LAC
p266
aVL
p267
aI23
aI4
aI8
aF0.5
aI2
aI5
aF0.4
aI0
aI0
aF0.0
aI1
aI2
aI3
aI3
aI3
aI0
aI0
aI2
aI10
aI-14
aa(lp268
V0021300858
p269
aVFEB 26, 2014
p270
aVOKC vs. CLE
p271
aVL
p272
aI30
aI3
aI8
aF0.375
aI2
aI6
aF0.333
aI0
aI0
aF0.0
aI0
aI1
aI1
aI2
aI1
aI0
aI2
aI1
aI8
aI-15
aa(lp273
V0021300868
p274
aVFEB 28, 2014
p275
aVOKC vs. MEM
p276
aVW
p277
aI4
aI1
aI1
aF1.0
aI0
aI0
aF0.0
aI0
aI0
aF0.0
aI1
aI1
aI2
aI0
aI1
aI0
aI0
aI1
aI2
aI3
aa(lp278
V0021301160
p279
aVAPR 08, 2014
p280
aVOKC @ SAC
p281
aVW
p282
aI15
aI0
aI2
aF0.0
aI0
aI1
aF0.0
aI2
aI2
aF1.0
aI1
aI2
aI3
aI1
aI0
aI0
aI1
aI1
aI2
aI-4
aa(lp283
V0021301173
p284
aVAPR 09, 2014
p285
aVOKC @ LAC
p286
aVW
p287
aI24
aI1
aI3
aF0.333
aI1
aI2
aF0.5
aI0
aI0
aF0.0
aI0
aI1
aI1
aI2
aI2
aI0
aI0
aI4
aI3
aI13
aa(lp288
V0021301184
p289
aVAPR 11, 2014
p290
aVOKC vs. NOP
p291
aVW
p292
aI21
aI1
aI2
aF0.5
aI0
aI1
aF0.0
aI0
aI0
aF0.0
aI0
aI4
aI4
aI2
aI0
aI0
aI2
aI4
aI2
aI18
aa(lp293
V0021301200
p294
aVAPR 13, 2014
p295
aVOKC @ IND
p296
aVL
p297
aI21
aI0
aI1
aF0.0
aI0
aI1
aF0.0
aI0
aI0
aF0.0
aI0
aI1
aI1
aI4
aI0
aI0
aI0
aI5
aI0
aI2
aa(lp298
V0021301210
p299
aVAPR 14, 2014
p300
aVOKC @ NOP
p301
aVL
p302
aI24
aI0
aI5
aF0.0
aI0
aI4
aF0.0
aI0
aI0
aF0.0
aI2
aI2
aI4
aI2
aI0
aI0
aI1
aI1
aI0
aI-5
aa(lp303
V0021301220
p304
aVAPR 16, 2014
p305
aVOKC vs. DET
p306
aVW
p307
aI26
aI3
aI7
aF0.429
aI0
aI4
aF0.0
aI1
aI2
aF0.5
aI1
aI3
aI4
aI3
aI2
aI0
aI0
aI0
aI7
aI9
aasS'name'
p308
VThabo Sefolosha
p309
sS'weight'
p310
V220
p311
sS'age'
p312
I29
sS'experience'
p313
I7
sS'height'
p314
V6-7
p315
sS'position'
p316
VForward
p317
s.