(dp0
S'stats'
p1
(lp2
(lp3
V0021300009
p4
aVOCT 30, 2013
p5
aVHOU vs. CHA
p6
aVW
p7
aI11
aI0
aI0
aF0.0
aI0
aI0
aF0.0
aI0
aI0
aF0.0
aI0
aI0
aI0
aI1
aI1
aI0
aI2
aI3
aI0
aI10
aa(lp8
V0021300025
p9
aVNOV 01, 2013
p10
aVHOU vs. DAL
p11
aVW
p12
aI23
aI3
aI8
aF0.375
aI2
aI5
aF0.4
aI5
aI5
aF1.0
aI1
aI1
aI2
aI2
aI0
aI0
aI1
aI0
aI13
aI-9
aa(lp13
V0021300038
p14
aVNOV 02, 2013
p15
aVHOU @ UTA
p16
aVW
p17
aI21
aI1
aI4
aF0.25
aI0
aI1
aF0.0
aI0
aI0
aF0.0
aI1
aI1
aI2
aI0
aI0
aI0
aI2
aI1
aI2
aI-8
aa(lp18
V0021300050
p19
aVNOV 04, 2013
p20
aVHOU @ LAC
p21
aVL
p22
aI18
aI3
aI5
aF0.6
aI0
aI0
aF0.0
aI3
aI4
aF0.75
aI0
aI4
aI4
aI0
aI1
aI1
aI0
aI2
aI9
aI8
aa(lp23
V0021300058
p24
aVNOV 05, 2013
p25
aVHOU @ POR
p26
aVW
p27
aI1
aI0
aI1
aF0.0
aI0
aI1
aF0.0
aI0
aI0
aF0.0
aI0
aI0
aI0
aI0
aI0
aI0
aI0
aI0
aI0
aI1
aa(lp28
V0021300103
p29
aVNOV 11, 2013
p30
aVHOU vs. TOR
p31
aVW
p32
aI0
aI0
aI0
aF0.0
aI0
aI0
aF0.0
aI0
aI0
aF0.0
aI0
aI0
aI0
aI0
aI0
aI0
aI0
aI0
aI0
aI1
aa(lp33
V0021300112
p34
aVNOV 13, 2013
p35
aVHOU @ PHI
p36
aVL
p37
aI4
aI0
aI1
aF0.0
aI0
aI1
aF0.0
aI0
aI0
aF0.0
aI0
aI0
aI0
aI0
aI0
aI0
aI0
aI1
aI0
aI-9
aa(lp38
V0021300123
p39
aVNOV 14, 2013
p40
aVHOU @ NYK
p41
aVW
p42
aI0
aI0
aI0
aF0.0
aI0
aI0
aF0.0
aI0
aI0
aF0.0
aI0
aI0
aI0
aI0
aI0
aI0
aI0
aI0
aI0
aI2
aa(lp43
V0021300141
p44
aVNOV 16, 2013
p45
aVHOU vs. DEN
p46
aVW
p47
aI1
aI0
aI0
aF0.0
aI0
aI0
aF0.0
aI0
aI0
aF0.0
aI0
aI0
aI0
aI0
aI0
aI0
aI0
aI0
aI0
aI-3
aa(lp48
V0021300159
p49
aVNOV 19, 2013
p50
aVHOU vs. BOS
p51
aVW
p52
aI9
aI2
aI4
aF0.5
aI0
aI0
aF0.0
aI0
aI0
aF0.0
aI0
aI0
aI0
aI0
aI0
aI0
aI1
aI3
aI4
aI-7
aa(lp53
V0021300192
p54
aVNOV 23, 2013
p55
aVHOU vs. MIN
p56
aVW
p57
aI25
aI10
aI14
aF0.714
aI6
aI7
aF0.857
aI0
aI0
aF0.0
aI1
aI3
aI4
aI5
aI2
aI0
aI4
aI0
aI26
aI9
aa(lp58
V0021300206
p59
aVNOV 25, 2013
p60
aVHOU @ MEM
p61
aVW
p62
aI16
aI1
aI6
aF0.167
aI1
aI4
aF0.25
aI0
aI0
aF0.0
aI2
aI1
aI3
aI1
aI1
aI0
aI1
aI3
aI3
aI1
aa(lp63
V0021300221
p64
aVNOV 27, 2013
p65
aVHOU vs. ATL
p66
aVW
p67
aI27
aI7
aI12
aF0.583
aI4
aI6
aF0.667
aI3
aI3
aF1.0
aI0
aI2
aI2
aI4
aI2
aI0
aI3
aI4
aI21
aI20
aa(lp68
V0021300234
p69
aVNOV 29, 2013
p70
aVHOU vs. BKN
p71
aVW
p72
aI28
aI5
aI8
aF0.625
aI3
aI5
aF0.6
aI1
aI1
aF1.0
aI1
aI0
aI1
aI7
aI3
aI1
aI1
aI3
aI14
aI-1
aa(lp73
V0021300245
p74
aVNOV 30, 2013
p75
aVHOU @ SAS
p76
aVW
p77
aI16
aI1
aI8
aF0.125
aI0
aI3
aF0.0
aI1
aI2
aF0.5
aI0
aI2
aI2
aI4
aI3
aI0
aI4
aI3
aI3
aI0
aa(lp78
V0021300259
p79
aVDEC 02, 2013
p80
aVHOU @ UTA
p81
aVL
p82
aI24
aI5
aI12
aF0.417
aI1
aI3
aF0.333
aI2
aI2
aF1.0
aI0
aI2
aI2
aI2
aI0
aI0
aI1
aI1
aI13
aI-1
aa(lp83
V0021300271
p84
aVDEC 04, 2013
p85
aVHOU vs. PHX
p86
aVL
p87
aI33
aI7
aI18
aF0.389
aI3
aI5
aF0.6
aI0
aI0
aF0.0
aI2
aI2
aI4
aI6
aI3
aI0
aI2
aI3
aI17
aI-1
aa(lp88
V0021300285
p89
aVDEC 06, 2013
p90
aVHOU vs. GSW
p91
aVW
p92
aI17
aI3
aI7
aF0.429
aI2
aI5
aF0.4
aI0
aI0
aF0.0
aI1
aI0
aI1
aI2
aI1
aI0
aI1
aI1
aI8
aI8
aa(lp93
V0021300301
p94
aVDEC 08, 2013
p95
aVHOU vs. ORL
p96
aVW
p97
aI13
aI1
aI4
aF0.25
aI0
aI2
aF0.0
aI0
aI0
aF0.0
aI0
aI1
aI1
aI1
aI0
aI0
aI3
aI1
aI2
aI-10
aa(lp98
V0021300350
p99
aVDEC 15, 2013
p100
aVHOU @ SAC
p101
aVL
p102
aI27
aI4
aI8
aF0.5
aI2
aI4
aF0.5
aI3
aI4
aF0.75
aI0
aI1
aI1
aI2
aI1
aI0
aI3
aI1
aI13
aI-14
aa(lp103
V0021300379
p104
aVDEC 18, 2013
p105
aVHOU vs. CHI
p106
aVW
p107
aI18
aI1
aI6
aF0.167
aI0
aI1
aF0.0
aI0
aI0
aF0.0
aI1
aI2
aI3
aI4
aI1
aI0
aI0
aI3
aI2
aI6
aa(lp108
V0021300388
p109
aVDEC 20, 2013
p110
aVHOU @ IND
p111
aVL
p112
aI18
aI0
aI7
aF0.0
aI0
aI1
aF0.0
aI1
aI2
aF0.5
aI1
aI1
aI2
aI1
aI1
aI0
aI2
aI2
aI1
aI-16
aa(lp113
V0021300396
p114
aVDEC 21, 2013
p115
aVHOU @ DET
p116
aVW
p117
aI34
aI4
aI10
aF0.4
aI1
aI4
aF0.25
aI1
aI1
aF1.0
aI0
aI2
aI2
aI7
aI0
aI0
aI1
aI4
aI10
aI20
aa(lp118
V0021300412
p119
aVDEC 23, 2013
p120
aVHOU vs. DAL
p121
aVL
p122
aI27
aI7
aI13
aF0.538
aI4
aI7
aF0.571
aI0
aI0
aF0.0
aI1
aI2
aI3
aI5
aI0
aI1
aI2
aI4
aI18
aI-7
aa(lp123
V0021300421
p124
aVDEC 25, 2013
p125
aVHOU @ SAS
p126
aVW
p127
aI14
aI2
aI5
aF0.4
aI2
aI3
aF0.667
aI0
aI0
aF0.0
aI1
aI0
aI1
aI0
aI0
aI0
aI0
aI2
aI6
aI-11
aa(lp128
V0021300424
p129
aVDEC 26, 2013
p130
aVHOU vs. MEM
p131
aVW
p132
aI15
aI3
aI7
aF0.429
aI0
aI3
aF0.0
aI0
aI0
aF0.0
aI1
aI0
aI1
aI2
aI0
aI0
aI0
aI1
aI6
aI-7
aa(lp133
V0021300442
p134
aVDEC 28, 2013
p135
aVHOU vs. NOP
p136
aVW
p137
aI20
aI3
aI8
aF0.375
aI1
aI5
aF0.2
aI2
aI2
aF1.0
aI1
aI0
aI1
aI1
aI0
aI0
aI1
aI2
aI9
aI-1
aa(lp138
V0021300450
p139
aVDEC 29, 2013
p140
aVHOU @ OKC
p141
aVL
p142
aI23
aI6
aI14
aF0.429
aI3
aI7
aF0.429
aI2
aI2
aF1.0
aI0
aI1
aI1
aI2
aI1
aI1
aI0
aI1
aI17
aI-1
aa(lp143
V0021300464
p144
aVDEC 31, 2013
p145
aVHOU vs. SAC
p146
aVL
p147
aI15
aI1
aI5
aF0.2
aI0
aI3
aF0.0
aI2
aI2
aF1.0
aI2
aI0
aI2
aI3
aI0
aI0
aI0
aI3
aI4
aI-4
aa(lp148
V0021300485
p149
aVJAN 03, 2014
p150
aVHOU vs. NYK
p151
aVW
p152
aI20
aI1
aI8
aF0.125
aI1
aI5
aF0.2
aI2
aI2
aF1.0
aI1
aI1
aI2
aI1
aI0
aI0
aI2
aI4
aI5
aI3
aa(lp153
V0021300526
p154
aVJAN 08, 2014
p155
aVHOU vs. LAL
p156
aVW
p157
aI15
aI3
aI6
aF0.5
aI3
aI5
aF0.6
aI0
aI0
aF0.0
aI1
aI2
aI3
aI1
aI0
aI0
aI2
aI1
aI9
aI2
aa(lp158
V0021300533
p159
aVJAN 10, 2014
p160
aVHOU @ ATL
p161
aVL
p162
aI27
aI5
aI9
aF0.556
aI3
aI5
aF0.6
aI0
aI2
aF0.0
aI1
aI2
aI3
aI1
aI0
aI0
aI2
aI5
aI13
aI-8
aa(lp163
V0021300544
p164
aVJAN 11, 2014
p165
aVHOU @ WAS
p166
aVW
p167
aI15
aI1
aI5
aF0.2
aI1
aI4
aF0.25
aI0
aI0
aF0.0
aI0
aI1
aI1
aI1
aI0
aI0
aI1
aI0
aI3
aI-8
aa(lp168
V0021300556
p169
aVJAN 13, 2014
p170
aVHOU @ BOS
p171
aVW
p172
aI15
aI0
aI2
aF0.0
aI0
aI1
aF0.0
aI2
aI2
aF1.0
aI0
aI0
aI0
aI3
aI0
aI0
aI0
aI1
aI2
aI2
aa(lp173
V0021300580
p174
aVJAN 16, 2014
p175
aVHOU vs. OKC
p176
aVL
p177
aI24
aI3
aI8
aF0.375
aI3
aI7
aF0.429
aI2
aI2
aF1.0
aI2
aI0
aI2
aI3
aI1
aI0
aI2
aI3
aI11
aI-5
aa(lp178
V0021300597
p179
aVJAN 18, 2014
p180
aVHOU vs. MIL
p181
aVW
p182
aI25
aI3
aI6
aF0.5
aI2
aI4
aF0.5
aI2
aI2
aF1.0
aI0
aI0
aI0
aI4
aI1
aI0
aI1
aI2
aI10
aI8
aa(lp183
V0021300614
p184
aVJAN 20, 2014
p185
aVHOU vs. POR
p186
aVW
p187
aI1
aI0
aI0
aF0.0
aI0
aI0
aF0.0
aI0
aI0
aF0.0
aI0
aI0
aI0
aI0
aI0
aI0
aI0
aI0
aI0
aI2
aa(lp188
V0021300627
p189
aVJAN 22, 2014
p190
aVHOU vs. SAC
p191
aVW
p192
aI5
aI0
aI1
aF0.0
aI0
aI1
aF0.0
aI0
aI0
aF0.0
aI0
aI2
aI2
aI0
aI0
aI0
aI0
aI0
aI0
aI-6
aa(lp193
V0021300649
p194
aVJAN 25, 2014
p195
aVHOU @ MEM
p196
aVL
p197
aI10
aI2
aI4
aF0.5
aI2
aI3
aF0.667
aI0
aI0
aF0.0
aI0
aI0
aI0
aI2
aI0
aI0
aI1
aI0
aI6
aI5
aa(lp198
V0021300671
p199
aVJAN 28, 2014
p200
aVHOU vs. SAS
p201
aVW
p202
aI22
aI3
aI9
aF0.333
aI2
aI5
aF0.4
aI0
aI0
aF0.0
aI1
aI1
aI2
aI1
aI0
aI1
aI2
aI2
aI8
aI7
aa(lp203
V0021300681
p204
aVJAN 29, 2014
p205
aVHOU @ DAL
p206
aVW
p207
aI22
aI3
aI7
aF0.429
aI2
aI5
aF0.4
aI3
aI4
aF0.75
aI0
aI2
aI2
aI4
aI2
aI0
aI1
aI2
aI11
aI12
aa(lp208
V0021300784
p209
aVFEB 12, 2014
p210
aVHOU vs. WAS
p211
aVW
p212
aI11
aI0
aI2
aF0.0
aI0
aI0
aF0.0
aI0
aI0
aF0.0
aI0
aI0
aI0
aI0
aI0
aI1
aI1
aI2
aI0
aI0
aa(lp213
V0021300811
p214
aVFEB 19, 2014
p215
aVHOU @ LAL
p216
aVW
p217
aI5
aI0
aI1
aF0.0
aI0
aI1
aF0.0
aI0
aI0
aF0.0
aI0
aI0
aI0
aI0
aI0
aI0
aI1
aI2
aI0
aI-6
aa(lp218
V0021300820
p219
aVFEB 21, 2014
p220
aVDEN @ CHI
p221
aVL
p222
aI28
aI7
aI11
aF0.636
aI1
aI2
aF0.5
aI2
aI2
aF1.0
aI0
aI1
aI1
aI1
aI0
aI1
aI1
aI2
aI17
aI-17
aa(lp223
V0021300837
p224
aVFEB 23, 2014
p225
aVDEN vs. SAC
p226
aVL
p227
aI32
aI3
aI12
aF0.25
aI2
aI5
aF0.4
aI1
aI2
aF0.5
aI2
aI0
aI2
aI8
aI2
aI0
aI5
aI4
aI9
aI-30
aa(lp228
V0021300850
p229
aVFEB 25, 2014
p230
aVDEN vs. POR
p231
aVL
p232
aI30
aI7
aI15
aF0.467
aI0
aI2
aF0.0
aI0
aI0
aF0.0
aI2
aI3
aI5
aI6
aI0
aI0
aI2
aI2
aI14
aI-16
aa(lp233
V0021300866
p234
aVFEB 27, 2014
p235
aVDEN vs. BKN
p236
aVL
p237
aI36
aI4
aI8
aF0.5
aI3
aI5
aF0.6
aI2
aI2
aF1.0
aI0
aI2
aI2
aI3
aI1
aI1
aI4
aI5
aI13
aI-10
aa(lp238
V0021300880
p239
aVMAR 01, 2014
p240
aVDEN @ POR
p241
aVL
p242
aI25
aI3
aI11
aF0.273
aI0
aI3
aF0.0
aI0
aI0
aF0.0
aI0
aI3
aI3
aI2
aI0
aI0
aI0
aI3
aI6
aI-11
aa(lp243
V0021300895
p244
aVMAR 03, 2014
p245
aVDEN vs. MIN
p246
aVL
p247
aI18
aI3
aI9
aF0.333
aI2
aI5
aF0.4
aI0
aI0
aF0.0
aI0
aI1
aI1
aI2
aI0
aI0
aI2
aI2
aI8
aI0
aa(lp248
V0021300912
p249
aVMAR 05, 2014
p250
aVDEN vs. DAL
p251
aVW
p252
aI17
aI2
aI6
aF0.333
aI0
aI2
aF0.0
aI0
aI0
aF0.0
aI0
aI2
aI2
aI4
aI4
aI0
aI0
aI1
aI4
aI7
aa(lp253
V0021300925
p254
aVMAR 07, 2014
p255
aVDEN vs. LAL
p256
aVW
p257
aI19
aI3
aI8
aF0.375
aI1
aI3
aF0.333
aI0
aI0
aF0.0
aI0
aI2
aI2
aI2
aI0
aI0
aI2
aI1
aI7
aI-13
aa(lp258
V0021300936
p259
aVMAR 09, 2014
p260
aVDEN @ NOP
p261
aVL
p262
aI22
aI4
aI9
aF0.444
aI2
aI4
aF0.5
aI5
aI5
aF1.0
aI2
aI1
aI3
aI4
aI1
aI0
aI0
aI1
aI15
aI2
aa(lp263
V0021300943
p264
aVMAR 10, 2014
p265
aVDEN @ CHA
p266
aVL
p267
aI24
aI5
aI11
aF0.455
aI1
aI4
aF0.25
aI5
aI5
aF1.0
aI1
aI3
aI4
aI0
aI0
aI0
aI2
aI3
aI16
aI-2
aa(lp268
V0021300958
p269
aVMAR 12, 2014
p270
aVDEN @ ORL
p271
aVW
p272
aI20
aI3
aI8
aF0.375
aI2
aI3
aF0.667
aI1
aI2
aF0.5
aI0
aI3
aI3
aI7
aI1
aI0
aI3
aI2
aI9
aI-6
aa(lp273
V0021300976
p274
aVMAR 14, 2014
p275
aVDEN @ MIA
p276
aVW
p277
aI15
aI3
aI5
aF0.6
aI3
aI4
aF0.75
aI0
aI0
aF0.0
aI0
aI0
aI0
aI5
aI0
aI0
aI1
aI2
aI9
aI17
aa(lp278
V0021300983
p279
aVMAR 15, 2014
p280
aVDEN @ ATL
p281
aVL
p282
aI26
aI3
aI9
aF0.333
aI1
aI4
aF0.25
aI0
aI0
aF0.0
aI0
aI3
aI3
aI7
aI2
aI2
aI1
aI1
aI7
aI12
aa(lp283
V0021301002
p284
aVMAR 17, 2014
p285
aVDEN vs. LAC
p286
aVW
p287
aI17
aI1
aI5
aF0.2
aI0
aI1
aF0.0
aI1
aI1
aF1.0
aI0
aI2
aI2
aI5
aI2
aI0
aI3
aI4
aI3
aI2
aa(lp288
V0021301015
p289
aVMAR 19, 2014
p290
aVDEN vs. DET
p291
aVW
p292
aI47
aI10
aI19
aF0.526
aI1
aI5
aF0.2
aI6
aI7
aF0.857
aI3
aI3
aI6
aI17
aI0
aI0
aI3
aI4
aI27
aI12
aa(lp293
V0021301028
p294
aVMAR 21, 2014
p295
aVDEN @ DAL
p296
aVL
p297
aI21
aI3
aI7
aF0.429
aI0
aI3
aF0.0
aI0
aI0
aF0.0
aI1
aI0
aI1
aI2
aI0
aI0
aI1
aI1
aI6
aI-18
aa(lp298
V0021301042
p299
aVMAR 23, 2014
p300
aVDEN vs. WAS
p301
aVW
p302
aI25
aI4
aI13
aF0.308
aI1
aI4
aF0.25
aI4
aI4
aF1.0
aI1
aI1
aI2
aI7
aI1
aI0
aI1
aI2
aI13
aI7
aa(lp303
V0021301053
p304
aVMAR 24, 2014
p305
aVDEN @ OKC
p306
aVL
p307
aI28
aI1
aI8
aF0.125
aI0
aI3
aF0.0
aI3
aI4
aF0.75
aI0
aI1
aI1
aI3
aI0
aI0
aI5
aI2
aI5
aI-8
aa(lp308
V0021301068
p309
aVMAR 26, 2014
p310
aVDEN @ SAS
p311
aVL
p312
aI31
aI9
aI18
aF0.5
aI4
aI6
aF0.667
aI3
aI3
aF1.0
aI2
aI3
aI5
aI8
aI0
aI0
aI0
aI4
aI25
aI12
aa(lp313
V0021301084
p314
aVMAR 28, 2014
p315
aVDEN vs. SAS
p316
aVL
p317
aI30
aI2
aI5
aF0.4
aI1
aI2
aF0.5
aI3
aI4
aF0.75
aI0
aI0
aI0
aI3
aI1
aI0
aI1
aI2
aI8
aI-23
aa(lp318
V0021301109
p319
aVMAR 31, 2014
p320
aVDEN vs. MEM
p321
aVL
p322
aI29
aI4
aI8
aF0.5
aI2
aI4
aF0.5
aI0
aI0
aF0.0
aI0
aI0
aI0
aI6
aI1
aI0
aI2
aI1
aI10
aI2
aa(lp323
V0021301124
p324
aVAPR 02, 2014
p325
aVDEN vs. NOP
p326
aVW
p327
aI30
aI9
aI12
aF0.75
aI6
aI8
aF0.75
aI0
aI0
aF0.0
aI0
aI3
aI3
aI1
aI2
aI2
aI1
aI3
aI24
aI18
aa(lp328
V0021301129
p329
aVAPR 04, 2014
p330
aVDEN @ MEM
p331
aVL
p332
aI40
aI5
aI13
aF0.385
aI1
aI4
aF0.25
aI0
aI0
aF0.0
aI1
aI3
aI4
aI2
aI0
aI0
aI4
aI2
aI11
aI-8
aa(lp333
V0021301153
p334
aVAPR 06, 2014
p335
aVDEN @ HOU
p336
aVL
p337
aI47
aI11
aI24
aF0.458
aI2
aI7
aF0.286
aI0
aI0
aF0.0
aI2
aI6
aI8
aI15
aI3
aI0
aI7
aI5
aI24
aI-1
aa(lp338
V0021301171
p339
aVAPR 09, 2014
p340
aVDEN vs. HOU
p341
aVW
p342
aI37
aI5
aI15
aF0.333
aI1
aI6
aF0.167
aI2
aI2
aF1.0
aI0
aI5
aI5
aI7
aI2
aI1
aI3
aI4
aI13
aI-2
aa(lp343
V0021301175
p344
aVAPR 10, 2014
p345
aVDEN @ GSW
p346
aVW
p347
aI39
aI3
aI14
aF0.214
aI0
aI3
aF0.0
aI2
aI2
aF1.0
aI1
aI1
aI2
aI7
aI1
aI0
aI2
aI0
aI8
aI-5
aa(lp348
V0021301196
p349
aVAPR 12, 2014
p350
aVDEN vs. UTA
p351
aVW
p352
aI41
aI3
aI13
aF0.231
aI0
aI3
aF0.0
aI2
aI2
aF1.0
aI1
aI2
aI3
aI5
aI1
aI0
aI1
aI1
aI8
aI9
aa(lp353
V0021301215
p354
aVAPR 15, 2014
p355
aVDEN @ LAC
p356
aVL
p357
aI42
aI6
aI12
aF0.5
aI3
aI6
aF0.5
aI4
aI4
aF1.0
aI1
aI3
aI4
aI5
aI2
aI0
aI9
aI2
aI19
aI-3
aa(lp358
V0021301230
p359
aVAPR 16, 2014
p360
aVDEN vs. GSW
p361
aVL
p362
aI25
aI3
aI10
aF0.3
aI2
aI5
aF0.4
aI0
aI0
aF0.0
aI0
aI1
aI1
aI6
aI0
aI0
aI0
aI4
aI8
aI-6
aasS'name'
p363
VAaron Brooks
p364
sS'weight'
p365
V161
p366
sS'age'
p367
I28
sS'experience'
p368
I6
sS'height'
p369
V6-0
p370
sS'position'
p371
VGuard
p372
s.