(dp0
S'age'
p1
I28
sS'stats'
p2
(lp3
(lp4
V0021300009
p5
aVOCT 30, 2013
p6
aVCHA @ HOU
p7
aVL
p8
aI3
aI0
aI1
aF0.0
aI0
aI0
aF0.0
aI0
aI0
aF0.0
aI0
aI0
aI0
aI0
aI0
aI0
aI0
aI1
aI0
aI-2
aa(lp9
V0021300035
p10
aVNOV 02, 2013
p11
aVCHA @ NOP
p12
aVL
p13
aI24
aI2
aI5
aF0.4
aI2
aI5
aF0.4
aI0
aI0
aF0.0
aI2
aI3
aI5
aI1
aI0
aI0
aI1
aI1
aI6
aI-3
aa(lp14
V0021300054
p15
aVNOV 05, 2013
p16
aVCHA @ NYK
p17
aVW
p18
aI22
aI2
aI4
aF0.5
aI2
aI4
aF0.5
aI2
aI2
aF1.0
aI2
aI3
aI5
aI0
aI0
aI0
aI0
aI1
aI8
aI6
aa(lp19
V0021300073
p20
aVNOV 08, 2013
p21
aVCHA vs. NYK
p22
aVL
p23
aI15
aI1
aI4
aF0.25
aI1
aI3
aF0.333
aI0
aI0
aF0.0
aI0
aI2
aI2
aI0
aI2
aI0
aI1
aI3
aI3
aI3
aa(lp24
V0021300098
p25
aVNOV 11, 2013
p26
aVCHA vs. ATL
p27
aVL
p28
aI3
aI0
aI1
aF0.0
aI0
aI0
aF0.0
aI0
aI0
aF0.0
aI0
aI1
aI1
aI0
aI0
aI0
aI1
aI0
aI0
aI-6
aa(lp29
V0021300113
p30
aVNOV 13, 2013
p31
aVCHA @ BOS
p32
aVW
p33
aI26
aI3
aI7
aF0.429
aI3
aI6
aF0.5
aI2
aI2
aF1.0
aI0
aI1
aI1
aI1
aI1
aI1
aI1
aI3
aI11
aI2
aa(lp34
V0021300129
p35
aVNOV 15, 2013
p36
aVCHA @ CLE
p37
aVW
p38
aI11
aI2
aI2
aF1.0
aI2
aI2
aF1.0
aI0
aI0
aF0.0
aI0
aI1
aI1
aI3
aI0
aI1
aI1
aI3
aI6
aI3
aa(lp39
V0021300136
p40
aVNOV 16, 2013
p41
aVCHA vs. MIA
p42
aVL
p43
aI32
aI1
aI9
aF0.111
aI1
aI7
aF0.143
aI0
aI0
aF0.0
aI1
aI2
aI3
aI4
aI0
aI1
aI1
aI3
aI3
aI-9
aa(lp44
V0021300161
p45
aVNOV 20, 2013
p46
aVCHA vs. BKN
p47
aVW
p48
aI8
aI1
aI1
aF1.0
aI0
aI0
aF0.0
aI0
aI0
aF0.0
aI0
aI2
aI2
aI0
aI0
aI0
aI0
aI0
aI2
aI5
aa(lp49
V0021300176
p50
aVNOV 22, 2013
p51
aVCHA vs. PHX
p52
aVL
p53
aI8
aI0
aI1
aF0.0
aI0
aI1
aF0.0
aI0
aI0
aF0.0
aI0
aI1
aI1
aI0
aI0
aI0
aI0
aI1
aI0
aI1
aa(lp54
V0021300193
p55
aVNOV 23, 2013
p56
aVCHA @ MIL
p57
aVW
p58
aI5
aI0
aI0
aF0.0
aI0
aI0
aF0.0
aI0
aI0
aF0.0
aI0
aI2
aI2
aI0
aI0
aI0
aI0
aI0
aI0
aI-2
aa(lp59
V0021300202
p60
aVNOV 25, 2013
p61
aVCHA vs. BOS
p62
aVL
p63
aI11
aI0
aI0
aF0.0
aI0
aI0
aF0.0
aI0
aI0
aF0.0
aI1
aI2
aI3
aI1
aI0
aI0
aI0
aI2
aI0
aI-9
aa(lp64
V0021300215
p65
aVNOV 27, 2013
p66
aVCHA vs. IND
p67
aVL
p68
aI16
aI0
aI4
aF0.0
aI0
aI2
aF0.0
aI0
aI0
aF0.0
aI0
aI1
aI1
aI0
aI0
aI0
aI1
aI1
aI0
aI-2
aa(lp69
V0021300266
p70
aVDEC 03, 2013
p71
aVCHA @ DAL
p72
aVL
p73
aI26
aI1
aI5
aF0.2
aI1
aI5
aF0.2
aI0
aI0
aF0.0
aI0
aI3
aI3
aI0
aI0
aI0
aI0
aI2
aI3
aI-6
aa(lp74
V0021300280
p75
aVDEC 06, 2013
p76
aVCHA vs. PHI
p77
aVW
p78
aI3
aI0
aI0
aF0.0
aI0
aI0
aF0.0
aI0
aI0
aF0.0
aI0
aI1
aI1
aI1
aI0
aI0
aI1
aI1
aI0
aI0
aa(lp79
V0021300304
p80
aVDEC 09, 2013
p81
aVCHA vs. GSW
p82
aVW
p83
aI34
aI2
aI2
aF1.0
aI2
aI2
aF1.0
aI0
aI0
aF0.0
aI0
aI5
aI5
aI2
aI1
aI1
aI0
aI3
aI6
aI14
aa(lp84
V0021300371
p85
aVDEC 18, 2013
p86
aVCHA @ TOR
p87
aVW
p88
aI13
aI4
aI5
aF0.8
aI2
aI2
aF1.0
aI0
aI1
aF0.0
aI2
aI2
aI4
aI0
aI0
aI0
aI0
aI0
aI10
aI17
aa(lp89
V0021300386
p90
aVDEC 20, 2013
p91
aVCHA @ DET
p92
aVW
p93
aI27
aI1
aI4
aF0.25
aI1
aI3
aF0.333
aI0
aI0
aF0.0
aI1
aI2
aI3
aI1
aI0
aI1
aI1
aI5
aI3
aI14
aa(lp94
V0021300394
p95
aVDEC 21, 2013
p96
aVCHA vs. UTA
p97
aVL
p98
aI26
aI1
aI5
aF0.2
aI0
aI3
aF0.0
aI0
aI0
aF0.0
aI0
aI5
aI5
aI1
aI0
aI0
aI1
aI2
aI2
aI-4
aa(lp99
V0021300407
p100
aVDEC 23, 2013
p101
aVCHA vs. MIL
p102
aVW
p103
aI34
aI4
aI4
aF1.0
aI4
aI4
aF1.0
aI0
aI0
aF0.0
aI0
aI3
aI3
aI1
aI0
aI1
aI1
aI1
aI12
aI1
aa(lp104
V0021300427
p105
aVDEC 27, 2013
p106
aVCHA vs. OKC
p107
aVL
p108
aI35
aI2
aI5
aF0.4
aI2
aI5
aF0.4
aI0
aI0
aF0.0
aI0
aI3
aI3
aI2
aI1
aI0
aI0
aI1
aI6
aI-1
aa(lp109
V0021300440
p110
aVDEC 28, 2013
p111
aVCHA @ ATL
p112
aVL
p113
aI38
aI4
aI10
aF0.4
aI4
aI9
aF0.444
aI0
aI0
aF0.0
aI2
aI5
aI7
aI1
aI1
aI0
aI0
aI5
aI12
aI-4
aa(lp114
V0021300458
p115
aVDEC 30, 2013
p116
aVCHA @ UTA
p117
aVL
p118
aI26
aI1
aI6
aF0.167
aI1
aI2
aF0.5
aI0
aI0
aF0.0
aI3
aI4
aI7
aI0
aI0
aI0
aI2
aI1
aI3
aI-3
aa(lp119
V0021300472
p120
aVJAN 01, 2014
p121
aVCHA @ LAC
p122
aVL
p123
aI37
aI4
aI11
aF0.364
aI3
aI10
aF0.3
aI0
aI0
aF0.0
aI0
aI3
aI3
aI1
aI0
aI0
aI0
aI1
aI11
aI-26
aa(lp124
V0021300480
p125
aVJAN 02, 2014
p126
aVCHA @ POR
p127
aVL
p128
aI31
aI1
aI3
aF0.333
aI1
aI3
aF0.333
aI0
aI0
aF0.0
aI1
aI2
aI3
aI2
aI0
aI0
aI0
aI1
aI3
aI-30
aa(lp129
V0021300497
p130
aVJAN 04, 2014
p131
aVCHA @ SAC
p132
aVW
p133
aI16
aI2
aI3
aF0.667
aI2
aI2
aF1.0
aI0
aI0
aF0.0
aI0
aI2
aI2
aI0
aI0
aI1
aI0
aI1
aI6
aI-3
aa(lp134
V0021300508
p135
aVJAN 07, 2014
p136
aVCHA vs. WAS
p137
aVL
p138
aI21
aI2
aI5
aF0.4
aI1
aI3
aF0.333
aI3
aI4
aF0.75
aI1
aI4
aI5
aI1
aI1
aI0
aI0
aI1
aI8
aI6
aa(lp139
V0021300535
p140
aVJAN 10, 2014
p141
aVCHA @ MIN
p142
aVL
p143
aI27
aI8
aI9
aF0.889
aI5
aI5
aF1.0
aI0
aI0
aF0.0
aI0
aI3
aI3
aI0
aI0
aI0
aI0
aI0
aI21
aI-8
aa(lp144
V0021300547
p145
aVJAN 11, 2014
p146
aVCHA @ CHI
p147
aVL
p148
aI14
aI0
aI0
aF0.0
aI0
aI0
aF0.0
aI0
aI0
aF0.0
aI0
aI1
aI1
aI0
aI0
aI0
aI0
aI2
aI0
aI-1
aa(lp149
V0021300562
p150
aVJAN 14, 2014
p151
aVCHA vs. NYK
p152
aVW
p153
aI18
aI3
aI3
aF1.0
aI3
aI3
aF1.0
aI0
aI0
aF0.0
aI0
aI1
aI1
aI0
aI0
aI0
aI0
aI2
aI9
aI7
aa(lp154
V0021300567
p155
aVJAN 15, 2014
p156
aVCHA @ PHI
p157
aVL
p158
aI26
aI2
aI7
aF0.286
aI1
aI6
aF0.167
aI1
aI2
aF0.5
aI1
aI4
aI5
aI0
aI0
aI0
aI1
aI1
aI6
aI13
aa(lp159
V0021300582
p160
aVJAN 17, 2014
p161
aVCHA @ ORL
p162
aVW
p163
aI17
aI1
aI2
aF0.5
aI1
aI2
aF0.5
aI0
aI0
aF0.0
aI0
aI2
aI2
aI1
aI0
aI0
aI1
aI1
aI3
aI1
aa(lp164
V0021300593
p165
aVJAN 18, 2014
p166
aVCHA vs. MIA
p167
aVL
p168
aI37
aI4
aI7
aF0.571
aI3
aI6
aF0.5
aI0
aI0
aF0.0
aI0
aI2
aI2
aI1
aI1
aI1
aI1
aI0
aI11
aI0
aa(lp169
V0021300608
p170
aVJAN 20, 2014
p171
aVCHA vs. TOR
p172
aVW
p173
aI17
aI2
aI4
aF0.5
aI2
aI2
aF1.0
aI2
aI3
aF0.667
aI0
aI0
aI0
aI0
aI0
aI0
aI1
aI2
aI8
aI-12
aa(lp174
V0021300621
p175
aVJAN 22, 2014
p176
aVCHA vs. LAC
p177
aVW
p178
aI23
aI3
aI7
aF0.429
aI2
aI5
aF0.4
aI2
aI2
aF1.0
aI1
aI2
aI3
aI1
aI0
aI0
aI0
aI2
aI10
aI14
aa(lp179
V0021300640
p180
aVJAN 24, 2014
p181
aVCHA @ NYK
p182
aVL
p183
aI17
aI1
aI5
aF0.2
aI1
aI4
aF0.25
aI0
aI0
aF0.0
aI0
aI2
aI2
aI3
aI0
aI0
aI0
aI0
aI3
aI7
aa(lp184
V0021300646
p185
aVJAN 25, 2014
p186
aVCHA vs. CHI
p187
aVL
p188
aI26
aI0
aI3
aF0.0
aI0
aI3
aF0.0
aI0
aI0
aF0.0
aI0
aI2
aI2
aI1
aI1
aI1
aI0
aI0
aI0
aI8
aa(lp189
V0021300682
p190
aVJAN 29, 2014
p191
aVCHA @ DEN
p192
aVW
p193
aI21
aI1
aI4
aF0.25
aI1
aI4
aF0.25
aI0
aI0
aF0.0
aI0
aI1
aI1
aI0
aI1
aI0
aI0
aI0
aI3
aI-7
aa(lp194
V0021300695
p195
aVJAN 31, 2014
p196
aVCHA @ LAL
p197
aVW
p198
aI21
aI0
aI3
aF0.0
aI0
aI3
aF0.0
aI0
aI0
aF0.0
aI0
aI2
aI2
aI0
aI0
aI0
aI0
aI1
aI0
aI22
aa(lp199
V0021300706
p200
aVFEB 01, 2014
p201
aVCHA @ PHX
p202
aVL
p203
aI21
aI4
aI7
aF0.571
aI3
aI6
aF0.5
aI3
aI3
aF1.0
aI0
aI0
aI0
aI1
aI1
aI0
aI0
aI1
aI14
aI12
aa(lp204
V0021300724
p205
aVFEB 04, 2014
p206
aVCHA @ GSW
p207
aVW
p208
aI22
aI4
aI4
aF1.0
aI3
aI3
aF1.0
aI0
aI0
aF0.0
aI1
aI1
aI2
aI1
aI1
aI0
aI1
aI1
aI11
aI6
aa(lp209
V0021300749
p210
aVFEB 08, 2014
p211
aVCHA vs. SAS
p212
aVL
p213
aI20
aI2
aI5
aF0.4
aI2
aI4
aF0.5
aI0
aI0
aF0.0
aI1
aI6
aI7
aI0
aI0
aI1
aI0
aI1
aI6
aI-4
aa(lp214
V0021300770
p215
aVFEB 11, 2014
p216
aVCHA vs. DAL
p217
aVW
p218
aI25
aI6
aI11
aF0.545
aI5
aI10
aF0.5
aI5
aI5
aF1.0
aI0
aI1
aI1
aI0
aI0
aI0
aI0
aI3
aI22
aI17
aa(lp219
V0021300781
p220
aVFEB 12, 2014
p221
aVCHA @ BKN
p222
aVL
p223
aI26
aI3
aI9
aF0.333
aI2
aI7
aF0.286
aI0
aI0
aF0.0
aI4
aI3
aI7
aI0
aI1
aI0
aI0
aI0
aI8
aI7
aa(lp224
V0021300795
p225
aVFEB 18, 2014
p226
aVCHA @ DET
p227
aVW
p228
aI28
aI1
aI4
aF0.25
aI1
aI4
aF0.25
aI2
aI2
aF1.0
aI0
aI1
aI1
aI0
aI0
aI1
aI0
aI0
aI5
aI4
aa(lp229
V0021300801
p230
aVFEB 19, 2014
p231
aVCHA vs. DET
p232
aVW
p233
aI18
aI2
aI6
aF0.333
aI0
aI3
aF0.0
aI0
aI0
aF0.0
aI0
aI1
aI1
aI0
aI1
aI0
aI0
aI0
aI4
aI-1
aa(lp234
V0021300815
p235
aVFEB 21, 2014
p236
aVCHA vs. NOP
p237
aVW
p238
aI17
aI3
aI3
aF1.0
aI3
aI3
aF1.0
aI0
aI0
aF0.0
aI1
aI0
aI1
aI0
aI0
aI1
aI0
aI1
aI9
aI12
aa(lp239
V0021300825
p240
aVFEB 22, 2014
p241
aVCHA vs. MEM
p242
aVW
p243
aI27
aI3
aI5
aF0.6
aI3
aI5
aF0.6
aI0
aI0
aF0.0
aI0
aI2
aI2
aI0
aI0
aI0
aI0
aI0
aI9
aI-1
aa(lp244
V0021300871
p245
aVFEB 28, 2014
p246
aVCHA @ SAS
p247
aVL
p248
aI19
aI2
aI5
aF0.4
aI1
aI4
aF0.25
aI3
aI3
aF1.0
aI0
aI2
aI2
aI0
aI0
aI0
aI0
aI2
aI8
aI4
aa(lp249
V0021300887
p250
aVMAR 02, 2014
p251
aVCHA @ OKC
p252
aVL
p253
aI25
aI5
aI12
aF0.417
aI4
aI11
aF0.364
aI3
aI3
aF1.0
aI0
aI0
aI0
aI0
aI0
aI0
aI1
aI4
aI17
aI4
aa(lp254
V0021300893
p255
aVMAR 03, 2014
p256
aVCHA @ MIA
p257
aVL
p258
aI22
aI4
aI10
aF0.4
aI3
aI8
aF0.375
aI1
aI2
aF0.5
aI3
aI1
aI4
aI0
aI1
aI0
aI1
aI0
aI12
aI-6
aa(lp259
V0021300904
p260
aVMAR 05, 2014
p261
aVCHA vs. IND
p262
aVW
p263
aI27
aI3
aI5
aF0.6
aI2
aI4
aF0.5
aI0
aI1
aF0.0
aI1
aI2
aI3
aI0
aI1
aI0
aI1
aI3
aI8
aI-2
aa(lp264
V0021300918
p265
aVMAR 07, 2014
p266
aVCHA vs. CLE
p267
aVW
p268
aI21
aI1
aI5
aF0.2
aI1
aI4
aF0.25
aI0
aI0
aF0.0
aI2
aI3
aI5
aI0
aI0
aI2
aI0
aI1
aI3
aI6
aa(lp269
V0021300930
p270
aVMAR 08, 2014
p271
aVCHA @ MEM
p272
aVL
p273
aI22
aI4
aI8
aF0.5
aI1
aI4
aF0.25
aI1
aI2
aF0.5
aI0
aI1
aI1
aI1
aI0
aI0
aI0
aI0
aI10
aI-8
aa(lp274
V0021300943
p275
aVMAR 10, 2014
p276
aVCHA vs. DEN
p277
aVW
p278
aI19
aI0
aI6
aF0.0
aI0
aI6
aF0.0
aI0
aI0
aF0.0
aI0
aI3
aI3
aI1
aI1
aI1
aI0
aI2
aI0
aI8
aa(lp279
V0021300961
p280
aVMAR 12, 2014
p281
aVCHA @ WAS
p282
aVW
p283
aI18
aI1
aI5
aF0.2
aI1
aI5
aF0.2
aI0
aI0
aF0.0
aI0
aI1
aI1
aI1
aI1
aI0
aI0
aI0
aI3
aI-2
aa(lp284
V0021300996
p285
aVMAR 17, 2014
p286
aVCHA vs. ATL
p287
aVL
p288
aI11
aI1
aI4
aF0.25
aI0
aI2
aF0.0
aI0
aI0
aF0.0
aI0
aI0
aI0
aI0
aI0
aI0
aI0
aI0
aI2
aI-3
aa(lp289
V0021301032
p290
aVMAR 22, 2014
p291
aVCHA vs. POR
p292
aVW
p293
aI4
aI0
aI1
aF0.0
aI0
aI1
aF0.0
aI0
aI0
aF0.0
aI0
aI1
aI1
aI0
aI0
aI0
aI0
aI1
aI0
aI0
aa(lp294
V0021301061
p295
aVMAR 26, 2014
p296
aVCHA vs. BKN
p297
aVW
p298
aI6
aI1
aI3
aF0.333
aI1
aI3
aF0.333
aI0
aI0
aF0.0
aI0
aI0
aI0
aI0
aI0
aI0
aI0
aI1
aI3
aI1
aa(lp299
V0021301075
p300
aVMAR 28, 2014
p301
aVCHA @ ORL
p302
aVL
p303
aI6
aI0
aI1
aF0.0
aI0
aI0
aF0.0
aI0
aI0
aF0.0
aI0
aI0
aI0
aI0
aI0
aI0
aI0
aI0
aI0
aI-7
aa(lp304
V0021301117
p305
aVAPR 02, 2014
p306
aVCHA @ PHI
p307
aVW
p308
aI21
aI5
aI8
aF0.625
aI4
aI7
aF0.571
aI2
aI2
aF1.0
aI1
aI7
aI8
aI5
aI0
aI0
aI1
aI3
aI16
aI17
aa(lp309
V0021301130
p310
aVAPR 04, 2014
p311
aVCHA vs. ORL
p312
aVW
p313
aI23
aI4
aI7
aF0.571
aI4
aI5
aF0.8
aI1
aI2
aF0.5
aI1
aI1
aI2
aI1
aI0
aI0
aI0
aI1
aI13
aI0
aa(lp314
V0021301145
p315
aVAPR 05, 2014
p316
aVCHA @ CLE
p317
aVW
p318
aI16
aI2
aI5
aF0.4
aI2
aI5
aF0.4
aI0
aI0
aF0.0
aI0
aI5
aI5
aI1
aI0
aI0
aI1
aI1
aI6
aI2
aa(lp319
V0021301207
p320
aVAPR 14, 2014
p321
aVCHA @ ATL
p322
aVW
p323
aI20
aI2
aI7
aF0.286
aI2
aI7
aF0.286
aI0
aI0
aF0.0
aI0
aI6
aI6
aI0
aI1
aI0
aI0
aI1
aI6
aI5
aasS'name'
p324
VAnthony Tolliver
p325
sS'experience'
p326
I5
s.