(dp0
S'age'
p1
I25
sS'stats'
p2
(lp3
(lp4
V0021301219
p5
aVAPR 16, 2014
p6
aVNOP vs. HOU
p7
aVW
p8
aI23
aI5
aI7
aF0.714
aI0
aI0
aF0.0
aI1
aI2
aF0.5
aI1
aI3
aI4
aI2
aI1
aI3
aI1
aI4
aI11
aI-1
aa(lp9
V0021301210
p10
aVAPR 14, 2014
p11
aVNOP vs. OKC
p12
aVW
p13
aI19
aI4
aI5
aF0.8
aI0
aI0
aF0.0
aI2
aI2
aF1.0
aI2
aI2
aI4
aI0
aI0
aI0
aI1
aI5
aI10
aI2
aa(lp14
V0021301194
p15
aVAPR 12, 2014
p16
aVNOP @ HOU
p17
aVL
p18
aI33
aI7
aI12
aF0.583
aI0
aI0
aF0.0
aI3
aI3
aF1.0
aI3
aI4
aI7
aI2
aI1
aI3
aI2
aI5
aI17
aI-6
aa(lp19
V0021301184
p20
aVAPR 11, 2014
p21
aVNOP @ OKC
p22
aVL
p23
aI22
aI4
aI11
aF0.364
aI0
aI0
aF0.0
aI4
aI4
aF1.0
aI2
aI4
aI6
aI0
aI0
aI1
aI2
aI5
aI12
aI-14
aa(lp24
V0021301157
p25
aVAPR 06, 2014
p26
aVNOP @ POR
p27
aVL
p28
aI14
aI6
aI11
aF0.545
aI0
aI0
aF0.0
aI1
aI1
aF1.0
aI4
aI3
aI7
aI0
aI2
aI0
aI0
aI2
aI13
aI9
aa(lp29
V0021301138
p30
aVAPR 04, 2014
p31
aVNOP @ UTA
p32
aVL
p33
aI11
aI2
aI2
aF1.0
aI0
aI0
aF0.0
aI2
aI2
aF1.0
aI2
aI0
aI2
aI0
aI0
aI0
aI0
aI4
aI6
aI-7
aa(lp34
V0021301124
p35
aVAPR 02, 2014
p36
aVNOP @ DEN
p37
aVL
p38
aI20
aI3
aI5
aF0.6
aI0
aI0
aF0.0
aI3
aI4
aF0.75
aI0
aI4
aI4
aI2
aI2
aI0
aI1
aI3
aI9
aI-21
aa(lp39
V0021301108
p40
aVMAR 31, 2014
p41
aVNOP vs. SAC
p42
aVL
p43
aI8
aI0
aI3
aF0.0
aI0
aI0
aF0.0
aI0
aI0
aF0.0
aI1
aI0
aI1
aI0
aI0
aI0
aI1
aI4
aI0
aI-7
aa(lp44
V0021301092
p45
aVMAR 29, 2014
p46
aVNOP @ SAS
p47
aVL
p48
aI27
aI1
aI6
aF0.167
aI0
aI0
aF0.0
aI0
aI0
aF0.0
aI2
aI5
aI7
aI1
aI0
aI0
aI0
aI5
aI2
aI-2
aa(lp49
V0021301082
p50
aVMAR 28, 2014
p51
aVNOP vs. UTA
p52
aVW
p53
aI28
aI3
aI6
aF0.5
aI0
aI1
aF0.0
aI3
aI3
aF1.0
aI3
aI7
aI10
aI3
aI1
aI3
aI3
aI6
aI9
aI-7
aa(lp54
V0021301066
p55
aVMAR 26, 2014
p56
aVNOP vs. LAC
p57
aVW
p58
aI28
aI6
aI11
aF0.545
aI0
aI0
aF0.0
aI2
aI2
aF1.0
aI4
aI7
aI11
aI1
aI0
aI0
aI0
aI5
aI14
aI4
aa(lp59
V0021301052
p60
aVMAR 24, 2014
p61
aVNOP vs. BKN
p62
aVW
p63
aI22
aI3
aI6
aF0.5
aI0
aI0
aF0.0
aI0
aI0
aF0.0
aI4
aI5
aI9
aI1
aI1
aI1
aI1
aI4
aI6
aI7
aa(lp64
V0021301036
p65
aVMAR 22, 2014
p66
aVNOP vs. MIA
p67
aVW
p68
aI13
aI3
aI4
aF0.75
aI0
aI0
aF0.0
aI1
aI2
aF0.5
aI1
aI3
aI4
aI0
aI0
aI0
aI0
aI2
aI7
aI2
aa(lp69
V0021301025
p70
aVMAR 21, 2014
p71
aVNOP @ ATL
p72
aVW
p73
aI13
aI3
aI5
aF0.6
aI0
aI0
aF0.0
aI1
aI2
aF0.5
aI1
aI4
aI5
aI0
aI0
aI2
aI0
aI4
aI7
aI-3
aa(lp74
V0021301012
p75
aVMAR 19, 2014
p76
aVNOP vs. TOR
p77
aVL
p78
aI21
aI3
aI4
aF0.75
aI0
aI0
aF0.0
aI4
aI4
aF1.0
aI2
aI5
aI7
aI2
aI2
aI1
aI0
aI3
aI10
aI11
aa(lp79
V0021300977
p80
aVMAR 14, 2014
p81
aVNOP vs. POR
p82
aVL
p83
aI10
aI0
aI2
aF0.0
aI0
aI0
aF0.0
aI0
aI0
aF0.0
aI0
aI2
aI2
aI0
aI1
aI0
aI0
aI1
aI0
aI-7
aa(lp84
V0021300963
p85
aVMAR 12, 2014
p86
aVNOP vs. MEM
p87
aVL
p88
aI18
aI1
aI5
aF0.2
aI0
aI0
aF0.0
aI0
aI0
aF0.0
aI2
aI2
aI4
aI0
aI2
aI2
aI0
aI3
aI2
aI6
aa(lp89
V0021300936
p90
aVMAR 09, 2014
p91
aVNOP vs. DEN
p92
aVW
p93
aI11
aI0
aI0
aF0.0
aI0
aI0
aF0.0
aI0
aI0
aF0.0
aI0
aI2
aI2
aI0
aI0
aI0
aI2
aI3
aI0
aI-11
aa(lp94
V0021300923
p95
aVMAR 07, 2014
p96
aVNOP vs. MIL
p97
aVW
p98
aI13
aI0
aI1
aF0.0
aI0
aI0
aF0.0
aI0
aI0
aF0.0
aI0
aI2
aI2
aI0
aI0
aI1
aI1
aI4
aI0
aI1
aa(lp99
V0021300903
p100
aVMAR 04, 2014
p101
aVNOP @ LAL
p102
aVW
p103
aI16
aI1
aI3
aF0.333
aI0
aI0
aF0.0
aI2
aI2
aF1.0
aI1
aI6
aI7
aI2
aI0
aI0
aI0
aI5
aI4
aI9
aa(lp104
V0021300897
p105
aVMAR 03, 2014
p106
aVNOP @ SAC
p107
aVL
p108
aI20
aI2
aI4
aF0.5
aI0
aI0
aF0.0
aI0
aI0
aF0.0
aI3
aI2
aI5
aI1
aI1
aI0
aI0
aI5
aI4
aI-5
aa(lp109
V0021300882
p110
aVMAR 01, 2014
p111
aVNOP @ LAC
p112
aVL
p113
aI29
aI4
aI6
aF0.667
aI0
aI0
aF0.0
aI3
aI4
aF0.75
aI4
aI6
aI10
aI1
aI1
aI2
aI1
aI6
aI11
aI-40
aa(lp114
V0021300873
p115
aVFEB 28, 2014
p116
aVNOP @ PHX
p117
aVL
p118
aI14
aI2
aI2
aF1.0
aI0
aI0
aF0.0
aI0
aI0
aF0.0
aI1
aI1
aI2
aI0
aI0
aI2
aI1
aI4
aI4
aI0
aa(lp119
V0021300856
p120
aVFEB 26, 2014
p121
aVNOP @ DAL
p122
aVL
p123
aI26
aI6
aI10
aF0.6
aI0
aI0
aF0.0
aI2
aI2
aF1.0
aI4
aI4
aI8
aI3
aI0
aI1
aI1
aI3
aI14
aI-17
aa(lp124
V0021300844
p125
aVFEB 24, 2014
p126
aVNOP vs. LAC
p127
aVL
p128
aI27
aI7
aI13
aF0.538
aI0
aI0
aF0.0
aI5
aI6
aF0.833
aI6
aI6
aI12
aI1
aI0
aI1
aI0
aI5
aI19
aI6
aa(lp129
V0021300826
p130
aVFEB 22, 2014
p131
aVNOP @ WAS
p132
aVL
p133
aI27
aI3
aI9
aF0.333
aI0
aI0
aF0.0
aI3
aI3
aF1.0
aI2
aI7
aI9
aI0
aI0
aI1
aI1
aI4
aI9
aI3
aa(lp134
V0021300815
p135
aVFEB 21, 2014
p136
aVNOP @ CHA
p137
aVL
p138
aI14
aI1
aI1
aF1.0
aI0
aI0
aF0.0
aI0
aI0
aF0.0
aI0
aI4
aI4
aI0
aI0
aI0
aI2
aI3
aI2
aI3
aa(lp139
V0021300806
p140
aVFEB 19, 2014
p141
aVNOP vs. NYK
p142
aVL
p143
aI12
aI1
aI3
aF0.333
aI0
aI0
aF0.0
aI0
aI1
aF0.0
aI1
aI0
aI1
aI1
aI0
aI0
aI2
aI2
aI2
aI-3
aa(lp144
V0021300785
p145
aVFEB 12, 2014
p146
aVNOP @ MIL
p147
aVW
p148
aI22
aI7
aI7
aF1.0
aI0
aI0
aF0.0
aI2
aI2
aF1.0
aI1
aI8
aI9
aI3
aI0
aI1
aI3
aI2
aI16
aI10
aa(lp149
V0021300765
p150
aVFEB 10, 2014
p151
aVNOP @ TOR
p152
aVL
p153
aI9
aI1
aI3
aF0.333
aI0
aI0
aF0.0
aI0
aI0
aF0.0
aI1
aI0
aI1
aI0
aI0
aI0
aI1
aI1
aI2
aI-16
aa(lp154
V0021300759
p155
aVFEB 09, 2014
p156
aVNOP @ BKN
p157
aVL
p158
aI11
aI0
aI2
aF0.0
aI0
aI0
aF0.0
aI0
aI0
aF0.0
aI1
aI2
aI3
aI0
aI1
aI0
aI2
aI4
aI0
aI-5
aa(lp159
V0021300747
p160
aVFEB 07, 2014
p161
aVNOP vs. MIN
p162
aVW
p163
aI13
aI2
aI2
aF1.0
aI0
aI0
aF0.0
aI0
aI0
aF0.0
aI1
aI5
aI6
aI0
aI0
aI1
aI2
aI4
aI4
aI4
aa(lp164
V0021300731
p165
aVFEB 05, 2014
p166
aVNOP vs. ATL
p167
aVW
p168
aI15
aI2
aI3
aF0.667
aI0
aI0
aF0.0
aI0
aI0
aF0.0
aI1
aI3
aI4
aI0
aI0
aI1
aI0
aI3
aI4
aI-2
aa(lp169
V0021300715
p170
aVFEB 03, 2014
p171
aVNOP vs. SAS
p172
aVL
p173
aI27
aI4
aI6
aF0.667
aI0
aI0
aF0.0
aI0
aI0
aF0.0
aI3
aI7
aI10
aI1
aI1
aI2
aI2
aI2
aI8
aI-6
aa(lp174
V0021300703
p175
aVFEB 01, 2014
p176
aVNOP vs. CHI
p177
aVW
p178
aI18
aI4
aI4
aF1.0
aI0
aI0
aF0.0
aI0
aI0
aF0.0
aI3
aI0
aI3
aI0
aI0
aI3
aI3
aI5
aI8
aI14
aa(lp179
V0021300680
p180
aVJAN 29, 2014
p181
aVNOP @ MIN
p182
aVL
p183
aI16
aI2
aI5
aF0.4
aI0
aI0
aF0.0
aI0
aI0
aF0.0
aI2
aI3
aI5
aI0
aI0
aI0
aI3
aI2
aI4
aI0
aa(lp184
V0021300668
p185
aVJAN 28, 2014
p186
aVNOP @ CLE
p187
aVW
p188
aI17
aI0
aI2
aF0.0
aI0
aI0
aF0.0
aI0
aI0
aF0.0
aI1
aI4
aI5
aI1
aI0
aI0
aI3
aI2
aI0
aI6
aa(lp189
V0021300656
p190
aVJAN 26, 2014
p191
aVNOP vs. ORL
p192
aVW
p193
aI8
aI0
aI1
aF0.0
aI0
aI0
aF0.0
aI0
aI0
aF0.0
aI1
aI0
aI1
aI0
aI0
aI0
aI2
aI4
aI0
aI-1
aa(lp194
V0021300639
p195
aVJAN 24, 2014
p196
aVNOP @ DET
p197
aVW
p198
aI15
aI3
aI5
aF0.6
aI0
aI0
aF0.0
aI0
aI0
aF0.0
aI0
aI4
aI4
aI0
aI1
aI3
aI3
aI3
aI6
aI-14
aa(lp199
V0021300618
p200
aVJAN 21, 2014
p201
aVNOP vs. SAC
p202
aVL
p203
aI16
aI2
aI3
aF0.667
aI0
aI0
aF0.0
aI0
aI0
aF0.0
aI1
aI3
aI4
aI1
aI1
aI1
aI2
aI4
aI4
aI-8
aa(lp204
V0021300611
p205
aVJAN 20, 2014
p206
aVNOP @ MEM
p207
aVW
p208
aI22
aI5
aI8
aF0.625
aI0
aI0
aF0.0
aI0
aI0
aF0.0
aI1
aI5
aI6
aI0
aI1
aI0
aI0
aI2
aI10
aI5
aa(lp209
V0021300599
p210
aVJAN 18, 2014
p211
aVNOP vs. GSW
p212
aVL
p213
aI12
aI0
aI1
aF0.0
aI0
aI0
aF0.0
aI2
aI2
aF1.0
aI2
aI2
aI4
aI0
aI0
aI1
aI0
aI2
aI2
aI-4
aa(lp214
V0021300572
p215
aVJAN 15, 2014
p216
aVNOP vs. HOU
p217
aVL
p218
aI12
aI1
aI1
aF1.0
aI0
aI0
aF0.0
aI0
aI0
aF0.0
aI1
aI3
aI4
aI0
aI0
aI2
aI0
aI5
aI2
aI15
aa(lp219
V0021300559
p220
aVJAN 13, 2014
p221
aVNOP vs. SAS
p222
aVL
p223
aI20
aI3
aI6
aF0.5
aI0
aI0
aF0.0
aI1
aI2
aF0.5
aI0
aI4
aI4
aI0
aI0
aI2
aI0
aI0
aI7
aI-12
aa(lp224
V0021300549
p225
aVJAN 11, 2014
p226
aVNOP @ DAL
p227
aVL
p228
aI12
aI1
aI1
aF1.0
aI0
aI0
aF0.0
aI0
aI0
aF0.0
aI2
aI3
aI5
aI2
aI0
aI0
aI0
aI4
aI2
aI2
aa(lp229
V0021300536
p230
aVJAN 10, 2014
p231
aVNOP vs. DAL
p232
aVL
p233
aI5
aI0
aI0
aF0.0
aI0
aI0
aF0.0
aI0
aI0
aF0.0
aI1
aI1
aI2
aI0
aI0
aI0
aI2
aI0
aI0
aI-6
aa(lp234
V0021300525
p235
aVJAN 08, 2014
p236
aVNOP vs. WAS
p237
aVL
p238
aI15
aI3
aI5
aF0.6
aI0
aI0
aF0.0
aI0
aI0
aF0.0
aI1
aI5
aI6
aI2
aI0
aI1
aI0
aI2
aI6
aI8
aa(lp239
V0021300511
p240
aVJAN 07, 2014
p241
aVNOP @ MIA
p242
aVL
p243
aI14
aI1
aI2
aF0.5
aI0
aI0
aF0.0
aI2
aI2
aF1.0
aI1
aI1
aI2
aI0
aI0
aI0
aI0
aI2
aI4
aI-5
aa(lp244
V0021300489
p245
aVJAN 04, 2014
p246
aVNOP @ IND
p247
aVL
p248
aI32
aI5
aI7
aF0.714
aI0
aI0
aF0.0
aI7
aI10
aF0.7
aI3
aI4
aI7
aI1
aI1
aI1
aI2
aI2
aI17
aI3
aa(lp249
V0021300484
p250
aVJAN 03, 2014
p251
aVNOP @ BOS
p252
aVW
p253
aI12
aI0
aI2
aF0.0
aI0
aI0
aF0.0
aI0
aI0
aF0.0
aI1
aI0
aI1
aI1
aI0
aI0
aI0
aI4
aI0
aI-5
aa(lp254
V0021300470
p255
aVJAN 01, 2014
p256
aVNOP @ MIN
p257
aVL
p258
aI12
aI1
aI3
aF0.333
aI0
aI0
aF0.0
aI0
aI0
aF0.0
aI1
aI1
aI2
aI0
aI1
aI1
aI2
aI3
aI2
aI1
aa(lp259
V0021300456
p260
aVDEC 30, 2013
p261
aVNOP vs. POR
p262
aVW
p263
aI2
aI0
aI0
aF0.0
aI0
aI0
aF0.0
aI0
aI0
aF0.0
aI0
aI0
aI0
aI0
aI0
aI0
aI1
aI2
aI0
aI-3
aa(lp264
V0021300442
p265
aVDEC 28, 2013
p266
aVNOP @ HOU
p267
aVL
p268
aI5
aI1
aI2
aF0.5
aI0
aI0
aF0.0
aI0
aI0
aF0.0
aI0
aI0
aI0
aI1
aI0
aI0
aI0
aI1
aI2
aI-3
aa(lp269
V0021300432
p270
aVDEC 27, 2013
p271
aVNOP vs. DEN
p272
aVW
p273
aI20
aI2
aI3
aF0.667
aI0
aI0
aF0.0
aI0
aI0
aF0.0
aI2
aI6
aI8
aI2
aI0
aI1
aI2
aI2
aI4
aI9
aa(lp274
V0021300417
p275
aVDEC 23, 2013
p276
aVNOP @ SAC
p277
aVW
p278
aI14
aI3
aI4
aF0.75
aI0
aI0
aF0.0
aI0
aI0
aF0.0
aI1
aI3
aI4
aI1
aI1
aI0
aI2
aI6
aI6
aI0
aa(lp279
V0021300401
p280
aVDEC 21, 2013
p281
aVNOP @ POR
p282
aVL
p283
aI17
aI2
aI4
aF0.5
aI0
aI0
aF0.0
aI0
aI0
aF0.0
aI5
aI6
aI11
aI1
aI0
aI1
aI3
aI5
aI4
aI2
aasS'name'
p284
VAlexis Ajinca
p285
sS'experience'
p286
I5
s.