(dp0
S'age'
p1
I27
sS'stats'
p2
(lp3
(lp4
V0021301032
p5
aVMAR 22, 2014
p6
aVCHA vs. POR
p7
aVW
p8
aI4
aI0
aI0
aF0.0
aI0
aI0
aF0.0
aI0
aI0
aF0.0
aI0
aI1
aI1
aI0
aI1
aI0
aI0
aI1
aI0
aI0
aa(lp9
V0021301117
p10
aVAPR 02, 2014
p11
aVCHA @ PHI
p12
aVW
p13
aI6
aI0
aI1
aF0.0
aI0
aI0
aF0.0
aI0
aI0
aF0.0
aI0
aI1
aI1
aI0
aI0
aI0
aI0
aI0
aI0
aI-2
aasS'name'
p14
VDJ White
p15
sS'experience'
p16
I5
s.