(dp0
S'age'
p1
I26
sS'stats'
p2
(lp3
(lp4
V0021300386
p5
aVDEC 20, 2013
p6
aVCHA @ DET
p7
aVW
p8
aI16
aI1
aI1
aF1.0
aI0
aI0
aF0.0
aI0
aI0
aF0.0
aI0
aI0
aI0
aI0
aI0
aI0
aI0
aI0
aI2
aI-2
aa(lp9
V0021300394
p10
aVDEC 21, 2013
p11
aVCHA vs. UTA
p12
aVL
p13
aI18
aI0
aI1
aF0.0
aI0
aI1
aF0.0
aI0
aI0
aF0.0
aI0
aI2
aI2
aI0
aI0
aI0
aI0
aI3
aI0
aI2
aa(lp14
V0021300407
p15
aVDEC 23, 2013
p16
aVCHA vs. MIL
p17
aVW
p18
aI19
aI0
aI2
aF0.0
aI0
aI1
aF0.0
aI1
aI2
aF0.5
aI0
aI0
aI0
aI2
aI0
aI2
aI0
aI0
aI1
aI0
aa(lp19
V0021300427
p20
aVDEC 27, 2013
p21
aVCHA vs. OKC
p22
aVL
p23
aI13
aI0
aI3
aF0.0
aI0
aI2
aF0.0
aI2
aI2
aF1.0
aI1
aI2
aI3
aI0
aI0
aI0
aI1
aI3
aI2
aI-3
aa(lp24
V0021300440
p25
aVDEC 28, 2013
p26
aVCHA @ ATL
p27
aVL
p28
aI23
aI3
aI6
aF0.5
aI0
aI1
aF0.0
aI1
aI2
aF0.5
aI0
aI5
aI5
aI0
aI1
aI0
aI2
aI0
aI7
aI2
aa(lp29
V0021300458
p30
aVDEC 30, 2013
p31
aVCHA @ UTA
p32
aVL
p33
aI25
aI2
aI4
aF0.5
aI1
aI3
aF0.333
aI0
aI0
aF0.0
aI1
aI2
aI3
aI0
aI0
aI0
aI2
aI1
aI5
aI-1
aa(lp34
V0021300472
p35
aVJAN 01, 2014
p36
aVCHA @ LAC
p37
aVL
p38
aI17
aI1
aI1
aF1.0
aI0
aI0
aF0.0
aI0
aI0
aF0.0
aI1
aI1
aI2
aI0
aI0
aI0
aI2
aI0
aI2
aI-6
aa(lp39
V0021300480
p40
aVJAN 02, 2014
p41
aVCHA @ POR
p42
aVL
p43
aI24
aI6
aI8
aF0.75
aI2
aI3
aF0.667
aI6
aI7
aF0.857
aI0
aI4
aI4
aI2
aI1
aI1
aI1
aI0
aI20
aI-6
aa(lp44
V0021300497
p45
aVJAN 04, 2014
p46
aVCHA @ SAC
p47
aVW
p48
aI35
aI4
aI9
aF0.444
aI1
aI3
aF0.333
aI1
aI2
aF0.5
aI0
aI4
aI4
aI2
aI0
aI1
aI1
aI1
aI10
aI4
aa(lp49
V0021300508
p50
aVJAN 07, 2014
p51
aVCHA vs. WAS
p52
aVL
p53
aI30
aI2
aI4
aF0.5
aI2
aI3
aF0.667
aI0
aI0
aF0.0
aI0
aI6
aI6
aI1
aI1
aI0
aI1
aI0
aI6
aI-13
aa(lp54
V0021300535
p55
aVJAN 10, 2014
p56
aVCHA @ MIN
p57
aVL
p58
aI27
aI6
aI9
aF0.667
aI2
aI4
aF0.5
aI2
aI2
aF1.0
aI0
aI2
aI2
aI0
aI0
aI0
aI1
aI2
aI16
aI-25
aa(lp59
V0021300547
p60
aVJAN 11, 2014
p61
aVCHA @ CHI
p62
aVL
p63
aI29
aI0
aI1
aF0.0
aI0
aI0
aF0.0
aI0
aI0
aF0.0
aI0
aI0
aI0
aI1
aI0
aI0
aI1
aI0
aI0
aI-18
aa(lp64
V0021300562
p65
aVJAN 14, 2014
p66
aVCHA vs. NYK
p67
aVW
p68
aI1
aI0
aI0
aF0.0
aI0
aI0
aF0.0
aI0
aI0
aF0.0
aI0
aI0
aI0
aI0
aI0
aI0
aI0
aI0
aI0
aI-2
aa(lp69
V0021300567
p70
aVJAN 15, 2014
p71
aVCHA @ PHI
p72
aVL
p73
aI3
aI0
aI0
aF0.0
aI0
aI0
aF0.0
aI0
aI0
aF0.0
aI0
aI1
aI1
aI0
aI1
aI0
aI1
aI1
aI0
aI2
aa(lp74
V0021300593
p75
aVJAN 18, 2014
p76
aVCHA vs. MIA
p77
aVL
p78
aI6
aI1
aI1
aF1.0
aI1
aI1
aF1.0
aI0
aI0
aF0.0
aI0
aI0
aI0
aI0
aI0
aI0
aI0
aI1
aI3
aI2
aa(lp79
V0021300608
p80
aVJAN 20, 2014
p81
aVCHA vs. TOR
p82
aVW
p83
aI14
aI0
aI4
aF0.0
aI0
aI2
aF0.0
aI0
aI0
aF0.0
aI1
aI2
aI3
aI1
aI2
aI0
aI0
aI0
aI0
aI0
aa(lp84
V0021300621
p85
aVJAN 22, 2014
p86
aVCHA vs. LAC
p87
aVW
p88
aI12
aI1
aI3
aF0.333
aI0
aI2
aF0.0
aI0
aI0
aF0.0
aI0
aI1
aI1
aI1
aI0
aI1
aI0
aI3
aI2
aI5
aa(lp89
V0021300640
p90
aVJAN 24, 2014
p91
aVCHA @ NYK
p92
aVL
p93
aI16
aI5
aI7
aF0.714
aI4
aI5
aF0.8
aI0
aI0
aF0.0
aI0
aI0
aI0
aI0
aI0
aI0
aI1
aI1
aI14
aI1
aa(lp94
V0021300646
p95
aVJAN 25, 2014
p96
aVCHA vs. CHI
p97
aVL
p98
aI11
aI1
aI3
aF0.333
aI0
aI2
aF0.0
aI0
aI0
aF0.0
aI0
aI1
aI1
aI1
aI0
aI1
aI0
aI1
aI2
aI4
aa(lp99
V0021300682
p100
aVJAN 29, 2014
p101
aVCHA @ DEN
p102
aVW
p103
aI13
aI2
aI3
aF0.667
aI2
aI3
aF0.667
aI0
aI0
aF0.0
aI0
aI1
aI1
aI0
aI0
aI0
aI3
aI1
aI6
aI2
aa(lp104
V0021300695
p105
aVJAN 31, 2014
p106
aVCHA @ LAL
p107
aVW
p108
aI11
aI2
aI3
aF0.667
aI1
aI2
aF0.5
aI2
aI2
aF1.0
aI0
aI2
aI2
aI0
aI0
aI0
aI0
aI1
aI7
aI-4
aa(lp109
V0021300706
p110
aVFEB 01, 2014
p111
aVCHA @ PHX
p112
aVL
p113
aI24
aI0
aI4
aF0.0
aI0
aI2
aF0.0
aI3
aI4
aF0.75
aI0
aI3
aI3
aI2
aI0
aI1
aI1
aI1
aI3
aI6
aa(lp114
V0021300770
p115
aVFEB 11, 2014
p116
aVCHA vs. DAL
p117
aVW
p118
aI4
aI0
aI1
aF0.0
aI0
aI0
aF0.0
aI0
aI0
aF0.0
aI0
aI1
aI1
aI2
aI0
aI0
aI0
aI0
aI0
aI0
aa(lp119
V0021300801
p120
aVFEB 19, 2014
p121
aVCHA vs. DET
p122
aVW
p123
aI3
aI0
aI0
aF0.0
aI0
aI0
aF0.0
aI0
aI0
aF0.0
aI0
aI0
aI0
aI0
aI0
aI0
aI0
aI0
aI0
aI-4
aa(lp124
V0021300815
p125
aVFEB 21, 2014
p126
aVCHA vs. NOP
p127
aVW
p128
aI18
aI0
aI4
aF0.0
aI0
aI3
aF0.0
aI0
aI0
aF0.0
aI0
aI2
aI2
aI1
aI1
aI1
aI1
aI1
aI0
aI9
aa(lp129
V0021300887
p130
aVMAR 02, 2014
p131
aVCHA @ OKC
p132
aVL
p133
aI3
aI1
aI1
aF1.0
aI1
aI1
aF1.0
aI0
aI0
aF0.0
aI0
aI1
aI1
aI0
aI0
aI0
aI0
aI0
aI3
aI3
aa(lp134
V0021300893
p135
aVMAR 03, 2014
p136
aVCHA @ MIA
p137
aVL
p138
aI24
aI3
aI9
aF0.333
aI2
aI4
aF0.5
aI4
aI5
aF0.8
aI1
aI0
aI1
aI2
aI0
aI0
aI0
aI2
aI12
aI-10
aa(lp139
V0021300904
p140
aVMAR 05, 2014
p141
aVCHA vs. IND
p142
aVW
p143
aI29
aI4
aI7
aF0.571
aI3
aI3
aF1.0
aI1
aI2
aF0.5
aI0
aI2
aI2
aI3
aI3
aI0
aI0
aI1
aI12
aI26
aa(lp144
V0021300918
p145
aVMAR 07, 2014
p146
aVCHA vs. CLE
p147
aVW
p148
aI33
aI4
aI10
aF0.4
aI4
aI7
aF0.571
aI2
aI4
aF0.5
aI1
aI8
aI9
aI1
aI2
aI1
aI0
aI1
aI14
aI12
aa(lp149
V0021300930
p150
aVMAR 08, 2014
p151
aVCHA @ MEM
p152
aVL
p153
aI30
aI6
aI10
aF0.6
aI1
aI3
aF0.333
aI2
aI4
aF0.5
aI0
aI2
aI2
aI0
aI2
aI0
aI1
aI0
aI15
aI-12
aa(lp154
V0021300943
p155
aVMAR 10, 2014
p156
aVCHA vs. DEN
p157
aVW
p158
aI34
aI2
aI8
aF0.25
aI2
aI6
aF0.333
aI3
aI4
aF0.75
aI0
aI5
aI5
aI1
aI2
aI1
aI2
aI2
aI9
aI2
aa(lp159
V0021300961
p160
aVMAR 12, 2014
p161
aVCHA @ WAS
p162
aVW
p163
aI21
aI2
aI5
aF0.4
aI2
aI2
aF1.0
aI4
aI4
aF1.0
aI1
aI2
aI3
aI0
aI2
aI0
aI0
aI0
aI10
aI1
aa(lp164
V0021300971
p165
aVMAR 14, 2014
p166
aVCHA vs. MIN
p167
aVW
p168
aI21
aI3
aI5
aF0.6
aI2
aI4
aF0.5
aI2
aI2
aF1.0
aI0
aI4
aI4
aI2
aI2
aI0
aI0
aI0
aI10
aI11
aa(lp169
V0021300987
p170
aVMAR 16, 2014
p171
aVCHA @ MIL
p172
aVW
p173
aI13
aI0
aI3
aF0.0
aI0
aI2
aF0.0
aI0
aI0
aF0.0
aI1
aI2
aI3
aI1
aI0
aI1
aI1
aI5
aI0
aI-12
aa(lp174
V0021300996
p175
aVMAR 17, 2014
p176
aVCHA vs. ATL
p177
aVL
p178
aI17
aI1
aI3
aF0.333
aI0
aI2
aF0.0
aI1
aI1
aF1.0
aI0
aI1
aI1
aI1
aI0
aI0
aI0
aI1
aI3
aI-11
aa(lp179
V0021301010
p180
aVMAR 19, 2014
p181
aVCHA @ BKN
p182
aVL
p183
aI22
aI5
aI9
aF0.556
aI3
aI6
aF0.5
aI0
aI0
aF0.0
aI0
aI3
aI3
aI3
aI0
aI1
aI1
aI3
aI13
aI4
aa(lp184
V0021301032
p185
aVMAR 22, 2014
p186
aVCHA vs. POR
p187
aVW
p188
aI34
aI4
aI12
aF0.333
aI0
aI5
aF0.0
aI3
aI3
aF1.0
aI2
aI3
aI5
aI3
aI1
aI0
aI1
aI3
aI11
aI19
aa(lp189
V0021301047
p190
aVMAR 24, 2014
p191
aVCHA vs. HOU
p192
aVL
p193
aI26
aI2
aI6
aF0.333
aI0
aI2
aF0.0
aI3
aI3
aF1.0
aI0
aI2
aI2
aI2
aI2
aI0
aI0
aI3
aI7
aI-14
aa(lp194
V0021301061
p195
aVMAR 26, 2014
p196
aVCHA vs. BKN
p197
aVW
p198
aI27
aI6
aI14
aF0.429
aI3
aI8
aF0.375
aI1
aI1
aF1.0
aI3
aI2
aI5
aI2
aI0
aI0
aI1
aI2
aI16
aI-7
aa(lp199
V0021301075
p200
aVMAR 28, 2014
p201
aVCHA @ ORL
p202
aVL
p203
aI28
aI1
aI5
aF0.2
aI0
aI2
aF0.0
aI0
aI0
aF0.0
aI0
aI1
aI1
aI0
aI0
aI1
aI0
aI2
aI2
aI-16
aa(lp204
V0021301101
p205
aVMAR 31, 2014
p206
aVCHA vs. WAS
p207
aVW
p208
aI28
aI7
aI9
aF0.778
aI2
aI3
aF0.667
aI2
aI3
aF0.667
aI1
aI2
aI3
aI0
aI0
aI0
aI1
aI1
aI18
aI4
aa(lp209
V0021301117
p210
aVAPR 02, 2014
p211
aVCHA @ PHI
p212
aVW
p213
aI25
aI4
aI6
aF0.667
aI3
aI5
aF0.6
aI3
aI3
aF1.0
aI0
aI2
aI2
aI4
aI0
aI1
aI2
aI1
aI14
aI17
aa(lp214
V0021301130
p215
aVAPR 04, 2014
p216
aVCHA vs. ORL
p217
aVW
p218
aI31
aI1
aI5
aF0.2
aI0
aI3
aF0.0
aI3
aI4
aF0.75
aI0
aI3
aI3
aI3
aI1
aI0
aI1
aI1
aI5
aI6
aa(lp219
V0021301145
p220
aVAPR 05, 2014
p221
aVCHA @ CLE
p222
aVW
p223
aI31
aI3
aI9
aF0.333
aI1
aI4
aF0.25
aI2
aI2
aF1.0
aI0
aI6
aI6
aI3
aI0
aI0
aI3
aI3
aI9
aI0
aa(lp224
V0021301165
p225
aVAPR 09, 2014
p226
aVCHA @ WAS
p227
aVW
p228
aI21
aI2
aI5
aF0.4
aI2
aI4
aF0.5
aI0
aI0
aF0.0
aI0
aI3
aI3
aI0
aI1
aI0
aI0
aI0
aI6
aI7
aa(lp229
V0021301178
p230
aVAPR 11, 2014
p231
aVCHA @ BOS
p232
aVL
p233
aI28
aI3
aI8
aF0.375
aI0
aI4
aF0.0
aI6
aI7
aF0.857
aI0
aI2
aI2
aI2
aI2
aI0
aI1
aI0
aI12
aI-2
aa(lp234
V0021301190
p235
aVAPR 12, 2014
p236
aVCHA vs. PHI
p237
aVW
p238
aI26
aI4
aI8
aF0.5
aI2
aI5
aF0.4
aI2
aI2
aF1.0
aI2
aI2
aI4
aI1
aI0
aI1
aI1
aI3
aI12
aI-5
aa(lp239
V0021301207
p240
aVAPR 14, 2014
p241
aVCHA @ ATL
p242
aVW
p243
aI23
aI2
aI3
aF0.667
aI0
aI1
aF0.0
aI1
aI1
aF1.0
aI0
aI2
aI2
aI1
aI1
aI0
aI0
aI3
aI5
aI8
aa(lp244
V0021301223
p245
aVAPR 16, 2014
p246
aVCHA vs. CHI
p247
aVW
p248
aI30
aI4
aI10
aF0.4
aI2
aI3
aF0.667
aI3
aI4
aF0.75
aI0
aI1
aI1
aI0
aI1
aI1
aI1
aI3
aI13
aI4
aasS'name'
p249
VChris Douglas-Roberts
p250
sS'experience'
p251
I5
s.