(dp0
S'age'
p1
I26
sS'stats'
p2
(lp3
(lp4
V0021301221
p5
aVAPR 16, 2014
p6
aVLAL @ SAS
p7
aVW
p8
aI30
aI5
aI6
aF0.833
aI2
aI2
aF1.0
aI2
aI2
aF1.0
aI0
aI3
aI3
aI3
aI2
aI0
aI1
aI1
aI14
aI18
aa(lp9
V0021301211
p10
aVAPR 14, 2014
p11
aVLAL @ UTA
p12
aVW
p13
aI35
aI8
aI13
aF0.615
aI2
aI3
aF0.667
aI5
aI6
aF0.833
aI0
aI2
aI2
aI0
aI3
aI0
aI1
aI1
aI23
aI4
aa(lp14
V0021301203
p15
aVAPR 13, 2014
p16
aVLAL vs. MEM
p17
aVL
p18
aI39
aI7
aI12
aF0.583
aI1
aI3
aF0.333
aI5
aI5
aF1.0
aI0
aI0
aI0
aI1
aI0
aI0
aI0
aI1
aI20
aI-19
aa(lp19
V0021301188
p20
aVAPR 11, 2014
p21
aVLAL vs. GSW
p22
aVL
p23
aI34
aI2
aI12
aF0.167
aI1
aI2
aF0.5
aI5
aI8
aF0.625
aI0
aI1
aI1
aI2
aI2
aI0
aI2
aI2
aI10
aI-15
aa(lp24
V0021301161
p25
aVAPR 08, 2014
p26
aVLAL vs. HOU
p27
aVL
p28
aI38
aI12
aI21
aF0.571
aI2
aI6
aF0.333
aI4
aI5
aF0.8
aI1
aI3
aI4
aI6
aI1
aI0
aI1
aI0
aI30
aI-8
aa(lp29
V0021301150
p30
aVAPR 06, 2014
p31
aVLAL @ LAC
p32
aVL
p33
aI39
aI6
aI15
aF0.4
aI2
aI6
aF0.333
aI3
aI3
aF1.0
aI0
aI1
aI1
aI1
aI0
aI0
aI4
aI2
aI17
aI-27
aa(lp34
V0021301142
p35
aVAPR 04, 2014
p36
aVLAL vs. DAL
p37
aVL
p38
aI41
aI10
aI17
aF0.588
aI4
aI10
aF0.4
aI1
aI1
aF1.0
aI0
aI4
aI4
aI2
aI2
aI0
aI2
aI2
aI25
aI-9
aa(lp39
V0021301126
p40
aVAPR 02, 2014
p41
aVLAL @ SAC
p42
aVL
p43
aI36
aI8
aI15
aF0.533
aI2
aI6
aF0.333
aI3
aI3
aF1.0
aI1
aI2
aI3
aI1
aI0
aI0
aI1
aI1
aI21
aI0
aa(lp44
V0021301113
p45
aVAPR 01, 2014
p46
aVLAL vs. POR
p47
aVL
p48
aI27
aI2
aI7
aF0.286
aI0
aI2
aF0.0
aI0
aI0
aF0.0
aI0
aI2
aI2
aI2
aI0
aI0
aI1
aI0
aI4
aI-20
aa(lp49
V0021301100
p50
aVMAR 30, 2014
p51
aVLAL vs. PHX
p52
aVW
p53
aI40
aI6
aI9
aF0.667
aI1
aI3
aF0.333
aI9
aI10
aF0.9
aI0
aI3
aI3
aI2
aI1
aI0
aI0
aI2
aI22
aI13
aa(lp54
V0021301081
p55
aVMAR 28, 2014
p56
aVLAL @ MIN
p57
aVL
p58
aI32
aI6
aI13
aF0.462
aI1
aI4
aF0.25
aI6
aI6
aF1.0
aI1
aI1
aI2
aI0
aI1
aI0
aI0
aI1
aI19
aI-28
aa(lp59
V0021301073
p60
aVMAR 27, 2014
p61
aVLAL @ MIL
p62
aVL
p63
aI31
aI4
aI10
aF0.4
aI2
aI5
aF0.4
aI0
aI0
aF0.0
aI0
aI3
aI3
aI4
aI2
aI1
aI1
aI1
aI10
aI0
aa(lp64
V0021301060
p65
aVMAR 25, 2014
p66
aVLAL vs. NYK
p67
aVW
p68
aI25
aI5
aI11
aF0.455
aI4
aI7
aF0.571
aI0
aI0
aF0.0
aI0
aI2
aI2
aI3
aI4
aI0
aI3
aI1
aI14
aI15
aa(lp69
V0021301046
p70
aVMAR 23, 2014
p71
aVLAL vs. ORL
p72
aVW
p73
aI40
aI4
aI11
aF0.364
aI2
aI5
aF0.4
aI3
aI4
aF0.75
aI0
aI0
aI0
aI2
aI6
aI0
aI0
aI2
aI13
aI11
aa(lp74
V0021301031
p75
aVMAR 21, 2014
p76
aVLAL vs. WAS
p77
aVL
p78
aI34
aI7
aI17
aF0.412
aI2
aI4
aF0.5
aI5
aI6
aF0.833
aI0
aI0
aI0
aI2
aI4
aI0
aI0
aI1
aI21
aI-13
aa(lp79
V0021301017
p80
aVMAR 19, 2014
p81
aVLAL vs. SAS
p82
aVL
p83
aI37
aI4
aI10
aF0.4
aI1
aI5
aF0.2
aI2
aI2
aF1.0
aI0
aI4
aI4
aI4
aI0
aI0
aI1
aI1
aI11
aI-21
aa(lp84
V0021300978
p85
aVMAR 14, 2014
p86
aVLAL @ SAS
p87
aVL
p88
aI35
aI5
aI17
aF0.294
aI1
aI4
aF0.25
aI4
aI6
aF0.667
aI1
aI1
aI2
aI4
aI2
aI0
aI0
aI1
aI15
aI-31
aa(lp89
V0021300970
p90
aVMAR 13, 2014
p91
aVLAL @ OKC
p92
aVL
p93
aI31
aI6
aI15
aF0.4
aI3
aI4
aF0.75
aI4
aI4
aF1.0
aI2
aI1
aI3
aI2
aI1
aI0
aI2
aI2
aI19
aI-21
aa(lp94
V0021300935
p95
aVMAR 09, 2014
p96
aVLAL vs. OKC
p97
aVW
p98
aI37
aI11
aI18
aF0.611
aI6
aI11
aF0.545
aI14
aI14
aF1.0
aI0
aI2
aI2
aI0
aI4
aI0
aI3
aI2
aI42
aI14
aa(lp99
V0021300925
p100
aVMAR 07, 2014
p101
aVLAL @ DEN
p102
aVL
p103
aI34
aI6
aI15
aF0.4
aI1
aI4
aF0.25
aI3
aI4
aF0.75
aI1
aI2
aI3
aI3
aI0
aI0
aI2
aI1
aI16
aI-3
aa(lp104
V0021300916
p105
aVMAR 06, 2014
p106
aVLAL vs. LAC
p107
aVL
p108
aI31
aI3
aI11
aF0.273
aI0
aI2
aF0.0
aI1
aI1
aF1.0
aI0
aI0
aI0
aI1
aI0
aI0
aI1
aI1
aI7
aI-45
aa(lp109
V0021300903
p110
aVMAR 04, 2014
p111
aVLAL vs. NOP
p112
aVL
p113
aI31
aI7
aI12
aF0.583
aI2
aI5
aF0.4
aI1
aI1
aF1.0
aI0
aI0
aI0
aI0
aI3
aI0
aI1
aI3
aI17
aI-11
aa(lp114
V0021300896
p115
aVMAR 03, 2014
p116
aVLAL @ POR
p117
aVW
p118
aI39
aI8
aI16
aF0.5
aI2
aI6
aF0.333
aI3
aI3
aF1.0
aI1
aI2
aI3
aI1
aI1
aI1
aI1
aI1
aI21
aI11
aa(lp119
V0021300872
p120
aVFEB 28, 2014
p121
aVLAL vs. SAC
p122
aVW
p123
aI33
aI8
aI8
aF1.0
aI3
aI3
aF1.0
aI3
aI4
aF0.75
aI0
aI0
aI0
aI4
aI0
aI0
aI1
aI0
aI22
aI-1
aa(lp124
V0021300857
p125
aVFEB 26, 2014
p126
aVLAL @ MEM
p127
aVL
p128
aI37
aI7
aI10
aF0.7
aI2
aI4
aF0.5
aI3
aI4
aF0.75
aI0
aI4
aI4
aI0
aI1
aI0
aI2
aI1
aI19
aI0
aa(lp129
V0021300847
p130
aVFEB 25, 2014
p131
aVLAL @ IND
p132
aVL
p133
aI38
aI5
aI14
aF0.357
aI1
aI6
aF0.167
aI2
aI2
aF1.0
aI2
aI3
aI5
aI1
aI3
aI0
aI2
aI0
aI13
aI-12
aa(lp134
V0021300839
p135
aVFEB 23, 2014
p136
aVLAL vs. BKN
p137
aVL
p138
aI29
aI7
aI13
aF0.538
aI2
aI5
aF0.4
aI3
aI4
aF0.75
aI0
aI2
aI2
aI2
aI2
aI1
aI1
aI1
aI19
aI-7
aa(lp139
V0021300824
p140
aVFEB 21, 2014
p141
aVLAL vs. BOS
p142
aVW
p143
aI22
aI6
aI15
aF0.4
aI2
aI8
aF0.25
aI2
aI2
aF1.0
aI0
aI1
aI1
aI1
aI0
aI0
aI0
aI1
aI16
aI-4
aa(lp144
V0021300811
p145
aVFEB 19, 2014
p146
aVLAL vs. HOU
p147
aVL
p148
aI34
aI7
aI14
aF0.5
aI2
aI6
aF0.333
aI3
aI3
aF1.0
aI0
aI1
aI1
aI2
aI1
aI0
aI3
aI3
aI19
aI-17
aa(lp149
V0021300722
p150
aVFEB 04, 2014
p151
aVLAL @ MIN
p152
aVL
p153
aI1
aI0
aI2
aF0.0
aI0
aI2
aF0.0
aI0
aI0
aF0.0
aI0
aI0
aI0
aI0
aI0
aI0
aI0
aI0
aI0
aI-6
aa(lp154
V0021300695
p155
aVJAN 31, 2014
p156
aVLAL vs. CHA
p157
aVL
p158
aI37
aI5
aI15
aF0.333
aI3
aI10
aF0.3
aI6
aI6
aF1.0
aI0
aI2
aI2
aI1
aI2
aI0
aI0
aI4
aI19
aI-17
aa(lp159
V0021300674
p160
aVJAN 28, 2014
p161
aVLAL vs. IND
p162
aVL
p163
aI33
aI7
aI16
aF0.438
aI2
aI8
aF0.25
aI5
aI5
aF1.0
aI0
aI2
aI2
aI1
aI2
aI0
aI2
aI1
aI21
aI-10
aa(lp164
V0021300655
p165
aVJAN 26, 2014
p166
aVLAL @ NYK
p167
aVL
p168
aI43
aI8
aI13
aF0.615
aI6
aI8
aF0.75
aI2
aI2
aF1.0
aI0
aI3
aI3
aI1
aI2
aI0
aI2
aI2
aI24
aI-8
aa(lp169
V0021300633
p170
aVJAN 24, 2014
p171
aVLAL @ ORL
p172
aVL
p173
aI37
aI7
aI12
aF0.583
aI3
aI5
aF0.6
aI0
aI1
aF0.0
aI0
aI3
aI3
aI1
aI2
aI0
aI2
aI1
aI17
aI-1
aa(lp174
V0021300631
p175
aVJAN 23, 2014
p176
aVLAL @ MIA
p177
aVL
p178
aI36
aI7
aI13
aF0.538
aI4
aI6
aF0.667
aI4
aI4
aF1.0
aI0
aI0
aI0
aI1
aI2
aI0
aI1
aI1
aI22
aI-10
aa(lp179
V0021300613
p180
aVJAN 20, 2014
p181
aVLAL @ CHI
p182
aVL
p183
aI44
aI4
aI10
aF0.4
aI2
aI4
aF0.5
aI6
aI6
aF1.0
aI0
aI3
aI3
aI7
aI2
aI0
aI2
aI2
aI16
aI6
aa(lp184
V0021300601
p185
aVJAN 19, 2014
p186
aVLAL @ TOR
p187
aVW
p188
aI41
aI4
aI10
aF0.4
aI1
aI5
aF0.2
aI2
aI3
aF0.667
aI0
aI0
aI0
aI3
aI4
aI0
aI2
aI2
aI11
aI-5
aa(lp189
V0021300586
p190
aVJAN 17, 2014
p191
aVLAL @ BOS
p192
aVW
p193
aI42
aI6
aI13
aF0.462
aI2
aI4
aF0.5
aI3
aI5
aF0.6
aI1
aI6
aI7
aI3
aI1
aI0
aI3
aI2
aI17
aI17
aa(lp194
V0021300574
p195
aVJAN 15, 2014
p196
aVLAL @ PHX
p197
aVL
p198
aI43
aI5
aI9
aF0.556
aI1
aI4
aF0.25
aI3
aI3
aF1.0
aI0
aI2
aI2
aI3
aI1
aI0
aI3
aI2
aI14
aI-5
aa(lp199
V0021300565
p200
aVJAN 14, 2014
p201
aVLAL vs. CLE
p202
aVL
p203
aI41
aI9
aI14
aF0.643
aI6
aI10
aF0.6
aI2
aI4
aF0.5
aI0
aI3
aI3
aI4
aI0
aI0
aI0
aI1
aI26
aI-7
aa(lp204
V0021300542
p205
aVJAN 10, 2014
p206
aVLAL @ LAC
p207
aVL
p208
aI32
aI2
aI10
aF0.2
aI0
aI2
aF0.0
aI7
aI8
aF0.875
aI0
aI3
aI3
aI0
aI1
aI0
aI5
aI4
aI11
aI-43
aa(lp209
V0021300526
p210
aVJAN 08, 2014
p211
aVLAL @ HOU
p212
aVL
p213
aI35
aI5
aI13
aF0.385
aI2
aI5
aF0.4
aI9
aI10
aF0.9
aI0
aI3
aI3
aI2
aI2
aI0
aI4
aI3
aI21
aI-9
aa(lp214
V0021300516
p215
aVJAN 07, 2014
p216
aVLAL @ DAL
p217
aVL
p218
aI41
aI6
aI16
aF0.375
aI4
aI11
aF0.364
aI8
aI9
aF0.889
aI1
aI3
aI4
aI6
aI4
aI0
aI2
aI2
aI24
aI-5
aa(lp219
V0021300504
p220
aVJAN 05, 2014
p221
aVLAL vs. DEN
p222
aVL
p223
aI33
aI8
aI15
aF0.533
aI0
aI3
aF0.0
aI7
aI7
aF1.0
aI0
aI4
aI4
aI1
aI2
aI0
aI3
aI2
aI23
aI-20
aa(lp224
V0021300488
p225
aVJAN 03, 2014
p226
aVLAL vs. UTA
p227
aVW
p228
aI34
aI6
aI14
aF0.429
aI3
aI10
aF0.3
aI3
aI3
aF1.0
aI1
aI2
aI3
aI6
aI1
aI0
aI2
aI3
aI18
aI2
aa(lp229
V0021300467
p230
aVDEC 31, 2013
p231
aVLAL vs. MIL
p232
aVL
p233
aI42
aI2
aI9
aF0.222
aI0
aI4
aF0.0
aI0
aI0
aF0.0
aI0
aI3
aI3
aI1
aI2
aI0
aI1
aI4
aI4
aI-24
aa(lp234
V0021300452
p235
aVDEC 29, 2013
p236
aVLAL vs. PHI
p237
aVL
p238
aI33
aI5
aI12
aF0.417
aI4
aI8
aF0.5
aI1
aI1
aF1.0
aI1
aI3
aI4
aI2
aI1
aI0
aI1
aI3
aI15
aI-21
aa(lp239
V0021300433
p240
aVDEC 27, 2013
p241
aVLAL @ UTA
p242
aVL
p243
aI41
aI4
aI15
aF0.267
aI3
aI9
aF0.333
aI2
aI2
aF1.0
aI1
aI3
aI4
aI1
aI3
aI0
aI0
aI2
aI13
aI-7
aa(lp244
V0021300420
p245
aVDEC 25, 2013
p246
aVLAL vs. MIA
p247
aVL
p248
aI38
aI6
aI12
aF0.5
aI4
aI10
aF0.4
aI1
aI2
aF0.5
aI1
aI3
aI4
aI3
aI2
aI0
aI3
aI3
aI17
aI-1
aa(lp249
V0021300416
p250
aVDEC 23, 2013
p251
aVLAL @ PHX
p252
aVL
p253
aI40
aI6
aI15
aF0.4
aI2
aI5
aF0.4
aI4
aI7
aF0.571
aI1
aI4
aI5
aI4
aI3
aI0
aI1
aI3
aI18
aI-26
aa(lp254
V0021300402
p255
aVDEC 21, 2013
p256
aVLAL @ GSW
p257
aVL
p258
aI33
aI4
aI11
aF0.364
aI1
aI3
aF0.333
aI4
aI5
aF0.8
aI1
aI3
aI4
aI4
aI3
aI0
aI4
aI0
aI13
aI-13
aa(lp259
V0021300391
p260
aVDEC 20, 2013
p261
aVLAL vs. MIN
p262
aVW
p263
aI42
aI6
aI10
aF0.6
aI1
aI5
aF0.2
aI4
aI4
aF1.0
aI0
aI3
aI3
aI4
aI1
aI0
aI2
aI2
aI17
aI12
aa(lp264
V0021300366
p265
aVDEC 17, 2013
p266
aVLAL @ MEM
p267
aVW
p268
aI34
aI5
aI10
aF0.5
aI3
aI8
aF0.375
aI0
aI0
aF0.0
aI0
aI2
aI2
aI0
aI2
aI0
aI1
aI1
aI13
aI3
aa(lp269
V0021300357
p270
aVDEC 16, 2013
p271
aVLAL @ ATL
p272
aVL
p273
aI25
aI1
aI8
aF0.125
aI0
aI3
aF0.0
aI0
aI0
aF0.0
aI1
aI2
aI3
aI2
aI1
aI0
aI2
aI0
aI2
aI-11
aa(lp274
V0021300342
p275
aVDEC 14, 2013
p276
aVLAL @ CHA
p277
aVW
p278
aI23
aI1
aI4
aF0.25
aI0
aI1
aF0.0
aI0
aI0
aF0.0
aI1
aI1
aI2
aI0
aI1
aI0
aI0
aI1
aI2
aI-13
aa(lp279
V0021300336
p280
aVDEC 13, 2013
p281
aVLAL @ OKC
p282
aVL
p283
aI36
aI3
aI16
aF0.188
aI2
aI7
aF0.286
aI1
aI2
aF0.5
aI1
aI1
aI2
aI1
aI0
aI0
aI5
aI2
aI9
aI-22
aa(lp284
V0021300317
p285
aVDEC 10, 2013
p286
aVLAL vs. PHX
p287
aVL
p288
aI33
aI5
aI10
aF0.5
aI1
aI5
aF0.2
aI2
aI3
aF0.667
aI1
aI4
aI5
aI1
aI1
aI0
aI0
aI0
aI13
aI-15
aa(lp289
V0021300303
p290
aVDEC 08, 2013
p291
aVLAL vs. TOR
p292
aVL
p293
aI35
aI6
aI12
aF0.5
aI2
aI5
aF0.4
aI0
aI0
aF0.0
aI0
aI2
aI2
aI3
aI2
aI0
aI3
aI3
aI14
aI2
aa(lp294
V0021300289
p295
aVDEC 06, 2013
p296
aVLAL @ SAC
p297
aVW
p298
aI33
aI7
aI11
aF0.636
aI5
aI6
aF0.833
aI0
aI0
aF0.0
aI2
aI1
aI3
aI1
aI0
aI0
aI0
aI1
aI19
aI10
aa(lp299
V0021300255
p300
aVDEC 01, 2013
p301
aVLAL vs. POR
p302
aVL
p303
aI35
aI6
aI14
aF0.429
aI3
aI8
aF0.375
aI5
aI6
aF0.833
aI0
aI3
aI3
aI3
aI0
aI0
aI1
aI2
aI20
aI-15
aa(lp304
V0021300233
p305
aVNOV 29, 2013
p306
aVLAL @ DET
p307
aVW
p308
aI27
aI3
aI8
aF0.375
aI0
aI2
aF0.0
aI4
aI4
aF1.0
aI1
aI0
aI1
aI0
aI3
aI0
aI0
aI1
aI10
aI-6
aa(lp309
V0021300218
p310
aVNOV 27, 2013
p311
aVLAL @ BKN
p312
aVW
p313
aI31
aI3
aI10
aF0.3
aI1
aI4
aF0.25
aI4
aI4
aF1.0
aI1
aI1
aI2
aI3
aI0
aI0
aI1
aI2
aI11
aI-7
aa(lp314
V0021300212
p315
aVNOV 26, 2013
p316
aVLAL @ WAS
p317
aVL
p318
aI28
aI3
aI5
aF0.6
aI2
aI3
aF0.667
aI2
aI2
aF1.0
aI1
aI4
aI5
aI1
aI0
aI0
aI2
aI0
aI10
aI-2
aa(lp319
V0021300201
p320
aVNOV 24, 2013
p321
aVLAL vs. SAC
p322
aVW
p323
aI27
aI6
aI10
aF0.6
aI1
aI4
aF0.25
aI1
aI1
aF1.0
aI0
aI2
aI2
aI0
aI2
aI0
aI0
aI0
aI14
aI5
aa(lp324
V0021300186
p325
aVNOV 22, 2013
p326
aVLAL vs. GSW
p327
aVW
p328
aI28
aI3
aI10
aF0.3
aI2
aI5
aF0.4
aI0
aI0
aF0.0
aI0
aI1
aI1
aI0
aI1
aI0
aI1
aI1
aI8
aI-11
aa(lp329
V0021300149
p330
aVNOV 17, 2013
p331
aVLAL vs. DET
p332
aVW
p333
aI28
aI6
aI11
aF0.545
aI4
aI7
aF0.571
aI3
aI3
aF1.0
aI1
aI1
aI2
aI0
aI1
aI0
aI2
aI2
aI19
aI4
aa(lp334
V0021300134
p335
aVNOV 15, 2013
p336
aVLAL vs. MEM
p337
aVL
p338
aI38
aI10
aI16
aF0.625
aI5
aI9
aF0.556
aI0
aI1
aF0.0
aI0
aI3
aI3
aI0
aI1
aI0
aI2
aI2
aI25
aI1
aa(lp339
V0021300118
p340
aVNOV 13, 2013
p341
aVLAL @ DEN
p342
aVL
p343
aI27
aI1
aI5
aF0.2
aI1
aI3
aF0.333
aI0
aI2
aF0.0
aI0
aI0
aI0
aI0
aI0
aI0
aI0
aI2
aI3
aI-5
aa(lp344
V0021300110
p345
aVNOV 12, 2013
p346
aVLAL vs. NOP
p347
aVW
p348
aI26
aI5
aI7
aF0.714
aI3
aI5
aF0.6
aI2
aI2
aF1.0
aI0
aI3
aI3
aI0
aI1
aI0
aI1
aI3
aI15
aI15
aa(lp349
V0021300097
p350
aVNOV 10, 2013
p351
aVLAL vs. MIN
p352
aVL
p353
aI29
aI6
aI10
aF0.6
aI2
aI6
aF0.333
aI2
aI2
aF1.0
aI0
aI2
aI2
aI2
aI1
aI1
aI1
aI2
aI16
aI1
aa(lp354
V0021300081
p355
aVNOV 08, 2013
p356
aVLAL @ NOP
p357
aVL
p358
aI42
aI4
aI10
aF0.4
aI2
aI5
aF0.4
aI1
aI2
aF0.5
aI1
aI2
aI3
aI0
aI1
aI0
aI0
aI3
aI11
aI-7
aa(lp359
V0021300072
p360
aVNOV 07, 2013
p361
aVLAL @ HOU
p362
aVW
p363
aI26
aI6
aI9
aF0.667
aI5
aI7
aF0.714
aI1
aI1
aF1.0
aI0
aI3
aI3
aI2
aI0
aI0
aI1
aI4
aI18
aI-4
aa(lp364
V0021300056
p365
aVNOV 05, 2013
p366
aVLAL @ DAL
p367
aVL
p368
aI22
aI4
aI10
aF0.4
aI2
aI5
aF0.4
aI1
aI2
aF0.5
aI0
aI2
aI2
aI0
aI1
aI0
aI1
aI0
aI11
aI7
aa(lp369
V0021300046
p370
aVNOV 03, 2013
p371
aVLAL vs. ATL
p372
aVW
p373
aI17
aI2
aI5
aF0.4
aI1
aI2
aF0.5
aI0
aI0
aF0.0
aI0
aI2
aI2
aI2
aI1
aI0
aI0
aI0
aI5
aI0
aa(lp374
V0021300032
p375
aVNOV 01, 2013
p376
aVLAL vs. SAS
p377
aVL
p378
aI28
aI5
aI9
aF0.556
aI1
aI3
aF0.333
aI3
aI3
aF1.0
aI0
aI6
aI6
aI0
aI1
aI0
aI1
aI0
aI14
aI-5
aa(lp379
V0021300017
p380
aVOCT 30, 2013
p381
aVLAL @ GSW
p382
aVL
p383
aI22
aI4
aI8
aF0.5
aI1
aI3
aF0.333
aI5
aI6
aF0.833
aI1
aI2
aI3
aI0
aI0
aI0
aI2
aI0
aI14
aI-28
aa(lp384
V0021300003
p385
aVOCT 29, 2013
p386
aVLAL vs. LAC
p387
aVW
p388
aI26
aI4
aI8
aF0.5
aI3
aI6
aF0.5
aI2
aI2
aF1.0
aI0
aI3
aI3
aI2
aI1
aI0
aI2
aI2
aI13
aI19
aasS'name'
p389
VJodie Meeks
p390
sS'experience'
p391
I4
s.