(dp0
S'age'
p1
I27
sS'stats'
p2
(lp3
(lp4
V0021300017
p5
aVOCT 30, 2013
p6
aVGSW vs. LAL
p7
aVW
p8
aI24
aI5
aI8
aF0.625
aI3
aI6
aF0.5
aI0
aI0
aF0.0
aI1
aI3
aI4
aI4
aI0
aI0
aI2
aI1
aI13
aI3
aa(lp9
V0021300019
p10
aVOCT 31, 2013
p11
aVGSW @ LAC
p12
aVL
p13
aI10
aI0
aI2
aF0.0
aI0
aI1
aF0.0
aI0
aI0
aF0.0
aI0
aI1
aI1
aI1
aI0
aI0
aI1
aI4
aI0
aI-5
aa(lp14
V0021300040
p15
aVNOV 02, 2013
p16
aVGSW vs. SAC
p17
aVW
p18
aI16
aI2
aI6
aF0.333
aI1
aI3
aF0.333
aI0
aI0
aF0.0
aI0
aI0
aI0
aI3
aI1
aI0
aI0
aI2
aI5
aI-5
aa(lp19
V0021300048
p20
aVNOV 04, 2013
p21
aVGSW @ PHI
p22
aVW
p23
aI19
aI1
aI5
aF0.2
aI1
aI4
aF0.25
aI0
aI0
aF0.0
aI2
aI1
aI3
aI2
aI1
aI0
aI3
aI3
aI3
aI-14
aa(lp24
V0021300067
p25
aVNOV 06, 2013
p26
aVGSW @ MIN
p27
aVW
p28
aI9
aI0
aI2
aF0.0
aI0
aI1
aF0.0
aI0
aI0
aF0.0
aI0
aI1
aI1
aI0
aI0
aI0
aI1
aI1
aI0
aI4
aa(lp29
V0021300082
p30
aVNOV 08, 2013
p31
aVGSW @ SAS
p32
aVL
p33
aI28
aI8
aI14
aF0.571
aI5
aI9
aF0.556
aI0
aI0
aF0.0
aI0
aI2
aI2
aI1
aI0
aI0
aI0
aI2
aI21
aI2
aa(lp34
V0021300091
p35
aVNOV 09, 2013
p36
aVGSW @ MEM
p37
aVL
p38
aI6
aI1
aI2
aF0.5
aI1
aI1
aF1.0
aI0
aI0
aF0.0
aI0
aI0
aI0
aI0
aI0
aI0
aI1
aI0
aI3
aI-11
aa(lp39
V0021300304
p40
aVDEC 09, 2013
p41
aVGSW @ CHA
p42
aVL
p43
aI2
aI1
aI1
aF1.0
aI1
aI1
aF1.0
aI0
aI0
aF0.0
aI0
aI0
aI0
aI0
aI0
aI0
aI1
aI1
aI3
aI-7
aa(lp44
V0021300326
p45
aVDEC 11, 2013
p46
aVGSW vs. DAL
p47
aVW
p48
aI4
aI1
aI3
aF0.333
aI1
aI3
aF0.333
aI0
aI0
aF0.0
aI0
aI2
aI2
aI0
aI0
aI0
aI0
aI2
aI3
aI-3
aa(lp49
V0021300341
p50
aVDEC 13, 2013
p51
aVGSW vs. HOU
p52
aVL
p53
aI13
aI0
aI3
aF0.0
aI0
aI1
aF0.0
aI0
aI0
aF0.0
aI0
aI1
aI1
aI0
aI1
aI0
aI0
aI1
aI0
aI12
aa(lp54
V0021300355
p55
aVDEC 15, 2013
p56
aVGSW @ PHX
p57
aVL
p58
aI6
aI2
aI3
aF0.667
aI1
aI2
aF0.5
aI2
aI2
aF1.0
aI0
aI0
aI0
aI1
aI0
aI0
aI1
aI2
aI7
aI0
aa(lp59
V0021300368
p60
aVDEC 17, 2013
p61
aVGSW vs. NOP
p62
aVW
p63
aI15
aI0
aI2
aF0.0
aI0
aI2
aF0.0
aI1
aI1
aF1.0
aI1
aI1
aI2
aI1
aI1
aI0
aI1
aI0
aI1
aI-1
aa(lp64
V0021300382
p65
aVDEC 19, 2013
p66
aVGSW vs. SAS
p67
aVL
p68
aI8
aI1
aI3
aF0.333
aI1
aI3
aF0.333
aI0
aI0
aF0.0
aI0
aI0
aI0
aI0
aI0
aI0
aI0
aI0
aI3
aI3
aa(lp69
V0021300402
p70
aVDEC 21, 2013
p71
aVGSW vs. LAL
p72
aVW
p73
aI15
aI1
aI6
aF0.167
aI1
aI4
aF0.25
aI0
aI0
aF0.0
aI0
aI3
aI3
aI1
aI1
aI1
aI2
aI2
aI3
aI-7
aa(lp74
V0021300415
p75
aVDEC 23, 2013
p76
aVGSW @ DEN
p77
aVW
p78
aI9
aI0
aI1
aF0.0
aI0
aI0
aF0.0
aI0
aI0
aF0.0
aI0
aI1
aI1
aI0
aI0
aI0
aI0
aI1
aI0
aI-4
aa(lp79
V0021300422
p80
aVDEC 25, 2013
p81
aVGSW vs. LAC
p82
aVW
p83
aI6
aI1
aI2
aF0.5
aI1
aI2
aF0.5
aI0
aI1
aF0.0
aI0
aI0
aI0
aI1
aI0
aI0
aI0
aI3
aI3
aI-6
aa(lp84
V0021300435
p85
aVDEC 27, 2013
p86
aVGSW vs. PHX
p87
aVW
p88
aI14
aI2
aI4
aF0.5
aI0
aI2
aF0.0
aI2
aI4
aF0.5
aI0
aI1
aI1
aI2
aI1
aI0
aI2
aI4
aI6
aI2
aa(lp89
V0021300462
p90
aVDEC 31, 2013
p91
aVGSW @ ORL
p92
aVW
p93
aI18
aI0
aI3
aF0.0
aI0
aI3
aF0.0
aI0
aI0
aF0.0
aI0
aI1
aI1
aI1
aI0
aI1
aI0
aI1
aI0
aI-8
aa(lp94
V0021300474
p95
aVJAN 02, 2014
p96
aVGSW @ MIA
p97
aVW
p98
aI3
aI0
aI1
aF0.0
aI0
aI1
aF0.0
aI0
aI0
aF0.0
aI0
aI0
aI0
aI0
aI0
aI0
aI0
aI0
aI0
aI-6
aa(lp99
V0021300483
p100
aVJAN 03, 2014
p101
aVGSW @ ATL
p102
aVW
p103
aI9
aI2
aI5
aF0.4
aI0
aI2
aF0.0
aI0
aI0
aF0.0
aI0
aI0
aI0
aI0
aI0
aI0
aI0
aI0
aI4
aI-11
aa(lp104
V0021300501
p105
aVJAN 05, 2014
p106
aVGSW @ WAS
p107
aVW
p108
aI10
aI1
aI4
aF0.25
aI0
aI3
aF0.0
aI0
aI0
aF0.0
aI0
aI1
aI1
aI0
aI0
aI0
aI0
aI2
aI2
aI-19
aa(lp109
V0021300515
p110
aVJAN 07, 2014
p111
aVGSW @ MIL
p112
aVW
p113
aI12
aI3
aI6
aF0.5
aI2
aI5
aF0.4
aI0
aI0
aF0.0
aI0
aI2
aI2
aI0
aI0
aI0
aI0
aI2
aI8
aI10
aa(lp114
V0021300523
p115
aVJAN 08, 2014
p116
aVGSW @ BKN
p117
aVL
p118
aI3
aI0
aI0
aF0.0
aI0
aI0
aF0.0
aI0
aI0
aF0.0
aI0
aI0
aI0
aI0
aI0
aI0
aI0
aI0
aI0
aI-3
aa(lp119
V0021300541
p120
aVJAN 10, 2014
p121
aVGSW vs. BOS
p122
aVW
p123
aI5
aI0
aI0
aF0.0
aI0
aI0
aF0.0
aI0
aI0
aF0.0
aI0
aI1
aI1
aI1
aI0
aI0
aI1
aI0
aI0
aI-6
aa(lp124
V0021300675
p125
aVJAN 29, 2014
p126
aVMIA vs. OKC
p127
aVL
p128
aI2
aI1
aI1
aF1.0
aI0
aI0
aF0.0
aI0
aI0
aF0.0
aI0
aI0
aI0
aI0
aI0
aI0
aI0
aI1
aI2
aI4
aa(lp129
V0021300705
p130
aVFEB 01, 2014
p131
aVMIA @ NYK
p132
aVW
p133
aI1
aI0
aI0
aF0.0
aI0
aI0
aF0.0
aI1
aI2
aF0.5
aI1
aI0
aI1
aI0
aI0
aI0
aI0
aI0
aI1
aI-1
aa(lp134
V0021300736
p135
aVFEB 05, 2014
p136
aVMIA @ LAC
p137
aVW
p138
aI0
aI0
aI0
aF0.0
aI0
aI0
aF0.0
aI0
aI0
aF0.0
aI0
aI0
aI0
aI0
aI0
aI0
aI0
aI0
aI0
aI-3
aa(lp139
V0021300774
p140
aVFEB 11, 2014
p141
aVMIA @ PHX
p142
aVW
p143
aI15
aI2
aI9
aF0.222
aI1
aI4
aF0.25
aI0
aI0
aF0.0
aI1
aI2
aI3
aI2
aI0
aI1
aI0
aI2
aI5
aI-1
aa(lp144
V0021300788
p145
aVFEB 12, 2014
p146
aVMIA @ GSW
p147
aVW
p148
aI11
aI0
aI1
aF0.0
aI0
aI1
aF0.0
aI1
aI2
aF0.5
aI0
aI3
aI3
aI1
aI1
aI0
aI0
aI2
aI1
aI5
aa(lp149
V0021300834
p150
aVFEB 23, 2014
p151
aVMIA vs. CHI
p152
aVW
p153
aI1
aI0
aI0
aF0.0
aI0
aI0
aF0.0
aI0
aI0
aF0.0
aI0
aI0
aI0
aI0
aI0
aI0
aI0
aI0
aI0
aI1
aa(lp154
V0021300865
p155
aVFEB 27, 2014
p156
aVMIA vs. NYK
p157
aVW
p158
aI5
aI0
aI0
aF0.0
aI0
aI0
aF0.0
aI0
aI0
aF0.0
aI0
aI2
aI2
aI2
aI0
aI0
aI0
aI0
aI0
aI2
aa(lp159
V0021300874
p160
aVMAR 01, 2014
p161
aVMIA vs. ORL
p162
aVW
p163
aI3
aI0
aI2
aF0.0
aI0
aI0
aF0.0
aI0
aI0
aF0.0
aI0
aI1
aI1
aI0
aI0
aI0
aI1
aI1
aI0
aI-3
aa(lp164
V0021300893
p165
aVMAR 03, 2014
p166
aVMIA vs. CHA
p167
aVW
p168
aI19
aI4
aI5
aF0.8
aI2
aI3
aF0.667
aI0
aI0
aF0.0
aI0
aI2
aI2
aI1
aI1
aI1
aI0
aI3
aI10
aI8
aa(lp169
V0021300914
p170
aVMAR 06, 2014
p171
aVMIA @ SAS
p172
aVL
p173
aI2
aI0
aI0
aF0.0
aI0
aI0
aF0.0
aI0
aI0
aF0.0
aI0
aI0
aI0
aI0
aI0
aI0
aI0
aI0
aI0
aI-8
aa(lp174
V0021300989
p175
aVMAR 16, 2014
p176
aVMIA vs. HOU
p177
aVW
p178
aI2
aI0
aI1
aF0.0
aI0
aI0
aF0.0
aI0
aI0
aF0.0
aI0
aI0
aI0
aI0
aI0
aI0
aI0
aI0
aI0
aI-2
aa(lp179
V0021301003
p180
aVMAR 18, 2014
p181
aVMIA @ CLE
p182
aVW
p183
aI22
aI3
aI7
aF0.429
aI1
aI3
aF0.333
aI2
aI3
aF0.667
aI0
aI2
aI2
aI5
aI0
aI0
aI3
aI4
aI9
aI0
aa(lp184
V0021301036
p185
aVMAR 22, 2014
p186
aVMIA @ NOP
p187
aVL
p188
aI14
aI1
aI3
aF0.333
aI1
aI3
aF0.333
aI0
aI0
aF0.0
aI0
aI1
aI1
aI1
aI0
aI0
aI1
aI4
aI3
aI-1
aa(lp189
V0021301049
p190
aVMAR 24, 2014
p191
aVMIA vs. POR
p192
aVW
p193
aI18
aI0
aI3
aF0.0
aI0
aI2
aF0.0
aI0
aI0
aF0.0
aI1
aI1
aI2
aI3
aI1
aI0
aI0
aI3
aI0
aI12
aa(lp194
V0021301067
p195
aVMAR 26, 2014
p196
aVMIA @ IND
p197
aVL
p198
aI4
aI0
aI0
aF0.0
aI0
aI0
aF0.0
aI0
aI0
aF0.0
aI0
aI0
aI0
aI0
aI0
aI0
aI0
aI2
aI0
aI7
aa(lp199
V0021301079
p200
aVMAR 28, 2014
p201
aVMIA @ DET
p202
aVW
p203
aI30
aI3
aI7
aF0.429
aI0
aI0
aF0.0
aI3
aI4
aF0.75
aI3
aI2
aI5
aI5
aI1
aI0
aI0
aI3
aI9
aI16
aa(lp204
V0021301091
p205
aVMAR 29, 2014
p206
aVMIA @ MIL
p207
aVW
p208
aI39
aI5
aI10
aF0.5
aI1
aI4
aF0.25
aI2
aI2
aF1.0
aI2
aI7
aI9
aI4
aI1
aI0
aI3
aI1
aI13
aI17
aa(lp209
V0021301105
p210
aVMAR 31, 2014
p211
aVMIA vs. TOR
p212
aVW
p213
aI24
aI2
aI4
aF0.5
aI1
aI3
aF0.333
aI0
aI0
aF0.0
aI0
aI3
aI3
aI0
aI0
aI0
aI1
aI4
aI5
aI10
aa(lp214
V0021301121
p215
aVAPR 02, 2014
p216
aVMIA vs. MIL
p217
aVW
p218
aI26
aI3
aI7
aF0.429
aI0
aI1
aF0.0
aI3
aI4
aF0.75
aI4
aI3
aI7
aI3
aI2
aI0
aI0
aI2
aI9
aI13
aa(lp219
V0021301135
p220
aVAPR 04, 2014
p221
aVMIA vs. MIN
p222
aVL
p223
aI17
aI1
aI4
aF0.25
aI0
aI2
aF0.0
aI0
aI0
aF0.0
aI0
aI5
aI5
aI2
aI0
aI0
aI0
aI2
aI2
aI1
aa(lp224
V0021301149
p225
aVAPR 06, 2014
p226
aVMIA vs. NYK
p227
aVW
p228
aI25
aI2
aI5
aF0.4
aI0
aI2
aF0.0
aI1
aI2
aF0.5
aI1
aI2
aI3
aI3
aI0
aI0
aI1
aI3
aI5
aI-7
aa(lp229
V0021301158
p230
aVAPR 08, 2014
p231
aVMIA vs. BKN
p232
aVL
p233
aI23
aI2
aI5
aF0.4
aI2
aI5
aF0.4
aI0
aI0
aF0.0
aI0
aI2
aI2
aI1
aI0
aI0
aI1
aI2
aI6
aI1
aa(lp234
V0021301167
p235
aVAPR 09, 2014
p236
aVMIA @ MEM
p237
aVL
p238
aI17
aI0
aI2
aF0.0
aI0
aI0
aF0.0
aI0
aI0
aF0.0
aI1
aI0
aI1
aI5
aI1
aI0
aI1
aI0
aI0
aI6
aa(lp239
V0021301180
p240
aVAPR 11, 2014
p241
aVMIA vs. IND
p242
aVW
p243
aI15
aI3
aI3
aF1.0
aI1
aI1
aF1.0
aI0
aI0
aF0.0
aI0
aI1
aI1
aI3
aI1
aI0
aI0
aI2
aI7
aI10
aa(lp244
V0021301192
p245
aVAPR 12, 2014
p246
aVMIA @ ATL
p247
aVL
p248
aI13
aI0
aI3
aF0.0
aI0
aI0
aF0.0
aI0
aI0
aF0.0
aI0
aI3
aI3
aI1
aI0
aI1
aI0
aI3
aI0
aI0
aa(lp249
V0021301206
p250
aVAPR 14, 2014
p251
aVMIA @ WAS
p252
aVL
p253
aI35
aI5
aI8
aF0.625
aI1
aI3
aF0.333
aI3
aI3
aF1.0
aI0
aI3
aI3
aI3
aI2
aI0
aI4
aI1
aI14
aI-8
aa(lp254
V0021301225
p255
aVAPR 16, 2014
p256
aVMIA vs. PHI
p257
aVL
p258
aI29
aI4
aI14
aF0.286
aI1
aI6
aF0.167
aI4
aI4
aF1.0
aI0
aI2
aI2
aI4
aI2
aI0
aI2
aI2
aI13
aI-11
aasS'name'
p259
VToney Douglas
p260
sS'experience'
p261
I4
s.