(dp0
S'age'
p1
I25
sS'stats'
p2
(lp3
(lp4
V0021300981
p5
aVMAR 15, 2014
p6
aVNYK vs. MIL
p7
aVW
p8
aI3
aI1
aI1
aF1.0
aI0
aI0
aF0.0
aI0
aI0
aF0.0
aI0
aI0
aI0
aI0
aI0
aI0
aI0
aI0
aI2
aI5
aa(lp9
V0021300962
p10
aVMAR 12, 2014
p11
aVNYK @ BOS
p12
aVW
p13
aI20
aI2
aI5
aF0.4
aI1
aI1
aF1.0
aI1
aI2
aF0.5
aI1
aI5
aI6
aI1
aI1
aI2
aI1
aI3
aI6
aI22
aa(lp14
V0021300946
p15
aVMAR 10, 2014
p16
aVNYK vs. PHI
p17
aVW
p18
aI7
aI0
aI1
aF0.0
aI0
aI0
aF0.0
aI2
aI2
aF1.0
aI0
aI1
aI1
aI0
aI0
aI2
aI0
aI1
aI2
aI-8
aa(lp19
V0021300928
p20
aVMAR 08, 2014
p21
aVNYK @ CLE
p22
aVW
p23
aI1
aI0
aI0
aF0.0
aI0
aI0
aF0.0
aI0
aI0
aF0.0
aI0
aI0
aI0
aI0
aI0
aI0
aI0
aI0
aI0
aI-4
aa(lp24
V0021300921
p25
aVMAR 07, 2014
p26
aVNYK vs. UTA
p27
aVW
p28
aI16
aI1
aI5
aF0.2
aI0
aI3
aF0.0
aI1
aI2
aF0.5
aI0
aI2
aI2
aI0
aI0
aI0
aI0
aI0
aI3
aI-4
aa(lp29
V0021300911
p30
aVMAR 05, 2014
p31
aVNYK @ MIN
p32
aVW
p33
aI1
aI0
aI0
aF0.0
aI0
aI0
aF0.0
aI0
aI0
aF0.0
aI0
aI0
aI0
aI0
aI0
aI0
aI0
aI0
aI0
aI2
aa(lp34
V0021300883
p35
aVMAR 02, 2014
p36
aVNYK @ CHI
p37
aVL
p38
aI5
aI0
aI1
aF0.0
aI0
aI0
aF0.0
aI0
aI0
aF0.0
aI0
aI0
aI0
aI0
aI0
aI0
aI0
aI1
aI0
aI-1
aa(lp39
V0021300869
p40
aVFEB 28, 2014
p41
aVNYK vs. GSW
p42
aVL
p43
aI11
aI2
aI5
aF0.4
aI0
aI2
aF0.0
aI4
aI4
aF1.0
aI0
aI4
aI4
aI1
aI0
aI2
aI0
aI0
aI8
aI-4
aa(lp44
V0021300865
p45
aVFEB 27, 2014
p46
aVNYK @ MIA
p47
aVL
p48
aI6
aI1
aI3
aF0.333
aI0
aI0
aF0.0
aI0
aI0
aF0.0
aI1
aI2
aI3
aI0
aI0
aI0
aI0
aI1
aI2
aI0
aa(lp49
V0021300793
p50
aVFEB 18, 2014
p51
aVCLE @ PHI
p52
aVW
p53
aI7
aI0
aI0
aF0.0
aI0
aI0
aF0.0
aI0
aI0
aF0.0
aI0
aI1
aI1
aI0
aI0
aI0
aI0
aI0
aI0
aI0
aa(lp54
V0021300782
p55
aVFEB 12, 2014
p56
aVCLE @ DET
p57
aVW
p58
aI12
aI2
aI5
aF0.4
aI0
aI1
aF0.0
aI1
aI2
aF0.5
aI1
aI1
aI2
aI0
aI0
aI1
aI1
aI1
aI5
aI-2
aa(lp59
V0021300725
p60
aVFEB 05, 2014
p61
aVCLE vs. LAL
p62
aVL
p63
aI11
aI2
aI4
aF0.5
aI0
aI2
aF0.0
aI0
aI2
aF0.0
aI2
aI4
aI6
aI1
aI0
aI0
aI2
aI4
aI4
aI-11
aa(lp64
V0021300687
p65
aVJAN 30, 2014
p66
aVCLE @ NYK
p67
aVL
p68
aI13
aI1
aI3
aF0.333
aI0
aI1
aF0.0
aI0
aI0
aF0.0
aI0
aI3
aI3
aI1
aI0
aI0
aI0
aI1
aI2
aI2
aa(lp69
V0021300657
p70
aVJAN 26, 2014
p71
aVCLE vs. PHX
p72
aVL
p73
aI10
aI1
aI2
aF0.5
aI1
aI2
aF0.5
aI0
aI0
aF0.0
aI0
aI0
aI0
aI0
aI0
aI0
aI1
aI2
aI3
aI-10
aa(lp74
V0021300638
p75
aVJAN 24, 2014
p76
aVCLE vs. MIL
p77
aVW
p78
aI14
aI3
aI3
aF1.0
aI1
aI1
aF1.0
aI0
aI0
aF0.0
aI0
aI4
aI4
aI0
aI0
aI0
aI0
aI0
aI7
aI8
aa(lp79
V0021300622
p80
aVJAN 22, 2014
p81
aVCLE vs. CHI
p82
aVL
p83
aI6
aI2
aI5
aF0.4
aI0
aI2
aF0.0
aI1
aI1
aF1.0
aI0
aI0
aI0
aI0
aI1
aI0
aI0
aI2
aI5
aI0
aa(lp84
V0021300606
p85
aVJAN 20, 2014
p86
aVCLE vs. DAL
p87
aVL
p88
aI9
aI1
aI6
aF0.167
aI0
aI2
aF0.0
aI0
aI0
aF0.0
aI1
aI2
aI3
aI0
aI0
aI0
aI0
aI2
aI2
aI-17
aa(lp89
V0021300590
p90
aVJAN 17, 2014
p91
aVCLE @ DEN
p92
aVW
p93
aI11
aI2
aI4
aF0.5
aI0
aI1
aF0.0
aI0
aI0
aF0.0
aI0
aI1
aI1
aI0
aI0
aI0
aI1
aI1
aI4
aI0
aa(lp94
V0021300575
p95
aVJAN 15, 2014
p96
aVCLE @ POR
p97
aVL
p98
aI10
aI0
aI3
aF0.0
aI0
aI2
aF0.0
aI0
aI0
aF0.0
aI0
aI2
aI2
aI1
aI0
aI0
aI0
aI0
aI0
aI-4
aa(lp99
V0021300565
p100
aVJAN 14, 2014
p101
aVCLE @ LAL
p102
aVW
p103
aI5
aI1
aI2
aF0.5
aI0
aI0
aF0.0
aI0
aI0
aF0.0
aI1
aI0
aI1
aI0
aI0
aI0
aI0
aI0
aI2
aI-9
aa(lp104
V0021300552
p105
aVJAN 12, 2014
p106
aVCLE @ SAC
p107
aVL
p108
aI24
aI4
aI7
aF0.571
aI2
aI3
aF0.667
aI1
aI2
aF0.5
aI1
aI4
aI5
aI1
aI0
aI0
aI1
aI2
aI11
aI-25
aa(lp109
V0021300539
p110
aVJAN 10, 2014
p111
aVCLE @ UTA
p112
aVW
p113
aI5
aI0
aI3
aF0.0
aI0
aI3
aF0.0
aI0
aI0
aF0.0
aI0
aI0
aI0
aI0
aI0
aI0
aI0
aI1
aI0
aI0
aa(lp114
V0021300509
p115
aVJAN 07, 2014
p116
aVCLE vs. PHI
p117
aVW
p118
aI11
aI1
aI6
aF0.167
aI0
aI2
aF0.0
aI0
aI0
aF0.0
aI0
aI3
aI3
aI0
aI0
aI1
aI0
aI0
aI2
aI5
aa(lp119
V0021300499
p120
aVJAN 05, 2014
p121
aVCLE vs. IND
p122
aVL
p123
aI18
aI0
aI6
aF0.0
aI0
aI3
aF0.0
aI2
aI2
aF1.0
aI1
aI1
aI2
aI0
aI0
aI0
aI1
aI2
aI2
aI-3
aa(lp124
V0021300491
p125
aVJAN 04, 2014
p126
aVCLE @ BKN
p127
aVL
p128
aI24
aI3
aI9
aF0.333
aI1
aI4
aF0.25
aI0
aI0
aF0.0
aI0
aI6
aI6
aI0
aI0
aI0
aI0
aI0
aI7
aI-4
aa(lp129
V0021300473
p130
aVJAN 02, 2014
p131
aVCLE vs. ORL
p132
aVW
p133
aI20
aI2
aI10
aF0.2
aI0
aI5
aF0.0
aI0
aI0
aF0.0
aI1
aI1
aI2
aI2
aI2
aI2
aI2
aI0
aI4
aI-3
aa(lp134
V0021300461
p135
aVDEC 31, 2013
p136
aVCLE @ IND
p137
aVL
p138
aI34
aI2
aI11
aF0.182
aI1
aI5
aF0.2
aI2
aI2
aF1.0
aI0
aI4
aI4
aI0
aI0
aI1
aI0
aI4
aI7
aI-4
aa(lp139
V0021300448
p140
aVDEC 29, 2013
p141
aVCLE vs. GSW
p142
aVL
p143
aI13
aI2
aI3
aF0.667
aI1
aI2
aF0.5
aI1
aI1
aF1.0
aI0
aI4
aI4
aI1
aI0
aI2
aI1
aI0
aI6
aI1
aa(lp144
V0021300436
p145
aVDEC 28, 2013
p146
aVCLE @ BOS
p147
aVL
p148
aI24
aI4
aI9
aF0.444
aI3
aI5
aF0.6
aI1
aI2
aF0.5
aI0
aI3
aI3
aI1
aI1
aI1
aI1
aI1
aI12
aI-12
aa(lp149
V0021300423
p150
aVDEC 26, 2013
p151
aVCLE vs. ATL
p152
aVL
p153
aI18
aI1
aI4
aF0.25
aI1
aI1
aF1.0
aI0
aI0
aF0.0
aI1
aI4
aI5
aI1
aI0
aI1
aI0
aI1
aI3
aI0
aa(lp154
V0021300408
p155
aVDEC 23, 2013
p156
aVCLE vs. DET
p157
aVL
p158
aI14
aI2
aI10
aF0.2
aI2
aI8
aF0.25
aI0
aI0
aF0.0
aI0
aI1
aI1
aI0
aI0
aI2
aI2
aI0
aI6
aI-16
aa(lp159
V0021300397
p160
aVDEC 21, 2013
p161
aVCLE @ CHI
p162
aVL
p163
aI6
aI1
aI3
aF0.333
aI0
aI2
aF0.0
aI0
aI0
aF0.0
aI1
aI0
aI1
aI0
aI0
aI0
aI0
aI1
aI2
aI-6
aa(lp164
V0021300385
p165
aVDEC 20, 2013
p166
aVCLE vs. MIL
p167
aVW
p168
aI19
aI5
aI8
aF0.625
aI4
aI6
aF0.667
aI0
aI0
aF0.0
aI0
aI3
aI3
aI0
aI1
aI0
aI1
aI2
aI14
aI-2
aa(lp169
V0021300365
p170
aVDEC 17, 2013
p171
aVCLE vs. POR
p172
aVL
p173
aI9
aI1
aI4
aF0.25
aI1
aI3
aF0.333
aI0
aI0
aF0.0
aI1
aI1
aI2
aI0
aI0
aI1
aI0
aI2
aI3
aI4
aa(lp174
V0021300344
p175
aVDEC 14, 2013
p176
aVCLE @ MIA
p177
aVL
p178
aI16
aI5
aI9
aF0.556
aI2
aI5
aF0.4
aI0
aI0
aF0.0
aI1
aI1
aI2
aI0
aI0
aI0
aI0
aI1
aI12
aI-1
aa(lp179
V0021300330
p180
aVDEC 13, 2013
p181
aVCLE @ ORL
p182
aVW
p183
aI18
aI3
aI4
aF0.75
aI3
aI4
aF0.75
aI0
aI0
aF0.0
aI1
aI4
aI5
aI0
aI0
aI0
aI1
aI2
aI9
aI8
aa(lp184
V0021300310
p185
aVDEC 10, 2013
p186
aVCLE vs. NYK
p187
aVW
p188
aI10
aI1
aI1
aF1.0
aI0
aI0
aF0.0
aI0
aI0
aF0.0
aI0
aI4
aI4
aI0
aI0
aI0
aI1
aI1
aI2
aI-9
aa(lp189
V0021300291
p190
aVDEC 07, 2013
p191
aVCLE vs. LAC
p192
aVW
p193
aI9
aI2
aI5
aF0.4
aI1
aI4
aF0.25
aI0
aI0
aF0.0
aI0
aI0
aI0
aI0
aI0
aI0
aI0
aI1
aI5
aI6
aa(lp194
V0021300282
p195
aVDEC 06, 2013
p196
aVCLE @ ATL
p197
aVL
p198
aI6
aI1
aI3
aF0.333
aI0
aI1
aF0.0
aI0
aI0
aF0.0
aI0
aI0
aI0
aI0
aI0
aI0
aI0
aI0
aI2
aI-6
aa(lp199
V0021300269
p200
aVDEC 04, 2013
p201
aVCLE vs. DEN
p202
aVW
p203
aI14
aI1
aI2
aF0.5
aI0
aI1
aF0.0
aI1
aI2
aF0.5
aI0
aI4
aI4
aI0
aI0
aI2
aI0
aI1
aI3
aI6
aa(lp204
V0021300232
p205
aVNOV 29, 2013
p206
aVCLE @ BOS
p207
aVL
p208
aI12
aI0
aI5
aF0.0
aI0
aI2
aF0.0
aI1
aI2
aF0.5
aI0
aI2
aI2
aI0
aI1
aI0
aI1
aI1
aI1
aI-4
aa(lp209
V0021300219
p210
aVNOV 27, 2013
p211
aVCLE vs. MIA
p212
aVL
p213
aI27
aI5
aI11
aF0.455
aI3
aI5
aF0.6
aI0
aI0
aF0.0
aI1
aI1
aI2
aI2
aI2
aI0
aI0
aI4
aI13
aI0
aa(lp214
V0021300194
p215
aVNOV 23, 2013
p216
aVCLE @ SAS
p217
aVL
p218
aI9
aI1
aI4
aF0.25
aI1
aI3
aF0.333
aI0
aI0
aF0.0
aI0
aI1
aI1
aI0
aI0
aI1
aI0
aI0
aI3
aI-1
aa(lp219
V0021300183
p220
aVNOV 22, 2013
p221
aVCLE @ NOP
p222
aVL
p223
aI28
aI4
aI6
aF0.667
aI3
aI5
aF0.6
aI0
aI0
aF0.0
aI0
aI2
aI2
aI0
aI0
aI0
aI1
aI3
aI11
aI-8
aa(lp224
V0021300162
p225
aVNOV 20, 2013
p226
aVCLE vs. WAS
p227
aVL
p228
aI29
aI1
aI6
aF0.167
aI1
aI3
aF0.333
aI0
aI2
aF0.0
aI0
aI8
aI8
aI3
aI0
aI0
aI3
aI1
aI3
aI-14
aa(lp229
V0021300138
p230
aVNOV 16, 2013
p231
aVCLE @ WAS
p232
aVW
p233
aI33
aI4
aI6
aF0.667
aI3
aI4
aF0.75
aI0
aI0
aF0.0
aI0
aI3
aI3
aI0
aI2
aI2
aI2
aI4
aI11
aI-5
aa(lp234
V0021300129
p235
aVNOV 15, 2013
p236
aVCLE vs. CHA
p237
aVL
p238
aI25
aI6
aI7
aF0.857
aI3
aI3
aF1.0
aI0
aI0
aF0.0
aI1
aI4
aI5
aI0
aI0
aI1
aI1
aI3
aI15
aI1
aa(lp239
V0021300115
p240
aVNOV 13, 2013
p241
aVCLE @ MIN
p242
aVL
p243
aI14
aI3
aI8
aF0.375
aI1
aI3
aF0.333
aI0
aI0
aF0.0
aI0
aI2
aI2
aI0
aI0
aI0
aI1
aI1
aI7
aI0
aa(lp244
V0021300076
p245
aVNOV 08, 2013
p246
aVCLE @ PHI
p247
aVL
p248
aI16
aI2
aI9
aF0.222
aI0
aI4
aF0.0
aI0
aI0
aF0.0
aI2
aI1
aI3
aI0
aI2
aI1
aI0
aI0
aI4
aI-2
aa(lp249
V0021300066
p250
aVNOV 06, 2013
p251
aVCLE @ MIL
p252
aVL
p253
aI13
aI1
aI2
aF0.5
aI1
aI1
aF1.0
aI0
aI0
aF0.0
aI0
aI2
aI2
aI0
aI1
aI0
aI0
aI3
aI3
aI-1
aa(lp254
V0021300047
p255
aVNOV 04, 2013
p256
aVCLE vs. MIN
p257
aVW
p258
aI11
aI3
aI4
aF0.75
aI0
aI0
aF0.0
aI0
aI0
aF0.0
aI0
aI0
aI0
aI1
aI2
aI0
aI1
aI4
aI6
aI3
aa(lp259
V0021300033
p260
aVNOV 02, 2013
p261
aVCLE @ IND
p262
aVL
p263
aI18
aI0
aI4
aF0.0
aI0
aI1
aF0.0
aI2
aI2
aF1.0
aI0
aI7
aI7
aI0
aI0
aI0
aI2
aI0
aI2
aI-6
aa(lp264
V0021300020
p265
aVNOV 01, 2013
p266
aVCLE @ CHA
p267
aVL
p268
aI17
aI0
aI4
aF0.0
aI0
aI0
aF0.0
aI0
aI0
aF0.0
aI0
aI3
aI3
aI0
aI1
aI0
aI1
aI0
aI0
aI-5
aa(lp269
V0021300004
p270
aVOCT 30, 2013
p271
aVCLE vs. BKN
p272
aVW
p273
aI27
aI4
aI10
aF0.4
aI0
aI1
aF0.0
aI1
aI2
aF0.5
aI3
aI5
aI8
aI1
aI0
aI0
aI1
aI2
aI9
aI2
aasS'name'
p274
VEarl Clark
p275
sS'experience'
p276
I4
s.