(dp0
S'age'
p1
I25
sS'stats'
p2
(lp3
(lp4
V0021300013
p5
aVOCT 30, 2013
p6
aVSAS vs. MEM
p7
aVW
p8
aI17
aI4
aI4
aF1.0
aI3
aI3
aF1.0
aI1
aI1
aF1.0
aI1
aI0
aI1
aI1
aI0
aI0
aI0
aI0
aI12
aI7
aa(lp9
V0021300032
p10
aVNOV 01, 2013
p11
aVSAS @ LAL
p12
aVW
p13
aI12
aI2
aI6
aF0.333
aI0
aI0
aF0.0
aI0
aI0
aF0.0
aI0
aI1
aI1
aI2
aI1
aI0
aI1
aI0
aI4
aI-8
aa(lp14
V0021300039
p15
aVNOV 02, 2013
p16
aVSAS @ POR
p17
aVL
p18
aI15
aI2
aI3
aF0.667
aI1
aI1
aF1.0
aI0
aI0
aF0.0
aI0
aI2
aI2
aI1
aI0
aI0
aI1
aI1
aI5
aI-5
aa(lp19
V0021300057
p20
aVNOV 05, 2013
p21
aVSAS @ DEN
p22
aVW
p23
aI14
aI3
aI5
aF0.6
aI2
aI2
aF1.0
aI0
aI0
aF0.0
aI0
aI0
aI0
aI2
aI3
aI0
aI1
aI4
aI8
aI9
aa(lp24
V0021300068
p25
aVNOV 06, 2013
p26
aVSAS vs. PHX
p27
aVW
p28
aI17
aI1
aI5
aF0.2
aI0
aI0
aF0.0
aI0
aI0
aF0.0
aI0
aI1
aI1
aI3
aI0
aI0
aI0
aI3
aI2
aI-2
aa(lp29
V0021300082
p30
aVNOV 08, 2013
p31
aVSAS vs. GSW
p32
aVW
p33
aI11
aI2
aI4
aF0.5
aI2
aI2
aF1.0
aI0
aI0
aF0.0
aI0
aI0
aI0
aI1
aI1
aI0
aI0
aI0
aI6
aI-5
aa(lp34
V0021300094
p35
aVNOV 10, 2013
p36
aVSAS @ NYK
p37
aVW
p38
aI23
aI4
aI11
aF0.364
aI2
aI7
aF0.286
aI5
aI5
aF1.0
aI0
aI1
aI1
aI0
aI0
aI0
aI2
aI1
aI15
aI10
aa(lp39
V0021300100
p40
aVNOV 11, 2013
p41
aVSAS @ PHI
p42
aVW
p43
aI19
aI4
aI8
aF0.5
aI2
aI5
aF0.4
aI0
aI0
aF0.0
aI1
aI2
aI3
aI2
aI4
aI0
aI0
aI2
aI10
aI-1
aa(lp44
V0021300117
p45
aVNOV 13, 2013
p46
aVSAS vs. WAS
p47
aVW
p48
aI16
aI3
aI8
aF0.375
aI1
aI4
aF0.25
aI0
aI0
aF0.0
aI0
aI1
aI1
aI0
aI1
aI0
aI0
aI2
aI7
aI15
aa(lp49
V0021300133
p50
aVNOV 15, 2013
p51
aVSAS @ UTA
p52
aVW
p53
aI10
aI2
aI3
aF0.667
aI0
aI1
aF0.0
aI0
aI0
aF0.0
aI0
aI0
aI0
aI1
aI1
aI0
aI2
aI0
aI4
aI-1
aa(lp54
V0021300170
p55
aVNOV 20, 2013
p56
aVSAS vs. BOS
p57
aVW
p58
aI19
aI1
aI6
aF0.167
aI1
aI3
aF0.333
aI0
aI0
aF0.0
aI1
aI1
aI2
aI3
aI2
aI0
aI0
aI0
aI3
aI3
aa(lp59
V0021300181
p60
aVNOV 22, 2013
p61
aVSAS @ MEM
p62
aVW
p63
aI12
aI1
aI2
aF0.5
aI0
aI1
aF0.0
aI3
aI5
aF0.6
aI0
aI1
aI1
aI1
aI2
aI0
aI0
aI0
aI5
aI14
aa(lp64
V0021300194
p65
aVNOV 23, 2013
p66
aVSAS vs. CLE
p67
aVW
p68
aI23
aI5
aI8
aF0.625
aI3
aI6
aF0.5
aI2
aI2
aF1.0
aI0
aI3
aI3
aI3
aI1
aI0
aI2
aI0
aI15
aI14
aa(lp69
V0021300208
p70
aVNOV 25, 2013
p71
aVSAS vs. NOP
p72
aVW
p73
aI22
aI5
aI10
aF0.5
aI1
aI5
aF0.2
aI1
aI1
aF1.0
aI1
aI0
aI1
aI2
aI1
aI1
aI1
aI3
aI12
aI-3
aa(lp74
V0021300224
p75
aVNOV 27, 2013
p76
aVSAS @ OKC
p77
aVL
p78
aI14
aI3
aI5
aF0.6
aI3
aI4
aF0.75
aI0
aI0
aF0.0
aI0
aI1
aI1
aI1
aI1
aI0
aI0
aI1
aI9
aI3
aa(lp79
V0021300229
p80
aVNOV 29, 2013
p81
aVSAS @ ORL
p82
aVW
p83
aI23
aI4
aI8
aF0.5
aI0
aI2
aF0.0
aI0
aI0
aF0.0
aI0
aI2
aI2
aI2
aI1
aI0
aI1
aI0
aI8
aI14
aa(lp84
V0021300245
p85
aVNOV 30, 2013
p86
aVSAS vs. HOU
p87
aVL
p88
aI10
aI0
aI2
aF0.0
aI0
aI1
aF0.0
aI2
aI2
aF1.0
aI0
aI1
aI1
aI0
aI0
aI0
aI0
aI1
aI2
aI-5
aa(lp89
V0021300258
p90
aVDEC 02, 2013
p91
aVSAS vs. ATL
p92
aVW
p93
aI15
aI2
aI4
aF0.5
aI1
aI2
aF0.5
aI1
aI2
aF0.5
aI0
aI2
aI2
aI0
aI0
aI0
aI2
aI1
aI6
aI15
aa(lp94
V0021300296
p95
aVDEC 07, 2013
p96
aVSAS vs. IND
p97
aVL
p98
aI21
aI3
aI9
aF0.333
aI3
aI7
aF0.429
aI1
aI2
aF0.5
aI2
aI3
aI5
aI6
aI3
aI0
aI0
aI2
aI10
aI9
aa(lp99
V0021300312
p100
aVDEC 10, 2013
p101
aVSAS @ TOR
p102
aVW
p103
aI16
aI3
aI6
aF0.5
aI3
aI4
aF0.75
aI2
aI2
aF1.0
aI0
aI0
aI0
aI0
aI1
aI0
aI2
aI1
aI11
aI8
aa(lp104
V0021300321
p105
aVDEC 11, 2013
p106
aVSAS @ MIL
p107
aVW
p108
aI10
aI4
aI7
aF0.571
aI1
aI4
aF0.25
aI0
aI1
aF0.0
aI1
aI0
aI1
aI0
aI0
aI0
aI1
aI0
aI9
aI-5
aa(lp109
V0021300338
p110
aVDEC 13, 2013
p111
aVSAS vs. MIN
p112
aVW
p113
aI7
aI1
aI2
aF0.5
aI0
aI1
aF0.0
aI2
aI2
aF1.0
aI0
aI1
aI1
aI0
aI1
aI0
aI0
aI2
aI4
aI7
aa(lp114
V0021300349
p115
aVDEC 14, 2013
p116
aVSAS @ UTA
p117
aVW
p118
aI17
aI5
aI7
aF0.714
aI1
aI2
aF0.5
aI0
aI0
aF0.0
aI2
aI1
aI3
aI2
aI1
aI0
aI0
aI2
aI11
aI7
aa(lp119
V0021300363
p120
aVDEC 16, 2013
p121
aVSAS @ LAC
p122
aVL
p123
aI14
aI3
aI7
aF0.429
aI2
aI4
aF0.5
aI0
aI0
aF0.0
aI0
aI0
aI0
aI0
aI0
aI1
aI2
aI2
aI8
aI-12
aa(lp124
V0021300378
p125
aVDEC 18, 2013
p126
aVSAS @ PHX
p127
aVW
p128
aI31
aI4
aI10
aF0.4
aI2
aI5
aF0.4
aI2
aI2
aF1.0
aI0
aI1
aI1
aI4
aI2
aI0
aI0
aI3
aI12
aI12
aa(lp129
V0021300382
p130
aVDEC 19, 2013
p131
aVSAS @ GSW
p132
aVW
p133
aI34
aI8
aI17
aF0.471
aI2
aI7
aF0.286
aI2
aI3
aF0.667
aI0
aI5
aI5
aI2
aI3
aI0
aI1
aI1
aI20
aI10
aa(lp134
V0021300399
p135
aVDEC 21, 2013
p136
aVSAS vs. OKC
p137
aVL
p138
aI15
aI1
aI6
aF0.167
aI0
aI3
aF0.0
aI0
aI0
aF0.0
aI0
aI0
aI0
aI1
aI0
aI0
aI0
aI0
aI2
aI-7
aa(lp139
V0021300414
p140
aVDEC 23, 2013
p141
aVSAS vs. TOR
p142
aVW
p143
aI14
aI3
aI7
aF0.429
aI1
aI3
aF0.333
aI0
aI0
aF0.0
aI0
aI0
aI0
aI2
aI0
aI1
aI1
aI3
aI7
aI6
aa(lp144
V0021300421
p145
aVDEC 25, 2013
p146
aVSAS vs. HOU
p147
aVL
p148
aI17
aI3
aI6
aF0.5
aI1
aI3
aF0.333
aI2
aI2
aF1.0
aI0
aI1
aI1
aI1
aI0
aI0
aI0
aI0
aI9
aI12
aa(lp149
V0021300425
p150
aVDEC 26, 2013
p151
aVSAS @ DAL
p152
aVW
p153
aI15
aI2
aI3
aF0.667
aI1
aI2
aF0.5
aI0
aI0
aF0.0
aI0
aI2
aI2
aI2
aI0
aI0
aI1
aI3
aI5
aI16
aa(lp154
V0021300451
p155
aVDEC 29, 2013
p156
aVSAS vs. SAC
p157
aVW
p158
aI12
aI0
aI2
aF0.0
aI0
aI1
aF0.0
aI0
aI0
aF0.0
aI0
aI0
aI0
aI1
aI0
aI0
aI0
aI2
aI0
aI8
aa(lp159
V0021300465
p160
aVDEC 31, 2013
p161
aVSAS vs. BKN
p162
aVW
p163
aI21
aI5
aI15
aF0.333
aI2
aI7
aF0.286
aI0
aI0
aF0.0
aI2
aI0
aI2
aI3
aI0
aI1
aI2
aI2
aI12
aI-1
aa(lp164
V0021300477
p165
aVJAN 02, 2014
p166
aVSAS vs. NYK
p167
aVL
p168
aI14
aI3
aI4
aF0.75
aI2
aI2
aF1.0
aI0
aI0
aF0.0
aI1
aI0
aI1
aI0
aI0
aI0
aI0
aI1
aI8
aI6
aa(lp169
V0021300494
p170
aVJAN 04, 2014
p171
aVSAS vs. LAC
p172
aVW
p173
aI10
aI3
aI6
aF0.5
aI1
aI4
aF0.25
aI0
aI0
aF0.0
aI0
aI1
aI1
aI0
aI0
aI0
aI0
aI2
aI7
aI-4
aa(lp174
V0021300514
p175
aVJAN 07, 2014
p176
aVSAS @ MEM
p177
aVW
p178
aI13
aI3
aI4
aF0.75
aI1
aI1
aF1.0
aI4
aI4
aF1.0
aI0
aI1
aI1
aI1
aI0
aI0
aI0
aI1
aI11
aI6
aa(lp179
V0021300520
p180
aVJAN 08, 2014
p181
aVSAS vs. DAL
p182
aVW
p183
aI19
aI4
aI10
aF0.4
aI3
aI7
aF0.429
aI0
aI0
aF0.0
aI0
aI3
aI3
aI2
aI0
aI0
aI1
aI0
aI11
aI4
aa(lp184
V0021300554
p185
aVJAN 12, 2014
p186
aVSAS vs. MIN
p187
aVW
p188
aI23
aI4
aI6
aF0.667
aI2
aI3
aF0.667
aI0
aI0
aF0.0
aI0
aI4
aI4
aI2
aI1
aI0
aI2
aI2
aI10
aI1
aa(lp189
V0021300559
p190
aVJAN 13, 2014
p191
aVSAS @ NOP
p192
aVW
p193
aI12
aI0
aI1
aF0.0
aI0
aI0
aF0.0
aI0
aI0
aF0.0
aI0
aI1
aI1
aI1
aI0
aI0
aI0
aI1
aI0
aI-11
aa(lp194
V0021300573
p195
aVJAN 15, 2014
p196
aVSAS vs. UTA
p197
aVW
p198
aI14
aI3
aI6
aF0.5
aI0
aI2
aF0.0
aI0
aI0
aF0.0
aI0
aI0
aI0
aI3
aI0
aI0
aI0
aI2
aI6
aI-6
aa(lp199
V0021300589
p200
aVJAN 17, 2014
p201
aVSAS vs. POR
p202
aVL
p203
aI18
aI3
aI11
aF0.273
aI1
aI5
aF0.2
aI2
aI2
aF1.0
aI0
aI1
aI1
aI1
aI1
aI0
aI2
aI3
aI9
aI0
aa(lp204
V0021300604
p205
aVJAN 19, 2014
p206
aVSAS vs. MIL
p207
aVW
p208
aI27
aI8
aI12
aF0.667
aI4
aI6
aF0.667
aI0
aI0
aF0.0
aI0
aI2
aI2
aI7
aI3
aI0
aI1
aI2
aI20
aI21
aa(lp209
V0021300630
p210
aVJAN 22, 2014
p211
aVSAS vs. OKC
p212
aVL
p213
aI15
aI3
aI6
aF0.5
aI3
aI4
aF0.75
aI0
aI0
aF0.0
aI0
aI1
aI1
aI2
aI0
aI0
aI1
aI1
aI9
aI-2
aa(lp214
V0021300635
p215
aVJAN 24, 2014
p216
aVSAS @ ATL
p217
aVW
p218
aI23
aI6
aI10
aF0.6
aI6
aI8
aF0.75
aI0
aI0
aF0.0
aI0
aI2
aI2
aI2
aI2
aI0
aI2
aI2
aI18
aI20
aa(lp219
V0021300654
p220
aVJAN 26, 2014
p221
aVSAS @ MIA
p222
aVL
p223
aI17
aI1
aI6
aF0.167
aI1
aI5
aF0.2
aI0
aI0
aF0.0
aI1
aI1
aI2
aI0
aI1
aI0
aI1
aI1
aI3
aI-7
aa(lp224
V0021300671
p225
aVJAN 28, 2014
p226
aVSAS @ HOU
p227
aVL
p228
aI28
aI3
aI7
aF0.429
aI1
aI5
aF0.2
aI0
aI0
aF0.0
aI0
aI2
aI2
aI2
aI1
aI2
aI0
aI4
aI7
aI-11
aa(lp229
V0021300683
p230
aVJAN 29, 2014
p231
aVSAS vs. CHI
p232
aVL
p233
aI19
aI5
aI11
aF0.455
aI2
aI3
aF0.667
aI0
aI0
aF0.0
aI0
aI1
aI1
aI0
aI0
aI0
aI2
aI5
aI12
aI-10
aa(lp234
V0021300704
p235
aVFEB 01, 2014
p236
aVSAS vs. SAC
p237
aVW
p238
aI22
aI6
aI14
aF0.429
aI2
aI7
aF0.286
aI1
aI1
aF1.0
aI0
aI1
aI1
aI1
aI2
aI1
aI0
aI0
aI15
aI13
aa(lp239
V0021300715
p240
aVFEB 03, 2014
p241
aVSAS @ NOP
p242
aVW
p243
aI21
aI2
aI6
aF0.333
aI1
aI4
aF0.25
aI0
aI0
aF0.0
aI0
aI3
aI3
aI2
aI1
aI0
aI0
aI2
aI5
aI10
aa(lp244
V0021300727
p245
aVFEB 05, 2014
p246
aVSAS @ WAS
p247
aVW
p248
aI20
aI7
aI14
aF0.5
aI4
aI9
aF0.444
aI5
aI5
aF1.0
aI1
aI5
aI6
aI4
aI0
aI0
aI1
aI2
aI23
aI11
aa(lp249
V0021300737
p250
aVFEB 06, 2014
p251
aVSAS @ BKN
p252
aVL
p253
aI23
aI6
aI13
aF0.462
aI2
aI7
aF0.286
aI2
aI2
aF1.0
aI0
aI1
aI1
aI2
aI1
aI0
aI0
aI2
aI16
aI-22
aa(lp254
V0021300749
p255
aVFEB 08, 2014
p256
aVSAS @ CHA
p257
aVW
p258
aI25
aI10
aI13
aF0.769
aI4
aI5
aF0.8
aI8
aI9
aF0.889
aI1
aI6
aI7
aI4
aI2
aI0
aI2
aI1
aI32
aI15
aa(lp259
V0021300766
p260
aVFEB 10, 2014
p261
aVSAS @ DET
p262
aVL
p263
aI14
aI3
aI6
aF0.5
aI0
aI1
aF0.0
aI0
aI0
aF0.0
aI0
aI1
aI1
aI1
aI0
aI0
aI1
aI1
aI6
aI3
aa(lp264
V0021300780
p265
aVFEB 12, 2014
p266
aVSAS @ BOS
p267
aVW
p268
aI20
aI6
aI13
aF0.462
aI3
aI8
aF0.375
aI1
aI1
aF1.0
aI1
aI1
aI2
aI0
aI2
aI0
aI1
aI2
aI16
aI-1
aa(lp269
V0021300800
p270
aVFEB 18, 2014
p271
aVSAS @ LAC
p272
aVW
p273
aI27
aI9
aI15
aF0.6
aI2
aI3
aF0.667
aI5
aI6
aF0.833
aI0
aI5
aI5
aI5
aI0
aI1
aI1
aI4
aI25
aI10
aa(lp274
V0021300809
p275
aVFEB 19, 2014
p276
aVSAS @ POR
p277
aVW
p278
aI29
aI13
aI26
aF0.5
aI1
aI5
aF0.2
aI2
aI2
aF1.0
aI0
aI3
aI3
aI2
aI2
aI0
aI0
aI1
aI29
aI6
aa(lp279
V0021300822
p280
aVFEB 21, 2014
p281
aVSAS @ PHX
p282
aVL
p283
aI25
aI2
aI14
aF0.143
aI0
aI6
aF0.0
aI0
aI0
aF0.0
aI2
aI4
aI6
aI1
aI1
aI0
aI3
aI1
aI4
aI0
aa(lp284
V0021300859
p285
aVFEB 26, 2014
p286
aVSAS vs. DET
p287
aVW
p288
aI21
aI5
aI10
aF0.5
aI1
aI4
aF0.25
aI0
aI0
aF0.0
aI0
aI3
aI3
aI2
aI0
aI0
aI1
aI0
aI11
aI-8
aa(lp289
V0021300871
p290
aVFEB 28, 2014
p291
aVSAS vs. CHA
p292
aVW
p293
aI29
aI6
aI10
aF0.6
aI1
aI3
aF0.333
aI1
aI1
aF1.0
aI0
aI6
aI6
aI2
aI0
aI0
aI2
aI0
aI14
aI21
aa(lp294
V0021300888
p295
aVMAR 02, 2014
p296
aVSAS vs. DAL
p297
aVW
p298
aI16
aI1
aI5
aF0.2
aI1
aI3
aF0.333
aI0
aI0
aF0.0
aI0
aI0
aI0
aI1
aI0
aI0
aI0
aI1
aI3
aI-2
aa(lp299
V0021300898
p300
aVMAR 04, 2014
p301
aVSAS @ CLE
p302
aVW
p303
aI24
aI6
aI12
aF0.5
aI4
aI6
aF0.667
aI0
aI0
aF0.0
aI0
aI3
aI3
aI5
aI2
aI0
aI0
aI0
aI16
aI24
aa(lp304
V0021300914
p305
aVMAR 06, 2014
p306
aVSAS vs. MIA
p307
aVW
p308
aI17
aI3
aI6
aF0.5
aI2
aI5
aF0.4
aI1
aI2
aF0.5
aI2
aI8
aI10
aI4
aI0
aI0
aI1
aI0
aI9
aI15
aa(lp309
V0021300932
p310
aVMAR 08, 2014
p311
aVSAS vs. ORL
p312
aVW
p313
aI15
aI1
aI6
aF0.167
aI1
aI3
aF0.333
aI0
aI0
aF0.0
aI0
aI0
aI0
aI0
aI0
aI0
aI1
aI2
aI3
aI-7
aa(lp314
V0021300952
p315
aVMAR 11, 2014
p316
aVSAS @ CHI
p317
aVW
p318
aI24
aI4
aI9
aF0.444
aI1
aI3
aF0.333
aI1
aI1
aF1.0
aI1
aI0
aI1
aI3
aI0
aI0
aI2
aI3
aI10
aI-9
aa(lp319
V0021300965
p320
aVMAR 12, 2014
p321
aVSAS vs. POR
p322
aVW
p323
aI17
aI5
aI12
aF0.417
aI3
aI6
aF0.5
aI2
aI2
aF1.0
aI1
aI1
aI2
aI2
aI1
aI0
aI0
aI1
aI15
aI16
aa(lp324
V0021300978
p325
aVMAR 14, 2014
p326
aVSAS vs. LAL
p327
aVW
p328
aI15
aI2
aI7
aF0.286
aI1
aI4
aF0.25
aI0
aI0
aF0.0
aI2
aI1
aI3
aI1
aI0
aI0
aI1
aI0
aI5
aI5
aa(lp329
V0021300993
p330
aVMAR 16, 2014
p331
aVSAS vs. UTA
p332
aVW
p333
aI19
aI4
aI7
aF0.571
aI4
aI5
aF0.8
aI0
aI0
aF0.0
aI0
aI1
aI1
aI4
aI1
aI0
aI0
aI1
aI12
aI2
aa(lp334
V0021301017
p335
aVMAR 19, 2014
p336
aVSAS @ LAL
p337
aVW
p338
aI15
aI3
aI8
aF0.375
aI1
aI4
aF0.25
aI0
aI0
aF0.0
aI0
aI1
aI1
aI1
aI0
aI0
aI2
aI1
aI7
aI-7
aa(lp339
V0021301030
p340
aVMAR 21, 2014
p341
aVSAS @ SAC
p342
aVW
p343
aI18
aI3
aI8
aF0.375
aI0
aI3
aF0.0
aI2
aI2
aF1.0
aI1
aI0
aI1
aI0
aI1
aI0
aI0
aI1
aI8
aI6
aa(lp344
V0021301038
p345
aVMAR 22, 2014
p346
aVSAS @ GSW
p347
aVW
p348
aI20
aI1
aI9
aF0.111
aI1
aI5
aF0.2
aI1
aI1
aF1.0
aI1
aI0
aI1
aI5
aI4
aI0
aI1
aI2
aI4
aI10
aa(lp349
V0021301054
p350
aVMAR 24, 2014
p351
aVSAS vs. PHI
p352
aVW
p353
aI23
aI6
aI9
aF0.667
aI3
aI6
aF0.5
aI0
aI0
aF0.0
aI0
aI3
aI3
aI3
aI3
aI1
aI0
aI2
aI15
aI16
aa(lp354
V0021301068
p355
aVMAR 26, 2014
p356
aVSAS vs. DEN
p357
aVW
p358
aI14
aI3
aI6
aF0.5
aI1
aI2
aF0.5
aI0
aI0
aF0.0
aI1
aI0
aI1
aI1
aI1
aI0
aI0
aI1
aI7
aI3
aa(lp359
V0021301084
p360
aVMAR 28, 2014
p361
aVSAS @ DEN
p362
aVW
p363
aI20
aI7
aI11
aF0.636
aI1
aI2
aF0.5
aI1
aI1
aF1.0
aI3
aI3
aI6
aI3
aI0
aI0
aI1
aI2
aI16
aI21
aa(lp364
V0021301092
p365
aVMAR 29, 2014
p366
aVSAS vs. NOP
p367
aVW
p368
aI25
aI4
aI11
aF0.364
aI3
aI8
aF0.375
aI2
aI2
aF1.0
aI2
aI0
aI2
aI0
aI1
aI0
aI1
aI4
aI13
aI-2
aa(lp369
V0021301102
p370
aVMAR 31, 2014
p371
aVSAS @ IND
p372
aVW
p373
aI13
aI3
aI5
aF0.6
aI2
aI2
aF1.0
aI2
aI2
aF1.0
aI0
aI1
aI1
aI0
aI1
aI0
aI0
aI0
aI10
aI4
aa(lp374
V0021301123
p375
aVAPR 02, 2014
p376
aVSAS vs. GSW
p377
aVW
p378
aI20
aI6
aI8
aF0.75
aI1
aI1
aF1.0
aI0
aI0
aF0.0
aI0
aI3
aI3
aI2
aI0
aI0
aI1
aI1
aI13
aI5
aa(lp379
V0021301127
p380
aVAPR 03, 2014
p381
aVSAS @ OKC
p382
aVL
p383
aI24
aI8
aI13
aF0.615
aI5
aI7
aF0.714
aI0
aI0
aF0.0
aI2
aI4
aI6
aI1
aI1
aI0
aI2
aI1
aI21
aI-11
aa(lp384
V0021301154
p385
aVAPR 06, 2014
p386
aVSAS vs. MEM
p387
aVW
p388
aI20
aI3
aI5
aF0.6
aI1
aI3
aF0.333
aI0
aI0
aF0.0
aI0
aI6
aI6
aI4
aI0
aI0
aI1
aI0
aI7
aI6
aa(lp389
V0021300275
p390
aVAPR 08, 2014
p391
aVSAS @ MIN
p392
aVL
p393
aI22
aI3
aI7
aF0.429
aI2
aI3
aF0.667
aI0
aI0
aF0.0
aI0
aI0
aI0
aI0
aI0
aI0
aI1
aI1
aI8
aI-12
aa(lp394
V0021301174
p395
aVAPR 10, 2014
p396
aVSAS @ DAL
p397
aVW
p398
aI36
aI9
aI25
aF0.36
aI6
aI11
aF0.545
aI2
aI2
aF1.0
aI0
aI2
aI2
aI6
aI2
aI0
aI0
aI2
aI26
aI26
aa(lp399
V0021301186
p400
aVAPR 11, 2014
p401
aVSAS vs. PHX
p402
aVW
p403
aI28
aI3
aI8
aF0.375
aI1
aI4
aF0.25
aI2
aI2
aF1.0
aI0
aI4
aI4
aI4
aI0
aI0
aI0
aI3
aI9
aI17
aa(lp404
V0021301221
p405
aVAPR 16, 2014
p406
aVSAS vs. LAL
p407
aVL
p408
aI14
aI4
aI9
aF0.444
aI1
aI3
aF0.333
aI0
aI0
aF0.0
aI0
aI2
aI2
aI1
aI0
aI0
aI1
aI0
aI9
aI3
aasS'name'
p409
VPatty Mills
p410
sS'experience'
p411
I4
s.