(dp0
S'stats'
p1
(lp2
(lp3
V0021300019
p4
aVOCT 31, 2013
p5
aVLAC vs. GSW
p6
aVW
p7
aI9
aI0
aI4
aF0.0
aI0
aI4
aF0.0
aI0
aI2
aF0.0
aI1
aI1
aI2
aI1
aI1
aI1
aI1
aI3
aI0
aI-10
aa(lp8
V0021300031
p9
aVNOV 01, 2013
p10
aVLAC @ SAC
p11
aVW
p12
aI15
aI1
aI4
aF0.25
aI1
aI3
aF0.333
aI0
aI0
aF0.0
aI1
aI2
aI3
aI0
aI0
aI0
aI1
aI4
aI3
aI-7
aa(lp13
V0021300050
p14
aVNOV 04, 2013
p15
aVLAC vs. HOU
p16
aVW
p17
aI15
aI5
aI6
aF0.833
aI2
aI3
aF0.667
aI0
aI0
aF0.0
aI0
aI4
aI4
aI0
aI2
aI1
aI1
aI5
aI12
aI-3
aa(lp18
V0021300062
p19
aVNOV 06, 2013
p20
aVLAC @ ORL
p21
aVL
p22
aI11
aI0
aI5
aF0.0
aI0
aI4
aF0.0
aI0
aI0
aF0.0
aI0
aI0
aI0
aI0
aI1
aI0
aI2
aI3
aI0
aI-9
aa(lp23
V0021300070
p24
aVNOV 07, 2013
p25
aVLAC @ MIA
p26
aVL
p27
aI8
aI3
aI5
aF0.6
aI0
aI1
aF0.0
aI0
aI0
aF0.0
aI1
aI0
aI1
aI1
aI0
aI0
aI0
aI2
aI6
aI-3
aa(lp28
V0021300090
p29
aVNOV 09, 2013
p30
aVLAC @ HOU
p31
aVW
p32
aI2
aI0
aI0
aF0.0
aI0
aI0
aF0.0
aI0
aI0
aF0.0
aI1
aI0
aI1
aI0
aI0
aI0
aI0
aI0
aI0
aI-3
aa(lp33
V0021300106
p34
aVNOV 11, 2013
p35
aVLAC vs. MIN
p36
aVW
p37
aI9
aI1
aI3
aF0.333
aI0
aI1
aF0.0
aI0
aI0
aF0.0
aI1
aI0
aI1
aI0
aI0
aI1
aI0
aI0
aI2
aI2
aa(lp38
V0021300122
p39
aVNOV 13, 2013
p40
aVLAC vs. OKC
p41
aVW
p42
aI5
aI0
aI1
aF0.0
aI0
aI1
aF0.0
aI1
aI2
aF0.5
aI0
aI4
aI4
aI1
aI0
aI0
aI0
aI1
aI1
aI-8
aa(lp43
V0021300146
p44
aVNOV 16, 2013
p45
aVLAC vs. BKN
p46
aVW
p47
aI10
aI4
aI4
aF1.0
aI2
aI2
aF1.0
aI0
aI0
aF0.0
aI1
aI1
aI2
aI1
aI0
aI0
aI3
aI2
aI10
aI3
aa(lp48
V0021300155
p49
aVNOV 18, 2013
p50
aVLAC vs. MEM
p51
aVL
p52
aI14
aI2
aI5
aF0.4
aI2
aI4
aF0.5
aI0
aI0
aF0.0
aI0
aI2
aI2
aI0
aI1
aI0
aI0
aI4
aI6
aI-8
aa(lp53
V0021300174
p54
aVNOV 21, 2013
p55
aVLAC @ OKC
p56
aVL
p57
aI5
aI0
aI1
aF0.0
aI0
aI1
aF0.0
aI0
aI0
aF0.0
aI0
aI0
aI0
aI0
aI0
aI0
aI0
aI0
aI0
aI2
aa(lp58
V0021300187
p59
aVNOV 23, 2013
p60
aVLAC vs. SAC
p61
aVW
p62
aI7
aI0
aI0
aF0.0
aI0
aI0
aF0.0
aI0
aI0
aF0.0
aI0
aI0
aI0
aI2
aI0
aI0
aI0
aI3
aI0
aI-3
aa(lp63
V0021300198
p64
aVNOV 24, 2013
p65
aVLAC vs. CHI
p66
aVW
p67
aI6
aI2
aI4
aF0.5
aI1
aI3
aF0.333
aI0
aI0
aF0.0
aI0
aI2
aI2
aI0
aI0
aI0
aI0
aI0
aI5
aI5
aa(lp68
V0021300270
p69
aVDEC 04, 2013
p70
aVLAC @ ATL
p71
aVL
p72
aI2
aI1
aI2
aF0.5
aI0
aI1
aF0.0
aI0
aI0
aF0.0
aI0
aI0
aI0
aI0
aI0
aI0
aI0
aI0
aI2
aI3
aa(lp73
V0021300327
p74
aVDEC 12, 2013
p75
aVLAC @ BKN
p76
aVL
p77
aI6
aI0
aI0
aF0.0
aI0
aI0
aF0.0
aI0
aI0
aF0.0
aI0
aI0
aI0
aI0
aI0
aI0
aI0
aI0
aI0
aI10
aa(lp78
V0021300343
p79
aVDEC 14, 2013
p80
aVLAC @ WAS
p81
aVW
p82
aI3
aI0
aI1
aF0.0
aI0
aI1
aF0.0
aI0
aI0
aF0.0
aI0
aI0
aI0
aI0
aI0
aI0
aI1
aI0
aI0
aI-7
aa(lp83
V0021300447
p84
aVDEC 28, 2013
p85
aVLAC vs. UTA
p86
aVW
p87
aI7
aI0
aI1
aF0.0
aI0
aI0
aF0.0
aI0
aI0
aF0.0
aI0
aI1
aI1
aI0
aI0
aI0
aI0
aI2
aI0
aI-9
aa(lp88
V0021300459
p89
aVDEC 30, 2013
p90
aVLAC vs. PHX
p91
aVL
p92
aI5
aI0
aI1
aF0.0
aI0
aI0
aF0.0
aI0
aI0
aF0.0
aI0
aI1
aI1
aI0
aI1
aI0
aI0
aI0
aI0
aI6
aa(lp93
V0021300472
p94
aVJAN 01, 2014
p95
aVLAC vs. CHA
p96
aVW
p97
aI1
aI2
aI2
aF1.0
aI2
aI2
aF1.0
aI0
aI0
aF0.0
aI0
aI0
aI0
aI0
aI0
aI0
aI0
aI0
aI6
aI6
aa(lp98
V0021300494
p99
aVJAN 04, 2014
p100
aVLAC @ SAS
p101
aVL
p102
aI5
aI2
aI2
aF1.0
aI1
aI1
aF1.0
aI0
aI0
aF0.0
aI0
aI1
aI1
aI0
aI0
aI0
aI1
aI0
aI5
aI-3
aa(lp103
V0021300507
p104
aVJAN 06, 2014
p105
aVLAC vs. ORL
p106
aVW
p107
aI3
aI0
aI1
aF0.0
aI0
aI0
aF0.0
aI0
aI0
aF0.0
aI0
aI2
aI2
aI0
aI0
aI0
aI0
aI0
aI0
aI0
aa(lp108
V0021300542
p109
aVJAN 10, 2014
p110
aVLAC vs. LAL
p111
aVW
p112
aI6
aI0
aI3
aF0.0
aI0
aI1
aF0.0
aI1
aI2
aF0.5
aI0
aI2
aI2
aI0
aI0
aI0
aI1
aI1
aI1
aI-6
aa(lp113
V0021300594
p114
aVJAN 18, 2014
p115
aVLAC @ IND
p116
aVL
p117
aI2
aI1
aI1
aF1.0
aI1
aI1
aF1.0
aI0
aI0
aF0.0
aI0
aI0
aI0
aI0
aI0
aI0
aI0
aI0
aI3
aI4
aa(lp118
V0021300621
p119
aVJAN 22, 2014
p120
aVLAC @ CHA
p121
aVL
p122
aI2
aI0
aI2
aF0.0
aI0
aI1
aF0.0
aI0
aI0
aF0.0
aI0
aI0
aI0
aI0
aI0
aI0
aI0
aI0
aI0
aI-5
aa(lp123
V0021300665
p124
aVJAN 27, 2014
p125
aVLAC @ MIL
p126
aVW
p127
aI5
aI1
aI2
aF0.5
aI0
aI1
aF0.0
aI0
aI0
aF0.0
aI0
aI1
aI1
aI0
aI0
aI0
aI2
aI3
aI2
aI-4
aa(lp128
V0021300688
p129
aVJAN 30, 2014
p130
aVLAC @ GSW
p131
aVL
p132
aI4
aI1
aI3
aF0.333
aI1
aI2
aF0.5
aI0
aI0
aF0.0
aI1
aI1
aI2
aI0
aI0
aI0
aI0
aI0
aI3
aI-2
aa(lp133
V0021300708
p134
aVFEB 01, 2014
p135
aVLAC vs. UTA
p136
aVW
p137
aI1
aI0
aI1
aF0.0
aI0
aI1
aF0.0
aI0
aI0
aF0.0
aI0
aI0
aI0
aI0
aI0
aI0
aI0
aI0
aI0
aI-3
aa(lp138
V0021300841
p139
aVFEB 24, 2014
p140
aVPHI vs. MIL
p141
aVL
p142
aI14
aI4
aI6
aF0.667
aI1
aI2
aF0.5
aI0
aI0
aF0.0
aI1
aI0
aI1
aI1
aI1
aI1
aI1
aI3
aI9
aI-8
aa(lp143
V0021300853
p144
aVFEB 26, 2014
p145
aVPHI vs. ORL
p146
aVL
p147
aI17
aI3
aI11
aF0.273
aI0
aI4
aF0.0
aI1
aI4
aF0.25
aI1
aI2
aI3
aI1
aI0
aI0
aI0
aI3
aI7
aI-7
aa(lp148
V0021300875
p149
aVMAR 01, 2014
p150
aVPHI vs. WAS
p151
aVL
p152
aI12
aI2
aI5
aF0.4
aI0
aI0
aF0.0
aI2
aI2
aF1.0
aI2
aI5
aI7
aI0
aI1
aI1
aI3
aI1
aI6
aI3
aa(lp153
V0021300886
p154
aVMAR 02, 2014
p155
aVPHI @ ORL
p156
aVL
p157
aI14
aI2
aI6
aF0.333
aI1
aI3
aF0.333
aI0
aI0
aF0.0
aI1
aI3
aI4
aI0
aI0
aI0
aI0
aI2
aI5
aI-12
aa(lp158
V0021300901
p159
aVMAR 04, 2014
p160
aVPHI @ OKC
p161
aVL
p162
aI20
aI5
aI9
aF0.556
aI3
aI4
aF0.75
aI2
aI2
aF1.0
aI1
aI5
aI6
aI2
aI0
aI0
aI0
aI2
aI15
aI-2
aa(lp163
V0021300929
p164
aVMAR 08, 2014
p165
aVPHI vs. UTA
p166
aVL
p167
aI10
aI2
aI4
aF0.5
aI1
aI2
aF0.5
aI1
aI2
aF0.5
aI0
aI2
aI2
aI0
aI0
aI0
aI0
aI0
aI6
aI-10
aa(lp168
V0021300946
p169
aVMAR 10, 2014
p170
aVPHI @ NYK
p171
aVL
p172
aI3
aI0
aI0
aF0.0
aI0
aI0
aF0.0
aI0
aI0
aF0.0
aI0
aI0
aI0
aI0
aI0
aI0
aI2
aI1
aI0
aI3
aa(lp173
V0021300959
p174
aVMAR 12, 2014
p175
aVPHI vs. SAC
p176
aVL
p177
aI10
aI1
aI2
aF0.5
aI1
aI1
aF1.0
aI0
aI0
aF0.0
aI1
aI2
aI3
aI1
aI0
aI1
aI1
aI2
aI3
aI0
aa(lp178
V0021300973
p179
aVMAR 14, 2014
p180
aVPHI vs. IND
p181
aVL
p182
aI24
aI6
aI9
aF0.667
aI3
aI5
aF0.6
aI0
aI0
aF0.0
aI2
aI3
aI5
aI1
aI2
aI0
aI2
aI3
aI15
aI-1
aa(lp183
V0021300985
p184
aVMAR 15, 2014
p185
aVPHI vs. MEM
p186
aVL
p187
aI15
aI0
aI3
aF0.0
aI0
aI2
aF0.0
aI0
aI0
aF0.0
aI0
aI1
aI1
aI0
aI0
aI1
aI0
aI3
aI0
aI-19
aa(lp188
V0021300997
p189
aVMAR 17, 2014
p190
aVPHI @ IND
p191
aVL
p192
aI15
aI2
aI3
aF0.667
aI1
aI2
aF0.5
aI0
aI0
aF0.0
aI1
aI1
aI2
aI1
aI0
aI0
aI2
aI2
aI5
aI-13
aa(lp193
V0021301008
p194
aVMAR 19, 2014
p195
aVPHI vs. CHI
p196
aVL
p197
aI15
aI4
aI5
aF0.8
aI2
aI3
aF0.667
aI2
aI2
aF1.0
aI1
aI2
aI3
aI0
aI2
aI1
aI0
aI1
aI12
aI1
aa(lp198
V0021301023
p199
aVMAR 21, 2014
p200
aVPHI vs. NYK
p201
aVL
p202
aI10
aI1
aI5
aF0.2
aI1
aI4
aF0.25
aI0
aI0
aF0.0
aI0
aI3
aI3
aI0
aI0
aI0
aI1
aI1
aI3
aI-4
aa(lp203
V0021301034
p204
aVMAR 22, 2014
p205
aVPHI @ CHI
p206
aVL
p207
aI10
aI1
aI3
aF0.333
aI1
aI1
aF1.0
aI0
aI0
aF0.0
aI0
aI1
aI1
aI0
aI0
aI3
aI0
aI2
aI3
aI-8
aa(lp208
V0021301054
p209
aVMAR 24, 2014
p210
aVPHI @ SAS
p211
aVL
p212
aI18
aI6
aI11
aF0.545
aI3
aI7
aF0.429
aI0
aI0
aF0.0
aI2
aI6
aI8
aI0
aI1
aI0
aI1
aI1
aI15
aI-15
aa(lp213
V0021301072
p214
aVMAR 27, 2014
p215
aVPHI @ HOU
p216
aVL
p217
aI3
aI0
aI1
aF0.0
aI0
aI1
aF0.0
aI0
aI0
aF0.0
aI0
aI0
aI0
aI1
aI0
aI0
aI0
aI0
aI0
aI4
aa(lp218
V0021301182
p219
aVAPR 11, 2014
p220
aVPHI @ MEM
p221
aVL
p222
aI18
aI2
aI6
aF0.333
aI1
aI4
aF0.25
aI0
aI2
aF0.0
aI0
aI4
aI4
aI0
aI1
aI0
aI0
aI3
aI5
aI0
aa(lp223
V0021301190
p224
aVAPR 12, 2014
p225
aVPHI @ CHA
p226
aVL
p227
aI20
aI6
aI12
aF0.5
aI1
aI5
aF0.2
aI0
aI0
aF0.0
aI4
aI3
aI7
aI0
aI1
aI0
aI1
aI1
aI13
aI-1
aasS'name'
p228
VByron Mullens
p229
sS'weight'
p230
V275
p231
sS'age'
p232
I24
sS'experience'
p233
I4
sS'height'
p234
V7-0
p235
sS'position'
p236
VCenter
p237
s.