(dp0
S'age'
p1
I25
sS'stats'
p2
(lp3
(lp4
V0021300008
p5
aVOCT 30, 2013
p6
aVMIL @ NYK
p7
aVL
p8
aI12
aI0
aI3
aF0.0
aI0
aI0
aF0.0
aI0
aI0
aF0.0
aI1
aI3
aI4
aI0
aI0
aI1
aI2
aI5
aI0
aI-8
aa(lp9
V0021300024
p10
aVNOV 01, 2013
p11
aVMIL @ BOS
p12
aVW
p13
aI18
aI2
aI5
aF0.4
aI0
aI0
aF0.0
aI0
aI0
aF0.0
aI1
aI2
aI3
aI1
aI0
aI4
aI1
aI2
aI4
aI-18
aa(lp14
V0021300037
p15
aVNOV 02, 2013
p16
aVMIL vs. TOR
p17
aVL
p18
aI22
aI2
aI8
aF0.25
aI0
aI0
aF0.0
aI0
aI0
aF0.0
aI1
aI3
aI4
aI1
aI0
aI1
aI0
aI2
aI4
aI-1
aa(lp19
V0021300429
p20
aVDEC 27, 2013
p21
aVMIL @ BKN
p22
aVL
p23
aI22
aI4
aI5
aF0.8
aI0
aI0
aF0.0
aI2
aI6
aF0.333
aI2
aI5
aI7
aI1
aI1
aI2
aI1
aI6
aI10
aI2
aa(lp24
V0021300444
p25
aVDEC 28, 2013
p26
aVMIL vs. MIN
p27
aVL
p28
aI34
aI4
aI7
aF0.571
aI0
aI0
aF0.0
aI1
aI4
aF0.25
aI3
aI7
aI10
aI0
aI2
aI0
aI3
aI3
aI9
aI-4
aa(lp29
V0021300467
p30
aVDEC 31, 2013
p31
aVMIL @ LAL
p32
aVW
p33
aI35
aI3
aI8
aF0.375
aI0
aI0
aF0.0
aI1
aI4
aF0.25
aI4
aI7
aI11
aI5
aI2
aI4
aI0
aI4
aI7
aI18
aa(lp34
V0021300479
p35
aVJAN 02, 2014
p36
aVMIL @ UTA
p37
aVL
p38
aI35
aI7
aI7
aF1.0
aI0
aI0
aF0.0
aI2
aI2
aF1.0
aI0
aI8
aI8
aI2
aI2
aI2
aI1
aI3
aI16
aI-4
aa(lp39
V0021300495
p40
aVJAN 04, 2014
p41
aVMIL @ PHX
p42
aVL
p43
aI26
aI3
aI5
aF0.6
aI0
aI0
aF0.0
aI1
aI2
aF0.5
aI0
aI2
aI2
aI0
aI0
aI1
aI3
aI4
aI7
aI-26
aa(lp44
V0021300515
p45
aVJAN 07, 2014
p46
aVMIL vs. GSW
p47
aVL
p48
aI30
aI2
aI10
aF0.2
aI0
aI0
aF0.0
aI1
aI2
aF0.5
aI3
aI3
aI6
aI2
aI0
aI0
aI1
aI3
aI5
aI-11
aa(lp49
V0021300538
p50
aVJAN 10, 2014
p51
aVMIL vs. CHI
p52
aVL
p53
aI23
aI0
aI2
aF0.0
aI0
aI0
aF0.0
aI1
aI2
aF0.5
aI3
aI6
aI9
aI0
aI0
aI2
aI1
aI6
aI1
aI-12
aa(lp54
V0021300548
p55
aVJAN 11, 2014
p56
aVMIL @ OKC
p57
aVL
p58
aI7
aI0
aI1
aF0.0
aI0
aI0
aF0.0
aI0
aI0
aF0.0
aI0
aI4
aI4
aI0
aI0
aI1
aI1
aI3
aI0
aI-7
aa(lp59
V0021300555
p60
aVJAN 13, 2014
p61
aVMIL @ TOR
p62
aVL
p63
aI27
aI2
aI8
aF0.25
aI0
aI0
aF0.0
aI2
aI4
aF0.5
aI4
aI4
aI8
aI1
aI0
aI0
aI3
aI3
aI6
aI-3
aa(lp64
V0021300570
p65
aVJAN 15, 2014
p66
aVMIL vs. MEM
p67
aVL
p68
aI37
aI4
aI12
aF0.333
aI0
aI1
aF0.0
aI2
aI2
aF1.0
aI5
aI7
aI12
aI1
aI0
aI3
aI1
aI3
aI10
aI5
aa(lp69
V0021300597
p70
aVJAN 18, 2014
p71
aVMIL @ HOU
p72
aVL
p73
aI31
aI5
aI8
aF0.625
aI0
aI0
aF0.0
aI2
aI6
aF0.333
aI3
aI2
aI5
aI1
aI2
aI5
aI0
aI4
aI12
aI-6
aa(lp74
V0021300604
p75
aVJAN 19, 2014
p76
aVMIL @ SAS
p77
aVL
p78
aI21
aI4
aI8
aF0.5
aI0
aI0
aF0.0
aI2
aI4
aF0.5
aI3
aI4
aI7
aI0
aI4
aI1
aI0
aI2
aI10
aI-5
aa(lp79
V0021300638
p80
aVJAN 24, 2014
p81
aVMIL @ CLE
p82
aVL
p83
aI21
aI3
aI5
aF0.6
aI0
aI0
aF0.0
aI1
aI2
aF0.5
aI3
aI2
aI5
aI0
aI0
aI3
aI0
aI1
aI7
aI-10
aa(lp84
V0021300650
p85
aVJAN 25, 2014
p86
aVMIL vs. ATL
p87
aVL
p88
aI21
aI0
aI5
aF0.0
aI0
aI0
aF0.0
aI1
aI2
aF0.5
aI1
aI3
aI4
aI0
aI0
aI0
aI2
aI2
aI1
aI-17
aa(lp89
V0021300679
p90
aVJAN 29, 2014
p91
aVMIL vs. PHX
p92
aVL
p93
aI33
aI7
aI11
aF0.636
aI0
aI0
aF0.0
aI0
aI0
aF0.0
aI6
aI3
aI9
aI0
aI0
aI2
aI0
aI5
aI14
aI-4
aa(lp94
V0021300689
p95
aVJAN 31, 2014
p96
aVMIL @ ORL
p97
aVL
p98
aI33
aI4
aI11
aF0.364
aI0
aI0
aF0.0
aI2
aI4
aF0.5
aI4
aI5
aI9
aI2
aI4
aI4
aI2
aI3
aI10
aI-3
aa(lp99
V0021300702
p100
aVFEB 01, 2014
p101
aVMIL @ MEM
p102
aVL
p103
aI30
aI4
aI7
aF0.571
aI0
aI0
aF0.0
aI2
aI2
aF1.0
aI2
aI6
aI8
aI0
aI0
aI2
aI1
aI3
aI10
aI-6
aa(lp104
V0021300714
p105
aVFEB 03, 2014
p106
aVMIL vs. NYK
p107
aVW
p108
aI30
aI3
aI4
aF0.75
aI0
aI0
aF0.0
aI2
aI2
aF1.0
aI1
aI10
aI11
aI0
aI0
aI1
aI0
aI6
aI8
aI11
aa(lp109
V0021300734
p110
aVFEB 05, 2014
p111
aVMIL @ DEN
p112
aVL
p113
aI34
aI12
aI19
aF0.632
aI0
aI0
aF0.0
aI1
aI5
aF0.2
aI8
aI7
aI15
aI2
aI1
aI1
aI2
aI1
aI25
aI3
aa(lp114
V0021300753
p115
aVFEB 08, 2014
p116
aVMIL vs. HOU
p117
aVL
p118
aI4
aI1
aI3
aF0.333
aI0
aI0
aF0.0
aI0
aI0
aF0.0
aI2
aI2
aI4
aI0
aI0
aI0
aI1
aI0
aI2
aI-5
aasS'name'
p119
VLarry Sanders
p120
sS'experience'
p121
I3
s.