(dp0
S'age'
p1
I23
sS'stats'
p2
(lp3
(lp4
V0021301202
p5
aVAPR 13, 2014
p6
aVSAC vs. MIN
p7
aVW
p8
aI37
aI13
aI21
aF0.619
aI0
aI0
aF0.0
aI9
aI13
aF0.692
aI1
aI14
aI15
aI6
aI1
aI3
aI6
aI2
aI35
aI13
aa(lp9
V0021301189
p10
aVAPR 12, 2014
p11
aVSAC @ LAC
p12
aVL
p13
aI43
aI12
aI27
aF0.444
aI0
aI0
aF0.0
aI8
aI9
aF0.889
aI3
aI9
aI12
aI5
aI2
aI2
aI6
aI6
aI32
aI-13
aa(lp14
V0021301172
p15
aVAPR 09, 2014
p16
aVSAC @ POR
p17
aVL
p18
aI37
aI14
aI29
aF0.483
aI0
aI0
aF0.0
aI2
aI3
aF0.667
aI3
aI9
aI12
aI2
aI3
aI0
aI3
aI3
aI30
aI-13
aa(lp19
V0021301160
p20
aVAPR 08, 2014
p21
aVSAC vs. OKC
p22
aVL
p23
aI35
aI10
aI24
aF0.417
aI0
aI0
aF0.0
aI4
aI6
aF0.667
aI4
aI10
aI14
aI1
aI2
aI2
aI3
aI4
aI24
aI-17
aa(lp24
V0021301151
p25
aVAPR 06, 2014
p26
aVSAC vs. DAL
p27
aVL
p28
aI38
aI12
aI23
aF0.522
aI0
aI0
aF0.0
aI4
aI4
aF1.0
aI1
aI9
aI10
aI1
aI3
aI2
aI4
aI2
aI28
aI-10
aa(lp29
V0021301141
p30
aVAPR 04, 2014
p31
aVSAC @ GSW
p32
aVL
p33
aI27
aI8
aI16
aF0.5
aI0
aI0
aF0.0
aI3
aI6
aF0.5
aI2
aI9
aI11
aI0
aI0
aI0
aI2
aI3
aI19
aI-18
aa(lp34
V0021301126
p35
aVAPR 02, 2014
p36
aVSAC vs. LAL
p37
aVW
p38
aI21
aI8
aI14
aF0.571
aI0
aI0
aF0.0
aI4
aI5
aF0.8
aI3
aI7
aI10
aI2
aI1
aI0
aI1
aI4
aI20
aI-7
aa(lp39
V0021301108
p40
aVMAR 31, 2014
p41
aVSAC @ NOP
p42
aVW
p43
aI37
aI13
aI18
aF0.722
aI0
aI0
aF0.0
aI9
aI12
aF0.75
aI3
aI11
aI14
aI3
aI1
aI2
aI3
aI3
aI35
aI23
aa(lp44
V0021301090
p45
aVMAR 29, 2014
p46
aVSAC @ DAL
p47
aVL
p48
aI28
aI8
aI15
aF0.533
aI0
aI0
aF0.0
aI1
aI3
aF0.333
aI2
aI5
aI7
aI5
aI2
aI0
aI3
aI5
aI17
aI-14
aa(lp49
V0021301083
p50
aVMAR 28, 2014
p51
aVSAC @ OKC
p52
aVL
p53
aI17
aI2
aI8
aF0.25
aI0
aI0
aF0.0
aI0
aI0
aF0.0
aI1
aI3
aI4
aI2
aI0
aI0
aI3
aI4
aI4
aI-26
aa(lp54
V0021301069
p55
aVMAR 26, 2014
p56
aVSAC vs. NYK
p57
aVL
p58
aI43
aI10
aI15
aF0.667
aI0
aI0
aF0.0
aI12
aI12
aF1.0
aI4
aI11
aI15
aI8
aI2
aI2
aI4
aI4
aI32
aI-4
aa(lp59
V0021301043
p60
aVMAR 23, 2014
p61
aVSAC vs. MIL
p62
aVW
p63
aI29
aI14
aI19
aF0.737
aI0
aI0
aF0.0
aI4
aI6
aF0.667
aI2
aI10
aI12
aI4
aI2
aI1
aI1
aI3
aI32
aI37
aa(lp64
V0021301030
p65
aVMAR 21, 2014
p66
aVSAC vs. SAS
p67
aVL
p68
aI37
aI7
aI18
aF0.389
aI0
aI0
aF0.0
aI1
aI2
aF0.5
aI1
aI12
aI13
aI5
aI2
aI5
aI3
aI3
aI15
aI-13
aa(lp69
V0021301006
p70
aVMAR 18, 2014
p71
aVSAC vs. WAS
p72
aVW
p73
aI30
aI9
aI17
aF0.529
aI0
aI0
aF0.0
aI6
aI11
aF0.545
aI7
aI7
aI14
aI3
aI1
aI0
aI4
aI5
aI24
aI13
aa(lp74
V0021300986
p75
aVMAR 15, 2014
p76
aVSAC @ CHI
p77
aVL
p78
aI38
aI10
aI21
aF0.476
aI0
aI0
aF0.0
aI5
aI7
aF0.714
aI4
aI10
aI14
aI2
aI4
aI1
aI5
aI5
aI25
aI-6
aa(lp79
V0021300959
p80
aVMAR 12, 2014
p81
aVSAC @ PHI
p82
aVW
p83
aI27
aI7
aI16
aF0.438
aI0
aI0
aF0.0
aI5
aI7
aF0.714
aI3
aI9
aI12
aI2
aI1
aI0
aI5
aI3
aI19
aI12
aa(lp84
V0021300951
p85
aVMAR 11, 2014
p86
aVSAC @ DET
p87
aVL
p88
aI38
aI5
aI15
aF0.333
aI0
aI0
aF0.0
aI3
aI6
aF0.5
aI3
aI11
aI14
aI1
aI1
aI6
aI5
aI2
aI13
aI1
aa(lp89
V0021300938
p90
aVMAR 09, 2014
p91
aVSAC @ BKN
p92
aVL
p93
aI32
aI13
aI19
aF0.684
aI0
aI0
aF0.0
aI2
aI4
aF0.5
aI10
aI10
aI20
aI3
aI1
aI1
aI6
aI4
aI28
aI-9
aa(lp94
V0021300919
p95
aVMAR 07, 2014
p96
aVSAC @ TOR
p97
aVL
p98
aI27
aI8
aI12
aF0.667
aI0
aI0
aF0.0
aI8
aI10
aF0.8
aI3
aI4
aI7
aI2
aI1
aI0
aI5
aI4
aI24
aI1
aa(lp99
V0021300910
p100
aVMAR 05, 2014
p101
aVSAC @ MIL
p102
aVW
p103
aI31
aI7
aI14
aF0.5
aI0
aI0
aF0.0
aI7
aI9
aF0.778
aI2
aI8
aI10
aI5
aI1
aI0
aI2
aI5
aI21
aI17
aa(lp104
V0021300897
p105
aVMAR 03, 2014
p106
aVSAC vs. NOP
p107
aVW
p108
aI28
aI5
aI13
aF0.385
aI0
aI0
aF0.0
aI13
aI16
aF0.813
aI5
aI7
aI12
aI1
aI0
aI0
aI6
aI4
aI23
aI2
aa(lp109
V0021300881
p110
aVMAR 01, 2014
p111
aVSAC vs. MIN
p112
aVL
p113
aI33
aI9
aI16
aF0.563
aI0
aI0
aF0.0
aI3
aI5
aF0.6
aI2
aI15
aI17
aI3
aI0
aI3
aI2
aI5
aI21
aI-11
aa(lp114
V0021300852
p115
aVFEB 25, 2014
p116
aVSAC vs. HOU
p117
aVL
p118
aI20
aI6
aI13
aF0.462
aI0
aI0
aF0.0
aI4
aI5
aF0.8
aI0
aI6
aI6
aI1
aI1
aI0
aI2
aI5
aI16
aI-22
aa(lp119
V0021300837
p120
aVFEB 23, 2014
p121
aVSAC @ DEN
p122
aVW
p123
aI34
aI8
aI16
aF0.5
aI0
aI0
aF0.0
aI11
aI12
aF0.917
aI1
aI8
aI9
aI5
aI1
aI5
aI4
aI2
aI27
aI36
aa(lp124
V0021300831
p125
aVFEB 22, 2014
p126
aVSAC vs. BOS
p127
aVW
p128
aI34
aI4
aI8
aF0.5
aI0
aI0
aF0.0
aI5
aI8
aF0.625
aI1
aI6
aI7
aI2
aI2
aI0
aI6
aI6
aI13
aI8
aa(lp129
V0021300783
p130
aVFEB 12, 2014
p131
aVSAC @ NYK
p132
aVW
p133
aI33
aI7
aI13
aF0.538
aI0
aI0
aF0.0
aI5
aI5
aF1.0
aI3
aI11
aI14
aI2
aI0
aI1
aI2
aI3
aI19
aI-17
aa(lp134
V0021300771
p135
aVFEB 11, 2014
p136
aVSAC @ CLE
p137
aVL
p138
aI36
aI5
aI12
aF0.417
aI0
aI0
aF0.0
aI11
aI16
aF0.688
aI4
aI6
aI10
aI0
aI0
aI1
aI4
aI2
aI21
aI-14
aa(lp139
V0021300762
p140
aVFEB 09, 2014
p141
aVSAC @ WAS
p142
aVL
p143
aI39
aI3
aI16
aF0.188
aI0
aI1
aF0.0
aI8
aI9
aF0.889
aI6
aI6
aI12
aI2
aI2
aI2
aI4
aI3
aI14
aI-6
aa(lp144
V0021300743
p145
aVFEB 07, 2014
p146
aVSAC @ BOS
p147
aVL
p148
aI39
aI11
aI19
aF0.579
aI0
aI0
aF0.0
aI9
aI11
aF0.818
aI3
aI13
aI16
aI3
aI0
aI1
aI4
aI3
aI31
aI7
aa(lp149
V0021300735
p150
aVFEB 05, 2014
p151
aVSAC vs. TOR
p152
aVW
p153
aI38
aI8
aI19
aF0.421
aI0
aI0
aF0.0
aI9
aI14
aF0.643
aI5
aI5
aI10
aI4
aI1
aI2
aI2
aI4
aI25
aI7
aa(lp154
V0021300720
p155
aVFEB 03, 2014
p156
aVSAC vs. CHI
p157
aVW
p158
aI34
aI8
aI15
aF0.533
aI0
aI0
aF0.0
aI9
aI15
aF0.6
aI2
aI14
aI16
aI4
aI0
aI1
aI4
aI3
aI25
aI21
aa(lp159
V0021300627
p160
aVJAN 22, 2014
p161
aVSAC @ HOU
p162
aVL
p163
aI9
aI1
aI2
aF0.5
aI0
aI0
aF0.0
aI0
aI2
aF0.0
aI0
aI4
aI4
aI3
aI1
aI2
aI0
aI2
aI2
aI1
aa(lp164
V0021300618
p165
aVJAN 21, 2014
p166
aVSAC @ NOP
p167
aVW
p168
aI29
aI6
aI10
aF0.6
aI0
aI0
aF0.0
aI6
aI9
aF0.667
aI2
aI9
aI11
aI6
aI3
aI4
aI3
aI3
aI18
aI21
aa(lp169
V0021300603
p170
aVJAN 19, 2014
p171
aVSAC @ OKC
p172
aVL
p173
aI33
aI6
aI17
aF0.353
aI0
aI0
aF0.0
aI4
aI6
aF0.667
aI3
aI11
aI14
aI1
aI2
aI3
aI7
aI3
aI16
aI-12
aa(lp174
V0021300588
p175
aVJAN 17, 2014
p176
aVSAC @ MEM
p177
aVL
p178
aI40
aI6
aI20
aF0.3
aI0
aI0
aF0.0
aI10
aI13
aF0.769
aI3
aI14
aI17
aI1
aI0
aI1
aI2
aI5
aI22
aI-5
aa(lp179
V0021300571
p180
aVJAN 15, 2014
p181
aVSAC @ MIN
p182
aVW
p183
aI34
aI9
aI19
aF0.474
aI0
aI0
aF0.0
aI2
aI2
aF1.0
aI3
aI8
aI11
aI0
aI0
aI1
aI5
aI5
aI20
aI5
aa(lp184
V0021300563
p185
aVJAN 14, 2014
p186
aVSAC @ IND
p187
aVL
p188
aI30
aI12
aI21
aF0.571
aI0
aI0
aF0.0
aI7
aI7
aF1.0
aI6
aI7
aI13
aI2
aI2
aI1
aI4
aI3
aI31
aI-11
aa(lp189
V0021300552
p190
aVJAN 12, 2014
p191
aVSAC vs. CLE
p192
aVW
p193
aI30
aI5
aI9
aF0.556
aI0
aI0
aF0.0
aI6
aI7
aF0.857
aI2
aI9
aI11
aI2
aI0
aI2
aI3
aI3
aI16
aI17
aa(lp194
V0021300540
p195
aVJAN 10, 2014
p196
aVSAC vs. ORL
p197
aVW
p198
aI39
aI9
aI16
aF0.563
aI0
aI0
aF0.0
aI6
aI6
aF1.0
aI2
aI12
aI14
aI6
aI3
aI1
aI3
aI3
aI24
aI8
aa(lp199
V0021300519
p200
aVJAN 07, 2014
p201
aVSAC vs. POR
p202
aVW
p203
aI43
aI13
aI28
aF0.464
aI0
aI0
aF0.0
aI9
aI15
aF0.6
aI6
aI7
aI13
aI2
aI1
aI2
aI2
aI4
aI35
aI7
aa(lp204
V0021300497
p205
aVJAN 04, 2014
p206
aVSAC vs. CHA
p207
aVL
p208
aI38
aI8
aI23
aF0.348
aI0
aI2
aF0.0
aI10
aI14
aF0.714
aI5
aI6
aI11
aI2
aI4
aI0
aI2
aI4
aI26
aI-10
aa(lp209
V0021300481
p210
aVJAN 02, 2014
p211
aVSAC vs. PHI
p212
aVL
p213
aI28
aI10
aI16
aF0.625
aI0
aI0
aF0.0
aI13
aI19
aF0.684
aI4
aI10
aI14
aI2
aI2
aI1
aI5
aI5
aI33
aI7
aa(lp214
V0021300464
p215
aVDEC 31, 2013
p216
aVSAC @ HOU
p217
aVW
p218
aI33
aI7
aI13
aF0.538
aI0
aI0
aF0.0
aI3
aI4
aF0.75
aI2
aI14
aI16
aI2
aI4
aI1
aI4
aI3
aI17
aI6
aa(lp219
V0021300451
p220
aVDEC 29, 2013
p221
aVSAC @ SAS
p222
aVL
p223
aI37
aI11
aI23
aF0.478
aI0
aI0
aF0.0
aI7
aI9
aF0.778
aI5
aI9
aI14
aI3
aI1
aI1
aI0
aI3
aI29
aI4
aa(lp224
V0021300434
p225
aVDEC 27, 2013
p226
aVSAC vs. MIA
p227
aVW
p228
aI41
aI10
aI21
aF0.476
aI0
aI0
aF0.0
aI7
aI10
aF0.7
aI6
aI11
aI17
aI5
aI2
aI0
aI5
aI5
aI27
aI0
aa(lp229
V0021300417
p230
aVDEC 23, 2013
p231
aVSAC vs. NOP
p232
aVL
p233
aI30
aI7
aI15
aF0.467
aI0
aI0
aF0.0
aI10
aI17
aF0.588
aI5
aI9
aI14
aI1
aI2
aI2
aI4
aI5
aI24
aI-10
aa(lp234
V0021300395
p235
aVDEC 21, 2013
p236
aVSAC @ ORL
p237
aVW
p238
aI37
aI5
aI14
aF0.357
aI0
aI0
aF0.0
aI4
aI9
aF0.444
aI5
aI6
aI11
aI2
aI1
aI2
aI4
aI5
aI14
aI-1
aa(lp239
V0021300387
p240
aVDEC 20, 2013
p241
aVSAC @ MIA
p242
aVL
p243
aI32
aI11
aI15
aF0.733
aI0
aI0
aF0.0
aI5
aI8
aF0.625
aI1
aI7
aI8
aI5
aI2
aI0
aI3
aI2
aI27
aI-10
aa(lp244
V0021300372
p245
aVDEC 18, 2013
p246
aVSAC @ ATL
p247
aVL
p248
aI35
aI10
aI20
aF0.5
aI0
aI0
aF0.0
aI8
aI9
aF0.889
aI3
aI4
aI7
aI6
aI1
aI0
aI4
aI4
aI28
aI-8
aa(lp249
V0021300364
p250
aVDEC 17, 2013
p251
aVSAC @ CHA
p252
aVL
p253
aI36
aI9
aI13
aF0.692
aI0
aI0
aF0.0
aI12
aI15
aF0.8
aI4
aI13
aI17
aI6
aI3
aI0
aI6
aI3
aI30
aI-4
aa(lp254
V0021300350
p255
aVDEC 15, 2013
p256
aVSAC vs. HOU
p257
aVW
p258
aI32
aI7
aI14
aF0.5
aI0
aI0
aF0.0
aI7
aI7
aF1.0
aI0
aI10
aI10
aI5
aI1
aI0
aI4
aI4
aI21
aI16
aa(lp259
V0021300340
p260
aVDEC 13, 2013
p261
aVSAC @ PHX
p262
aVL
p263
aI34
aI5
aI16
aF0.313
aI0
aI0
aF0.0
aI5
aI6
aF0.833
aI5
aI11
aI16
aI5
aI5
aI1
aI3
aI2
aI15
aI-10
aa(lp264
V0021300325
p265
aVDEC 11, 2013
p266
aVSAC vs. UTA
p267
aVL
p268
aI23
aI7
aI14
aF0.5
aI0
aI0
aF0.0
aI7
aI11
aF0.636
aI6
aI5
aI11
aI2
aI0
aI0
aI3
aI3
aI21
aI-24
aa(lp269
V0021300309
p270
aVDEC 09, 2013
p271
aVSAC vs. DAL
p272
aVW
p273
aI36
aI10
aI17
aF0.588
aI0
aI0
aF0.0
aI12
aI14
aF0.857
aI4
aI15
aI19
aI3
aI3
aI1
aI9
aI2
aI32
aI31
aa(lp274
V0021300297
p275
aVDEC 07, 2013
p276
aVSAC @ UTA
p277
aVW
p278
aI27
aI10
aI15
aF0.667
aI0
aI0
aF0.0
aI8
aI10
aF0.8
aI1
aI6
aI7
aI3
aI2
aI3
aI4
aI4
aI28
aI2
aa(lp279
V0021300289
p280
aVDEC 06, 2013
p281
aVSAC vs. LAL
p282
aVL
p283
aI32
aI6
aI17
aF0.353
aI0
aI0
aF0.0
aI8
aI12
aF0.667
aI6
aI5
aI11
aI4
aI2
aI1
aI6
aI6
aI20
aI2
aa(lp284
V0021300251
p285
aVDEC 01, 2013
p286
aVSAC vs. GSW
p287
aVL
p288
aI21
aI10
aI13
aF0.769
aI0
aI0
aF0.0
aI4
aI5
aF0.8
aI1
aI5
aI6
aI2
aI2
aI0
aI3
aI5
aI24
aI19
aa(lp289
V0021300240
p290
aVNOV 29, 2013
p291
aVSAC vs. LAC
p292
aVL
p293
aI41
aI11
aI19
aF0.579
aI0
aI0
aF0.0
aI3
aI3
aF1.0
aI1
aI8
aI9
aI6
aI0
aI3
aI3
aI5
aI25
aI8
aa(lp294
V0021300201
p295
aVNOV 24, 2013
p296
aVSAC @ LAL
p297
aVL
p298
aI31
aI6
aI14
aF0.429
aI0
aI0
aF0.0
aI5
aI7
aF0.714
aI2
aI6
aI8
aI7
aI1
aI0
aI3
aI5
aI17
aI-9
aa(lp299
V0021300187
p300
aVNOV 23, 2013
p301
aVSAC @ LAC
p302
aVL
p303
aI38
aI10
aI22
aF0.455
aI0
aI0
aF0.0
aI3
aI6
aF0.5
aI3
aI16
aI19
aI7
aI1
aI0
aI3
aI5
aI23
aI-3
aa(lp304
V0021300171
p305
aVNOV 20, 2013
p306
aVSAC @ PHX
p307
aVW
p308
aI27
aI4
aI14
aF0.286
aI0
aI0
aF0.0
aI11
aI15
aF0.733
aI2
aI10
aI12
aI2
aI1
aI0
aI2
aI5
aI19
aI8
aa(lp309
V0021300160
p310
aVNOV 19, 2013
p311
aVSAC vs. PHX
p312
aVW
p313
aI35
aI9
aI18
aF0.5
aI0
aI0
aF0.0
aI9
aI15
aF0.6
aI4
aI8
aI12
aI3
aI4
aI2
aI4
aI3
aI27
aI9
aa(lp314
V0021300148
p315
aVNOV 17, 2013
p316
aVSAC vs. MEM
p317
aVL
p318
aI18
aI4
aI11
aF0.364
aI0
aI0
aF0.0
aI1
aI1
aF1.0
aI1
aI4
aI5
aI1
aI1
aI0
aI3
aI2
aI9
aI-15
aa(lp319
V0021300135
p320
aVNOV 15, 2013
p321
aVSAC vs. DET
p322
aVL
p323
aI36
aI12
aI23
aF0.522
aI0
aI0
aF0.0
aI2
aI3
aF0.667
aI3
aI10
aI13
aI2
aI0
aI3
aI4
aI4
aI26
aI-3
aa(lp324
V0021300121
p325
aVNOV 13, 2013
p326
aVSAC vs. BKN
p327
aVW
p328
aI22
aI5
aI14
aF0.357
aI0
aI0
aF0.0
aI5
aI6
aF0.833
aI2
aI7
aI9
aI1
aI1
aI3
aI1
aI6
aI15
aI1
aa(lp329
V0021300093
p330
aVNOV 09, 2013
p331
aVSAC vs. POR
p332
aVL
p333
aI31
aI13
aI24
aF0.542
aI0
aI0
aF0.0
aI7
aI11
aF0.636
aI3
aI9
aI12
aI0
aI1
aI1
aI2
aI4
aI33
aI-2
aa(lp334
V0021300084
p335
aVNOV 08, 2013
p336
aVSAC @ POR
p337
aVL
p338
aI37
aI13
aI25
aF0.52
aI0
aI2
aF0.0
aI9
aI10
aF0.9
aI1
aI8
aI9
aI1
aI4
aI1
aI3
aI4
aI35
aI-10
aa(lp339
V0021300059
p340
aVNOV 05, 2013
p341
aVSAC vs. ATL
p342
aVL
p343
aI29
aI5
aI12
aF0.417
aI0
aI1
aF0.0
aI1
aI2
aF0.5
aI2
aI4
aI6
aI2
aI0
aI1
aI1
aI5
aI11
aI-5
aa(lp344
V0021300040
p345
aVNOV 02, 2013
p346
aVSAC @ GSW
p347
aVL
p348
aI18
aI3
aI8
aF0.375
aI0
aI0
aF0.0
aI2
aI3
aF0.667
aI2
aI5
aI7
aI0
aI3
aI0
aI2
aI3
aI8
aI-13
aa(lp349
V0021300031
p350
aVNOV 01, 2013
p351
aVSAC vs. LAC
p352
aVL
p353
aI35
aI9
aI19
aF0.474
aI0
aI1
aF0.0
aI6
aI9
aF0.667
aI3
aI7
aI10
aI4
aI3
aI2
aI4
aI5
aI24
aI-7
aa(lp354
V0021300016
p355
aVOCT 30, 2013
p356
aVSAC vs. DEN
p357
aVW
p358
aI39
aI13
aI26
aF0.5
aI0
aI0
aF0.0
aI4
aI7
aF0.571
aI5
aI9
aI14
aI1
aI2
aI2
aI4
aI4
aI30
aI4
aasS'name'
p359
VDeMarcus Cousins
p360
sS'experience'
p361
I3
s.