(dp0
S'age'
p1
I26
sS'stats'
p2
(lp3
(lp4
V0021301226
p5
aVAPR 16, 2014
p6
aVTOR @ NYK
p7
aVL
p8
aI22
aI5
aI9
aF0.556
aI3
aI6
aF0.5
aI0
aI0
aF0.0
aI0
aI4
aI4
aI5
aI0
aI0
aI2
aI2
aI13
aI16
aa(lp9
V0021301205
p10
aVAPR 14, 2014
p11
aVTOR vs. MIL
p12
aVW
p13
aI40
aI8
aI12
aF0.667
aI5
aI9
aF0.556
aI4
aI5
aF0.8
aI0
aI2
aI2
aI7
aI0
aI0
aI2
aI2
aI25
aI17
aa(lp14
V0021301198
p15
aVAPR 13, 2014
p16
aVTOR @ DET
p17
aVW
p18
aI19
aI5
aI9
aF0.556
aI2
aI4
aF0.5
aI2
aI2
aF1.0
aI0
aI0
aI0
aI2
aI0
aI0
aI3
aI3
aI14
aI3
aa(lp19
V0021301177
p20
aVAPR 11, 2014
p21
aVTOR vs. NYK
p22
aVL
p23
aI19
aI2
aI6
aF0.333
aI2
aI4
aF0.5
aI0
aI0
aF0.0
aI0
aI2
aI2
aI3
aI0
aI1
aI2
aI0
aI6
aI-1
aa(lp24
V0021301164
p25
aVAPR 09, 2014
p26
aVTOR vs. PHI
p27
aVW
p28
aI13
aI2
aI3
aF0.667
aI2
aI3
aF0.667
aI2
aI2
aF1.0
aI0
aI0
aI0
aI2
aI0
aI1
aI1
aI1
aI8
aI7
aa(lp29
V0021301148
p30
aVAPR 05, 2014
p31
aVTOR @ MIL
p32
aVW
p33
aI37
aI10
aI15
aF0.667
aI6
aI8
aF0.75
aI0
aI0
aF0.0
aI0
aI4
aI4
aI4
aI1
aI0
aI0
aI1
aI26
aI13
aa(lp34
V0021301131
p35
aVAPR 04, 2014
p36
aVTOR vs. IND
p37
aVW
p38
aI33
aI4
aI12
aF0.333
aI2
aI5
aF0.4
aI0
aI0
aF0.0
aI0
aI5
aI5
aI3
aI1
aI0
aI2
aI3
aI10
aI7
aa(lp39
V0021301118
p40
aVAPR 02, 2014
p41
aVTOR vs. HOU
p42
aVW
p43
aI40
aI4
aI12
aF0.333
aI4
aI7
aF0.571
aI3
aI4
aF0.75
aI0
aI4
aI4
aI8
aI1
aI0
aI0
aI4
aI15
aI6
aa(lp44
V0021301105
p45
aVMAR 31, 2014
p46
aVTOR @ MIA
p47
aVL
p48
aI23
aI6
aI11
aF0.545
aI3
aI5
aF0.6
aI2
aI3
aF0.667
aI0
aI0
aI0
aI1
aI0
aI0
aI4
aI3
aI17
aI6
aa(lp49
V0021301096
p50
aVMAR 30, 2014
p51
aVTOR @ ORL
p52
aVW
p53
aI15
aI2
aI6
aF0.333
aI0
aI3
aF0.0
aI1
aI1
aF1.0
aI0
aI0
aI0
aI1
aI0
aI0
aI2
aI1
aI5
aI-2
aa(lp54
V0021301076
p55
aVMAR 28, 2014
p56
aVTOR vs. BOS
p57
aVW
p58
aI24
aI5
aI11
aF0.455
aI3
aI5
aF0.6
aI2
aI2
aF1.0
aI1
aI1
aI2
aI5
aI1
aI0
aI2
aI1
aI15
aI5
aa(lp59
V0021301063
p60
aVMAR 26, 2014
p61
aVTOR @ BOS
p62
aVW
p63
aI17
aI3
aI10
aF0.3
aI1
aI3
aF0.333
aI0
aI0
aF0.0
aI0
aI2
aI2
aI3
aI1
aI0
aI2
aI2
aI7
aI-2
aa(lp64
V0021301057
p65
aVMAR 25, 2014
p66
aVTOR @ CLE
p67
aVL
p68
aI24
aI4
aI13
aF0.308
aI4
aI7
aF0.571
aI4
aI4
aF1.0
aI1
aI3
aI4
aI4
aI0
aI0
aI1
aI1
aI16
aI5
aa(lp69
V0021301040
p70
aVMAR 23, 2014
p71
aVTOR vs. ATL
p72
aVW
p73
aI28
aI5
aI13
aF0.385
aI0
aI5
aF0.0
aI2
aI2
aF1.0
aI0
aI3
aI3
aI5
aI1
aI0
aI3
aI1
aI12
aI1
aa(lp74
V0021301024
p75
aVMAR 21, 2014
p76
aVTOR vs. OKC
p77
aVL
p78
aI31
aI9
aI11
aF0.818
aI3
aI5
aF0.6
aI0
aI0
aF0.0
aI0
aI5
aI5
aI4
aI0
aI0
aI1
aI6
aI21
aI9
aa(lp79
V0021301012
p80
aVMAR 19, 2014
p81
aVTOR @ NOP
p82
aVW
p83
aI21
aI4
aI7
aF0.571
aI2
aI5
aF0.4
aI4
aI5
aF0.8
aI1
aI1
aI2
aI3
aI0
aI1
aI1
aI1
aI14
aI3
aa(lp84
V0021301004
p85
aVMAR 18, 2014
p86
aVTOR @ ATL
p87
aVL
p88
aI18
aI5
aI14
aF0.357
aI0
aI5
aF0.0
aI0
aI0
aF0.0
aI0
aI2
aI2
aI0
aI0
aI0
aI2
aI2
aI10
aI-13
aa(lp89
V0021300988
p90
aVMAR 16, 2014
p91
aVTOR vs. PHX
p92
aVL
p93
aI19
aI0
aI5
aF0.0
aI0
aI3
aF0.0
aI2
aI2
aF1.0
aI0
aI3
aI3
aI2
aI0
aI0
aI0
aI2
aI2
aI6
aa(lp94
V0021300974
p95
aVMAR 14, 2014
p96
aVTOR vs. MEM
p97
aVW
p98
aI28
aI6
aI11
aF0.545
aI3
aI5
aF0.6
aI2
aI3
aF0.667
aI0
aI5
aI5
aI6
aI3
aI0
aI2
aI3
aI17
aI19
aa(lp99
V0021300960
p100
aVMAR 12, 2014
p101
aVTOR vs. DET
p102
aVW
p103
aI19
aI3
aI9
aF0.333
aI1
aI2
aF0.5
aI0
aI0
aF0.0
aI0
aI7
aI7
aI4
aI0
aI0
aI2
aI0
aI7
aI-4
aa(lp104
V0021300944
p105
aVMAR 10, 2014
p106
aVTOR @ BKN
p107
aVL
p108
aI18
aI2
aI6
aF0.333
aI0
aI3
aF0.0
aI0
aI0
aF0.0
aI0
aI3
aI3
aI5
aI0
aI0
aI1
aI1
aI4
aI-2
aa(lp109
V0021300940
p110
aVMAR 09, 2014
p111
aVTOR @ MIN
p112
aVW
p113
aI22
aI3
aI8
aF0.375
aI2
aI5
aF0.4
aI4
aI4
aF1.0
aI1
aI5
aI6
aI3
aI1
aI0
aI2
aI4
aI12
aI12
aa(lp114
V0021300919
p115
aVMAR 07, 2014
p116
aVTOR vs. SAC
p117
aVW
p118
aI18
aI1
aI5
aF0.2
aI0
aI3
aF0.0
aI2
aI2
aF1.0
aI0
aI0
aI0
aI3
aI2
aI0
aI1
aI2
aI4
aI9
aa(lp119
V0021300884
p120
aVMAR 02, 2014
p121
aVTOR vs. GSW
p122
aVW
p123
aI23
aI5
aI13
aF0.385
aI2
aI7
aF0.286
aI0
aI0
aF0.0
aI0
aI0
aI0
aI4
aI0
aI0
aI1
aI0
aI12
aI10
aa(lp124
V0021300864
p125
aVFEB 27, 2014
p126
aVTOR vs. WAS
p127
aVL
p128
aI38
aI11
aI19
aF0.579
aI4
aI9
aF0.444
aI0
aI0
aF0.0
aI0
aI2
aI2
aI8
aI2
aI0
aI6
aI4
aI26
aI0
aa(lp129
V0021300846
p130
aVFEB 25, 2014
p131
aVTOR @ CLE
p132
aVW
p133
aI17
aI6
aI11
aF0.545
aI3
aI6
aF0.5
aI0
aI0
aF0.0
aI1
aI0
aI1
aI2
aI1
aI0
aI1
aI2
aI15
aI4
aa(lp134
V0021300836
p135
aVFEB 23, 2014
p136
aVTOR vs. ORL
p137
aVW
p138
aI26
aI4
aI7
aF0.571
aI2
aI3
aF0.667
aI0
aI0
aF0.0
aI0
aI3
aI3
aI4
aI0
aI0
aI1
aI1
aI10
aI-2
aa(lp139
V0021300818
p140
aVFEB 21, 2014
p141
aVTOR vs. CLE
p142
aVW
p143
aI15
aI2
aI6
aF0.333
aI2
aI3
aF0.667
aI2
aI2
aF1.0
aI0
aI2
aI2
aI2
aI0
aI0
aI1
aI0
aI8
aI8
aa(lp144
V0021300803
p145
aVFEB 19, 2014
p146
aVTOR vs. CHI
p147
aVL
p148
aI17
aI3
aI8
aF0.375
aI1
aI3
aF0.333
aI0
aI0
aF0.0
aI1
aI1
aI2
aI0
aI1
aI0
aI2
aI4
aI7
aI-10
aa(lp149
V0021300794
p150
aVFEB 18, 2014
p151
aVTOR @ WAS
p152
aVW
p153
aI26
aI6
aI8
aF0.75
aI2
aI2
aF1.0
aI0
aI0
aF0.0
aI0
aI0
aI0
aI6
aI0
aI0
aI1
aI0
aI14
aI9
aa(lp154
V0021300779
p155
aVFEB 12, 2014
p156
aVTOR vs. ATL
p157
aVW
p158
aI23
aI5
aI10
aF0.5
aI2
aI4
aF0.5
aI0
aI0
aF0.0
aI0
aI0
aI0
aI2
aI0
aI0
aI0
aI2
aI12
aI17
aa(lp159
V0021300765
p160
aVFEB 10, 2014
p161
aVTOR vs. NOP
p162
aVW
p163
aI13
aI1
aI4
aF0.25
aI0
aI2
aF0.0
aI1
aI1
aF1.0
aI0
aI0
aI0
aI2
aI0
aI0
aI2
aI2
aI3
aI-12
aa(lp164
V0021300748
p165
aVFEB 07, 2014
p166
aVTOR @ LAC
p167
aVL
p168
aI17
aI0
aI3
aF0.0
aI0
aI1
aF0.0
aI0
aI0
aF0.0
aI0
aI0
aI0
aI4
aI0
aI0
aI0
aI2
aI0
aI-5
aa(lp169
V0021300735
p170
aVFEB 05, 2014
p171
aVTOR @ SAC
p172
aVL
p173
aI26
aI1
aI4
aF0.25
aI1
aI1
aF1.0
aI2
aI2
aF1.0
aI1
aI1
aI2
aI4
aI0
aI0
aI2
aI6
aI5
aI3
aa(lp174
V0021300719
p175
aVFEB 03, 2014
p176
aVTOR @ UTA
p177
aVW
p178
aI27
aI5
aI9
aF0.556
aI0
aI3
aF0.0
aI2
aI2
aF1.0
aI0
aI3
aI3
aI4
aI1
aI0
aI0
aI1
aI12
aI9
aa(lp179
V0021300694
p180
aVJAN 31, 2014
p181
aVTOR @ DEN
p182
aVW
p183
aI20
aI0
aI4
aF0.0
aI0
aI2
aF0.0
aI0
aI0
aF0.0
aI0
aI2
aI2
aI3
aI0
aI0
aI3
aI1
aI0
aI-7
aa(lp184
V0021300676
p185
aVJAN 29, 2014
p186
aVTOR vs. ORL
p187
aVW
p188
aI37
aI2
aI7
aF0.286
aI2
aI6
aF0.333
aI0
aI0
aF0.0
aI0
aI1
aI1
aI6
aI0
aI0
aI3
aI3
aI6
aI10
aa(lp189
V0021300663
p190
aVJAN 27, 2014
p191
aVTOR @ BKN
p192
aVW
p193
aI26
aI4
aI9
aF0.444
aI2
aI4
aF0.5
aI2
aI2
aF1.0
aI0
aI3
aI3
aI4
aI0
aI0
aI4
aI1
aI12
aI7
aa(lp194
V0021300647
p195
aVJAN 25, 2014
p196
aVTOR vs. LAC
p197
aVL
p198
aI20
aI3
aI6
aF0.5
aI0
aI1
aF0.0
aI2
aI3
aF0.667
aI2
aI1
aI3
aI3
aI0
aI0
aI3
aI0
aI8
aI2
aa(lp199
V0021300634
p200
aVJAN 24, 2014
p201
aVTOR @ PHI
p202
aVW
p203
aI22
aI1
aI6
aF0.167
aI0
aI3
aF0.0
aI0
aI0
aF0.0
aI0
aI2
aI2
aI7
aI0
aI0
aI1
aI3
aI2
aI10
aa(lp204
V0021300624
p205
aVJAN 22, 2014
p206
aVTOR vs. DAL
p207
aVW
p208
aI34
aI5
aI13
aF0.385
aI3
aI7
aF0.429
aI4
aI6
aF0.667
aI0
aI2
aI2
aI7
aI3
aI0
aI2
aI2
aI17
aI21
aa(lp209
V0021300608
p210
aVJAN 20, 2014
p211
aVTOR @ CHA
p212
aVL
p213
aI24
aI6
aI13
aF0.462
aI3
aI7
aF0.429
aI0
aI0
aF0.0
aI1
aI6
aI7
aI9
aI1
aI0
aI2
aI2
aI15
aI23
aa(lp214
V0021300601
p215
aVJAN 19, 2014
p216
aVTOR vs. LAL
p217
aVL
p218
aI21
aI5
aI11
aF0.455
aI1
aI5
aF0.2
aI0
aI0
aF0.0
aI2
aI3
aI5
aI8
aI1
aI0
aI0
aI0
aI11
aI15
aa(lp219
V0021300584
p220
aVJAN 17, 2014
p221
aVTOR vs. MIN
p222
aVW
p223
aI19
aI1
aI6
aF0.167
aI1
aI4
aF0.25
aI0
aI0
aF0.0
aI0
aI1
aI1
aI5
aI0
aI0
aI0
aI1
aI3
aI0
aa(lp224
V0021300569
p225
aVJAN 15, 2014
p226
aVTOR @ BOS
p227
aVL
p228
aI9
aI0
aI2
aF0.0
aI0
aI0
aF0.0
aI0
aI0
aF0.0
aI0
aI0
aI0
aI0
aI0
aI0
aI1
aI0
aI0
aI-8
aa(lp229
V0021300555
p230
aVJAN 13, 2014
p231
aVTOR vs. MIL
p232
aVW
p233
aI21
aI3
aI5
aF0.6
aI2
aI2
aF1.0
aI0
aI0
aF0.0
aI0
aI0
aI0
aI4
aI0
aI0
aI4
aI2
aI8
aI5
aa(lp234
V0021300543
p235
aVJAN 11, 2014
p236
aVTOR vs. BKN
p237
aVW
p238
aI13
aI1
aI5
aF0.2
aI0
aI3
aF0.0
aI0
aI0
aF0.0
aI0
aI1
aI1
aI3
aI1
aI0
aI1
aI2
aI2
aI6
aa(lp239
V0021300521
p240
aVJAN 08, 2014
p241
aVTOR vs. DET
p242
aVW
p243
aI20
aI3
aI8
aF0.375
aI1
aI4
aF0.25
aI0
aI0
aF0.0
aI0
aI6
aI6
aI3
aI0
aI0
aI0
aI3
aI7
aI0
aa(lp244
V0021300510
p245
aVJAN 07, 2014
p246
aVTOR @ IND
p247
aVL
p248
aI14
aI1
aI7
aF0.143
aI0
aI2
aF0.0
aI0
aI0
aF0.0
aI0
aI3
aI3
aI3
aI0
aI0
aI0
aI1
aI2
aI8
aa(lp249
V0021300500
p250
aVJAN 05, 2014
p251
aVTOR @ MIA
p252
aVL
p253
aI11
aI0
aI0
aF0.0
aI0
aI0
aF0.0
aI0
aI0
aF0.0
aI0
aI2
aI2
aI2
aI0
aI0
aI1
aI0
aI0
aI-9
aa(lp254
V0021300482
p255
aVJAN 03, 2014
p256
aVTOR @ WAS
p257
aVW
p258
aI13
aI0
aI4
aF0.0
aI0
aI2
aF0.0
aI0
aI0
aF0.0
aI0
aI1
aI1
aI3
aI0
aI0
aI2
aI2
aI0
aI-6
aa(lp259
V0021300469
p260
aVJAN 01, 2014
p261
aVTOR vs. IND
p262
aVW
p263
aI14
aI2
aI6
aF0.333
aI2
aI4
aF0.5
aI0
aI0
aF0.0
aI0
aI0
aI0
aI2
aI0
aI0
aI1
aI0
aI6
aI-6
aa(lp264
V0021300463
p265
aVDEC 31, 2013
p266
aVTOR @ CHI
p267
aVW
p268
aI16
aI4
aI9
aF0.444
aI1
aI2
aF0.5
aI0
aI0
aF0.0
aI0
aI3
aI3
aI3
aI0
aI1
aI1
aI0
aI9
aI16
aa(lp269
V0021300438
p270
aVDEC 28, 2013
p271
aVTOR vs. NYK
p272
aVW
p273
aI15
aI3
aI8
aF0.375
aI3
aI6
aF0.5
aI2
aI2
aF1.0
aI0
aI0
aI0
aI1
aI0
aI0
aI4
aI1
aI11
aI-9
aa(lp274
V0021300430
p275
aVDEC 27, 2013
p276
aVTOR @ NYK
p277
aVW
p278
aI16
aI1
aI7
aF0.143
aI0
aI2
aF0.0
aI2
aI2
aF1.0
aI0
aI2
aI2
aI4
aI0
aI0
aI0
aI2
aI4
aI8
aa(lp279
V0021300414
p280
aVDEC 23, 2013
p281
aVTOR @ SAS
p282
aVL
p283
aI17
aI2
aI7
aF0.286
aI1
aI3
aF0.333
aI1
aI2
aF0.5
aI1
aI0
aI1
aI3
aI0
aI0
aI1
aI1
aI6
aI-3
aa(lp284
V0021300405
p285
aVDEC 22, 2013
p286
aVTOR @ OKC
p287
aVW
p288
aI15
aI1
aI6
aF0.167
aI0
aI3
aF0.0
aI5
aI6
aF0.833
aI0
aI4
aI4
aI4
aI0
aI0
aI4
aI4
aI7
aI-4
aa(lp289
V0021300389
p290
aVDEC 20, 2013
p291
aVTOR @ DAL
p292
aVW
p293
aI15
aI6
aI11
aF0.545
aI2
aI4
aF0.5
aI0
aI0
aF0.0
aI1
aI1
aI2
aI0
aI0
aI0
aI2
aI0
aI14
aI3
aa(lp294
V0021300371
p295
aVDEC 18, 2013
p296
aVTOR vs. CHA
p297
aVL
p298
aI29
aI4
aI15
aF0.267
aI0
aI5
aF0.0
aI1
aI2
aF0.5
aI1
aI3
aI4
aI8
aI1
aI0
aI2
aI3
aI9
aI8
aa(lp299
V0021300346
p300
aVDEC 14, 2013
p301
aVTOR @ CHI
p302
aVW
p303
aI17
aI2
aI6
aF0.333
aI0
aI1
aF0.0
aI3
aI3
aF1.0
aI0
aI1
aI1
aI6
aI0
aI0
aI0
aI0
aI7
aI16
aa(lp304
V0021300331
p305
aVDEC 13, 2013
p306
aVTOR vs. PHI
p307
aVW
p308
aI17
aI5
aI7
aF0.714
aI2
aI3
aF0.667
aI0
aI0
aF0.0
aI0
aI3
aI3
aI2
aI1
aI0
aI4
aI1
aI12
aI-16
aa(lp309
V0021300297
p310
aVDEC 07, 2013
p311
aVSAC @ UTA
p312
aVW
p313
aI21
aI1
aI5
aF0.2
aI0
aI0
aF0.0
aI2
aI2
aF1.0
aI0
aI1
aI1
aI4
aI0
aI0
aI0
aI1
aI4
aI7
aa(lp314
V0021300289
p315
aVDEC 06, 2013
p316
aVSAC vs. LAL
p317
aVL
p318
aI23
aI2
aI5
aF0.4
aI1
aI3
aF0.333
aI0
aI0
aF0.0
aI0
aI0
aI0
aI6
aI0
aI1
aI1
aI1
aI5
aI-13
aa(lp319
V0021300267
p320
aVDEC 03, 2013
p321
aVSAC vs. OKC
p322
aVL
p323
aI27
aI4
aI10
aF0.4
aI2
aI2
aF1.0
aI2
aI2
aF1.0
aI0
aI1
aI1
aI7
aI0
aI0
aI1
aI0
aI12
aI-4
aa(lp324
V0021300251
p325
aVDEC 01, 2013
p326
aVSAC vs. GSW
p327
aVL
p328
aI14
aI2
aI8
aF0.25
aI0
aI0
aF0.0
aI2
aI2
aF1.0
aI1
aI0
aI1
aI3
aI1
aI0
aI2
aI3
aI6
aI-6
aa(lp329
V0021300240
p330
aVNOV 29, 2013
p331
aVSAC vs. LAC
p332
aVL
p333
aI36
aI4
aI12
aF0.333
aI2
aI6
aF0.333
aI1
aI1
aF1.0
aI1
aI2
aI3
aI7
aI0
aI0
aI0
aI2
aI11
aI-1
aa(lp334
V0021300201
p335
aVNOV 24, 2013
p336
aVSAC @ LAL
p337
aVL
p338
aI33
aI9
aI18
aF0.5
aI2
aI6
aF0.333
aI0
aI0
aF0.0
aI0
aI3
aI3
aI7
aI0
aI0
aI2
aI4
aI20
aI-8
aa(lp339
V0021300187
p340
aVNOV 23, 2013
p341
aVSAC @ LAC
p342
aVL
p343
aI15
aI1
aI3
aF0.333
aI0
aI2
aF0.0
aI0
aI0
aF0.0
aI0
aI1
aI1
aI2
aI0
aI0
aI0
aI1
aI2
aI-8
aa(lp344
V0021300171
p345
aVNOV 20, 2013
p346
aVSAC @ PHX
p347
aVW
p348
aI28
aI2
aI9
aF0.222
aI0
aI3
aF0.0
aI9
aI9
aF1.0
aI1
aI4
aI5
aI6
aI1
aI0
aI1
aI1
aI13
aI3
aa(lp349
V0021300160
p350
aVNOV 19, 2013
p351
aVSAC vs. PHX
p352
aVW
p353
aI24
aI5
aI9
aF0.556
aI1
aI2
aF0.5
aI0
aI0
aF0.0
aI0
aI1
aI1
aI6
aI0
aI0
aI2
aI3
aI11
aI-4
aa(lp354
V0021300148
p355
aVNOV 17, 2013
p356
aVSAC vs. MEM
p357
aVL
p358
aI19
aI4
aI7
aF0.571
aI0
aI0
aF0.0
aI0
aI0
aF0.0
aI0
aI1
aI1
aI3
aI1
aI0
aI1
aI1
aI8
aI-16
aa(lp359
V0021300135
p360
aVNOV 15, 2013
p361
aVSAC vs. DET
p362
aVL
p363
aI29
aI5
aI10
aF0.5
aI3
aI6
aF0.5
aI0
aI0
aF0.0
aI0
aI0
aI0
aI6
aI0
aI0
aI8
aI3
aI13
aI-3
aa(lp364
V0021300121
p365
aVNOV 13, 2013
p366
aVSAC vs. BKN
p367
aVW
p368
aI33
aI7
aI13
aF0.538
aI2
aI6
aF0.333
aI1
aI1
aF1.0
aI1
aI3
aI4
aI12
aI1
aI0
aI2
aI4
aI17
aI22
aa(lp369
V0021300093
p370
aVNOV 09, 2013
p371
aVSAC vs. POR
p372
aVL
p373
aI32
aI3
aI5
aF0.6
aI0
aI1
aF0.0
aI0
aI0
aF0.0
aI0
aI3
aI3
aI5
aI0
aI0
aI0
aI1
aI6
aI0
aa(lp374
V0021300084
p375
aVNOV 08, 2013
p376
aVSAC @ POR
p377
aVL
p378
aI32
aI5
aI10
aF0.5
aI1
aI4
aF0.25
aI1
aI2
aF0.5
aI1
aI1
aI2
aI6
aI2
aI0
aI1
aI3
aI12
aI-10
aa(lp379
V0021300059
p380
aVNOV 05, 2013
p381
aVSAC vs. ATL
p382
aVL
p383
aI20
aI2
aI5
aF0.4
aI1
aI4
aF0.25
aI4
aI4
aF1.0
aI0
aI3
aI3
aI4
aI0
aI0
aI4
aI4
aI9
aI-7
aa(lp384
V0021300040
p385
aVNOV 02, 2013
p386
aVSAC @ GSW
p387
aVL
p388
aI24
aI1
aI7
aF0.143
aI0
aI3
aF0.0
aI0
aI0
aF0.0
aI0
aI1
aI1
aI3
aI0
aI0
aI0
aI3
aI2
aI-14
aa(lp389
V0021300031
p390
aVNOV 01, 2013
p391
aVSAC vs. LAC
p392
aVL
p393
aI20
aI2
aI5
aF0.4
aI0
aI0
aF0.0
aI4
aI4
aF1.0
aI0
aI2
aI2
aI4
aI0
aI0
aI0
aI1
aI8
aI-13
aa(lp394
V0021300016
p395
aVOCT 30, 2013
p396
aVSAC vs. DEN
p397
aVW
p398
aI36
aI6
aI9
aF0.667
aI1
aI2
aF0.5
aI4
aI5
aF0.8
aI0
aI2
aI2
aI4
aI0
aI0
aI2
aI2
aI17
aI2
aasS'name'
p399
VGreivis Vasquez
p400
sS'experience'
p401
I3
s.