(dp0
S'age'
p1
I25
sS'stats'
p2
(lp3
(lp4
V0021301105
p5
aVMAR 31, 2014
p6
aVTOR @ MIA
p7
aVL
p8
aI2
aI0
aI0
aF0.0
aI0
aI0
aF0.0
aI0
aI0
aF0.0
aI0
aI0
aI0
aI0
aI0
aI0
aI0
aI0
aI0
aI-5
aa(lp9
V0021301096
p10
aVMAR 30, 2014
p11
aVTOR @ ORL
p12
aVW
p13
aI17
aI2
aI3
aF0.667
aI0
aI0
aF0.0
aI0
aI0
aF0.0
aI0
aI2
aI2
aI1
aI2
aI1
aI1
aI0
aI4
aI12
aa(lp14
V0021301040
p15
aVMAR 23, 2014
p16
aVTOR vs. ATL
p17
aVW
p18
aI0
aI0
aI0
aF0.0
aI0
aI0
aF0.0
aI0
aI0
aF0.0
aI0
aI0
aI0
aI0
aI0
aI0
aI0
aI0
aI0
aI0
aa(lp19
V0021300940
p20
aVMAR 09, 2014
p21
aVTOR @ MIN
p22
aVW
p23
aI0
aI0
aI0
aF0.0
aI0
aI0
aF0.0
aI0
aI0
aF0.0
aI0
aI0
aI0
aI0
aI0
aI0
aI0
aI0
aI0
aI0
aa(lp24
V0021300919
p25
aVMAR 07, 2014
p26
aVTOR vs. SAC
p27
aVW
p28
aI3
aI0
aI0
aF0.0
aI0
aI0
aF0.0
aI0
aI0
aF0.0
aI0
aI0
aI0
aI0
aI0
aI0
aI1
aI0
aI0
aI-6
aa(lp29
V0021300884
p30
aVMAR 02, 2014
p31
aVTOR vs. GSW
p32
aVW
p33
aI25
aI4
aI5
aF0.8
aI0
aI0
aF0.0
aI0
aI0
aF0.0
aI1
aI5
aI6
aI0
aI1
aI0
aI0
aI0
aI8
aI-6
aa(lp34
V0021300864
p35
aVFEB 27, 2014
p36
aVTOR vs. WAS
p37
aVL
p38
aI1
aI0
aI0
aF0.0
aI0
aI0
aF0.0
aI0
aI0
aF0.0
aI0
aI0
aI0
aI0
aI0
aI0
aI0
aI0
aI0
aI-4
aa(lp39
V0021300584
p40
aVJAN 17, 2014
p41
aVTOR vs. MIN
p42
aVW
p43
aI1
aI0
aI0
aF0.0
aI0
aI0
aF0.0
aI0
aI0
aF0.0
aI0
aI0
aI0
aI0
aI0
aI0
aI1
aI0
aI0
aI-2
aa(lp44
V0021300569
p45
aVJAN 15, 2014
p46
aVTOR @ BOS
p47
aVL
p48
aI4
aI0
aI0
aF0.0
aI0
aI0
aF0.0
aI0
aI0
aF0.0
aI0
aI0
aI0
aI0
aI0
aI0
aI0
aI0
aI0
aI-7
aa(lp49
V0021300555
p50
aVJAN 13, 2014
p51
aVTOR vs. MIL
p52
aVW
p53
aI4
aI0
aI2
aF0.0
aI0
aI0
aF0.0
aI0
aI0
aF0.0
aI0
aI1
aI1
aI1
aI0
aI0
aI1
aI1
aI0
aI-7
aa(lp54
V0021300521
p55
aVJAN 08, 2014
p56
aVTOR vs. DET
p57
aVW
p58
aI1
aI1
aI1
aF1.0
aI0
aI0
aF0.0
aI0
aI0
aF0.0
aI0
aI0
aI0
aI0
aI0
aI0
aI0
aI0
aI2
aI2
aa(lp59
V0021300500
p60
aVJAN 05, 2014
p61
aVTOR @ MIA
p62
aVL
p63
aI4
aI0
aI0
aF0.0
aI0
aI0
aF0.0
aI0
aI0
aF0.0
aI0
aI0
aI0
aI1
aI0
aI0
aI0
aI0
aI0
aI2
aa(lp64
V0021300346
p65
aVDEC 14, 2013
p66
aVTOR @ CHI
p67
aVW
p68
aI1
aI0
aI0
aF0.0
aI0
aI0
aF0.0
aI0
aI0
aF0.0
aI0
aI1
aI1
aI0
aI0
aI0
aI0
aI0
aI0
aI-1
aa(lp69
V0021300312
p70
aVDEC 10, 2013
p71
aVTOR vs. SAS
p72
aVL
p73
aI19
aI1
aI5
aF0.2
aI0
aI0
aF0.0
aI2
aI2
aF1.0
aI3
aI2
aI5
aI2
aI1
aI0
aI1
aI0
aI4
aI-13
aa(lp74
V0021300303
p75
aVDEC 08, 2013
p76
aVTOR @ LAL
p77
aVW
p78
aI31
aI0
aI6
aF0.0
aI0
aI3
aF0.0
aI0
aI0
aF0.0
aI0
aI5
aI5
aI1
aI1
aI0
aI1
aI2
aI0
aI9
aa(lp79
V0021300287
p80
aVDEC 06, 2013
p81
aVTOR @ PHX
p82
aVL
p83
aI18
aI2
aI4
aF0.5
aI0
aI0
aF0.0
aI1
aI1
aF1.0
aI0
aI0
aI0
aI0
aI2
aI1
aI0
aI0
aI5
aI-3
aa(lp84
V0021300268
p85
aVDEC 03, 2013
p86
aVTOR @ GSW
p87
aVL
p88
aI4
aI0
aI1
aF0.0
aI0
aI0
aF0.0
aI0
aI0
aF0.0
aI0
aI2
aI2
aI0
aI0
aI0
aI0
aI1
aI0
aI6
aa(lp89
V0021300230
p90
aVNOV 29, 2013
p91
aVTOR vs. MIA
p92
aVL
p93
aI5
aI0
aI1
aF0.0
aI0
aI0
aF0.0
aI0
aI0
aF0.0
aI0
aI0
aI0
aI0
aI0
aI0
aI0
aI0
aI0
aI-5
aa(lp94
V0021300211
p95
aVNOV 26, 2013
p96
aVTOR vs. BKN
p97
aVL
p98
aI3
aI0
aI1
aF0.0
aI0
aI0
aF0.0
aI0
aI0
aF0.0
aI0
aI0
aI0
aI0
aI0
aI0
aI0
aI1
aI0
aI-6
aa(lp99
V0021300147
p100
aVNOV 17, 2013
p101
aVTOR vs. POR
p102
aVL
p103
aI9
aI1
aI1
aF1.0
aI0
aI0
aF0.0
aI1
aI2
aF0.5
aI1
aI1
aI2
aI0
aI0
aI0
aI0
aI2
aI3
aI-9
aa(lp104
V0021300126
p105
aVNOV 15, 2013
p106
aVTOR vs. CHI
p107
aVL
p108
aI6
aI0
aI2
aF0.0
aI0
aI0
aF0.0
aI0
aI0
aF0.0
aI0
aI1
aI1
aI1
aI2
aI0
aI0
aI0
aI0
aI4
aa(lp109
V0021300114
p110
aVNOV 13, 2013
p111
aVTOR @ MEM
p112
aVW
p113
aI1
aI0
aI0
aF0.0
aI0
aI0
aF0.0
aI0
aI0
aF0.0
aI0
aI0
aI0
aI0
aI0
aI0
aI0
aI0
aI0
aI1
aa(lp114
V0021300103
p115
aVNOV 11, 2013
p116
aVTOR @ HOU
p117
aVL
p118
aI15
aI0
aI1
aF0.0
aI0
aI0
aF0.0
aI1
aI2
aF0.5
aI0
aI3
aI3
aI0
aI0
aI0
aI2
aI2
aI1
aI-13
aa(lp119
V0021300085
p120
aVNOV 09, 2013
p121
aVTOR vs. UTA
p122
aVW
p123
aI18
aI1
aI4
aF0.25
aI0
aI0
aF0.0
aI2
aI2
aF1.0
aI0
aI1
aI1
aI3
aI0
aI0
aI1
aI1
aI4
aI19
aa(lp124
V0021300074
p125
aVNOV 08, 2013
p126
aVTOR @ IND
p127
aVL
p128
aI14
aI2
aI2
aF1.0
aI0
aI0
aF0.0
aI1
aI3
aF0.333
aI0
aI2
aI2
aI1
aI0
aI0
aI0
aI1
aI5
aI-7
aa(lp129
V0021300060
p130
aVNOV 06, 2013
p131
aVTOR @ CHA
p132
aVL
p133
aI17
aI2
aI3
aF0.667
aI0
aI0
aF0.0
aI0
aI0
aF0.0
aI1
aI4
aI5
aI2
aI0
aI1
aI0
aI3
aI4
aI3
aa(lp134
V0021300051
p135
aVNOV 05, 2013
p136
aVTOR vs. MIA
p137
aVL
p138
aI28
aI2
aI6
aF0.333
aI0
aI0
aF0.0
aI1
aI3
aF0.333
aI2
aI1
aI3
aI1
aI0
aI0
aI1
aI2
aI5
aI-18
aa(lp139
V0021300037
p140
aVNOV 02, 2013
p141
aVTOR @ MIL
p142
aVW
p143
aI28
aI3
aI7
aF0.429
aI0
aI2
aF0.0
aI5
aI6
aF0.833
aI1
aI4
aI5
aI4
aI0
aI0
aI1
aI2
aI11
aI3
aa(lp144
V0021300023
p145
aVNOV 01, 2013
p146
aVTOR @ ATL
p147
aVL
p148
aI23
aI2
aI5
aF0.4
aI0
aI0
aF0.0
aI0
aI0
aF0.0
aI3
aI6
aI9
aI2
aI1
aI0
aI0
aI3
aI4
aI12
aa(lp149
V0021300006
p150
aVOCT 30, 2013
p151
aVTOR vs. BOS
p152
aVW
p153
aI18
aI4
aI7
aF0.571
aI0
aI0
aF0.0
aI0
aI1
aF0.0
aI3
aI3
aI6
aI0
aI0
aI0
aI0
aI4
aI8
aI2
aasS'name'
p154
VLandry Fields
p155
sS'experience'
p156
I3
s.