(dp0
S'age'
p1
I25
sS'stats'
p2
(lp3
(lp4
V0021300096
p5
aVNOV 10, 2013
p6
aVNOP @ PHX
p7
aVL
p8
aI7
aI1
aI4
aF0.25
aI0
aI0
aF0.0
aI0
aI0
aF0.0
aI0
aI1
aI1
aI1
aI0
aI0
aI0
aI0
aI2
aI-1
aa(lp9
V0021300081
p10
aVNOV 08, 2013
p11
aVNOP vs. LAL
p12
aVW
p13
aI10
aI0
aI1
aF0.0
aI0
aI0
aF0.0
aI0
aI0
aF0.0
aI1
aI2
aI3
aI2
aI0
aI0
aI0
aI2
aI0
aI1
aa(lp14
V0021300065
p15
aVNOV 06, 2013
p16
aVNOP @ MEM
p17
aVW
p18
aI4
aI0
aI0
aF0.0
aI0
aI0
aF0.0
aI0
aI0
aF0.0
aI0
aI0
aI0
aI0
aI0
aI0
aI0
aI0
aI0
aI3
aa(lp19
V0021300035
p20
aVNOV 02, 2013
p21
aVNOP vs. CHA
p22
aVW
p23
aI14
aI1
aI2
aF0.5
aI0
aI0
aF0.0
aI2
aI4
aF0.5
aI0
aI2
aI2
aI0
aI0
aI0
aI1
aI1
aI4
aI4
aa(lp24
V0021300011
p25
aVOCT 30, 2013
p26
aVNOP vs. IND
p27
aVL
p28
aI7
aI0
aI2
aF0.0
aI0
aI0
aF0.0
aI0
aI0
aF0.0
aI1
aI0
aI1
aI0
aI0
aI0
aI1
aI1
aI0
aI-10
aasS'name'
p29
VLance Thomas
p30
sS'experience'
p31
I2
s.