(dp0
S'age'
p1
I23
sS'stats'
p2
(lp3
(lp4
V0021301223
p5
aVAPR 16, 2014
p6
aVCHA vs. CHI
p7
aVW
p8
aI40
aI6
aI16
aF0.375
aI0
aI6
aF0.0
aI10
aI11
aF0.909
aI0
aI7
aI7
aI8
aI1
aI1
aI0
aI0
aI22
aI7
aa(lp9
V0021301207
p10
aVAPR 14, 2014
p11
aVCHA @ ATL
p12
aVW
p13
aI25
aI1
aI9
aF0.111
aI1
aI5
aF0.2
aI2
aI4
aF0.5
aI0
aI0
aI0
aI7
aI0
aI0
aI1
aI0
aI5
aI-5
aa(lp14
V0021301165
p15
aVAPR 09, 2014
p16
aVCHA @ WAS
p17
aVW
p18
aI44
aI6
aI21
aF0.286
aI3
aI6
aF0.5
aI2
aI2
aF1.0
aI0
aI4
aI4
aI12
aI0
aI0
aI3
aI2
aI17
aI9
aa(lp19
V0021301145
p20
aVAPR 05, 2014
p21
aVCHA @ CLE
p22
aVW
p23
aI42
aI7
aI23
aF0.304
aI3
aI8
aF0.375
aI3
aI4
aF0.75
aI0
aI4
aI4
aI7
aI3
aI0
aI3
aI2
aI20
aI8
aa(lp24
V0021301130
p25
aVAPR 04, 2014
p26
aVCHA vs. ORL
p27
aVW
p28
aI35
aI5
aI15
aF0.333
aI1
aI1
aF1.0
aI2
aI2
aF1.0
aI2
aI8
aI10
aI10
aI1
aI0
aI4
aI2
aI13
aI20
aa(lp29
V0021301117
p30
aVAPR 02, 2014
p31
aVCHA @ PHI
p32
aVW
p33
aI20
aI3
aI6
aF0.5
aI0
aI1
aF0.0
aI2
aI2
aF1.0
aI0
aI0
aI0
aI5
aI0
aI0
aI0
aI4
aI8
aI15
aa(lp34
V0021301101
p35
aVMAR 31, 2014
p36
aVCHA vs. WAS
p37
aVW
p38
aI38
aI6
aI22
aF0.273
aI0
aI10
aF0.0
aI9
aI10
aF0.9
aI1
aI4
aI5
aI10
aI1
aI1
aI1
aI2
aI21
aI16
aa(lp39
V0021301075
p40
aVMAR 28, 2014
p41
aVCHA @ ORL
p42
aVL
p43
aI42
aI8
aI25
aF0.32
aI2
aI6
aF0.333
aI6
aI7
aF0.857
aI0
aI5
aI5
aI8
aI1
aI0
aI1
aI4
aI24
aI6
aa(lp44
V0021301061
p45
aVMAR 26, 2014
p46
aVCHA vs. BKN
p47
aVW
p48
aI45
aI8
aI21
aF0.381
aI2
aI6
aF0.333
aI2
aI2
aF1.0
aI0
aI5
aI5
aI12
aI1
aI0
aI2
aI0
aI20
aI8
aa(lp49
V0021301047
p50
aVMAR 24, 2014
p51
aVCHA vs. HOU
p52
aVL
p53
aI39
aI7
aI19
aF0.368
aI2
aI6
aF0.333
aI6
aI6
aF1.0
aI1
aI3
aI4
aI3
aI0
aI1
aI3
aI1
aI22
aI0
aa(lp54
V0021301032
p55
aVMAR 22, 2014
p56
aVCHA vs. POR
p57
aVW
p58
aI33
aI10
aI18
aF0.556
aI4
aI5
aF0.8
aI2
aI2
aF1.0
aI0
aI2
aI2
aI6
aI1
aI1
aI0
aI0
aI26
aI15
aa(lp59
V0021301010
p60
aVMAR 19, 2014
p61
aVCHA @ BKN
p62
aVL
p63
aI34
aI2
aI8
aF0.25
aI1
aI6
aF0.167
aI2
aI2
aF1.0
aI1
aI3
aI4
aI7
aI0
aI0
aI4
aI3
aI7
aI-8
aa(lp64
V0021300996
p65
aVMAR 17, 2014
p66
aVCHA vs. ATL
p67
aVL
p68
aI33
aI7
aI18
aF0.389
aI4
aI6
aF0.667
aI2
aI2
aF1.0
aI1
aI3
aI4
aI7
aI1
aI1
aI1
aI1
aI20
aI-16
aa(lp69
V0021300987
p70
aVMAR 16, 2014
p71
aVCHA @ MIL
p72
aVW
p73
aI31
aI7
aI13
aF0.538
aI2
aI5
aF0.4
aI5
aI6
aF0.833
aI0
aI2
aI2
aI8
aI1
aI0
aI2
aI0
aI21
aI13
aa(lp74
V0021300971
p75
aVMAR 14, 2014
p76
aVCHA vs. MIN
p77
aVW
p78
aI34
aI3
aI12
aF0.25
aI1
aI2
aF0.5
aI0
aI2
aF0.0
aI0
aI4
aI4
aI7
aI3
aI0
aI4
aI2
aI7
aI-1
aa(lp79
V0021300961
p80
aVMAR 12, 2014
p81
aVCHA @ WAS
p82
aVW
p83
aI37
aI5
aI13
aF0.385
aI1
aI4
aF0.25
aI5
aI6
aF0.833
aI0
aI3
aI3
aI5
aI1
aI0
aI1
aI1
aI16
aI8
aa(lp84
V0021300943
p85
aVMAR 10, 2014
p86
aVCHA vs. DEN
p87
aVW
p88
aI41
aI6
aI15
aF0.4
aI0
aI0
aF0.0
aI12
aI12
aF1.0
aI1
aI5
aI6
aI7
aI0
aI1
aI3
aI4
aI24
aI3
aa(lp89
V0021300930
p90
aVMAR 08, 2014
p91
aVCHA @ MEM
p92
aVL
p93
aI28
aI3
aI13
aF0.231
aI1
aI5
aF0.2
aI4
aI4
aF1.0
aI1
aI3
aI4
aI5
aI0
aI1
aI3
aI3
aI11
aI-17
aa(lp94
V0021300918
p95
aVMAR 07, 2014
p96
aVCHA vs. CLE
p97
aVW
p98
aI35
aI5
aI13
aF0.385
aI1
aI5
aF0.2
aI9
aI9
aF1.0
aI0
aI3
aI3
aI14
aI2
aI1
aI1
aI4
aI20
aI12
aa(lp99
V0021300904
p100
aVMAR 05, 2014
p101
aVCHA vs. IND
p102
aVW
p103
aI33
aI7
aI14
aF0.5
aI1
aI1
aF1.0
aI4
aI4
aF1.0
aI1
aI1
aI2
aI9
aI0
aI1
aI2
aI1
aI19
aI37
aa(lp104
V0021300893
p105
aVMAR 03, 2014
p106
aVCHA @ MIA
p107
aVL
p108
aI34
aI3
aI8
aF0.375
aI0
aI3
aF0.0
aI1
aI2
aF0.5
aI0
aI2
aI2
aI8
aI0
aI0
aI2
aI2
aI7
aI-19
aa(lp109
V0021300887
p110
aVMAR 02, 2014
p111
aVCHA @ OKC
p112
aVL
p113
aI33
aI3
aI13
aF0.231
aI0
aI2
aF0.0
aI0
aI0
aF0.0
aI1
aI2
aI3
aI4
aI2
aI0
aI3
aI0
aI6
aI-18
aa(lp114
V0021300871
p115
aVFEB 28, 2014
p116
aVCHA @ SAS
p117
aVL
p118
aI35
aI3
aI15
aF0.2
aI1
aI2
aF0.5
aI4
aI4
aF1.0
aI0
aI2
aI2
aI4
aI1
aI0
aI2
aI2
aI11
aI-12
aa(lp119
V0021300825
p120
aVFEB 22, 2014
p121
aVCHA vs. MEM
p122
aVW
p123
aI42
aI9
aI20
aF0.45
aI3
aI7
aF0.429
aI10
aI10
aF1.0
aI0
aI8
aI8
aI5
aI1
aI0
aI4
aI2
aI31
aI6
aa(lp124
V0021300815
p125
aVFEB 21, 2014
p126
aVCHA vs. NOP
p127
aVW
p128
aI36
aI3
aI11
aF0.273
aI0
aI4
aF0.0
aI7
aI10
aF0.7
aI1
aI4
aI5
aI8
aI0
aI0
aI1
aI2
aI13
aI10
aa(lp129
V0021300801
p130
aVFEB 19, 2014
p131
aVCHA vs. DET
p132
aVW
p133
aI41
aI8
aI20
aF0.4
aI3
aI8
aF0.375
aI5
aI5
aF1.0
aI0
aI5
aI5
aI16
aI2
aI1
aI4
aI2
aI24
aI26
aa(lp134
V0021300795
p135
aVFEB 18, 2014
p136
aVCHA @ DET
p137
aVW
p138
aI43
aI8
aI16
aF0.5
aI3
aI7
aF0.429
aI3
aI4
aF0.75
aI0
aI4
aI4
aI6
aI1
aI0
aI3
aI4
aI22
aI10
aa(lp139
V0021300781
p140
aVFEB 12, 2014
p141
aVCHA @ BKN
p142
aVL
p143
aI38
aI6
aI17
aF0.353
aI2
aI4
aF0.5
aI2
aI3
aF0.667
aI0
aI3
aI3
aI3
aI0
aI0
aI2
aI1
aI16
aI-24
aa(lp144
V0021300770
p145
aVFEB 11, 2014
p146
aVCHA vs. DAL
p147
aVW
p148
aI32
aI2
aI9
aF0.222
aI1
aI6
aF0.167
aI2
aI2
aF1.0
aI1
aI8
aI9
aI9
aI0
aI2
aI2
aI1
aI7
aI23
aa(lp149
V0021300749
p150
aVFEB 08, 2014
p151
aVCHA vs. SAS
p152
aVL
p153
aI40
aI7
aI19
aF0.368
aI0
aI3
aF0.0
aI4
aI4
aF1.0
aI0
aI4
aI4
aI8
aI1
aI0
aI1
aI6
aI18
aI-2
aa(lp154
V0021300724
p155
aVFEB 04, 2014
p156
aVCHA @ GSW
p157
aVW
p158
aI33
aI3
aI11
aF0.273
aI1
aI4
aF0.25
aI0
aI0
aF0.0
aI0
aI6
aI6
aI7
aI1
aI0
aI3
aI2
aI7
aI15
aa(lp159
V0021300593
p160
aVJAN 18, 2014
p161
aVCHA vs. MIA
p162
aVL
p163
aI22
aI1
aI7
aF0.143
aI0
aI3
aF0.0
aI4
aI5
aF0.8
aI0
aI1
aI1
aI8
aI2
aI1
aI1
aI1
aI6
aI4
aa(lp164
V0021300582
p165
aVJAN 17, 2014
p166
aVCHA @ ORL
p167
aVW
p168
aI43
aI7
aI16
aF0.438
aI1
aI3
aF0.333
aI4
aI6
aF0.667
aI0
aI2
aI2
aI10
aI0
aI0
aI0
aI0
aI19
aI14
aa(lp169
V0021300567
p170
aVJAN 15, 2014
p171
aVCHA @ PHI
p172
aVL
p173
aI43
aI9
aI21
aF0.429
aI2
aI7
aF0.286
aI6
aI6
aF1.0
aI0
aI5
aI5
aI8
aI2
aI1
aI1
aI3
aI26
aI5
aa(lp174
V0021300562
p175
aVJAN 14, 2014
p176
aVCHA vs. NYK
p177
aVW
p178
aI40
aI9
aI15
aF0.6
aI2
aI5
aF0.4
aI5
aI7
aF0.714
aI1
aI6
aI7
aI5
aI1
aI1
aI3
aI2
aI25
aI18
aa(lp179
V0021300547
p180
aVJAN 11, 2014
p181
aVCHA @ CHI
p182
aVL
p183
aI44
aI10
aI20
aF0.5
aI2
aI5
aF0.4
aI7
aI8
aF0.875
aI1
aI5
aI6
aI5
aI1
aI0
aI2
aI4
aI29
aI4
aa(lp184
V0021300535
p185
aVJAN 10, 2014
p186
aVCHA @ MIN
p187
aVL
p188
aI31
aI7
aI17
aF0.412
aI1
aI4
aF0.25
aI0
aI0
aF0.0
aI0
aI1
aI1
aI7
aI3
aI0
aI1
aI2
aI15
aI-18
aa(lp189
V0021300508
p190
aVJAN 07, 2014
p191
aVCHA vs. WAS
p192
aVL
p193
aI39
aI7
aI17
aF0.412
aI2
aI7
aF0.286
aI3
aI6
aF0.5
aI0
aI3
aI3
aI8
aI0
aI0
aI5
aI2
aI19
aI-15
aa(lp194
V0021300497
p195
aVJAN 04, 2014
p196
aVCHA @ SAC
p197
aVW
p198
aI36
aI12
aI19
aF0.632
aI4
aI6
aF0.667
aI2
aI3
aF0.667
aI0
aI4
aI4
aI6
aI1
aI0
aI2
aI1
aI30
aI21
aa(lp199
V0021300480
p200
aVJAN 02, 2014
p201
aVCHA @ POR
p202
aVL
p203
aI29
aI2
aI10
aF0.2
aI0
aI1
aF0.0
aI2
aI2
aF1.0
aI1
aI2
aI3
aI3
aI3
aI0
aI1
aI0
aI6
aI-17
aa(lp204
V0021300472
p205
aVJAN 01, 2014
p206
aVCHA @ LAC
p207
aVL
p208
aI33
aI4
aI10
aF0.4
aI1
aI4
aF0.25
aI5
aI5
aF1.0
aI0
aI7
aI7
aI3
aI2
aI0
aI5
aI1
aI14
aI-17
aa(lp209
V0021300458
p210
aVDEC 30, 2013
p211
aVCHA @ UTA
p212
aVL
p213
aI42
aI6
aI17
aF0.353
aI1
aI1
aF1.0
aI5
aI5
aF1.0
aI1
aI5
aI6
aI4
aI1
aI0
aI3
aI2
aI18
aI2
aa(lp214
V0021300440
p215
aVDEC 28, 2013
p216
aVCHA @ ATL
p217
aVL
p218
aI35
aI4
aI20
aF0.2
aI3
aI6
aF0.5
aI5
aI6
aF0.833
aI0
aI1
aI1
aI5
aI0
aI1
aI1
aI3
aI16
aI-11
aa(lp219
V0021300427
p220
aVDEC 27, 2013
p221
aVCHA vs. OKC
p222
aVL
p223
aI36
aI6
aI17
aF0.353
aI2
aI4
aF0.5
aI4
aI6
aF0.667
aI0
aI4
aI4
aI7
aI1
aI0
aI0
aI1
aI18
aI-4
aa(lp224
V0021300407
p225
aVDEC 23, 2013
p226
aVCHA vs. MIL
p227
aVW
p228
aI39
aI10
aI22
aF0.455
aI2
aI5
aF0.4
aI3
aI5
aF0.6
aI0
aI9
aI9
aI10
aI0
aI0
aI3
aI3
aI25
aI2
aa(lp229
V0021300394
p230
aVDEC 21, 2013
p231
aVCHA vs. UTA
p232
aVL
p233
aI34
aI9
aI16
aF0.563
aI1
aI2
aF0.5
aI1
aI2
aF0.5
aI3
aI2
aI5
aI4
aI1
aI1
aI5
aI1
aI20
aI-3
aa(lp234
V0021300386
p235
aVDEC 20, 2013
p236
aVCHA @ DET
p237
aVW
p238
aI35
aI12
aI17
aF0.706
aI1
aI2
aF0.5
aI9
aI9
aF1.0
aI1
aI6
aI7
aI3
aI3
aI1
aI4
aI3
aI34
aI12
aa(lp239
V0021300371
p240
aVDEC 18, 2013
p241
aVCHA @ TOR
p242
aVW
p243
aI44
aI10
aI18
aF0.556
aI4
aI7
aF0.571
aI5
aI7
aF0.714
aI1
aI4
aI5
aI1
aI3
aI0
aI6
aI5
aI29
aI9
aa(lp244
V0021300364
p245
aVDEC 17, 2013
p246
aVCHA vs. SAC
p247
aVW
p248
aI33
aI7
aI13
aF0.538
aI4
aI8
aF0.5
aI6
aI7
aF0.857
aI0
aI3
aI3
aI5
aI1
aI1
aI1
aI0
aI24
aI3
aa(lp249
V0021300342
p250
aVDEC 14, 2013
p251
aVCHA vs. LAL
p252
aVL
p253
aI35
aI10
aI13
aF0.769
aI2
aI4
aF0.5
aI2
aI2
aF1.0
aI2
aI1
aI3
aI8
aI1
aI0
aI2
aI2
aI24
aI0
aa(lp254
V0021300329
p255
aVDEC 13, 2013
p256
aVCHA @ IND
p257
aVL
p258
aI35
aI5
aI14
aF0.357
aI1
aI3
aF0.333
aI2
aI2
aF1.0
aI1
aI4
aI5
aI4
aI0
aI0
aI3
aI1
aI13
aI-6
aa(lp259
V0021300318
p260
aVDEC 11, 2013
p261
aVCHA vs. ORL
p262
aVL
p263
aI36
aI4
aI18
aF0.222
aI0
aI4
aF0.0
aI2
aI2
aF1.0
aI1
aI1
aI2
aI4
aI3
aI4
aI5
aI2
aI10
aI-11
aa(lp264
V0021300304
p265
aVDEC 09, 2013
p266
aVCHA vs. GSW
p267
aVW
p268
aI37
aI10
aI18
aF0.556
aI2
aI5
aF0.4
aI9
aI11
aF0.818
aI1
aI4
aI5
aI5
aI0
aI0
aI2
aI1
aI31
aI-3
aa(lp269
V0021300280
p270
aVDEC 06, 2013
p271
aVCHA vs. PHI
p272
aVW
p273
aI38
aI6
aI13
aF0.462
aI2
aI4
aF0.5
aI4
aI6
aF0.667
aI0
aI2
aI2
aI10
aI3
aI0
aI0
aI0
aI18
aI8
aa(lp274
V0021300266
p275
aVDEC 03, 2013
p276
aVCHA @ DAL
p277
aVL
p278
aI35
aI7
aI15
aF0.467
aI2
aI5
aF0.4
aI0
aI0
aF0.0
aI1
aI6
aI7
aI5
aI0
aI1
aI0
aI0
aI16
aI1
aa(lp279
V0021300252
p280
aVDEC 01, 2013
p281
aVCHA @ MIA
p282
aVL
p283
aI42
aI10
aI22
aF0.455
aI2
aI8
aF0.25
aI5
aI6
aF0.833
aI1
aI1
aI2
aI6
aI2
aI0
aI6
aI0
aI27
aI6
aa(lp284
V0021300228
p285
aVNOV 29, 2013
p286
aVCHA vs. MIL
p287
aVW
p288
aI32
aI3
aI10
aF0.3
aI1
aI4
aF0.25
aI3
aI4
aF0.75
aI0
aI5
aI5
aI2
aI0
aI0
aI6
aI1
aI10
aI2
aa(lp289
V0021300215
p290
aVNOV 27, 2013
p291
aVCHA vs. IND
p292
aVL
p293
aI36
aI3
aI17
aF0.176
aI2
aI4
aF0.5
aI7
aI7
aF1.0
aI0
aI5
aI5
aI3
aI2
aI0
aI3
aI0
aI15
aI-25
aa(lp294
V0021300202
p295
aVNOV 25, 2013
p296
aVCHA vs. BOS
p297
aVL
p298
aI34
aI11
aI17
aF0.647
aI1
aI2
aF0.5
aI5
aI6
aF0.833
aI2
aI4
aI6
aI5
aI0
aI0
aI3
aI2
aI28
aI10
aa(lp299
V0021300193
p300
aVNOV 23, 2013
p301
aVCHA @ MIL
p302
aVW
p303
aI28
aI5
aI10
aF0.5
aI1
aI3
aF0.333
aI0
aI1
aF0.0
aI1
aI3
aI4
aI3
aI1
aI0
aI4
aI0
aI11
aI23
aa(lp304
V0021300176
p305
aVNOV 22, 2013
p306
aVCHA vs. PHX
p307
aVL
p308
aI37
aI7
aI18
aF0.389
aI0
aI4
aF0.0
aI2
aI3
aF0.667
aI0
aI5
aI5
aI6
aI1
aI0
aI1
aI3
aI16
aI3
aa(lp309
V0021300161
p310
aVNOV 20, 2013
p311
aVCHA vs. BKN
p312
aVW
p313
aI35
aI12
aI20
aF0.6
aI4
aI7
aF0.571
aI3
aI4
aF0.75
aI2
aI3
aI5
aI2
aI1
aI1
aI2
aI1
aI31
aI10
aa(lp314
V0021300151
p315
aVNOV 18, 2013
p316
aVCHA @ CHI
p317
aVL
p318
aI35
aI3
aI14
aF0.214
aI0
aI2
aF0.0
aI2
aI2
aF1.0
aI0
aI3
aI3
aI3
aI2
aI0
aI0
aI2
aI8
aI-7
aa(lp319
V0021300136
p320
aVNOV 16, 2013
p321
aVCHA vs. MIA
p322
aVL
p323
aI34
aI7
aI18
aF0.389
aI3
aI5
aF0.6
aI5
aI6
aF0.833
aI0
aI3
aI3
aI2
aI1
aI1
aI1
aI1
aI22
aI-15
aa(lp324
V0021300129
p325
aVNOV 15, 2013
p326
aVCHA @ CLE
p327
aVW
p328
aI36
aI4
aI19
aF0.211
aI1
aI5
aF0.2
aI3
aI5
aF0.6
aI0
aI5
aI5
aI7
aI5
aI2
aI4
aI3
aI12
aI-6
aa(lp329
V0021300113
p330
aVNOV 13, 2013
p331
aVCHA @ BOS
p332
aVW
p333
aI34
aI1
aI13
aF0.077
aI0
aI3
aF0.0
aI1
aI2
aF0.5
aI2
aI7
aI9
aI2
aI3
aI0
aI2
aI1
aI3
aI3
aa(lp334
V0021300098
p335
aVNOV 11, 2013
p336
aVCHA vs. ATL
p337
aVL
p338
aI32
aI3
aI11
aF0.273
aI0
aI2
aF0.0
aI6
aI7
aF0.857
aI1
aI1
aI2
aI3
aI1
aI0
aI4
aI4
aI12
aI-4
aa(lp339
V0021300073
p340
aVNOV 08, 2013
p341
aVCHA vs. NYK
p342
aVL
p343
aI38
aI8
aI22
aF0.364
aI1
aI5
aF0.2
aI8
aI8
aF1.0
aI1
aI2
aI3
aI5
aI0
aI1
aI0
aI0
aI25
aI-14
aa(lp344
V0021300060
p345
aVNOV 06, 2013
p346
aVCHA vs. TOR
p347
aVW
p348
aI39
aI2
aI13
aF0.154
aI1
aI5
aF0.2
aI0
aI0
aF0.0
aI0
aI4
aI4
aI7
aI1
aI1
aI0
aI0
aI5
aI9
aa(lp349
V0021300054
p350
aVNOV 05, 2013
p351
aVCHA @ NYK
p352
aVW
p353
aI35
aI9
aI20
aF0.45
aI3
aI7
aF0.429
aI4
aI5
aF0.8
aI0
aI5
aI5
aI6
aI1
aI0
aI3
aI2
aI25
aI3
aa(lp354
V0021300035
p355
aVNOV 02, 2013
p356
aVCHA @ NOP
p357
aVL
p358
aI27
aI7
aI19
aF0.368
aI0
aI5
aF0.0
aI0
aI0
aF0.0
aI1
aI1
aI2
aI0
aI0
aI0
aI1
aI3
aI14
aI-24
aa(lp359
V0021300020
p360
aVNOV 01, 2013
p361
aVCHA vs. CLE
p362
aVW
p363
aI38
aI8
aI14
aF0.571
aI3
aI6
aF0.5
aI4
aI8
aF0.5
aI0
aI4
aI4
aI7
aI3
aI2
aI4
aI2
aI23
aI16
aa(lp364
V0021300009
p365
aVOCT 30, 2013
p366
aVCHA @ HOU
p367
aVL
p368
aI35
aI5
aI10
aF0.5
aI0
aI1
aF0.0
aI2
aI2
aF1.0
aI1
aI1
aI2
aI5
aI4
aI0
aI3
aI3
aI12
aI-1
aasS'name'
p369
VKemba Walker
p370
sS'experience'
p371
I2
s.