(dp0
S'stats'
p1
(lp2
(lp3
V0021300008
p4
aVOCT 30, 2013
p5
aVNYK vs. MIL
p6
aVW
p7
aI33
aI5
aI13
aF0.385
aI1
aI5
aF0.2
aI5
aI5
aF1.0
aI0
aI4
aI4
aI1
aI0
aI1
aI1
aI2
aI16
aI4
aa(lp8
V0021300018
p9
aVOCT 31, 2013
p10
aVNYK @ CHI
p11
aVL
p12
aI25
aI2
aI6
aF0.333
aI1
aI2
aF0.5
aI2
aI2
aF1.0
aI2
aI1
aI3
aI1
aI2
aI0
aI1
aI4
aI7
aI1
aa(lp13
V0021300045
p14
aVNOV 03, 2013
p15
aVNYK vs. MIN
p16
aVL
p17
aI26
aI5
aI8
aF0.625
aI2
aI4
aF0.5
aI0
aI0
aF0.0
aI1
aI5
aI6
aI1
aI1
aI0
aI3
aI4
aI12
aI-6
aa(lp18
V0021300054
p19
aVNOV 05, 2013
p20
aVNYK vs. CHA
p21
aVL
p22
aI33
aI4
aI8
aF0.5
aI1
aI4
aF0.25
aI5
aI6
aF0.833
aI0
aI5
aI5
aI2
aI3
aI0
aI1
aI5
aI14
aI-1
aa(lp23
V0021300073
p24
aVNOV 08, 2013
p25
aVNYK @ CHA
p26
aVW
p27
aI39
aI2
aI3
aF0.667
aI1
aI1
aF1.0
aI0
aI0
aF0.0
aI1
aI6
aI7
aI4
aI0
aI1
aI1
aI4
aI5
aI3
aa(lp28
V0021300094
p29
aVNOV 10, 2013
p30
aVNYK vs. SAS
p31
aVL
p32
aI22
aI1
aI5
aF0.2
aI0
aI1
aF0.0
aI1
aI2
aF0.5
aI0
aI3
aI3
aI0
aI1
aI0
aI0
aI2
aI3
aI-20
aa(lp33
V0021300116
p34
aVNOV 13, 2013
p35
aVNYK @ ATL
p36
aVW
p37
aI35
aI2
aI8
aF0.25
aI1
aI4
aF0.25
aI0
aI0
aF0.0
aI1
aI5
aI6
aI9
aI4
aI1
aI0
aI3
aI5
aI15
aa(lp38
V0021300123
p39
aVNOV 14, 2013
p40
aVNYK vs. HOU
p41
aVL
p42
aI30
aI1
aI4
aF0.25
aI0
aI1
aF0.0
aI0
aI0
aF0.0
aI0
aI6
aI6
aI4
aI1
aI0
aI1
aI4
aI2
aI14
aa(lp43
V0021300139
p44
aVNOV 16, 2013
p45
aVNYK vs. ATL
p46
aVL
p47
aI34
aI4
aI8
aF0.5
aI3
aI3
aF1.0
aI0
aI0
aF0.0
aI1
aI6
aI7
aI3
aI1
aI0
aI2
aI2
aI11
aI-10
aa(lp48
V0021300157
p49
aVNOV 19, 2013
p50
aVNYK @ DET
p51
aVL
p52
aI34
aI5
aI9
aF0.556
aI1
aI3
aF0.333
aI0
aI0
aF0.0
aI0
aI2
aI2
aI1
aI1
aI0
aI1
aI5
aI11
aI-9
aa(lp53
V0021300163
p54
aVNOV 20, 2013
p55
aVNYK vs. IND
p56
aVL
p57
aI36
aI1
aI6
aF0.167
aI0
aI4
aF0.0
aI2
aI2
aF1.0
aI1
aI3
aI4
aI2
aI5
aI0
aI1
aI5
aI4
aI6
aa(lp58
V0021300189
p59
aVNOV 23, 2013
p60
aVNYK @ WAS
p61
aVL
p62
aI27
aI2
aI4
aF0.5
aI1
aI2
aF0.5
aI1
aI2
aF0.5
aI1
aI0
aI1
aI4
aI3
aI0
aI1
aI3
aI6
aI-3
aa(lp63
V0021300210
p64
aVNOV 25, 2013
p65
aVNYK @ POR
p66
aVL
p67
aI23
aI0
aI3
aF0.0
aI0
aI1
aF0.0
aI0
aI0
aF0.0
aI0
aI0
aI0
aI0
aI1
aI0
aI2
aI3
aI0
aI-22
aa(lp68
V0021300227
p69
aVNOV 27, 2013
p70
aVNYK @ LAC
p71
aVL
p72
aI25
aI1
aI5
aF0.2
aI0
aI2
aF0.0
aI0
aI0
aF0.0
aI2
aI1
aI3
aI2
aI0
aI0
aI1
aI0
aI2
aI0
aa(lp73
V0021300238
p74
aVNOV 29, 2013
p75
aVNYK @ DEN
p76
aVL
p77
aI32
aI4
aI8
aF0.5
aI1
aI2
aF0.5
aI2
aI2
aF1.0
aI1
aI6
aI7
aI0
aI1
aI0
aI1
aI2
aI11
aI-2
aa(lp78
V0021300254
p79
aVDEC 01, 2013
p80
aVNYK vs. NOP
p81
aVL
p82
aI21
aI3
aI5
aF0.6
aI1
aI2
aF0.5
aI0
aI0
aF0.0
aI3
aI4
aI7
aI2
aI0
aI0
aI2
aI4
aI7
aI1
aa(lp83
V0021300277
p84
aVDEC 05, 2013
p85
aVNYK @ BKN
p86
aVW
p87
aI23
aI5
aI8
aF0.625
aI5
aI7
aF0.714
aI2
aI2
aF1.0
aI1
aI5
aI6
aI0
aI2
aI0
aI0
aI3
aI17
aI19
aa(lp88
V0021300284
p89
aVDEC 06, 2013
p90
aVNYK vs. ORL
p91
aVW
p92
aI25
aI4
aI9
aF0.444
aI0
aI3
aF0.0
aI2
aI2
aF1.0
aI0
aI4
aI4
aI0
aI0
aI0
aI1
aI4
aI10
aI4
aa(lp93
V0021300299
p94
aVDEC 08, 2013
p95
aVNYK vs. BOS
p96
aVL
p97
aI31
aI0
aI6
aF0.0
aI0
aI4
aF0.0
aI0
aI0
aF0.0
aI1
aI1
aI2
aI0
aI1
aI0
aI1
aI2
aI0
aI-31
aa(lp98
V0021300310
p99
aVDEC 10, 2013
p100
aVNYK @ CLE
p101
aVL
p102
aI21
aI1
aI4
aF0.25
aI0
aI2
aF0.0
aI0
aI0
aF0.0
aI2
aI2
aI4
aI4
aI1
aI1
aI0
aI2
aI2
aI-6
aa(lp103
V0021300324
p104
aVDEC 11, 2013
p105
aVNYK vs. CHI
p106
aVW
p107
aI13
aI0
aI2
aF0.0
aI0
aI0
aF0.0
aI0
aI0
aF0.0
aI1
aI2
aI3
aI2
aI2
aI0
aI1
aI0
aI0
aI6
aa(lp108
V0021300333
p109
aVDEC 13, 2013
p110
aVNYK @ BOS
p111
aVL
p112
aI23
aI1
aI8
aF0.125
aI1
aI4
aF0.25
aI0
aI0
aF0.0
aI1
aI4
aI5
aI1
aI0
aI0
aI1
aI0
aI3
aI2
aa(lp113
V0021300345
p114
aVDEC 14, 2013
p115
aVNYK vs. ATL
p116
aVW
p117
aI33
aI1
aI2
aF0.5
aI0
aI0
aF0.0
aI1
aI2
aF0.5
aI1
aI5
aI6
aI2
aI0
aI0
aI0
aI3
aI3
aI25
aa(lp118
V0021300361
p119
aVDEC 16, 2013
p120
aVNYK vs. WAS
p121
aVL
p122
aI31
aI2
aI8
aF0.25
aI2
aI5
aF0.4
aI2
aI2
aF1.0
aI3
aI6
aI9
aI2
aI0
aI0
aI1
aI4
aI8
aI11
aa(lp123
V0021300375
p124
aVDEC 18, 2013
p125
aVNYK @ MIL
p126
aVW
p127
aI31
aI0
aI5
aF0.0
aI0
aI2
aF0.0
aI1
aI2
aF0.5
aI1
aI5
aI6
aI4
aI2
aI1
aI3
aI5
aI1
aI-10
aa(lp128
V0021300392
p129
aVDEC 21, 2013
p130
aVNYK vs. MEM
p131
aVL
p132
aI18
aI1
aI7
aF0.143
aI0
aI3
aF0.0
aI0
aI0
aF0.0
aI0
aI4
aI4
aI0
aI0
aI0
aI0
aI2
aI2
aI-12
aa(lp133
V0021300409
p134
aVDEC 23, 2013
p135
aVNYK @ ORL
p136
aVW
p137
aI27
aI4
aI7
aF0.571
aI1
aI2
aF0.5
aI0
aI0
aF0.0
aI3
aI3
aI6
aI0
aI1
aI0
aI2
aI2
aI9
aI8
aa(lp138
V0021300419
p139
aVDEC 25, 2013
p140
aVNYK vs. OKC
p141
aVL
p142
aI27
aI3
aI8
aF0.375
aI1
aI4
aF0.25
aI1
aI2
aF0.5
aI1
aI6
aI7
aI4
aI2
aI0
aI2
aI5
aI8
aI-8
aa(lp143
V0021300430
p144
aVDEC 27, 2013
p145
aVNYK vs. TOR
p146
aVL
p147
aI12
aI0
aI2
aF0.0
aI0
aI1
aF0.0
aI0
aI0
aF0.0
aI0
aI1
aI1
aI0
aI1
aI0
aI1
aI4
aI0
aI-8
aa(lp148
V0021300438
p149
aVDEC 28, 2013
p150
aVNYK @ TOR
p151
aVL
p152
aI29
aI2
aI5
aF0.4
aI1
aI4
aF0.25
aI1
aI2
aF0.5
aI2
aI6
aI8
aI2
aI1
aI1
aI1
aI2
aI6
aI3
aa(lp153
V0021300477
p154
aVJAN 02, 2014
p155
aVNYK @ SAS
p156
aVW
p157
aI31
aI10
aI13
aF0.769
aI6
aI8
aF0.75
aI1
aI1
aF1.0
aI2
aI4
aI6
aI1
aI3
aI0
aI2
aI2
aI27
aI10
aa(lp158
V0021300485
p159
aVJAN 03, 2014
p160
aVNYK @ HOU
p161
aVL
p162
aI36
aI9
aI14
aF0.643
aI6
aI6
aF1.0
aI2
aI2
aF1.0
aI1
aI3
aI4
aI5
aI1
aI0
aI0
aI3
aI26
aI10
aa(lp163
V0021300503
p164
aVJAN 05, 2014
p165
aVNYK @ DAL
p166
aVW
p167
aI30
aI3
aI5
aF0.6
aI1
aI3
aF0.333
aI2
aI2
aF1.0
aI1
aI5
aI6
aI0
aI3
aI0
aI2
aI2
aI9
aI9
aa(lp168
V0021300512
p169
aVJAN 07, 2014
p170
aVNYK vs. DET
p171
aVW
p172
aI29
aI2
aI8
aF0.25
aI0
aI4
aF0.0
aI1
aI1
aF1.0
aI1
aI5
aI6
aI5
aI2
aI0
aI1
aI3
aI5
aI16
aa(lp173
V0021300529
p174
aVJAN 09, 2014
p175
aVNYK vs. MIA
p176
aVW
p177
aI43
aI4
aI8
aF0.5
aI4
aI7
aF0.571
aI0
aI0
aF0.0
aI1
aI8
aI9
aI3
aI0
aI0
aI0
aI2
aI12
aI14
aa(lp178
V0021300546
p179
aVJAN 11, 2014
p180
aVNYK @ PHI
p181
aVW
p182
aI32
aI2
aI9
aF0.222
aI2
aI6
aF0.333
aI1
aI2
aF0.5
aI2
aI5
aI7
aI1
aI4
aI0
aI2
aI1
aI7
aI3
aa(lp183
V0021300557
p184
aVJAN 13, 2014
p185
aVNYK vs. PHX
p186
aVW
p187
aI38
aI2
aI5
aF0.4
aI1
aI4
aF0.25
aI1
aI2
aF0.5
aI2
aI7
aI9
aI1
aI1
aI0
aI2
aI3
aI6
aI13
aa(lp188
V0021300562
p189
aVJAN 14, 2014
p190
aVNYK @ CHA
p191
aVL
p192
aI33
aI2
aI5
aF0.4
aI1
aI4
aF0.25
aI0
aI1
aF0.0
aI0
aI3
aI3
aI3
aI1
aI1
aI1
aI5
aI5
aI5
aa(lp193
V0021300578
p194
aVJAN 16, 2014
p195
aVNYK @ IND
p196
aVL
p197
aI20
aI1
aI4
aF0.25
aI0
aI3
aF0.0
aI0
aI0
aF0.0
aI1
aI4
aI5
aI2
aI0
aI0
aI0
aI3
aI2
aI-10
aa(lp198
V0021300581
p199
aVJAN 17, 2014
p200
aVNYK vs. LAC
p201
aVL
p202
aI25
aI0
aI4
aF0.0
aI0
aI1
aF0.0
aI0
aI0
aF0.0
aI1
aI2
aI3
aI1
aI0
aI0
aI3
aI2
aI0
aI-4
aa(lp203
V0021300610
p204
aVJAN 20, 2014
p205
aVNYK vs. BKN
p206
aVL
p207
aI20
aI2
aI8
aF0.25
aI1
aI6
aF0.167
aI0
aI0
aF0.0
aI1
aI1
aI2
aI0
aI0
aI1
aI1
aI3
aI5
aI-11
aa(lp208
V0021300626
p209
aVJAN 22, 2014
p210
aVNYK vs. PHI
p211
aVL
p212
aI34
aI5
aI9
aF0.556
aI3
aI5
aF0.6
aI6
aI8
aF0.75
aI3
aI5
aI8
aI2
aI0
aI0
aI1
aI4
aI19
aI-19
aa(lp213
V0021300640
p214
aVJAN 24, 2014
p215
aVNYK vs. CHA
p216
aVW
p217
aI19
aI2
aI6
aF0.333
aI0
aI0
aF0.0
aI0
aI0
aF0.0
aI1
aI1
aI2
aI3
aI1
aI0
aI0
aI3
aI4
aI12
aa(lp218
V0021300655
p219
aVJAN 26, 2014
p220
aVNYK vs. LAL
p221
aVW
p222
aI27
aI2
aI7
aF0.286
aI1
aI5
aF0.2
aI0
aI0
aF0.0
aI1
aI3
aI4
aI2
aI1
aI0
aI3
aI2
aI5
aI10
aa(lp223
V0021300670
p224
aVJAN 28, 2014
p225
aVNYK vs. BOS
p226
aVW
p227
aI8
aI2
aI5
aF0.4
aI0
aI2
aF0.0
aI0
aI0
aF0.0
aI0
aI1
aI1
aI0
aI0
aI0
aI2
aI1
aI4
aI14
aa(lp228
V0021300714
p229
aVFEB 03, 2014
p230
aVNYK @ MIL
p231
aVL
p232
aI25
aI2
aI7
aF0.286
aI1
aI3
aF0.333
aI0
aI0
aF0.0
aI1
aI0
aI1
aI0
aI1
aI0
aI1
aI4
aI5
aI-16
aa(lp233
V0021300728
p234
aVFEB 05, 2014
p235
aVNYK vs. POR
p236
aVL
p237
aI24
aI0
aI5
aF0.0
aI0
aI0
aF0.0
aI0
aI0
aF0.0
aI1
aI2
aI3
aI1
aI2
aI0
aI0
aI3
aI0
aI-8
aa(lp238
V0021300745
p239
aVFEB 07, 2014
p240
aVNYK vs. DEN
p241
aVW
p242
aI17
aI2
aI5
aF0.4
aI1
aI4
aF0.25
aI0
aI0
aF0.0
aI1
aI1
aI2
aI0
aI0
aI0
aI4
aI3
aI5
aI18
aa(lp243
V0021300756
p244
aVFEB 09, 2014
p245
aVNYK @ OKC
p246
aVL
p247
aI22
aI4
aI9
aF0.444
aI4
aI8
aF0.5
aI0
aI0
aF0.0
aI1
aI2
aI3
aI2
aI0
aI0
aI2
aI3
aI12
aI-5
aa(lp248
V0021300783
p249
aVFEB 12, 2014
p250
aVNYK vs. SAC
p251
aVL
p252
aI22
aI3
aI7
aF0.429
aI2
aI4
aF0.5
aI0
aI0
aF0.0
aI0
aI2
aI2
aI2
aI3
aI0
aI2
aI2
aI8
aI9
aa(lp253
V0021300796
p254
aVFEB 18, 2014
p255
aVNYK @ MEM
p256
aVL
p257
aI20
aI3
aI9
aF0.333
aI0
aI5
aF0.0
aI0
aI0
aF0.0
aI0
aI2
aI2
aI0
aI0
aI0
aI0
aI2
aI6
aI2
aa(lp258
V0021300806
p259
aVFEB 19, 2014
p260
aVNYK @ NOP
p261
aVW
p262
aI17
aI1
aI6
aF0.167
aI0
aI1
aF0.0
aI0
aI0
aF0.0
aI0
aI3
aI3
aI2
aI1
aI0
aI2
aI1
aI2
aI2
aa(lp263
V0021300883
p264
aVMAR 02, 2014
p265
aVNYK @ CHI
p266
aVL
p267
aI20
aI1
aI6
aF0.167
aI1
aI3
aF0.333
aI0
aI0
aF0.0
aI1
aI4
aI5
aI1
aI0
aI1
aI3
aI2
aI3
aI-9
aa(lp268
V0021300892
p269
aVMAR 03, 2014
p270
aVNYK @ DET
p271
aVL
p272
aI16
aI2
aI7
aF0.286
aI1
aI3
aF0.333
aI0
aI0
aF0.0
aI1
aI1
aI2
aI1
aI2
aI1
aI0
aI1
aI5
aI-10
aa(lp273
V0021300911
p274
aVMAR 05, 2014
p275
aVNYK @ MIN
p276
aVW
p277
aI21
aI1
aI4
aF0.25
aI0
aI2
aF0.0
aI0
aI0
aF0.0
aI1
aI0
aI1
aI1
aI2
aI0
aI0
aI2
aI2
aI9
aa(lp278
V0021300921
p279
aVMAR 07, 2014
p280
aVNYK vs. UTA
p281
aVW
p282
aI27
aI3
aI4
aF0.75
aI1
aI1
aF1.0
aI0
aI0
aF0.0
aI2
aI2
aI4
aI3
aI2
aI0
aI2
aI1
aI7
aI15
aa(lp283
V0021300928
p284
aVMAR 08, 2014
p285
aVNYK @ CLE
p286
aVW
p287
aI31
aI3
aI8
aF0.375
aI1
aI4
aF0.25
aI0
aI0
aF0.0
aI1
aI4
aI5
aI3
aI1
aI1
aI1
aI3
aI7
aI11
aa(lp288
V0021300946
p289
aVMAR 10, 2014
p290
aVNYK vs. PHI
p291
aVW
p292
aI31
aI1
aI3
aF0.333
aI0
aI1
aF0.0
aI0
aI0
aF0.0
aI2
aI2
aI4
aI3
aI2
aI0
aI0
aI2
aI2
aI13
aa(lp293
V0021300962
p294
aVMAR 12, 2014
p295
aVNYK @ BOS
p296
aVW
p297
aI21
aI3
aI4
aF0.75
aI1
aI1
aF1.0
aI0
aI0
aF0.0
aI0
aI3
aI3
aI4
aI0
aI0
aI0
aI5
aI7
aI20
aa(lp298
V0021300981
p299
aVMAR 15, 2014
p300
aVNYK vs. MIL
p301
aVW
p302
aI27
aI5
aI12
aF0.417
aI2
aI3
aF0.667
aI2
aI2
aF1.0
aI3
aI1
aI4
aI4
aI1
aI0
aI1
aI2
aI14
aI-2
aa(lp303
V0021301013
p304
aVMAR 19, 2014
p305
aVNYK vs. IND
p306
aVW
p307
aI29
aI1
aI5
aF0.2
aI1
aI2
aF0.5
aI0
aI0
aF0.0
aI1
aI2
aI3
aI1
aI0
aI0
aI0
aI4
aI3
aI-4
aa(lp308
V0021301023
p309
aVMAR 21, 2014
p310
aVNYK @ PHI
p311
aVW
p312
aI27
aI4
aI7
aF0.571
aI3
aI6
aF0.5
aI0
aI0
aF0.0
aI0
aI0
aI0
aI2
aI1
aI0
aI0
aI3
aI11
aI8
aa(lp313
V0021301060
p314
aVMAR 25, 2014
p315
aVNYK @ LAL
p316
aVL
p317
aI19
aI0
aI6
aF0.0
aI0
aI2
aF0.0
aI0
aI0
aF0.0
aI1
aI1
aI2
aI0
aI2
aI0
aI1
aI0
aI0
aI-15
aa(lp318
V0021301069
p319
aVMAR 26, 2014
p320
aVNYK @ SAC
p321
aVW
p322
aI25
aI2
aI3
aF0.667
aI0
aI1
aF0.0
aI0
aI0
aF0.0
aI1
aI1
aI2
aI1
aI0
aI0
aI1
aI4
aI4
aI-5
aa(lp323
V0021301085
p324
aVMAR 28, 2014
p325
aVNYK @ PHX
p326
aVL
p327
aI26
aI3
aI6
aF0.5
aI1
aI2
aF0.5
aI0
aI0
aF0.0
aI0
aI3
aI3
aI0
aI0
aI0
aI0
aI1
aI7
aI-1
aa(lp328
V0021301098
p329
aVMAR 30, 2014
p330
aVNYK @ GSW
p331
aVW
p332
aI26
aI1
aI5
aF0.2
aI1
aI3
aF0.333
aI0
aI0
aF0.0
aI0
aI0
aI0
aI1
aI0
aI1
aI0
aI1
aI3
aI12
aa(lp333
V0021301110
p334
aVMAR 31, 2014
p335
aVNYK @ UTA
p336
aVW
p337
aI23
aI1
aI5
aF0.2
aI0
aI2
aF0.0
aI0
aI0
aF0.0
aI0
aI2
aI2
aI0
aI1
aI0
aI0
aI4
aI2
aI3
aa(lp338
V0021301115
p339
aVAPR 02, 2014
p340
aVNYK vs. BKN
p341
aVW
p342
aI24
aI4
aI6
aF0.667
aI0
aI2
aF0.0
aI2
aI3
aF0.667
aI1
aI2
aI3
aI2
aI5
aI0
aI2
aI5
aI10
aI29
aa(lp343
V0021301136
p344
aVAPR 04, 2014
p345
aVNYK vs. WAS
p346
aVL
p347
aI29
aI2
aI5
aF0.4
aI1
aI2
aF0.5
aI0
aI0
aF0.0
aI3
aI1
aI4
aI2
aI3
aI0
aI1
aI2
aI5
aI9
aa(lp348
V0021301149
p349
aVAPR 06, 2014
p350
aVNYK @ MIA
p351
aVL
p352
aI28
aI3
aI7
aF0.429
aI2
aI6
aF0.333
aI1
aI2
aF0.5
aI6
aI2
aI8
aI2
aI1
aI0
aI0
aI4
aI9
aI-6
aa(lp353
V0021301177
p354
aVAPR 11, 2014
p355
aVNYK @ TOR
p356
aVW
p357
aI28
aI4
aI9
aF0.444
aI0
aI3
aF0.0
aI3
aI4
aF0.75
aI1
aI4
aI5
aI1
aI2
aI0
aI0
aI6
aI11
aI0
aa(lp358
V0021301197
p359
aVAPR 13, 2014
p360
aVNYK vs. CHI
p361
aVW
p362
aI32
aI5
aI11
aF0.455
aI0
aI1
aF0.0
aI0
aI0
aF0.0
aI0
aI7
aI7
aI0
aI1
aI0
aI1
aI3
aI10
aI8
aa(lp363
V0021301214
p364
aVAPR 15, 2014
p365
aVNYK @ BKN
p366
aVW
p367
aI31
aI4
aI9
aF0.444
aI0
aI2
aF0.0
aI3
aI4
aF0.75
aI1
aI3
aI4
aI2
aI3
aI0
aI2
aI4
aI11
aI9
aa(lp368
V0021301226
p369
aVAPR 16, 2014
p370
aVNYK vs. TOR
p371
aVW
p372
aI30
aI1
aI10
aF0.1
aI1
aI5
aF0.2
aI0
aI2
aF0.0
aI2
aI2
aI4
aI2
aI2
aI1
aI0
aI3
aI3
aI12
aasS'name'
p373
VIman Shumpert
p374
sS'weight'
p375
V220
p376
sS'age'
p377
I23
sS'experience'
p378
I2
sS'height'
p379
V6-5
p380
sS'position'
p381
VGuard
p382
s.