(dp0
S'stats'
p1
(lp2
(lp3
V0021300009
p4
aVOCT 30, 2013
p5
aVCHA @ HOU
p6
aVL
p7
aI17
aI2
aI4
aF0.5
aI0
aI0
aF0.0
aI0
aI0
aF0.0
aI1
aI4
aI5
aI0
aI0
aI0
aI0
aI2
aI4
aI-6
aa(lp8
V0021300020
p9
aVNOV 01, 2013
p10
aVCHA vs. CLE
p11
aVW
p12
aI37
aI5
aI6
aF0.833
aI0
aI0
aF0.0
aI1
aI2
aF0.5
aI1
aI9
aI10
aI0
aI0
aI2
aI1
aI3
aI11
aI5
aa(lp13
V0021300035
p14
aVNOV 02, 2013
p15
aVCHA @ NOP
p16
aVL
p17
aI26
aI0
aI0
aF0.0
aI0
aI0
aF0.0
aI0
aI2
aF0.0
aI1
aI5
aI6
aI0
aI0
aI1
aI0
aI1
aI0
aI-17
aa(lp18
V0021300054
p19
aVNOV 05, 2013
p20
aVCHA @ NYK
p21
aVW
p22
aI19
aI0
aI1
aF0.0
aI0
aI0
aF0.0
aI1
aI2
aF0.5
aI1
aI5
aI6
aI0
aI0
aI1
aI4
aI2
aI1
aI-3
aa(lp23
V0021300060
p24
aVNOV 06, 2013
p25
aVCHA vs. TOR
p26
aVW
p27
aI40
aI3
aI4
aF0.75
aI0
aI0
aF0.0
aI2
aI6
aF0.333
aI4
aI7
aI11
aI0
aI0
aI3
aI0
aI2
aI8
aI0
aa(lp28
V0021300073
p29
aVNOV 08, 2013
p30
aVCHA vs. NYK
p31
aVL
p32
aI26
aI0
aI1
aF0.0
aI0
aI0
aF0.0
aI3
aI4
aF0.75
aI1
aI10
aI11
aI1
aI0
aI1
aI1
aI1
aI3
aI-8
aa(lp33
V0021300098
p34
aVNOV 11, 2013
p35
aVCHA vs. ATL
p36
aVL
p37
aI17
aI1
aI1
aF1.0
aI0
aI0
aF0.0
aI0
aI2
aF0.0
aI1
aI5
aI6
aI0
aI0
aI0
aI0
aI2
aI2
aI-4
aa(lp38
V0021300113
p39
aVNOV 13, 2013
p40
aVCHA @ BOS
p41
aVW
p42
aI15
aI2
aI3
aF0.667
aI0
aI0
aF0.0
aI0
aI0
aF0.0
aI1
aI3
aI4
aI0
aI0
aI1
aI0
aI2
aI4
aI-6
aa(lp43
V0021300129
p44
aVNOV 15, 2013
p45
aVCHA @ CLE
p46
aVW
p47
aI32
aI0
aI1
aF0.0
aI0
aI0
aF0.0
aI0
aI0
aF0.0
aI4
aI8
aI12
aI0
aI0
aI3
aI2
aI2
aI0
aI-6
aa(lp48
V0021300136
p49
aVNOV 16, 2013
p50
aVCHA vs. MIA
p51
aVL
p52
aI21
aI1
aI2
aF0.5
aI0
aI0
aF0.0
aI2
aI2
aF1.0
aI2
aI6
aI8
aI0
aI0
aI0
aI0
aI2
aI4
aI-13
aa(lp53
V0021300151
p54
aVNOV 18, 2013
p55
aVCHA @ CHI
p56
aVL
p57
aI21
aI2
aI2
aF1.0
aI0
aI0
aF0.0
aI2
aI2
aF1.0
aI1
aI3
aI4
aI0
aI0
aI1
aI0
aI2
aI6
aI-13
aa(lp58
V0021300161
p59
aVNOV 20, 2013
p60
aVCHA vs. BKN
p61
aVW
p62
aI23
aI4
aI6
aF0.667
aI0
aI0
aF0.0
aI1
aI3
aF0.333
aI1
aI5
aI6
aI0
aI0
aI0
aI0
aI4
aI9
aI0
aa(lp63
V0021300193
p64
aVNOV 23, 2013
p65
aVCHA @ MIL
p66
aVW
p67
aI5
aI0
aI0
aF0.0
aI0
aI0
aF0.0
aI0
aI0
aF0.0
aI0
aI3
aI3
aI0
aI0
aI0
aI0
aI0
aI0
aI-4
aa(lp68
V0021300215
p69
aVNOV 27, 2013
p70
aVCHA vs. IND
p71
aVL
p72
aI11
aI1
aI1
aF1.0
aI0
aI0
aF0.0
aI2
aI4
aF0.5
aI2
aI2
aI4
aI0
aI0
aI0
aI0
aI0
aI4
aI-6
aa(lp73
V0021300228
p74
aVNOV 29, 2013
p75
aVCHA vs. MIL
p76
aVW
p77
aI20
aI3
aI4
aF0.75
aI0
aI0
aF0.0
aI1
aI2
aF0.5
aI4
aI10
aI14
aI0
aI0
aI1
aI2
aI1
aI7
aI10
aa(lp78
V0021300252
p79
aVDEC 01, 2013
p80
aVCHA @ MIA
p81
aVL
p82
aI10
aI1
aI1
aF1.0
aI0
aI0
aF0.0
aI0
aI0
aF0.0
aI0
aI4
aI4
aI0
aI0
aI1
aI0
aI0
aI2
aI2
aa(lp83
V0021300266
p84
aVDEC 03, 2013
p85
aVCHA @ DAL
p86
aVL
p87
aI10
aI0
aI1
aF0.0
aI0
aI0
aF0.0
aI0
aI0
aF0.0
aI3
aI2
aI5
aI0
aI1
aI0
aI0
aI0
aI0
aI-4
aa(lp88
V0021300280
p89
aVDEC 06, 2013
p90
aVCHA vs. PHI
p91
aVW
p92
aI7
aI2
aI2
aF1.0
aI0
aI0
aF0.0
aI0
aI0
aF0.0
aI1
aI2
aI3
aI0
aI0
aI1
aI0
aI1
aI4
aI14
aa(lp93
V0021300329
p94
aVDEC 13, 2013
p95
aVCHA @ IND
p96
aVL
p97
aI17
aI2
aI2
aF1.0
aI0
aI0
aF0.0
aI2
aI3
aF0.667
aI2
aI5
aI7
aI1
aI1
aI0
aI1
aI3
aI6
aI1
aa(lp98
V0021300342
p99
aVDEC 14, 2013
p100
aVCHA vs. LAL
p101
aVL
p102
aI14
aI3
aI4
aF0.75
aI0
aI0
aF0.0
aI0
aI0
aF0.0
aI1
aI4
aI5
aI0
aI0
aI2
aI2
aI2
aI6
aI-6
aa(lp103
V0021300364
p104
aVDEC 17, 2013
p105
aVCHA vs. SAC
p106
aVW
p107
aI20
aI0
aI1
aF0.0
aI0
aI0
aF0.0
aI0
aI2
aF0.0
aI3
aI6
aI9
aI0
aI0
aI2
aI1
aI4
aI0
aI14
aa(lp108
V0021300371
p109
aVDEC 18, 2013
p110
aVCHA @ TOR
p111
aVW
p112
aI13
aI0
aI1
aF0.0
aI0
aI0
aF0.0
aI1
aI2
aF0.5
aI0
aI1
aI1
aI0
aI0
aI0
aI2
aI3
aI1
aI-7
aa(lp113
V0021300386
p114
aVDEC 20, 2013
p115
aVCHA @ DET
p116
aVW
p117
aI15
aI1
aI1
aF1.0
aI0
aI0
aF0.0
aI1
aI2
aF0.5
aI1
aI3
aI4
aI0
aI0
aI4
aI0
aI1
aI3
aI1
aa(lp118
V0021300394
p119
aVDEC 21, 2013
p120
aVCHA vs. UTA
p121
aVL
p122
aI17
aI2
aI3
aF0.667
aI0
aI0
aF0.0
aI1
aI2
aF0.5
aI2
aI8
aI10
aI0
aI0
aI2
aI0
aI1
aI5
aI0
aa(lp123
V0021300407
p124
aVDEC 23, 2013
p125
aVCHA vs. MIL
p126
aVW
p127
aI14
aI2
aI5
aF0.4
aI0
aI0
aF0.0
aI0
aI0
aF0.0
aI1
aI3
aI4
aI0
aI0
aI1
aI0
aI0
aI4
aI9
aa(lp128
V0021300427
p129
aVDEC 27, 2013
p130
aVCHA vs. OKC
p131
aVL
p132
aI13
aI1
aI2
aF0.5
aI0
aI0
aF0.0
aI0
aI0
aF0.0
aI3
aI1
aI4
aI0
aI0
aI2
aI1
aI3
aI2
aI-5
aa(lp133
V0021300440
p134
aVDEC 28, 2013
p135
aVCHA @ ATL
p136
aVL
p137
aI14
aI1
aI1
aF1.0
aI0
aI0
aF0.0
aI4
aI4
aF1.0
aI2
aI1
aI3
aI0
aI0
aI2
aI1
aI0
aI6
aI-2
aa(lp138
V0021300458
p139
aVDEC 30, 2013
p140
aVCHA @ UTA
p141
aVL
p142
aI12
aI1
aI1
aF1.0
aI0
aI0
aF0.0
aI0
aI0
aF0.0
aI0
aI4
aI4
aI0
aI0
aI1
aI0
aI1
aI2
aI-2
aa(lp143
V0021300472
p144
aVJAN 01, 2014
p145
aVCHA @ LAC
p146
aVL
p147
aI18
aI3
aI5
aF0.6
aI0
aI0
aF0.0
aI2
aI3
aF0.667
aI1
aI4
aI5
aI1
aI0
aI1
aI2
aI0
aI8
aI-9
aa(lp148
V0021300480
p149
aVJAN 02, 2014
p150
aVCHA @ POR
p151
aVL
p152
aI19
aI2
aI3
aF0.667
aI0
aI0
aF0.0
aI2
aI3
aF0.667
aI0
aI4
aI4
aI0
aI1
aI0
aI1
aI1
aI6
aI-13
aa(lp153
V0021300497
p154
aVJAN 04, 2014
p155
aVCHA @ SAC
p156
aVW
p157
aI9
aI0
aI1
aF0.0
aI0
aI0
aF0.0
aI1
aI2
aF0.5
aI0
aI1
aI1
aI0
aI0
aI0
aI1
aI6
aI1
aI7
aa(lp158
V0021300508
p159
aVJAN 07, 2014
p160
aVCHA vs. WAS
p161
aVL
p162
aI13
aI0
aI1
aF0.0
aI0
aI0
aF0.0
aI0
aI2
aF0.0
aI0
aI3
aI3
aI0
aI0
aI1
aI0
aI2
aI0
aI2
aa(lp163
V0021300535
p164
aVJAN 10, 2014
p165
aVCHA @ MIN
p166
aVL
p167
aI20
aI0
aI1
aF0.0
aI0
aI0
aF0.0
aI4
aI4
aF1.0
aI0
aI7
aI7
aI0
aI0
aI4
aI1
aI2
aI4
aI-11
aa(lp168
V0021300547
p169
aVJAN 11, 2014
p170
aVCHA @ CHI
p171
aVL
p172
aI9
aI0
aI1
aF0.0
aI0
aI0
aF0.0
aI0
aI0
aF0.0
aI1
aI1
aI2
aI0
aI0
aI1
aI0
aI3
aI0
aI-3
aa(lp173
V0021300562
p174
aVJAN 14, 2014
p175
aVCHA vs. NYK
p176
aVW
p177
aI9
aI1
aI2
aF0.5
aI0
aI0
aF0.0
aI0
aI0
aF0.0
aI0
aI0
aI0
aI0
aI0
aI0
aI0
aI0
aI2
aI-7
aa(lp178
V0021300582
p179
aVJAN 17, 2014
p180
aVCHA @ ORL
p181
aVW
p182
aI3
aI0
aI0
aF0.0
aI0
aI0
aF0.0
aI0
aI0
aF0.0
aI0
aI1
aI1
aI0
aI0
aI0
aI1
aI1
aI0
aI-1
aa(lp183
V0021300593
p184
aVJAN 18, 2014
p185
aVCHA vs. MIA
p186
aVL
p187
aI10
aI3
aI3
aF1.0
aI0
aI0
aF0.0
aI1
aI2
aF0.5
aI1
aI2
aI3
aI0
aI0
aI1
aI0
aI1
aI7
aI3
aa(lp188
V0021300608
p189
aVJAN 20, 2014
p190
aVCHA vs. TOR
p191
aVW
p192
aI10
aI1
aI1
aF1.0
aI0
aI0
aF0.0
aI0
aI0
aF0.0
aI0
aI1
aI1
aI1
aI0
aI1
aI1
aI2
aI2
aI-4
aa(lp193
V0021300621
p194
aVJAN 22, 2014
p195
aVCHA vs. LAC
p196
aVW
p197
aI12
aI0
aI0
aF0.0
aI0
aI0
aF0.0
aI0
aI0
aF0.0
aI1
aI4
aI5
aI0
aI0
aI0
aI0
aI0
aI0
aI7
aa(lp198
V0021300640
p199
aVJAN 24, 2014
p200
aVCHA @ NYK
p201
aVL
p202
aI17
aI3
aI4
aF0.75
aI0
aI0
aF0.0
aI2
aI2
aF1.0
aI3
aI5
aI8
aI1
aI0
aI3
aI0
aI1
aI8
aI7
aa(lp203
V0021300646
p204
aVJAN 25, 2014
p205
aVCHA vs. CHI
p206
aVL
p207
aI10
aI0
aI0
aF0.0
aI0
aI0
aF0.0
aI0
aI0
aF0.0
aI1
aI1
aI2
aI0
aI0
aI0
aI1
aI1
aI0
aI-10
aa(lp208
V0021300682
p209
aVJAN 29, 2014
p210
aVCHA @ DEN
p211
aVW
p212
aI16
aI1
aI4
aF0.25
aI0
aI0
aF0.0
aI2
aI2
aF1.0
aI1
aI8
aI9
aI0
aI0
aI1
aI1
aI2
aI4
aI3
aa(lp213
V0021300695
p214
aVJAN 31, 2014
p215
aVCHA @ LAL
p216
aVW
p217
aI9
aI1
aI1
aF1.0
aI0
aI0
aF0.0
aI0
aI0
aF0.0
aI1
aI2
aI3
aI0
aI0
aI1
aI0
aI0
aI2
aI-1
aa(lp218
V0021300706
p219
aVFEB 01, 2014
p220
aVCHA @ PHX
p221
aVL
p222
aI16
aI1
aI1
aF1.0
aI0
aI0
aF0.0
aI2
aI2
aF1.0
aI1
aI3
aI4
aI0
aI0
aI3
aI0
aI1
aI4
aI5
aa(lp223
V0021300724
p224
aVFEB 04, 2014
p225
aVCHA @ GSW
p226
aVW
p227
aI9
aI1
aI2
aF0.5
aI0
aI0
aF0.0
aI0
aI0
aF0.0
aI2
aI4
aI6
aI0
aI0
aI1
aI1
aI4
aI2
aI0
aa(lp228
V0021300749
p229
aVFEB 08, 2014
p230
aVCHA vs. SAS
p231
aVL
p232
aI10
aI0
aI1
aF0.0
aI0
aI0
aF0.0
aI0
aI0
aF0.0
aI2
aI0
aI2
aI0
aI0
aI0
aI0
aI3
aI0
aI-13
aa(lp233
V0021300770
p234
aVFEB 11, 2014
p235
aVCHA vs. DAL
p236
aVW
p237
aI10
aI5
aI5
aF1.0
aI0
aI0
aF0.0
aI0
aI0
aF0.0
aI2
aI2
aI4
aI0
aI0
aI1
aI0
aI2
aI10
aI3
aa(lp238
V0021300781
p239
aVFEB 12, 2014
p240
aVCHA @ BKN
p241
aVL
p242
aI19
aI3
aI3
aF1.0
aI0
aI0
aF0.0
aI0
aI2
aF0.0
aI2
aI4
aI6
aI0
aI0
aI2
aI1
aI3
aI6
aI3
aa(lp243
V0021300795
p244
aVFEB 18, 2014
p245
aVCHA @ DET
p246
aVW
p247
aI10
aI1
aI1
aF1.0
aI0
aI0
aF0.0
aI1
aI4
aF0.25
aI1
aI2
aI3
aI0
aI0
aI1
aI0
aI1
aI3
aI3
aa(lp248
V0021300801
p249
aVFEB 19, 2014
p250
aVCHA vs. DET
p251
aVW
p252
aI13
aI0
aI1
aF0.0
aI0
aI0
aF0.0
aI1
aI2
aF0.5
aI3
aI5
aI8
aI0
aI0
aI5
aI1
aI2
aI1
aI-5
aa(lp253
V0021300815
p254
aVFEB 21, 2014
p255
aVCHA vs. NOP
p256
aVW
p257
aI14
aI0
aI2
aF0.0
aI0
aI0
aF0.0
aI0
aI0
aF0.0
aI2
aI6
aI8
aI0
aI0
aI1
aI2
aI0
aI0
aI8
aa(lp258
V0021300825
p259
aVFEB 22, 2014
p260
aVCHA vs. MEM
p261
aVW
p262
aI17
aI3
aI3
aF1.0
aI0
aI0
aF0.0
aI0
aI2
aF0.0
aI2
aI5
aI7
aI0
aI0
aI2
aI0
aI2
aI6
aI6
aa(lp263
V0021300871
p264
aVFEB 28, 2014
p265
aVCHA @ SAS
p266
aVL
p267
aI13
aI0
aI3
aF0.0
aI0
aI0
aF0.0
aI0
aI0
aF0.0
aI2
aI3
aI5
aI0
aI1
aI0
aI0
aI1
aI0
aI0
aa(lp268
V0021300887
p269
aVMAR 02, 2014
p270
aVCHA @ OKC
p271
aVL
p272
aI12
aI2
aI2
aF1.0
aI0
aI0
aF0.0
aI1
aI2
aF0.5
aI0
aI3
aI3
aI0
aI0
aI3
aI1
aI1
aI5
aI-2
aa(lp273
V0021300893
p274
aVMAR 03, 2014
p275
aVCHA @ MIA
p276
aVL
p277
aI5
aI0
aI0
aF0.0
aI0
aI0
aF0.0
aI0
aI0
aF0.0
aI0
aI1
aI1
aI0
aI0
aI0
aI0
aI1
aI0
aI-11
aa(lp278
V0021300904
p279
aVMAR 05, 2014
p280
aVCHA vs. IND
p281
aVW
p282
aI6
aI0
aI1
aF0.0
aI0
aI0
aF0.0
aI0
aI0
aF0.0
aI1
aI0
aI1
aI0
aI0
aI0
aI0
aI0
aI0
aI-5
aa(lp283
V0021300918
p284
aVMAR 07, 2014
p285
aVCHA vs. CLE
p286
aVW
p287
aI3
aI0
aI0
aF0.0
aI0
aI0
aF0.0
aI0
aI0
aF0.0
aI1
aI1
aI2
aI0
aI0
aI1
aI0
aI1
aI0
aI-5
aa(lp288
V0021300930
p289
aVMAR 08, 2014
p290
aVCHA @ MEM
p291
aVL
p292
aI18
aI3
aI5
aF0.6
aI0
aI0
aF0.0
aI0
aI0
aF0.0
aI3
aI2
aI5
aI0
aI0
aI3
aI0
aI3
aI6
aI-3
aa(lp293
V0021300943
p294
aVMAR 10, 2014
p295
aVCHA vs. DEN
p296
aVW
p297
aI9
aI0
aI2
aF0.0
aI0
aI0
aF0.0
aI0
aI0
aF0.0
aI1
aI3
aI4
aI0
aI0
aI0
aI1
aI2
aI0
aI5
aa(lp298
V0021300961
p299
aVMAR 12, 2014
p300
aVCHA @ WAS
p301
aVW
p302
aI12
aI0
aI2
aF0.0
aI0
aI0
aF0.0
aI0
aI0
aF0.0
aI1
aI1
aI2
aI0
aI0
aI0
aI0
aI1
aI0
aI-3
aa(lp303
V0021300971
p304
aVMAR 14, 2014
p305
aVCHA vs. MIN
p306
aVW
p307
aI10
aI1
aI1
aF1.0
aI0
aI0
aF0.0
aI0
aI0
aF0.0
aI1
aI2
aI3
aI0
aI0
aI1
aI0
aI1
aI2
aI12
aa(lp308
V0021300987
p309
aVMAR 16, 2014
p310
aVCHA @ MIL
p311
aVW
p312
aI11
aI2
aI3
aF0.667
aI0
aI0
aF0.0
aI0
aI0
aF0.0
aI0
aI2
aI2
aI0
aI0
aI1
aI1
aI0
aI4
aI1
aa(lp313
V0021300996
p314
aVMAR 17, 2014
p315
aVCHA vs. ATL
p316
aVL
p317
aI8
aI2
aI2
aF1.0
aI0
aI0
aF0.0
aI0
aI0
aF0.0
aI1
aI3
aI4
aI0
aI0
aI1
aI2
aI3
aI4
aI1
aa(lp318
V0021301010
p319
aVMAR 19, 2014
p320
aVCHA @ BKN
p321
aVL
p322
aI11
aI1
aI2
aF0.5
aI0
aI0
aF0.0
aI0
aI0
aF0.0
aI2
aI4
aI6
aI0
aI0
aI1
aI0
aI3
aI2
aI3
aa(lp323
V0021301032
p324
aVMAR 22, 2014
p325
aVCHA vs. POR
p326
aVW
p327
aI15
aI0
aI0
aF0.0
aI0
aI0
aF0.0
aI0
aI0
aF0.0
aI2
aI3
aI5
aI0
aI1
aI0
aI0
aI2
aI0
aI16
aa(lp328
V0021301047
p329
aVMAR 24, 2014
p330
aVCHA vs. HOU
p331
aVL
p332
aI6
aI0
aI1
aF0.0
aI0
aI0
aF0.0
aI0
aI0
aF0.0
aI3
aI2
aI5
aI0
aI0
aI0
aI0
aI1
aI0
aI-6
aa(lp333
V0021301061
p334
aVMAR 26, 2014
p335
aVCHA vs. BKN
p336
aVW
p337
aI12
aI0
aI0
aF0.0
aI0
aI0
aF0.0
aI1
aI2
aF0.5
aI1
aI4
aI5
aI1
aI0
aI0
aI0
aI4
aI1
aI2
aa(lp338
V0021301075
p339
aVMAR 28, 2014
p340
aVCHA @ ORL
p341
aVL
p342
aI11
aI0
aI0
aF0.0
aI0
aI0
aF0.0
aI0
aI0
aF0.0
aI0
aI2
aI2
aI0
aI0
aI2
aI1
aI2
aI0
aI-12
aa(lp343
V0021301101
p344
aVMAR 31, 2014
p345
aVCHA vs. WAS
p346
aVW
p347
aI8
aI2
aI2
aF1.0
aI0
aI0
aF0.0
aI0
aI0
aF0.0
aI0
aI0
aI0
aI0
aI1
aI1
aI0
aI0
aI4
aI8
aa(lp348
V0021301117
p349
aVAPR 02, 2014
p350
aVCHA @ PHI
p351
aVW
p352
aI17
aI1
aI3
aF0.333
aI0
aI0
aF0.0
aI0
aI0
aF0.0
aI4
aI3
aI7
aI0
aI0
aI2
aI1
aI3
aI2
aI18
aa(lp353
V0021301130
p354
aVAPR 04, 2014
p355
aVCHA vs. ORL
p356
aVW
p357
aI11
aI1
aI1
aF1.0
aI0
aI0
aF0.0
aI0
aI0
aF0.0
aI1
aI2
aI3
aI0
aI0
aI2
aI0
aI0
aI2
aI4
aa(lp358
V0021301145
p359
aVAPR 05, 2014
p360
aVCHA @ CLE
p361
aVW
p362
aI12
aI0
aI1
aF0.0
aI0
aI0
aF0.0
aI0
aI0
aF0.0
aI4
aI3
aI7
aI0
aI0
aI0
aI0
aI2
aI0
aI8
aa(lp363
V0021301165
p364
aVAPR 09, 2014
p365
aVCHA @ WAS
p366
aVW
p367
aI10
aI1
aI1
aF1.0
aI0
aI0
aF0.0
aI0
aI0
aF0.0
aI0
aI2
aI2
aI0
aI0
aI0
aI1
aI2
aI2
aI1
aa(lp368
V0021301178
p369
aVAPR 11, 2014
p370
aVCHA @ BOS
p371
aVL
p372
aI9
aI0
aI1
aF0.0
aI0
aI0
aF0.0
aI0
aI0
aF0.0
aI0
aI3
aI3
aI0
aI0
aI2
aI0
aI4
aI0
aI1
aa(lp373
V0021301190
p374
aVAPR 12, 2014
p375
aVCHA vs. PHI
p376
aVW
p377
aI12
aI0
aI0
aF0.0
aI0
aI0
aF0.0
aI2
aI4
aF0.5
aI1
aI0
aI1
aI1
aI0
aI1
aI0
aI1
aI2
aI3
aa(lp378
V0021301207
p379
aVAPR 14, 2014
p380
aVCHA @ ATL
p381
aVW
p382
aI13
aI1
aI1
aF1.0
aI0
aI0
aF0.0
aI0
aI1
aF0.0
aI3
aI3
aI6
aI1
aI0
aI2
aI0
aI0
aI2
aI5
aa(lp383
V0021301223
p384
aVAPR 16, 2014
p385
aVCHA vs. CHI
p386
aVW
p387
aI11
aI2
aI3
aF0.667
aI0
aI0
aF0.0
aI0
aI2
aF0.0
aI2
aI5
aI7
aI0
aI1
aI1
aI0
aI1
aI4
aI-4
aasS'name'
p388
VBismack Biyombo
p389
sS'weight'
p390
V245
p391
sS'age'
p392
I21
sS'experience'
p393
I2
sS'height'
p394
V6-9
p395
sS'position'
p396
VCenter-Forward
p397
s.