(dp0
S'age'
p1
I21
sS'stats'
p2
(lp3
(lp4
V0021300009
p5
aVOCT 30, 2013
p6
aVCHA @ HOU
p7
aVL
p8
aI17
aI2
aI4
aF0.5
aI0
aI0
aF0.0
aI0
aI0
aF0.0
aI1
aI4
aI5
aI0
aI0
aI0
aI0
aI2
aI4
aI-6
aa(lp9
V0021300020
p10
aVNOV 01, 2013
p11
aVCHA vs. CLE
p12
aVW
p13
aI37
aI5
aI6
aF0.833
aI0
aI0
aF0.0
aI1
aI2
aF0.5
aI1
aI9
aI10
aI0
aI0
aI2
aI1
aI3
aI11
aI5
aa(lp14
V0021300035
p15
aVNOV 02, 2013
p16
aVCHA @ NOP
p17
aVL
p18
aI26
aI0
aI0
aF0.0
aI0
aI0
aF0.0
aI0
aI2
aF0.0
aI1
aI5
aI6
aI0
aI0
aI1
aI0
aI1
aI0
aI-17
aa(lp19
V0021300054
p20
aVNOV 05, 2013
p21
aVCHA @ NYK
p22
aVW
p23
aI19
aI0
aI1
aF0.0
aI0
aI0
aF0.0
aI1
aI2
aF0.5
aI1
aI5
aI6
aI0
aI0
aI1
aI4
aI2
aI1
aI-3
aa(lp24
V0021300060
p25
aVNOV 06, 2013
p26
aVCHA vs. TOR
p27
aVW
p28
aI40
aI3
aI4
aF0.75
aI0
aI0
aF0.0
aI2
aI6
aF0.333
aI4
aI7
aI11
aI0
aI0
aI3
aI0
aI2
aI8
aI0
aa(lp29
V0021300073
p30
aVNOV 08, 2013
p31
aVCHA vs. NYK
p32
aVL
p33
aI26
aI0
aI1
aF0.0
aI0
aI0
aF0.0
aI3
aI4
aF0.75
aI1
aI10
aI11
aI1
aI0
aI1
aI1
aI1
aI3
aI-8
aa(lp34
V0021300098
p35
aVNOV 11, 2013
p36
aVCHA vs. ATL
p37
aVL
p38
aI17
aI1
aI1
aF1.0
aI0
aI0
aF0.0
aI0
aI2
aF0.0
aI1
aI5
aI6
aI0
aI0
aI0
aI0
aI2
aI2
aI-4
aa(lp39
V0021300113
p40
aVNOV 13, 2013
p41
aVCHA @ BOS
p42
aVW
p43
aI15
aI2
aI3
aF0.667
aI0
aI0
aF0.0
aI0
aI0
aF0.0
aI1
aI3
aI4
aI0
aI0
aI1
aI0
aI2
aI4
aI-6
aa(lp44
V0021300129
p45
aVNOV 15, 2013
p46
aVCHA @ CLE
p47
aVW
p48
aI32
aI0
aI1
aF0.0
aI0
aI0
aF0.0
aI0
aI0
aF0.0
aI4
aI8
aI12
aI0
aI0
aI3
aI2
aI2
aI0
aI-6
aa(lp49
V0021300136
p50
aVNOV 16, 2013
p51
aVCHA vs. MIA
p52
aVL
p53
aI21
aI1
aI2
aF0.5
aI0
aI0
aF0.0
aI2
aI2
aF1.0
aI2
aI6
aI8
aI0
aI0
aI0
aI0
aI2
aI4
aI-13
aa(lp54
V0021300151
p55
aVNOV 18, 2013
p56
aVCHA @ CHI
p57
aVL
p58
aI21
aI2
aI2
aF1.0
aI0
aI0
aF0.0
aI2
aI2
aF1.0
aI1
aI3
aI4
aI0
aI0
aI1
aI0
aI2
aI6
aI-13
aa(lp59
V0021300161
p60
aVNOV 20, 2013
p61
aVCHA vs. BKN
p62
aVW
p63
aI23
aI4
aI6
aF0.667
aI0
aI0
aF0.0
aI1
aI3
aF0.333
aI1
aI5
aI6
aI0
aI0
aI0
aI0
aI4
aI9
aI0
aa(lp64
V0021300193
p65
aVNOV 23, 2013
p66
aVCHA @ MIL
p67
aVW
p68
aI5
aI0
aI0
aF0.0
aI0
aI0
aF0.0
aI0
aI0
aF0.0
aI0
aI3
aI3
aI0
aI0
aI0
aI0
aI0
aI0
aI-4
aa(lp69
V0021300215
p70
aVNOV 27, 2013
p71
aVCHA vs. IND
p72
aVL
p73
aI11
aI1
aI1
aF1.0
aI0
aI0
aF0.0
aI2
aI4
aF0.5
aI2
aI2
aI4
aI0
aI0
aI0
aI0
aI0
aI4
aI-6
aa(lp74
V0021300228
p75
aVNOV 29, 2013
p76
aVCHA vs. MIL
p77
aVW
p78
aI20
aI3
aI4
aF0.75
aI0
aI0
aF0.0
aI1
aI2
aF0.5
aI4
aI10
aI14
aI0
aI0
aI1
aI2
aI1
aI7
aI10
aa(lp79
V0021300252
p80
aVDEC 01, 2013
p81
aVCHA @ MIA
p82
aVL
p83
aI10
aI1
aI1
aF1.0
aI0
aI0
aF0.0
aI0
aI0
aF0.0
aI0
aI4
aI4
aI0
aI0
aI1
aI0
aI0
aI2
aI2
aa(lp84
V0021300266
p85
aVDEC 03, 2013
p86
aVCHA @ DAL
p87
aVL
p88
aI10
aI0
aI1
aF0.0
aI0
aI0
aF0.0
aI0
aI0
aF0.0
aI3
aI2
aI5
aI0
aI1
aI0
aI0
aI0
aI0
aI-4
aa(lp89
V0021300280
p90
aVDEC 06, 2013
p91
aVCHA vs. PHI
p92
aVW
p93
aI7
aI2
aI2
aF1.0
aI0
aI0
aF0.0
aI0
aI0
aF0.0
aI1
aI2
aI3
aI0
aI0
aI1
aI0
aI1
aI4
aI14
aa(lp94
V0021300329
p95
aVDEC 13, 2013
p96
aVCHA @ IND
p97
aVL
p98
aI17
aI2
aI2
aF1.0
aI0
aI0
aF0.0
aI2
aI3
aF0.667
aI2
aI5
aI7
aI1
aI1
aI0
aI1
aI3
aI6
aI1
aa(lp99
V0021300342
p100
aVDEC 14, 2013
p101
aVCHA vs. LAL
p102
aVL
p103
aI14
aI3
aI4
aF0.75
aI0
aI0
aF0.0
aI0
aI0
aF0.0
aI1
aI4
aI5
aI0
aI0
aI2
aI2
aI2
aI6
aI-6
aa(lp104
V0021300364
p105
aVDEC 17, 2013
p106
aVCHA vs. SAC
p107
aVW
p108
aI20
aI0
aI1
aF0.0
aI0
aI0
aF0.0
aI0
aI2
aF0.0
aI3
aI6
aI9
aI0
aI0
aI2
aI1
aI4
aI0
aI14
aa(lp109
V0021300371
p110
aVDEC 18, 2013
p111
aVCHA @ TOR
p112
aVW
p113
aI13
aI0
aI1
aF0.0
aI0
aI0
aF0.0
aI1
aI2
aF0.5
aI0
aI1
aI1
aI0
aI0
aI0
aI2
aI3
aI1
aI-7
aa(lp114
V0021300386
p115
aVDEC 20, 2013
p116
aVCHA @ DET
p117
aVW
p118
aI15
aI1
aI1
aF1.0
aI0
aI0
aF0.0
aI1
aI2
aF0.5
aI1
aI3
aI4
aI0
aI0
aI4
aI0
aI1
aI3
aI1
aa(lp119
V0021300394
p120
aVDEC 21, 2013
p121
aVCHA vs. UTA
p122
aVL
p123
aI17
aI2
aI3
aF0.667
aI0
aI0
aF0.0
aI1
aI2
aF0.5
aI2
aI8
aI10
aI0
aI0
aI2
aI0
aI1
aI5
aI0
aa(lp124
V0021300407
p125
aVDEC 23, 2013
p126
aVCHA vs. MIL
p127
aVW
p128
aI14
aI2
aI5
aF0.4
aI0
aI0
aF0.0
aI0
aI0
aF0.0
aI1
aI3
aI4
aI0
aI0
aI1
aI0
aI0
aI4
aI9
aa(lp129
V0021300427
p130
aVDEC 27, 2013
p131
aVCHA vs. OKC
p132
aVL
p133
aI13
aI1
aI2
aF0.5
aI0
aI0
aF0.0
aI0
aI0
aF0.0
aI3
aI1
aI4
aI0
aI0
aI2
aI1
aI3
aI2
aI-5
aa(lp134
V0021300440
p135
aVDEC 28, 2013
p136
aVCHA @ ATL
p137
aVL
p138
aI14
aI1
aI1
aF1.0
aI0
aI0
aF0.0
aI4
aI4
aF1.0
aI2
aI1
aI3
aI0
aI0
aI2
aI1
aI0
aI6
aI-2
aa(lp139
V0021300458
p140
aVDEC 30, 2013
p141
aVCHA @ UTA
p142
aVL
p143
aI12
aI1
aI1
aF1.0
aI0
aI0
aF0.0
aI0
aI0
aF0.0
aI0
aI4
aI4
aI0
aI0
aI1
aI0
aI1
aI2
aI-2
aa(lp144
V0021300472
p145
aVJAN 01, 2014
p146
aVCHA @ LAC
p147
aVL
p148
aI18
aI3
aI5
aF0.6
aI0
aI0
aF0.0
aI2
aI3
aF0.667
aI1
aI4
aI5
aI1
aI0
aI1
aI2
aI0
aI8
aI-9
aa(lp149
V0021300480
p150
aVJAN 02, 2014
p151
aVCHA @ POR
p152
aVL
p153
aI19
aI2
aI3
aF0.667
aI0
aI0
aF0.0
aI2
aI3
aF0.667
aI0
aI4
aI4
aI0
aI1
aI0
aI1
aI1
aI6
aI-13
aa(lp154
V0021300497
p155
aVJAN 04, 2014
p156
aVCHA @ SAC
p157
aVW
p158
aI9
aI0
aI1
aF0.0
aI0
aI0
aF0.0
aI1
aI2
aF0.5
aI0
aI1
aI1
aI0
aI0
aI0
aI1
aI6
aI1
aI7
aa(lp159
V0021300508
p160
aVJAN 07, 2014
p161
aVCHA vs. WAS
p162
aVL
p163
aI13
aI0
aI1
aF0.0
aI0
aI0
aF0.0
aI0
aI2
aF0.0
aI0
aI3
aI3
aI0
aI0
aI1
aI0
aI2
aI0
aI2
aa(lp164
V0021300535
p165
aVJAN 10, 2014
p166
aVCHA @ MIN
p167
aVL
p168
aI20
aI0
aI1
aF0.0
aI0
aI0
aF0.0
aI4
aI4
aF1.0
aI0
aI7
aI7
aI0
aI0
aI4
aI1
aI2
aI4
aI-11
aa(lp169
V0021300547
p170
aVJAN 11, 2014
p171
aVCHA @ CHI
p172
aVL
p173
aI9
aI0
aI1
aF0.0
aI0
aI0
aF0.0
aI0
aI0
aF0.0
aI1
aI1
aI2
aI0
aI0
aI1
aI0
aI3
aI0
aI-3
aa(lp174
V0021300562
p175
aVJAN 14, 2014
p176
aVCHA vs. NYK
p177
aVW
p178
aI9
aI1
aI2
aF0.5
aI0
aI0
aF0.0
aI0
aI0
aF0.0
aI0
aI0
aI0
aI0
aI0
aI0
aI0
aI0
aI2
aI-7
aa(lp179
V0021300582
p180
aVJAN 17, 2014
p181
aVCHA @ ORL
p182
aVW
p183
aI3
aI0
aI0
aF0.0
aI0
aI0
aF0.0
aI0
aI0
aF0.0
aI0
aI1
aI1
aI0
aI0
aI0
aI1
aI1
aI0
aI-1
aa(lp184
V0021300593
p185
aVJAN 18, 2014
p186
aVCHA vs. MIA
p187
aVL
p188
aI10
aI3
aI3
aF1.0
aI0
aI0
aF0.0
aI1
aI2
aF0.5
aI1
aI2
aI3
aI0
aI0
aI1
aI0
aI1
aI7
aI3
aa(lp189
V0021300608
p190
aVJAN 20, 2014
p191
aVCHA vs. TOR
p192
aVW
p193
aI10
aI1
aI1
aF1.0
aI0
aI0
aF0.0
aI0
aI0
aF0.0
aI0
aI1
aI1
aI1
aI0
aI1
aI1
aI2
aI2
aI-4
aa(lp194
V0021300621
p195
aVJAN 22, 2014
p196
aVCHA vs. LAC
p197
aVW
p198
aI12
aI0
aI0
aF0.0
aI0
aI0
aF0.0
aI0
aI0
aF0.0
aI1
aI4
aI5
aI0
aI0
aI0
aI0
aI0
aI0
aI7
aa(lp199
V0021300640
p200
aVJAN 24, 2014
p201
aVCHA @ NYK
p202
aVL
p203
aI17
aI3
aI4
aF0.75
aI0
aI0
aF0.0
aI2
aI2
aF1.0
aI3
aI5
aI8
aI1
aI0
aI3
aI0
aI1
aI8
aI7
aa(lp204
V0021300646
p205
aVJAN 25, 2014
p206
aVCHA vs. CHI
p207
aVL
p208
aI10
aI0
aI0
aF0.0
aI0
aI0
aF0.0
aI0
aI0
aF0.0
aI1
aI1
aI2
aI0
aI0
aI0
aI1
aI1
aI0
aI-10
aa(lp209
V0021300682
p210
aVJAN 29, 2014
p211
aVCHA @ DEN
p212
aVW
p213
aI16
aI1
aI4
aF0.25
aI0
aI0
aF0.0
aI2
aI2
aF1.0
aI1
aI8
aI9
aI0
aI0
aI1
aI1
aI2
aI4
aI3
aa(lp214
V0021300695
p215
aVJAN 31, 2014
p216
aVCHA @ LAL
p217
aVW
p218
aI9
aI1
aI1
aF1.0
aI0
aI0
aF0.0
aI0
aI0
aF0.0
aI1
aI2
aI3
aI0
aI0
aI1
aI0
aI0
aI2
aI-1
aa(lp219
V0021300706
p220
aVFEB 01, 2014
p221
aVCHA @ PHX
p222
aVL
p223
aI16
aI1
aI1
aF1.0
aI0
aI0
aF0.0
aI2
aI2
aF1.0
aI1
aI3
aI4
aI0
aI0
aI3
aI0
aI1
aI4
aI5
aa(lp224
V0021300724
p225
aVFEB 04, 2014
p226
aVCHA @ GSW
p227
aVW
p228
aI9
aI1
aI2
aF0.5
aI0
aI0
aF0.0
aI0
aI0
aF0.0
aI2
aI4
aI6
aI0
aI0
aI1
aI1
aI4
aI2
aI0
aa(lp229
V0021300749
p230
aVFEB 08, 2014
p231
aVCHA vs. SAS
p232
aVL
p233
aI10
aI0
aI1
aF0.0
aI0
aI0
aF0.0
aI0
aI0
aF0.0
aI2
aI0
aI2
aI0
aI0
aI0
aI0
aI3
aI0
aI-13
aa(lp234
V0021300770
p235
aVFEB 11, 2014
p236
aVCHA vs. DAL
p237
aVW
p238
aI10
aI5
aI5
aF1.0
aI0
aI0
aF0.0
aI0
aI0
aF0.0
aI2
aI2
aI4
aI0
aI0
aI1
aI0
aI2
aI10
aI3
aa(lp239
V0021300781
p240
aVFEB 12, 2014
p241
aVCHA @ BKN
p242
aVL
p243
aI19
aI3
aI3
aF1.0
aI0
aI0
aF0.0
aI0
aI2
aF0.0
aI2
aI4
aI6
aI0
aI0
aI2
aI1
aI3
aI6
aI3
aa(lp244
V0021300795
p245
aVFEB 18, 2014
p246
aVCHA @ DET
p247
aVW
p248
aI10
aI1
aI1
aF1.0
aI0
aI0
aF0.0
aI1
aI4
aF0.25
aI1
aI2
aI3
aI0
aI0
aI1
aI0
aI1
aI3
aI3
aa(lp249
V0021300801
p250
aVFEB 19, 2014
p251
aVCHA vs. DET
p252
aVW
p253
aI13
aI0
aI1
aF0.0
aI0
aI0
aF0.0
aI1
aI2
aF0.5
aI3
aI5
aI8
aI0
aI0
aI5
aI1
aI2
aI1
aI-5
aa(lp254
V0021300815
p255
aVFEB 21, 2014
p256
aVCHA vs. NOP
p257
aVW
p258
aI14
aI0
aI2
aF0.0
aI0
aI0
aF0.0
aI0
aI0
aF0.0
aI2
aI6
aI8
aI0
aI0
aI1
aI2
aI0
aI0
aI8
aa(lp259
V0021300825
p260
aVFEB 22, 2014
p261
aVCHA vs. MEM
p262
aVW
p263
aI17
aI3
aI3
aF1.0
aI0
aI0
aF0.0
aI0
aI2
aF0.0
aI2
aI5
aI7
aI0
aI0
aI2
aI0
aI2
aI6
aI6
aa(lp264
V0021300871
p265
aVFEB 28, 2014
p266
aVCHA @ SAS
p267
aVL
p268
aI13
aI0
aI3
aF0.0
aI0
aI0
aF0.0
aI0
aI0
aF0.0
aI2
aI3
aI5
aI0
aI1
aI0
aI0
aI1
aI0
aI0
aa(lp269
V0021300887
p270
aVMAR 02, 2014
p271
aVCHA @ OKC
p272
aVL
p273
aI12
aI2
aI2
aF1.0
aI0
aI0
aF0.0
aI1
aI2
aF0.5
aI0
aI3
aI3
aI0
aI0
aI3
aI1
aI1
aI5
aI-2
aa(lp274
V0021300893
p275
aVMAR 03, 2014
p276
aVCHA @ MIA
p277
aVL
p278
aI5
aI0
aI0
aF0.0
aI0
aI0
aF0.0
aI0
aI0
aF0.0
aI0
aI1
aI1
aI0
aI0
aI0
aI0
aI1
aI0
aI-11
aa(lp279
V0021300904
p280
aVMAR 05, 2014
p281
aVCHA vs. IND
p282
aVW
p283
aI6
aI0
aI1
aF0.0
aI0
aI0
aF0.0
aI0
aI0
aF0.0
aI1
aI0
aI1
aI0
aI0
aI0
aI0
aI0
aI0
aI-5
aa(lp284
V0021300918
p285
aVMAR 07, 2014
p286
aVCHA vs. CLE
p287
aVW
p288
aI3
aI0
aI0
aF0.0
aI0
aI0
aF0.0
aI0
aI0
aF0.0
aI1
aI1
aI2
aI0
aI0
aI1
aI0
aI1
aI0
aI-5
aa(lp289
V0021300930
p290
aVMAR 08, 2014
p291
aVCHA @ MEM
p292
aVL
p293
aI18
aI3
aI5
aF0.6
aI0
aI0
aF0.0
aI0
aI0
aF0.0
aI3
aI2
aI5
aI0
aI0
aI3
aI0
aI3
aI6
aI-3
aa(lp294
V0021300943
p295
aVMAR 10, 2014
p296
aVCHA vs. DEN
p297
aVW
p298
aI9
aI0
aI2
aF0.0
aI0
aI0
aF0.0
aI0
aI0
aF0.0
aI1
aI3
aI4
aI0
aI0
aI0
aI1
aI2
aI0
aI5
aa(lp299
V0021300961
p300
aVMAR 12, 2014
p301
aVCHA @ WAS
p302
aVW
p303
aI12
aI0
aI2
aF0.0
aI0
aI0
aF0.0
aI0
aI0
aF0.0
aI1
aI1
aI2
aI0
aI0
aI0
aI0
aI1
aI0
aI-3
aa(lp304
V0021300971
p305
aVMAR 14, 2014
p306
aVCHA vs. MIN
p307
aVW
p308
aI10
aI1
aI1
aF1.0
aI0
aI0
aF0.0
aI0
aI0
aF0.0
aI1
aI2
aI3
aI0
aI0
aI1
aI0
aI1
aI2
aI12
aa(lp309
V0021300987
p310
aVMAR 16, 2014
p311
aVCHA @ MIL
p312
aVW
p313
aI11
aI2
aI3
aF0.667
aI0
aI0
aF0.0
aI0
aI0
aF0.0
aI0
aI2
aI2
aI0
aI0
aI1
aI1
aI0
aI4
aI1
aa(lp314
V0021300996
p315
aVMAR 17, 2014
p316
aVCHA vs. ATL
p317
aVL
p318
aI8
aI2
aI2
aF1.0
aI0
aI0
aF0.0
aI0
aI0
aF0.0
aI1
aI3
aI4
aI0
aI0
aI1
aI2
aI3
aI4
aI1
aa(lp319
V0021301010
p320
aVMAR 19, 2014
p321
aVCHA @ BKN
p322
aVL
p323
aI11
aI1
aI2
aF0.5
aI0
aI0
aF0.0
aI0
aI0
aF0.0
aI2
aI4
aI6
aI0
aI0
aI1
aI0
aI3
aI2
aI3
aa(lp324
V0021301032
p325
aVMAR 22, 2014
p326
aVCHA vs. POR
p327
aVW
p328
aI15
aI0
aI0
aF0.0
aI0
aI0
aF0.0
aI0
aI0
aF0.0
aI2
aI3
aI5
aI0
aI1
aI0
aI0
aI2
aI0
aI16
aa(lp329
V0021301047
p330
aVMAR 24, 2014
p331
aVCHA vs. HOU
p332
aVL
p333
aI6
aI0
aI1
aF0.0
aI0
aI0
aF0.0
aI0
aI0
aF0.0
aI3
aI2
aI5
aI0
aI0
aI0
aI0
aI1
aI0
aI-6
aa(lp334
V0021301061
p335
aVMAR 26, 2014
p336
aVCHA vs. BKN
p337
aVW
p338
aI12
aI0
aI0
aF0.0
aI0
aI0
aF0.0
aI1
aI2
aF0.5
aI1
aI4
aI5
aI1
aI0
aI0
aI0
aI4
aI1
aI2
aa(lp339
V0021301075
p340
aVMAR 28, 2014
p341
aVCHA @ ORL
p342
aVL
p343
aI11
aI0
aI0
aF0.0
aI0
aI0
aF0.0
aI0
aI0
aF0.0
aI0
aI2
aI2
aI0
aI0
aI2
aI1
aI2
aI0
aI-12
aa(lp344
V0021301101
p345
aVMAR 31, 2014
p346
aVCHA vs. WAS
p347
aVW
p348
aI8
aI2
aI2
aF1.0
aI0
aI0
aF0.0
aI0
aI0
aF0.0
aI0
aI0
aI0
aI0
aI1
aI1
aI0
aI0
aI4
aI8
aa(lp349
V0021301117
p350
aVAPR 02, 2014
p351
aVCHA @ PHI
p352
aVW
p353
aI17
aI1
aI3
aF0.333
aI0
aI0
aF0.0
aI0
aI0
aF0.0
aI4
aI3
aI7
aI0
aI0
aI2
aI1
aI3
aI2
aI18
aa(lp354
V0021301130
p355
aVAPR 04, 2014
p356
aVCHA vs. ORL
p357
aVW
p358
aI11
aI1
aI1
aF1.0
aI0
aI0
aF0.0
aI0
aI0
aF0.0
aI1
aI2
aI3
aI0
aI0
aI2
aI0
aI0
aI2
aI4
aa(lp359
V0021301145
p360
aVAPR 05, 2014
p361
aVCHA @ CLE
p362
aVW
p363
aI12
aI0
aI1
aF0.0
aI0
aI0
aF0.0
aI0
aI0
aF0.0
aI4
aI3
aI7
aI0
aI0
aI0
aI0
aI2
aI0
aI8
aa(lp364
V0021301165
p365
aVAPR 09, 2014
p366
aVCHA @ WAS
p367
aVW
p368
aI10
aI1
aI1
aF1.0
aI0
aI0
aF0.0
aI0
aI0
aF0.0
aI0
aI2
aI2
aI0
aI0
aI0
aI1
aI2
aI2
aI1
aa(lp369
V0021301178
p370
aVAPR 11, 2014
p371
aVCHA @ BOS
p372
aVL
p373
aI9
aI0
aI1
aF0.0
aI0
aI0
aF0.0
aI0
aI0
aF0.0
aI0
aI3
aI3
aI0
aI0
aI2
aI0
aI4
aI0
aI1
aa(lp374
V0021301190
p375
aVAPR 12, 2014
p376
aVCHA vs. PHI
p377
aVW
p378
aI12
aI0
aI0
aF0.0
aI0
aI0
aF0.0
aI2
aI4
aF0.5
aI1
aI0
aI1
aI1
aI0
aI1
aI0
aI1
aI2
aI3
aa(lp379
V0021301207
p380
aVAPR 14, 2014
p381
aVCHA @ ATL
p382
aVW
p383
aI13
aI1
aI1
aF1.0
aI0
aI0
aF0.0
aI0
aI1
aF0.0
aI3
aI3
aI6
aI1
aI0
aI2
aI0
aI0
aI2
aI5
aa(lp384
V0021301223
p385
aVAPR 16, 2014
p386
aVCHA vs. CHI
p387
aVW
p388
aI11
aI2
aI3
aF0.667
aI0
aI0
aF0.0
aI0
aI2
aF0.0
aI2
aI5
aI7
aI0
aI1
aI1
aI0
aI1
aI4
aI-4
aasS'name'
p389
VBismack Biyombo
p390
sS'experience'
p391
I2
s.