(dp0
S'stats'
p1
(lp2
(lp3
V0021300503
p4
aVJAN 05, 2014
p5
aVNYK @ DAL
p6
aVW
p7
aI1
aI0
aI0
aF0.0
aI0
aI0
aF0.0
aI0
aI0
aF0.0
aI0
aI0
aI0
aI0
aI0
aI0
aI0
aI0
aI0
aI0
aa(lp8
V0021300546
p9
aVJAN 11, 2014
p10
aVNYK @ PHI
p11
aVW
p12
aI1
aI0
aI0
aF0.0
aI0
aI0
aF0.0
aI0
aI0
aF0.0
aI0
aI0
aI0
aI0
aI0
aI0
aI0
aI0
aI0
aI-2
aa(lp13
V0021300562
p14
aVJAN 14, 2014
p15
aVNYK @ CHA
p16
aVL
p17
aI2
aI3
aI4
aF0.75
aI0
aI0
aF0.0
aI0
aI0
aF0.0
aI1
aI1
aI2
aI0
aI0
aI0
aI0
aI0
aI6
aI5
aa(lp18
V0021300578
p19
aVJAN 16, 2014
p20
aVNYK @ IND
p21
aVL
p22
aI7
aI2
aI3
aF0.667
aI0
aI0
aF0.0
aI0
aI0
aF0.0
aI2
aI2
aI4
aI0
aI0
aI0
aI0
aI1
aI4
aI-6
aa(lp23
V0021300581
p24
aVJAN 17, 2014
p25
aVNYK vs. LAC
p26
aVL
p27
aI14
aI3
aI3
aF1.0
aI0
aI0
aF0.0
aI0
aI0
aF0.0
aI0
aI2
aI2
aI0
aI0
aI0
aI0
aI3
aI6
aI-4
aa(lp28
V0021300610
p29
aVJAN 20, 2014
p30
aVNYK vs. BKN
p31
aVL
p32
aI3
aI1
aI3
aF0.333
aI0
aI0
aF0.0
aI0
aI0
aF0.0
aI2
aI0
aI2
aI0
aI0
aI0
aI1
aI1
aI2
aI-4
aa(lp33
V0021300626
p34
aVJAN 22, 2014
p35
aVNYK vs. PHI
p36
aVL
p37
aI4
aI0
aI0
aF0.0
aI0
aI0
aF0.0
aI0
aI0
aF0.0
aI0
aI0
aI0
aI0
aI0
aI1
aI0
aI0
aI0
aI-4
aa(lp38
V0021300640
p39
aVJAN 24, 2014
p40
aVNYK vs. CHA
p41
aVW
p42
aI22
aI4
aI8
aF0.5
aI0
aI0
aF0.0
aI0
aI0
aF0.0
aI3
aI2
aI5
aI1
aI1
aI2
aI0
aI1
aI8
aI9
aa(lp43
V0021300655
p44
aVJAN 26, 2014
p45
aVNYK vs. LAL
p46
aVW
p47
aI9
aI0
aI2
aF0.0
aI0
aI0
aF0.0
aI1
aI2
aF0.5
aI3
aI2
aI5
aI0
aI0
aI0
aI1
aI2
aI1
aI-2
aa(lp48
V0021300670
p49
aVJAN 28, 2014
p50
aVNYK vs. BOS
p51
aVW
p52
aI23
aI7
aI9
aF0.778
aI0
aI0
aF0.0
aI3
aI5
aF0.6
aI3
aI2
aI5
aI0
aI0
aI2
aI2
aI2
aI17
aI-2
aa(lp53
V0021300687
p54
aVJAN 30, 2014
p55
aVNYK vs. CLE
p56
aVW
p57
aI22
aI4
aI6
aF0.667
aI0
aI0
aF0.0
aI0
aI1
aF0.0
aI2
aI4
aI6
aI1
aI2
aI1
aI2
aI4
aI8
aI14
aa(lp58
V0021300705
p59
aVFEB 01, 2014
p60
aVNYK vs. MIA
p61
aVL
p62
aI8
aI0
aI2
aF0.0
aI0
aI0
aF0.0
aI1
aI2
aF0.5
aI0
aI2
aI2
aI0
aI0
aI0
aI0
aI1
aI1
aI0
aa(lp63
V0021300714
p64
aVFEB 03, 2014
p65
aVNYK @ MIL
p66
aVL
p67
aI5
aI0
aI0
aF0.0
aI0
aI0
aF0.0
aI0
aI0
aF0.0
aI1
aI0
aI1
aI0
aI0
aI0
aI0
aI1
aI0
aI3
aa(lp68
V0021300728
p69
aVFEB 05, 2014
p70
aVNYK vs. POR
p71
aVL
p72
aI11
aI2
aI5
aF0.4
aI0
aI0
aF0.0
aI1
aI2
aF0.5
aI2
aI0
aI2
aI0
aI0
aI2
aI0
aI3
aI5
aI10
aa(lp73
V0021300745
p74
aVFEB 07, 2014
p75
aVNYK vs. DEN
p76
aVW
p77
aI22
aI5
aI9
aF0.556
aI0
aI0
aF0.0
aI2
aI3
aF0.667
aI3
aI8
aI11
aI2
aI1
aI0
aI1
aI5
aI12
aI18
aa(lp78
V0021300756
p79
aVFEB 09, 2014
p80
aVNYK @ OKC
p81
aVL
p82
aI11
aI4
aI8
aF0.5
aI0
aI0
aF0.0
aI2
aI2
aF1.0
aI1
aI4
aI5
aI0
aI0
aI1
aI2
aI1
aI10
aI2
aa(lp83
V0021300783
p84
aVFEB 12, 2014
p85
aVNYK vs. SAC
p86
aVL
p87
aI12
aI0
aI1
aF0.0
aI0
aI0
aF0.0
aI0
aI0
aF0.0
aI1
aI4
aI5
aI0
aI0
aI0
aI0
aI2
aI0
aI-7
aa(lp88
V0021300796
p89
aVFEB 18, 2014
p90
aVNYK @ MEM
p91
aVL
p92
aI10
aI2
aI3
aF0.667
aI0
aI0
aF0.0
aI0
aI0
aF0.0
aI0
aI0
aI0
aI0
aI0
aI1
aI2
aI2
aI4
aI-7
aa(lp93
V0021300806
p94
aVFEB 19, 2014
p95
aVNYK @ NOP
p96
aVW
p97
aI15
aI2
aI4
aF0.5
aI0
aI0
aF0.0
aI0
aI0
aF0.0
aI1
aI1
aI2
aI0
aI0
aI1
aI0
aI3
aI4
aI-2
aa(lp98
V0021300816
p99
aVFEB 21, 2014
p100
aVNYK @ ORL
p101
aVL
p102
aI9
aI1
aI1
aF1.0
aI0
aI0
aF0.0
aI2
aI2
aF1.0
aI1
aI1
aI2
aI0
aI0
aI0
aI2
aI1
aI4
aI-9
aa(lp103
V0021300827
p104
aVFEB 22, 2014
p105
aVNYK @ ATL
p106
aVL
p107
aI6
aI1
aI1
aF1.0
aI0
aI0
aF0.0
aI1
aI4
aF0.25
aI1
aI0
aI1
aI0
aI0
aI0
aI0
aI0
aI3
aI-6
aa(lp108
V0021300843
p109
aVFEB 24, 2014
p110
aVNYK vs. DAL
p111
aVL
p112
aI5
aI0
aI1
aF0.0
aI0
aI0
aF0.0
aI0
aI0
aF0.0
aI0
aI3
aI3
aI0
aI0
aI0
aI1
aI2
aI0
aI-5
aa(lp113
V0021300865
p114
aVFEB 27, 2014
p115
aVNYK @ MIA
p116
aVL
p117
aI7
aI0
aI1
aF0.0
aI0
aI0
aF0.0
aI1
aI2
aF0.5
aI0
aI2
aI2
aI0
aI0
aI0
aI0
aI1
aI1
aI1
aa(lp118
V0021300869
p119
aVFEB 28, 2014
p120
aVNYK vs. GSW
p121
aVL
p122
aI19
aI3
aI6
aF0.5
aI0
aI0
aF0.0
aI0
aI0
aF0.0
aI2
aI3
aI5
aI1
aI0
aI1
aI1
aI5
aI6
aI-15
aa(lp123
V0021300883
p124
aVMAR 02, 2014
p125
aVNYK @ CHI
p126
aVL
p127
aI5
aI2
aI2
aF1.0
aI0
aI0
aF0.0
aI0
aI0
aF0.0
aI0
aI1
aI1
aI0
aI0
aI0
aI0
aI0
aI4
aI-1
aa(lp128
V0021300892
p129
aVMAR 03, 2014
p130
aVNYK @ DET
p131
aVL
p132
aI8
aI0
aI1
aF0.0
aI0
aI0
aF0.0
aI0
aI0
aF0.0
aI2
aI0
aI2
aI0
aI0
aI2
aI0
aI2
aI0
aI2
aa(lp133
V0021300911
p134
aVMAR 05, 2014
p135
aVNYK @ MIN
p136
aVW
p137
aI1
aI2
aI2
aF1.0
aI0
aI0
aF0.0
aI0
aI1
aF0.0
aI0
aI0
aI0
aI0
aI0
aI0
aI0
aI0
aI4
aI2
aa(lp138
V0021300921
p139
aVMAR 07, 2014
p140
aVNYK vs. UTA
p141
aVW
p142
aI11
aI0
aI2
aF0.0
aI0
aI0
aF0.0
aI0
aI0
aF0.0
aI1
aI3
aI4
aI1
aI0
aI1
aI1
aI5
aI0
aI-4
aa(lp143
V0021300928
p144
aVMAR 08, 2014
p145
aVNYK @ CLE
p146
aVW
p147
aI8
aI0
aI1
aF0.0
aI0
aI0
aF0.0
aI0
aI2
aF0.0
aI0
aI4
aI4
aI0
aI0
aI0
aI0
aI0
aI0
aI-1
aa(lp148
V0021300946
p149
aVMAR 10, 2014
p150
aVNYK vs. PHI
p151
aVW
p152
aI18
aI2
aI4
aF0.5
aI0
aI0
aF0.0
aI2
aI4
aF0.5
aI1
aI4
aI5
aI0
aI1
aI2
aI2
aI3
aI6
aI-6
aa(lp153
V0021300962
p154
aVMAR 12, 2014
p155
aVNYK @ BOS
p156
aVW
p157
aI15
aI1
aI3
aF0.333
aI0
aI0
aF0.0
aI2
aI2
aF1.0
aI3
aI4
aI7
aI0
aI1
aI1
aI1
aI4
aI4
aI1
aa(lp158
V0021300981
p159
aVMAR 15, 2014
p160
aVNYK vs. MIL
p161
aVW
p162
aI18
aI1
aI2
aF0.5
aI0
aI0
aF0.0
aI4
aI6
aF0.667
aI1
aI5
aI6
aI0
aI0
aI1
aI1
aI3
aI6
aI1
aa(lp163
V0021301023
p164
aVMAR 21, 2014
p165
aVNYK @ PHI
p166
aVW
p167
aI4
aI0
aI2
aF0.0
aI0
aI0
aF0.0
aI0
aI0
aF0.0
aI0
aI0
aI0
aI0
aI0
aI0
aI0
aI1
aI0
aI-13
aa(lp168
V0021301060
p169
aVMAR 25, 2014
p170
aVNYK @ LAL
p171
aVL
p172
aI7
aI0
aI0
aF0.0
aI0
aI0
aF0.0
aI0
aI2
aF0.0
aI0
aI2
aI2
aI1
aI0
aI0
aI2
aI1
aI0
aI-5
aa(lp173
V0021301085
p174
aVMAR 28, 2014
p175
aVNYK @ PHX
p176
aVL
p177
aI3
aI0
aI0
aF0.0
aI0
aI0
aF0.0
aI0
aI0
aF0.0
aI0
aI1
aI1
aI0
aI0
aI0
aI0
aI0
aI0
aI0
aa(lp178
V0021301110
p179
aVMAR 31, 2014
p180
aVNYK @ UTA
p181
aVW
p182
aI1
aI0
aI1
aF0.0
aI0
aI0
aF0.0
aI0
aI0
aF0.0
aI0
aI0
aI0
aI0
aI0
aI0
aI0
aI0
aI0
aI-2
aa(lp183
V0021301115
p184
aVAPR 02, 2014
p185
aVNYK vs. BKN
p186
aVW
p187
aI6
aI3
aI5
aF0.6
aI0
aI0
aF0.0
aI0
aI0
aF0.0
aI1
aI1
aI2
aI0
aI0
aI0
aI0
aI1
aI6
aI2
aa(lp188
V0021301149
p189
aVAPR 06, 2014
p190
aVNYK @ MIA
p191
aVL
p192
aI0
aI0
aI0
aF0.0
aI0
aI0
aF0.0
aI0
aI0
aF0.0
aI0
aI0
aI0
aI0
aI0
aI0
aI0
aI0
aI0
aI0
aa(lp193
V0021301197
p194
aVAPR 13, 2014
p195
aVNYK vs. CHI
p196
aVW
p197
aI1
aI0
aI0
aF0.0
aI0
aI0
aF0.0
aI0
aI0
aF0.0
aI0
aI0
aI0
aI0
aI0
aI0
aI0
aI0
aI0
aI2
aa(lp198
V0021301214
p199
aVAPR 15, 2014
p200
aVNYK @ BKN
p201
aVW
p202
aI20
aI3
aI5
aF0.6
aI0
aI0
aF0.0
aI2
aI4
aF0.5
aI0
aI2
aI2
aI1
aI0
aI1
aI3
aI5
aI8
aI-2
aa(lp203
V0021301226
p204
aVAPR 16, 2014
p205
aVNYK vs. TOR
p206
aVW
p207
aI24
aI2
aI6
aF0.333
aI0
aI0
aF0.0
aI2
aI2
aF1.0
aI0
aI1
aI1
aI0
aI0
aI0
aI1
aI4
aI6
aI-14
aasS'name'
p208
VJeremy Tyler
p209
sS'weight'
p210
V250
p211
sS'age'
p212
I22
sS'experience'
p213
I2
sS'height'
p214
V6-10
p215
sS'position'
p216
VForward
p217
s.