(dp0
S'age'
p1
I23
sS'stats'
p2
(lp3
(lp4
V0021301224
p5
aVAPR 16, 2014
p6
aVCLE vs. BKN
p7
aVW
p8
aI26
aI9
aI11
aF0.818
aI0
aI0
aF0.0
aI4
aI5
aF0.8
aI4
aI7
aI11
aI2
aI1
aI2
aI0
aI2
aI22
aI16
aa(lp9
V0021301193
p10
aVAPR 12, 2014
p11
aVCLE vs. BOS
p12
aVL
p13
aI26
aI4
aI8
aF0.5
aI0
aI0
aF0.0
aI4
aI7
aF0.571
aI2
aI5
aI7
aI2
aI0
aI0
aI0
aI3
aI12
aI4
aa(lp14
V0021301185
p15
aVAPR 11, 2014
p16
aVCLE @ MIL
p17
aVL
p18
aI19
aI5
aI8
aF0.625
aI0
aI0
aF0.0
aI1
aI2
aF0.5
aI2
aI4
aI6
aI0
aI0
aI0
aI1
aI4
aI11
aI11
aa(lp19
V0021301162
p20
aVAPR 09, 2014
p21
aVCLE vs. DET
p22
aVW
p23
aI24
aI9
aI11
aF0.818
aI0
aI0
aF0.0
aI0
aI0
aF0.0
aI3
aI3
aI6
aI0
aI1
aI2
aI0
aI2
aI18
aI14
aa(lp24
V0021301145
p25
aVAPR 05, 2014
p26
aVCLE vs. CHA
p27
aVL
p28
aI17
aI2
aI6
aF0.333
aI0
aI0
aF0.0
aI1
aI1
aF1.0
aI2
aI6
aI8
aI1
aI0
aI0
aI1
aI0
aI5
aI4
aa(lp29
V0021301116
p30
aVAPR 02, 2014
p31
aVCLE @ ORL
p32
aVW
p33
aI19
aI2
aI3
aF0.667
aI0
aI0
aF0.0
aI0
aI0
aF0.0
aI1
aI2
aI3
aI0
aI0
aI2
aI1
aI1
aI4
aI9
aa(lp34
V0021301094
p35
aVMAR 30, 2014
p36
aVCLE vs. IND
p37
aVW
p38
aI16
aI1
aI3
aF0.333
aI0
aI0
aF0.0
aI1
aI2
aF0.5
aI1
aI1
aI2
aI0
aI0
aI0
aI1
aI4
aI3
aI12
aa(lp39
V0021301078
p40
aVMAR 28, 2014
p41
aVCLE @ BKN
p42
aVL
p43
aI5
aI0
aI1
aF0.0
aI0
aI0
aF0.0
aI0
aI0
aF0.0
aI0
aI0
aI0
aI0
aI0
aI0
aI1
aI0
aI0
aI-8
aa(lp44
V0021301064
p45
aVMAR 26, 2014
p46
aVCLE @ DET
p47
aVW
p48
aI10
aI2
aI5
aF0.4
aI0
aI0
aF0.0
aI0
aI0
aF0.0
aI0
aI0
aI0
aI0
aI0
aI0
aI0
aI1
aI4
aI-4
aa(lp49
V0021301057
p50
aVMAR 25, 2014
p51
aVCLE vs. TOR
p52
aVW
p53
aI9
aI1
aI1
aF1.0
aI0
aI0
aF0.0
aI3
aI4
aF0.75
aI1
aI0
aI1
aI0
aI0
aI0
aI0
aI1
aI5
aI-1
aa(lp54
V0021301045
p55
aVMAR 23, 2014
p56
aVCLE @ NYK
p57
aVW
p58
aI12
aI0
aI1
aF0.0
aI0
aI0
aF0.0
aI0
aI0
aF0.0
aI0
aI0
aI0
aI0
aI0
aI0
aI2
aI2
aI0
aI-5
aa(lp59
V0021301033
p60
aVMAR 22, 2014
p61
aVCLE vs. HOU
p62
aVL
p63
aI30
aI10
aI16
aF0.625
aI0
aI0
aF0.0
aI3
aI5
aF0.6
aI3
aI4
aI7
aI3
aI0
aI1
aI1
aI4
aI23
aI16
aa(lp64
V0021301018
p65
aVMAR 20, 2014
p66
aVCLE vs. OKC
p67
aVL
p68
aI14
aI2
aI4
aF0.5
aI0
aI0
aF0.0
aI2
aI2
aF1.0
aI1
aI3
aI4
aI2
aI0
aI0
aI0
aI0
aI6
aI-8
aa(lp69
V0021301003
p70
aVMAR 18, 2014
p71
aVCLE vs. MIA
p72
aVL
p73
aI14
aI1
aI1
aF1.0
aI0
aI0
aF0.0
aI1
aI2
aF0.5
aI1
aI2
aI3
aI0
aI0
aI0
aI1
aI1
aI3
aI3
aa(lp74
V0021300995
p75
aVMAR 16, 2014
p76
aVCLE @ LAC
p77
aVL
p78
aI21
aI2
aI8
aF0.25
aI0
aI0
aF0.0
aI0
aI0
aF0.0
aI2
aI7
aI9
aI1
aI0
aI1
aI3
aI2
aI4
aI7
aa(lp79
V0021300980
p80
aVMAR 14, 2014
p81
aVCLE @ GSW
p82
aVW
p83
aI12
aI3
aI5
aF0.6
aI0
aI0
aF0.0
aI1
aI1
aF1.0
aI0
aI5
aI5
aI0
aI1
aI0
aI0
aI1
aI7
aI11
aa(lp84
V0021300966
p85
aVMAR 12, 2014
p86
aVCLE @ PHX
p87
aVW
p88
aI15
aI1
aI3
aF0.333
aI0
aI0
aF0.0
aI1
aI2
aF0.5
aI1
aI3
aI4
aI1
aI0
aI0
aI0
aI1
aI3
aI1
aa(lp89
V0021300928
p90
aVMAR 08, 2014
p91
aVCLE vs. NYK
p92
aVL
p93
aI4
aI0
aI0
aF0.0
aI0
aI0
aF0.0
aI0
aI0
aF0.0
aI0
aI0
aI0
aI0
aI0
aI0
aI0
aI0
aI0
aI-4
aa(lp94
V0021300918
p95
aVMAR 07, 2014
p96
aVCLE @ CHA
p97
aVL
p98
aI17
aI2
aI5
aF0.4
aI0
aI0
aF0.0
aI1
aI2
aF0.5
aI4
aI1
aI5
aI0
aI1
aI0
aI2
aI3
aI5
aI1
aa(lp99
V0021300898
p100
aVMAR 04, 2014
p101
aVCLE vs. SAS
p102
aVL
p103
aI15
aI0
aI2
aF0.0
aI0
aI0
aF0.0
aI1
aI2
aF0.5
aI0
aI4
aI4
aI0
aI0
aI1
aI0
aI1
aI1
aI-19
aa(lp104
V0021300879
p105
aVMAR 01, 2014
p106
aVCLE @ MEM
p107
aVL
p108
aI25
aI3
aI6
aF0.5
aI0
aI0
aF0.0
aI3
aI4
aF0.75
aI2
aI3
aI5
aI1
aI1
aI2
aI2
aI4
aI9
aI-4
aa(lp109
V0021300867
p110
aVFEB 28, 2014
p111
aVCLE vs. UTA
p112
aVW
p113
aI23
aI5
aI12
aF0.417
aI0
aI0
aF0.0
aI0
aI0
aF0.0
aI3
aI6
aI9
aI2
aI0
aI0
aI0
aI2
aI10
aI9
aa(lp114
V0021300858
p115
aVFEB 26, 2014
p116
aVCLE @ OKC
p117
aVW
p118
aI16
aI2
aI3
aF0.667
aI0
aI0
aF0.0
aI4
aI4
aF1.0
aI1
aI2
aI3
aI0
aI2
aI0
aI4
aI2
aI8
aI11
aa(lp119
V0021300846
p120
aVFEB 25, 2014
p121
aVCLE vs. TOR
p122
aVL
p123
aI24
aI2
aI4
aF0.5
aI0
aI0
aF0.0
aI4
aI4
aF1.0
aI3
aI3
aI6
aI1
aI0
aI0
aI3
aI5
aI8
aI-18
aa(lp124
V0021300835
p125
aVFEB 23, 2014
p126
aVCLE vs. WAS
p127
aVL
p128
aI14
aI3
aI7
aF0.429
aI0
aI0
aF0.0
aI0
aI0
aF0.0
aI2
aI2
aI4
aI0
aI0
aI1
aI1
aI2
aI6
aI-12
aa(lp129
V0021300818
p130
aVFEB 21, 2014
p131
aVCLE @ TOR
p132
aVL
p133
aI20
aI4
aI6
aF0.667
aI0
aI0
aF0.0
aI0
aI0
aF0.0
aI3
aI1
aI4
aI0
aI0
aI3
aI0
aI3
aI8
aI-9
aa(lp134
V0021300802
p135
aVFEB 19, 2014
p136
aVCLE vs. ORL
p137
aVW
p138
aI31
aI4
aI5
aF0.8
aI0
aI0
aF0.0
aI8
aI9
aF0.889
aI1
aI5
aI6
aI2
aI0
aI3
aI2
aI4
aI16
aI15
aa(lp139
V0021300793
p140
aVFEB 18, 2014
p141
aVCLE @ PHI
p142
aVW
p143
aI25
aI6
aI14
aF0.429
aI0
aI1
aF0.0
aI6
aI7
aF0.857
aI6
aI9
aI15
aI1
aI0
aI1
aI1
aI2
aI18
aI23
aa(lp144
V0021300782
p145
aVFEB 12, 2014
p146
aVCLE @ DET
p147
aVW
p148
aI22
aI4
aI6
aF0.667
aI0
aI0
aF0.0
aI0
aI0
aF0.0
aI0
aI3
aI3
aI1
aI0
aI1
aI0
aI6
aI8
aI5
aa(lp149
V0021300771
p150
aVFEB 11, 2014
p151
aVCLE vs. SAC
p152
aVW
p153
aI18
aI3
aI5
aF0.6
aI0
aI0
aF0.0
aI0
aI0
aF0.0
aI1
aI3
aI4
aI1
aI0
aI0
aI2
aI3
aI6
aI5
aa(lp154
V0021300760
p155
aVFEB 09, 2014
p156
aVCLE vs. MEM
p157
aVW
p158
aI24
aI2
aI6
aF0.333
aI0
aI0
aF0.0
aI1
aI2
aF0.5
aI3
aI5
aI8
aI0
aI0
aI0
aI0
aI5
aI5
aI17
aa(lp159
V0021300742
p160
aVFEB 07, 2014
p161
aVCLE @ WAS
p162
aVW
p163
aI17
aI1
aI2
aF0.5
aI0
aI0
aF0.0
aI6
aI6
aF1.0
aI3
aI2
aI5
aI0
aI1
aI1
aI0
aI2
aI8
aI2
aa(lp164
V0021300725
p165
aVFEB 05, 2014
p166
aVCLE vs. LAL
p167
aVL
p168
aI5
aI0
aI0
aF0.0
aI0
aI0
aF0.0
aI0
aI0
aF0.0
aI0
aI0
aI0
aI0
aI0
aI0
aI0
aI1
aI0
aI-14
aa(lp169
V0021300717
p170
aVFEB 03, 2014
p171
aVCLE @ DAL
p172
aVL
p173
aI3
aI1
aI1
aF1.0
aI0
aI0
aF0.0
aI0
aI0
aF0.0
aI1
aI1
aI2
aI0
aI0
aI0
aI1
aI1
aI2
aI1
aa(lp174
V0021300701
p175
aVFEB 01, 2014
p176
aVCLE @ HOU
p177
aVL
p178
aI27
aI2
aI3
aF0.667
aI0
aI0
aF0.0
aI0
aI0
aF0.0
aI0
aI3
aI3
aI2
aI2
aI1
aI1
aI5
aI4
aI1
aa(lp179
V0021300687
p180
aVJAN 30, 2014
p181
aVCLE @ NYK
p182
aVL
p183
aI14
aI1
aI3
aF0.333
aI0
aI0
aF0.0
aI0
aI0
aF0.0
aI1
aI0
aI1
aI0
aI1
aI0
aI1
aI3
aI2
aI-9
aa(lp184
V0021300668
p185
aVJAN 28, 2014
p186
aVCLE vs. NOP
p187
aVL
p188
aI21
aI4
aI8
aF0.5
aI0
aI0
aF0.0
aI5
aI5
aF1.0
aI4
aI6
aI10
aI2
aI1
aI0
aI2
aI2
aI13
aI-11
aa(lp189
V0021300657
p190
aVJAN 26, 2014
p191
aVCLE vs. PHX
p192
aVL
p193
aI13
aI1
aI1
aF1.0
aI0
aI0
aF0.0
aI0
aI0
aF0.0
aI2
aI1
aI3
aI0
aI0
aI0
aI1
aI3
aI2
aI-5
aa(lp194
V0021300638
p195
aVJAN 24, 2014
p196
aVCLE vs. MIL
p197
aVW
p198
aI22
aI3
aI6
aF0.5
aI0
aI0
aF0.0
aI2
aI2
aF1.0
aI4
aI5
aI9
aI0
aI2
aI3
aI1
aI2
aI8
aI11
aa(lp199
V0021300622
p200
aVJAN 22, 2014
p201
aVCLE vs. CHI
p202
aVL
p203
aI16
aI2
aI3
aF0.667
aI0
aI0
aF0.0
aI0
aI1
aF0.0
aI2
aI2
aI4
aI0
aI0
aI1
aI3
aI0
aI4
aI3
aa(lp204
V0021300606
p205
aVJAN 20, 2014
p206
aVCLE vs. DAL
p207
aVL
p208
aI9
aI0
aI0
aF0.0
aI0
aI0
aF0.0
aI0
aI0
aF0.0
aI1
aI3
aI4
aI0
aI0
aI0
aI0
aI1
aI0
aI-11
aa(lp209
V0021300590
p210
aVJAN 17, 2014
p211
aVCLE @ DEN
p212
aVW
p213
aI17
aI1
aI4
aF0.25
aI0
aI0
aF0.0
aI2
aI4
aF0.5
aI5
aI2
aI7
aI1
aI0
aI0
aI2
aI1
aI4
aI-5
aa(lp214
V0021300575
p215
aVJAN 15, 2014
p216
aVCLE @ POR
p217
aVL
p218
aI9
aI3
aI3
aF1.0
aI0
aI0
aF0.0
aI0
aI2
aF0.0
aI1
aI0
aI1
aI0
aI1
aI0
aI2
aI5
aI6
aI1
aa(lp219
V0021300565
p220
aVJAN 14, 2014
p221
aVCLE @ LAL
p222
aVW
p223
aI17
aI2
aI5
aF0.4
aI0
aI0
aF0.0
aI4
aI6
aF0.667
aI2
aI2
aI4
aI1
aI0
aI0
aI0
aI2
aI8
aI-3
aa(lp224
V0021300552
p225
aVJAN 12, 2014
p226
aVCLE @ SAC
p227
aVL
p228
aI13
aI3
aI4
aF0.75
aI0
aI0
aF0.0
aI0
aI4
aF0.0
aI0
aI1
aI1
aI0
aI0
aI0
aI1
aI3
aI6
aI-12
aa(lp229
V0021300539
p230
aVJAN 10, 2014
p231
aVCLE @ UTA
p232
aVW
p233
aI22
aI4
aI8
aF0.5
aI0
aI0
aF0.0
aI2
aI4
aF0.5
aI1
aI5
aI6
aI0
aI0
aI0
aI1
aI3
aI10
aI5
aa(lp234
V0021300509
p235
aVJAN 07, 2014
p236
aVCLE vs. PHI
p237
aVW
p238
aI18
aI4
aI5
aF0.8
aI0
aI0
aF0.0
aI1
aI1
aF1.0
aI1
aI3
aI4
aI1
aI0
aI3
aI1
aI3
aI9
aI6
aa(lp239
V0021300499
p240
aVJAN 05, 2014
p241
aVCLE vs. IND
p242
aVL
p243
aI21
aI1
aI5
aF0.2
aI0
aI0
aF0.0
aI2
aI2
aF1.0
aI3
aI5
aI8
aI1
aI0
aI1
aI1
aI2
aI4
aI-18
aa(lp244
V0021300491
p245
aVJAN 04, 2014
p246
aVCLE @ BKN
p247
aVL
p248
aI6
aI1
aI2
aF0.5
aI0
aI0
aF0.0
aI0
aI0
aF0.0
aI2
aI0
aI2
aI1
aI0
aI0
aI0
aI5
aI2
aI4
aa(lp249
V0021300473
p250
aVJAN 02, 2014
p251
aVCLE vs. ORL
p252
aVW
p253
aI14
aI0
aI0
aF0.0
aI0
aI0
aF0.0
aI0
aI0
aF0.0
aI1
aI4
aI5
aI0
aI0
aI1
aI1
aI1
aI0
aI-6
aa(lp254
V0021300461
p255
aVDEC 31, 2013
p256
aVCLE @ IND
p257
aVL
p258
aI16
aI3
aI5
aF0.6
aI0
aI0
aF0.0
aI1
aI2
aF0.5
aI0
aI5
aI5
aI0
aI0
aI0
aI3
aI3
aI7
aI-8
aa(lp259
V0021300448
p260
aVDEC 29, 2013
p261
aVCLE vs. GSW
p262
aVL
p263
aI18
aI2
aI5
aF0.4
aI0
aI0
aF0.0
aI2
aI2
aF1.0
aI0
aI2
aI2
aI0
aI0
aI2
aI0
aI2
aI6
aI-2
aa(lp264
V0021300436
p265
aVDEC 28, 2013
p266
aVCLE @ BOS
p267
aVL
p268
aI22
aI2
aI5
aF0.4
aI0
aI0
aF0.0
aI1
aI2
aF0.5
aI4
aI6
aI10
aI3
aI0
aI1
aI3
aI1
aI5
aI-6
aa(lp269
V0021300423
p270
aVDEC 26, 2013
p271
aVCLE vs. ATL
p272
aVL
p273
aI11
aI0
aI1
aF0.0
aI0
aI0
aF0.0
aI0
aI0
aF0.0
aI1
aI1
aI2
aI0
aI1
aI0
aI0
aI0
aI0
aI6
aa(lp274
V0021300408
p275
aVDEC 23, 2013
p276
aVCLE vs. DET
p277
aVL
p278
aI14
aI6
aI7
aF0.857
aI0
aI0
aF0.0
aI1
aI1
aF1.0
aI2
aI2
aI4
aI1
aI0
aI0
aI0
aI0
aI13
aI3
aa(lp279
V0021300397
p280
aVDEC 21, 2013
p281
aVCLE @ CHI
p282
aVL
p283
aI13
aI3
aI5
aF0.6
aI0
aI0
aF0.0
aI0
aI0
aF0.0
aI2
aI1
aI3
aI0
aI0
aI1
aI0
aI0
aI6
aI0
aa(lp284
V0021300310
p285
aVDEC 10, 2013
p286
aVCLE vs. NYK
p287
aVW
p288
aI2
aI0
aI0
aF0.0
aI0
aI0
aF0.0
aI1
aI2
aF0.5
aI0
aI0
aI0
aI0
aI0
aI0
aI0
aI0
aI1
aI-1
aa(lp289
V0021300282
p290
aVDEC 06, 2013
p291
aVCLE @ ATL
p292
aVL
p293
aI7
aI2
aI3
aF0.667
aI0
aI0
aF0.0
aI0
aI0
aF0.0
aI2
aI1
aI3
aI0
aI0
aI0
aI1
aI1
aI4
aI-4
aa(lp294
V0021300232
p295
aVNOV 29, 2013
p296
aVCLE @ BOS
p297
aVL
p298
aI6
aI0
aI1
aF0.0
aI0
aI0
aF0.0
aI2
aI2
aF1.0
aI1
aI1
aI2
aI0
aI0
aI0
aI0
aI0
aI2
aI6
aa(lp299
V0021300194
p300
aVNOV 23, 2013
p301
aVCLE @ SAS
p302
aVL
p303
aI15
aI2
aI2
aF1.0
aI0
aI0
aF0.0
aI0
aI0
aF0.0
aI0
aI2
aI2
aI1
aI1
aI0
aI0
aI0
aI4
aI-8
aa(lp304
V0021300129
p305
aVNOV 15, 2013
p306
aVCLE vs. CHA
p307
aVL
p308
aI14
aI2
aI6
aF0.333
aI0
aI0
aF0.0
aI1
aI2
aF0.5
aI1
aI3
aI4
aI1
aI0
aI2
aI1
aI2
aI5
aI-13
aa(lp309
V0021300115
p310
aVNOV 13, 2013
p311
aVCLE @ MIN
p312
aVL
p313
aI15
aI3
aI5
aF0.6
aI0
aI0
aF0.0
aI2
aI2
aF1.0
aI1
aI5
aI6
aI0
aI0
aI0
aI0
aI0
aI8
aI-8
aa(lp314
V0021300102
p315
aVNOV 11, 2013
p316
aVCLE @ CHI
p317
aVL
p318
aI4
aI1
aI1
aF1.0
aI0
aI0
aF0.0
aI0
aI0
aF0.0
aI1
aI2
aI3
aI0
aI0
aI0
aI0
aI1
aI2
aI7
aa(lp319
V0021300088
p320
aVNOV 09, 2013
p321
aVCLE vs. PHI
p322
aVW
p323
aI2
aI0
aI0
aF0.0
aI0
aI0
aF0.0
aI0
aI0
aF0.0
aI0
aI0
aI0
aI0
aI0
aI0
aI0
aI1
aI0
aI-2
aa(lp324
V0021300076
p325
aVNOV 08, 2013
p326
aVCLE @ PHI
p327
aVL
p328
aI5
aI0
aI0
aF0.0
aI0
aI0
aF0.0
aI0
aI0
aF0.0
aI0
aI0
aI0
aI0
aI0
aI0
aI2
aI1
aI0
aI0
aa(lp329
V0021300066
p330
aVNOV 06, 2013
p331
aVCLE @ MIL
p332
aVL
p333
aI2
aI0
aI0
aF0.0
aI0
aI0
aF0.0
aI0
aI0
aF0.0
aI0
aI0
aI0
aI0
aI0
aI0
aI0
aI1
aI0
aI-2
aa(lp334
V0021300047
p335
aVNOV 04, 2013
p336
aVCLE vs. MIN
p337
aVW
p338
aI1
aI0
aI0
aF0.0
aI0
aI0
aF0.0
aI0
aI0
aF0.0
aI0
aI0
aI0
aI0
aI0
aI0
aI0
aI1
aI0
aI-2
aa(lp339
V0021300033
p340
aVNOV 02, 2013
p341
aVCLE @ IND
p342
aVL
p343
aI18
aI2
aI3
aF0.667
aI0
aI0
aF0.0
aI2
aI2
aF1.0
aI0
aI3
aI3
aI0
aI0
aI1
aI1
aI3
aI6
aI-8
aa(lp344
V0021300020
p345
aVNOV 01, 2013
p346
aVCLE @ CHA
p347
aVL
p348
aI9
aI0
aI2
aF0.0
aI0
aI0
aF0.0
aI0
aI0
aF0.0
aI1
aI1
aI2
aI0
aI1
aI0
aI0
aI3
aI0
aI-3
aa(lp349
V0021300004
p350
aVOCT 30, 2013
p351
aVCLE vs. BKN
p352
aVW
p353
aI4
aI0
aI0
aF0.0
aI0
aI0
aF0.0
aI0
aI0
aF0.0
aI0
aI0
aI0
aI0
aI0
aI0
aI1
aI1
aI0
aI-2
aasS'name'
p354
VTyler Zeller
p355
sS'experience'
p356
I1
s.