(dp0
S'stats'
p1
(lp2
(lp3
V0021300067
p4
aVNOV 06, 2013
p5
aVGSW @ MIN
p6
aVW
p7
aI14
aI6
aI8
aF0.75
aI0
aI0
aF0.0
aI2
aI2
aF1.0
aI0
aI2
aI2
aI1
aI2
aI1
aI2
aI1
aI14
aI10
aa(lp8
V0021300082
p9
aVNOV 08, 2013
p10
aVGSW @ SAS
p11
aVL
p12
aI21
aI2
aI6
aF0.333
aI1
aI3
aF0.333
aI0
aI0
aF0.0
aI0
aI2
aI2
aI1
aI0
aI0
aI0
aI2
aI5
aI-10
aa(lp13
V0021300091
p14
aVNOV 09, 2013
p15
aVGSW @ MEM
p16
aVL
p17
aI19
aI2
aI7
aF0.286
aI0
aI1
aF0.0
aI0
aI0
aF0.0
aI0
aI2
aI2
aI1
aI0
aI0
aI1
aI4
aI4
aI-13
aa(lp18
V0021300109
p19
aVNOV 12, 2013
p20
aVGSW vs. DET
p21
aVW
p22
aI26
aI4
aI8
aF0.5
aI0
aI1
aF0.0
aI0
aI2
aF0.0
aI0
aI3
aI3
aI1
aI0
aI0
aI3
aI3
aI8
aI1
aa(lp23
V0021300124
p24
aVNOV 14, 2013
p25
aVGSW vs. OKC
p26
aVW
p27
aI23
aI6
aI14
aF0.429
aI1
aI3
aF0.333
aI3
aI4
aF0.75
aI0
aI3
aI3
aI1
aI1
aI0
aI2
aI2
aI16
aI3
aa(lp28
V0021300145
p29
aVNOV 16, 2013
p30
aVGSW vs. UTA
p31
aVW
p32
aI29
aI5
aI10
aF0.5
aI1
aI1
aF1.0
aI0
aI0
aF0.0
aI0
aI3
aI3
aI2
aI2
aI0
aI2
aI1
aI11
aI9
aa(lp33
V0021300154
p34
aVNOV 18, 2013
p35
aVGSW @ UTA
p36
aVW
p37
aI29
aI7
aI10
aF0.7
aI2
aI2
aF1.0
aI1
aI2
aF0.5
aI1
aI4
aI5
aI1
aI0
aI0
aI0
aI1
aI17
aI20
aa(lp38
V0021300173
p39
aVNOV 20, 2013
p40
aVGSW vs. MEM
p41
aVL
p42
aI49
aI6
aI14
aF0.429
aI2
aI3
aF0.667
aI2
aI2
aF1.0
aI1
aI7
aI8
aI5
aI0
aI0
aI2
aI4
aI16
aI-11
aa(lp43
V0021300186
p44
aVNOV 22, 2013
p45
aVGSW @ LAL
p46
aVL
p47
aI44
aI9
aI13
aF0.692
aI2
aI3
aF0.667
aI0
aI0
aF0.0
aI1
aI3
aI4
aI3
aI1
aI1
aI1
aI2
aI20
aI-10
aa(lp48
V0021300196
p49
aVNOV 23, 2013
p50
aVGSW vs. POR
p51
aVL
p52
aI45
aI4
aI12
aF0.333
aI2
aI2
aF1.0
aI3
aI5
aF0.6
aI1
aI3
aI4
aI5
aI1
aI0
aI2
aI1
aI13
aI-12
aa(lp53
V0021300214
p54
aVNOV 26, 2013
p55
aVGSW @ NOP
p56
aVW
p57
aI39
aI6
aI12
aF0.5
aI1
aI2
aF0.5
aI1
aI2
aF0.5
aI1
aI3
aI4
aI0
aI1
aI0
aI1
aI0
aI14
aI-7
aa(lp58
V0021300225
p59
aVNOV 27, 2013
p60
aVGSW @ DAL
p61
aVL
p62
aI41
aI3
aI11
aF0.273
aI0
aI2
aF0.0
aI3
aI4
aF0.75
aI1
aI3
aI4
aI0
aI1
aI0
aI1
aI2
aI9
aI-8
aa(lp63
V0021300235
p64
aVNOV 29, 2013
p65
aVGSW @ OKC
p66
aVL
p67
aI42
aI10
aI15
aF0.667
aI1
aI2
aF0.5
aI5
aI6
aF0.833
aI0
aI2
aI2
aI4
aI1
aI0
aI1
aI3
aI26
aI-6
aa(lp68
V0021300251
p69
aVDEC 01, 2013
p70
aVGSW @ SAC
p71
aVW
p72
aI38
aI3
aI8
aF0.375
aI0
aI2
aF0.0
aI5
aI6
aF0.833
aI0
aI0
aI0
aI1
aI3
aI0
aI2
aI5
aI11
aI-7
aa(lp73
V0021300268
p74
aVDEC 03, 2013
p75
aVGSW vs. TOR
p76
aVW
p77
aI31
aI7
aI12
aF0.583
aI2
aI5
aF0.4
aI3
aI6
aF0.5
aI0
aI3
aI3
aI2
aI2
aI0
aI1
aI2
aI19
aI-8
aa(lp78
V0021300285
p79
aVDEC 06, 2013
p80
aVGSW @ HOU
p81
aVL
p82
aI36
aI5
aI16
aF0.313
aI0
aI2
aF0.0
aI4
aI4
aF1.0
aI1
aI6
aI7
aI2
aI4
aI1
aI3
aI3
aI14
aI-24
aa(lp83
V0021300293
p84
aVDEC 07, 2013
p85
aVGSW @ MEM
p86
aVW
p87
aI36
aI4
aI10
aF0.4
aI1
aI2
aF0.5
aI0
aI0
aF0.0
aI0
aI4
aI4
aI0
aI0
aI0
aI3
aI1
aI9
aI24
aa(lp88
V0021300304
p89
aVDEC 09, 2013
p90
aVGSW @ CHA
p91
aVL
p92
aI40
aI6
aI13
aF0.462
aI0
aI3
aF0.0
aI2
aI4
aF0.5
aI0
aI9
aI9
aI3
aI2
aI0
aI1
aI2
aI14
aI-6
aa(lp93
V0021300326
p94
aVDEC 11, 2013
p95
aVGSW vs. DAL
p96
aVW
p97
aI44
aI6
aI16
aF0.375
aI1
aI4
aF0.25
aI4
aI4
aF1.0
aI2
aI2
aI4
aI1
aI1
aI0
aI1
aI5
aI17
aI4
aa(lp98
V0021300341
p99
aVDEC 13, 2013
p100
aVGSW vs. HOU
p101
aVL
p102
aI38
aI9
aI16
aF0.563
aI2
aI5
aF0.4
aI0
aI0
aF0.0
aI4
aI8
aI12
aI4
aI1
aI0
aI3
aI5
aI20
aI8
aa(lp103
V0021300355
p104
aVDEC 15, 2013
p105
aVGSW @ PHX
p106
aVL
p107
aI36
aI2
aI7
aF0.286
aI2
aI4
aF0.5
aI2
aI4
aF0.5
aI1
aI3
aI4
aI2
aI1
aI1
aI1
aI3
aI8
aI-6
aa(lp108
V0021300368
p109
aVDEC 17, 2013
p110
aVGSW vs. NOP
p111
aVW
p112
aI24
aI3
aI8
aF0.375
aI1
aI2
aF0.5
aI1
aI2
aF0.5
aI1
aI3
aI4
aI1
aI0
aI0
aI0
aI2
aI8
aI-7
aa(lp113
V0021300382
p114
aVDEC 19, 2013
p115
aVGSW vs. SAS
p116
aVL
p117
aI19
aI0
aI3
aF0.0
aI0
aI2
aF0.0
aI0
aI0
aF0.0
aI1
aI3
aI4
aI1
aI1
aI0
aI3
aI2
aI0
aI0
aa(lp118
V0021300402
p119
aVDEC 21, 2013
p120
aVGSW vs. LAL
p121
aVW
p122
aI26
aI3
aI7
aF0.429
aI1
aI2
aF0.5
aI1
aI1
aF1.0
aI0
aI2
aI2
aI0
aI1
aI0
aI0
aI1
aI8
aI14
aa(lp123
V0021300415
p124
aVDEC 23, 2013
p125
aVGSW @ DEN
p126
aVW
p127
aI22
aI1
aI6
aF0.167
aI0
aI1
aF0.0
aI0
aI2
aF0.0
aI0
aI0
aI0
aI1
aI0
aI0
aI2
aI0
aI2
aI-1
aa(lp128
V0021300422
p129
aVDEC 25, 2013
p130
aVGSW vs. LAC
p131
aVW
p132
aI25
aI3
aI13
aF0.231
aI1
aI1
aF1.0
aI7
aI9
aF0.778
aI0
aI5
aI5
aI1
aI0
aI1
aI1
aI0
aI14
aI-1
aa(lp133
V0021300435
p134
aVDEC 27, 2013
p135
aVGSW vs. PHX
p136
aVW
p137
aI31
aI4
aI10
aF0.4
aI1
aI1
aF1.0
aI2
aI2
aF1.0
aI0
aI0
aI0
aI3
aI3
aI0
aI0
aI1
aI11
aI11
aa(lp138
V0021300448
p139
aVDEC 29, 2013
p140
aVGSW @ CLE
p141
aVW
p142
aI27
aI4
aI12
aF0.333
aI1
aI4
aF0.25
aI1
aI3
aF0.333
aI1
aI3
aI4
aI0
aI0
aI0
aI0
aI2
aI10
aI11
aa(lp143
V0021300462
p144
aVDEC 31, 2013
p145
aVGSW @ ORL
p146
aVW
p147
aI27
aI1
aI7
aF0.143
aI0
aI2
aF0.0
aI0
aI0
aF0.0
aI1
aI6
aI7
aI1
aI0
aI0
aI1
aI1
aI2
aI-7
aa(lp148
V0021300474
p149
aVJAN 02, 2014
p150
aVGSW @ MIA
p151
aVW
p152
aI27
aI4
aI6
aF0.667
aI1
aI2
aF0.5
aI6
aI7
aF0.857
aI0
aI3
aI3
aI0
aI0
aI0
aI0
aI3
aI15
aI-9
aa(lp153
V0021300483
p154
aVJAN 03, 2014
p155
aVGSW @ ATL
p156
aVW
p157
aI29
aI4
aI12
aF0.333
aI1
aI2
aF0.5
aI0
aI1
aF0.0
aI3
aI2
aI5
aI2
aI3
aI0
aI0
aI4
aI9
aI-2
aa(lp158
V0021300501
p159
aVJAN 05, 2014
p160
aVGSW @ WAS
p161
aVW
p162
aI27
aI4
aI6
aF0.667
aI1
aI1
aF1.0
aI4
aI4
aF1.0
aI0
aI6
aI6
aI3
aI0
aI0
aI2
aI2
aI13
aI-2
aa(lp163
V0021300515
p164
aVJAN 07, 2014
p165
aVGSW @ MIL
p166
aVW
p167
aI26
aI2
aI7
aF0.286
aI2
aI3
aF0.667
aI0
aI0
aF0.0
aI0
aI4
aI4
aI2
aI1
aI0
aI1
aI1
aI6
aI-3
aa(lp168
V0021300523
p169
aVJAN 08, 2014
p170
aVGSW @ BKN
p171
aVL
p172
aI21
aI2
aI3
aF0.667
aI2
aI2
aF1.0
aI0
aI0
aF0.0
aI0
aI0
aI0
aI0
aI0
aI0
aI1
aI1
aI6
aI-8
aa(lp173
V0021300541
p174
aVJAN 10, 2014
p175
aVGSW vs. BOS
p176
aVW
p177
aI20
aI0
aI4
aF0.0
aI0
aI3
aF0.0
aI1
aI2
aF0.5
aI1
aI5
aI6
aI1
aI0
aI0
aI1
aI4
aI1
aI-8
aa(lp178
V0021300576
p179
aVJAN 15, 2014
p180
aVGSW vs. DEN
p181
aVL
p182
aI31
aI4
aI8
aF0.5
aI2
aI3
aF0.667
aI5
aI6
aF0.833
aI0
aI6
aI6
aI2
aI1
aI1
aI0
aI4
aI15
aI-12
aa(lp183
V0021300592
p184
aVJAN 17, 2014
p185
aVGSW @ OKC
p186
aVL
p187
aI19
aI0
aI4
aF0.0
aI0
aI1
aF0.0
aI0
aI0
aF0.0
aI0
aI0
aI0
aI0
aI0
aI0
aI2
aI5
aI0
aI-12
aa(lp188
V0021300599
p189
aVJAN 18, 2014
p190
aVGSW @ NOP
p191
aVW
p192
aI18
aI0
aI4
aF0.0
aI0
aI1
aF0.0
aI0
aI0
aF0.0
aI0
aI2
aI2
aI1
aI0
aI0
aI1
aI3
aI0
aI-7
aa(lp193
V0021300615
p194
aVJAN 20, 2014
p195
aVGSW vs. IND
p196
aVL
p197
aI21
aI2
aI5
aF0.4
aI1
aI2
aF0.5
aI2
aI2
aF1.0
aI1
aI4
aI5
aI1
aI1
aI0
aI0
aI1
aI7
aI-10
aa(lp198
V0021300645
p199
aVJAN 24, 2014
p200
aVGSW vs. MIN
p201
aVL
p202
aI23
aI1
aI7
aF0.143
aI0
aI2
aF0.0
aI0
aI0
aF0.0
aI0
aI3
aI3
aI0
aI0
aI1
aI3
aI1
aI2
aI13
aa(lp203
V0021300660
p204
aVJAN 26, 2014
p205
aVGSW vs. POR
p206
aVW
p207
aI27
aI2
aI5
aF0.4
aI0
aI1
aF0.0
aI2
aI2
aF1.0
aI2
aI5
aI7
aI0
aI1
aI1
aI1
aI1
aI6
aI-3
aa(lp208
V0021300673
p209
aVJAN 28, 2014
p210
aVGSW vs. WAS
p211
aVL
p212
aI23
aI2
aI4
aF0.5
aI1
aI2
aF0.5
aI0
aI0
aF0.0
aI0
aI0
aI0
aI3
aI2
aI0
aI0
aI1
aI5
aI8
aa(lp213
V0021300688
p214
aVJAN 30, 2014
p215
aVGSW vs. LAC
p216
aVW
p217
aI24
aI4
aI13
aF0.308
aI0
aI3
aF0.0
aI2
aI3
aF0.667
aI5
aI3
aI8
aI0
aI1
aI0
aI0
aI2
aI10
aI5
aa(lp218
V0021300696
p219
aVJAN 31, 2014
p220
aVGSW @ UTA
p221
aVW
p222
aI32
aI2
aI10
aF0.2
aI0
aI1
aF0.0
aI4
aI4
aF1.0
aI4
aI2
aI6
aI1
aI0
aI0
aI2
aI3
aI8
aI2
aa(lp223
V0021300724
p224
aVFEB 04, 2014
p225
aVGSW vs. CHA
p226
aVL
p227
aI23
aI2
aI7
aF0.286
aI0
aI2
aF0.0
aI4
aI5
aF0.8
aI2
aI5
aI7
aI0
aI0
aI0
aI0
aI1
aI8
aI-8
aa(lp228
V0021300738
p229
aVFEB 06, 2014
p230
aVGSW vs. CHI
p231
aVW
p232
aI29
aI4
aI10
aF0.4
aI3
aI4
aF0.75
aI0
aI0
aF0.0
aI1
aI5
aI6
aI1
aI2
aI0
aI2
aI1
aI11
aI20
aa(lp233
V0021300754
p234
aVFEB 08, 2014
p235
aVGSW @ PHX
p236
aVL
p237
aI36
aI9
aI15
aF0.6
aI2
aI3
aF0.667
aI3
aI4
aF0.75
aI2
aI4
aI6
aI0
aI1
aI1
aI1
aI3
aI23
aI6
aa(lp238
V0021300769
p239
aVFEB 10, 2014
p240
aVGSW vs. PHI
p241
aVW
p242
aI24
aI5
aI9
aF0.556
aI1
aI2
aF0.5
aI0
aI0
aF0.0
aI0
aI1
aI1
aI0
aI1
aI0
aI0
aI1
aI11
aI25
aa(lp243
V0021300788
p244
aVFEB 12, 2014
p245
aVGSW vs. MIA
p246
aVL
p247
aI30
aI5
aI11
aF0.455
aI2
aI3
aF0.667
aI2
aI2
aF1.0
aI2
aI3
aI5
aI1
aI1
aI0
aI0
aI4
aI14
aI3
aa(lp248
V0021300810
p249
aVFEB 19, 2014
p250
aVGSW @ SAC
p251
aVW
p252
aI27
aI2
aI5
aF0.4
aI1
aI2
aF0.5
aI2
aI2
aF1.0
aI0
aI4
aI4
aI3
aI3
aI0
aI3
aI3
aI7
aI5
aa(lp253
V0021300814
p254
aVFEB 20, 2014
p255
aVGSW vs. HOU
p256
aVW
p257
aI21
aI1
aI5
aF0.2
aI0
aI2
aF0.0
aI3
aI6
aF0.5
aI1
aI3
aI4
aI0
aI0
aI1
aI1
aI2
aI5
aI-12
aa(lp258
V0021300832
p259
aVFEB 22, 2014
p260
aVGSW vs. BKN
p261
aVW
p262
aI20
aI1
aI7
aF0.143
aI0
aI1
aF0.0
aI1
aI2
aF0.5
aI1
aI1
aI2
aI1
aI0
aI0
aI1
aI4
aI3
aI-12
aa(lp263
V0021300842
p264
aVFEB 24, 2014
p265
aVGSW @ DET
p266
aVW
p267
aI28
aI4
aI8
aF0.5
aI2
aI3
aF0.667
aI1
aI2
aF0.5
aI2
aI3
aI5
aI4
aI0
aI1
aI0
aI2
aI11
aI17
aa(lp268
V0021300855
p269
aVFEB 26, 2014
p270
aVGSW @ CHI
p271
aVL
p272
aI24
aI3
aI10
aF0.3
aI1
aI4
aF0.25
aI4
aI4
aF1.0
aI1
aI1
aI2
aI2
aI0
aI1
aI1
aI1
aI11
aI-2
aa(lp273
V0021300869
p274
aVFEB 28, 2014
p275
aVGSW @ NYK
p276
aVW
p277
aI27
aI3
aI7
aF0.429
aI1
aI3
aF0.333
aI2
aI2
aF1.0
aI0
aI4
aI4
aI2
aI0
aI0
aI2
aI2
aI9
aI3
aa(lp278
V0021300884
p279
aVMAR 02, 2014
p280
aVGSW @ TOR
p281
aVL
p282
aI22
aI4
aI8
aF0.5
aI1
aI2
aF0.5
aI2
aI2
aF1.0
aI0
aI2
aI2
aI1
aI0
aI1
aI1
aI1
aI11
aI-6
aa(lp283
V0021300899
p284
aVMAR 04, 2014
p285
aVGSW @ IND
p286
aVW
p287
aI24
aI3
aI8
aF0.375
aI2
aI3
aF0.667
aI2
aI2
aF1.0
aI0
aI5
aI5
aI2
aI0
aI0
aI0
aI1
aI10
aI2
aa(lp288
V0021300907
p289
aVMAR 05, 2014
p290
aVGSW @ BOS
p291
aVW
p292
aI25
aI1
aI8
aF0.125
aI1
aI3
aF0.333
aI0
aI0
aF0.0
aI1
aI1
aI2
aI0
aI2
aI0
aI0
aI2
aI3
aI-6
aa(lp293
V0021300927
p294
aVMAR 07, 2014
p295
aVGSW vs. ATL
p296
aVW
p297
aI28
aI2
aI6
aF0.333
aI0
aI3
aF0.0
aI3
aI4
aF0.75
aI2
aI3
aI5
aI1
aI0
aI1
aI1
aI2
aI7
aI-1
aa(lp298
V0021300942
p299
aVMAR 09, 2014
p300
aVGSW vs. PHX
p301
aVW
p302
aI31
aI3
aI8
aF0.375
aI1
aI2
aF0.5
aI0
aI0
aF0.0
aI3
aI3
aI6
aI3
aI2
aI0
aI0
aI1
aI7
aI-5
aa(lp303
V0021300956
p304
aVMAR 11, 2014
p305
aVGSW vs. DAL
p306
aVW
p307
aI20
aI4
aI6
aF0.667
aI1
aI3
aF0.333
aI4
aI4
aF1.0
aI0
aI1
aI1
aI0
aI0
aI1
aI0
aI3
aI13
aI15
aa(lp308
V0021300967
p309
aVMAR 12, 2014
p310
aVGSW @ LAC
p311
aVL
p312
aI18
aI1
aI5
aF0.2
aI0
aI1
aF0.0
aI3
aI3
aF1.0
aI1
aI3
aI4
aI0
aI1
aI0
aI0
aI1
aI5
aI-11
aa(lp313
V0021300980
p314
aVMAR 14, 2014
p315
aVGSW vs. CLE
p316
aVL
p317
aI41
aI3
aI8
aF0.375
aI0
aI2
aF0.0
aI0
aI4
aF0.0
aI0
aI5
aI5
aI2
aI1
aI1
aI2
aI1
aI6
aI7
aa(lp318
V0021300994
p319
aVMAR 16, 2014
p320
aVGSW @ POR
p321
aVW
p322
aI28
aI2
aI8
aF0.25
aI1
aI5
aF0.2
aI0
aI0
aF0.0
aI2
aI3
aI5
aI3
aI0
aI0
aI0
aI5
aI5
aI4
aa(lp323
V0021301007
p324
aVMAR 18, 2014
p325
aVGSW vs. ORL
p326
aVW
p327
aI31
aI1
aI6
aF0.167
aI0
aI3
aF0.0
aI2
aI2
aF1.0
aI0
aI5
aI5
aI3
aI0
aI0
aI0
aI0
aI4
aI10
aa(lp328
V0021301021
p329
aVMAR 20, 2014
p330
aVGSW vs. MIL
p331
aVW
p332
aI27
aI0
aI7
aF0.0
aI0
aI5
aF0.0
aI0
aI0
aF0.0
aI0
aI2
aI2
aI2
aI0
aI0
aI2
aI3
aI0
aI-10
aa(lp333
V0021301038
p334
aVMAR 22, 2014
p335
aVGSW vs. SAS
p336
aVL
p337
aI27
aI1
aI6
aF0.167
aI0
aI3
aF0.0
aI2
aI2
aF1.0
aI1
aI4
aI5
aI2
aI0
aI0
aI0
aI0
aI4
aI1
aa(lp338
V0021301086
p339
aVMAR 28, 2014
p340
aVGSW vs. MEM
p341
aVW
p342
aI18
aI2
aI7
aF0.286
aI0
aI2
aF0.0
aI0
aI0
aF0.0
aI1
aI0
aI1
aI2
aI2
aI0
aI1
aI0
aI4
aI-2
aa(lp343
V0021301098
p344
aVMAR 30, 2014
p345
aVGSW vs. NYK
p346
aVL
p347
aI21
aI2
aI7
aF0.286
aI0
aI1
aF0.0
aI1
aI2
aF0.5
aI1
aI1
aI2
aI1
aI0
aI0
aI2
aI2
aI5
aI-18
aa(lp348
V0021301112
p349
aVAPR 01, 2014
p350
aVGSW @ DAL
p351
aVW
p352
aI13
aI0
aI0
aF0.0
aI0
aI0
aF0.0
aI0
aI0
aF0.0
aI0
aI0
aI0
aI1
aI0
aI1
aI1
aI1
aI0
aI-5
aa(lp353
V0021301123
p354
aVAPR 02, 2014
p355
aVGSW @ SAS
p356
aVL
p357
aI36
aI3
aI12
aF0.25
aI1
aI5
aF0.2
aI4
aI4
aF1.0
aI0
aI2
aI2
aI0
aI1
aI0
aI2
aI2
aI11
aI-13
aa(lp358
V0021301141
p359
aVAPR 04, 2014
p360
aVGSW vs. SAC
p361
aVW
p362
aI38
aI6
aI14
aF0.429
aI3
aI7
aF0.429
aI1
aI2
aF0.5
aI1
aI2
aI3
aI3
aI1
aI1
aI1
aI1
aI16
aI15
aa(lp363
V0021301155
p364
aVAPR 06, 2014
p365
aVGSW vs. UTA
p366
aVW
p367
aI28
aI5
aI8
aF0.625
aI0
aI2
aF0.0
aI0
aI0
aF0.0
aI0
aI5
aI5
aI1
aI2
aI0
aI0
aI4
aI10
aI11
aa(lp368
V0021301175
p369
aVAPR 10, 2014
p370
aVGSW vs. DEN
p371
aVL
p372
aI30
aI4
aI7
aF0.571
aI1
aI2
aF0.5
aI0
aI0
aF0.0
aI0
aI5
aI5
aI2
aI1
aI1
aI0
aI1
aI9
aI-7
aa(lp373
V0021301188
p374
aVAPR 11, 2014
p375
aVGSW @ LAL
p376
aVW
p377
aI22
aI4
aI9
aF0.444
aI0
aI1
aF0.0
aI0
aI0
aF0.0
aI2
aI2
aI4
aI0
aI1
aI1
aI3
aI2
aI8
aI-3
aa(lp378
V0021301201
p379
aVAPR 13, 2014
p380
aVGSW @ POR
p381
aVL
p382
aI22
aI3
aI7
aF0.429
aI1
aI3
aF0.333
aI1
aI2
aF0.5
aI2
aI6
aI8
aI1
aI0
aI0
aI0
aI1
aI8
aI-8
aa(lp383
V0021301213
p384
aVAPR 14, 2014
p385
aVGSW vs. MIN
p386
aVW
p387
aI31
aI3
aI7
aF0.429
aI0
aI2
aF0.0
aI0
aI0
aF0.0
aI2
aI5
aI7
aI5
aI3
aI0
aI0
aI1
aI6
aI8
aa(lp388
V0021301230
p389
aVAPR 16, 2014
p390
aVGSW @ DEN
p391
aVW
p392
aI48
aI11
aI21
aF0.524
aI3
aI5
aF0.6
aI5
aI12
aF0.417
aI1
aI4
aI5
aI3
aI1
aI0
aI3
aI2
aI30
aI4
aasS'name'
p393
VHarrison Barnes
p394
sS'weight'
p395
V225
p396
sS'age'
p397
I21
sS'experience'
p398
I1
sS'height'
p399
V6-8
p400
sS'position'
p401
VForward
p402
s.