(dp0
S'age'
p1
I22
sS'stats'
p2
(lp3
(lp4
V0021300402
p5
aVDEC 21, 2013
p6
aVLAL @ GSW
p7
aVL
p8
aI6
aI1
aI1
aF1.0
aI1
aI1
aF1.0
aI0
aI0
aF0.0
aI0
aI0
aI0
aI0
aI0
aI0
aI4
aI0
aI3
aI-1
aa(lp9
V0021300416
p10
aVDEC 23, 2013
p11
aVLAL @ PHX
p12
aVL
p13
aI4
aI0
aI1
aF0.0
aI0
aI1
aF0.0
aI0
aI0
aF0.0
aI1
aI0
aI1
aI0
aI0
aI0
aI0
aI0
aI0
aI-4
aa(lp14
V0021300452
p15
aVDEC 29, 2013
p16
aVLAL vs. PHI
p17
aVL
p18
aI17
aI3
aI5
aF0.6
aI2
aI3
aF0.667
aI0
aI0
aF0.0
aI0
aI2
aI2
aI3
aI0
aI0
aI2
aI0
aI8
aI13
aa(lp19
V0021300467
p20
aVDEC 31, 2013
p21
aVLAL vs. MIL
p22
aVL
p23
aI28
aI4
aI7
aF0.571
aI2
aI4
aF0.5
aI0
aI0
aF0.0
aI0
aI1
aI1
aI7
aI0
aI0
aI2
aI0
aI10
aI0
aa(lp24
V0021300488
p25
aVJAN 03, 2014
p26
aVLAL vs. UTA
p27
aVW
p28
aI41
aI8
aI12
aF0.667
aI2
aI3
aF0.667
aI2
aI2
aF1.0
aI0
aI6
aI6
aI15
aI0
aI0
aI1
aI1
aI20
aI13
aa(lp29
V0021300504
p30
aVJAN 05, 2014
p31
aVLAL vs. DEN
p32
aVL
p33
aI39
aI3
aI10
aF0.3
aI1
aI5
aF0.2
aI2
aI2
aF1.0
aI0
aI6
aI6
aI17
aI2
aI0
aI3
aI3
aI9
aI-11
aa(lp34
V0021300516
p35
aVJAN 07, 2014
p36
aVLAL @ DAL
p37
aVL
p38
aI33
aI7
aI10
aF0.7
aI3
aI5
aF0.6
aI1
aI2
aF0.5
aI0
aI3
aI3
aI6
aI0
aI0
aI6
aI0
aI18
aI-18
aa(lp39
V0021300526
p40
aVJAN 08, 2014
p41
aVLAL @ HOU
p42
aVL
p43
aI38
aI2
aI13
aF0.154
aI1
aI6
aF0.167
aI0
aI0
aF0.0
aI0
aI5
aI5
aI8
aI1
aI0
aI6
aI4
aI5
aI-13
aa(lp44
V0021300542
p45
aVJAN 10, 2014
p46
aVLAL @ LAC
p47
aVL
p48
aI40
aI6
aI11
aF0.545
aI3
aI4
aF0.75
aI1
aI1
aF1.0
aI2
aI2
aI4
aI10
aI0
aI0
aI2
aI1
aI16
aI-17
aa(lp49
V0021300565
p50
aVJAN 14, 2014
p51
aVLAL vs. CLE
p52
aVL
p53
aI38
aI4
aI11
aF0.364
aI2
aI6
aF0.333
aI0
aI0
aF0.0
aI0
aI2
aI2
aI16
aI1
aI0
aI3
aI1
aI10
aI-2
aa(lp54
V0021300574
p55
aVJAN 15, 2014
p56
aVLAL @ PHX
p57
aVL
p58
aI43
aI4
aI16
aF0.25
aI2
aI6
aF0.333
aI0
aI0
aF0.0
aI0
aI2
aI2
aI13
aI0
aI0
aI2
aI3
aI10
aI-13
aa(lp59
V0021300586
p60
aVJAN 17, 2014
p61
aVLAL @ BOS
p62
aVW
p63
aI44
aI7
aI11
aF0.636
aI4
aI5
aF0.8
aI1
aI1
aF1.0
aI0
aI4
aI4
aI14
aI1
aI0
aI7
aI1
aI19
aI6
aa(lp64
V0021300601
p65
aVJAN 19, 2014
p66
aVLAL @ TOR
p67
aVW
p68
aI37
aI4
aI10
aF0.4
aI2
aI3
aF0.667
aI0
aI0
aF0.0
aI1
aI3
aI4
aI11
aI0
aI0
aI2
aI2
aI10
aI22
aa(lp69
V0021300613
p70
aVJAN 20, 2014
p71
aVLAL @ CHI
p72
aVL
p73
aI40
aI1
aI4
aF0.25
aI1
aI4
aF0.25
aI0
aI0
aF0.0
aI0
aI2
aI2
aI8
aI2
aI0
aI4
aI1
aI3
aI3
aa(lp74
V0021300631
p75
aVJAN 23, 2014
p76
aVLAL @ MIA
p77
aVL
p78
aI36
aI2
aI6
aF0.333
aI1
aI3
aF0.333
aI1
aI3
aF0.333
aI0
aI3
aI3
aI11
aI1
aI0
aI3
aI2
aI6
aI-6
aa(lp79
V0021300633
p80
aVJAN 24, 2014
p81
aVLAL @ ORL
p82
aVL
p83
aI38
aI7
aI14
aF0.5
aI5
aI7
aF0.714
aI0
aI0
aF0.0
aI0
aI3
aI3
aI14
aI1
aI0
aI1
aI3
aI19
aI-1
aa(lp84
V0021300655
p85
aVJAN 26, 2014
p86
aVLAL @ NYK
p87
aVL
p88
aI38
aI5
aI11
aF0.455
aI2
aI5
aF0.4
aI0
aI0
aF0.0
aI1
aI1
aI2
aI5
aI0
aI0
aI1
aI1
aI12
aI-15
aa(lp89
V0021300674
p90
aVJAN 28, 2014
p91
aVLAL vs. IND
p92
aVL
p93
aI39
aI5
aI11
aF0.455
aI1
aI3
aF0.333
aI0
aI1
aF0.0
aI0
aI2
aI2
aI13
aI0
aI0
aI1
aI1
aI11
aI-9
aa(lp94
V0021300695
p95
aVJAN 31, 2014
p96
aVLAL vs. CHA
p97
aVL
p98
aI35
aI5
aI11
aF0.455
aI0
aI3
aF0.0
aI0
aI0
aF0.0
aI1
aI5
aI6
aI12
aI1
aI0
aI3
aI5
aI10
aI6
aa(lp99
V0021300722
p100
aVFEB 04, 2014
p101
aVLAL @ MIN
p102
aVL
p103
aI21
aI2
aI5
aF0.4
aI1
aI1
aF1.0
aI0
aI0
aF0.0
aI0
aI3
aI3
aI3
aI0
aI0
aI1
aI1
aI5
aI-7
aa(lp104
V0021300725
p105
aVFEB 05, 2014
p106
aVLAL @ CLE
p107
aVW
p108
aI25
aI4
aI6
aF0.667
aI4
aI6
aF0.667
aI0
aI0
aF0.0
aI1
aI3
aI4
aI7
aI1
aI0
aI1
aI1
aI12
aI-5
aa(lp109
V0021300741
p110
aVFEB 07, 2014
p111
aVLAL @ PHI
p112
aVW
p113
aI20
aI3
aI6
aF0.5
aI1
aI2
aF0.5
aI0
aI0
aF0.0
aI0
aI0
aI0
aI10
aI1
aI0
aI1
aI2
aI7
aI11
aa(lp114
V0021300757
p115
aVFEB 09, 2014
p116
aVLAL vs. CHI
p117
aVL
p118
aI37
aI5
aI6
aF0.833
aI3
aI3
aF1.0
aI0
aI0
aF0.0
aI0
aI2
aI2
aI11
aI0
aI1
aI5
aI0
aI13
aI14
aa(lp119
V0021300776
p120
aVFEB 11, 2014
p121
aVLAL vs. UTA
p122
aVL
p123
aI32
aI3
aI13
aF0.231
aI0
aI3
aF0.0
aI1
aI1
aF1.0
aI1
aI2
aI3
aI7
aI3
aI0
aI4
aI1
aI7
aI-13
aa(lp124
V0021300791
p125
aVFEB 13, 2014
p126
aVLAL vs. OKC
p127
aVL
p128
aI44
aI6
aI13
aF0.462
aI2
aI7
aF0.286
aI0
aI1
aF0.0
aI0
aI7
aI7
aI17
aI1
aI0
aI3
aI1
aI14
aI-5
aa(lp129
V0021300811
p130
aVFEB 19, 2014
p131
aVLAL vs. HOU
p132
aVL
p133
aI43
aI7
aI13
aF0.538
aI4
aI6
aF0.667
aI2
aI4
aF0.5
aI0
aI1
aI1
aI16
aI3
aI0
aI4
aI1
aI20
aI-17
aa(lp134
V0021300824
p135
aVFEB 21, 2014
p136
aVLAL vs. BOS
p137
aVW
p138
aI25
aI2
aI6
aF0.333
aI1
aI2
aF0.5
aI0
aI0
aF0.0
aI1
aI3
aI4
aI8
aI1
aI0
aI4
aI1
aI5
aI-14
aa(lp139
V0021300839
p140
aVFEB 23, 2014
p141
aVLAL vs. BKN
p142
aVL
p143
aI23
aI1
aI4
aF0.25
aI0
aI1
aF0.0
aI0
aI0
aF0.0
aI1
aI2
aI3
aI7
aI1
aI1
aI3
aI2
aI2
aI-11
aa(lp144
V0021300847
p145
aVFEB 25, 2014
p146
aVLAL @ IND
p147
aVL
p148
aI18
aI0
aI3
aF0.0
aI0
aI1
aF0.0
aI0
aI0
aF0.0
aI0
aI3
aI3
aI4
aI1
aI0
aI4
aI1
aI0
aI-13
aa(lp149
V0021300857
p150
aVFEB 26, 2014
p151
aVLAL @ MEM
p152
aVL
p153
aI24
aI0
aI6
aF0.0
aI0
aI3
aF0.0
aI0
aI0
aF0.0
aI1
aI4
aI5
aI8
aI0
aI0
aI2
aI0
aI0
aI-7
aa(lp154
V0021300872
p155
aVFEB 28, 2014
p156
aVLAL vs. SAC
p157
aVW
p158
aI19
aI0
aI2
aF0.0
aI0
aI2
aF0.0
aI0
aI0
aF0.0
aI0
aI1
aI1
aI10
aI0
aI0
aI4
aI4
aI0
aI-1
aa(lp159
V0021300896
p160
aVMAR 03, 2014
p161
aVLAL @ POR
p162
aVW
p163
aI25
aI3
aI9
aF0.333
aI1
aI2
aF0.5
aI0
aI0
aF0.0
aI1
aI5
aI6
aI11
aI0
aI0
aI3
aI0
aI7
aI5
aa(lp164
V0021300903
p165
aVMAR 04, 2014
p166
aVLAL vs. NOP
p167
aVL
p168
aI22
aI0
aI4
aF0.0
aI0
aI0
aF0.0
aI0
aI0
aF0.0
aI0
aI1
aI1
aI10
aI1
aI0
aI2
aI1
aI0
aI-7
aa(lp169
V0021300916
p170
aVMAR 06, 2014
p171
aVLAL vs. LAC
p172
aVL
p173
aI24
aI3
aI8
aF0.375
aI1
aI4
aF0.25
aI0
aI0
aF0.0
aI0
aI4
aI4
aI7
aI1
aI0
aI4
aI0
aI7
aI-8
aa(lp174
V0021300925
p175
aVMAR 07, 2014
p176
aVLAL @ DEN
p177
aVL
p178
aI27
aI3
aI9
aF0.333
aI2
aI5
aF0.4
aI0
aI0
aF0.0
aI1
aI2
aI3
aI14
aI1
aI0
aI1
aI2
aI8
aI-10
aa(lp179
V0021300935
p180
aVMAR 09, 2014
p181
aVLAL vs. OKC
p182
aVW
p183
aI27
aI0
aI3
aF0.0
aI0
aI3
aF0.0
aI0
aI2
aF0.0
aI0
aI5
aI5
aI10
aI0
aI0
aI3
aI1
aI0
aI17
aa(lp184
V0021300970
p185
aVMAR 13, 2014
p186
aVLAL @ OKC
p187
aVL
p188
aI22
aI3
aI5
aF0.6
aI1
aI2
aF0.5
aI1
aI4
aF0.25
aI0
aI2
aI2
aI6
aI1
aI0
aI2
aI1
aI8
aI-9
aa(lp189
V0021300978
p190
aVMAR 14, 2014
p191
aVLAL @ SAS
p192
aVL
p193
aI28
aI2
aI9
aF0.222
aI2
aI4
aF0.5
aI0
aI0
aF0.0
aI0
aI3
aI3
aI9
aI1
aI0
aI3
aI2
aI6
aI-10
aa(lp194
V0021301017
p195
aVMAR 19, 2014
p196
aVLAL vs. SAS
p197
aVL
p198
aI23
aI4
aI7
aF0.571
aI1
aI1
aF1.0
aI1
aI2
aF0.5
aI1
aI2
aI3
aI3
aI0
aI0
aI2
aI0
aI10
aI-17
aa(lp199
V0021301031
p200
aVMAR 21, 2014
p201
aVLAL vs. WAS
p202
aVL
p203
aI29
aI2
aI8
aF0.25
aI0
aI2
aF0.0
aI0
aI0
aF0.0
aI0
aI2
aI2
aI7
aI2
aI0
aI3
aI2
aI4
aI-17
aa(lp204
V0021301046
p205
aVMAR 23, 2014
p206
aVLAL vs. ORL
p207
aVW
p208
aI29
aI2
aI7
aF0.286
aI0
aI2
aF0.0
aI0
aI0
aF0.0
aI0
aI2
aI2
aI3
aI2
aI0
aI5
aI1
aI4
aI9
aa(lp209
V0021301060
p210
aVMAR 25, 2014
p211
aVLAL vs. NYK
p212
aVW
p213
aI23
aI3
aI7
aF0.429
aI1
aI2
aF0.5
aI0
aI0
aF0.0
aI0
aI2
aI2
aI9
aI0
aI0
aI1
aI0
aI7
aI14
aa(lp214
V0021301073
p215
aVMAR 27, 2014
p216
aVLAL @ MIL
p217
aVL
p218
aI28
aI2
aI7
aF0.286
aI1
aI2
aF0.5
aI0
aI0
aF0.0
aI0
aI1
aI1
aI7
aI2
aI0
aI5
aI3
aI5
aI3
aa(lp219
V0021301081
p220
aVMAR 28, 2014
p221
aVLAL @ MIN
p222
aVL
p223
aI15
aI0
aI6
aF0.0
aI0
aI4
aF0.0
aI0
aI0
aF0.0
aI0
aI0
aI0
aI3
aI1
aI0
aI2
aI2
aI0
aI-25
aa(lp224
V0021301100
p225
aVMAR 30, 2014
p226
aVLAL vs. PHX
p227
aVW
p228
aI37
aI6
aI9
aF0.667
aI0
aI1
aF0.0
aI1
aI1
aF1.0
aI0
aI1
aI1
aI11
aI3
aI1
aI3
aI2
aI13
aI30
aa(lp229
V0021301113
p230
aVAPR 01, 2014
p231
aVLAL vs. POR
p232
aVL
p233
aI19
aI2
aI4
aF0.5
aI2
aI3
aF0.667
aI2
aI2
aF1.0
aI0
aI6
aI6
aI5
aI1
aI0
aI1
aI3
aI8
aI-14
aa(lp234
V0021301126
p235
aVAPR 02, 2014
p236
aVLAL @ SAC
p237
aVL
p238
aI33
aI3
aI9
aF0.333
aI1
aI3
aF0.333
aI0
aI0
aF0.0
aI0
aI7
aI7
aI10
aI2
aI0
aI3
aI4
aI7
aI1
aa(lp239
V0021301142
p240
aVAPR 04, 2014
p241
aVLAL vs. DAL
p242
aVL
p243
aI29
aI4
aI9
aF0.444
aI1
aI5
aF0.2
aI0
aI0
aF0.0
aI0
aI2
aI2
aI8
aI2
aI1
aI1
aI1
aI9
aI-5
aa(lp244
V0021301150
p245
aVAPR 06, 2014
p246
aVLAL @ LAC
p247
aVL
p248
aI43
aI4
aI10
aF0.4
aI0
aI4
aF0.0
aI2
aI5
aF0.4
aI0
aI3
aI3
aI11
aI0
aI0
aI5
aI2
aI10
aI-21
aa(lp249
V0021301161
p250
aVAPR 08, 2014
p251
aVLAL vs. HOU
p252
aVL
p253
aI19
aI0
aI4
aF0.0
aI0
aI2
aF0.0
aI0
aI0
aF0.0
aI0
aI0
aI0
aI4
aI1
aI0
aI1
aI1
aI0
aI-15
aa(lp254
V0021301188
p255
aVAPR 11, 2014
p256
aVLAL vs. GSW
p257
aVL
p258
aI19
aI3
aI7
aF0.429
aI1
aI4
aF0.25
aI0
aI0
aF0.0
aI1
aI1
aI2
aI3
aI1
aI0
aI1
aI0
aI7
aI-3
aa(lp259
V0021301203
p260
aVAPR 13, 2014
p261
aVLAL vs. MEM
p262
aVL
p263
aI29
aI4
aI9
aF0.444
aI1
aI4
aF0.25
aI0
aI0
aF0.0
aI0
aI0
aI0
aI9
aI2
aI0
aI3
aI0
aI9
aI1
aa(lp264
V0021301211
p265
aVAPR 14, 2014
p266
aVLAL @ UTA
p267
aVW
p268
aI24
aI1
aI4
aF0.25
aI0
aI1
aF0.0
aI0
aI0
aF0.0
aI0
aI4
aI4
aI15
aI2
aI0
aI3
aI2
aI2
aI12
aa(lp269
V0021301221
p270
aVAPR 16, 2014
p271
aVLAL @ SAS
p272
aVW
p273
aI28
aI5
aI7
aF0.714
aI4
aI4
aF1.0
aI1
aI2
aF0.5
aI0
aI2
aI2
aI11
aI0
aI0
aI4
aI2
aI15
aI13
aasS'name'
p274
VKendall Marshall
p275
sS'experience'
p276
I1
s.