(dp0
S'stats'
p1
(lp2
(lp3
V0021300025
p4
aVNOV 01, 2013
p5
aVDAL @ HOU
p6
aVL
p7
aI5
aI0
aI0
aF0.0
aI0
aI0
aF0.0
aI0
aI0
aF0.0
aI0
aI0
aI0
aI1
aI0
aI0
aI0
aI1
aI0
aI6
aa(lp8
V0021300056
p9
aVNOV 05, 2013
p10
aVDAL vs. LAL
p11
aVW
p12
aI6
aI0
aI1
aF0.0
aI0
aI0
aF0.0
aI0
aI0
aF0.0
aI0
aI4
aI4
aI0
aI0
aI1
aI1
aI1
aI0
aI-8
aa(lp13
V0021300080
p14
aVNOV 08, 2013
p15
aVDAL @ MIN
p16
aVL
p17
aI7
aI2
aI2
aF1.0
aI0
aI0
aF0.0
aI1
aI1
aF1.0
aI0
aI2
aI2
aI0
aI0
aI0
aI0
aI3
aI5
aI6
aa(lp18
V0021300108
p19
aVNOV 12, 2013
p20
aVDAL vs. WAS
p21
aVW
p22
aI1
aI0
aI0
aF0.0
aI0
aI0
aF0.0
aI0
aI0
aF0.0
aI0
aI0
aI0
aI0
aI0
aI0
aI1
aI0
aI0
aI-3
aa(lp23
V0021300153
p24
aVNOV 18, 2013
p25
aVDAL vs. PHI
p26
aVW
p27
aI7
aI0
aI0
aF0.0
aI0
aI0
aF0.0
aI0
aI0
aF0.0
aI0
aI1
aI1
aI0
aI0
aI0
aI1
aI1
aI0
aI9
aa(lp28
V0021300207
p29
aVNOV 25, 2013
p30
aVDAL vs. DEN
p31
aVL
p32
aI8
aI0
aI0
aF0.0
aI0
aI0
aF0.0
aI0
aI0
aF0.0
aI1
aI0
aI1
aI0
aI0
aI0
aI2
aI2
aI0
aI-14
aa(lp33
V0021300244
p34
aVNOV 30, 2013
p35
aVDAL vs. MIN
p36
aVL
p37
aI0
aI0
aI0
aF0.0
aI0
aI0
aF0.0
aI0
aI0
aF0.0
aI1
aI0
aI1
aI0
aI0
aI0
aI0
aI0
aI0
aI4
aa(lp38
V0021300266
p39
aVDEC 03, 2013
p40
aVDAL vs. CHA
p41
aVW
p42
aI10
aI2
aI3
aF0.667
aI0
aI0
aF0.0
aI1
aI1
aF1.0
aI2
aI2
aI4
aI0
aI0
aI0
aI0
aI1
aI5
aI-3
aa(lp43
V0021300298
p44
aVDEC 07, 2013
p45
aVDAL @ POR
p46
aVW
p47
aI11
aI2
aI4
aF0.5
aI0
aI0
aF0.0
aI1
aI2
aF0.5
aI3
aI3
aI6
aI0
aI0
aI1
aI0
aI0
aI5
aI3
aa(lp48
V0021300309
p49
aVDEC 09, 2013
p50
aVDAL @ SAC
p51
aVL
p52
aI22
aI2
aI6
aF0.333
aI0
aI1
aF0.0
aI3
aI3
aF1.0
aI2
aI4
aI6
aI0
aI1
aI1
aI0
aI3
aI7
aI4
aa(lp53
V0021300348
p54
aVDEC 14, 2013
p55
aVDAL vs. MIL
p56
aVW
p57
aI10
aI0
aI2
aF0.0
aI0
aI0
aF0.0
aI0
aI0
aF0.0
aI1
aI2
aI3
aI0
aI0
aI1
aI0
aI0
aI0
aI-13
aa(lp58
V0021300377
p59
aVDEC 18, 2013
p60
aVDAL vs. MEM
p61
aVW
p62
aI2
aI0
aI0
aF0.0
aI0
aI0
aF0.0
aI0
aI0
aF0.0
aI0
aI1
aI1
aI0
aI0
aI0
aI0
aI0
aI0
aI-5
aa(lp63
V0021300400
p64
aVDEC 21, 2013
p65
aVDAL @ PHX
p66
aVL
p67
aI2
aI1
aI1
aF1.0
aI0
aI0
aF0.0
aI0
aI1
aF0.0
aI1
aI0
aI1
aI0
aI0
aI0
aI0
aI1
aI2
aI0
aa(lp68
V0021300441
p69
aVDEC 28, 2013
p70
aVDAL @ CHI
p71
aVW
p72
aI1
aI0
aI0
aF0.0
aI0
aI0
aF0.0
aI0
aI0
aF0.0
aI0
aI0
aI0
aI0
aI0
aI0
aI0
aI0
aI0
aI1
aa(lp73
V0021300503
p74
aVJAN 05, 2014
p75
aVDAL vs. NYK
p76
aVL
p77
aI1
aI0
aI0
aF0.0
aI0
aI0
aF0.0
aI0
aI0
aF0.0
aI0
aI0
aI0
aI0
aI0
aI0
aI0
aI0
aI0
aI0
aa(lp78
V0021300520
p79
aVJAN 08, 2014
p80
aVDAL @ SAS
p81
aVL
p82
aI4
aI0
aI0
aF0.0
aI0
aI0
aF0.0
aI0
aI0
aF0.0
aI0
aI0
aI0
aI0
aI0
aI0
aI0
aI0
aI0
aI6
aa(lp83
V0021300536
p84
aVJAN 10, 2014
p85
aVDAL @ NOP
p86
aVW
p87
aI4
aI0
aI0
aF0.0
aI0
aI0
aF0.0
aI0
aI0
aF0.0
aI0
aI1
aI1
aI0
aI1
aI0
aI0
aI0
aI0
aI3
aa(lp88
V0021300560
p89
aVJAN 13, 2014
p90
aVDAL vs. ORL
p91
aVW
p92
aI1
aI0
aI0
aF0.0
aI0
aI0
aF0.0
aI0
aI0
aF0.0
aI0
aI0
aI0
aI0
aI0
aI1
aI0
aI0
aI0
aI3
aa(lp93
V0021300717
p94
aVFEB 03, 2014
p95
aVDAL vs. CLE
p96
aVW
p97
aI1
aI0
aI0
aF0.0
aI0
aI0
aF0.0
aI0
aI0
aF0.0
aI0
aI0
aI0
aI0
aI0
aI0
aI0
aI0
aI0
aI-2
aa(lp98
V0021300746
p99
aVFEB 07, 2014
p100
aVDAL vs. UTA
p101
aVW
p102
aI4
aI0
aI0
aF0.0
aI0
aI0
aF0.0
aI0
aI0
aF0.0
aI0
aI2
aI2
aI0
aI0
aI0
aI0
aI1
aI0
aI2
aa(lp103
V0021300770
p104
aVFEB 11, 2014
p105
aVDAL @ CHA
p106
aVL
p107
aI5
aI0
aI0
aF0.0
aI0
aI0
aF0.0
aI0
aI0
aF0.0
aI0
aI1
aI1
aI0
aI0
aI2
aI0
aI0
aI0
aI0
aa(lp108
V0021300798
p109
aVFEB 18, 2014
p110
aVDAL vs. MIA
p111
aVL
p112
aI1
aI0
aI0
aF0.0
aI0
aI0
aF0.0
aI0
aI0
aF0.0
aI1
aI0
aI1
aI1
aI0
aI0
aI0
aI0
aI0
aI3
aa(lp113
V0021300817
p114
aVFEB 21, 2014
p115
aVDAL @ PHI
p116
aVW
p117
aI2
aI1
aI1
aF1.0
aI0
aI0
aF0.0
aI0
aI0
aF0.0
aI0
aI0
aI0
aI1
aI0
aI0
aI0
aI1
aI2
aI-6
aa(lp118
V0021300856
p119
aVFEB 26, 2014
p120
aVDAL vs. NOP
p121
aVW
p122
aI2
aI0
aI0
aF0.0
aI0
aI0
aF0.0
aI0
aI0
aF0.0
aI0
aI0
aI0
aI0
aI0
aI0
aI0
aI0
aI0
aI0
aa(lp123
V0021300912
p124
aVMAR 05, 2014
p125
aVDAL @ DEN
p126
aVL
p127
aI10
aI0
aI1
aF0.0
aI0
aI0
aF0.0
aI0
aI0
aF0.0
aI0
aI4
aI4
aI0
aI1
aI0
aI1
aI5
aI0
aI7
aa(lp128
V0021300956
p129
aVMAR 11, 2014
p130
aVDAL @ GSW
p131
aVL
p132
aI4
aI1
aI1
aF1.0
aI0
aI0
aF0.0
aI0
aI3
aF0.0
aI2
aI0
aI2
aI0
aI0
aI1
aI3
aI2
aI2
aI-4
aa(lp133
V0021300964
p134
aVMAR 12, 2014
p135
aVDAL @ UTA
p136
aVW
p137
aI7
aI0
aI1
aF0.0
aI0
aI0
aF0.0
aI0
aI0
aF0.0
aI0
aI0
aI0
aI0
aI0
aI0
aI0
aI2
aI0
aI1
aa(lp138
V0021300992
p139
aVMAR 16, 2014
p140
aVDAL @ OKC
p141
aVW
p142
aI4
aI0
aI0
aF0.0
aI0
aI0
aF0.0
aI0
aI0
aF0.0
aI0
aI0
aI0
aI0
aI0
aI0
aI0
aI0
aI0
aI-3
aa(lp143
V0021301028
p144
aVMAR 21, 2014
p145
aVDAL vs. DEN
p146
aVW
p147
aI1
aI0
aI0
aF0.0
aI0
aI0
aF0.0
aI0
aI0
aF0.0
aI1
aI0
aI1
aI0
aI0
aI0
aI1
aI0
aI0
aI-2
aa(lp148
V0021301174
p149
aVAPR 10, 2014
p150
aVDAL vs. SAS
p151
aVL
p152
aI1
aI0
aI0
aF0.0
aI0
aI0
aF0.0
aI0
aI0
aF0.0
aI0
aI0
aI0
aI0
aI0
aI0
aI0
aI0
aI0
aI0
aasS'name'
p153
VBernard James
p154
sS'weight'
p155
V235
p156
sS'age'
p157
I28
sS'experience'
p158
I1
sS'height'
p159
V6-10
p160
sS'position'
p161
VCenter
p162
s.