(dp0
S'stats'
p1
(lp2
(lp3
V0021300012
p4
aVOCT 30, 2013
p5
aVDAL vs. ATL
p6
aVW
p7
aI9
aI1
aI1
aF1.0
aI1
aI1
aF1.0
aI0
aI0
aF0.0
aI0
aI1
aI1
aI1
aI0
aI0
aI0
aI1
aI3
aI-6
aa(lp8
V0021300025
p9
aVNOV 01, 2013
p10
aVDAL @ HOU
p11
aVL
p12
aI13
aI5
aI8
aF0.625
aI5
aI7
aF0.714
aI0
aI0
aF0.0
aI0
aI1
aI1
aI0
aI0
aI1
aI0
aI3
aI15
aI-2
aa(lp13
V0021300036
p14
aVNOV 02, 2013
p15
aVDAL vs. MEM
p16
aVW
p17
aI16
aI0
aI2
aF0.0
aI0
aI0
aF0.0
aI0
aI0
aF0.0
aI1
aI2
aI3
aI1
aI0
aI1
aI1
aI0
aI0
aI4
aa(lp18
V0021300056
p19
aVNOV 05, 2013
p20
aVDAL vs. LAL
p21
aVW
p22
aI24
aI7
aI9
aF0.778
aI4
aI6
aF0.667
aI0
aI0
aF0.0
aI0
aI4
aI4
aI1
aI0
aI0
aI0
aI3
aI18
aI7
aa(lp23
V0021300069
p24
aVNOV 06, 2013
p25
aVDAL @ OKC
p26
aVL
p27
aI25
aI6
aI8
aF0.75
aI3
aI5
aF0.6
aI2
aI3
aF0.667
aI2
aI1
aI3
aI0
aI2
aI0
aI1
aI1
aI17
aI-4
aa(lp28
V0021300080
p29
aVNOV 08, 2013
p30
aVDAL @ MIN
p31
aVL
p32
aI32
aI5
aI10
aF0.5
aI0
aI2
aF0.0
aI0
aI2
aF0.0
aI2
aI4
aI6
aI1
aI0
aI0
aI0
aI0
aI10
aI12
aa(lp33
V0021300092
p34
aVNOV 09, 2013
p35
aVDAL @ MIL
p36
aVW
p37
aI16
aI2
aI5
aF0.4
aI0
aI1
aF0.0
aI0
aI0
aF0.0
aI0
aI2
aI2
aI1
aI2
aI1
aI1
aI2
aI4
aI6
aa(lp38
V0021300108
p39
aVNOV 12, 2013
p40
aVDAL vs. WAS
p41
aVW
p42
aI18
aI2
aI5
aF0.4
aI0
aI2
aF0.0
aI0
aI1
aF0.0
aI0
aI1
aI1
aI3
aI1
aI0
aI0
aI1
aI4
aI8
aa(lp43
V0021300130
p44
aVNOV 15, 2013
p45
aVDAL @ MIA
p46
aVL
p47
aI16
aI0
aI1
aF0.0
aI0
aI1
aF0.0
aI0
aI0
aF0.0
aI0
aI1
aI1
aI1
aI0
aI1
aI1
aI2
aI0
aI-15
aa(lp48
V0021300137
p49
aVNOV 16, 2013
p50
aVDAL @ ORL
p51
aVW
p52
aI17
aI3
aI5
aF0.6
aI1
aI3
aF0.333
aI0
aI0
aF0.0
aI1
aI2
aI3
aI1
aI2
aI0
aI0
aI1
aI7
aI8
aa(lp53
V0021300153
p54
aVNOV 18, 2013
p55
aVDAL vs. PHI
p56
aVW
p57
aI20
aI1
aI8
aF0.125
aI0
aI5
aF0.0
aI0
aI0
aF0.0
aI0
aI6
aI6
aI2
aI0
aI1
aI3
aI1
aI2
aI-2
aa(lp58
V0021300172
p59
aVNOV 20, 2013
p60
aVDAL vs. HOU
p61
aVW
p62
aI12
aI0
aI1
aF0.0
aI0
aI0
aF0.0
aI0
aI0
aF0.0
aI0
aI1
aI1
aI0
aI0
aI0
aI0
aI1
aI0
aI3
aa(lp63
V0021300184
p64
aVNOV 22, 2013
p65
aVDAL vs. UTA
p66
aVW
p67
aI17
aI1
aI2
aF0.5
aI1
aI2
aF0.5
aI0
aI0
aF0.0
aI0
aI1
aI1
aI1
aI1
aI0
aI1
aI1
aI3
aI0
aa(lp68
V0021300195
p69
aVNOV 23, 2013
p70
aVDAL @ DEN
p71
aVL
p72
aI13
aI0
aI3
aF0.0
aI0
aI3
aF0.0
aI0
aI0
aF0.0
aI0
aI0
aI0
aI2
aI0
aI0
aI2
aI2
aI0
aI3
aa(lp73
V0021300207
p74
aVNOV 25, 2013
p75
aVDAL vs. DEN
p76
aVL
p77
aI12
aI2
aI5
aF0.4
aI2
aI4
aF0.5
aI0
aI0
aF0.0
aI0
aI1
aI1
aI0
aI0
aI0
aI1
aI2
aI6
aI0
aa(lp78
V0021300225
p79
aVNOV 27, 2013
p80
aVDAL vs. GSW
p81
aVW
p82
aI18
aI4
aI7
aF0.571
aI3
aI4
aF0.75
aI1
aI1
aF1.0
aI1
aI5
aI6
aI2
aI0
aI0
aI0
aI0
aI12
aI19
aa(lp83
V0021300231
p84
aVNOV 29, 2013
p85
aVDAL @ ATL
p86
aVL
p87
aI18
aI1
aI4
aF0.25
aI0
aI2
aF0.0
aI0
aI0
aF0.0
aI0
aI1
aI1
aI1
aI1
aI1
aI0
aI0
aI2
aI1
aa(lp88
V0021300244
p89
aVNOV 30, 2013
p90
aVDAL vs. MIN
p91
aVL
p92
aI13
aI2
aI6
aF0.333
aI1
aI5
aF0.2
aI0
aI0
aF0.0
aI1
aI0
aI1
aI1
aI0
aI0
aI2
aI4
aI5
aI-5
aa(lp93
V0021300266
p94
aVDEC 03, 2013
p95
aVDAL vs. CHA
p96
aVW
p97
aI12
aI1
aI1
aF1.0
aI0
aI0
aF0.0
aI1
aI1
aF1.0
aI0
aI1
aI1
aI1
aI0
aI0
aI0
aI0
aI3
aI8
aa(lp98
V0021300273
p99
aVDEC 04, 2013
p100
aVDAL @ NOP
p101
aVW
p102
aI15
aI2
aI6
aF0.333
aI1
aI2
aF0.5
aI2
aI2
aF1.0
aI1
aI2
aI3
aI0
aI0
aI0
aI2
aI3
aI7
aI6
aa(lp103
V0021300298
p104
aVDEC 07, 2013
p105
aVDAL @ POR
p106
aVW
p107
aI16
aI1
aI2
aF0.5
aI1
aI1
aF1.0
aI0
aI0
aF0.0
aI0
aI2
aI2
aI0
aI3
aI0
aI0
aI0
aI3
aI0
aa(lp108
V0021300309
p109
aVDEC 09, 2013
p110
aVDAL @ SAC
p111
aVL
p112
aI23
aI0
aI3
aF0.0
aI0
aI2
aF0.0
aI0
aI0
aF0.0
aI1
aI6
aI7
aI2
aI0
aI0
aI0
aI1
aI0
aI19
aa(lp113
V0021300326
p114
aVDEC 11, 2013
p115
aVDAL @ GSW
p116
aVL
p117
aI19
aI3
aI6
aF0.5
aI0
aI2
aF0.0
aI0
aI0
aF0.0
aI1
aI1
aI2
aI1
aI2
aI0
aI0
aI0
aI6
aI3
aa(lp118
V0021300348
p119
aVDEC 14, 2013
p120
aVDAL vs. MIL
p121
aVW
p122
aI34
aI2
aI9
aF0.222
aI0
aI4
aF0.0
aI4
aI4
aF1.0
aI1
aI2
aI3
aI2
aI2
aI0
aI2
aI2
aI8
aI7
aa(lp123
V0021300377
p124
aVDEC 18, 2013
p125
aVDAL vs. MEM
p126
aVW
p127
aI21
aI3
aI6
aF0.5
aI0
aI2
aF0.0
aI2
aI2
aF1.0
aI0
aI5
aI5
aI0
aI2
aI2
aI1
aI1
aI8
aI5
aa(lp128
V0021300389
p129
aVDEC 20, 2013
p130
aVDAL vs. TOR
p131
aVL
p132
aI14
aI2
aI4
aF0.5
aI1
aI2
aF0.5
aI0
aI0
aF0.0
aI0
aI6
aI6
aI0
aI0
aI1
aI1
aI0
aI5
aI4
aa(lp133
V0021300400
p134
aVDEC 21, 2013
p135
aVDAL @ PHX
p136
aVL
p137
aI16
aI3
aI8
aF0.375
aI0
aI1
aF0.0
aI2
aI3
aF0.667
aI4
aI2
aI6
aI1
aI1
aI0
aI2
aI1
aI8
aI4
aa(lp138
V0021300412
p139
aVDEC 23, 2013
p140
aVDAL @ HOU
p141
aVW
p142
aI23
aI4
aI7
aF0.571
aI3
aI5
aF0.6
aI0
aI0
aF0.0
aI0
aI0
aI0
aI1
aI2
aI1
aI1
aI0
aI11
aI3
aa(lp143
V0021300425
p144
aVDEC 26, 2013
p145
aVDAL vs. SAS
p146
aVL
p147
aI15
aI0
aI1
aF0.0
aI0
aI1
aF0.0
aI0
aI2
aF0.0
aI0
aI0
aI0
aI0
aI2
aI0
aI1
aI2
aI0
aI-18
aa(lp148
V0021300441
p149
aVDEC 28, 2013
p150
aVDAL @ CHI
p151
aVW
p152
aI16
aI2
aI2
aF1.0
aI2
aI2
aF1.0
aI3
aI3
aF1.0
aI0
aI2
aI2
aI1
aI0
aI1
aI1
aI0
aI9
aI5
aa(lp153
V0021300455
p154
aVDEC 30, 2013
p155
aVDAL @ MIN
p156
aVW
p157
aI17
aI0
aI4
aF0.0
aI0
aI2
aF0.0
aI0
aI0
aF0.0
aI3
aI3
aI6
aI1
aI0
aI1
aI1
aI1
aI0
aI-3
aa(lp158
V0021300468
p159
aVJAN 01, 2014
p160
aVDAL @ WAS
p161
aVW
p162
aI18
aI1
aI2
aF0.5
aI0
aI0
aF0.0
aI2
aI2
aF1.0
aI0
aI3
aI3
aI0
aI0
aI0
aI1
aI0
aI4
aI7
aa(lp163
V0021300486
p164
aVJAN 03, 2014
p165
aVDAL vs. LAC
p166
aVL
p167
aI16
aI0
aI1
aF0.0
aI0
aI1
aF0.0
aI1
aI2
aF0.5
aI0
aI1
aI1
aI0
aI1
aI0
aI0
aI2
aI1
aI4
aa(lp168
V0021300503
p169
aVJAN 05, 2014
p170
aVDAL vs. NYK
p171
aVL
p172
aI12
aI0
aI3
aF0.0
aI0
aI3
aF0.0
aI0
aI0
aF0.0
aI0
aI2
aI2
aI0
aI0
aI0
aI0
aI2
aI0
aI-7
aa(lp173
V0021300516
p174
aVJAN 07, 2014
p175
aVDAL vs. LAL
p176
aVW
p177
aI22
aI2
aI5
aF0.4
aI0
aI2
aF0.0
aI1
aI2
aF0.5
aI0
aI1
aI1
aI1
aI4
aI1
aI0
aI0
aI5
aI3
aa(lp178
V0021300520
p179
aVJAN 08, 2014
p180
aVDAL @ SAS
p181
aVL
p182
aI28
aI2
aI5
aF0.4
aI1
aI3
aF0.333
aI0
aI0
aF0.0
aI1
aI0
aI1
aI1
aI2
aI0
aI0
aI2
aI5
aI-5
aa(lp183
V0021300536
p184
aVJAN 10, 2014
p185
aVDAL @ NOP
p186
aVW
p187
aI40
aI5
aI8
aF0.625
aI2
aI4
aF0.5
aI0
aI0
aF0.0
aI2
aI1
aI3
aI2
aI0
aI1
aI1
aI2
aI12
aI17
aa(lp188
V0021300549
p189
aVJAN 11, 2014
p190
aVDAL vs. NOP
p191
aVW
p192
aI35
aI1
aI5
aF0.2
aI1
aI4
aF0.25
aI2
aI2
aF1.0
aI1
aI1
aI2
aI3
aI4
aI1
aI1
aI4
aI5
aI2
aa(lp193
V0021300560
p194
aVJAN 13, 2014
p195
aVDAL vs. ORL
p196
aVW
p197
aI25
aI6
aI8
aF0.75
aI2
aI3
aF0.667
aI0
aI0
aF0.0
aI0
aI4
aI4
aI1
aI3
aI1
aI0
aI2
aI14
aI15
aa(lp198
V0021300577
p199
aVJAN 15, 2014
p200
aVDAL @ LAC
p201
aVL
p202
aI15
aI1
aI6
aF0.167
aI0
aI2
aF0.0
aI0
aI0
aF0.0
aI2
aI2
aI4
aI1
aI1
aI0
aI1
aI2
aI2
aI1
aa(lp203
V0021300591
p204
aVJAN 17, 2014
p205
aVDAL @ PHX
p206
aVW
p207
aI15
aI0
aI2
aF0.0
aI0
aI0
aF0.0
aI0
aI0
aF0.0
aI1
aI1
aI2
aI0
aI2
aI0
aI0
aI2
aI0
aI3
aa(lp208
V0021300600
p209
aVJAN 18, 2014
p210
aVDAL vs. POR
p211
aVL
p212
aI18
aI5
aI8
aF0.625
aI3
aI6
aF0.5
aI0
aI0
aF0.0
aI0
aI1
aI1
aI0
aI1
aI0
aI1
aI1
aI13
aI20
aa(lp213
V0021300606
p214
aVJAN 20, 2014
p215
aVDAL @ CLE
p216
aVW
p217
aI6
aI0
aI0
aF0.0
aI0
aI0
aF0.0
aI0
aI0
aF0.0
aI0
aI1
aI1
aI1
aI1
aI0
aI0
aI1
aI0
aI2
aa(lp218
V0021300624
p219
aVJAN 22, 2014
p220
aVDAL @ TOR
p221
aVL
p222
aI21
aI2
aI3
aF0.667
aI1
aI2
aF0.5
aI2
aI2
aF1.0
aI1
aI3
aI4
aI0
aI0
aI1
aI2
aI3
aI7
aI3
aa(lp223
V0021300637
p224
aVJAN 24, 2014
p225
aVDAL @ BKN
p226
aVL
p227
aI4
aI0
aI0
aF0.0
aI0
aI0
aF0.0
aI1
aI2
aF0.5
aI0
aI1
aI1
aI0
aI0
aI0
aI0
aI0
aI1
aI1
aa(lp228
V0021300659
p229
aVJAN 26, 2014
p230
aVDAL vs. DET
p231
aVW
p232
aI16
aI1
aI2
aF0.5
aI0
aI1
aF0.0
aI0
aI0
aF0.0
aI1
aI2
aI3
aI0
aI0
aI0
aI0
aI1
aI2
aI10
aa(lp233
V0021300681
p234
aVJAN 29, 2014
p235
aVDAL vs. HOU
p236
aVL
p237
aI10
aI0
aI1
aF0.0
aI0
aI1
aF0.0
aI0
aI2
aF0.0
aI0
aI0
aI0
aI0
aI0
aI0
aI0
aI2
aI0
aI-12
aa(lp238
V0021300693
p239
aVJAN 31, 2014
p240
aVDAL vs. SAC
p241
aVW
p242
aI30
aI3
aI8
aF0.375
aI0
aI3
aF0.0
aI0
aI0
aF0.0
aI1
aI5
aI6
aI3
aI2
aI0
aI0
aI4
aI6
aI-3
aa(lp243
V0021300717
p244
aVFEB 03, 2014
p245
aVDAL vs. CLE
p246
aVW
p247
aI22
aI3
aI9
aF0.333
aI0
aI4
aF0.0
aI2
aI2
aF1.0
aI1
aI2
aI3
aI1
aI0
aI0
aI0
aI3
aI8
aI9
aa(lp248
V0021300730
p249
aVFEB 05, 2014
p250
aVDAL @ MEM
p251
aVW
p252
aI10
aI2
aI2
aF1.0
aI0
aI0
aF0.0
aI0
aI0
aF0.0
aI0
aI1
aI1
aI0
aI0
aI0
aI0
aI1
aI4
aI6
aa(lp253
V0021300746
p254
aVFEB 07, 2014
p255
aVDAL vs. UTA
p256
aVW
p257
aI17
aI0
aI2
aF0.0
aI0
aI1
aF0.0
aI0
aI0
aF0.0
aI0
aI2
aI2
aI2
aI3
aI0
aI1
aI4
aI0
aI10
aa(lp258
V0021300758
p259
aVFEB 09, 2014
p260
aVDAL @ BOS
p261
aVW
p262
aI21
aI1
aI2
aF0.5
aI0
aI1
aF0.0
aI0
aI0
aF0.0
aI0
aI1
aI1
aI0
aI1
aI0
aI0
aI1
aI2
aI1
aa(lp263
V0021300770
p264
aVFEB 11, 2014
p265
aVDAL @ CHA
p266
aVL
p267
aI14
aI2
aI7
aF0.286
aI0
aI3
aF0.0
aI1
aI2
aF0.5
aI1
aI3
aI4
aI0
aI1
aI0
aI1
aI1
aI5
aI-16
aa(lp268
V0021300777
p269
aVFEB 12, 2014
p270
aVDAL @ IND
p271
aVW
p272
aI12
aI0
aI1
aF0.0
aI0
aI0
aF0.0
aI0
aI0
aF0.0
aI0
aI3
aI3
aI0
aI0
aI2
aI0
aI1
aI0
aI8
aa(lp273
V0021300798
p274
aVFEB 18, 2014
p275
aVDAL vs. MIA
p276
aVL
p277
aI14
aI2
aI3
aF0.667
aI1
aI1
aF1.0
aI0
aI0
aF0.0
aI2
aI1
aI3
aI1
aI0
aI0
aI0
aI1
aI5
aI9
aa(lp278
V0021300817
p279
aVFEB 21, 2014
p280
aVDAL @ PHI
p281
aVW
p282
aI12
aI2
aI3
aF0.667
aI0
aI0
aF0.0
aI0
aI0
aF0.0
aI0
aI1
aI1
aI2
aI1
aI0
aI0
aI1
aI4
aI-5
aa(lp283
V0021300843
p284
aVFEB 24, 2014
p285
aVDAL @ NYK
p286
aVW
p287
aI0
aI0
aI0
aF0.0
aI0
aI0
aF0.0
aI0
aI0
aF0.0
aI0
aI0
aI0
aI0
aI0
aI0
aI0
aI0
aI0
aI-3
aa(lp288
V0021300856
p289
aVFEB 26, 2014
p290
aVDAL vs. NOP
p291
aVW
p292
aI2
aI0
aI0
aF0.0
aI0
aI0
aF0.0
aI0
aI0
aF0.0
aI0
aI0
aI0
aI0
aI0
aI0
aI0
aI0
aI0
aI0
aa(lp293
V0021300870
p294
aVFEB 28, 2014
p295
aVDAL vs. CHI
p296
aVL
p297
aI1
aI0
aI0
aF0.0
aI0
aI0
aF0.0
aI0
aI0
aF0.0
aI0
aI0
aI0
aI0
aI0
aI0
aI0
aI0
aI0
aI-2
aa(lp298
V0021300912
p299
aVMAR 05, 2014
p300
aVDAL @ DEN
p301
aVL
p302
aI16
aI2
aI2
aF1.0
aI2
aI2
aF1.0
aI2
aI2
aF1.0
aI1
aI3
aI4
aI1
aI0
aI1
aI2
aI1
aI8
aI1
aa(lp303
V0021300924
p304
aVMAR 07, 2014
p305
aVDAL vs. POR
p306
aVW
p307
aI12
aI1
aI3
aF0.333
aI0
aI1
aF0.0
aI6
aI7
aF0.857
aI0
aI2
aI2
aI0
aI1
aI0
aI0
aI0
aI8
aI13
aa(lp308
V0021300941
p309
aVMAR 09, 2014
p310
aVDAL vs. IND
p311
aVW
p312
aI7
aI1
aI2
aF0.5
aI0
aI0
aF0.0
aI0
aI0
aF0.0
aI0
aI1
aI1
aI0
aI1
aI0
aI0
aI0
aI2
aI3
aa(lp313
V0021300992
p314
aVMAR 16, 2014
p315
aVDAL @ OKC
p316
aVW
p317
aI16
aI0
aI2
aF0.0
aI0
aI1
aF0.0
aI0
aI0
aF0.0
aI1
aI2
aI3
aI1
aI0
aI0
aI0
aI1
aI0
aI4
aa(lp318
V0021301001
p319
aVMAR 17, 2014
p320
aVDAL vs. BOS
p321
aVW
p322
aI8
aI0
aI0
aF0.0
aI0
aI0
aF0.0
aI0
aI0
aF0.0
aI0
aI0
aI0
aI0
aI0
aI0
aI0
aI2
aI0
aI-11
aa(lp323
V0021301014
p324
aVMAR 19, 2014
p325
aVDAL vs. MIN
p326
aVL
p327
aI15
aI2
aI4
aF0.5
aI0
aI0
aF0.0
aI0
aI0
aF0.0
aI0
aI2
aI2
aI3
aI0
aI0
aI0
aI3
aI4
aI14
aa(lp328
V0021301028
p329
aVMAR 21, 2014
p330
aVDAL vs. DEN
p331
aVW
p332
aI18
aI4
aI4
aF1.0
aI4
aI4
aF1.0
aI0
aI0
aF0.0
aI1
aI3
aI4
aI1
aI1
aI0
aI2
aI2
aI12
aI11
aa(lp333
V0021301044
p334
aVMAR 23, 2014
p335
aVDAL vs. BKN
p336
aVL
p337
aI16
aI1
aI6
aF0.167
aI1
aI4
aF0.25
aI2
aI2
aF1.0
aI1
aI2
aI3
aI2
aI1
aI0
aI0
aI1
aI5
aI-7
aa(lp338
V0021301059
p339
aVMAR 25, 2014
p340
aVDAL vs. OKC
p341
aVW
p342
aI12
aI4
aI6
aF0.667
aI2
aI4
aF0.5
aI0
aI0
aF0.0
aI1
aI2
aI3
aI0
aI0
aI0
aI0
aI2
aI10
aI-3
aa(lp343
V0021301074
p344
aVMAR 27, 2014
p345
aVDAL vs. LAC
p346
aVL
p347
aI19
aI5
aI5
aF1.0
aI1
aI1
aF1.0
aI2
aI2
aF1.0
aI0
aI4
aI4
aI0
aI2
aI0
aI0
aI3
aI13
aI17
aa(lp348
V0021301090
p349
aVMAR 29, 2014
p350
aVDAL vs. SAC
p351
aVW
p352
aI12
aI2
aI4
aF0.5
aI0
aI2
aF0.0
aI2
aI2
aF1.0
aI1
aI3
aI4
aI0
aI0
aI0
aI2
aI0
aI6
aI-2
aa(lp353
V0021301112
p354
aVAPR 01, 2014
p355
aVDAL vs. GSW
p356
aVL
p357
aI19
aI0
aI3
aF0.0
aI0
aI2
aF0.0
aI0
aI0
aF0.0
aI0
aI2
aI2
aI2
aI0
aI0
aI0
aI0
aI0
aI15
aa(lp358
V0021301128
p359
aVAPR 03, 2014
p360
aVDAL @ LAC
p361
aVW
p362
aI14
aI2
aI3
aF0.667
aI0
aI1
aF0.0
aI1
aI2
aF0.5
aI1
aI4
aI5
aI1
aI0
aI1
aI1
aI2
aI5
aI13
aa(lp363
V0021301142
p364
aVAPR 04, 2014
p365
aVDAL @ LAL
p366
aVW
p367
aI20
aI0
aI3
aF0.0
aI0
aI3
aF0.0
aI2
aI2
aF1.0
aI2
aI5
aI7
aI0
aI1
aI0
aI0
aI1
aI2
aI10
aa(lp368
V0021301151
p369
aVAPR 06, 2014
p370
aVDAL @ SAC
p371
aVW
p372
aI12
aI0
aI0
aF0.0
aI0
aI0
aF0.0
aI0
aI0
aF0.0
aI2
aI0
aI2
aI0
aI0
aI0
aI0
aI1
aI0
aI-17
aa(lp373
V0021301159
p374
aVAPR 08, 2014
p375
aVDAL @ UTA
p376
aVW
p377
aI11
aI0
aI1
aF0.0
aI0
aI0
aF0.0
aI0
aI0
aF0.0
aI0
aI1
aI1
aI0
aI0
aI0
aI0
aI1
aI0
aI1
aa(lp378
V0021301174
p379
aVAPR 10, 2014
p380
aVDAL vs. SAS
p381
aVL
p382
aI9
aI0
aI1
aF0.0
aI0
aI0
aF0.0
aI0
aI0
aF0.0
aI0
aI2
aI2
aI1
aI0
aI0
aI0
aI0
aI0
aI2
aa(lp383
V0021301195
p384
aVAPR 12, 2014
p385
aVDAL vs. PHX
p386
aVW
p387
aI2
aI0
aI0
aF0.0
aI0
aI0
aF0.0
aI0
aI0
aF0.0
aI0
aI0
aI0
aI0
aI0
aI0
aI0
aI0
aI0
aI5
aa(lp388
V0021301216
p389
aVAPR 16, 2014
p390
aVDAL @ MEM
p391
aVL
p392
aI13
aI0
aI2
aF0.0
aI0
aI2
aF0.0
aI0
aI0
aF0.0
aI2
aI1
aI3
aI0
aI2
aI0
aI0
aI1
aI0
aI16
aasS'name'
p393
VJae Crowder
p394
sS'weight'
p395
V235
p396
sS'age'
p397
I23
sS'experience'
p398
I1
sS'height'
p399
V6-6
p400
sS'position'
p401
VForward
p402
s.