(dp0
S'age'
p1
I22
sS'stats'
p2
(lp3
(lp4
V0021300022
p5
aVNOV 01, 2013
p6
aVPHI @ WAS
p7
aVW
p8
aI10
aI0
aI2
aF0.0
aI0
aI1
aF0.0
aI0
aI0
aF0.0
aI0
aI0
aI0
aI0
aI0
aI1
aI0
aI1
aI0
aI-3
aa(lp9
V0021300034
p10
aVNOV 02, 2013
p11
aVPHI vs. CHI
p12
aVW
p13
aI5
aI0
aI1
aF0.0
aI0
aI1
aF0.0
aI0
aI0
aF0.0
aI1
aI0
aI1
aI1
aI0
aI0
aI1
aI2
aI0
aI-5
aa(lp14
V0021300048
p15
aVNOV 04, 2013
p16
aVPHI vs. GSW
p17
aVL
p18
aI17
aI3
aI7
aF0.429
aI1
aI2
aF0.5
aI0
aI0
aF0.0
aI1
aI3
aI4
aI0
aI0
aI1
aI2
aI1
aI7
aI15
aa(lp19
V0021300063
p20
aVNOV 06, 2013
p21
aVPHI vs. WAS
p22
aVL
p23
aI5
aI0
aI0
aF0.0
aI0
aI0
aF0.0
aI2
aI3
aF0.667
aI1
aI0
aI1
aI1
aI0
aI0
aI0
aI0
aI2
aI-2
aa(lp24
V0021300076
p25
aVNOV 08, 2013
p26
aVPHI vs. CLE
p27
aVW
p28
aI2
aI0
aI0
aF0.0
aI0
aI0
aF0.0
aI0
aI0
aF0.0
aI0
aI0
aI0
aI0
aI0
aI0
aI0
aI0
aI0
aI-10
aa(lp29
V0021300100
p30
aVNOV 11, 2013
p31
aVPHI vs. SAS
p32
aVL
p33
aI12
aI0
aI1
aF0.0
aI0
aI1
aF0.0
aI0
aI0
aF0.0
aI1
aI3
aI4
aI0
aI0
aI0
aI0
aI0
aI0
aI7
aa(lp34
V0021300112
p35
aVNOV 13, 2013
p36
aVPHI vs. HOU
p37
aVW
p38
aI8
aI0
aI0
aF0.0
aI0
aI0
aF0.0
aI1
aI2
aF0.5
aI0
aI1
aI1
aI0
aI0
aI0
aI1
aI1
aI1
aI-1
aa(lp39
V0021300127
p40
aVNOV 15, 2013
p41
aVPHI @ ATL
p42
aVL
p43
aI14
aI2
aI3
aF0.667
aI1
aI2
aF0.5
aI0
aI0
aF0.0
aI0
aI4
aI4
aI0
aI1
aI0
aI2
aI1
aI5
aI-1
aa(lp44
V0021300143
p45
aVNOV 16, 2013
p46
aVPHI @ NOP
p47
aVL
p48
aI24
aI2
aI5
aF0.4
aI0
aI1
aF0.0
aI4
aI5
aF0.8
aI0
aI2
aI2
aI1
aI1
aI0
aI1
aI1
aI8
aI-17
aa(lp49
V0021300153
p50
aVNOV 18, 2013
p51
aVPHI @ DAL
p52
aVL
p53
aI18
aI0
aI3
aF0.0
aI0
aI2
aF0.0
aI0
aI0
aF0.0
aI1
aI1
aI2
aI2
aI0
aI0
aI0
aI3
aI0
aI-17
aa(lp54
V0021300165
p55
aVNOV 20, 2013
p56
aVPHI vs. TOR
p57
aVL
p58
aI14
aI3
aI5
aF0.6
aI0
aI1
aF0.0
aI0
aI0
aF0.0
aI1
aI1
aI2
aI0
aI0
aI0
aI0
aI0
aI6
aI-4
aa(lp59
V0021300177
p60
aVNOV 22, 2013
p61
aVPHI vs. MIL
p62
aVW
p63
aI21
aI7
aI9
aF0.778
aI1
aI1
aF1.0
aI1
aI2
aF0.5
aI3
aI4
aI7
aI1
aI0
aI0
aI0
aI1
aI16
aI14
aa(lp64
V0021300188
p65
aVNOV 23, 2013
p66
aVPHI @ IND
p67
aVL
p68
aI31
aI3
aI7
aF0.429
aI1
aI2
aF0.5
aI3
aI3
aF1.0
aI2
aI2
aI4
aI0
aI2
aI0
aI1
aI1
aI10
aI-2
aa(lp69
V0021300216
p70
aVNOV 27, 2013
p71
aVPHI @ ORL
p72
aVL
p73
aI19
aI3
aI6
aF0.5
aI1
aI3
aF0.333
aI0
aI0
aF0.0
aI1
aI1
aI2
aI2
aI0
aI0
aI0
aI0
aI7
aI-4
aa(lp74
V0021300237
p75
aVNOV 29, 2013
p76
aVPHI vs. NOP
p77
aVL
p78
aI22
aI2
aI6
aF0.333
aI1
aI3
aF0.333
aI0
aI0
aF0.0
aI3
aI3
aI6
aI1
aI1
aI0
aI0
aI0
aI5
aI5
aa(lp79
V0021300250
p80
aVDEC 01, 2013
p81
aVPHI @ DET
p82
aVL
p83
aI28
aI3
aI6
aF0.5
aI0
aI2
aF0.0
aI0
aI0
aF0.0
aI1
aI5
aI6
aI3
aI0
aI0
aI1
aI4
aI6
aI-13
aa(lp84
V0021300261
p85
aVDEC 03, 2013
p86
aVPHI vs. ORL
p87
aVW
p88
aI33
aI4
aI5
aF0.8
aI2
aI2
aF1.0
aI0
aI0
aF0.0
aI1
aI4
aI5
aI1
aI0
aI1
aI0
aI3
aI10
aI10
aa(lp89
V0021300280
p90
aVDEC 06, 2013
p91
aVPHI @ CHA
p92
aVL
p93
aI32
aI5
aI7
aF0.714
aI2
aI3
aF0.667
aI0
aI0
aF0.0
aI1
aI5
aI6
aI0
aI0
aI0
aI2
aI4
aI12
aI0
aa(lp94
V0021300290
p95
aVDEC 07, 2013
p96
aVPHI vs. DEN
p97
aVL
p98
aI34
aI4
aI8
aF0.5
aI2
aI5
aF0.4
aI0
aI0
aF0.0
aI3
aI6
aI9
aI3
aI0
aI0
aI2
aI4
aI10
aI2
aa(lp99
V0021300305
p100
aVDEC 09, 2013
p101
aVPHI vs. LAC
p102
aVL
p103
aI39
aI1
aI7
aF0.143
aI1
aI5
aF0.2
aI5
aI7
aF0.714
aI3
aI2
aI5
aI1
aI3
aI0
aI2
aI2
aI8
aI-12
aa(lp104
V0021300322
p105
aVDEC 11, 2013
p106
aVPHI @ MIN
p107
aVL
p108
aI19
aI2
aI2
aF1.0
aI0
aI0
aF0.0
aI1
aI1
aF1.0
aI0
aI2
aI2
aI0
aI1
aI0
aI2
aI4
aI5
aI-13
aa(lp109
V0021300331
p110
aVDEC 13, 2013
p111
aVPHI @ TOR
p112
aVL
p113
aI26
aI2
aI8
aF0.25
aI0
aI2
aF0.0
aI0
aI0
aF0.0
aI1
aI6
aI7
aI1
aI0
aI0
aI1
aI3
aI4
aI-7
aa(lp114
V0021300347
p115
aVDEC 14, 2013
p116
aVPHI vs. POR
p117
aVL
p118
aI36
aI6
aI9
aF0.667
aI2
aI2
aF1.0
aI3
aI4
aF0.75
aI1
aI2
aI3
aI2
aI2
aI1
aI1
aI1
aI17
aI-24
aa(lp119
V0021300359
p120
aVDEC 16, 2013
p121
aVPHI @ BKN
p122
aVL
p123
aI30
aI2
aI10
aF0.2
aI1
aI6
aF0.167
aI2
aI2
aF1.0
aI1
aI2
aI3
aI1
aI1
aI0
aI2
aI2
aI7
aI-34
aa(lp124
V0021300383
p125
aVDEC 20, 2013
p126
aVPHI vs. BKN
p127
aVW
p128
aI26
aI3
aI4
aF0.75
aI1
aI2
aF0.5
aI0
aI0
aF0.0
aI2
aI3
aI5
aI1
aI0
aI0
aI1
aI2
aI7
aI3
aa(lp129
V0021300398
p130
aVDEC 21, 2013
p131
aVPHI @ MIL
p132
aVL
p133
aI20
aI1
aI5
aF0.2
aI1
aI2
aF0.5
aI0
aI0
aF0.0
aI1
aI2
aI3
aI0
aI0
aI0
aI0
aI0
aI3
aI-4
aa(lp134
V0021300445
p135
aVDEC 28, 2013
p136
aVPHI @ PHX
p137
aVL
p138
aI35
aI2
aI8
aF0.25
aI0
aI2
aF0.0
aI0
aI2
aF0.0
aI4
aI2
aI6
aI4
aI0
aI0
aI0
aI2
aI4
aI-9
aa(lp139
V0021300452
p140
aVDEC 29, 2013
p141
aVPHI @ LAL
p142
aVW
p143
aI16
aI1
aI4
aF0.25
aI0
aI2
aF0.0
aI1
aI2
aF0.5
aI1
aI2
aI3
aI0
aI1
aI0
aI1
aI1
aI3
aI3
aa(lp144
V0021300471
p145
aVJAN 01, 2014
p146
aVPHI @ DEN
p147
aVW
p148
aI17
aI5
aI6
aF0.833
aI1
aI1
aF1.0
aI0
aI0
aF0.0
aI3
aI1
aI4
aI0
aI0
aI0
aI0
aI4
aI11
aI9
aa(lp149
V0021300481
p150
aVJAN 02, 2014
p151
aVPHI @ SAC
p152
aVW
p153
aI22
aI1
aI3
aF0.333
aI1
aI2
aF0.5
aI0
aI0
aF0.0
aI0
aI1
aI1
aI0
aI0
aI2
aI1
aI2
aI3
aI2
aa(lp154
V0021300496
p155
aVJAN 04, 2014
p156
aVPHI @ POR
p157
aVW
p158
aI21
aI1
aI3
aF0.333
aI0
aI2
aF0.0
aI0
aI0
aF0.0
aI0
aI1
aI1
aI0
aI2
aI0
aI0
aI2
aI2
aI4
aa(lp159
V0021300505
p160
aVJAN 06, 2014
p161
aVPHI vs. MIN
p162
aVL
p163
aI33
aI4
aI8
aF0.5
aI0
aI1
aF0.0
aI1
aI1
aF1.0
aI0
aI4
aI4
aI0
aI1
aI0
aI2
aI0
aI9
aI-19
aa(lp164
V0021300509
p165
aVJAN 07, 2014
p166
aVPHI @ CLE
p167
aVL
p168
aI32
aI1
aI4
aF0.25
aI0
aI0
aF0.0
aI2
aI2
aF1.0
aI2
aI3
aI5
aI3
aI1
aI0
aI2
aI1
aI4
aI-19
aa(lp169
V0021300532
p170
aVJAN 10, 2014
p171
aVPHI vs. DET
p172
aVL
p173
aI10
aI0
aI2
aF0.0
aI0
aI1
aF0.0
aI0
aI0
aF0.0
aI1
aI1
aI2
aI1
aI1
aI0
aI0
aI1
aI0
aI-5
aa(lp174
V0021300546
p175
aVJAN 11, 2014
p176
aVPHI vs. NYK
p177
aVL
p178
aI15
aI2
aI3
aF0.667
aI0
aI0
aF0.0
aI0
aI0
aF0.0
aI1
aI2
aI3
aI1
aI0
aI0
aI0
aI0
aI4
aI-8
aa(lp179
V0021300567
p180
aVJAN 15, 2014
p181
aVPHI vs. CHA
p182
aVW
p183
aI12
aI0
aI0
aF0.0
aI0
aI0
aF0.0
aI1
aI2
aF0.5
aI0
aI0
aI0
aI0
aI2
aI0
aI0
aI1
aI1
aI-14
aa(lp184
V0021300583
p185
aVJAN 17, 2014
p186
aVPHI vs. MIA
p187
aVL
p188
aI21
aI4
aI8
aF0.5
aI1
aI4
aF0.25
aI1
aI1
aF1.0
aI3
aI3
aI6
aI0
aI0
aI0
aI0
aI1
aI10
aI2
aa(lp189
V0021300596
p190
aVJAN 18, 2014
p191
aVPHI @ CHI
p192
aVL
p193
aI21
aI2
aI5
aF0.4
aI0
aI1
aF0.0
aI0
aI1
aF0.0
aI1
aI1
aI2
aI0
aI4
aI0
aI0
aI0
aI4
aI-3
aa(lp194
V0021300609
p195
aVJAN 20, 2014
p196
aVPHI @ WAS
p197
aVL
p198
aI37
aI5
aI9
aF0.556
aI2
aI4
aF0.5
aI1
aI2
aF0.5
aI0
aI3
aI3
aI0
aI0
aI0
aI1
aI5
aI13
aI-3
aa(lp199
V0021300626
p200
aVJAN 22, 2014
p201
aVPHI @ NYK
p202
aVW
p203
aI13
aI2
aI3
aF0.667
aI1
aI1
aF1.0
aI0
aI0
aF0.0
aI1
aI5
aI6
aI1
aI0
aI0
aI0
aI3
aI5
aI-3
aa(lp204
V0021300634
p205
aVJAN 24, 2014
p206
aVPHI vs. TOR
p207
aVL
p208
aI24
aI6
aI7
aF0.857
aI2
aI2
aF1.0
aI1
aI1
aF1.0
aI3
aI6
aI9
aI0
aI0
aI0
aI0
aI2
aI15
aI11
aa(lp209
V0021300648
p210
aVJAN 25, 2014
p211
aVPHI vs. OKC
p212
aVL
p213
aI15
aI1
aI2
aF0.5
aI0
aI0
aF0.0
aI1
aI2
aF0.5
aI0
aI2
aI2
aI1
aI1
aI0
aI0
aI0
aI3
aI-5
aa(lp214
V0021300662
p215
aVJAN 27, 2014
p216
aVPHI vs. PHX
p217
aVL
p218
aI19
aI4
aI5
aF0.8
aI2
aI2
aF1.0
aI0
aI0
aF0.0
aI1
aI1
aI2
aI2
aI1
aI0
aI0
aI1
aI10
aI-4
aa(lp219
V0021300678
p220
aVJAN 29, 2014
p221
aVPHI @ BOS
p222
aVW
p223
aI17
aI0
aI0
aF0.0
aI0
aI0
aF0.0
aI4
aI6
aF0.667
aI0
aI1
aI1
aI0
aI0
aI0
aI0
aI3
aI4
aI-15
aa(lp224
V0021300690
p225
aVJAN 31, 2014
p226
aVPHI vs. ATL
p227
aVL
p228
aI25
aI2
aI7
aF0.286
aI1
aI3
aF0.333
aI2
aI2
aF1.0
aI0
aI2
aI2
aI1
aI1
aI0
aI0
aI3
aI7
aI-2
aa(lp229
V0021300700
p230
aVFEB 01, 2014
p231
aVPHI @ DET
p232
aVL
p233
aI25
aI3
aI7
aF0.429
aI1
aI2
aF0.5
aI0
aI1
aF0.0
aI2
aI5
aI7
aI0
aI1
aI0
aI2
aI3
aI7
aI-2
aa(lp234
V0021300712
p235
aVFEB 03, 2014
p236
aVPHI @ BKN
p237
aVL
p238
aI16
aI2
aI3
aF0.667
aI0
aI1
aF0.0
aI0
aI0
aF0.0
aI0
aI1
aI1
aI0
aI0
aI0
aI1
aI3
aI4
aI-10
aa(lp239
V0021300726
p240
aVFEB 05, 2014
p241
aVPHI vs. BOS
p242
aVL
p243
aI22
aI2
aI4
aF0.5
aI2
aI3
aF0.667
aI0
aI0
aF0.0
aI0
aI3
aI3
aI0
aI2
aI0
aI1
aI0
aI6
aI-6
aa(lp244
V0021300741
p245
aVFEB 07, 2014
p246
aVPHI vs. LAL
p247
aVL
p248
aI21
aI2
aI4
aF0.5
aI0
aI1
aF0.0
aI0
aI0
aF0.0
aI0
aI2
aI2
aI1
aI1
aI0
aI2
aI0
aI4
aI-9
aa(lp249
V0021300763
p250
aVFEB 09, 2014
p251
aVPHI @ LAC
p252
aVL
p253
aI22
aI1
aI5
aF0.2
aI0
aI3
aF0.0
aI0
aI0
aF0.0
aI2
aI2
aI4
aI0
aI4
aI0
aI0
aI2
aI2
aI-8
aa(lp254
V0021300817
p255
aVFEB 21, 2014
p256
aVPHI vs. DAL
p257
aVL
p258
aI19
aI3
aI5
aF0.6
aI1
aI1
aF1.0
aI0
aI0
aF0.0
aI2
aI3
aI5
aI0
aI0
aI0
aI2
aI4
aI7
aI-10
aa(lp259
V0021300841
p260
aVFEB 24, 2014
p261
aVPHI vs. MIL
p262
aVL
p263
aI22
aI3
aI7
aF0.429
aI1
aI2
aF0.5
aI1
aI3
aF0.333
aI0
aI1
aI1
aI4
aI2
aI1
aI0
aI0
aI8
aI-18
aa(lp264
V0021300853
p265
aVFEB 26, 2014
p266
aVPHI vs. ORL
p267
aVL
p268
aI25
aI2
aI4
aF0.5
aI2
aI4
aF0.5
aI0
aI0
aF0.0
aI0
aI7
aI7
aI1
aI0
aI1
aI1
aI0
aI6
aI-6
aa(lp269
V0021300875
p270
aVMAR 01, 2014
p271
aVPHI vs. WAS
p272
aVL
p273
aI27
aI3
aI8
aF0.375
aI0
aI3
aF0.0
aI1
aI1
aF1.0
aI1
aI1
aI2
aI0
aI0
aI0
aI3
aI2
aI7
aI-21
aa(lp274
V0021300886
p275
aVMAR 02, 2014
p276
aVPHI @ ORL
p277
aVL
p278
aI25
aI0
aI3
aF0.0
aI0
aI2
aF0.0
aI0
aI0
aF0.0
aI0
aI0
aI0
aI0
aI0
aI0
aI0
aI1
aI0
aI-4
aa(lp279
V0021300901
p280
aVMAR 04, 2014
p281
aVPHI @ OKC
p282
aVL
p283
aI26
aI3
aI6
aF0.5
aI0
aI3
aF0.0
aI0
aI0
aF0.0
aI0
aI1
aI1
aI4
aI1
aI0
aI1
aI4
aI6
aI-26
aa(lp284
V0021300929
p285
aVMAR 08, 2014
p286
aVPHI vs. UTA
p287
aVL
p288
aI17
aI1
aI2
aF0.5
aI0
aI1
aF0.0
aI2
aI2
aF1.0
aI1
aI2
aI3
aI1
aI1
aI0
aI2
aI0
aI4
aI7
aa(lp289
V0021300946
p290
aVMAR 10, 2014
p291
aVPHI @ NYK
p292
aVL
p293
aI23
aI2
aI6
aF0.333
aI1
aI4
aF0.25
aI0
aI0
aF0.0
aI0
aI2
aI2
aI1
aI0
aI0
aI0
aI2
aI5
aI3
aa(lp294
V0021300959
p295
aVMAR 12, 2014
p296
aVPHI vs. SAC
p297
aVL
p298
aI28
aI2
aI5
aF0.4
aI1
aI3
aF0.333
aI0
aI0
aF0.0
aI0
aI2
aI2
aI2
aI0
aI0
aI0
aI5
aI5
aI-1
aa(lp299
V0021300973
p300
aVMAR 14, 2014
p301
aVPHI vs. IND
p302
aVL
p303
aI33
aI3
aI5
aF0.6
aI2
aI4
aF0.5
aI0
aI0
aF0.0
aI0
aI1
aI1
aI1
aI1
aI0
aI0
aI0
aI8
aI-1
aa(lp304
V0021300985
p305
aVMAR 15, 2014
p306
aVPHI vs. MEM
p307
aVL
p308
aI25
aI0
aI5
aF0.0
aI0
aI1
aF0.0
aI0
aI0
aF0.0
aI3
aI1
aI4
aI1
aI0
aI0
aI1
aI1
aI0
aI-14
aa(lp309
V0021300997
p310
aVMAR 17, 2014
p311
aVPHI @ IND
p312
aVL
p313
aI41
aI6
aI7
aF0.857
aI4
aI4
aF1.0
aI1
aI1
aF1.0
aI2
aI4
aI6
aI3
aI1
aI1
aI1
aI5
aI17
aI-6
aa(lp314
V0021301008
p315
aVMAR 19, 2014
p316
aVPHI vs. CHI
p317
aVL
p318
aI19
aI0
aI1
aF0.0
aI0
aI1
aF0.0
aI2
aI2
aF1.0
aI0
aI1
aI1
aI1
aI0
aI0
aI0
aI2
aI2
aI1
aa(lp319
V0021301023
p320
aVMAR 21, 2014
p321
aVPHI vs. NYK
p322
aVL
p323
aI12
aI1
aI4
aF0.25
aI0
aI2
aF0.0
aI0
aI0
aF0.0
aI0
aI1
aI1
aI0
aI0
aI0
aI1
aI0
aI2
aI-4
aa(lp324
V0021301034
p325
aVMAR 22, 2014
p326
aVPHI @ CHI
p327
aVL
p328
aI32
aI1
aI5
aF0.2
aI0
aI2
aF0.0
aI4
aI4
aF1.0
aI1
aI2
aI3
aI1
aI1
aI0
aI1
aI2
aI6
aI-4
aa(lp329
V0021301054
p330
aVMAR 24, 2014
p331
aVPHI @ SAS
p332
aVL
p333
aI37
aI3
aI7
aF0.429
aI2
aI4
aF0.5
aI0
aI0
aF0.0
aI1
aI0
aI1
aI1
aI1
aI0
aI1
aI2
aI8
aI0
aa(lp334
V0021301072
p335
aVMAR 27, 2014
p336
aVPHI @ HOU
p337
aVL
p338
aI20
aI2
aI4
aF0.5
aI2
aI3
aF0.667
aI0
aI0
aF0.0
aI1
aI4
aI5
aI1
aI0
aI0
aI2
aI5
aI6
aI-7
aa(lp339
V0021301087
p340
aVMAR 29, 2014
p341
aVPHI vs. DET
p342
aVW
p343
aI22
aI5
aI8
aF0.625
aI4
aI4
aF1.0
aI0
aI0
aF0.0
aI1
aI4
aI5
aI3
aI3
aI0
aI0
aI1
aI14
aI13
aa(lp344
V0021301103
p345
aVMAR 31, 2014
p346
aVPHI @ ATL
p347
aVL
p348
aI25
aI2
aI3
aF0.667
aI1
aI1
aF1.0
aI0
aI1
aF0.0
aI0
aI3
aI3
aI2
aI0
aI0
aI1
aI3
aI5
aI-4
aa(lp349
V0021301117
p350
aVAPR 02, 2014
p351
aVPHI vs. CHA
p352
aVL
p353
aI26
aI3
aI5
aF0.6
aI1
aI2
aF0.5
aI2
aI2
aF1.0
aI1
aI1
aI2
aI0
aI0
aI0
aI1
aI4
aI9
aI-22
aa(lp354
V0021301133
p355
aVAPR 04, 2014
p356
aVPHI @ BOS
p357
aVW
p358
aI30
aI2
aI8
aF0.25
aI2
aI4
aF0.5
aI0
aI0
aF0.0
aI2
aI2
aI4
aI1
aI2
aI0
aI2
aI2
aI6
aI13
aa(lp359
V0021301147
p360
aVAPR 05, 2014
p361
aVPHI vs. BKN
p362
aVL
p363
aI27
aI6
aI9
aF0.667
aI6
aI8
aF0.75
aI0
aI0
aF0.0
aI0
aI2
aI2
aI1
aI0
aI0
aI3
aI4
aI18
aI-16
aa(lp364
V0021301164
p365
aVAPR 09, 2014
p366
aVPHI @ TOR
p367
aVL
p368
aI31
aI3
aI6
aF0.5
aI2
aI5
aF0.4
aI0
aI0
aF0.0
aI1
aI1
aI2
aI1
aI0
aI1
aI0
aI5
aI8
aI2
aa(lp369
V0021301182
p370
aVAPR 11, 2014
p371
aVPHI @ MEM
p372
aVL
p373
aI25
aI1
aI3
aF0.333
aI1
aI3
aF0.333
aI0
aI0
aF0.0
aI0
aI1
aI1
aI1
aI3
aI0
aI1
aI1
aI3
aI-3
aa(lp374
V0021301190
p375
aVAPR 12, 2014
p376
aVPHI @ CHA
p377
aVL
p378
aI27
aI1
aI4
aF0.25
aI1
aI3
aF0.333
aI0
aI0
aF0.0
aI1
aI4
aI5
aI2
aI0
aI1
aI0
aI5
aI3
aI-3
aa(lp379
V0021301204
p380
aVAPR 14, 2014
p381
aVPHI vs. BOS
p382
aVW
p383
aI15
aI1
aI2
aF0.5
aI0
aI1
aF0.0
aI2
aI3
aF0.667
aI0
aI2
aI2
aI0
aI0
aI0
aI0
aI3
aI4
aI0
aa(lp384
V0021301225
p385
aVAPR 16, 2014
p386
aVPHI @ MIA
p387
aVW
p388
aI27
aI1
aI4
aF0.25
aI1
aI3
aF0.333
aI0
aI0
aF0.0
aI0
aI3
aI3
aI3
aI2
aI1
aI1
aI0
aI3
aI0
aasS'name'
p389
VHollis Thompson
p390
sS'experience'
p391
I0
s.