(dp0
S'age'
p1
I24
sS'stats'
p2
(lp3
(lp4
V0021301218
p5
aVAPR 16, 2014
p6
aVMIN vs. UTA
p7
aVL
p8
aI32
aI3
aI5
aF0.6
aI2
aI2
aF1.0
aI2
aI2
aF1.0
aI2
aI7
aI9
aI1
aI2
aI0
aI0
aI2
aI10
aI9
aa(lp9
V0021301213
p10
aVAPR 14, 2014
p11
aVMIN @ GSW
p12
aVL
p13
aI7
aI1
aI2
aF0.5
aI1
aI1
aF1.0
aI0
aI0
aF0.0
aI0
aI2
aI2
aI1
aI0
aI0
aI0
aI0
aI3
aI-3
aa(lp14
V0021301202
p15
aVAPR 13, 2014
p16
aVMIN @ SAC
p17
aVL
p18
aI17
aI1
aI3
aF0.333
aI1
aI2
aF0.5
aI0
aI0
aF0.0
aI1
aI0
aI1
aI1
aI0
aI0
aI0
aI3
aI3
aI9
aa(lp19
V0021301183
p20
aVAPR 11, 2014
p21
aVMIN vs. HOU
p22
aVW
p23
aI29
aI2
aI8
aF0.25
aI1
aI3
aF0.333
aI0
aI0
aF0.0
aI1
aI1
aI2
aI3
aI1
aI0
aI0
aI2
aI5
aI8
aa(lp24
V0021301169
p25
aVAPR 09, 2014
p26
aVMIN vs. CHI
p27
aVL
p28
aI32
aI3
aI6
aF0.5
aI0
aI1
aF0.0
aI1
aI1
aF1.0
aI2
aI3
aI5
aI0
aI0
aI0
aI0
aI1
aI7
aI-19
aa(lp29
V0021300275
p30
aVAPR 08, 2014
p31
aVMIN vs. SAS
p32
aVW
p33
aI35
aI4
aI10
aF0.4
aI1
aI4
aF0.25
aI0
aI0
aF0.0
aI3
aI4
aI7
aI0
aI1
aI0
aI1
aI2
aI9
aI13
aa(lp34
V0021301143
p35
aVAPR 05, 2014
p36
aVMIN @ ORL
p37
aVL
p38
aI33
aI4
aI10
aF0.4
aI0
aI3
aF0.0
aI4
aI4
aF1.0
aI1
aI5
aI6
aI2
aI1
aI0
aI1
aI2
aI12
aI-3
aa(lp39
V0021301135
p40
aVAPR 04, 2014
p41
aVMIN @ MIA
p42
aVW
p43
aI13
aI1
aI4
aF0.25
aI1
aI3
aF0.333
aI0
aI0
aF0.0
aI1
aI1
aI2
aI1
aI1
aI0
aI1
aI1
aI3
aI6
aa(lp44
V0021301122
p45
aVAPR 02, 2014
p46
aVMIN vs. MEM
p47
aVW
p48
aI2
aI0
aI0
aF0.0
aI0
aI0
aF0.0
aI0
aI0
aF0.0
aI0
aI0
aI0
aI0
aI0
aI0
aI0
aI0
aI0
aI-2
aa(lp49
V0021301107
p50
aVMAR 31, 2014
p51
aVMIN vs. LAC
p52
aVL
p53
aI23
aI4
aI8
aF0.5
aI3
aI4
aF0.75
aI0
aI0
aF0.0
aI0
aI2
aI2
aI3
aI1
aI0
aI1
aI3
aI11
aI16
aa(lp54
V0021301095
p55
aVMAR 30, 2014
p56
aVMIN @ BKN
p57
aVL
p58
aI3
aI0
aI1
aF0.0
aI0
aI0
aF0.0
aI0
aI0
aF0.0
aI0
aI0
aI0
aI0
aI0
aI0
aI0
aI0
aI0
aI-5
aa(lp59
V0021301081
p60
aVMAR 28, 2014
p61
aVMIN vs. LAL
p62
aVW
p63
aI9
aI0
aI0
aF0.0
aI0
aI0
aF0.0
aI0
aI0
aF0.0
aI0
aI1
aI1
aI0
aI0
aI0
aI0
aI0
aI0
aI3
aa(lp64
V0021301065
p65
aVMAR 26, 2014
p66
aVMIN vs. ATL
p67
aVW
p68
aI12
aI3
aI6
aF0.5
aI2
aI3
aF0.667
aI1
aI2
aF0.5
aI0
aI0
aI0
aI1
aI1
aI0
aI0
aI3
aI9
aI10
aa(lp69
V0021301051
p70
aVMAR 24, 2014
p71
aVMIN @ MEM
p72
aVL
p73
aI5
aI2
aI2
aF1.0
aI2
aI2
aF1.0
aI0
aI0
aF0.0
aI0
aI1
aI1
aI0
aI0
aI0
aI0
aI0
aI6
aI2
aa(lp74
V0021301019
p75
aVMAR 20, 2014
p76
aVMIN @ HOU
p77
aVL
p78
aI10
aI1
aI2
aF0.5
aI1
aI1
aF1.0
aI0
aI0
aF0.0
aI0
aI1
aI1
aI0
aI0
aI0
aI0
aI2
aI3
aI-13
aa(lp79
V0021301014
p80
aVMAR 19, 2014
p81
aVMIN @ DAL
p82
aVW
p83
aI21
aI2
aI6
aF0.333
aI2
aI5
aF0.4
aI0
aI0
aF0.0
aI0
aI4
aI4
aI0
aI0
aI0
aI0
aI2
aI6
aI-9
aa(lp84
V0021300991
p85
aVMAR 16, 2014
p86
aVMIN vs. SAC
p87
aVW
p88
aI10
aI2
aI4
aF0.5
aI0
aI1
aF0.0
aI2
aI2
aF1.0
aI0
aI0
aI0
aI0
aI1
aI0
aI0
aI2
aI6
aI3
aa(lp89
V0021300971
p90
aVMAR 14, 2014
p91
aVMIN @ CHA
p92
aVL
p93
aI2
aI0
aI0
aF0.0
aI0
aI0
aF0.0
aI0
aI0
aF0.0
aI0
aI2
aI2
aI0
aI0
aI0
aI0
aI0
aI0
aI-1
aa(lp94
V0021300954
p95
aVMAR 11, 2014
p96
aVMIN vs. MIL
p97
aVW
p98
aI2
aI0
aI1
aF0.0
aI0
aI0
aF0.0
aI0
aI0
aF0.0
aI0
aI0
aI0
aI0
aI0
aI0
aI0
aI0
aI0
aI-6
aa(lp99
V0021300851
p100
aVFEB 25, 2014
p101
aVMIN @ PHX
p102
aVW
p103
aI5
aI0
aI2
aF0.0
aI0
aI2
aF0.0
aI0
aI0
aF0.0
aI0
aI0
aI0
aI0
aI0
aI0
aI0
aI1
aI0
aI-5
aa(lp104
V0021300840
p105
aVFEB 23, 2014
p106
aVMIN @ POR
p107
aVL
p108
aI14
aI1
aI3
aF0.333
aI0
aI2
aF0.0
aI0
aI0
aF0.0
aI2
aI6
aI8
aI0
aI0
aI0
aI2
aI1
aI2
aI10
aa(lp109
V0021300830
p110
aVFEB 22, 2014
p111
aVMIN @ UTA
p112
aVW
p113
aI8
aI1
aI4
aF0.25
aI1
aI2
aF0.5
aI0
aI0
aF0.0
aI0
aI1
aI1
aI0
aI0
aI0
aI0
aI1
aI3
aI1
aa(lp114
V0021300805
p115
aVFEB 19, 2014
p116
aVMIN vs. IND
p117
aVW
p118
aI1
aI0
aI0
aF0.0
aI0
aI0
aF0.0
aI0
aI0
aF0.0
aI0
aI0
aI0
aI0
aI0
aI0
aI0
aI0
aI0
aI0
aa(lp119
V0021300786
p120
aVFEB 12, 2014
p121
aVMIN vs. DEN
p122
aVW
p123
aI6
aI0
aI2
aF0.0
aI0
aI0
aF0.0
aI0
aI0
aF0.0
aI0
aI2
aI2
aI0
aI0
aI0
aI0
aI2
aI0
aI-5
aa(lp124
V0021300752
p125
aVFEB 08, 2014
p126
aVMIN vs. POR
p127
aVL
p128
aI5
aI0
aI0
aF0.0
aI0
aI0
aF0.0
aI0
aI0
aF0.0
aI1
aI1
aI2
aI0
aI0
aI0
aI1
aI0
aI0
aI-4
aa(lp129
V0021300732
p130
aVFEB 05, 2014
p131
aVMIN @ OKC
p132
aVL
p133
aI17
aI2
aI5
aF0.4
aI1
aI3
aF0.333
aI0
aI0
aF0.0
aI0
aI1
aI1
aI1
aI0
aI1
aI0
aI0
aI5
aI-3
aa(lp134
V0021300505
p135
aVJAN 06, 2014
p136
aVMIN @ PHI
p137
aVW
p138
aI20
aI1
aI5
aF0.2
aI1
aI3
aF0.333
aI0
aI0
aF0.0
aI3
aI5
aI8
aI1
aI1
aI0
aI0
aI2
aI3
aI5
aa(lp139
V0021300493
p140
aVJAN 04, 2014
p141
aVMIN vs. OKC
p142
aVL
p143
aI7
aI0
aI1
aF0.0
aI0
aI0
aF0.0
aI0
aI0
aF0.0
aI1
aI1
aI2
aI0
aI0
aI0
aI0
aI1
aI0
aI-1
aa(lp144
V0021300470
p145
aVJAN 01, 2014
p146
aVMIN vs. NOP
p147
aVW
p148
aI4
aI0
aI2
aF0.0
aI0
aI1
aF0.0
aI0
aI0
aF0.0
aI0
aI0
aI0
aI0
aI0
aI0
aI0
aI0
aI0
aI-11
aa(lp149
V0021300455
p150
aVDEC 30, 2013
p151
aVMIN vs. DAL
p152
aVL
p153
aI6
aI0
aI2
aF0.0
aI0
aI2
aF0.0
aI0
aI0
aF0.0
aI0
aI0
aI0
aI0
aI0
aI0
aI0
aI0
aI0
aI7
aa(lp154
V0021300444
p155
aVDEC 28, 2013
p156
aVMIN @ MIL
p157
aVW
p158
aI5
aI1
aI1
aF1.0
aI0
aI0
aF0.0
aI0
aI0
aF0.0
aI0
aI0
aI0
aI0
aI0
aI0
aI0
aI0
aI2
aI3
aa(lp159
V0021300431
p160
aVDEC 27, 2013
p161
aVMIN vs. WAS
p162
aVW
p163
aI2
aI1
aI1
aF1.0
aI0
aI0
aF0.0
aI0
aI0
aF0.0
aI0
aI1
aI1
aI0
aI0
aI0
aI0
aI0
aI2
aI1
aa(lp164
V0021300406
p165
aVDEC 22, 2013
p166
aVMIN @ LAC
p167
aVL
p168
aI13
aI1
aI4
aF0.25
aI0
aI2
aF0.0
aI0
aI0
aF0.0
aI2
aI2
aI4
aI0
aI0
aI0
aI0
aI0
aI2
aI1
aa(lp169
V0021300358
p170
aVDEC 16, 2013
p171
aVMIN @ BOS
p172
aVL
p173
aI19
aI1
aI4
aF0.25
aI0
aI1
aF0.0
aI0
aI0
aF0.0
aI2
aI2
aI4
aI0
aI0
aI0
aI0
aI1
aI2
aI-4
aa(lp174
V0021300351
p175
aVDEC 15, 2013
p176
aVMIN @ MEM
p177
aVW
p178
aI18
aI1
aI3
aF0.333
aI1
aI2
aF0.5
aI0
aI0
aF0.0
aI1
aI5
aI6
aI2
aI0
aI0
aI0
aI0
aI3
aI-2
aa(lp179
V0021300338
p180
aVDEC 13, 2013
p181
aVMIN @ SAS
p182
aVL
p183
aI7
aI0
aI2
aF0.0
aI0
aI1
aF0.0
aI0
aI0
aF0.0
aI0
aI1
aI1
aI0
aI0
aI0
aI0
aI0
aI0
aI-6
aa(lp184
V0021300322
p185
aVDEC 11, 2013
p186
aVMIN vs. PHI
p187
aVW
p188
aI12
aI4
aI6
aF0.667
aI2
aI3
aF0.667
aI0
aI0
aF0.0
aI0
aI3
aI3
aI0
aI0
aI0
aI0
aI0
aI10
aI16
aa(lp189
V0021300315
p190
aVDEC 10, 2013
p191
aVMIN @ DET
p192
aVW
p193
aI10
aI4
aI6
aF0.667
aI0
aI0
aF0.0
aI0
aI0
aF0.0
aI2
aI1
aI3
aI0
aI0
aI0
aI0
aI1
aI8
aI7
aa(lp194
V0021300294
p195
aVDEC 07, 2013
p196
aVMIN vs. MIA
p197
aVL
p198
aI12
aI2
aI3
aF0.667
aI2
aI2
aF1.0
aI2
aI2
aF1.0
aI1
aI2
aI3
aI0
aI0
aI0
aI0
aI1
aI8
aI-8
aa(lp199
V0021300253
p200
aVDEC 01, 2013
p201
aVMIN @ OKC
p202
aVL
p203
aI1
aI0
aI0
aF0.0
aI0
aI0
aF0.0
aI0
aI0
aF0.0
aI1
aI0
aI1
aI0
aI0
aI0
aI0
aI0
aI0
aI0
aa(lp204
V0021300223
p205
aVNOV 27, 2013
p206
aVMIN vs. DEN
p207
aVL
p208
aI2
aI0
aI1
aF0.0
aI0
aI0
aF0.0
aI0
aI0
aF0.0
aI0
aI0
aI0
aI0
aI0
aI0
aI1
aI2
aI0
aI-9
aa(lp209
V0021300203
p210
aVNOV 25, 2013
p211
aVMIN @ IND
p212
aVL
p213
aI11
aI0
aI1
aF0.0
aI0
aI0
aF0.0
aI0
aI0
aF0.0
aI2
aI1
aI3
aI0
aI2
aI0
aI0
aI3
aI0
aI4
aa(lp214
V0021300192
p215
aVNOV 23, 2013
p216
aVMIN @ HOU
p217
aVL
p218
aI8
aI0
aI2
aF0.0
aI0
aI1
aF0.0
aI0
aI0
aF0.0
aI2
aI1
aI3
aI1
aI0
aI0
aI0
aI1
aI0
aI-1
aa(lp219
V0021300182
p220
aVNOV 22, 2013
p221
aVMIN vs. BKN
p222
aVW
p223
aI23
aI2
aI9
aF0.222
aI1
aI8
aF0.125
aI0
aI0
aF0.0
aI0
aI4
aI4
aI1
aI1
aI0
aI0
aI2
aI5
aI2
aa(lp224
V0021300168
p225
aVNOV 20, 2013
p226
aVMIN vs. LAC
p227
aVL
p228
aI14
aI1
aI5
aF0.2
aI0
aI3
aF0.0
aI2
aI2
aF1.0
aI1
aI4
aI5
aI0
aI1
aI0
aI1
aI2
aI4
aI-2
aa(lp229
V0021300156
p230
aVNOV 19, 2013
p231
aVMIN @ WAS
p232
aVL
p233
aI22
aI2
aI3
aF0.667
aI2
aI2
aF1.0
aI1
aI1
aF1.0
aI0
aI6
aI6
aI1
aI0
aI0
aI0
aI1
aI7
aI3
aa(lp234
V0021300142
p235
aVNOV 16, 2013
p236
aVMIN vs. BOS
p237
aVW
p238
aI20
aI3
aI7
aF0.429
aI2
aI5
aF0.4
aI0
aI0
aF0.0
aI1
aI4
aI5
aI1
aI0
aI1
aI0
aI4
aI8
aI14
aa(lp239
V0021300131
p240
aVNOV 15, 2013
p241
aVMIN @ DEN
p242
aVL
p243
aI13
aI0
aI2
aF0.0
aI0
aI2
aF0.0
aI0
aI0
aF0.0
aI1
aI2
aI3
aI1
aI1
aI0
aI0
aI0
aI0
aI2
aa(lp244
V0021300115
p245
aVNOV 13, 2013
p246
aVMIN vs. CLE
p247
aVW
p248
aI28
aI4
aI6
aF0.667
aI2
aI4
aF0.5
aI0
aI0
aF0.0
aI0
aI4
aI4
aI1
aI0
aI0
aI0
aI3
aI10
aI23
aa(lp249
V0021300097
p250
aVNOV 10, 2013
p251
aVMIN @ LAL
p252
aVW
p253
aI2
aI1
aI1
aF1.0
aI0
aI0
aF0.0
aI0
aI0
aF0.0
aI1
aI1
aI2
aI0
aI0
aI0
aI1
aI0
aI2
aI0
aa(lp254
V0021300080
p255
aVNOV 08, 2013
p256
aVMIN vs. DAL
p257
aVW
p258
aI11
aI1
aI3
aF0.333
aI0
aI2
aF0.0
aI0
aI0
aF0.0
aI0
aI0
aI0
aI0
aI0
aI0
aI0
aI1
aI2
aI-9
aa(lp259
V0021300067
p260
aVNOV 06, 2013
p261
aVMIN vs. GSW
p262
aVL
p263
aI1
aI0
aI0
aF0.0
aI0
aI0
aF0.0
aI0
aI0
aF0.0
aI0
aI0
aI0
aI0
aI0
aI0
aI0
aI0
aI0
aI3
aa(lp264
V0021300027
p265
aVNOV 01, 2013
p266
aVMIN vs. OKC
p267
aVW
p268
aI7
aI0
aI3
aF0.0
aI0
aI1
aF0.0
aI0
aI0
aF0.0
aI0
aI2
aI2
aI0
aI1
aI0
aI0
aI2
aI0
aI-14
aasS'name'
p269
VRobbie Hummel
p270
sS'experience'
p271
I0
s.