(dp0
S'age'
p1
I22
sS'stats'
p2
(lp3
(lp4
V0021300889
p5
aVMAR 02, 2014
p6
aVATL @ PHX
p7
aVL
p8
aI19
aI2
aI6
aF0.333
aI0
aI1
aF0.0
aI0
aI0
aF0.0
aI1
aI4
aI5
aI0
aI0
aI2
aI1
aI2
aI4
aI-12
aa(lp9
V0021300913
p10
aVMAR 05, 2014
p11
aVATL @ POR
p12
aVL
p13
aI15
aI2
aI6
aF0.333
aI0
aI0
aF0.0
aI0
aI0
aF0.0
aI2
aI2
aI4
aI0
aI1
aI1
aI0
aI4
aI4
aI-10
aa(lp14
V0021300927
p15
aVMAR 07, 2014
p16
aVATL @ GSW
p17
aVL
p18
aI11
aI0
aI0
aF0.0
aI0
aI0
aF0.0
aI0
aI0
aF0.0
aI0
aI2
aI2
aI1
aI1
aI0
aI0
aI4
aI0
aI-2
aa(lp19
V0021300948
p20
aVMAR 10, 2014
p21
aVATL @ UTA
p22
aVW
p23
aI6
aI2
aI4
aF0.5
aI0
aI0
aF0.0
aI0
aI0
aF0.0
aI1
aI1
aI2
aI0
aI0
aI0
aI1
aI1
aI4
aI8
aa(lp24
V0021300969
p25
aVMAR 13, 2014
p26
aVATL vs. MIL
p27
aVW
p28
aI3
aI0
aI1
aF0.0
aI0
aI0
aF0.0
aI0
aI0
aF0.0
aI1
aI0
aI1
aI0
aI0
aI0
aI0
aI1
aI0
aI-7
aa(lp29
V0021300996
p30
aVMAR 17, 2014
p31
aVATL @ CHA
p32
aVW
p33
aI4
aI1
aI2
aF0.5
aI0
aI0
aF0.0
aI1
aI1
aF1.0
aI0
aI1
aI1
aI0
aI0
aI0
aI0
aI1
aI3
aI-8
aa(lp34
V0021301004
p35
aVMAR 18, 2014
p36
aVATL vs. TOR
p37
aVW
p38
aI4
aI0
aI2
aF0.0
aI0
aI0
aF0.0
aI0
aI0
aF0.0
aI0
aI1
aI1
aI0
aI0
aI0
aI0
aI0
aI0
aI1
aa(lp39
V0021301025
p40
aVMAR 21, 2014
p41
aVATL vs. NOP
p42
aVL
p43
aI5
aI1
aI3
aF0.333
aI0
aI0
aF0.0
aI0
aI0
aF0.0
aI1
aI1
aI2
aI0
aI0
aI1
aI1
aI1
aI2
aI2
aa(lp44
V0021301048
p45
aVMAR 24, 2014
p46
aVATL vs. PHX
p47
aVL
p48
aI5
aI0
aI2
aF0.0
aI0
aI0
aF0.0
aI0
aI0
aF0.0
aI0
aI1
aI1
aI0
aI0
aI1
aI1
aI3
aI0
aI-2
aa(lp49
V0021301065
p50
aVMAR 26, 2014
p51
aVATL @ MIN
p52
aVL
p53
aI24
aI3
aI8
aF0.375
aI0
aI1
aF0.0
aI2
aI2
aF1.0
aI0
aI4
aI4
aI0
aI1
aI1
aI0
aI1
aI8
aI-21
aa(lp54
V0021301071
p55
aVMAR 27, 2014
p56
aVATL vs. POR
p57
aVL
p58
aI18
aI3
aI9
aF0.333
aI0
aI0
aF0.0
aI0
aI0
aF0.0
aI3
aI1
aI4
aI0
aI0
aI0
aI0
aI2
aI6
aI-6
aa(lp59
V0021301089
p60
aVMAR 29, 2014
p61
aVATL @ WAS
p62
aVL
p63
aI22
aI1
aI6
aF0.167
aI0
aI0
aF0.0
aI0
aI0
aF0.0
aI4
aI4
aI8
aI1
aI0
aI1
aI2
aI3
aI2
aI-28
aa(lp64
V0021301103
p65
aVMAR 31, 2014
p66
aVATL vs. PHI
p67
aVW
p68
aI4
aI1
aI2
aF0.5
aI0
aI0
aF0.0
aI0
aI0
aF0.0
aI0
aI2
aI2
aI0
aI0
aI0
aI1
aI1
aI2
aI-3
aa(lp69
V0021301120
p70
aVAPR 02, 2014
p71
aVATL vs. CHI
p72
aVL
p73
aI12
aI2
aI4
aF0.5
aI0
aI1
aF0.0
aI4
aI4
aF1.0
aI2
aI1
aI3
aI0
aI0
aI0
aI0
aI0
aI8
aI-6
aa(lp74
V0021301132
p75
aVAPR 04, 2014
p76
aVATL vs. CLE
p77
aVW
p78
aI3
aI1
aI2
aF0.5
aI0
aI0
aF0.0
aI0
aI0
aF0.0
aI0
aI1
aI1
aI0
aI0
aI0
aI1
aI0
aI2
aI-2
aa(lp79
V0021301166
p80
aVAPR 09, 2014
p81
aVATL vs. BOS
p82
aVW
p83
aI4
aI1
aI1
aF1.0
aI0
aI0
aF0.0
aI0
aI0
aF0.0
aI1
aI0
aI1
aI0
aI0
aI0
aI1
aI0
aI2
aI0
aa(lp84
V0021301179
p85
aVAPR 11, 2014
p86
aVATL @ BKN
p87
aVW
p88
aI8
aI2
aI2
aF1.0
aI0
aI0
aF0.0
aI2
aI2
aF1.0
aI1
aI1
aI2
aI1
aI0
aI1
aI0
aI1
aI6
aI14
aa(lp89
V0021301192
p90
aVAPR 12, 2014
p91
aVATL vs. MIA
p92
aVW
p93
aI2
aI0
aI0
aF0.0
aI0
aI0
aF0.0
aI0
aI0
aF0.0
aI0
aI0
aI0
aI0
aI0
aI0
aI0
aI0
aI0
aI-3
aa(lp94
V0021301207
p95
aVAPR 14, 2014
p96
aVATL vs. CHA
p97
aVL
p98
aI21
aI3
aI5
aF0.6
aI0
aI0
aF0.0
aI2
aI2
aF1.0
aI0
aI4
aI4
aI1
aI0
aI0
aI1
aI2
aI8
aI-11
aa(lp99
V0021301217
p100
aVAPR 16, 2014
p101
aVATL @ MIL
p102
aVW
p103
aI25
aI6
aI8
aF0.75
aI0
aI0
aF0.0
aI3
aI3
aF1.0
aI0
aI4
aI4
aI3
aI0
aI2
aI2
aI2
aI15
aI4
aasS'name'
p104
VMike Muscala
p105
sS'experience'
p106
I0
s.