(dp0
S'age'
p1
I20
sS'stats'
p2
(lp3
(lp4
V0021300015
p5
aVOCT 30, 2013
p6
aVPHX vs. POR
p7
aVW
p8
aI8
aI1
aI1
aF1.0
aI0
aI0
aF0.0
aI0
aI0
aF0.0
aI1
aI1
aI2
aI0
aI0
aI1
aI1
aI3
aI2
aI-5
aa(lp9
V0021300030
p10
aVNOV 01, 2013
p11
aVPHX vs. UTA
p12
aVW
p13
aI13
aI1
aI3
aF0.333
aI0
aI0
aF0.0
aI1
aI2
aF0.5
aI1
aI0
aI1
aI0
aI1
aI1
aI1
aI4
aI3
aI1
aa(lp14
V0021300160
p15
aVNOV 19, 2013
p16
aVPHX @ SAC
p17
aVL
p18
aI5
aI0
aI1
aF0.0
aI0
aI0
aF0.0
aI0
aI0
aF0.0
aI0
aI0
aI0
aI1
aI1
aI0
aI0
aI1
aI0
aI-1
aa(lp19
V0021300171
p20
aVNOV 20, 2013
p21
aVPHX vs. SAC
p22
aVL
p23
aI5
aI1
aI2
aF0.5
aI0
aI0
aF0.0
aI0
aI0
aF0.0
aI3
aI1
aI4
aI0
aI0
aI0
aI1
aI0
aI2
aI-8
aa(lp24
V0021300513
p25
aVJAN 07, 2014
p26
aVPHX @ CHI
p27
aVL
p28
aI6
aI1
aI1
aF1.0
aI0
aI0
aF0.0
aI1
aI2
aF0.5
aI1
aI1
aI2
aI0
aI0
aI0
aI1
aI1
aI3
aI-2
aa(lp29
V0021300524
p30
aVJAN 08, 2014
p31
aVPHX @ MIN
p32
aVW
p33
aI12
aI1
aI3
aF0.333
aI0
aI0
aF0.0
aI0
aI0
aF0.0
aI4
aI1
aI5
aI0
aI0
aI0
aI0
aI1
aI2
aI-5
aa(lp34
V0021300534
p35
aVJAN 10, 2014
p36
aVPHX @ MEM
p37
aVL
p38
aI5
aI1
aI3
aF0.333
aI0
aI0
aF0.0
aI0
aI0
aF0.0
aI1
aI2
aI3
aI0
aI0
aI1
aI0
aI1
aI2
aI-6
aa(lp39
V0021300545
p40
aVJAN 11, 2014
p41
aVPHX @ DET
p42
aVL
p43
aI7
aI0
aI1
aF0.0
aI0
aI0
aF0.0
aI0
aI0
aF0.0
aI3
aI1
aI4
aI0
aI0
aI0
aI0
aI5
aI0
aI1
aa(lp44
V0021300557
p45
aVJAN 13, 2014
p46
aVPHX @ NYK
p47
aVL
p48
aI0
aI0
aI0
aF0.0
aI0
aI0
aF0.0
aI0
aI0
aF0.0
aI0
aI0
aI0
aI0
aI0
aI0
aI0
aI0
aI0
aI0
aa(lp49
V0021300574
p50
aVJAN 15, 2014
p51
aVPHX vs. LAL
p52
aVW
p53
aI4
aI1
aI3
aF0.333
aI0
aI0
aF0.0
aI0
aI0
aF0.0
aI1
aI2
aI3
aI0
aI0
aI1
aI0
aI1
aI2
aI0
aa(lp54
V0021300591
p55
aVJAN 17, 2014
p56
aVPHX vs. DAL
p57
aVL
p58
aI1
aI0
aI1
aF0.0
aI0
aI0
aF0.0
aI0
aI0
aF0.0
aI0
aI0
aI0
aI0
aI0
aI0
aI0
aI1
aI0
aI-6
aa(lp59
V0021300605
p60
aVJAN 19, 2014
p61
aVPHX vs. DEN
p62
aVW
p63
aI16
aI3
aI4
aF0.75
aI0
aI0
aF0.0
aI3
aI4
aF0.75
aI4
aI2
aI6
aI0
aI0
aI0
aI1
aI0
aI9
aI16
aa(lp64
V0021300629
p65
aVJAN 22, 2014
p66
aVPHX vs. IND
p67
aVW
p68
aI5
aI0
aI1
aF0.0
aI0
aI0
aF0.0
aI0
aI0
aF0.0
aI0
aI1
aI1
aI0
aI0
aI0
aI1
aI1
aI0
aI-2
aa(lp69
V0021300643
p70
aVJAN 24, 2014
p71
aVPHX vs. WAS
p72
aVL
p73
aI6
aI1
aI1
aF1.0
aI0
aI0
aF0.0
aI2
aI2
aF1.0
aI0
aI1
aI1
aI0
aI0
aI0
aI1
aI0
aI4
aI2
aa(lp74
V0021300657
p75
aVJAN 26, 2014
p76
aVPHX @ CLE
p77
aVW
p78
aI6
aI0
aI0
aF0.0
aI0
aI0
aF0.0
aI0
aI0
aF0.0
aI0
aI1
aI1
aI0
aI0
aI0
aI0
aI2
aI0
aI-7
aa(lp79
V0021300662
p80
aVJAN 27, 2014
p81
aVPHX @ PHI
p82
aVW
p83
aI14
aI2
aI2
aF1.0
aI0
aI0
aF0.0
aI2
aI2
aF1.0
aI0
aI2
aI2
aI0
aI0
aI1
aI2
aI1
aI6
aI6
aa(lp84
V0021300679
p85
aVJAN 29, 2014
p86
aVPHX @ MIL
p87
aVW
p88
aI22
aI3
aI4
aF0.75
aI0
aI0
aF0.0
aI1
aI1
aF1.0
aI3
aI7
aI10
aI0
aI0
aI1
aI1
aI4
aI7
aI11
aa(lp89
V0021300686
p90
aVJAN 30, 2014
p91
aVPHX @ IND
p92
aVW
p93
aI14
aI0
aI4
aF0.0
aI0
aI0
aF0.0
aI0
aI0
aF0.0
aI1
aI4
aI5
aI0
aI1
aI0
aI0
aI4
aI0
aI-5
aa(lp94
V0021300706
p95
aVFEB 01, 2014
p96
aVPHX vs. CHA
p97
aVW
p98
aI19
aI1
aI3
aF0.333
aI0
aI0
aF0.0
aI0
aI0
aF0.0
aI1
aI2
aI3
aI0
aI0
aI1
aI0
aI4
aI2
aI-13
aa(lp99
V0021300729
p100
aVFEB 05, 2014
p101
aVPHX @ HOU
p102
aVL
p103
aI15
aI1
aI3
aF0.333
aI0
aI0
aF0.0
aI0
aI0
aF0.0
aI0
aI1
aI1
aI0
aI0
aI0
aI1
aI3
aI2
aI11
aa(lp104
V0021300774
p105
aVFEB 11, 2014
p106
aVPHX vs. MIA
p107
aVL
p108
aI6
aI0
aI0
aF0.0
aI0
aI0
aF0.0
aI0
aI0
aF0.0
aI0
aI2
aI2
aI0
aI0
aI1
aI0
aI1
aI0
aI-4
aa(lp109
V0021300799
p110
aVFEB 18, 2014
p111
aVPHX @ DEN
p112
aVW
p113
aI9
aI0
aI3
aF0.0
aI0
aI0
aF0.0
aI0
aI0
aF0.0
aI2
aI1
aI3
aI0
aI0
aI2
aI1
aI3
aI0
aI-11
aa(lp114
V0021300807
p115
aVFEB 19, 2014
p116
aVPHX vs. BOS
p117
aVW
p118
aI7
aI1
aI2
aF0.5
aI0
aI0
aF0.0
aI0
aI0
aF0.0
aI0
aI1
aI1
aI0
aI0
aI0
aI0
aI0
aI2
aI6
aa(lp119
V0021300822
p120
aVFEB 21, 2014
p121
aVPHX vs. SAS
p122
aVW
p123
aI7
aI1
aI2
aF0.5
aI0
aI0
aF0.0
aI0
aI0
aF0.0
aI0
aI0
aI0
aI0
aI0
aI0
aI0
aI1
aI2
aI-5
aa(lp124
V0021300838
p125
aVFEB 23, 2014
p126
aVPHX vs. HOU
p127
aVL
p128
aI1
aI0
aI0
aF0.0
aI0
aI0
aF0.0
aI0
aI0
aF0.0
aI0
aI0
aI0
aI0
aI0
aI0
aI0
aI1
aI0
aI-3
aa(lp129
V0021300860
p130
aVFEB 26, 2014
p131
aVPHX @ UTA
p132
aVL
p133
aI11
aI0
aI0
aF0.0
aI0
aI0
aF0.0
aI1
aI4
aF0.25
aI1
aI0
aI1
aI0
aI0
aI1
aI2
aI3
aI1
aI0
aa(lp134
V0021300902
p135
aVMAR 04, 2014
p136
aVPHX vs. LAC
p137
aVL
p138
aI19
aI3
aI8
aF0.375
aI0
aI0
aF0.0
aI0
aI0
aF0.0
aI2
aI4
aI6
aI0
aI0
aI0
aI1
aI3
aI6
aI-7
aa(lp139
V0021300915
p140
aVMAR 06, 2014
p141
aVPHX vs. OKC
p142
aVW
p143
aI11
aI2
aI3
aF0.667
aI0
aI0
aF0.0
aI2
aI3
aF0.667
aI3
aI0
aI3
aI0
aI0
aI0
aI0
aI5
aI6
aI-12
aa(lp144
V0021300942
p145
aVMAR 09, 2014
p146
aVPHX @ GSW
p147
aVL
p148
aI15
aI0
aI0
aF0.0
aI0
aI0
aF0.0
aI3
aI4
aF0.75
aI0
aI3
aI3
aI1
aI0
aI1
aI1
aI2
aI3
aI-4
aa(lp149
V0021300949
p150
aVMAR 10, 2014
p151
aVPHX @ LAC
p152
aVL
p153
aI3
aI1
aI1
aF1.0
aI0
aI0
aF0.0
aI0
aI0
aF0.0
aI0
aI0
aI0
aI0
aI0
aI0
aI1
aI0
aI2
aI-4
aa(lp154
V0021300975
p155
aVMAR 14, 2014
p156
aVPHX @ BOS
p157
aVW
p158
aI9
aI2
aI2
aF1.0
aI0
aI0
aF0.0
aI2
aI3
aF0.667
aI1
aI2
aI3
aI1
aI0
aI1
aI0
aI0
aI6
aI10
aa(lp159
V0021300988
p160
aVMAR 16, 2014
p161
aVPHX @ TOR
p162
aVW
p163
aI8
aI0
aI1
aF0.0
aI0
aI0
aF0.0
aI0
aI0
aF0.0
aI0
aI2
aI2
aI0
aI0
aI0
aI1
aI2
aI0
aI8
aa(lp164
V0021300998
p165
aVMAR 17, 2014
p166
aVPHX @ BKN
p167
aVL
p168
aI8
aI0
aI0
aF0.0
aI0
aI0
aF0.0
aI0
aI0
aF0.0
aI0
aI2
aI2
aI0
aI0
aI0
aI1
aI1
aI0
aI3
aa(lp169
V0021301016
p170
aVMAR 19, 2014
p171
aVPHX vs. ORL
p172
aVW
p173
aI11
aI4
aI5
aF0.8
aI0
aI0
aF0.0
aI1
aI2
aF0.5
aI2
aI3
aI5
aI1
aI0
aI0
aI0
aI2
aI9
aI-3
aa(lp174
V0021301029
p175
aVMAR 21, 2014
p176
aVPHX vs. DET
p177
aVW
p178
aI13
aI0
aI2
aF0.0
aI0
aI0
aF0.0
aI0
aI0
aF0.0
aI1
aI2
aI3
aI0
aI0
aI3
aI1
aI1
aI0
aI2
aa(lp179
V0021301041
p180
aVMAR 23, 2014
p181
aVPHX @ MIN
p182
aVW
p183
aI5
aI0
aI2
aF0.0
aI0
aI0
aF0.0
aI1
aI2
aF0.5
aI1
aI0
aI1
aI0
aI0
aI0
aI1
aI2
aI1
aI2
aa(lp184
V0021301048
p185
aVMAR 24, 2014
p186
aVPHX @ ATL
p187
aVW
p188
aI3
aI0
aI0
aF0.0
aI0
aI0
aF0.0
aI0
aI0
aF0.0
aI0
aI0
aI0
aI0
aI0
aI0
aI1
aI1
aI0
aI-4
aa(lp189
V0021301062
p190
aVMAR 26, 2014
p191
aVPHX @ WAS
p192
aVW
p193
aI4
aI0
aI0
aF0.0
aI0
aI0
aF0.0
aI0
aI0
aF0.0
aI0
aI1
aI1
aI0
aI0
aI1
aI0
aI1
aI0
aI-1
aa(lp194
V0021301085
p195
aVMAR 28, 2014
p196
aVPHX vs. NYK
p197
aVW
p198
aI6
aI1
aI2
aF0.5
aI0
aI0
aF0.0
aI0
aI0
aF0.0
aI2
aI2
aI4
aI0
aI0
aI0
aI1
aI1
aI2
aI-5
aa(lp199
V0021301100
p200
aVMAR 30, 2014
p201
aVPHX @ LAL
p202
aVL
p203
aI3
aI0
aI0
aF0.0
aI0
aI0
aF0.0
aI0
aI0
aF0.0
aI0
aI0
aI0
aI0
aI0
aI0
aI1
aI0
aI0
aI-7
aa(lp204
V0021301186
p205
aVAPR 11, 2014
p206
aVPHX @ SAS
p207
aVL
p208
aI2
aI0
aI0
aF0.0
aI0
aI0
aF0.0
aI0
aI0
aF0.0
aI0
aI1
aI1
aI0
aI0
aI0
aI0
aI0
aI0
aI2
aa(lp209
V0021301229
p210
aVAPR 16, 2014
p211
aVPHX @ SAC
p212
aVW
p213
aI16
aI0
aI4
aF0.0
aI0
aI0
aF0.0
aI0
aI0
aF0.0
aI0
aI4
aI4
aI0
aI1
aI1
aI2
aI1
aI0
aI-7
aasS'name'
p214
VAlex Len
p215
sS'experience'
p216
I0
s.