(dp0
S'age'
p1
I25
sS'stats'
p2
(lp3
(lp4
V0021300107
p5
aVNOV 12, 2013
p6
aVMIL @ MIA
p7
aVL
p8
aI11
aI0
aI0
aF0.0
aI0
aI0
aF0.0
aI0
aI0
aF0.0
aI0
aI1
aI1
aI1
aI0
aI0
aI0
aI1
aI0
aI3
aa(lp9
V0021300111
p10
aVNOV 13, 2013
p11
aVMIL @ ORL
p12
aVL
p13
aI6
aI1
aI1
aF1.0
aI0
aI0
aF0.0
aI0
aI0
aF0.0
aI0
aI1
aI1
aI0
aI0
aI0
aI1
aI3
aI2
aI-6
aa(lp14
V0021300125
p15
aVNOV 15, 2013
p16
aVMIL @ IND
p17
aVL
p18
aI18
aI0
aI2
aF0.0
aI0
aI0
aF0.0
aI4
aI6
aF0.667
aI2
aI4
aI6
aI1
aI0
aI2
aI0
aI3
aI4
aI-18
aa(lp19
V0021300193
p20
aVNOV 23, 2013
p21
aVMIL vs. CHA
p22
aVL
p23
aI6
aI1
aI2
aF0.5
aI0
aI0
aF0.0
aI0
aI0
aF0.0
aI0
aI0
aI0
aI1
aI0
aI0
aI0
aI1
aI2
aI-1
aa(lp24
V0021300204
p25
aVNOV 25, 2013
p26
aVMIL @ DET
p27
aVL
p28
aI5
aI1
aI1
aF1.0
aI0
aI0
aF0.0
aI0
aI0
aF0.0
aI1
aI0
aI1
aI1
aI0
aI0
aI0
aI0
aI2
aI-1
aa(lp29
V0021300228
p30
aVNOV 29, 2013
p31
aVMIL @ CHA
p32
aVL
p33
aI4
aI0
aI1
aF0.0
aI0
aI0
aF0.0
aI0
aI0
aF0.0
aI0
aI1
aI1
aI0
aI0
aI0
aI1
aI1
aI0
aI1
aa(lp34
V0021300272
p35
aVDEC 04, 2013
p36
aVMIL vs. DET
p37
aVL
p38
aI2
aI1
aI1
aF1.0
aI0
aI0
aF0.0
aI0
aI0
aF0.0
aI0
aI1
aI1
aI1
aI0
aI0
aI1
aI2
aI2
aI-3
aa(lp39
V0021300295
p40
aVDEC 07, 2013
p41
aVMIL vs. BKN
p42
aVL
p43
aI9
aI3
aI5
aF0.6
aI0
aI0
aF0.0
aI2
aI2
aF1.0
aI1
aI1
aI2
aI1
aI0
aI0
aI1
aI2
aI8
aI-1
aa(lp44
V0021300316
p45
aVDEC 10, 2013
p46
aVMIL @ CHI
p47
aVW
p48
aI1
aI0
aI0
aF0.0
aI0
aI0
aF0.0
aI0
aI0
aF0.0
aI0
aI0
aI0
aI0
aI0
aI0
aI0
aI0
aI0
aI-3
aa(lp49
V0021300321
p50
aVDEC 11, 2013
p51
aVMIL vs. SAS
p52
aVL
p53
aI23
aI4
aI7
aF0.571
aI0
aI0
aF0.0
aI2
aI2
aF1.0
aI6
aI1
aI7
aI1
aI0
aI2
aI0
aI1
aI10
aI1
aa(lp54
V0021300337
p55
aVDEC 13, 2013
p56
aVMIL vs. CHI
p57
aVL
p58
aI3
aI0
aI2
aF0.0
aI0
aI0
aF0.0
aI0
aI0
aF0.0
aI2
aI0
aI2
aI0
aI0
aI0
aI0
aI2
aI0
aI-1
aa(lp59
V0021300348
p60
aVDEC 14, 2013
p61
aVMIL @ DAL
p62
aVL
p63
aI14
aI6
aI8
aF0.75
aI0
aI0
aF0.0
aI0
aI0
aF0.0
aI1
aI1
aI2
aI1
aI0
aI0
aI1
aI1
aI12
aI7
aa(lp64
V0021300385
p65
aVDEC 20, 2013
p66
aVMIL @ CLE
p67
aVL
p68
aI17
aI2
aI6
aF0.333
aI0
aI0
aF0.0
aI3
aI5
aF0.6
aI3
aI1
aI4
aI0
aI0
aI2
aI1
aI4
aI7
aI-4
aa(lp69
V0021300398
p70
aVDEC 21, 2013
p71
aVMIL vs. PHI
p72
aVW
p73
aI22
aI5
aI7
aF0.714
aI0
aI0
aF0.0
aI4
aI4
aF1.0
aI2
aI2
aI4
aI1
aI2
aI0
aI4
aI3
aI14
aI16
aa(lp74
V0021300407
p75
aVDEC 23, 2013
p76
aVMIL @ CHA
p77
aVL
p78
aI19
aI3
aI3
aF1.0
aI0
aI0
aF0.0
aI2
aI2
aF1.0
aI0
aI4
aI4
aI0
aI0
aI1
aI1
aI3
aI8
aI13
aa(lp79
V0021300429
p80
aVDEC 27, 2013
p81
aVMIL @ BKN
p82
aVL
p83
aI6
aI1
aI1
aF1.0
aI0
aI0
aF0.0
aI0
aI0
aF0.0
aI0
aI0
aI0
aI0
aI0
aI0
aI0
aI0
aI2
aI4
aa(lp84
V0021300444
p85
aVDEC 28, 2013
p86
aVMIL vs. MIN
p87
aVL
p88
aI14
aI3
aI6
aF0.5
aI0
aI0
aF0.0
aI2
aI2
aF1.0
aI4
aI1
aI5
aI1
aI0
aI0
aI1
aI1
aI8
aI-10
aa(lp89
V0021300467
p90
aVDEC 31, 2013
p91
aVMIL @ LAL
p92
aVW
p93
aI13
aI1
aI3
aF0.333
aI0
aI0
aF0.0
aI0
aI0
aF0.0
aI0
aI2
aI2
aI1
aI0
aI0
aI0
aI3
aI2
aI-5
aa(lp94
V0021300479
p95
aVJAN 02, 2014
p96
aVMIL @ UTA
p97
aVL
p98
aI13
aI3
aI5
aF0.6
aI0
aI0
aF0.0
aI1
aI1
aF1.0
aI1
aI1
aI2
aI0
aI0
aI0
aI0
aI4
aI7
aI-5
aa(lp99
V0021300495
p100
aVJAN 04, 2014
p101
aVMIL @ PHX
p102
aVL
p103
aI3
aI0
aI0
aF0.0
aI0
aI0
aF0.0
aI0
aI0
aF0.0
aI0
aI1
aI1
aI0
aI0
aI0
aI0
aI0
aI0
aI4
aa(lp104
V0021300515
p105
aVJAN 07, 2014
p106
aVMIL vs. GSW
p107
aVL
p108
aI2
aI2
aI2
aF1.0
aI0
aI0
aF0.0
aI0
aI0
aF0.0
aI0
aI0
aI0
aI0
aI0
aI0
aI0
aI1
aI4
aI-1
aa(lp109
V0021300538
p110
aVJAN 10, 2014
p111
aVMIL vs. CHI
p112
aVL
p113
aI21
aI3
aI4
aF0.75
aI0
aI0
aF0.0
aI4
aI4
aF1.0
aI4
aI1
aI5
aI0
aI0
aI1
aI0
aI3
aI10
aI3
aa(lp114
V0021300548
p115
aVJAN 11, 2014
p116
aVMIL @ OKC
p117
aVL
p118
aI17
aI3
aI6
aF0.5
aI0
aI0
aF0.0
aI3
aI3
aF1.0
aI1
aI2
aI3
aI0
aI1
aI0
aI0
aI5
aI9
aI-8
aa(lp119
V0021300555
p120
aVJAN 13, 2014
p121
aVMIL @ TOR
p122
aVL
p123
aI4
aI2
aI3
aF0.667
aI0
aI0
aF0.0
aI1
aI2
aF0.5
aI0
aI1
aI1
aI0
aI1
aI0
aI0
aI1
aI5
aI7
aa(lp124
V0021300570
p125
aVJAN 15, 2014
p126
aVMIL vs. MEM
p127
aVL
p128
aI5
aI0
aI0
aF0.0
aI0
aI0
aF0.0
aI1
aI2
aF0.5
aI0
aI0
aI0
aI0
aI0
aI0
aI1
aI1
aI1
aI-9
aa(lp129
V0021300597
p130
aVJAN 18, 2014
p131
aVMIL @ HOU
p132
aVL
p133
aI8
aI0
aI1
aF0.0
aI0
aI0
aF0.0
aI0
aI0
aF0.0
aI1
aI0
aI1
aI0
aI0
aI0
aI1
aI1
aI0
aI-3
aa(lp134
V0021300604
p135
aVJAN 19, 2014
p136
aVMIL @ SAS
p137
aVL
p138
aI7
aI1
aI3
aF0.333
aI0
aI0
aF0.0
aI0
aI0
aF0.0
aI1
aI2
aI3
aI0
aI0
aI0
aI1
aI2
aI2
aI-18
aa(lp139
V0021300628
p140
aVJAN 22, 2014
p141
aVMIL vs. DET
p142
aVW
p143
aI20
aI4
aI5
aF0.8
aI0
aI0
aF0.0
aI0
aI0
aF0.0
aI3
aI5
aI8
aI2
aI2
aI0
aI1
aI3
aI8
aI17
aa(lp144
V0021300638
p145
aVJAN 24, 2014
p146
aVMIL @ CLE
p147
aVL
p148
aI16
aI1
aI3
aF0.333
aI0
aI0
aF0.0
aI2
aI2
aF1.0
aI1
aI0
aI1
aI1
aI0
aI0
aI0
aI3
aI4
aI3
aa(lp149
V0021300650
p150
aVJAN 25, 2014
p151
aVMIL vs. ATL
p152
aVL
p153
aI11
aI0
aI2
aF0.0
aI0
aI0
aF0.0
aI0
aI0
aF0.0
aI1
aI0
aI1
aI1
aI0
aI0
aI0
aI1
aI0
aI4
aa(lp154
V0021300665
p155
aVJAN 27, 2014
p156
aVMIL vs. LAC
p157
aVL
p158
aI23
aI4
aI6
aF0.667
aI0
aI0
aF0.0
aI3
aI4
aF0.75
aI4
aI2
aI6
aI1
aI0
aI1
aI0
aI1
aI11
aI-5
aa(lp159
V0021300689
p160
aVJAN 31, 2014
p161
aVMIL @ ORL
p162
aVL
p163
aI12
aI3
aI4
aF0.75
aI0
aI0
aF0.0
aI0
aI0
aF0.0
aI2
aI3
aI5
aI0
aI0
aI2
aI3
aI4
aI6
aI-6
aa(lp164
V0021300702
p165
aVFEB 01, 2014
p166
aVMIL @ MEM
p167
aVL
p168
aI8
aI0
aI1
aF0.0
aI0
aI0
aF0.0
aI2
aI2
aF1.0
aI1
aI1
aI2
aI1
aI0
aI0
aI0
aI3
aI2
aI6
aa(lp169
V0021300753
p170
aVFEB 08, 2014
p171
aVMIL vs. HOU
p172
aVL
p173
aI19
aI1
aI4
aF0.25
aI0
aI0
aF0.0
aI0
aI0
aF0.0
aI2
aI1
aI3
aI2
aI1
aI1
aI2
aI3
aI2
aI-5
aa(lp174
V0021300767
p175
aVFEB 10, 2014
p176
aVMIL vs. BOS
p177
aVL
p178
aI7
aI2
aI3
aF0.667
aI0
aI0
aF0.0
aI0
aI0
aF0.0
aI1
aI2
aI3
aI0
aI0
aI0
aI0
aI1
aI4
aI-8
aa(lp179
V0021300785
p180
aVFEB 12, 2014
p181
aVMIL vs. NOP
p182
aVL
p183
aI10
aI3
aI4
aF0.75
aI0
aI0
aF0.0
aI0
aI0
aF0.0
aI0
aI2
aI2
aI0
aI0
aI0
aI0
aI1
aI6
aI-9
aa(lp184
V0021300812
p185
aVFEB 20, 2014
p186
aVMIL vs. DEN
p187
aVL
p188
aI2
aI0
aI0
aF0.0
aI0
aI0
aF0.0
aI2
aI2
aF1.0
aI0
aI1
aI1
aI0
aI0
aI0
aI0
aI2
aI2
aI-1
aa(lp189
V0021300841
p190
aVFEB 24, 2014
p191
aVMIL @ PHI
p192
aVW
p193
aI4
aI0
aI1
aF0.0
aI0
aI0
aF0.0
aI0
aI0
aF0.0
aI2
aI0
aI2
aI1
aI0
aI0
aI2
aI1
aI0
aI-10
aa(lp194
V0021300894
p195
aVMAR 03, 2014
p196
aVMIL vs. UTA
p197
aVW
p198
aI4
aI0
aI1
aF0.0
aI0
aI0
aF0.0
aI0
aI0
aF0.0
aI0
aI1
aI1
aI0
aI0
aI0
aI2
aI1
aI0
aI-3
aa(lp199
V0021300910
p200
aVMAR 05, 2014
p201
aVMIL vs. SAC
p202
aVL
p203
aI3
aI0
aI0
aF0.0
aI0
aI0
aF0.0
aI0
aI0
aF0.0
aI0
aI0
aI0
aI2
aI0
aI0
aI0
aI0
aI0
aI6
aa(lp204
V0021300923
p205
aVMAR 07, 2014
p206
aVMIL @ NOP
p207
aVL
p208
aI8
aI0
aI5
aF0.0
aI0
aI0
aF0.0
aI0
aI0
aF0.0
aI3
aI0
aI3
aI0
aI0
aI0
aI0
aI0
aI0
aI5
aa(lp209
V0021300954
p210
aVMAR 11, 2014
p211
aVMIL @ MIN
p212
aVL
p213
aI3
aI1
aI2
aF0.5
aI0
aI0
aF0.0
aI3
aI4
aF0.75
aI1
aI0
aI1
aI0
aI0
aI0
aI0
aI1
aI5
aI4
aa(lp214
V0021301043
p215
aVMAR 23, 2014
p216
aVMIL @ SAC
p217
aVL
p218
aI4
aI0
aI0
aF0.0
aI0
aI0
aF0.0
aI0
aI0
aF0.0
aI0
aI1
aI1
aI0
aI0
aI0
aI1
aI3
aI0
aI-13
aa(lp219
V0021301091
p220
aVMAR 29, 2014
p221
aVMIL vs. MIA
p222
aVL
p223
aI3
aI0
aI0
aF0.0
aI0
aI0
aF0.0
aI1
aI2
aF0.5
aI0
aI0
aI0
aI0
aI0
aI0
aI0
aI1
aI1
aI0
aa(lp224
V0021301121
p225
aVAPR 02, 2014
p226
aVMIL @ MIA
p227
aVL
p228
aI6
aI1
aI1
aF1.0
aI0
aI0
aF0.0
aI0
aI0
aF0.0
aI1
aI0
aI1
aI0
aI0
aI0
aI1
aI0
aI2
aI8
aa(lp229
V0021301185
p230
aVAPR 11, 2014
p231
aVMIL vs. CLE
p232
aVW
p233
aI5
aI0
aI0
aF0.0
aI0
aI0
aF0.0
aI1
aI2
aF0.5
aI0
aI1
aI1
aI0
aI0
aI0
aI0
aI2
aI1
aI1
aa(lp234
V0021301191
p235
aVAPR 12, 2014
p236
aVMIL @ WAS
p237
aVL
p238
aI17
aI2
aI4
aF0.5
aI0
aI0
aF0.0
aI2
aI2
aF1.0
aI1
aI5
aI6
aI1
aI0
aI1
aI0
aI2
aI6
aI-10
aa(lp239
V0021301205
p240
aVAPR 14, 2014
p241
aVMIL @ TOR
p242
aVL
p243
aI4
aI0
aI0
aF0.0
aI0
aI0
aF0.0
aI0
aI0
aF0.0
aI1
aI0
aI1
aI0
aI0
aI0
aI1
aI2
aI0
aI5
aasS'name'
p244
VMiroslav Raduljica
p245
sS'experience'
p246
I0
s.