(dp0
S'age'
p1
I21
sS'stats'
p2
(lp3
(lp4
V0021301220
p5
aVAPR 16, 2014
p6
aVDET @ OKC
p7
aVL
p8
aI6
aI0
aI1
aF0.0
aI0
aI0
aF0.0
aI0
aI0
aF0.0
aI0
aI1
aI1
aI0
aI1
aI0
aI0
aI0
aI0
aI4
aa(lp9
V0021301198
p10
aVAPR 13, 2014
p11
aVDET vs. TOR
p12
aVL
p13
aI7
aI1
aI2
aF0.5
aI0
aI0
aF0.0
aI0
aI1
aF0.0
aI3
aI0
aI3
aI0
aI2
aI0
aI1
aI4
aI2
aI-3
aa(lp14
V0021301162
p15
aVAPR 09, 2014
p16
aVDET @ CLE
p17
aVL
p18
aI8
aI0
aI2
aF0.0
aI0
aI0
aF0.0
aI1
aI2
aF0.5
aI2
aI4
aI6
aI0
aI1
aI1
aI0
aI0
aI1
aI7
aa(lp19
V0021301087
p20
aVMAR 29, 2014
p21
aVDET @ PHI
p22
aVL
p23
aI6
aI1
aI1
aF1.0
aI0
aI0
aF0.0
aI0
aI0
aF0.0
aI1
aI1
aI2
aI1
aI0
aI0
aI1
aI2
aI2
aI3
aa(lp24
V0021301079
p25
aVMAR 28, 2014
p26
aVDET vs. MIA
p27
aVL
p28
aI5
aI0
aI0
aF0.0
aI0
aI0
aF0.0
aI0
aI0
aF0.0
aI0
aI0
aI0
aI0
aI1
aI0
aI0
aI1
aI0
aI0
aa(lp29
V0021301055
p30
aVMAR 24, 2014
p31
aVDET @ UTA
p32
aVW
p33
aI2
aI0
aI0
aF0.0
aI0
aI0
aF0.0
aI2
aI2
aF1.0
aI0
aI0
aI0
aI0
aI0
aI0
aI0
aI0
aI2
aI4
aa(lp34
V0021300960
p35
aVMAR 12, 2014
p36
aVDET @ TOR
p37
aVL
p38
aI0
aI0
aI0
aF0.0
aI0
aI0
aF0.0
aI0
aI0
aF0.0
aI0
aI0
aI0
aI0
aI0
aI0
aI0
aI0
aI0
aI2
aa(lp39
V0021300859
p40
aVFEB 26, 2014
p41
aVDET @ SAS
p42
aVL
p43
aI1
aI0
aI0
aF0.0
aI0
aI0
aF0.0
aI0
aI0
aF0.0
aI0
aI0
aI0
aI0
aI0
aI0
aI0
aI0
aI0
aI3
aa(lp44
V0021300801
p45
aVFEB 19, 2014
p46
aVDET @ CHA
p47
aVL
p48
aI1
aI0
aI1
aF0.0
aI0
aI0
aF0.0
aI0
aI0
aF0.0
aI1
aI0
aI1
aI0
aI0
aI0
aI0
aI0
aI0
aI2
aa(lp49
V0021300669
p50
aVJAN 28, 2014
p51
aVDET vs. ORL
p52
aVW
p53
aI6
aI0
aI0
aF0.0
aI0
aI0
aF0.0
aI4
aI4
aF1.0
aI1
aI1
aI2
aI0
aI0
aI0
aI0
aI0
aI4
aI-9
aa(lp54
V0021300659
p55
aVJAN 26, 2014
p56
aVDET @ DAL
p57
aVL
p58
aI1
aI0
aI0
aF0.0
aI0
aI0
aF0.0
aI0
aI0
aF0.0
aI0
aI0
aI0
aI0
aI0
aI0
aI0
aI0
aI0
aI2
aa(lp59
V0021300396
p60
aVDEC 21, 2013
p61
aVDET vs. HOU
p62
aVL
p63
aI3
aI0
aI0
aF0.0
aI0
aI0
aF0.0
aI2
aI4
aF0.5
aI0
aI0
aI0
aI0
aI0
aI0
aI0
aI0
aI2
aI2
aa(lp64
V0021300315
p65
aVDEC 10, 2013
p66
aVDET vs. MIN
p67
aVL
p68
aI10
aI1
aI1
aF1.0
aI1
aI1
aF1.0
aI1
aI2
aF0.5
aI3
aI1
aI4
aI0
aI1
aI1
aI2
aI0
aI4
aI-4
aa(lp69
V0021300300
p70
aVDEC 08, 2013
p71
aVDET vs. MIA
p72
aVL
p73
aI4
aI0
aI1
aF0.0
aI0
aI0
aF0.0
aI0
aI0
aF0.0
aI0
aI0
aI0
aI0
aI0
aI0
aI0
aI0
aI0
aI3
aa(lp74
V0021300250
p75
aVDEC 01, 2013
p76
aVDET vs. PHI
p77
aVW
p78
aI3
aI0
aI0
aF0.0
aI0
aI0
aF0.0
aI0
aI0
aF0.0
aI0
aI1
aI1
aI0
aI0
aI1
aI0
aI0
aI0
aI-2
aa(lp79
V0021300220
p80
aVNOV 27, 2013
p81
aVDET vs. CHI
p82
aVL
p83
aI2
aI0
aI0
aF0.0
aI0
aI0
aF0.0
aI0
aI2
aF0.0
aI2
aI0
aI2
aI0
aI0
aI0
aI0
aI0
aI0
aI2
aa(lp84
V0021300204
p85
aVNOV 25, 2013
p86
aVDET vs. MIL
p87
aVW
p88
aI2
aI1
aI1
aF1.0
aI0
aI0
aF0.0
aI0
aI0
aF0.0
aI0
aI0
aI0
aI0
aI0
aI0
aI0
aI0
aI2
aI0
aa(lp89
V0021300197
p90
aVNOV 24, 2013
p91
aVDET @ BKN
p92
aVW
p93
aI0
aI0
aI0
aF0.0
aI0
aI0
aF0.0
aI0
aI0
aF0.0
aI0
aI0
aI0
aI0
aI0
aI0
aI0
aI0
aI0
aI0
aa(lp94
V0021300149
p95
aVNOV 17, 2013
p96
aVDET @ LAL
p97
aVL
p98
aI1
aI0
aI0
aF0.0
aI0
aI0
aF0.0
aI0
aI0
aF0.0
aI0
aI0
aI0
aI0
aI0
aI0
aI0
aI0
aI0
aI-2
aa(lp99
V0021300109
p100
aVNOV 12, 2013
p101
aVDET @ GSW
p102
aVL
p103
aI13
aI1
aI2
aF0.5
aI0
aI0
aF0.0
aI1
aI2
aF0.5
aI2
aI1
aI3
aI1
aI0
aI0
aI0
aI2
aI3
aI-4
aa(lp104
V0021300007
p105
aVOCT 30, 2013
p106
aVDET vs. WAS
p107
aVW
p108
aI0
aI0
aI0
aF0.0
aI0
aI0
aF0.0
aI0
aI0
aF0.0
aI0
aI1
aI1
aI0
aI0
aI0
aI0
aI0
aI0
aI0
aasS'name'
p109
VTony Mitchell
p110
sS'experience'
p111
I0
s.