(dp0
S'age'
p1
I22
sS'stats'
p2
(lp3
(lp4
V0021300006
p5
aVOCT 30, 2013
p6
aVBOS @ TOR
p7
aVL
p8
aI4
aI0
aI2
aF0.0
aI0
aI1
aF0.0
aI0
aI0
aF0.0
aI0
aI1
aI1
aI0
aI0
aI0
aI0
aI2
aI0
aI-4
aa(lp9
V0021300064
p10
aVNOV 06, 2013
p11
aVBOS vs. UTA
p12
aVW
p13
aI17
aI1
aI4
aF0.25
aI0
aI2
aF0.0
aI0
aI0
aF0.0
aI0
aI0
aI0
aI3
aI1
aI0
aI0
aI0
aI2
aI8
aa(lp14
V0021300075
p15
aVNOV 08, 2013
p16
aVBOS @ ORL
p17
aVW
p18
aI16
aI0
aI4
aF0.0
aI0
aI1
aF0.0
aI1
aI2
aF0.5
aI0
aI2
aI2
aI1
aI2
aI0
aI0
aI2
aI1
aI-2
aa(lp19
V0021300089
p20
aVNOV 09, 2013
p21
aVBOS @ MIA
p22
aVW
p23
aI21
aI3
aI9
aF0.333
aI0
aI3
aF0.0
aI1
aI2
aF0.5
aI1
aI2
aI3
aI5
aI1
aI1
aI2
aI1
aI7
aI4
aa(lp24
V0021300101
p25
aVNOV 11, 2013
p26
aVBOS vs. ORL
p27
aVW
p28
aI15
aI3
aI6
aF0.5
aI1
aI1
aF1.0
aI0
aI0
aF0.0
aI0
aI2
aI2
aI2
aI0
aI0
aI2
aI1
aI7
aI2
aa(lp29
V0021300113
p30
aVNOV 13, 2013
p31
aVBOS vs. CHA
p32
aVL
p33
aI11
aI0
aI4
aF0.0
aI0
aI1
aF0.0
aI0
aI0
aF0.0
aI0
aI0
aI0
aI0
aI0
aI0
aI1
aI1
aI0
aI-4
aa(lp34
V0021300128
p35
aVNOV 15, 2013
p36
aVBOS vs. POR
p37
aVL
p38
aI12
aI2
aI4
aF0.5
aI2
aI3
aF0.667
aI0
aI0
aF0.0
aI0
aI2
aI2
aI3
aI0
aI0
aI2
aI3
aI6
aI-3
aa(lp39
V0021300142
p40
aVNOV 16, 2013
p41
aVBOS @ MIN
p42
aVL
p43
aI14
aI1
aI2
aF0.5
aI0
aI1
aF0.0
aI0
aI0
aF0.0
aI0
aI0
aI0
aI2
aI0
aI0
aI0
aI0
aI2
aI2
aa(lp44
V0021300159
p45
aVNOV 19, 2013
p46
aVBOS @ HOU
p47
aVL
p48
aI21
aI0
aI3
aF0.0
aI0
aI2
aF0.0
aI5
aI7
aF0.714
aI0
aI0
aI0
aI5
aI2
aI0
aI1
aI0
aI5
aI16
aa(lp49
V0021300170
p50
aVNOV 20, 2013
p51
aVBOS @ SAS
p52
aVL
p53
aI9
aI1
aI3
aF0.333
aI0
aI1
aF0.0
aI0
aI0
aF0.0
aI1
aI2
aI3
aI2
aI1
aI0
aI1
aI1
aI2
aI-13
aa(lp54
V0021300179
p55
aVNOV 22, 2013
p56
aVBOS vs. IND
p57
aVL
p58
aI6
aI0
aI1
aF0.0
aI0
aI0
aF0.0
aI1
aI2
aF0.5
aI0
aI1
aI1
aI1
aI0
aI0
aI0
aI0
aI1
aI-2
aa(lp59
V0021300190
p60
aVNOV 23, 2013
p61
aVBOS @ ATL
p62
aVW
p63
aI4
aI0
aI0
aF0.0
aI0
aI0
aF0.0
aI0
aI0
aF0.0
aI0
aI0
aI0
aI0
aI0
aI0
aI0
aI0
aI0
aI-8
aa(lp64
V0021300202
p65
aVNOV 25, 2013
p66
aVBOS @ CHA
p67
aVW
p68
aI20
aI1
aI2
aF0.5
aI0
aI0
aF0.0
aI0
aI0
aF0.0
aI0
aI1
aI1
aI8
aI3
aI0
aI0
aI1
aI2
aI14
aa(lp69
V0021300217
p70
aVNOV 27, 2013
p71
aVBOS vs. MEM
p72
aVL
p73
aI5
aI0
aI1
aF0.0
aI0
aI1
aF0.0
aI0
aI0
aF0.0
aI1
aI0
aI1
aI0
aI0
aI0
aI0
aI2
aI0
aI-5
aa(lp74
V0021300232
p75
aVNOV 29, 2013
p76
aVBOS vs. CLE
p77
aVW
p78
aI15
aI0
aI0
aF0.0
aI0
aI0
aF0.0
aI0
aI2
aF0.0
aI0
aI1
aI1
aI0
aI1
aI0
aI0
aI1
aI0
aI-8
aa(lp79
V0021300247
p80
aVNOV 30, 2013
p81
aVBOS @ MIL
p82
aVL
p83
aI8
aI0
aI1
aF0.0
aI0
aI1
aF0.0
aI0
aI0
aF0.0
aI1
aI0
aI1
aI1
aI3
aI0
aI0
aI0
aI0
aI-1
aa(lp84
V0021300262
p85
aVDEC 03, 2013
p86
aVBOS vs. MIL
p87
aVW
p88
aI5
aI0
aI1
aF0.0
aI0
aI1
aF0.0
aI0
aI0
aF0.0
aI0
aI0
aI0
aI1
aI1
aI0
aI1
aI1
aI0
aI6
aa(lp89
V0021300283
p90
aVDEC 06, 2013
p91
aVBOS vs. DEN
p92
aVW
p93
aI13
aI0
aI2
aF0.0
aI0
aI0
aF0.0
aI2
aI2
aF1.0
aI1
aI1
aI2
aI1
aI1
aI0
aI0
aI1
aI2
aI-2
aa(lp94
V0021300299
p95
aVDEC 08, 2013
p96
aVBOS @ NYK
p97
aVW
p98
aI17
aI0
aI3
aF0.0
aI0
aI1
aF0.0
aI1
aI2
aF0.5
aI0
aI2
aI2
aI3
aI0
aI0
aI2
aI1
aI1
aI3
aa(lp99
V0021300314
p100
aVDEC 10, 2013
p101
aVBOS @ BKN
p102
aVL
p103
aI3
aI1
aI1
aF1.0
aI0
aI0
aF0.0
aI0
aI0
aF0.0
aI0
aI0
aI0
aI0
aI0
aI0
aI0
aI1
aI2
aI-2
aa(lp104
V0021300319
p105
aVDEC 11, 2013
p106
aVBOS vs. LAC
p107
aVL
p108
aI9
aI0
aI1
aF0.0
aI0
aI0
aF0.0
aI0
aI0
aF0.0
aI0
aI1
aI1
aI2
aI1
aI0
aI1
aI0
aI0
aI-2
aa(lp109
V0021300333
p110
aVDEC 13, 2013
p111
aVBOS vs. NYK
p112
aVW
p113
aI13
aI1
aI4
aF0.25
aI0
aI2
aF0.0
aI0
aI0
aF0.0
aI0
aI2
aI2
aI2
aI0
aI0
aI2
aI2
aI2
aI16
aa(lp114
V0021300358
p115
aVDEC 16, 2013
p116
aVBOS vs. MIN
p117
aVW
p118
aI13
aI2
aI6
aF0.333
aI0
aI0
aF0.0
aI0
aI0
aF0.0
aI1
aI2
aI3
aI0
aI1
aI0
aI0
aI2
aI4
aI-9
aa(lp119
V0021300373
p120
aVDEC 18, 2013
p121
aVBOS vs. DET
p122
aVL
p123
aI10
aI1
aI1
aF1.0
aI0
aI0
aF0.0
aI0
aI0
aF0.0
aI0
aI0
aI0
aI3
aI0
aI0
aI0
aI0
aI2
aI-3
aa(lp124
V0021300393
p125
aVDEC 21, 2013
p126
aVBOS vs. WAS
p127
aVL
p128
aI14
aI0
aI0
aF0.0
aI0
aI0
aF0.0
aI0
aI0
aF0.0
aI0
aI0
aI0
aI5
aI1
aI0
aI0
aI0
aI0
aI-1
aa(lp129
V0021300404
p130
aVDEC 22, 2013
p131
aVBOS @ IND
p132
aVL
p133
aI15
aI0
aI1
aF0.0
aI0
aI0
aF0.0
aI0
aI0
aF0.0
aI0
aI2
aI2
aI4
aI0
aI0
aI2
aI1
aI0
aI-6
aa(lp134
V0021300436
p135
aVDEC 28, 2013
p136
aVBOS vs. CLE
p137
aVW
p138
aI12
aI0
aI1
aF0.0
aI0
aI1
aF0.0
aI0
aI0
aF0.0
aI0
aI0
aI0
aI1
aI2
aI0
aI0
aI2
aI0
aI-3
aa(lp139
V0021300460
p140
aVDEC 31, 2013
p141
aVBOS vs. ATL
p142
aVL
p143
aI13
aI0
aI1
aF0.0
aI0
aI1
aF0.0
aI0
aI0
aF0.0
aI0
aI0
aI0
aI5
aI1
aI0
aI1
aI3
aI0
aI15
aa(lp144
V0021300475
p145
aVJAN 02, 2014
p146
aVBOS @ CHI
p147
aVL
p148
aI9
aI0
aI1
aF0.0
aI0
aI1
aF0.0
aI0
aI0
aF0.0
aI0
aI1
aI1
aI0
aI0
aI0
aI1
aI1
aI0
aI-3
aa(lp149
V0021300484
p150
aVJAN 03, 2014
p151
aVBOS vs. NOP
p152
aVL
p153
aI11
aI1
aI3
aF0.333
aI0
aI1
aF0.0
aI0
aI0
aF0.0
aI0
aI1
aI1
aI2
aI1
aI0
aI0
aI1
aI2
aI-1
aa(lp154
V0021300502
p155
aVJAN 05, 2014
p156
aVBOS @ OKC
p157
aVL
p158
aI9
aI1
aI2
aF0.5
aI1
aI1
aF1.0
aI0
aI0
aF0.0
aI0
aI0
aI0
aI2
aI0
aI0
aI2
aI2
aI3
aI-4
aa(lp159
V0021300517
p160
aVJAN 07, 2014
p161
aVBOS @ DEN
p162
aVL
p163
aI13
aI0
aI2
aF0.0
aI0
aI1
aF0.0
aI1
aI2
aF0.5
aI0
aI1
aI1
aI3
aI0
aI0
aI0
aI1
aI1
aI6
aa(lp164
V0021300528
p165
aVJAN 08, 2014
p166
aVBOS @ LAC
p167
aVL
p168
aI5
aI0
aI0
aF0.0
aI0
aI0
aF0.0
aI0
aI0
aF0.0
aI0
aI1
aI1
aI1
aI0
aI0
aI0
aI0
aI0
aI3
aa(lp169
V0021300551
p170
aVJAN 11, 2014
p171
aVBOS @ POR
p172
aVL
p173
aI11
aI0
aI0
aF0.0
aI0
aI0
aF0.0
aI0
aI0
aF0.0
aI0
aI0
aI0
aI2
aI1
aI0
aI0
aI0
aI0
aI2
aa(lp174
V0021300556
p175
aVJAN 13, 2014
p176
aVBOS vs. HOU
p177
aVL
p178
aI3
aI0
aI2
aF0.0
aI0
aI0
aF0.0
aI0
aI0
aF0.0
aI0
aI0
aI0
aI0
aI0
aI0
aI1
aI1
aI0
aI-7
aa(lp179
V0021300569
p180
aVJAN 15, 2014
p181
aVBOS vs. TOR
p182
aVW
p183
aI26
aI0
aI5
aF0.0
aI0
aI1
aF0.0
aI0
aI0
aF0.0
aI1
aI2
aI3
aI10
aI1
aI1
aI0
aI3
aI0
aI5
aa(lp184
V0021300586
p185
aVJAN 17, 2014
p186
aVBOS vs. LAL
p187
aVL
p188
aI22
aI2
aI5
aF0.4
aI2
aI5
aF0.4
aI0
aI0
aF0.0
aI0
aI0
aI0
aI9
aI2
aI0
aI0
aI3
aI6
aI0
aa(lp189
V0021300602
p190
aVJAN 19, 2014
p191
aVBOS @ ORL
p192
aVL
p193
aI23
aI1
aI7
aF0.143
aI0
aI2
aF0.0
aI0
aI0
aF0.0
aI0
aI1
aI1
aI5
aI3
aI0
aI3
aI2
aI2
aI-6
aa(lp194
V0021300617
p195
aVJAN 21, 2014
p196
aVBOS @ MIA
p197
aVL
p198
aI22
aI1
aI3
aF0.333
aI0
aI2
aF0.0
aI0
aI0
aF0.0
aI0
aI0
aI0
aI3
aI1
aI0
aI1
aI1
aI2
aI0
aa(lp199
V0021300625
p200
aVJAN 22, 2014
p201
aVBOS @ WAS
p202
aVW
p203
aI35
aI7
aI10
aF0.7
aI5
aI6
aF0.833
aI1
aI2
aF0.5
aI0
aI1
aI1
aI4
aI2
aI1
aI5
aI6
aI20
aI7
aa(lp204
V0021300636
p205
aVJAN 24, 2014
p206
aVBOS vs. OKC
p207
aVL
p208
aI30
aI2
aI6
aF0.333
aI2
aI5
aF0.4
aI3
aI4
aF0.75
aI1
aI1
aI2
aI6
aI2
aI0
aI2
aI0
aI9
aI-8
aa(lp209
V0021300658
p210
aVJAN 26, 2014
p211
aVBOS vs. BKN
p212
aVL
p213
aI18
aI2
aI8
aF0.25
aI0
aI5
aF0.0
aI0
aI0
aF0.0
aI1
aI1
aI2
aI3
aI0
aI0
aI3
aI0
aI4
aI-7
aa(lp214
V0021300670
p215
aVJAN 28, 2014
p216
aVBOS @ NYK
p217
aVL
p218
aI16
aI1
aI3
aF0.333
aI0
aI1
aF0.0
aI0
aI0
aF0.0
aI0
aI1
aI1
aI3
aI0
aI0
aI0
aI1
aI2
aI4
aa(lp219
V0021300678
p220
aVJAN 29, 2014
p221
aVBOS vs. PHI
p222
aVL
p223
aI21
aI1
aI7
aF0.143
aI0
aI2
aF0.0
aI0
aI0
aF0.0
aI0
aI1
aI1
aI2
aI2
aI0
aI5
aI2
aI2
aI3
aa(lp224
V0021300709
p225
aVFEB 02, 2014
p226
aVBOS vs. ORL
p227
aVW
p228
aI8
aI0
aI2
aF0.0
aI0
aI1
aF0.0
aI0
aI0
aF0.0
aI0
aI2
aI2
aI2
aI0
aI0
aI1
aI0
aI0
aI-2
aa(lp229
V0021300743
p230
aVFEB 07, 2014
p231
aVBOS vs. SAC
p232
aVW
p233
aI22
aI2
aI6
aF0.333
aI0
aI2
aF0.0
aI0
aI0
aF0.0
aI0
aI4
aI4
aI3
aI1
aI0
aI1
aI3
aI4
aI-5
aa(lp234
V0021300758
p235
aVFEB 09, 2014
p236
aVBOS vs. DAL
p237
aVL
p238
aI5
aI0
aI1
aF0.0
aI0
aI0
aF0.0
aI0
aI0
aF0.0
aI0
aI0
aI0
aI0
aI0
aI0
aI0
aI1
aI0
aI-6
aa(lp239
V0021300767
p240
aVFEB 10, 2014
p241
aVBOS @ MIL
p242
aVW
p243
aI24
aI5
aI10
aF0.5
aI3
aI4
aF0.75
aI0
aI0
aF0.0
aI0
aI2
aI2
aI6
aI1
aI0
aI3
aI5
aI13
aI2
aa(lp244
V0021300780
p245
aVFEB 12, 2014
p246
aVBOS vs. SAS
p247
aVL
p248
aI11
aI1
aI1
aF1.0
aI1
aI1
aF1.0
aI0
aI0
aF0.0
aI0
aI0
aI0
aI1
aI0
aI0
aI3
aI1
aI3
aI7
aa(lp249
V0021300807
p250
aVFEB 19, 2014
p251
aVBOS @ PHX
p252
aVL
p253
aI7
aI0
aI2
aF0.0
aI0
aI0
aF0.0
aI0
aI0
aF0.0
aI0
aI1
aI1
aI0
aI1
aI0
aI1
aI0
aI0
aI-7
aa(lp254
V0021300824
p255
aVFEB 21, 2014
p256
aVBOS @ LAL
p257
aVL
p258
aI10
aI1
aI3
aF0.333
aI0
aI1
aF0.0
aI0
aI0
aF0.0
aI0
aI1
aI1
aI1
aI1
aI1
aI2
aI1
aI2
aI-11
aa(lp259
V0021300831
p260
aVFEB 22, 2014
p261
aVBOS @ SAC
p262
aVL
p263
aI18
aI1
aI4
aF0.25
aI0
aI1
aF0.0
aI0
aI0
aF0.0
aI1
aI3
aI4
aI2
aI1
aI0
aI1
aI2
aI2
aI-13
aa(lp264
V0021300845
p265
aVFEB 24, 2014
p266
aVBOS @ UTA
p267
aVL
p268
aI8
aI0
aI1
aF0.0
aI0
aI1
aF0.0
aI0
aI0
aF0.0
aI0
aI1
aI1
aI0
aI0
aI0
aI0
aI0
aI0
aI6
aa(lp269
V0021300854
p270
aVFEB 26, 2014
p271
aVBOS vs. ATL
p272
aVW
p273
aI18
aI0
aI3
aF0.0
aI0
aI1
aF0.0
aI2
aI2
aF1.0
aI1
aI3
aI4
aI4
aI1
aI0
aI0
aI1
aI2
aI-1
aa(lp274
V0021300877
p275
aVMAR 01, 2014
p276
aVBOS vs. IND
p277
aVL
p278
aI10
aI0
aI1
aF0.0
aI0
aI1
aF0.0
aI0
aI0
aF0.0
aI0
aI2
aI2
aI3
aI0
aI0
aI1
aI0
aI0
aI0
aa(lp279
V0021300907
p280
aVMAR 05, 2014
p281
aVBOS vs. GSW
p282
aVL
p283
aI11
aI3
aI4
aF0.75
aI1
aI2
aF0.5
aI0
aI0
aF0.0
aI0
aI1
aI1
aI5
aI1
aI0
aI2
aI0
aI7
aI2
aa(lp284
V0021300920
p285
aVMAR 07, 2014
p286
aVBOS vs. BKN
p287
aVW
p288
aI13
aI0
aI1
aF0.0
aI0
aI0
aF0.0
aI0
aI0
aF0.0
aI0
aI1
aI1
aI2
aI2
aI0
aI1
aI1
aI0
aI15
aa(lp289
V0021300937
p290
aVMAR 09, 2014
p291
aVBOS vs. DET
p292
aVW
p293
aI15
aI0
aI2
aF0.0
aI0
aI2
aF0.0
aI0
aI0
aF0.0
aI0
aI1
aI1
aI6
aI2
aI1
aI0
aI5
aI0
aI6
aa(lp294
V0021300950
p295
aVMAR 11, 2014
p296
aVBOS @ IND
p297
aVL
p298
aI7
aI0
aI1
aF0.0
aI0
aI0
aF0.0
aI0
aI0
aF0.0
aI0
aI0
aI0
aI2
aI0
aI0
aI1
aI0
aI0
aI-3
aa(lp299
V0021300962
p300
aVMAR 12, 2014
p301
aVBOS vs. NYK
p302
aVL
p303
aI35
aI3
aI9
aF0.333
aI1
aI2
aF0.5
aI2
aI4
aF0.5
aI1
aI4
aI5
aI5
aI1
aI0
aI3
aI0
aI9
aI-11
aa(lp304
V0021300975
p305
aVMAR 14, 2014
p306
aVBOS vs. PHX
p307
aVL
p308
aI14
aI0
aI2
aF0.0
aI0
aI1
aF0.0
aI2
aI2
aF1.0
aI0
aI1
aI1
aI5
aI0
aI0
aI1
aI2
aI2
aI11
aa(lp309
V0021300990
p310
aVMAR 16, 2014
p311
aVBOS @ NOP
p312
aVL
p313
aI8
aI1
aI1
aF1.0
aI1
aI1
aF1.0
aI0
aI0
aF0.0
aI0
aI2
aI2
aI4
aI0
aI0
aI0
aI2
aI3
aI4
aa(lp314
V0021301001
p315
aVMAR 17, 2014
p316
aVBOS @ DAL
p317
aVL
p318
aI14
aI2
aI6
aF0.333
aI2
aI3
aF0.667
aI0
aI0
aF0.0
aI2
aI1
aI3
aI4
aI0
aI0
aI2
aI2
aI6
aI-5
aa(lp319
V0021301026
p320
aVMAR 21, 2014
p321
aVBOS @ BKN
p322
aVL
p323
aI6
aI0
aI1
aF0.0
aI0
aI0
aF0.0
aI0
aI0
aF0.0
aI0
aI0
aI0
aI1
aI0
aI0
aI0
aI0
aI0
aI-2
aa(lp324
V0021301063
p325
aVMAR 26, 2014
p326
aVBOS vs. TOR
p327
aVL
p328
aI12
aI0
aI2
aF0.0
aI0
aI1
aF0.0
aI2
aI2
aF1.0
aI1
aI1
aI2
aI4
aI1
aI0
aI1
aI1
aI2
aI8
aa(lp329
V0021301076
p330
aVMAR 28, 2014
p331
aVBOS @ TOR
p332
aVL
p333
aI13
aI1
aI2
aF0.5
aI0
aI1
aF0.0
aI0
aI0
aF0.0
aI0
aI1
aI1
aI5
aI2
aI0
aI1
aI0
aI2
aI11
aa(lp334
V0021301106
p335
aVMAR 31, 2014
p336
aVBOS @ CHI
p337
aVL
p338
aI19
aI4
aI8
aF0.5
aI1
aI3
aF0.333
aI0
aI2
aF0.0
aI1
aI1
aI2
aI3
aI4
aI0
aI2
aI2
aI9
aI-2
aa(lp339
V0021301119
p340
aVAPR 02, 2014
p341
aVBOS @ WAS
p342
aVL
p343
aI19
aI0
aI3
aF0.0
aI0
aI1
aF0.0
aI0
aI0
aF0.0
aI0
aI0
aI0
aI6
aI2
aI0
aI0
aI1
aI0
aI-3
aa(lp344
V0021301133
p345
aVAPR 04, 2014
p346
aVBOS vs. PHI
p347
aVL
p348
aI15
aI2
aI5
aF0.4
aI0
aI2
aF0.0
aI0
aI0
aF0.0
aI0
aI2
aI2
aI0
aI2
aI0
aI3
aI3
aI4
aI4
aa(lp349
V0021301146
p350
aVAPR 05, 2014
p351
aVBOS @ DET
p352
aVL
p353
aI36
aI5
aI8
aF0.625
aI2
aI4
aF0.5
aI0
aI0
aF0.0
aI1
aI1
aI2
aI11
aI2
aI0
aI1
aI5
aI12
aI9
aa(lp354
V0021301166
p355
aVAPR 09, 2014
p356
aVBOS @ ATL
p357
aVL
p358
aI4
aI0
aI0
aF0.0
aI0
aI0
aF0.0
aI0
aI0
aF0.0
aI0
aI0
aI0
aI2
aI0
aI0
aI1
aI1
aI0
aI-3
aa(lp359
V0021301178
p360
aVAPR 11, 2014
p361
aVBOS vs. CHA
p362
aVW
p363
aI39
aI4
aI11
aF0.364
aI2
aI6
aF0.333
aI0
aI0
aF0.0
aI0
aI5
aI5
aI13
aI3
aI0
aI4
aI1
aI10
aI-2
aa(lp364
V0021301193
p365
aVAPR 12, 2014
p366
aVBOS @ CLE
p367
aVW
p368
aI42
aI4
aI8
aF0.5
aI1
aI3
aF0.333
aI0
aI0
aF0.0
aI2
aI3
aI5
aI13
aI1
aI0
aI2
aI2
aI9
aI6
aa(lp369
V0021301204
p370
aVAPR 14, 2014
p371
aVBOS @ PHI
p372
aVL
p373
aI15
aI0
aI1
aF0.0
aI0
aI0
aF0.0
aI2
aI2
aF1.0
aI0
aI1
aI1
aI3
aI0
aI0
aI4
aI1
aI2
aI-24
aa(lp374
V0021301222
p375
aVAPR 16, 2014
p376
aVBOS vs. WAS
p377
aVL
p378
aI42
aI3
aI12
aF0.25
aI0
aI4
aF0.0
aI3
aI4
aF0.75
aI1
aI4
aI5
aI10
aI2
aI0
aI4
aI1
aI9
aI-18
aasS'name'
p379
VPhil Pressey
p380
sS'experience'
p381
I0
s.