(dp0
S'stats'
p1
(lp2
(lp3
V0021300017
p4
aVOCT 30, 2013
p5
aVGSW vs. LAL
p6
aVW
p7
aI8
aI0
aI1
aF0.0
aI0
aI1
aF0.0
aI0
aI0
aF0.0
aI0
aI0
aI0
aI0
aI0
aI0
aI0
aI0
aI0
aI2
aa(lp8
V0021300019
p9
aVOCT 31, 2013
p10
aVGSW @ LAC
p11
aVL
p12
aI1
aI0
aI0
aF0.0
aI0
aI0
aF0.0
aI0
aI0
aF0.0
aI0
aI0
aI0
aI0
aI0
aI0
aI0
aI0
aI0
aI0
aa(lp13
V0021300040
p14
aVNOV 02, 2013
p15
aVGSW vs. SAC
p16
aVW
p17
aI4
aI0
aI2
aF0.0
aI0
aI0
aF0.0
aI0
aI0
aF0.0
aI0
aI1
aI1
aI1
aI0
aI0
aI1
aI0
aI0
aI-8
aa(lp18
V0021300048
p19
aVNOV 04, 2013
p20
aVGSW @ PHI
p21
aVW
p22
aI12
aI1
aI3
aF0.333
aI0
aI2
aF0.0
aI0
aI0
aF0.0
aI0
aI1
aI1
aI0
aI0
aI0
aI2
aI0
aI2
aI-14
aa(lp23
V0021300067
p24
aVNOV 06, 2013
p25
aVGSW @ MIN
p26
aVW
p27
aI1
aI0
aI0
aF0.0
aI0
aI0
aF0.0
aI0
aI0
aF0.0
aI0
aI0
aI0
aI0
aI0
aI0
aI0
aI0
aI0
aI-3
aa(lp28
V0021300091
p29
aVNOV 09, 2013
p30
aVGSW @ MEM
p31
aVL
p32
aI5
aI0
aI1
aF0.0
aI0
aI1
aF0.0
aI1
aI2
aF0.5
aI1
aI0
aI1
aI1
aI0
aI0
aI0
aI0
aI1
aI4
aa(lp33
V0021300109
p34
aVNOV 12, 2013
p35
aVGSW vs. DET
p36
aVW
p37
aI6
aI1
aI2
aF0.5
aI0
aI1
aF0.0
aI2
aI2
aF1.0
aI0
aI0
aI0
aI0
aI0
aI0
aI1
aI0
aI4
aI0
aa(lp38
V0021300145
p39
aVNOV 16, 2013
p40
aVGSW vs. UTA
p41
aVW
p42
aI3
aI0
aI1
aF0.0
aI0
aI0
aF0.0
aI0
aI0
aF0.0
aI0
aI0
aI0
aI2
aI0
aI0
aI0
aI0
aI0
aI-4
aa(lp43
V0021300154
p44
aVNOV 18, 2013
p45
aVGSW @ UTA
p46
aVW
p47
aI3
aI0
aI1
aF0.0
aI0
aI0
aF0.0
aI0
aI0
aF0.0
aI0
aI0
aI0
aI0
aI0
aI0
aI0
aI1
aI0
aI-12
aa(lp48
V0021300186
p49
aVNOV 22, 2013
p50
aVGSW @ LAL
p51
aVL
p52
aI5
aI0
aI2
aF0.0
aI0
aI2
aF0.0
aI0
aI0
aF0.0
aI0
aI1
aI1
aI0
aI0
aI0
aI0
aI2
aI0
aI-5
aa(lp53
V0021300196
p54
aVNOV 23, 2013
p55
aVGSW vs. POR
p56
aVL
p57
aI13
aI2
aI4
aF0.5
aI1
aI1
aF1.0
aI0
aI0
aF0.0
aI1
aI1
aI2
aI1
aI0
aI0
aI2
aI3
aI5
aI-5
aa(lp58
V0021300214
p59
aVNOV 26, 2013
p60
aVGSW @ NOP
p61
aVW
p62
aI13
aI0
aI2
aF0.0
aI0
aI1
aF0.0
aI0
aI0
aF0.0
aI0
aI2
aI2
aI1
aI0
aI0
aI0
aI2
aI0
aI8
aa(lp63
V0021300225
p64
aVNOV 27, 2013
p65
aVGSW @ DAL
p66
aVL
p67
aI12
aI1
aI2
aF0.5
aI0
aI0
aF0.0
aI2
aI2
aF1.0
aI0
aI0
aI0
aI1
aI0
aI0
aI1
aI1
aI4
aI-8
aa(lp68
V0021300235
p69
aVNOV 29, 2013
p70
aVGSW @ OKC
p71
aVL
p72
aI11
aI0
aI1
aF0.0
aI0
aI1
aF0.0
aI0
aI0
aF0.0
aI0
aI3
aI3
aI3
aI0
aI1
aI0
aI1
aI0
aI-2
aa(lp73
V0021300251
p74
aVDEC 01, 2013
p75
aVGSW @ SAC
p76
aVW
p77
aI8
aI1
aI5
aF0.2
aI0
aI2
aF0.0
aI0
aI0
aF0.0
aI0
aI1
aI1
aI1
aI0
aI0
aI2
aI1
aI2
aI1
aa(lp78
V0021300268
p79
aVDEC 03, 2013
p80
aVGSW vs. TOR
p81
aVW
p82
aI5
aI0
aI0
aF0.0
aI0
aI0
aF0.0
aI0
aI0
aF0.0
aI0
aI0
aI0
aI0
aI0
aI0
aI1
aI0
aI0
aI-7
aa(lp83
V0021300285
p84
aVDEC 06, 2013
p85
aVGSW @ HOU
p86
aVL
p87
aI11
aI0
aI2
aF0.0
aI0
aI1
aF0.0
aI0
aI0
aF0.0
aI0
aI1
aI1
aI0
aI0
aI0
aI2
aI1
aI0
aI-12
aa(lp88
V0021300293
p89
aVDEC 07, 2013
p90
aVGSW @ MEM
p91
aVW
p92
aI3
aI1
aI1
aF1.0
aI1
aI1
aF1.0
aI0
aI0
aF0.0
aI0
aI0
aI0
aI1
aI0
aI0
aI0
aI0
aI3
aI2
aa(lp93
V0021300368
p94
aVDEC 17, 2013
p95
aVGSW vs. NOP
p96
aVW
p97
aI4
aI0
aI2
aF0.0
aI0
aI1
aF0.0
aI0
aI0
aF0.0
aI0
aI0
aI0
aI0
aI0
aI0
aI0
aI1
aI0
aI-8
aa(lp98
V0021300415
p99
aVDEC 23, 2013
p100
aVGSW @ DEN
p101
aVW
p102
aI0
aI0
aI0
aF0.0
aI0
aI0
aF0.0
aI0
aI0
aF0.0
aI0
aI0
aI0
aI0
aI0
aI0
aI0
aI0
aI0
aI0
aa(lp103
V0021300435
p104
aVDEC 27, 2013
p105
aVGSW vs. PHX
p106
aVW
p107
aI6
aI1
aI3
aF0.333
aI1
aI1
aF1.0
aI0
aI0
aF0.0
aI1
aI1
aI2
aI0
aI0
aI0
aI0
aI0
aI3
aI5
aa(lp108
V0021300956
p109
aVMAR 11, 2014
p110
aVGSW vs. DAL
p111
aVW
p112
aI5
aI0
aI1
aF0.0
aI0
aI0
aF0.0
aI2
aI2
aF1.0
aI0
aI0
aI0
aI1
aI0
aI0
aI1
aI0
aI2
aI2
aa(lp113
V0021301007
p114
aVMAR 18, 2014
p115
aVGSW vs. ORL
p116
aVW
p117
aI3
aI0
aI3
aF0.0
aI0
aI2
aF0.0
aI0
aI0
aF0.0
aI0
aI0
aI0
aI0
aI0
aI0
aI0
aI0
aI0
aI-3
aa(lp118
V0021301213
p119
aVAPR 14, 2014
p120
aVGSW vs. MIN
p121
aVW
p122
aI0
aI0
aI0
aF0.0
aI0
aI0
aF0.0
aI0
aI0
aF0.0
aI0
aI0
aI0
aI0
aI0
aI0
aI0
aI0
aI0
aI-2
aasS'name'
p123
VNemanja Nedovic
p124
sS'weight'
p125
V192
p126
sS'age'
p127
I22
sS'experience'
p128
I0
sS'height'
p129
V6-3
p130
sS'position'
p131
VGuard
p132
s.