(dp0
S'age'
p1
I32
sS'stats'
p2
(lp3
(lp4
V0021300013
p5
aVOCT 30, 2013
p6
aVMEM @ SAS
p7
aVL
p8
aI26
aI1
aI6
aF0.167
aI0
aI0
aF0.0
aI0
aI0
aF0.0
aI2
aI5
aI7
aI1
aI0
aI1
aI1
aI1
aI2
aI-21
aa(lp9
V0021300026
p10
aVNOV 01, 2013
p11
aVMEM vs. DET
p12
aVW
p13
aI36
aI7
aI12
aF0.583
aI0
aI0
aF0.0
aI2
aI2
aF1.0
aI1
aI9
aI10
aI2
aI2
aI0
aI4
aI0
aI16
aI-3
aa(lp14
V0021300036
p15
aVNOV 02, 2013
p16
aVMEM @ DAL
p17
aVL
p18
aI35
aI9
aI17
aF0.529
aI0
aI1
aF0.0
aI3
aI4
aF0.75
aI5
aI9
aI14
aI2
aI1
aI0
aI2
aI4
aI21
aI1
aa(lp19
V0021300049
p20
aVNOV 04, 2013
p21
aVMEM vs. BOS
p22
aVW
p23
aI32
aI6
aI11
aF0.545
aI0
aI0
aF0.0
aI3
aI3
aF1.0
aI4
aI3
aI7
aI1
aI0
aI0
aI5
aI3
aI15
aI17
aa(lp24
V0021300065
p25
aVNOV 06, 2013
p26
aVMEM vs. NOP
p27
aVL
p28
aI8
aI1
aI1
aF1.0
aI0
aI0
aF0.0
aI0
aI0
aF0.0
aI0
aI0
aI0
aI1
aI0
aI0
aI2
aI1
aI2
aI-10
aa(lp29
V0021300091
p30
aVNOV 09, 2013
p31
aVMEM vs. GSW
p32
aVW
p33
aI35
aI9
aI19
aF0.474
aI0
aI1
aF0.0
aI5
aI7
aF0.714
aI3
aI8
aI11
aI3
aI1
aI0
aI4
aI5
aI23
aI16
aa(lp34
V0021300099
p35
aVNOV 11, 2013
p36
aVMEM @ IND
p37
aVL
p38
aI27
aI6
aI12
aF0.5
aI0
aI0
aF0.0
aI0
aI0
aF0.0
aI2
aI4
aI6
aI1
aI0
aI0
aI2
aI1
aI12
aI1
aa(lp39
V0021300114
p40
aVNOV 13, 2013
p41
aVMEM vs. TOR
p42
aVL
p43
aI30
aI4
aI9
aF0.444
aI0
aI0
aF0.0
aI2
aI2
aF1.0
aI1
aI9
aI10
aI2
aI1
aI0
aI3
aI2
aI10
aI-2
aa(lp44
V0021300134
p45
aVNOV 15, 2013
p46
aVMEM @ LAL
p47
aVW
p48
aI36
aI11
aI18
aF0.611
aI0
aI0
aF0.0
aI6
aI6
aF1.0
aI3
aI8
aI11
aI2
aI0
aI0
aI1
aI3
aI28
aI8
aa(lp49
V0021300148
p50
aVNOV 17, 2013
p51
aVMEM @ SAC
p52
aVW
p53
aI34
aI9
aI12
aF0.75
aI0
aI0
aF0.0
aI4
aI8
aF0.5
aI2
aI8
aI10
aI2
aI0
aI0
aI3
aI3
aI22
aI18
aa(lp54
V0021300155
p55
aVNOV 18, 2013
p56
aVMEM @ LAC
p57
aVW
p58
aI36
aI10
aI16
aF0.625
aI0
aI0
aF0.0
aI6
aI7
aF0.857
aI5
aI10
aI15
aI2
aI2
aI0
aI0
aI4
aI26
aI7
aa(lp59
V0021300173
p60
aVNOV 20, 2013
p61
aVMEM @ GSW
p62
aVW
p63
aI46
aI9
aI22
aF0.409
aI0
aI1
aF0.0
aI3
aI3
aF1.0
aI3
aI9
aI12
aI1
aI0
aI1
aI0
aI3
aI21
aI8
aa(lp64
V0021300181
p65
aVNOV 22, 2013
p66
aVMEM vs. SAS
p67
aVL
p68
aI40
aI5
aI15
aF0.333
aI0
aI0
aF0.0
aI6
aI8
aF0.75
aI2
aI8
aI10
aI3
aI1
aI0
aI4
aI3
aI16
aI-15
aa(lp69
V0021300206
p70
aVNOV 25, 2013
p71
aVMEM vs. HOU
p72
aVL
p73
aI35
aI5
aI12
aF0.417
aI0
aI1
aF0.0
aI3
aI4
aF0.75
aI1
aI5
aI6
aI2
aI0
aI0
aI4
aI3
aI13
aI1
aa(lp74
V0021300217
p75
aVNOV 27, 2013
p76
aVMEM @ BOS
p77
aVW
p78
aI35
aI5
aI16
aF0.313
aI0
aI0
aF0.0
aI3
aI4
aF0.75
aI3
aI5
aI8
aI2
aI1
aI0
aI2
aI4
aI13
aI-6
aa(lp79
V0021300278
p80
aVDEC 05, 2013
p81
aVMEM vs. LAC
p82
aVL
p83
aI31
aI4
aI13
aF0.308
aI0
aI0
aF0.0
aI4
aI5
aF0.8
aI2
aI10
aI12
aI2
aI0
aI0
aI7
aI3
aI12
aI-16
aa(lp84
V0021300293
p85
aVDEC 07, 2013
p86
aVMEM vs. GSW
p87
aVL
p88
aI34
aI6
aI13
aF0.462
aI0
aI1
aF0.0
aI3
aI4
aF0.75
aI1
aI5
aI6
aI4
aI1
aI1
aI0
aI3
aI15
aI-26
aa(lp89
V0021300307
p90
aVDEC 09, 2013
p91
aVMEM vs. ORL
p92
aVW
p93
aI30
aI7
aI15
aF0.467
aI0
aI0
aF0.0
aI5
aI6
aF0.833
aI2
aI10
aI12
aI2
aI0
aI0
aI3
aI3
aI19
aI-9
aa(lp94
V0021300320
p95
aVDEC 11, 2013
p96
aVMEM vs. OKC
p97
aVL
p98
aI31
aI5
aI12
aF0.417
aI0
aI0
aF0.0
aI7
aI12
aF0.583
aI1
aI7
aI8
aI1
aI2
aI0
aI2
aI2
aI17
aI-16
aa(lp99
V0021300335
p100
aVDEC 13, 2013
p101
aVMEM @ NOP
p102
aVL
p103
aI28
aI6
aI12
aF0.5
aI0
aI0
aF0.0
aI1
aI2
aF0.5
aI1
aI9
aI10
aI3
aI0
aI0
aI4
aI4
aI13
aI-3
aa(lp104
V0021300351
p105
aVDEC 15, 2013
p106
aVMEM vs. MIN
p107
aVL
p108
aI39
aI7
aI19
aF0.368
aI0
aI0
aF0.0
aI6
aI8
aF0.75
aI5
aI7
aI12
aI5
aI1
aI0
aI3
aI5
aI20
aI-7
aa(lp109
V0021300366
p110
aVDEC 17, 2013
p111
aVMEM vs. LAL
p112
aVL
p113
aI35
aI7
aI22
aF0.318
aI0
aI0
aF0.0
aI4
aI4
aF1.0
aI6
aI10
aI16
aI5
aI2
aI0
aI1
aI3
aI18
aI-8
aa(lp114
V0021300377
p115
aVDEC 18, 2013
p116
aVMEM @ DAL
p117
aVL
p118
aI31
aI5
aI18
aF0.278
aI0
aI1
aF0.0
aI4
aI6
aF0.667
aI6
aI3
aI9
aI3
aI0
aI0
aI2
aI3
aI14
aI-6
aa(lp119
V0021300392
p120
aVDEC 21, 2013
p121
aVMEM @ NYK
p122
aVW
p123
aI38
aI9
aI18
aF0.5
aI0
aI0
aF0.0
aI7
aI10
aF0.7
aI3
aI12
aI15
aI1
aI0
aI0
aI5
aI5
aI25
aI11
aa(lp124
V0021300413
p125
aVDEC 23, 2013
p126
aVMEM vs. UTA
p127
aVW
p128
aI36
aI8
aI14
aF0.571
aI0
aI0
aF0.0
aI6
aI6
aF1.0
aI1
aI9
aI10
aI7
aI1
aI0
aI2
aI0
aI22
aI8
aa(lp129
V0021300424
p130
aVDEC 26, 2013
p131
aVMEM @ HOU
p132
aVL
p133
aI43
aI8
aI20
aF0.4
aI0
aI0
aF0.0
aI7
aI12
aF0.583
aI8
aI9
aI17
aI5
aI0
aI0
aI3
aI3
aI23
aI-16
aa(lp134
V0021300443
p135
aVDEC 28, 2013
p136
aVMEM vs. DEN
p137
aVW
p138
aI31
aI8
aI15
aF0.533
aI0
aI0
aF0.0
aI4
aI4
aF1.0
aI1
aI5
aI6
aI5
aI1
aI0
aI0
aI2
aI20
aI14
aa(lp139
V0021300454
p140
aVDEC 30, 2013
p141
aVMEM vs. CHI
p142
aVL
p143
aI33
aI4
aI15
aF0.267
aI0
aI0
aF0.0
aI2
aI2
aF1.0
aI5
aI5
aI10
aI3
aI0
aI0
aI5
aI3
aI10
aI-9
aa(lp144
V0021300478
p145
aVJAN 02, 2014
p146
aVMEM @ PHX
p147
aVW
p148
aI38
aI10
aI20
aF0.5
aI0
aI0
aF0.0
aI0
aI0
aF0.0
aI5
aI10
aI15
aI0
aI0
aI1
aI3
aI1
aI20
aI-2
aa(lp149
V0021300487
p150
aVJAN 03, 2014
p151
aVMEM @ DEN
p152
aVL
p153
aI38
aI10
aI18
aF0.556
aI0
aI0
aF0.0
aI5
aI7
aF0.714
aI5
aI8
aI13
aI2
aI0
aI0
aI1
aI1
aI25
aI1
aa(lp154
V0021300498
p155
aVJAN 05, 2014
p156
aVMEM @ DET
p157
aVW
p158
aI33
aI8
aI18
aF0.444
aI0
aI0
aF0.0
aI0
aI1
aF0.0
aI4
aI12
aI16
aI5
aI0
aI0
aI1
aI3
aI16
aI14
aa(lp159
V0021300514
p160
aVJAN 07, 2014
p161
aVMEM vs. SAS
p162
aVL
p163
aI41
aI7
aI18
aF0.389
aI0
aI0
aF0.0
aI3
aI4
aF0.75
aI3
aI5
aI8
aI1
aI0
aI0
aI1
aI4
aI17
aI4
aa(lp164
V0021300534
p165
aVJAN 10, 2014
p166
aVMEM vs. PHX
p167
aVW
p168
aI37
aI9
aI21
aF0.429
aI0
aI0
aF0.0
aI2
aI3
aF0.667
aI6
aI7
aI13
aI7
aI0
aI1
aI2
aI1
aI20
aI-2
aa(lp169
V0021300553
p170
aVJAN 12, 2014
p171
aVMEM vs. ATL
p172
aVW
p173
aI34
aI5
aI10
aF0.5
aI0
aI0
aF0.0
aI8
aI9
aF0.889
aI2
aI10
aI12
aI3
aI0
aI0
aI1
aI3
aI18
aI9
aa(lp174
V0021300564
p175
aVJAN 14, 2014
p176
aVMEM vs. OKC
p177
aVW
p178
aI40
aI7
aI21
aF0.333
aI0
aI0
aF0.0
aI9
aI12
aF0.75
aI5
aI8
aI13
aI4
aI0
aI1
aI4
aI3
aI23
aI8
aa(lp179
V0021300570
p180
aVJAN 15, 2014
p181
aVMEM @ MIL
p182
aVW
p183
aI26
aI2
aI10
aF0.2
aI0
aI0
aF0.0
aI2
aI2
aF1.0
aI1
aI3
aI4
aI1
aI0
aI0
aI2
aI2
aI6
aI-10
aa(lp184
V0021300588
p185
aVJAN 17, 2014
p186
aVMEM vs. SAC
p187
aVW
p188
aI36
aI5
aI12
aF0.417
aI0
aI1
aF0.0
aI2
aI2
aF1.0
aI1
aI8
aI9
aI2
aI0
aI4
aI2
aI1
aI12
aI5
aa(lp189
V0021300611
p190
aVJAN 20, 2014
p191
aVMEM vs. NOP
p192
aVL
p193
aI38
aI10
aI19
aF0.526
aI0
aI0
aF0.0
aI3
aI4
aF0.75
aI10
aI10
aI20
aI3
aI0
aI0
aI3
aI2
aI23
aI3
aa(lp194
V0021300642
p195
aVJAN 24, 2014
p196
aVMEM @ HOU
p197
aVW
p198
aI34
aI6
aI17
aF0.353
aI0
aI0
aF0.0
aI3
aI5
aF0.6
aI3
aI5
aI8
aI3
aI0
aI0
aI3
aI2
aI15
aI7
aa(lp199
V0021300649
p200
aVJAN 25, 2014
p201
aVMEM vs. HOU
p202
aVW
p203
aI31
aI7
aI16
aF0.438
aI0
aI1
aF0.0
aI1
aI3
aF0.333
aI7
aI10
aI17
aI3
aI0
aI0
aI4
aI3
aI15
aI17
aa(lp204
V0021300672
p205
aVJAN 28, 2014
p206
aVMEM @ POR
p207
aVW
p208
aI36
aI11
aI22
aF0.5
aI0
aI1
aF0.0
aI1
aI1
aF1.0
aI5
aI5
aI10
aI3
aI1
aI0
aI0
aI5
aI23
aI10
aa(lp209
V0021300684
p210
aVJAN 29, 2014
p211
aVMEM @ SAC
p212
aVW
p213
aI36
aI8
aI16
aF0.5
aI0
aI1
aF0.0
aI2
aI2
aF1.0
aI3
aI4
aI7
aI2
aI4
aI0
aI1
aI3
aI18
aI4
aa(lp214
V0021300691
p215
aVJAN 31, 2014
p216
aVMEM @ MIN
p217
aVW
p218
aI40
aI11
aI20
aF0.55
aI0
aI0
aF0.0
aI4
aI7
aF0.571
aI4
aI8
aI12
aI4
aI1
aI0
aI1
aI1
aI26
aI7
aa(lp219
V0021300702
p220
aVFEB 01, 2014
p221
aVMEM vs. MIL
p222
aVW
p223
aI34
aI8
aI19
aF0.421
aI0
aI0
aF0.0
aI7
aI8
aF0.875
aI6
aI4
aI10
aI3
aI0
aI0
aI1
aI1
aI23
aI9
aa(lp224
V0021300716
p225
aVFEB 03, 2014
p226
aVMEM @ OKC
p227
aVL
p228
aI38
aI6
aI15
aF0.4
aI0
aI0
aF0.0
aI1
aI2
aF0.5
aI4
aI9
aI13
aI1
aI2
aI0
aI2
aI2
aI13
aI-13
aa(lp229
V0021300730
p230
aVFEB 05, 2014
p231
aVMEM vs. DAL
p232
aVL
p233
aI40
aI10
aI16
aF0.625
aI0
aI0
aF0.0
aI5
aI8
aF0.625
aI2
aI7
aI9
aI4
aI0
aI1
aI2
aI3
aI25
aI-12
aa(lp234
V0021300750
p235
aVFEB 08, 2014
p236
aVMEM @ ATL
p237
aVW
p238
aI38
aI10
aI16
aF0.625
aI0
aI0
aF0.0
aI0
aI0
aF0.0
aI2
aI4
aI6
aI1
aI2
aI3
aI5
aI2
aI20
aI0
aa(lp239
V0021300760
p240
aVFEB 09, 2014
p241
aVMEM @ CLE
p242
aVL
p243
aI37
aI6
aI16
aF0.375
aI0
aI1
aF0.0
aI2
aI3
aF0.667
aI2
aI6
aI8
aI2
aI0
aI0
aI3
aI4
aI14
aI-8
aa(lp244
V0021300773
p245
aVFEB 11, 2014
p246
aVMEM vs. WAS
p247
aVW
p248
aI35
aI4
aI11
aF0.364
aI0
aI0
aF0.0
aI5
aI6
aF0.833
aI2
aI8
aI10
aI1
aI0
aI0
aI5
aI4
aI13
aI6
aa(lp249
V0021300778
p250
aVFEB 12, 2014
p251
aVMEM @ ORL
p252
aVW
p253
aI37
aI8
aI14
aF0.571
aI0
aI2
aF0.0
aI4
aI5
aF0.8
aI1
aI4
aI5
aI2
aI0
aI0
aI2
aI1
aI20
aI-3
aa(lp254
V0021300796
p255
aVFEB 18, 2014
p256
aVMEM vs. NYK
p257
aVW
p258
aI34
aI6
aI11
aF0.545
aI0
aI0
aF0.0
aI1
aI2
aF0.5
aI2
aI6
aI8
aI3
aI0
aI0
aI3
aI4
aI13
aI-2
aa(lp259
V0021300821
p260
aVFEB 21, 2014
p261
aVMEM vs. LAC
p262
aVW
p263
aI31
aI9
aI17
aF0.529
aI0
aI0
aF0.0
aI3
aI4
aF0.75
aI0
aI11
aI11
aI2
aI1
aI0
aI1
aI3
aI21
aI1
aa(lp264
V0021300825
p265
aVFEB 22, 2014
p266
aVMEM @ CHA
p267
aVL
p268
aI33
aI5
aI12
aF0.417
aI0
aI0
aF0.0
aI2
aI4
aF0.5
aI4
aI7
aI11
aI0
aI0
aI0
aI3
aI5
aI12
aI2
aa(lp269
V0021300857
p270
aVFEB 26, 2014
p271
aVMEM vs. LAL
p272
aVW
p273
aI28
aI6
aI14
aF0.429
aI0
aI0
aF0.0
aI1
aI2
aF0.5
aI3
aI4
aI7
aI3
aI1
aI0
aI2
aI1
aI13
aI10
aa(lp274
V0021300868
p275
aVFEB 28, 2014
p276
aVMEM @ OKC
p277
aVL
p278
aI25
aI5
aI14
aF0.357
aI0
aI0
aF0.0
aI3
aI4
aF0.75
aI4
aI6
aI10
aI1
aI1
aI0
aI0
aI2
aI13
aI-7
aa(lp279
V0021300879
p280
aVMAR 01, 2014
p281
aVMEM vs. CLE
p282
aVW
p283
aI37
aI11
aI17
aF0.647
aI0
aI0
aF0.0
aI1
aI2
aF0.5
aI7
aI7
aI14
aI3
aI4
aI0
aI2
aI0
aI23
aI23
aa(lp284
V0021300890
p285
aVMAR 03, 2014
p286
aVMEM @ WAS
p287
aVW
p288
aI37
aI7
aI16
aF0.438
aI0
aI0
aF0.0
aI2
aI3
aF0.667
aI2
aI8
aI10
aI1
aI1
aI0
aI1
aI4
aI16
aI10
aa(lp289
V0021300917
p290
aVMAR 07, 2014
p291
aVMEM @ CHI
p292
aVW
p293
aI36
aI5
aI13
aF0.385
aI0
aI0
aF0.0
aI0
aI0
aF0.0
aI2
aI9
aI11
aI2
aI0
aI0
aI1
aI1
aI10
aI9
aa(lp294
V0021300930
p295
aVMAR 08, 2014
p296
aVMEM vs. CHA
p297
aVW
p298
aI31
aI5
aI7
aF0.714
aI0
aI1
aF0.0
aI6
aI8
aF0.75
aI4
aI3
aI7
aI3
aI1
aI0
aI1
aI3
aI16
aI17
aa(lp299
V0021300953
p300
aVMAR 11, 2014
p301
aVMEM vs. POR
p302
aVW
p303
aI38
aI8
aI19
aF0.421
aI0
aI0
aF0.0
aI2
aI3
aF0.667
aI7
aI5
aI12
aI4
aI1
aI0
aI1
aI4
aI18
aI12
aa(lp304
V0021300963
p305
aVMAR 12, 2014
p306
aVMEM @ NOP
p307
aVW
p308
aI33
aI5
aI13
aF0.385
aI0
aI1
aF0.0
aI3
aI4
aF0.75
aI7
aI2
aI9
aI2
aI0
aI1
aI3
aI3
aI13
aI3
aa(lp309
V0021300974
p310
aVMAR 14, 2014
p311
aVMEM @ TOR
p312
aVL
p313
aI33
aI7
aI13
aF0.538
aI0
aI1
aF0.0
aI2
aI4
aF0.5
aI2
aI6
aI8
aI1
aI1
aI1
aI2
aI0
aI16
aI-10
aa(lp314
V0021300985
p315
aVMAR 15, 2014
p316
aVMEM @ PHI
p317
aVW
p318
aI26
aI5
aI11
aF0.455
aI0
aI0
aF0.0
aI4
aI5
aF0.8
aI0
aI2
aI2
aI3
aI2
aI0
aI1
aI3
aI14
aI20
aa(lp319
V0021301011
p320
aVMAR 19, 2014
p321
aVMEM vs. UTA
p322
aVW
p323
aI36
aI8
aI16
aF0.5
aI0
aI0
aF0.0
aI5
aI7
aF0.714
aI5
aI6
aI11
aI3
aI1
aI0
aI3
aI1
aI21
aI16
aa(lp324
V0021301027
p325
aVMAR 21, 2014
p326
aVMEM @ MIA
p327
aVL
p328
aI37
aI12
aI20
aF0.6
aI0
aI0
aF0.0
aI1
aI2
aF0.5
aI5
aI9
aI14
aI4
aI0
aI0
aI5
aI5
aI25
aI2
aa(lp329
V0021301035
p330
aVMAR 22, 2014
p331
aVMEM vs. IND
p332
aVW
p333
aI36
aI7
aI18
aF0.389
aI0
aI0
aF0.0
aI4
aI4
aF1.0
aI4
aI9
aI13
aI1
aI0
aI0
aI1
aI2
aI18
aI11
aa(lp334
V0021301051
p335
aVMAR 24, 2014
p336
aVMEM vs. MIN
p337
aVW
p338
aI28
aI7
aI11
aF0.636
aI1
aI1
aF1.0
aI2
aI2
aF1.0
aI2
aI2
aI4
aI2
aI0
aI0
aI1
aI2
aI17
aI26
aa(lp339
V0021301070
p340
aVMAR 26, 2014
p341
aVMEM @ UTA
p342
aVW
p343
aI36
aI8
aI18
aF0.444
aI0
aI0
aF0.0
aI6
aI6
aF1.0
aI6
aI7
aI13
aI3
aI0
aI0
aI3
aI2
aI22
aI8
aa(lp344
V0021301086
p345
aVMAR 28, 2014
p346
aVMEM @ GSW
p347
aVL
p348
aI35
aI10
aI16
aF0.625
aI0
aI0
aF0.0
aI1
aI2
aF0.5
aI3
aI4
aI7
aI3
aI1
aI0
aI0
aI3
aI21
aI-11
aa(lp349
V0021301099
p350
aVMAR 30, 2014
p351
aVMEM @ POR
p352
aVL
p353
aI36
aI10
aI17
aF0.588
aI0
aI0
aF0.0
aI1
aI2
aF0.5
aI4
aI3
aI7
aI3
aI2
aI0
aI4
aI4
aI21
aI4
aa(lp354
V0021301109
p355
aVMAR 31, 2014
p356
aVMEM @ DEN
p357
aVW
p358
aI34
aI8
aI15
aF0.533
aI0
aI0
aF0.0
aI4
aI8
aF0.5
aI2
aI9
aI11
aI3
aI1
aI0
aI2
aI4
aI20
aI1
aa(lp359
V0021301122
p360
aVAPR 02, 2014
p361
aVMEM @ MIN
p362
aVL
p363
aI27
aI1
aI8
aF0.125
aI0
aI0
aF0.0
aI2
aI2
aF1.0
aI2
aI3
aI5
aI3
aI0
aI1
aI2
aI2
aI4
aI-12
aa(lp364
V0021301129
p365
aVAPR 04, 2014
p366
aVMEM vs. DEN
p367
aVW
p368
aI42
aI7
aI22
aF0.318
aI0
aI1
aF0.0
aI6
aI6
aF1.0
aI3
aI12
aI15
aI4
aI2
aI3
aI1
aI4
aI20
aI17
aa(lp369
V0021301154
p370
aVAPR 06, 2014
p371
aVMEM @ SAS
p372
aVL
p373
aI24
aI3
aI9
aF0.333
aI0
aI0
aF0.0
aI2
aI3
aF0.667
aI3
aI3
aI6
aI0
aI1
aI0
aI4
aI3
aI8
aI-26
aa(lp374
V0021301167
p375
aVAPR 09, 2014
p376
aVMEM vs. MIA
p377
aVW
p378
aI42
aI12
aI15
aF0.8
aI1
aI2
aF0.5
aI0
aI1
aF0.0
aI3
aI8
aI11
aI2
aI1
aI1
aI3
aI2
aI25
aI7
aa(lp379
V0021301182
p380
aVAPR 11, 2014
p381
aVMEM vs. PHI
p382
aVW
p383
aI29
aI4
aI12
aF0.333
aI0
aI0
aF0.0
aI2
aI2
aF1.0
aI4
aI7
aI11
aI4
aI1
aI2
aI2
aI2
aI10
aI26
aa(lp384
V0021301203
p385
aVAPR 13, 2014
p386
aVMEM @ LAL
p387
aVW
p388
aI31
aI4
aI8
aF0.5
aI0
aI0
aF0.0
aI2
aI4
aF0.5
aI1
aI5
aI6
aI4
aI2
aI0
aI4
aI2
aI10
aI9
aa(lp389
V0021301212
p390
aVAPR 14, 2014
p391
aVMEM @ PHX
p392
aVW
p393
aI39
aI15
aI25
aF0.6
aI0
aI0
aF0.0
aI2
aI2
aF1.0
aI3
aI6
aI9
aI2
aI1
aI0
aI1
aI3
aI32
aI2
aa(lp394
V0021301216
p395
aVAPR 16, 2014
p396
aVMEM vs. DAL
p397
aVW
p398
aI46
aI11
aI22
aF0.5
aI0
aI0
aF0.0
aI5
aI6
aF0.833
aI9
aI5
aI14
aI1
aI1
aI0
aI3
aI5
aI27
aI10
aasS'name'
p399
VZach Randolph
p400
sS'experience'
p401
I12
s.