(dp0
S'age'
p1
I35
sS'stats'
p2
(lp3
(lp4
V0021300002
p5
aVOCT 29, 2013
p6
aVMIA vs. CHI
p7
aVW
p8
aI17
aI3
aI5
aF0.6
aI0
aI0
aF0.0
aI0
aI0
aF0.0
aI1
aI7
aI8
aI0
aI2
aI2
aI0
aI2
aI6
aI14
aa(lp9
V0021300005
p10
aVOCT 30, 2013
p11
aVMIA @ PHI
p12
aVL
p13
aI14
aI0
aI1
aF0.0
aI0
aI0
aF0.0
aI0
aI0
aF0.0
aI0
aI0
aI0
aI1
aI0
aI0
aI3
aI3
aI0
aI1
aa(lp14
V0021300028
p15
aVNOV 01, 2013
p16
aVMIA @ BKN
p17
aVL
p18
aI14
aI1
aI3
aF0.333
aI0
aI0
aF0.0
aI2
aI3
aF0.667
aI1
aI0
aI1
aI1
aI1
aI0
aI0
aI5
aI4
aI-1
aa(lp19
V0021300042
p20
aVNOV 03, 2013
p21
aVMIA vs. WAS
p22
aVW
p23
aI17
aI2
aI3
aF0.667
aI0
aI0
aF0.0
aI4
aI6
aF0.667
aI3
aI2
aI5
aI0
aI0
aI1
aI1
aI2
aI8
aI-1
aa(lp24
V0021300051
p25
aVNOV 05, 2013
p26
aVMIA @ TOR
p27
aVW
p28
aI17
aI3
aI4
aF0.75
aI0
aI0
aF0.0
aI0
aI0
aF0.0
aI1
aI2
aI3
aI0
aI0
aI0
aI2
aI4
aI6
aI10
aa(lp29
V0021300070
p30
aVNOV 07, 2013
p31
aVMIA vs. LAC
p32
aVW
p33
aI19
aI3
aI3
aF1.0
aI0
aI0
aF0.0
aI4
aI5
aF0.8
aI1
aI2
aI3
aI1
aI0
aI1
aI2
aI2
aI10
aI12
aa(lp34
V0021300089
p35
aVNOV 09, 2013
p36
aVMIA vs. BOS
p37
aVL
p38
aI17
aI4
aI5
aF0.8
aI0
aI0
aF0.0
aI2
aI4
aF0.5
aI2
aI2
aI4
aI0
aI0
aI2
aI1
aI0
aI10
aI-9
aa(lp39
V0021300107
p40
aVNOV 12, 2013
p41
aVMIA vs. MIL
p42
aVW
p43
aI19
aI4
aI6
aF0.667
aI0
aI0
aF0.0
aI0
aI0
aF0.0
aI3
aI4
aI7
aI2
aI0
aI2
aI2
aI1
aI8
aI13
aa(lp44
V0021300130
p45
aVNOV 15, 2013
p46
aVMIA vs. DAL
p47
aVW
p48
aI18
aI2
aI4
aF0.5
aI0
aI0
aF0.0
aI0
aI0
aF0.0
aI1
aI6
aI7
aI0
aI0
aI0
aI0
aI2
aI4
aI15
aa(lp49
V0021300136
p50
aVNOV 16, 2013
p51
aVMIA @ CHA
p52
aVW
p53
aI24
aI2
aI2
aF1.0
aI0
aI0
aF0.0
aI6
aI6
aF1.0
aI0
aI7
aI7
aI1
aI1
aI2
aI1
aI2
aI10
aI15
aa(lp54
V0021300158
p55
aVNOV 19, 2013
p56
aVMIA vs. ATL
p57
aVW
p58
aI13
aI0
aI3
aF0.0
aI0
aI0
aF0.0
aI2
aI4
aF0.5
aI2
aI1
aI3
aI0
aI1
aI0
aI0
aI3
aI2
aI5
aa(lp59
V0021300164
p60
aVNOV 20, 2013
p61
aVMIA @ ORL
p62
aVW
p63
aI18
aI4
aI6
aF0.667
aI0
aI0
aF0.0
aI2
aI2
aF1.0
aI4
aI1
aI5
aI0
aI1
aI2
aI2
aI2
aI10
aI1
aa(lp64
V0021300191
p65
aVNOV 23, 2013
p66
aVMIA vs. ORL
p67
aVW
p68
aI17
aI3
aI4
aF0.75
aI0
aI0
aF0.0
aI0
aI0
aF0.0
aI2
aI2
aI4
aI0
aI0
aI0
aI1
aI3
aI6
aI-12
aa(lp69
V0021300205
p70
aVNOV 25, 2013
p71
aVMIA vs. PHX
p72
aVW
p73
aI19
aI5
aI8
aF0.625
aI0
aI0
aF0.0
aI1
aI2
aF0.5
aI2
aI5
aI7
aI0
aI0
aI1
aI0
aI1
aI11
aI13
aa(lp74
V0021300219
p75
aVNOV 27, 2013
p76
aVMIA @ CLE
p77
aVW
p78
aI18
aI1
aI1
aF1.0
aI0
aI0
aF0.0
aI0
aI0
aF0.0
aI0
aI5
aI5
aI0
aI0
aI2
aI1
aI3
aI2
aI5
aa(lp79
V0021300230
p80
aVNOV 29, 2013
p81
aVMIA @ TOR
p82
aVW
p83
aI19
aI2
aI3
aF0.667
aI0
aI0
aF0.0
aI1
aI2
aF0.5
aI0
aI4
aI4
aI1
aI0
aI2
aI0
aI3
aI5
aI-7
aa(lp84
V0021300252
p85
aVDEC 01, 2013
p86
aVMIA vs. CHA
p87
aVW
p88
aI13
aI1
aI2
aF0.5
aI0
aI0
aF0.0
aI1
aI2
aF0.5
aI0
aI0
aI0
aI0
aI0
aI2
aI1
aI2
aI3
aI3
aa(lp89
V0021300264
p90
aVDEC 03, 2013
p91
aVMIA vs. DET
p92
aVL
p93
aI16
aI2
aI5
aF0.4
aI0
aI1
aF0.0
aI4
aI4
aF1.0
aI3
aI1
aI4
aI1
aI1
aI0
aI0
aI1
aI8
aI4
aa(lp94
V0021300294
p95
aVDEC 07, 2013
p96
aVMIA @ MIN
p97
aVW
p98
aI20
aI4
aI5
aF0.8
aI0
aI1
aF0.0
aI1
aI4
aF0.25
aI2
aI2
aI4
aI0
aI0
aI3
aI0
aI1
aI9
aI6
aa(lp99
V0021300300
p100
aVDEC 08, 2013
p101
aVMIA @ DET
p102
aVW
p103
aI23
aI4
aI5
aF0.8
aI0
aI0
aF0.0
aI2
aI2
aF1.0
aI2
aI3
aI5
aI1
aI0
aI1
aI0
aI1
aI10
aI1
aa(lp104
V0021300311
p105
aVDEC 10, 2013
p106
aVMIA @ IND
p107
aVL
p108
aI21
aI4
aI8
aF0.5
aI0
aI0
aF0.0
aI2
aI4
aF0.5
aI2
aI1
aI3
aI0
aI1
aI1
aI1
aI3
aI10
aI-6
aa(lp109
V0021300344
p110
aVDEC 14, 2013
p111
aVMIA vs. CLE
p112
aVW
p113
aI18
aI1
aI4
aF0.25
aI1
aI1
aF1.0
aI0
aI0
aF0.0
aI1
aI4
aI5
aI0
aI0
aI3
aI1
aI1
aI3
aI-8
aa(lp114
V0021300360
p115
aVDEC 16, 2013
p116
aVMIA vs. UTA
p117
aVW
p118
aI15
aI0
aI0
aF0.0
aI0
aI0
aF0.0
aI1
aI2
aF0.5
aI0
aI5
aI5
aI1
aI1
aI3
aI0
aI1
aI1
aI-2
aa(lp119
V0021300369
p120
aVDEC 18, 2013
p121
aVMIA vs. IND
p122
aVW
p123
aI28
aI4
aI5
aF0.8
aI0
aI0
aF0.0
aI0
aI0
aF0.0
aI1
aI3
aI4
aI0
aI0
aI0
aI0
aI4
aI8
aI7
aa(lp124
V0021300387
p125
aVDEC 20, 2013
p126
aVMIA vs. SAC
p127
aVW
p128
aI21
aI3
aI5
aF0.6
aI0
aI1
aF0.0
aI0
aI0
aF0.0
aI1
aI6
aI7
aI0
aI2
aI0
aI0
aI2
aI6
aI7
aa(lp129
V0021300411
p130
aVDEC 23, 2013
p131
aVMIA vs. ATL
p132
aVW
p133
aI25
aI3
aI3
aF1.0
aI0
aI0
aF0.0
aI6
aI9
aF0.667
aI3
aI6
aI9
aI2
aI0
aI2
aI1
aI1
aI12
aI12
aa(lp134
V0021300420
p135
aVDEC 25, 2013
p136
aVMIA @ LAL
p137
aVW
p138
aI8
aI1
aI1
aF1.0
aI0
aI0
aF0.0
aI0
aI0
aF0.0
aI0
aI1
aI1
aI0
aI0
aI1
aI1
aI2
aI2
aI0
aa(lp139
V0021300474
p140
aVJAN 02, 2014
p141
aVMIA vs. GSW
p142
aVL
p143
aI17
aI0
aI1
aF0.0
aI0
aI0
aF0.0
aI2
aI2
aF1.0
aI0
aI2
aI2
aI1
aI0
aI0
aI0
aI1
aI2
aI6
aa(lp144
V0021300490
p145
aVJAN 04, 2014
p146
aVMIA @ ORL
p147
aVW
p148
aI15
aI1
aI3
aF0.333
aI0
aI1
aF0.0
aI4
aI4
aF1.0
aI2
aI1
aI3
aI0
aI0
aI0
aI2
aI4
aI6
aI0
aa(lp149
V0021300500
p150
aVJAN 05, 2014
p151
aVMIA vs. TOR
p152
aVW
p153
aI16
aI2
aI2
aF1.0
aI0
aI0
aF0.0
aI0
aI0
aF0.0
aI1
aI3
aI4
aI0
aI0
aI0
aI1
aI6
aI4
aI11
aa(lp154
V0021300511
p155
aVJAN 07, 2014
p156
aVMIA vs. NOP
p157
aVW
p158
aI23
aI7
aI7
aF1.0
aI0
aI0
aF0.0
aI1
aI3
aF0.333
aI2
aI5
aI7
aI2
aI1
aI1
aI0
aI2
aI15
aI15
aa(lp159
V0021300529
p160
aVJAN 09, 2014
p161
aVMIA @ NYK
p162
aVL
p163
aI21
aI1
aI2
aF0.5
aI0
aI0
aF0.0
aI0
aI0
aF0.0
aI1
aI2
aI3
aI1
aI3
aI1
aI1
aI2
aI2
aI-9
aa(lp164
V0021300537
p165
aVJAN 10, 2014
p166
aVMIA @ BKN
p167
aVL
p168
aI32
aI2
aI3
aF0.667
aI0
aI0
aF0.0
aI0
aI2
aF0.0
aI1
aI8
aI9
aI0
aI0
aI1
aI0
aI2
aI4
aI-2
aa(lp169
V0021300612
p170
aVJAN 20, 2014
p171
aVMIA @ ATL
p172
aVL
p173
aI17
aI2
aI4
aF0.5
aI0
aI0
aF0.0
aI4
aI4
aF1.0
aI1
aI1
aI2
aI0
aI0
aI1
aI0
aI2
aI8
aI-11
aa(lp174
V0021300617
p175
aVJAN 21, 2014
p176
aVMIA vs. BOS
p177
aVW
p178
aI25
aI5
aI5
aF1.0
aI0
aI0
aF0.0
aI3
aI4
aF0.75
aI3
aI4
aI7
aI0
aI1
aI1
aI2
aI1
aI13
aI3
aa(lp179
V0021300631
p180
aVJAN 23, 2014
p181
aVMIA vs. LAL
p182
aVW
p183
aI13
aI2
aI3
aF0.667
aI0
aI0
aF0.0
aI0
aI0
aF0.0
aI2
aI2
aI4
aI0
aI1
aI1
aI2
aI4
aI4
aI3
aa(lp184
V0021300654
p185
aVJAN 26, 2014
p186
aVMIA vs. SAS
p187
aVW
p188
aI17
aI3
aI4
aF0.75
aI0
aI1
aF0.0
aI2
aI2
aF1.0
aI2
aI3
aI5
aI0
aI0
aI2
aI1
aI2
aI8
aI11
aa(lp189
V0021300675
p190
aVJAN 29, 2014
p191
aVMIA vs. OKC
p192
aVL
p193
aI19
aI4
aI5
aF0.8
aI0
aI0
aF0.0
aI0
aI0
aF0.0
aI4
aI3
aI7
aI0
aI0
aI0
aI0
aI2
aI8
aI-8
aa(lp194
V0021300705
p195
aVFEB 01, 2014
p196
aVMIA @ NYK
p197
aVW
p198
aI29
aI2
aI2
aF1.0
aI0
aI0
aF0.0
aI6
aI9
aF0.667
aI2
aI3
aI5
aI0
aI0
aI2
aI0
aI3
aI10
aI9
aa(lp199
V0021300713
p200
aVFEB 03, 2014
p201
aVMIA vs. DET
p202
aVW
p203
aI22
aI1
aI2
aF0.5
aI0
aI0
aF0.0
aI0
aI0
aF0.0
aI2
aI1
aI3
aI0
aI2
aI2
aI1
aI1
aI2
aI-2
aa(lp204
V0021300736
p205
aVFEB 05, 2014
p206
aVMIA @ LAC
p207
aVW
p208
aI27
aI4
aI5
aF0.8
aI0
aI0
aF0.0
aI4
aI6
aF0.667
aI2
aI5
aI7
aI0
aI0
aI2
aI0
aI5
aI12
aI-5
aa(lp209
V0021300755
p210
aVFEB 08, 2014
p211
aVMIA @ UTA
p212
aVL
p213
aI18
aI1
aI1
aF1.0
aI0
aI0
aF0.0
aI1
aI2
aF0.5
aI3
aI2
aI5
aI0
aI0
aI0
aI0
aI4
aI3
aI-9
aa(lp214
V0021300774
p215
aVFEB 11, 2014
p216
aVMIA @ PHX
p217
aVW
p218
aI18
aI3
aI5
aF0.6
aI0
aI0
aF0.0
aI0
aI0
aF0.0
aI4
aI2
aI6
aI0
aI1
aI0
aI0
aI4
aI6
aI18
aa(lp219
V0021300788
p220
aVFEB 12, 2014
p221
aVMIA @ GSW
p222
aVW
p223
aI15
aI3
aI3
aF1.0
aI0
aI0
aF0.0
aI0
aI2
aF0.0
aI1
aI3
aI4
aI0
aI1
aI2
aI0
aI1
aI6
aI-4
aa(lp224
V0021300798
p225
aVFEB 18, 2014
p226
aVMIA @ DAL
p227
aVW
p228
aI27
aI7
aI9
aF0.778
aI1
aI1
aF1.0
aI3
aI3
aF1.0
aI2
aI1
aI3
aI0
aI0
aI1
aI0
aI4
aI18
aI6
aa(lp229
V0021300813
p230
aVFEB 20, 2014
p231
aVMIA @ OKC
p232
aVW
p233
aI21
aI0
aI0
aF0.0
aI0
aI0
aF0.0
aI0
aI0
aF0.0
aI2
aI6
aI8
aI1
aI0
aI2
aI1
aI3
aI0
aI-8
aa(lp234
V0021300834
p235
aVFEB 23, 2014
p236
aVMIA vs. CHI
p237
aVW
p238
aI26
aI3
aI8
aF0.375
aI0
aI2
aF0.0
aI1
aI4
aF0.25
aI3
aI0
aI3
aI1
aI1
aI2
aI2
aI3
aI7
aI12
aa(lp239
V0021300865
p240
aVFEB 27, 2014
p241
aVMIA vs. NYK
p242
aVW
p243
aI17
aI0
aI1
aF0.0
aI0
aI0
aF0.0
aI0
aI0
aF0.0
aI1
aI6
aI7
aI0
aI0
aI2
aI0
aI3
aI0
aI17
aa(lp244
V0021300874
p245
aVMAR 01, 2014
p246
aVMIA vs. ORL
p247
aVW
p248
aI19
aI2
aI3
aF0.667
aI0
aI0
aF0.0
aI1
aI2
aF0.5
aI2
aI3
aI5
aI0
aI0
aI1
aI0
aI3
aI5
aI11
aa(lp249
V0021300893
p250
aVMAR 03, 2014
p251
aVMIA vs. CHA
p252
aVW
p253
aI17
aI3
aI3
aF1.0
aI1
aI1
aF1.0
aI0
aI0
aF0.0
aI0
aI4
aI4
aI0
aI2
aI1
aI1
aI3
aI7
aI9
aa(lp254
V0021300900
p255
aVMAR 04, 2014
p256
aVMIA @ HOU
p257
aVL
p258
aI20
aI2
aI3
aF0.667
aI0
aI0
aF0.0
aI1
aI1
aF1.0
aI2
aI5
aI7
aI0
aI0
aI5
aI0
aI5
aI5
aI10
aa(lp259
V0021300914
p260
aVMAR 06, 2014
p261
aVMIA @ SAS
p262
aVL
p263
aI17
aI2
aI3
aF0.667
aI0
aI0
aF0.0
aI2
aI2
aF1.0
aI2
aI4
aI6
aI0
aI1
aI0
aI1
aI4
aI6
aI-13
aa(lp264
V0021300934
p265
aVMAR 09, 2014
p266
aVMIA @ CHI
p267
aVL
p268
aI33
aI1
aI2
aF0.5
aI0
aI0
aF0.0
aI0
aI0
aF0.0
aI2
aI11
aI13
aI0
aI0
aI6
aI0
aI0
aI2
aI2
aa(lp269
V0021300945
p270
aVMAR 10, 2014
p271
aVMIA vs. WAS
p272
aVW
p273
aI18
aI3
aI5
aF0.6
aI0
aI0
aF0.0
aI3
aI3
aF1.0
aI0
aI3
aI3
aI0
aI0
aI2
aI2
aI1
aI9
aI-7
aa(lp274
V0021300957
p275
aVMAR 12, 2014
p276
aVMIA vs. BKN
p277
aVL
p278
aI18
aI1
aI2
aF0.5
aI0
aI0
aF0.0
aI2
aI2
aF1.0
aI0
aI6
aI6
aI0
aI1
aI1
aI1
aI1
aI4
aI-7
aa(lp279
V0021300976
p280
aVMAR 14, 2014
p281
aVMIA vs. DEN
p282
aVL
p283
aI22
aI6
aI7
aF0.857
aI0
aI1
aF0.0
aI2
aI2
aF1.0
aI2
aI4
aI6
aI0
aI0
aI4
aI0
aI0
aI14
aI9
aa(lp284
V0021300989
p285
aVMAR 16, 2014
p286
aVMIA vs. HOU
p287
aVW
p288
aI21
aI2
aI3
aF0.667
aI0
aI0
aF0.0
aI2
aI2
aF1.0
aI3
aI4
aI7
aI0
aI0
aI1
aI0
aI1
aI6
aI-5
aa(lp289
V0021301003
p290
aVMAR 18, 2014
p291
aVMIA @ CLE
p292
aVW
p293
aI21
aI0
aI2
aF0.0
aI0
aI0
aF0.0
aI3
aI6
aF0.5
aI3
aI5
aI8
aI1
aI0
aI1
aI2
aI3
aI3
aI-6
aa(lp294
V0021301009
p295
aVMAR 19, 2014
p296
aVMIA @ BOS
p297
aVL
p298
aI20
aI6
aI7
aF0.857
aI0
aI0
aF0.0
aI4
aI5
aF0.8
aI6
aI2
aI8
aI0
aI0
aI0
aI0
aI0
aI16
aI-3
aa(lp299
V0021301027
p300
aVMAR 21, 2014
p301
aVMIA vs. MEM
p302
aVW
p303
aI19
aI2
aI4
aF0.5
aI0
aI0
aF0.0
aI1
aI1
aF1.0
aI3
aI1
aI4
aI0
aI0
aI1
aI2
aI3
aI5
aI9
aa(lp304
V0021301036
p305
aVMAR 22, 2014
p306
aVMIA @ NOP
p307
aVL
p308
aI15
aI1
aI1
aF1.0
aI0
aI0
aF0.0
aI3
aI4
aF0.75
aI0
aI2
aI2
aI0
aI2
aI3
aI1
aI3
aI5
aI-10
aa(lp309
V0021301049
p310
aVMAR 24, 2014
p311
aVMIA vs. POR
p312
aVW
p313
aI23
aI4
aI8
aF0.5
aI0
aI0
aF0.0
aI5
aI6
aF0.833
aI5
aI6
aI11
aI0
aI1
aI2
aI1
aI5
aI13
aI-11
aa(lp314
V0021301067
p315
aVMAR 26, 2014
p316
aVMIA @ IND
p317
aVL
p318
aI19
aI1
aI1
aF1.0
aI0
aI0
aF0.0
aI1
aI2
aF0.5
aI0
aI4
aI4
aI0
aI0
aI3
aI0
aI1
aI3
aI0
aa(lp319
V0021301079
p320
aVMAR 28, 2014
p321
aVMIA @ DET
p322
aVW
p323
aI22
aI4
aI6
aF0.667
aI0
aI0
aF0.0
aI5
aI6
aF0.833
aI1
aI5
aI6
aI0
aI1
aI0
aI1
aI1
aI13
aI9
aa(lp324
V0021301091
p325
aVMAR 29, 2014
p326
aVMIA @ MIL
p327
aVW
p328
aI22
aI3
aI8
aF0.375
aI0
aI0
aF0.0
aI2
aI4
aF0.5
aI5
aI9
aI14
aI0
aI1
aI2
aI0
aI0
aI8
aI8
aa(lp329
V0021301105
p330
aVMAR 31, 2014
p331
aVMIA vs. TOR
p332
aVW
p333
aI25
aI5
aI5
aF1.0
aI0
aI0
aF0.0
aI3
aI3
aF1.0
aI3
aI4
aI7
aI0
aI0
aI2
aI1
aI3
aI13
aI-4
aa(lp334
V0021301121
p335
aVAPR 02, 2014
p336
aVMIA vs. MIL
p337
aVW
p338
aI18
aI2
aI4
aF0.5
aI0
aI1
aF0.0
aI4
aI4
aF1.0
aI2
aI5
aI7
aI0
aI1
aI2
aI1
aI1
aI8
aI15
aa(lp339
V0021301135
p340
aVAPR 04, 2014
p341
aVMIA vs. MIN
p342
aVL
p343
aI22
aI4
aI8
aF0.5
aI0
aI0
aF0.0
aI0
aI0
aF0.0
aI5
aI3
aI8
aI0
aI0
aI0
aI1
aI2
aI8
aI2
aa(lp344
V0021301158
p345
aVAPR 08, 2014
p346
aVMIA vs. BKN
p347
aVL
p348
aI19
aI2
aI4
aF0.5
aI0
aI0
aF0.0
aI1
aI2
aF0.5
aI1
aI4
aI5
aI0
aI0
aI0
aI1
aI0
aI5
aI3
aa(lp349
V0021301180
p350
aVAPR 11, 2014
p351
aVMIA vs. IND
p352
aVW
p353
aI16
aI1
aI4
aF0.25
aI0
aI0
aF0.0
aI3
aI4
aF0.75
aI2
aI4
aI6
aI0
aI0
aI1
aI2
aI4
aI5
aI-9
aa(lp354
V0021301192
p355
aVAPR 12, 2014
p356
aVMIA @ ATL
p357
aVL
p358
aI20
aI1
aI2
aF0.5
aI0
aI0
aF0.0
aI0
aI0
aF0.0
aI1
aI6
aI7
aI0
aI0
aI2
aI1
aI0
aI2
aI4
aa(lp359
V0021301206
p360
aVAPR 14, 2014
p361
aVMIA @ WAS
p362
aVL
p363
aI7
aI0
aI1
aF0.0
aI0
aI0
aF0.0
aI0
aI0
aF0.0
aI0
aI1
aI1
aI0
aI0
aI1
aI0
aI2
aI0
aI-5
aasS'name'
p364
VChris Andersen
p365
sS'experience'
p366
I12
s.