(dp0
S'stats'
p1
(lp2
(lp3
V0021300002
p4
aVOCT 29, 2013
p5
aVMIA vs. CHI
p6
aVW
p7
aI17
aI3
aI5
aF0.6
aI0
aI0
aF0.0
aI0
aI0
aF0.0
aI1
aI7
aI8
aI0
aI2
aI2
aI0
aI2
aI6
aI14
aa(lp8
V0021300005
p9
aVOCT 30, 2013
p10
aVMIA @ PHI
p11
aVL
p12
aI14
aI0
aI1
aF0.0
aI0
aI0
aF0.0
aI0
aI0
aF0.0
aI0
aI0
aI0
aI1
aI0
aI0
aI3
aI3
aI0
aI1
aa(lp13
V0021300028
p14
aVNOV 01, 2013
p15
aVMIA @ BKN
p16
aVL
p17
aI14
aI1
aI3
aF0.333
aI0
aI0
aF0.0
aI2
aI3
aF0.667
aI1
aI0
aI1
aI1
aI1
aI0
aI0
aI5
aI4
aI-1
aa(lp18
V0021300042
p19
aVNOV 03, 2013
p20
aVMIA vs. WAS
p21
aVW
p22
aI17
aI2
aI3
aF0.667
aI0
aI0
aF0.0
aI4
aI6
aF0.667
aI3
aI2
aI5
aI0
aI0
aI1
aI1
aI2
aI8
aI-1
aa(lp23
V0021300051
p24
aVNOV 05, 2013
p25
aVMIA @ TOR
p26
aVW
p27
aI17
aI3
aI4
aF0.75
aI0
aI0
aF0.0
aI0
aI0
aF0.0
aI1
aI2
aI3
aI0
aI0
aI0
aI2
aI4
aI6
aI10
aa(lp28
V0021300070
p29
aVNOV 07, 2013
p30
aVMIA vs. LAC
p31
aVW
p32
aI19
aI3
aI3
aF1.0
aI0
aI0
aF0.0
aI4
aI5
aF0.8
aI1
aI2
aI3
aI1
aI0
aI1
aI2
aI2
aI10
aI12
aa(lp33
V0021300089
p34
aVNOV 09, 2013
p35
aVMIA vs. BOS
p36
aVL
p37
aI17
aI4
aI5
aF0.8
aI0
aI0
aF0.0
aI2
aI4
aF0.5
aI2
aI2
aI4
aI0
aI0
aI2
aI1
aI0
aI10
aI-9
aa(lp38
V0021300107
p39
aVNOV 12, 2013
p40
aVMIA vs. MIL
p41
aVW
p42
aI19
aI4
aI6
aF0.667
aI0
aI0
aF0.0
aI0
aI0
aF0.0
aI3
aI4
aI7
aI2
aI0
aI2
aI2
aI1
aI8
aI13
aa(lp43
V0021300130
p44
aVNOV 15, 2013
p45
aVMIA vs. DAL
p46
aVW
p47
aI18
aI2
aI4
aF0.5
aI0
aI0
aF0.0
aI0
aI0
aF0.0
aI1
aI6
aI7
aI0
aI0
aI0
aI0
aI2
aI4
aI15
aa(lp48
V0021300136
p49
aVNOV 16, 2013
p50
aVMIA @ CHA
p51
aVW
p52
aI24
aI2
aI2
aF1.0
aI0
aI0
aF0.0
aI6
aI6
aF1.0
aI0
aI7
aI7
aI1
aI1
aI2
aI1
aI2
aI10
aI15
aa(lp53
V0021300158
p54
aVNOV 19, 2013
p55
aVMIA vs. ATL
p56
aVW
p57
aI13
aI0
aI3
aF0.0
aI0
aI0
aF0.0
aI2
aI4
aF0.5
aI2
aI1
aI3
aI0
aI1
aI0
aI0
aI3
aI2
aI5
aa(lp58
V0021300164
p59
aVNOV 20, 2013
p60
aVMIA @ ORL
p61
aVW
p62
aI18
aI4
aI6
aF0.667
aI0
aI0
aF0.0
aI2
aI2
aF1.0
aI4
aI1
aI5
aI0
aI1
aI2
aI2
aI2
aI10
aI1
aa(lp63
V0021300191
p64
aVNOV 23, 2013
p65
aVMIA vs. ORL
p66
aVW
p67
aI17
aI3
aI4
aF0.75
aI0
aI0
aF0.0
aI0
aI0
aF0.0
aI2
aI2
aI4
aI0
aI0
aI0
aI1
aI3
aI6
aI-12
aa(lp68
V0021300205
p69
aVNOV 25, 2013
p70
aVMIA vs. PHX
p71
aVW
p72
aI19
aI5
aI8
aF0.625
aI0
aI0
aF0.0
aI1
aI2
aF0.5
aI2
aI5
aI7
aI0
aI0
aI1
aI0
aI1
aI11
aI13
aa(lp73
V0021300219
p74
aVNOV 27, 2013
p75
aVMIA @ CLE
p76
aVW
p77
aI18
aI1
aI1
aF1.0
aI0
aI0
aF0.0
aI0
aI0
aF0.0
aI0
aI5
aI5
aI0
aI0
aI2
aI1
aI3
aI2
aI5
aa(lp78
V0021300230
p79
aVNOV 29, 2013
p80
aVMIA @ TOR
p81
aVW
p82
aI19
aI2
aI3
aF0.667
aI0
aI0
aF0.0
aI1
aI2
aF0.5
aI0
aI4
aI4
aI1
aI0
aI2
aI0
aI3
aI5
aI-7
aa(lp83
V0021300252
p84
aVDEC 01, 2013
p85
aVMIA vs. CHA
p86
aVW
p87
aI13
aI1
aI2
aF0.5
aI0
aI0
aF0.0
aI1
aI2
aF0.5
aI0
aI0
aI0
aI0
aI0
aI2
aI1
aI2
aI3
aI3
aa(lp88
V0021300264
p89
aVDEC 03, 2013
p90
aVMIA vs. DET
p91
aVL
p92
aI16
aI2
aI5
aF0.4
aI0
aI1
aF0.0
aI4
aI4
aF1.0
aI3
aI1
aI4
aI1
aI1
aI0
aI0
aI1
aI8
aI4
aa(lp93
V0021300294
p94
aVDEC 07, 2013
p95
aVMIA @ MIN
p96
aVW
p97
aI20
aI4
aI5
aF0.8
aI0
aI1
aF0.0
aI1
aI4
aF0.25
aI2
aI2
aI4
aI0
aI0
aI3
aI0
aI1
aI9
aI6
aa(lp98
V0021300300
p99
aVDEC 08, 2013
p100
aVMIA @ DET
p101
aVW
p102
aI23
aI4
aI5
aF0.8
aI0
aI0
aF0.0
aI2
aI2
aF1.0
aI2
aI3
aI5
aI1
aI0
aI1
aI0
aI1
aI10
aI1
aa(lp103
V0021300311
p104
aVDEC 10, 2013
p105
aVMIA @ IND
p106
aVL
p107
aI21
aI4
aI8
aF0.5
aI0
aI0
aF0.0
aI2
aI4
aF0.5
aI2
aI1
aI3
aI0
aI1
aI1
aI1
aI3
aI10
aI-6
aa(lp108
V0021300344
p109
aVDEC 14, 2013
p110
aVMIA vs. CLE
p111
aVW
p112
aI18
aI1
aI4
aF0.25
aI1
aI1
aF1.0
aI0
aI0
aF0.0
aI1
aI4
aI5
aI0
aI0
aI3
aI1
aI1
aI3
aI-8
aa(lp113
V0021300360
p114
aVDEC 16, 2013
p115
aVMIA vs. UTA
p116
aVW
p117
aI15
aI0
aI0
aF0.0
aI0
aI0
aF0.0
aI1
aI2
aF0.5
aI0
aI5
aI5
aI1
aI1
aI3
aI0
aI1
aI1
aI-2
aa(lp118
V0021300369
p119
aVDEC 18, 2013
p120
aVMIA vs. IND
p121
aVW
p122
aI28
aI4
aI5
aF0.8
aI0
aI0
aF0.0
aI0
aI0
aF0.0
aI1
aI3
aI4
aI0
aI0
aI0
aI0
aI4
aI8
aI7
aa(lp123
V0021300387
p124
aVDEC 20, 2013
p125
aVMIA vs. SAC
p126
aVW
p127
aI21
aI3
aI5
aF0.6
aI0
aI1
aF0.0
aI0
aI0
aF0.0
aI1
aI6
aI7
aI0
aI2
aI0
aI0
aI2
aI6
aI7
aa(lp128
V0021300411
p129
aVDEC 23, 2013
p130
aVMIA vs. ATL
p131
aVW
p132
aI25
aI3
aI3
aF1.0
aI0
aI0
aF0.0
aI6
aI9
aF0.667
aI3
aI6
aI9
aI2
aI0
aI2
aI1
aI1
aI12
aI12
aa(lp133
V0021300420
p134
aVDEC 25, 2013
p135
aVMIA @ LAL
p136
aVW
p137
aI8
aI1
aI1
aF1.0
aI0
aI0
aF0.0
aI0
aI0
aF0.0
aI0
aI1
aI1
aI0
aI0
aI1
aI1
aI2
aI2
aI0
aa(lp138
V0021300474
p139
aVJAN 02, 2014
p140
aVMIA vs. GSW
p141
aVL
p142
aI17
aI0
aI1
aF0.0
aI0
aI0
aF0.0
aI2
aI2
aF1.0
aI0
aI2
aI2
aI1
aI0
aI0
aI0
aI1
aI2
aI6
aa(lp143
V0021300490
p144
aVJAN 04, 2014
p145
aVMIA @ ORL
p146
aVW
p147
aI15
aI1
aI3
aF0.333
aI0
aI1
aF0.0
aI4
aI4
aF1.0
aI2
aI1
aI3
aI0
aI0
aI0
aI2
aI4
aI6
aI0
aa(lp148
V0021300500
p149
aVJAN 05, 2014
p150
aVMIA vs. TOR
p151
aVW
p152
aI16
aI2
aI2
aF1.0
aI0
aI0
aF0.0
aI0
aI0
aF0.0
aI1
aI3
aI4
aI0
aI0
aI0
aI1
aI6
aI4
aI11
aa(lp153
V0021300511
p154
aVJAN 07, 2014
p155
aVMIA vs. NOP
p156
aVW
p157
aI23
aI7
aI7
aF1.0
aI0
aI0
aF0.0
aI1
aI3
aF0.333
aI2
aI5
aI7
aI2
aI1
aI1
aI0
aI2
aI15
aI15
aa(lp158
V0021300529
p159
aVJAN 09, 2014
p160
aVMIA @ NYK
p161
aVL
p162
aI21
aI1
aI2
aF0.5
aI0
aI0
aF0.0
aI0
aI0
aF0.0
aI1
aI2
aI3
aI1
aI3
aI1
aI1
aI2
aI2
aI-9
aa(lp163
V0021300537
p164
aVJAN 10, 2014
p165
aVMIA @ BKN
p166
aVL
p167
aI32
aI2
aI3
aF0.667
aI0
aI0
aF0.0
aI0
aI2
aF0.0
aI1
aI8
aI9
aI0
aI0
aI1
aI0
aI2
aI4
aI-2
aa(lp168
V0021300612
p169
aVJAN 20, 2014
p170
aVMIA @ ATL
p171
aVL
p172
aI17
aI2
aI4
aF0.5
aI0
aI0
aF0.0
aI4
aI4
aF1.0
aI1
aI1
aI2
aI0
aI0
aI1
aI0
aI2
aI8
aI-11
aa(lp173
V0021300617
p174
aVJAN 21, 2014
p175
aVMIA vs. BOS
p176
aVW
p177
aI25
aI5
aI5
aF1.0
aI0
aI0
aF0.0
aI3
aI4
aF0.75
aI3
aI4
aI7
aI0
aI1
aI1
aI2
aI1
aI13
aI3
aa(lp178
V0021300631
p179
aVJAN 23, 2014
p180
aVMIA vs. LAL
p181
aVW
p182
aI13
aI2
aI3
aF0.667
aI0
aI0
aF0.0
aI0
aI0
aF0.0
aI2
aI2
aI4
aI0
aI1
aI1
aI2
aI4
aI4
aI3
aa(lp183
V0021300654
p184
aVJAN 26, 2014
p185
aVMIA vs. SAS
p186
aVW
p187
aI17
aI3
aI4
aF0.75
aI0
aI1
aF0.0
aI2
aI2
aF1.0
aI2
aI3
aI5
aI0
aI0
aI2
aI1
aI2
aI8
aI11
aa(lp188
V0021300675
p189
aVJAN 29, 2014
p190
aVMIA vs. OKC
p191
aVL
p192
aI19
aI4
aI5
aF0.8
aI0
aI0
aF0.0
aI0
aI0
aF0.0
aI4
aI3
aI7
aI0
aI0
aI0
aI0
aI2
aI8
aI-8
aa(lp193
V0021300705
p194
aVFEB 01, 2014
p195
aVMIA @ NYK
p196
aVW
p197
aI29
aI2
aI2
aF1.0
aI0
aI0
aF0.0
aI6
aI9
aF0.667
aI2
aI3
aI5
aI0
aI0
aI2
aI0
aI3
aI10
aI9
aa(lp198
V0021300713
p199
aVFEB 03, 2014
p200
aVMIA vs. DET
p201
aVW
p202
aI22
aI1
aI2
aF0.5
aI0
aI0
aF0.0
aI0
aI0
aF0.0
aI2
aI1
aI3
aI0
aI2
aI2
aI1
aI1
aI2
aI-2
aa(lp203
V0021300736
p204
aVFEB 05, 2014
p205
aVMIA @ LAC
p206
aVW
p207
aI27
aI4
aI5
aF0.8
aI0
aI0
aF0.0
aI4
aI6
aF0.667
aI2
aI5
aI7
aI0
aI0
aI2
aI0
aI5
aI12
aI-5
aa(lp208
V0021300755
p209
aVFEB 08, 2014
p210
aVMIA @ UTA
p211
aVL
p212
aI18
aI1
aI1
aF1.0
aI0
aI0
aF0.0
aI1
aI2
aF0.5
aI3
aI2
aI5
aI0
aI0
aI0
aI0
aI4
aI3
aI-9
aa(lp213
V0021300774
p214
aVFEB 11, 2014
p215
aVMIA @ PHX
p216
aVW
p217
aI18
aI3
aI5
aF0.6
aI0
aI0
aF0.0
aI0
aI0
aF0.0
aI4
aI2
aI6
aI0
aI1
aI0
aI0
aI4
aI6
aI18
aa(lp218
V0021300788
p219
aVFEB 12, 2014
p220
aVMIA @ GSW
p221
aVW
p222
aI15
aI3
aI3
aF1.0
aI0
aI0
aF0.0
aI0
aI2
aF0.0
aI1
aI3
aI4
aI0
aI1
aI2
aI0
aI1
aI6
aI-4
aa(lp223
V0021300798
p224
aVFEB 18, 2014
p225
aVMIA @ DAL
p226
aVW
p227
aI27
aI7
aI9
aF0.778
aI1
aI1
aF1.0
aI3
aI3
aF1.0
aI2
aI1
aI3
aI0
aI0
aI1
aI0
aI4
aI18
aI6
aa(lp228
V0021300813
p229
aVFEB 20, 2014
p230
aVMIA @ OKC
p231
aVW
p232
aI21
aI0
aI0
aF0.0
aI0
aI0
aF0.0
aI0
aI0
aF0.0
aI2
aI6
aI8
aI1
aI0
aI2
aI1
aI3
aI0
aI-8
aa(lp233
V0021300834
p234
aVFEB 23, 2014
p235
aVMIA vs. CHI
p236
aVW
p237
aI26
aI3
aI8
aF0.375
aI0
aI2
aF0.0
aI1
aI4
aF0.25
aI3
aI0
aI3
aI1
aI1
aI2
aI2
aI3
aI7
aI12
aa(lp238
V0021300865
p239
aVFEB 27, 2014
p240
aVMIA vs. NYK
p241
aVW
p242
aI17
aI0
aI1
aF0.0
aI0
aI0
aF0.0
aI0
aI0
aF0.0
aI1
aI6
aI7
aI0
aI0
aI2
aI0
aI3
aI0
aI17
aa(lp243
V0021300874
p244
aVMAR 01, 2014
p245
aVMIA vs. ORL
p246
aVW
p247
aI19
aI2
aI3
aF0.667
aI0
aI0
aF0.0
aI1
aI2
aF0.5
aI2
aI3
aI5
aI0
aI0
aI1
aI0
aI3
aI5
aI11
aa(lp248
V0021300893
p249
aVMAR 03, 2014
p250
aVMIA vs. CHA
p251
aVW
p252
aI17
aI3
aI3
aF1.0
aI1
aI1
aF1.0
aI0
aI0
aF0.0
aI0
aI4
aI4
aI0
aI2
aI1
aI1
aI3
aI7
aI9
aa(lp253
V0021300900
p254
aVMAR 04, 2014
p255
aVMIA @ HOU
p256
aVL
p257
aI20
aI2
aI3
aF0.667
aI0
aI0
aF0.0
aI1
aI1
aF1.0
aI2
aI5
aI7
aI0
aI0
aI5
aI0
aI5
aI5
aI10
aa(lp258
V0021300914
p259
aVMAR 06, 2014
p260
aVMIA @ SAS
p261
aVL
p262
aI17
aI2
aI3
aF0.667
aI0
aI0
aF0.0
aI2
aI2
aF1.0
aI2
aI4
aI6
aI0
aI1
aI0
aI1
aI4
aI6
aI-13
aa(lp263
V0021300934
p264
aVMAR 09, 2014
p265
aVMIA @ CHI
p266
aVL
p267
aI33
aI1
aI2
aF0.5
aI0
aI0
aF0.0
aI0
aI0
aF0.0
aI2
aI11
aI13
aI0
aI0
aI6
aI0
aI0
aI2
aI2
aa(lp268
V0021300945
p269
aVMAR 10, 2014
p270
aVMIA vs. WAS
p271
aVW
p272
aI18
aI3
aI5
aF0.6
aI0
aI0
aF0.0
aI3
aI3
aF1.0
aI0
aI3
aI3
aI0
aI0
aI2
aI2
aI1
aI9
aI-7
aa(lp273
V0021300957
p274
aVMAR 12, 2014
p275
aVMIA vs. BKN
p276
aVL
p277
aI18
aI1
aI2
aF0.5
aI0
aI0
aF0.0
aI2
aI2
aF1.0
aI0
aI6
aI6
aI0
aI1
aI1
aI1
aI1
aI4
aI-7
aa(lp278
V0021300976
p279
aVMAR 14, 2014
p280
aVMIA vs. DEN
p281
aVL
p282
aI22
aI6
aI7
aF0.857
aI0
aI1
aF0.0
aI2
aI2
aF1.0
aI2
aI4
aI6
aI0
aI0
aI4
aI0
aI0
aI14
aI9
aa(lp283
V0021300989
p284
aVMAR 16, 2014
p285
aVMIA vs. HOU
p286
aVW
p287
aI21
aI2
aI3
aF0.667
aI0
aI0
aF0.0
aI2
aI2
aF1.0
aI3
aI4
aI7
aI0
aI0
aI1
aI0
aI1
aI6
aI-5
aa(lp288
V0021301003
p289
aVMAR 18, 2014
p290
aVMIA @ CLE
p291
aVW
p292
aI21
aI0
aI2
aF0.0
aI0
aI0
aF0.0
aI3
aI6
aF0.5
aI3
aI5
aI8
aI1
aI0
aI1
aI2
aI3
aI3
aI-6
aa(lp293
V0021301009
p294
aVMAR 19, 2014
p295
aVMIA @ BOS
p296
aVL
p297
aI20
aI6
aI7
aF0.857
aI0
aI0
aF0.0
aI4
aI5
aF0.8
aI6
aI2
aI8
aI0
aI0
aI0
aI0
aI0
aI16
aI-3
aa(lp298
V0021301027
p299
aVMAR 21, 2014
p300
aVMIA vs. MEM
p301
aVW
p302
aI19
aI2
aI4
aF0.5
aI0
aI0
aF0.0
aI1
aI1
aF1.0
aI3
aI1
aI4
aI0
aI0
aI1
aI2
aI3
aI5
aI9
aa(lp303
V0021301036
p304
aVMAR 22, 2014
p305
aVMIA @ NOP
p306
aVL
p307
aI15
aI1
aI1
aF1.0
aI0
aI0
aF0.0
aI3
aI4
aF0.75
aI0
aI2
aI2
aI0
aI2
aI3
aI1
aI3
aI5
aI-10
aa(lp308
V0021301049
p309
aVMAR 24, 2014
p310
aVMIA vs. POR
p311
aVW
p312
aI23
aI4
aI8
aF0.5
aI0
aI0
aF0.0
aI5
aI6
aF0.833
aI5
aI6
aI11
aI0
aI1
aI2
aI1
aI5
aI13
aI-11
aa(lp313
V0021301067
p314
aVMAR 26, 2014
p315
aVMIA @ IND
p316
aVL
p317
aI19
aI1
aI1
aF1.0
aI0
aI0
aF0.0
aI1
aI2
aF0.5
aI0
aI4
aI4
aI0
aI0
aI3
aI0
aI1
aI3
aI0
aa(lp318
V0021301079
p319
aVMAR 28, 2014
p320
aVMIA @ DET
p321
aVW
p322
aI22
aI4
aI6
aF0.667
aI0
aI0
aF0.0
aI5
aI6
aF0.833
aI1
aI5
aI6
aI0
aI1
aI0
aI1
aI1
aI13
aI9
aa(lp323
V0021301091
p324
aVMAR 29, 2014
p325
aVMIA @ MIL
p326
aVW
p327
aI22
aI3
aI8
aF0.375
aI0
aI0
aF0.0
aI2
aI4
aF0.5
aI5
aI9
aI14
aI0
aI1
aI2
aI0
aI0
aI8
aI8
aa(lp328
V0021301105
p329
aVMAR 31, 2014
p330
aVMIA vs. TOR
p331
aVW
p332
aI25
aI5
aI5
aF1.0
aI0
aI0
aF0.0
aI3
aI3
aF1.0
aI3
aI4
aI7
aI0
aI0
aI2
aI1
aI3
aI13
aI-4
aa(lp333
V0021301121
p334
aVAPR 02, 2014
p335
aVMIA vs. MIL
p336
aVW
p337
aI18
aI2
aI4
aF0.5
aI0
aI1
aF0.0
aI4
aI4
aF1.0
aI2
aI5
aI7
aI0
aI1
aI2
aI1
aI1
aI8
aI15
aa(lp338
V0021301135
p339
aVAPR 04, 2014
p340
aVMIA vs. MIN
p341
aVL
p342
aI22
aI4
aI8
aF0.5
aI0
aI0
aF0.0
aI0
aI0
aF0.0
aI5
aI3
aI8
aI0
aI0
aI0
aI1
aI2
aI8
aI2
aa(lp343
V0021301158
p344
aVAPR 08, 2014
p345
aVMIA vs. BKN
p346
aVL
p347
aI19
aI2
aI4
aF0.5
aI0
aI0
aF0.0
aI1
aI2
aF0.5
aI1
aI4
aI5
aI0
aI0
aI0
aI1
aI0
aI5
aI3
aa(lp348
V0021301180
p349
aVAPR 11, 2014
p350
aVMIA vs. IND
p351
aVW
p352
aI16
aI1
aI4
aF0.25
aI0
aI0
aF0.0
aI3
aI4
aF0.75
aI2
aI4
aI6
aI0
aI0
aI1
aI2
aI4
aI5
aI-9
aa(lp353
V0021301192
p354
aVAPR 12, 2014
p355
aVMIA @ ATL
p356
aVL
p357
aI20
aI1
aI2
aF0.5
aI0
aI0
aF0.0
aI0
aI0
aF0.0
aI1
aI6
aI7
aI0
aI0
aI2
aI1
aI0
aI2
aI4
aa(lp358
V0021301206
p359
aVAPR 14, 2014
p360
aVMIA @ WAS
p361
aVL
p362
aI7
aI0
aI1
aF0.0
aI0
aI0
aF0.0
aI0
aI0
aF0.0
aI0
aI1
aI1
aI0
aI0
aI1
aI0
aI2
aI0
aI-5
aasS'name'
p363
VChris Andersen
p364
sS'weight'
p365
V245
p366
sS'age'
p367
I35
sS'experience'
p368
I12
sS'height'
p369
V6-10
p370
sS'position'
p371
VForward-Center
p372
s.