(dp0
S'age'
p1
I31
sS'stats'
p2
(lp3
(lp4
V0021301222
p5
aVAPR 16, 2014
p6
aVWAS @ BOS
p7
aVW
p8
aI22
aI5
aI6
aF0.833
aI0
aI0
aF0.0
aI2
aI4
aF0.5
aI1
aI2
aI3
aI3
aI0
aI0
aI2
aI2
aI12
aI4
aa(lp9
V0021301206
p10
aVAPR 14, 2014
p11
aVWAS vs. MIA
p12
aVW
p13
aI24
aI8
aI12
aF0.667
aI0
aI0
aF0.0
aI2
aI4
aF0.5
aI1
aI3
aI4
aI2
aI1
aI1
aI5
aI2
aI18
aI10
aa(lp14
V0021301176
p15
aVAPR 11, 2014
p16
aVWAS @ ORL
p17
aVW
p18
aI20
aI7
aI11
aF0.636
aI0
aI0
aF0.0
aI3
aI6
aF0.5
aI1
aI2
aI3
aI2
aI1
aI1
aI2
aI0
aI17
aI6
aa(lp19
V0021301165
p20
aVAPR 09, 2014
p21
aVWAS vs. CHA
p22
aVL
p23
aI17
aI5
aI9
aF0.556
aI0
aI0
aF0.0
aI0
aI4
aF0.0
aI0
aI0
aI0
aI1
aI1
aI0
aI0
aI3
aI10
aI2
aa(lp24
V0021300835
p25
aVFEB 23, 2014
p26
aVWAS @ CLE
p27
aVW
p28
aI21
aI4
aI10
aF0.4
aI0
aI0
aF0.0
aI0
aI0
aF0.0
aI1
aI3
aI4
aI4
aI1
aI1
aI2
aI3
aI8
aI3
aa(lp29
V0021300826
p30
aVFEB 22, 2014
p31
aVWAS vs. NOP
p32
aVW
p33
aI33
aI13
aI19
aF0.684
aI0
aI0
aF0.0
aI4
aI6
aF0.667
aI3
aI4
aI7
aI0
aI3
aI2
aI4
aI3
aI30
aI13
aa(lp34
V0021300804
p35
aVFEB 19, 2014
p36
aVWAS @ ATL
p37
aVW
p38
aI31
aI3
aI9
aF0.333
aI0
aI0
aF0.0
aI4
aI6
aF0.667
aI1
aI5
aI6
aI2
aI1
aI0
aI5
aI4
aI10
aI7
aa(lp39
V0021300794
p40
aVFEB 18, 2014
p41
aVWAS vs. TOR
p42
aVL
p43
aI34
aI8
aI17
aF0.471
aI0
aI0
aF0.0
aI1
aI5
aF0.2
aI1
aI4
aI5
aI2
aI0
aI0
aI2
aI4
aI17
aI4
aa(lp44
V0021300784
p45
aVFEB 12, 2014
p46
aVWAS @ HOU
p47
aVL
p48
aI30
aI9
aI12
aF0.75
aI0
aI0
aF0.0
aI3
aI9
aF0.333
aI0
aI1
aI1
aI1
aI1
aI0
aI2
aI6
aI21
aI-6
aa(lp49
V0021300773
p50
aVFEB 11, 2014
p51
aVWAS @ MEM
p52
aVL
p53
aI36
aI7
aI13
aF0.538
aI0
aI1
aF0.0
aI3
aI3
aF1.0
aI1
aI3
aI4
aI3
aI3
aI1
aI2
aI4
aI17
aI-4
aa(lp54
V0021300762
p55
aVFEB 09, 2014
p56
aVWAS vs. SAC
p57
aVW
p58
aI35
aI6
aI13
aF0.462
aI0
aI0
aF0.0
aI6
aI7
aF0.857
aI2
aI3
aI5
aI5
aI2
aI3
aI1
aI3
aI18
aI10
aa(lp59
V0021300742
p60
aVFEB 07, 2014
p61
aVWAS vs. CLE
p62
aVL
p63
aI34
aI6
aI10
aF0.6
aI0
aI0
aF0.0
aI1
aI4
aF0.25
aI2
aI6
aI8
aI5
aI4
aI0
aI2
aI3
aI13
aI9
aa(lp64
V0021300727
p65
aVFEB 05, 2014
p66
aVWAS vs. SAS
p67
aVL
p68
aI38
aI4
aI14
aF0.286
aI0
aI0
aF0.0
aI4
aI6
aF0.667
aI0
aI7
aI7
aI3
aI2
aI1
aI3
aI3
aI12
aI-14
aa(lp69
V0021300711
p70
aVFEB 03, 2014
p71
aVWAS vs. POR
p72
aVW
p73
aI31
aI5
aI15
aF0.333
aI0
aI0
aF0.0
aI3
aI4
aF0.75
aI0
aI7
aI7
aI1
aI2
aI1
aI1
aI2
aI13
aI12
aa(lp74
V0021300698
p75
aVFEB 01, 2014
p76
aVWAS vs. OKC
p77
aVW
p78
aI27
aI8
aI12
aF0.667
aI1
aI1
aF1.0
aI0
aI2
aF0.0
aI2
aI3
aI5
aI1
aI1
aI0
aI3
aI5
aI17
aI-4
aa(lp79
V0021300685
p80
aVJAN 29, 2014
p81
aVWAS @ LAC
p82
aVL
p83
aI26
aI7
aI15
aF0.467
aI0
aI1
aF0.0
aI0
aI1
aF0.0
aI2
aI6
aI8
aI6
aI2
aI0
aI4
aI4
aI14
aI-12
aa(lp84
V0021300673
p85
aVJAN 28, 2014
p86
aVWAS @ GSW
p87
aVW
p88
aI35
aI7
aI15
aF0.467
aI0
aI0
aF0.0
aI2
aI2
aF1.0
aI2
aI5
aI7
aI2
aI2
aI1
aI3
aI3
aI16
aI7
aa(lp89
V0021300652
p90
aVJAN 25, 2014
p91
aVWAS @ UTA
p92
aVL
p93
aI33
aI9
aI16
aF0.563
aI0
aI0
aF0.0
aI1
aI2
aF0.5
aI3
aI3
aI6
aI2
aI0
aI1
aI1
aI3
aI19
aI2
aa(lp94
V0021300643
p95
aVJAN 24, 2014
p96
aVWAS @ PHX
p97
aVW
p98
aI33
aI8
aI15
aF0.533
aI0
aI0
aF0.0
aI2
aI4
aF0.5
aI5
aI3
aI8
aI2
aI1
aI1
aI6
aI3
aI18
aI11
aa(lp99
V0021300625
p100
aVJAN 22, 2014
p101
aVWAS vs. BOS
p102
aVL
p103
aI34
aI7
aI14
aF0.5
aI0
aI0
aF0.0
aI3
aI5
aF0.6
aI3
aI6
aI9
aI3
aI1
aI1
aI2
aI3
aI17
aI-2
aa(lp104
V0021300609
p105
aVJAN 20, 2014
p106
aVWAS vs. PHI
p107
aVW
p108
aI23
aI1
aI5
aF0.2
aI0
aI0
aF0.0
aI5
aI8
aF0.625
aI1
aI4
aI5
aI2
aI2
aI2
aI1
aI3
aI7
aI7
aa(lp109
V0021300595
p110
aVJAN 18, 2014
p111
aVWAS vs. DET
p112
aVL
p113
aI35
aI5
aI9
aF0.556
aI0
aI0
aF0.0
aI4
aI10
aF0.4
aI0
aI4
aI4
aI3
aI0
aI1
aI4
aI2
aI14
aI-9
aa(lp114
V0021300585
p115
aVJAN 17, 2014
p116
aVWAS vs. CHI
p117
aVW
p118
aI35
aI3
aI15
aF0.2
aI0
aI0
aF0.0
aI4
aI6
aF0.667
aI1
aI6
aI7
aI4
aI1
aI2
aI4
aI3
aI10
aI-10
aa(lp119
V0021300568
p120
aVJAN 15, 2014
p121
aVWAS vs. MIA
p122
aVW
p123
aI34
aI6
aI15
aF0.4
aI0
aI0
aF0.0
aI7
aI9
aF0.778
aI0
aI4
aI4
aI9
aI2
aI2
aI1
aI3
aI19
aI18
aa(lp124
V0021300558
p125
aVJAN 13, 2014
p126
aVWAS @ CHI
p127
aVW
p128
aI36
aI9
aI14
aF0.643
aI0
aI0
aF0.0
aI1
aI6
aF0.167
aI1
aI4
aI5
aI5
aI2
aI2
aI3
aI4
aI19
aI2
aa(lp129
V0021300544
p130
aVJAN 11, 2014
p131
aVWAS vs. HOU
p132
aVL
p133
aI27
aI3
aI10
aF0.3
aI0
aI0
aF0.0
aI2
aI6
aF0.333
aI4
aI6
aI10
aI6
aI1
aI1
aI0
aI5
aI8
aI11
aa(lp134
V0021300531
p135
aVJAN 10, 2014
p136
aVWAS @ IND
p137
aVL
p138
aI29
aI6
aI15
aF0.4
aI0
aI0
aF0.0
aI0
aI3
aF0.0
aI1
aI4
aI5
aI4
aI1
aI1
aI1
aI4
aI12
aI-7
aa(lp139
V0021300525
p140
aVJAN 08, 2014
p141
aVWAS @ NOP
p142
aVW
p143
aI27
aI4
aI6
aF0.667
aI0
aI0
aF0.0
aI3
aI5
aF0.6
aI0
aI4
aI4
aI3
aI1
aI1
aI4
aI3
aI11
aI-3
aa(lp144
V0021300508
p145
aVJAN 07, 2014
p146
aVWAS @ CHA
p147
aVW
p148
aI15
aI3
aI9
aF0.333
aI0
aI0
aF0.0
aI1
aI2
aF0.5
aI1
aI5
aI6
aI1
aI0
aI0
aI2
aI3
aI7
aI-3
aa(lp149
V0021300501
p150
aVJAN 05, 2014
p151
aVWAS vs. GSW
p152
aVL
p153
aI25
aI6
aI9
aF0.667
aI0
aI0
aF0.0
aI2
aI2
aF1.0
aI0
aI4
aI4
aI4
aI0
aI0
aI4
aI3
aI14
aI1
aa(lp154
V0021300482
p155
aVJAN 03, 2014
p156
aVWAS vs. TOR
p157
aVL
p158
aI20
aI4
aI9
aF0.444
aI0
aI0
aF0.0
aI7
aI8
aF0.875
aI1
aI3
aI4
aI0
aI0
aI1
aI4
aI0
aI15
aI-1
aa(lp159
V0021300468
p160
aVJAN 01, 2014
p161
aVWAS vs. DAL
p162
aVL
p163
aI24
aI2
aI7
aF0.286
aI0
aI0
aF0.0
aI0
aI2
aF0.0
aI2
aI1
aI3
aI1
aI2
aI1
aI2
aI6
aI4
aI-10
aa(lp164
V0021300453
p165
aVDEC 30, 2013
p166
aVWAS @ DET
p167
aVW
p168
aI28
aI5
aI9
aF0.556
aI0
aI0
aF0.0
aI1
aI2
aF0.5
aI0
aI6
aI6
aI5
aI0
aI0
aI1
aI3
aI11
aI13
aa(lp169
V0021300439
p170
aVDEC 28, 2013
p171
aVWAS vs. DET
p172
aVW
p173
aI19
aI2
aI4
aF0.5
aI0
aI1
aF0.0
aI3
aI4
aF0.75
aI1
aI4
aI5
aI3
aI2
aI0
aI3
aI1
aI7
aI12
aa(lp174
V0021300431
p175
aVDEC 27, 2013
p176
aVWAS @ MIN
p177
aVL
p178
aI22
aI4
aI10
aF0.4
aI0
aI0
aF0.0
aI5
aI8
aF0.625
aI1
aI4
aI5
aI0
aI0
aI0
aI2
aI3
aI13
aI-9
aa(lp179
V0021300393
p180
aVDEC 21, 2013
p181
aVWAS @ BOS
p182
aVW
p183
aI23
aI4
aI6
aF0.667
aI0
aI0
aF0.0
aI5
aI6
aF0.833
aI1
aI7
aI8
aI5
aI2
aI1
aI0
aI3
aI13
aI-3
aa(lp184
V0021300374
p185
aVDEC 18, 2013
p186
aVWAS @ BKN
p187
aVW
p188
aI23
aI6
aI10
aF0.6
aI0
aI0
aF0.0
aI5
aI7
aF0.714
aI0
aI3
aI3
aI2
aI2
aI0
aI1
aI1
aI17
aI2
aa(lp189
V0021300281
p190
aVDEC 06, 2013
p191
aVWAS vs. MIL
p192
aVL
p193
aI25
aI5
aI8
aF0.625
aI0
aI0
aF0.0
aI0
aI4
aF0.0
aI0
aI2
aI2
aI2
aI2
aI1
aI0
aI1
aI10
aI-1
aa(lp194
V0021300256
p195
aVDEC 02, 2013
p196
aVWAS vs. ORL
p197
aVW
p198
aI31
aI5
aI12
aF0.417
aI0
aI0
aF0.0
aI4
aI5
aF0.8
aI0
aI6
aI6
aI1
aI1
aI3
aI2
aI3
aI14
aI19
aa(lp199
V0021300241
p200
aVNOV 30, 2013
p201
aVWAS vs. ATL
p202
aVW
p203
aI36
aI4
aI12
aF0.333
aI0
aI0
aF0.0
aI5
aI6
aF0.833
aI1
aI11
aI12
aI3
aI1
aI1
aI2
aI3
aI13
aI13
aa(lp204
V0021300222
p205
aVNOV 27, 2013
p206
aVWAS @ MIL
p207
aVW
p208
aI35
aI2
aI6
aF0.333
aI0
aI0
aF0.0
aI5
aI6
aF0.833
aI2
aI6
aI8
aI1
aI1
aI0
aI2
aI1
aI9
aI5
aa(lp209
V0021300212
p210
aVNOV 26, 2013
p211
aVWAS vs. LAL
p212
aVW
p213
aI37
aI13
aI22
aF0.591
aI0
aI0
aF0.0
aI4
aI6
aF0.667
aI0
aI2
aI2
aI5
aI2
aI0
aI1
aI2
aI30
aI7
aa(lp214
V0021300189
p215
aVNOV 23, 2013
p216
aVWAS vs. NYK
p217
aVW
p218
aI35
aI4
aI10
aF0.4
aI0
aI0
aF0.0
aI0
aI2
aF0.0
aI1
aI6
aI7
aI3
aI1
aI1
aI1
aI4
aI8
aI0
aa(lp219
V0021300178
p220
aVNOV 22, 2013
p221
aVWAS @ TOR
p222
aVL
p223
aI37
aI5
aI14
aF0.357
aI0
aI0
aF0.0
aI0
aI0
aF0.0
aI0
aI10
aI10
aI4
aI0
aI2
aI4
aI3
aI10
aI2
aa(lp224
V0021300162
p225
aVNOV 20, 2013
p226
aVWAS @ CLE
p227
aVW
p228
aI38
aI10
aI16
aF0.625
aI0
aI0
aF0.0
aI4
aI4
aF1.0
aI1
aI7
aI8
aI6
aI1
aI1
aI1
aI5
aI24
aI15
aa(lp229
V0021300156
p230
aVNOV 19, 2013
p231
aVWAS vs. MIN
p232
aVW
p233
aI35
aI7
aI12
aF0.583
aI0
aI0
aF0.0
aI6
aI6
aF1.0
aI1
aI4
aI5
aI4
aI1
aI1
aI2
aI4
aI20
aI0
aa(lp234
V0021300138
p235
aVNOV 16, 2013
p236
aVWAS vs. CLE
p237
aVL
p238
aI37
aI9
aI16
aF0.563
aI0
aI1
aF0.0
aI6
aI9
aF0.667
aI1
aI6
aI7
aI2
aI1
aI2
aI3
aI4
aI24
aI-14
aa(lp239
V0021300117
p240
aVNOV 13, 2013
p241
aVWAS @ SAS
p242
aVL
p243
aI25
aI2
aI6
aF0.333
aI0
aI0
aF0.0
aI0
aI0
aF0.0
aI0
aI2
aI2
aI0
aI0
aI0
aI1
aI3
aI4
aI-17
aa(lp244
V0021300108
p245
aVNOV 12, 2013
p246
aVWAS @ DAL
p247
aVL
p248
aI33
aI3
aI7
aF0.429
aI0
aI0
aF0.0
aI8
aI14
aF0.571
aI4
aI3
aI7
aI3
aI3
aI0
aI6
aI3
aI14
aI-1
aa(lp249
V0021300095
p250
aVNOV 10, 2013
p251
aVWAS @ OKC
p252
aVL
p253
aI25
aI5
aI6
aF0.833
aI0
aI0
aF0.0
aI4
aI10
aF0.4
aI3
aI4
aI7
aI6
aI0
aI1
aI0
aI3
aI14
aI4
aa(lp254
V0021300077
p255
aVNOV 08, 2013
p256
aVWAS vs. BKN
p257
aVW
p258
aI35
aI8
aI12
aF0.667
aI0
aI0
aF0.0
aI4
aI7
aF0.571
aI2
aI6
aI8
aI3
aI1
aI1
aI2
aI4
aI20
aI6
aa(lp259
V0021300063
p260
aVNOV 06, 2013
p261
aVWAS @ PHI
p262
aVW
p263
aI29
aI4
aI10
aF0.4
aI0
aI0
aF0.0
aI2
aI2
aF1.0
aI2
aI3
aI5
aI2
aI1
aI2
aI1
aI4
aI10
aI20
aa(lp264
V0021300007
p265
aVOCT 30, 2013
p266
aVWAS @ DET
p267
aVL
p268
aI30
aI4
aI6
aF0.667
aI0
aI0
aF0.0
aI4
aI7
aF0.571
aI1
aI2
aI3
aI1
aI1
aI1
aI0
aI4
aI12
aI-10
aasS'name'
p269
VNene
p270
sS'experience'
p271
I11
s.