(dp0
S'age'
p1
I31
sS'stats'
p2
(lp3
(lp4
V0021300007
p5
aVOCT 30, 2013
p6
aVWAS @ DET
p7
aVL
p8
aI30
aI4
aI6
aF0.667
aI0
aI0
aF0.0
aI4
aI7
aF0.571
aI1
aI2
aI3
aI1
aI1
aI1
aI0
aI4
aI12
aI-10
aa(lp9
V0021300063
p10
aVNOV 06, 2013
p11
aVWAS @ PHI
p12
aVW
p13
aI29
aI4
aI10
aF0.4
aI0
aI0
aF0.0
aI2
aI2
aF1.0
aI2
aI3
aI5
aI2
aI1
aI2
aI1
aI4
aI10
aI20
aa(lp14
V0021300077
p15
aVNOV 08, 2013
p16
aVWAS vs. BKN
p17
aVW
p18
aI35
aI8
aI12
aF0.667
aI0
aI0
aF0.0
aI4
aI7
aF0.571
aI2
aI6
aI8
aI3
aI1
aI1
aI2
aI4
aI20
aI6
aa(lp19
V0021300095
p20
aVNOV 10, 2013
p21
aVWAS @ OKC
p22
aVL
p23
aI25
aI5
aI6
aF0.833
aI0
aI0
aF0.0
aI4
aI10
aF0.4
aI3
aI4
aI7
aI6
aI0
aI1
aI0
aI3
aI14
aI4
aa(lp24
V0021300108
p25
aVNOV 12, 2013
p26
aVWAS @ DAL
p27
aVL
p28
aI33
aI3
aI7
aF0.429
aI0
aI0
aF0.0
aI8
aI14
aF0.571
aI4
aI3
aI7
aI3
aI3
aI0
aI6
aI3
aI14
aI-1
aa(lp29
V0021300117
p30
aVNOV 13, 2013
p31
aVWAS @ SAS
p32
aVL
p33
aI25
aI2
aI6
aF0.333
aI0
aI0
aF0.0
aI0
aI0
aF0.0
aI0
aI2
aI2
aI0
aI0
aI0
aI1
aI3
aI4
aI-17
aa(lp34
V0021300138
p35
aVNOV 16, 2013
p36
aVWAS vs. CLE
p37
aVL
p38
aI37
aI9
aI16
aF0.563
aI0
aI1
aF0.0
aI6
aI9
aF0.667
aI1
aI6
aI7
aI2
aI1
aI2
aI3
aI4
aI24
aI-14
aa(lp39
V0021300156
p40
aVNOV 19, 2013
p41
aVWAS vs. MIN
p42
aVW
p43
aI35
aI7
aI12
aF0.583
aI0
aI0
aF0.0
aI6
aI6
aF1.0
aI1
aI4
aI5
aI4
aI1
aI1
aI2
aI4
aI20
aI0
aa(lp44
V0021300162
p45
aVNOV 20, 2013
p46
aVWAS @ CLE
p47
aVW
p48
aI38
aI10
aI16
aF0.625
aI0
aI0
aF0.0
aI4
aI4
aF1.0
aI1
aI7
aI8
aI6
aI1
aI1
aI1
aI5
aI24
aI15
aa(lp49
V0021300178
p50
aVNOV 22, 2013
p51
aVWAS @ TOR
p52
aVL
p53
aI37
aI5
aI14
aF0.357
aI0
aI0
aF0.0
aI0
aI0
aF0.0
aI0
aI10
aI10
aI4
aI0
aI2
aI4
aI3
aI10
aI2
aa(lp54
V0021300189
p55
aVNOV 23, 2013
p56
aVWAS vs. NYK
p57
aVW
p58
aI35
aI4
aI10
aF0.4
aI0
aI0
aF0.0
aI0
aI2
aF0.0
aI1
aI6
aI7
aI3
aI1
aI1
aI1
aI4
aI8
aI0
aa(lp59
V0021300212
p60
aVNOV 26, 2013
p61
aVWAS vs. LAL
p62
aVW
p63
aI37
aI13
aI22
aF0.591
aI0
aI0
aF0.0
aI4
aI6
aF0.667
aI0
aI2
aI2
aI5
aI2
aI0
aI1
aI2
aI30
aI7
aa(lp64
V0021300222
p65
aVNOV 27, 2013
p66
aVWAS @ MIL
p67
aVW
p68
aI35
aI2
aI6
aF0.333
aI0
aI0
aF0.0
aI5
aI6
aF0.833
aI2
aI6
aI8
aI1
aI1
aI0
aI2
aI1
aI9
aI5
aa(lp69
V0021300241
p70
aVNOV 30, 2013
p71
aVWAS vs. ATL
p72
aVW
p73
aI36
aI4
aI12
aF0.333
aI0
aI0
aF0.0
aI5
aI6
aF0.833
aI1
aI11
aI12
aI3
aI1
aI1
aI2
aI3
aI13
aI13
aa(lp74
V0021300256
p75
aVDEC 02, 2013
p76
aVWAS vs. ORL
p77
aVW
p78
aI31
aI5
aI12
aF0.417
aI0
aI0
aF0.0
aI4
aI5
aF0.8
aI0
aI6
aI6
aI1
aI1
aI3
aI2
aI3
aI14
aI19
aa(lp79
V0021300281
p80
aVDEC 06, 2013
p81
aVWAS vs. MIL
p82
aVL
p83
aI25
aI5
aI8
aF0.625
aI0
aI0
aF0.0
aI0
aI4
aF0.0
aI0
aI2
aI2
aI2
aI2
aI1
aI0
aI1
aI10
aI-1
aa(lp84
V0021300374
p85
aVDEC 18, 2013
p86
aVWAS @ BKN
p87
aVW
p88
aI23
aI6
aI10
aF0.6
aI0
aI0
aF0.0
aI5
aI7
aF0.714
aI0
aI3
aI3
aI2
aI2
aI0
aI1
aI1
aI17
aI2
aa(lp89
V0021300393
p90
aVDEC 21, 2013
p91
aVWAS @ BOS
p92
aVW
p93
aI23
aI4
aI6
aF0.667
aI0
aI0
aF0.0
aI5
aI6
aF0.833
aI1
aI7
aI8
aI5
aI2
aI1
aI0
aI3
aI13
aI-3
aa(lp94
V0021300431
p95
aVDEC 27, 2013
p96
aVWAS @ MIN
p97
aVL
p98
aI22
aI4
aI10
aF0.4
aI0
aI0
aF0.0
aI5
aI8
aF0.625
aI1
aI4
aI5
aI0
aI0
aI0
aI2
aI3
aI13
aI-9
aa(lp99
V0021300439
p100
aVDEC 28, 2013
p101
aVWAS vs. DET
p102
aVW
p103
aI19
aI2
aI4
aF0.5
aI0
aI1
aF0.0
aI3
aI4
aF0.75
aI1
aI4
aI5
aI3
aI2
aI0
aI3
aI1
aI7
aI12
aa(lp104
V0021300453
p105
aVDEC 30, 2013
p106
aVWAS @ DET
p107
aVW
p108
aI28
aI5
aI9
aF0.556
aI0
aI0
aF0.0
aI1
aI2
aF0.5
aI0
aI6
aI6
aI5
aI0
aI0
aI1
aI3
aI11
aI13
aa(lp109
V0021300468
p110
aVJAN 01, 2014
p111
aVWAS vs. DAL
p112
aVL
p113
aI24
aI2
aI7
aF0.286
aI0
aI0
aF0.0
aI0
aI2
aF0.0
aI2
aI1
aI3
aI1
aI2
aI1
aI2
aI6
aI4
aI-10
aa(lp114
V0021300482
p115
aVJAN 03, 2014
p116
aVWAS vs. TOR
p117
aVL
p118
aI20
aI4
aI9
aF0.444
aI0
aI0
aF0.0
aI7
aI8
aF0.875
aI1
aI3
aI4
aI0
aI0
aI1
aI4
aI0
aI15
aI-1
aa(lp119
V0021300501
p120
aVJAN 05, 2014
p121
aVWAS vs. GSW
p122
aVL
p123
aI25
aI6
aI9
aF0.667
aI0
aI0
aF0.0
aI2
aI2
aF1.0
aI0
aI4
aI4
aI4
aI0
aI0
aI4
aI3
aI14
aI1
aa(lp124
V0021300508
p125
aVJAN 07, 2014
p126
aVWAS @ CHA
p127
aVW
p128
aI15
aI3
aI9
aF0.333
aI0
aI0
aF0.0
aI1
aI2
aF0.5
aI1
aI5
aI6
aI1
aI0
aI0
aI2
aI3
aI7
aI-3
aa(lp129
V0021300525
p130
aVJAN 08, 2014
p131
aVWAS @ NOP
p132
aVW
p133
aI27
aI4
aI6
aF0.667
aI0
aI0
aF0.0
aI3
aI5
aF0.6
aI0
aI4
aI4
aI3
aI1
aI1
aI4
aI3
aI11
aI-3
aa(lp134
V0021300531
p135
aVJAN 10, 2014
p136
aVWAS @ IND
p137
aVL
p138
aI29
aI6
aI15
aF0.4
aI0
aI0
aF0.0
aI0
aI3
aF0.0
aI1
aI4
aI5
aI4
aI1
aI1
aI1
aI4
aI12
aI-7
aa(lp139
V0021300544
p140
aVJAN 11, 2014
p141
aVWAS vs. HOU
p142
aVL
p143
aI27
aI3
aI10
aF0.3
aI0
aI0
aF0.0
aI2
aI6
aF0.333
aI4
aI6
aI10
aI6
aI1
aI1
aI0
aI5
aI8
aI11
aa(lp144
V0021300558
p145
aVJAN 13, 2014
p146
aVWAS @ CHI
p147
aVW
p148
aI36
aI9
aI14
aF0.643
aI0
aI0
aF0.0
aI1
aI6
aF0.167
aI1
aI4
aI5
aI5
aI2
aI2
aI3
aI4
aI19
aI2
aa(lp149
V0021300568
p150
aVJAN 15, 2014
p151
aVWAS vs. MIA
p152
aVW
p153
aI34
aI6
aI15
aF0.4
aI0
aI0
aF0.0
aI7
aI9
aF0.778
aI0
aI4
aI4
aI9
aI2
aI2
aI1
aI3
aI19
aI18
aa(lp154
V0021300585
p155
aVJAN 17, 2014
p156
aVWAS vs. CHI
p157
aVW
p158
aI35
aI3
aI15
aF0.2
aI0
aI0
aF0.0
aI4
aI6
aF0.667
aI1
aI6
aI7
aI4
aI1
aI2
aI4
aI3
aI10
aI-10
aa(lp159
V0021300595
p160
aVJAN 18, 2014
p161
aVWAS vs. DET
p162
aVL
p163
aI35
aI5
aI9
aF0.556
aI0
aI0
aF0.0
aI4
aI10
aF0.4
aI0
aI4
aI4
aI3
aI0
aI1
aI4
aI2
aI14
aI-9
aa(lp164
V0021300609
p165
aVJAN 20, 2014
p166
aVWAS vs. PHI
p167
aVW
p168
aI23
aI1
aI5
aF0.2
aI0
aI0
aF0.0
aI5
aI8
aF0.625
aI1
aI4
aI5
aI2
aI2
aI2
aI1
aI3
aI7
aI7
aa(lp169
V0021300625
p170
aVJAN 22, 2014
p171
aVWAS vs. BOS
p172
aVL
p173
aI34
aI7
aI14
aF0.5
aI0
aI0
aF0.0
aI3
aI5
aF0.6
aI3
aI6
aI9
aI3
aI1
aI1
aI2
aI3
aI17
aI-2
aa(lp174
V0021300643
p175
aVJAN 24, 2014
p176
aVWAS @ PHX
p177
aVW
p178
aI33
aI8
aI15
aF0.533
aI0
aI0
aF0.0
aI2
aI4
aF0.5
aI5
aI3
aI8
aI2
aI1
aI1
aI6
aI3
aI18
aI11
aa(lp179
V0021300652
p180
aVJAN 25, 2014
p181
aVWAS @ UTA
p182
aVL
p183
aI33
aI9
aI16
aF0.563
aI0
aI0
aF0.0
aI1
aI2
aF0.5
aI3
aI3
aI6
aI2
aI0
aI1
aI1
aI3
aI19
aI2
aa(lp184
V0021300673
p185
aVJAN 28, 2014
p186
aVWAS @ GSW
p187
aVW
p188
aI35
aI7
aI15
aF0.467
aI0
aI0
aF0.0
aI2
aI2
aF1.0
aI2
aI5
aI7
aI2
aI2
aI1
aI3
aI3
aI16
aI7
aa(lp189
V0021300685
p190
aVJAN 29, 2014
p191
aVWAS @ LAC
p192
aVL
p193
aI26
aI7
aI15
aF0.467
aI0
aI1
aF0.0
aI0
aI1
aF0.0
aI2
aI6
aI8
aI6
aI2
aI0
aI4
aI4
aI14
aI-12
aa(lp194
V0021300698
p195
aVFEB 01, 2014
p196
aVWAS vs. OKC
p197
aVW
p198
aI27
aI8
aI12
aF0.667
aI1
aI1
aF1.0
aI0
aI2
aF0.0
aI2
aI3
aI5
aI1
aI1
aI0
aI3
aI5
aI17
aI-4
aa(lp199
V0021300711
p200
aVFEB 03, 2014
p201
aVWAS vs. POR
p202
aVW
p203
aI31
aI5
aI15
aF0.333
aI0
aI0
aF0.0
aI3
aI4
aF0.75
aI0
aI7
aI7
aI1
aI2
aI1
aI1
aI2
aI13
aI12
aa(lp204
V0021300727
p205
aVFEB 05, 2014
p206
aVWAS vs. SAS
p207
aVL
p208
aI38
aI4
aI14
aF0.286
aI0
aI0
aF0.0
aI4
aI6
aF0.667
aI0
aI7
aI7
aI3
aI2
aI1
aI3
aI3
aI12
aI-14
aa(lp209
V0021300742
p210
aVFEB 07, 2014
p211
aVWAS vs. CLE
p212
aVL
p213
aI34
aI6
aI10
aF0.6
aI0
aI0
aF0.0
aI1
aI4
aF0.25
aI2
aI6
aI8
aI5
aI4
aI0
aI2
aI3
aI13
aI9
aa(lp214
V0021300762
p215
aVFEB 09, 2014
p216
aVWAS vs. SAC
p217
aVW
p218
aI35
aI6
aI13
aF0.462
aI0
aI0
aF0.0
aI6
aI7
aF0.857
aI2
aI3
aI5
aI5
aI2
aI3
aI1
aI3
aI18
aI10
aa(lp219
V0021300773
p220
aVFEB 11, 2014
p221
aVWAS @ MEM
p222
aVL
p223
aI36
aI7
aI13
aF0.538
aI0
aI1
aF0.0
aI3
aI3
aF1.0
aI1
aI3
aI4
aI3
aI3
aI1
aI2
aI4
aI17
aI-4
aa(lp224
V0021300784
p225
aVFEB 12, 2014
p226
aVWAS @ HOU
p227
aVL
p228
aI30
aI9
aI12
aF0.75
aI0
aI0
aF0.0
aI3
aI9
aF0.333
aI0
aI1
aI1
aI1
aI1
aI0
aI2
aI6
aI21
aI-6
aa(lp229
V0021300794
p230
aVFEB 18, 2014
p231
aVWAS vs. TOR
p232
aVL
p233
aI34
aI8
aI17
aF0.471
aI0
aI0
aF0.0
aI1
aI5
aF0.2
aI1
aI4
aI5
aI2
aI0
aI0
aI2
aI4
aI17
aI4
aa(lp234
V0021300804
p235
aVFEB 19, 2014
p236
aVWAS @ ATL
p237
aVW
p238
aI31
aI3
aI9
aF0.333
aI0
aI0
aF0.0
aI4
aI6
aF0.667
aI1
aI5
aI6
aI2
aI1
aI0
aI5
aI4
aI10
aI7
aa(lp239
V0021300826
p240
aVFEB 22, 2014
p241
aVWAS vs. NOP
p242
aVW
p243
aI33
aI13
aI19
aF0.684
aI0
aI0
aF0.0
aI4
aI6
aF0.667
aI3
aI4
aI7
aI0
aI3
aI2
aI4
aI3
aI30
aI13
aa(lp244
V0021300835
p245
aVFEB 23, 2014
p246
aVWAS @ CLE
p247
aVW
p248
aI21
aI4
aI10
aF0.4
aI0
aI0
aF0.0
aI0
aI0
aF0.0
aI1
aI3
aI4
aI4
aI1
aI1
aI2
aI3
aI8
aI3
aa(lp249
V0021301165
p250
aVAPR 09, 2014
p251
aVWAS vs. CHA
p252
aVL
p253
aI17
aI5
aI9
aF0.556
aI0
aI0
aF0.0
aI0
aI4
aF0.0
aI0
aI0
aI0
aI1
aI1
aI0
aI0
aI3
aI10
aI2
aa(lp254
V0021301176
p255
aVAPR 11, 2014
p256
aVWAS @ ORL
p257
aVW
p258
aI20
aI7
aI11
aF0.636
aI0
aI0
aF0.0
aI3
aI6
aF0.5
aI1
aI2
aI3
aI2
aI1
aI1
aI2
aI0
aI17
aI6
aa(lp259
V0021301206
p260
aVAPR 14, 2014
p261
aVWAS vs. MIA
p262
aVW
p263
aI24
aI8
aI12
aF0.667
aI0
aI0
aF0.0
aI2
aI4
aF0.5
aI1
aI3
aI4
aI2
aI1
aI1
aI5
aI2
aI18
aI10
aa(lp264
V0021301222
p265
aVAPR 16, 2014
p266
aVWAS @ BOS
p267
aVW
p268
aI22
aI5
aI6
aF0.833
aI0
aI0
aF0.0
aI2
aI4
aF0.5
aI1
aI2
aI3
aI3
aI0
aI0
aI2
aI2
aI12
aI4
aasS'name'
p269
VNene
p270
sS'experience'
p271
I11
s.