(dp0
S'age'
p1
I33
sS'stats'
p2
(lp3
(lp4
V0021301228
p5
aVAPR 16, 2014
p6
aVLAC @ POR
p7
aVL
p8
aI33
aI6
aI11
aF0.545
aI2
aI6
aF0.333
aI5
aI6
aF0.833
aI0
aI8
aI8
aI1
aI0
aI0
aI1
aI5
aI19
aI9
aa(lp9
V0021301215
p10
aVAPR 15, 2014
p11
aVLAC vs. DEN
p12
aVW
p13
aI30
aI2
aI5
aF0.4
aI1
aI3
aF0.333
aI0
aI0
aF0.0
aI1
aI4
aI5
aI4
aI0
aI1
aI2
aI2
aI5
aI17
aa(lp14
V0021301189
p15
aVAPR 12, 2014
p16
aVLAC vs. SAC
p17
aVW
p18
aI30
aI4
aI6
aF0.667
aI2
aI3
aF0.667
aI2
aI2
aF1.0
aI0
aI5
aI5
aI3
aI1
aI0
aI1
aI1
aI12
aI18
aa(lp19
V0021301173
p20
aVAPR 09, 2014
p21
aVLAC vs. OKC
p22
aVL
p23
aI29
aI3
aI9
aF0.333
aI1
aI4
aF0.25
aI0
aI0
aF0.0
aI2
aI5
aI7
aI3
aI0
aI2
aI2
aI3
aI7
aI-5
aa(lp24
V0021301150
p25
aVAPR 06, 2014
p26
aVLAC vs. LAL
p27
aVW
p28
aI27
aI4
aI6
aF0.667
aI1
aI3
aF0.333
aI0
aI0
aF0.0
aI2
aI6
aI8
aI3
aI2
aI0
aI0
aI2
aI9
aI17
aa(lp29
V0021301128
p30
aVAPR 03, 2014
p31
aVLAC vs. DAL
p32
aVL
p33
aI38
aI2
aI9
aF0.222
aI1
aI6
aF0.167
aI1
aI2
aF0.5
aI1
aI5
aI6
aI2
aI0
aI1
aI2
aI2
aI6
aI-5
aa(lp34
V0021301125
p35
aVAPR 02, 2014
p36
aVLAC @ PHX
p37
aVW
p38
aI37
aI7
aI16
aF0.438
aI2
aI8
aF0.25
aI3
aI4
aF0.75
aI3
aI3
aI6
aI1
aI1
aI1
aI3
aI2
aI19
aI0
aa(lp39
V0021301107
p40
aVMAR 31, 2014
p41
aVLAC @ MIN
p42
aVW
p43
aI34
aI7
aI14
aF0.5
aI3
aI9
aF0.333
aI2
aI2
aF1.0
aI1
aI5
aI6
aI3
aI2
aI0
aI1
aI3
aI19
aI16
aa(lp44
V0021301088
p45
aVMAR 29, 2014
p46
aVLAC @ HOU
p47
aVW
p48
aI38
aI6
aI15
aF0.4
aI3
aI10
aF0.3
aI0
aI0
aF0.0
aI0
aI10
aI10
aI2
aI1
aI1
aI0
aI4
aI15
aI18
aa(lp49
V0021301074
p50
aVMAR 27, 2014
p51
aVLAC @ DAL
p52
aVW
p53
aI38
aI4
aI12
aF0.333
aI1
aI5
aF0.2
aI3
aI4
aF0.75
aI1
aI2
aI3
aI4
aI3
aI1
aI2
aI3
aI12
aI22
aa(lp54
V0021301066
p55
aVMAR 26, 2014
p56
aVLAC @ NOP
p57
aVL
p58
aI31
aI5
aI7
aF0.714
aI4
aI5
aF0.8
aI0
aI0
aF0.0
aI1
aI4
aI5
aI0
aI1
aI1
aI1
aI5
aI14
aI6
aa(lp59
V0021301056
p60
aVMAR 24, 2014
p61
aVLAC vs. MIL
p62
aVW
p63
aI28
aI3
aI8
aF0.375
aI2
aI5
aF0.4
aI0
aI0
aF0.0
aI0
aI1
aI1
aI1
aI1
aI0
aI3
aI3
aI8
aI2
aa(lp64
V0021301039
p65
aVMAR 22, 2014
p66
aVLAC vs. DET
p67
aVW
p68
aI33
aI5
aI16
aF0.313
aI2
aI10
aF0.2
aI2
aI3
aF0.667
aI0
aI7
aI7
aI1
aI1
aI2
aI2
aI1
aI14
aI21
aa(lp69
V0021301002
p70
aVMAR 17, 2014
p71
aVLAC @ DEN
p72
aVL
p73
aI27
aI4
aI7
aF0.571
aI1
aI3
aF0.333
aI0
aI0
aF0.0
aI1
aI4
aI5
aI2
aI1
aI0
aI2
aI4
aI9
aI-1
aa(lp74
V0021300995
p75
aVMAR 16, 2014
p76
aVLAC vs. CLE
p77
aVW
p78
aI30
aI5
aI11
aF0.455
aI1
aI6
aF0.167
aI0
aI0
aF0.0
aI0
aI2
aI2
aI3
aI2
aI1
aI0
aI3
aI11
aI28
aa(lp79
V0021300979
p80
aVMAR 14, 2014
p81
aVLAC @ UTA
p82
aVW
p83
aI31
aI6
aI9
aF0.667
aI3
aI6
aF0.5
aI0
aI0
aF0.0
aI0
aI2
aI2
aI3
aI1
aI1
aI4
aI3
aI15
aI1
aa(lp84
V0021300967
p85
aVMAR 12, 2014
p86
aVLAC vs. GSW
p87
aVW
p88
aI28
aI4
aI8
aF0.5
aI2
aI5
aF0.4
aI1
aI2
aF0.5
aI1
aI2
aI3
aI4
aI0
aI0
aI1
aI2
aI11
aI-2
aa(lp89
V0021300949
p90
aVMAR 10, 2014
p91
aVLAC vs. PHX
p92
aVW
p93
aI38
aI4
aI11
aF0.364
aI1
aI6
aF0.167
aI4
aI6
aF0.667
aI1
aI5
aI6
aI2
aI1
aI0
aI3
aI3
aI13
aI0
aa(lp94
V0021300933
p95
aVMAR 08, 2014
p96
aVLAC vs. ATL
p97
aVW
p98
aI33
aI6
aI12
aF0.5
aI3
aI9
aF0.333
aI2
aI2
aF1.0
aI1
aI3
aI4
aI2
aI1
aI1
aI4
aI2
aI17
aI2
aa(lp99
V0021300916
p100
aVMAR 06, 2014
p101
aVLAC @ LAL
p102
aVW
p103
aI30
aI7
aI13
aF0.538
aI3
aI7
aF0.429
aI0
aI0
aF0.0
aI2
aI10
aI12
aI5
aI3
aI0
aI1
aI2
aI17
aI43
aa(lp104
V0021300902
p105
aVMAR 04, 2014
p106
aVLAC @ PHX
p107
aVW
p108
aI40
aI12
aI17
aF0.706
aI4
aI7
aF0.571
aI0
aI0
aF0.0
aI1
aI5
aI6
aI2
aI1
aI1
aI1
aI3
aI28
aI15
aa(lp109
V0021300882
p110
aVMAR 01, 2014
p111
aVLAC vs. NOP
p112
aVW
p113
aI24
aI5
aI9
aF0.556
aI4
aI8
aF0.5
aI0
aI0
aF0.0
aI0
aI6
aI6
aI4
aI2
aI1
aI2
aI3
aI14
aI27
aa(lp114
V0021300862
p115
aVFEB 26, 2014
p116
aVLAC vs. HOU
p117
aVW
p118
aI33
aI5
aI9
aF0.556
aI1
aI4
aF0.25
aI0
aI0
aF0.0
aI2
aI0
aI2
aI2
aI1
aI1
aI1
aI4
aI11
aI13
aa(lp119
V0021300844
p120
aVFEB 24, 2014
p121
aVLAC @ NOP
p122
aVW
p123
aI34
aI4
aI6
aF0.667
aI2
aI3
aF0.667
aI2
aI2
aF1.0
aI0
aI3
aI3
aI3
aI0
aI1
aI0
aI2
aI12
aI12
aa(lp124
V0021300833
p125
aVFEB 23, 2014
p126
aVLAC @ OKC
p127
aVW
p128
aI33
aI8
aI14
aF0.571
aI6
aI10
aF0.6
aI2
aI2
aF1.0
aI3
aI4
aI7
aI1
aI2
aI0
aI0
aI5
aI24
aI21
aa(lp129
V0021300821
p130
aVFEB 21, 2014
p131
aVLAC @ MEM
p132
aVL
p133
aI35
aI6
aI13
aF0.462
aI3
aI7
aF0.429
aI0
aI0
aF0.0
aI1
aI6
aI7
aI2
aI0
aI0
aI2
aI2
aI15
aI3
aa(lp134
V0021300800
p135
aVFEB 18, 2014
p136
aVLAC vs. SAS
p137
aVL
p138
aI25
aI2
aI7
aF0.286
aI0
aI3
aF0.0
aI1
aI2
aF0.5
aI1
aI0
aI1
aI1
aI1
aI0
aI1
aI2
aI5
aI4
aa(lp139
V0021300789
p140
aVFEB 12, 2014
p141
aVLAC vs. POR
p142
aVW
p143
aI29
aI2
aI5
aF0.4
aI1
aI3
aF0.333
aI0
aI0
aF0.0
aI0
aI3
aI3
aI3
aI1
aI0
aI1
aI3
aI5
aI0
aa(lp144
V0021300763
p145
aVFEB 09, 2014
p146
aVLAC vs. PHI
p147
aVW
p148
aI26
aI4
aI6
aF0.667
aI1
aI2
aF0.5
aI0
aI0
aF0.0
aI1
aI3
aI4
aI0
aI2
aI1
aI2
aI3
aI9
aI34
aa(lp149
V0021300748
p150
aVFEB 07, 2014
p151
aVLAC vs. TOR
p152
aVW
p153
aI36
aI4
aI6
aF0.667
aI3
aI5
aF0.6
aI0
aI0
aF0.0
aI1
aI4
aI5
aI4
aI1
aI0
aI3
aI4
aI11
aI19
aa(lp154
V0021300736
p155
aVFEB 05, 2014
p156
aVLAC vs. MIA
p157
aVL
p158
aI40
aI4
aI11
aF0.364
aI1
aI5
aF0.2
aI3
aI4
aF0.75
aI5
aI2
aI7
aI4
aI2
aI0
aI2
aI4
aI12
aI12
aa(lp159
V0021300718
p160
aVFEB 03, 2014
p161
aVLAC @ DEN
p162
aVL
p163
aI32
aI4
aI10
aF0.4
aI2
aI6
aF0.333
aI0
aI0
aF0.0
aI0
aI4
aI4
aI5
aI0
aI0
aI2
aI4
aI10
aI-13
aa(lp164
V0021300708
p165
aVFEB 01, 2014
p166
aVLAC vs. UTA
p167
aVW
p168
aI28
aI3
aI7
aF0.429
aI0
aI2
aF0.0
aI3
aI6
aF0.5
aI2
aI2
aI4
aI2
aI0
aI1
aI2
aI5
aI9
aI1
aa(lp169
V0021300688
p170
aVJAN 30, 2014
p171
aVLAC @ GSW
p172
aVL
p173
aI27
aI0
aI3
aF0.0
aI0
aI1
aF0.0
aI0
aI0
aF0.0
aI0
aI3
aI3
aI2
aI0
aI0
aI0
aI3
aI0
aI-14
aa(lp174
V0021300685
p175
aVJAN 29, 2014
p176
aVLAC vs. WAS
p177
aVW
p178
aI27
aI2
aI7
aF0.286
aI0
aI1
aF0.0
aI0
aI0
aF0.0
aI0
aI4
aI4
aI1
aI1
aI0
aI1
aI2
aI4
aI0
aa(lp179
V0021300665
p180
aVJAN 27, 2014
p181
aVLAC @ MIL
p182
aVW
p183
aI27
aI1
aI9
aF0.111
aI1
aI6
aF0.167
aI0
aI0
aF0.0
aI0
aI4
aI4
aI2
aI1
aI1
aI0
aI3
aI3
aI18
aa(lp184
V0021300647
p185
aVJAN 25, 2014
p186
aVLAC @ TOR
p187
aVW
p188
aI32
aI4
aI7
aF0.571
aI3
aI3
aF1.0
aI0
aI0
aF0.0
aI1
aI3
aI4
aI1
aI1
aI0
aI2
aI2
aI11
aI4
aa(lp189
V0021300641
p190
aVJAN 24, 2014
p191
aVLAC @ CHI
p192
aVW
p193
aI24
aI5
aI6
aF0.833
aI3
aI4
aF0.75
aI0
aI0
aF0.0
aI0
aI2
aI2
aI3
aI1
aI0
aI1
aI2
aI13
aI8
aa(lp194
V0021300621
p195
aVJAN 22, 2014
p196
aVLAC @ CHA
p197
aVL
p198
aI17
aI2
aI7
aF0.286
aI0
aI1
aF0.0
aI0
aI0
aF0.0
aI1
aI0
aI1
aI0
aI0
aI0
aI0
aI3
aI4
aI0
aa(lp199
V0021300607
p200
aVJAN 20, 2014
p201
aVLAC @ DET
p202
aVW
p203
aI27
aI4
aI8
aF0.5
aI2
aI4
aF0.5
aI0
aI0
aF0.0
aI1
aI4
aI5
aI2
aI2
aI0
aI2
aI3
aI10
aI-6
aa(lp204
V0021300594
p205
aVJAN 18, 2014
p206
aVLAC @ IND
p207
aVL
p208
aI28
aI2
aI5
aF0.4
aI0
aI2
aF0.0
aI0
aI0
aF0.0
aI0
aI6
aI6
aI0
aI0
aI0
aI0
aI2
aI4
aI-4
aa(lp209
V0021300581
p210
aVJAN 17, 2014
p211
aVLAC @ NYK
p212
aVW
p213
aI22
aI2
aI9
aF0.222
aI0
aI4
aF0.0
aI1
aI2
aF0.5
aI1
aI3
aI4
aI1
aI1
aI0
aI0
aI5
aI5
aI9
aa(lp214
V0021300577
p215
aVJAN 15, 2014
p216
aVLAC vs. DAL
p217
aVW
p218
aI30
aI10
aI18
aF0.556
aI5
aI10
aF0.5
aI0
aI2
aF0.0
aI2
aI5
aI7
aI0
aI0
aI0
aI1
aI3
aI25
aI3
aa(lp219
V0021300542
p220
aVJAN 10, 2014
p221
aVLAC vs. LAL
p222
aVW
p223
aI20
aI2
aI8
aF0.25
aI0
aI3
aF0.0
aI3
aI4
aF0.75
aI2
aI4
aI6
aI1
aI1
aI0
aI0
aI2
aI7
aI18
aa(lp224
V0021300528
p225
aVJAN 08, 2014
p226
aVLAC vs. BOS
p227
aVW
p228
aI22
aI1
aI3
aF0.333
aI1
aI2
aF0.5
aI2
aI2
aF1.0
aI1
aI7
aI8
aI1
aI0
aI0
aI2
aI1
aI5
aI-7
aa(lp229
V0021300507
p230
aVJAN 06, 2014
p231
aVLAC vs. ORL
p232
aVW
p233
aI25
aI1
aI10
aF0.1
aI1
aI5
aF0.2
aI2
aI2
aF1.0
aI1
aI3
aI4
aI4
aI0
aI1
aI2
aI1
aI5
aI-2
aa(lp234
V0021300494
p235
aVJAN 04, 2014
p236
aVLAC @ SAS
p237
aVL
p238
aI28
aI2
aI9
aF0.222
aI0
aI5
aF0.0
aI3
aI4
aF0.75
aI2
aI3
aI5
aI1
aI0
aI0
aI3
aI5
aI7
aI-12
aa(lp239
V0021300486
p240
aVJAN 03, 2014
p241
aVLAC @ DAL
p242
aVW
p243
aI20
aI2
aI4
aF0.5
aI2
aI4
aF0.5
aI0
aI0
aF0.0
aI0
aI1
aI1
aI0
aI1
aI0
aI0
aI2
aI6
aI0
aa(lp244
V0021300472
p245
aVJAN 01, 2014
p246
aVLAC vs. CHA
p247
aVW
p248
aI20
aI2
aI10
aF0.2
aI0
aI6
aF0.0
aI0
aI0
aF0.0
aI1
aI4
aI5
aI2
aI0
aI0
aI0
aI2
aI4
aI-3
aa(lp249
V0021300459
p250
aVDEC 30, 2013
p251
aVLAC vs. PHX
p252
aVL
p253
aI26
aI5
aI10
aF0.5
aI3
aI7
aF0.429
aI0
aI0
aF0.0
aI0
aI4
aI4
aI0
aI0
aI1
aI2
aI3
aI13
aI-2
aa(lp254
V0021300447
p255
aVDEC 28, 2013
p256
aVLAC vs. UTA
p257
aVW
p258
aI21
aI3
aI4
aF0.75
aI1
aI2
aF0.5
aI0
aI1
aF0.0
aI0
aI1
aI1
aI1
aI1
aI1
aI2
aI3
aI7
aI-6
aa(lp259
V0021300426
p260
aVDEC 26, 2013
p261
aVLAC @ POR
p262
aVL
p263
aI23
aI5
aI10
aF0.5
aI1
aI3
aF0.333
aI1
aI2
aF0.5
aI2
aI3
aI5
aI0
aI0
aI0
aI1
aI6
aI12
aI-11
aa(lp264
V0021300422
p265
aVDEC 25, 2013
p266
aVLAC @ GSW
p267
aVL
p268
aI21
aI0
aI3
aF0.0
aI0
aI2
aF0.0
aI0
aI0
aF0.0
aI0
aI4
aI4
aI4
aI1
aI1
aI1
aI4
aI0
aI0
aa(lp269
V0021300406
p270
aVDEC 22, 2013
p271
aVLAC vs. MIN
p272
aVW
p273
aI11
aI1
aI2
aF0.5
aI0
aI1
aF0.0
aI1
aI2
aF0.5
aI1
aI1
aI2
aI1
aI0
aI0
aI0
aI2
aI3
aI0
aa(lp274
V0021300403
p275
aVDEC 21, 2013
p276
aVLAC vs. DEN
p277
aVW
p278
aI22
aI5
aI12
aF0.417
aI3
aI7
aF0.429
aI0
aI0
aF0.0
aI1
aI2
aI3
aI3
aI2
aI3
aI1
aI4
aI13
aI7
aa(lp279
V0021300155
p280
aVNOV 18, 2013
p281
aVLAC vs. MEM
p282
aVL
p283
aI23
aI2
aI6
aF0.333
aI1
aI2
aF0.5
aI7
aI7
aF1.0
aI0
aI2
aI2
aI1
aI1
aI0
aI1
aI2
aI12
aI-2
aa(lp284
V0021300146
p285
aVNOV 16, 2013
p286
aVLAC vs. BKN
p287
aVW
p288
aI24
aI1
aI3
aF0.333
aI0
aI0
aF0.0
aI0
aI0
aF0.0
aI1
aI4
aI5
aI0
aI0
aI0
aI0
aI4
aI2
aI13
aa(lp289
V0021300122
p290
aVNOV 13, 2013
p291
aVLAC vs. OKC
p292
aVW
p293
aI8
aI0
aI5
aF0.0
aI0
aI2
aF0.0
aI0
aI0
aF0.0
aI3
aI1
aI4
aI0
aI0
aI0
aI1
aI1
aI0
aI-6
aa(lp294
V0021300106
p295
aVNOV 11, 2013
p296
aVLAC vs. MIN
p297
aVW
p298
aI22
aI3
aI5
aF0.6
aI0
aI2
aF0.0
aI3
aI4
aF0.75
aI0
aI8
aI8
aI2
aI3
aI1
aI2
aI4
aI9
aI11
aa(lp299
V0021300050
p300
aVNOV 04, 2013
p301
aVLAC vs. HOU
p302
aVW
p303
aI15
aI1
aI3
aF0.333
aI0
aI2
aF0.0
aI0
aI0
aF0.0
aI1
aI2
aI3
aI2
aI0
aI0
aI2
aI2
aI2
aI-11
aa(lp304
V0021300031
p305
aVNOV 01, 2013
p306
aVLAC @ SAC
p307
aVW
p308
aI22
aI3
aI6
aF0.5
aI2
aI4
aF0.5
aI2
aI4
aF0.5
aI0
aI3
aI3
aI3
aI2
aI0
aI0
aI3
aI10
aI0
aa(lp309
V0021300019
p310
aVOCT 31, 2013
p311
aVLAC vs. GSW
p312
aVW
p313
aI18
aI0
aI4
aF0.0
aI0
aI1
aF0.0
aI4
aI4
aF1.0
aI1
aI2
aI3
aI2
aI0
aI0
aI1
aI3
aI4
aI8
aa(lp314
V0021300003
p315
aVOCT 29, 2013
p316
aVLAC @ LAL
p317
aVL
p318
aI28
aI3
aI6
aF0.5
aI1
aI3
aF0.333
aI1
aI1
aF1.0
aI2
aI4
aI6
aI3
aI2
aI0
aI3
aI4
aI8
aI-15
aasS'name'
p319
VMatt Barnes
p320
sS'experience'
p321
I11
s.