(dp0
S'age'
p1
I31
sS'stats'
p2
(lp3
(lp4
V0021301113
p5
aVAPR 01, 2014
p6
aVLAL vs. POR
p7
aVL
p8
aI29
aI6
aI16
aF0.375
aI0
aI0
aF0.0
aI0
aI0
aF0.0
aI1
aI5
aI6
aI2
aI1
aI3
aI2
aI2
aI12
aI-19
aa(lp9
V0021301100
p10
aVMAR 30, 2014
p11
aVLAL vs. PHX
p12
aVW
p13
aI32
aI13
aI19
aF0.684
aI0
aI0
aF0.0
aI2
aI2
aF1.0
aI5
aI12
aI17
aI6
aI0
aI0
aI3
aI5
aI28
aI31
aa(lp14
V0021301081
p15
aVMAR 28, 2014
p16
aVLAL @ MIN
p17
aVL
p18
aI6
aI1
aI2
aF0.5
aI0
aI0
aF0.0
aI0
aI0
aF0.0
aI0
aI1
aI1
aI0
aI1
aI0
aI0
aI1
aI2
aI-17
aa(lp19
V0021301073
p20
aVMAR 27, 2014
p21
aVLAL @ MIL
p22
aVL
p23
aI21
aI6
aI12
aF0.5
aI0
aI0
aF0.0
aI1
aI2
aF0.5
aI1
aI3
aI4
aI2
aI0
aI0
aI3
aI2
aI13
aI-5
aa(lp24
V0021301060
p25
aVMAR 25, 2014
p26
aVLAL vs. NYK
p27
aVW
p28
aI23
aI5
aI10
aF0.5
aI0
aI0
aF0.0
aI3
aI3
aF1.0
aI4
aI5
aI9
aI3
aI0
aI1
aI2
aI3
aI13
aI7
aa(lp29
V0021300872
p30
aVFEB 28, 2014
p31
aVLAL vs. SAC
p32
aVW
p33
aI4
aI0
aI2
aF0.0
aI0
aI0
aF0.0
aI0
aI0
aF0.0
aI0
aI0
aI0
aI0
aI0
aI1
aI1
aI2
aI0
aI-10
aa(lp34
V0021300847
p35
aVFEB 25, 2014
p36
aVLAL @ IND
p37
aVL
p38
aI14
aI3
aI6
aF0.5
aI0
aI0
aF0.0
aI0
aI0
aF0.0
aI0
aI4
aI4
aI0
aI0
aI2
aI1
aI2
aI6
aI-16
aa(lp39
V0021300839
p40
aVFEB 23, 2014
p41
aVLAL vs. BKN
p42
aVL
p43
aI19
aI4
aI8
aF0.5
aI0
aI0
aF0.0
aI0
aI2
aF0.0
aI2
aI2
aI4
aI0
aI0
aI0
aI2
aI1
aI8
aI-2
aa(lp44
V0021300824
p45
aVFEB 21, 2014
p46
aVLAL vs. BOS
p47
aVW
p48
aI26
aI7
aI9
aF0.778
aI0
aI0
aF0.0
aI2
aI2
aF1.0
aI2
aI6
aI8
aI3
aI0
aI0
aI2
aI3
aI16
aI15
aa(lp49
V0021300811
p50
aVFEB 19, 2014
p51
aVLAL vs. HOU
p52
aVL
p53
aI22
aI4
aI11
aF0.364
aI0
aI0
aF0.0
aI1
aI1
aF1.0
aI0
aI4
aI4
aI2
aI0
aI1
aI1
aI3
aI9
aI-8
aa(lp54
V0021300791
p55
aVFEB 13, 2014
p56
aVLAL vs. OKC
p57
aVL
p58
aI35
aI7
aI13
aF0.538
aI0
aI0
aF0.0
aI5
aI7
aF0.714
aI3
aI7
aI10
aI6
aI0
aI1
aI2
aI2
aI19
aI-4
aa(lp59
V0021300776
p60
aVFEB 11, 2014
p61
aVLAL vs. UTA
p62
aVL
p63
aI37
aI11
aI24
aF0.458
aI0
aI0
aF0.0
aI3
aI3
aF1.0
aI4
aI10
aI14
aI4
aI1
aI3
aI3
aI3
aI25
aI-5
aa(lp64
V0021300757
p65
aVFEB 09, 2014
p66
aVLAL vs. CHI
p67
aVL
p68
aI28
aI13
aI23
aF0.565
aI0
aI1
aF0.0
aI1
aI4
aF0.25
aI0
aI10
aI10
aI3
aI0
aI2
aI3
aI1
aI27
aI12
aa(lp69
V0021300741
p70
aVFEB 07, 2014
p71
aVLAL @ PHI
p72
aVW
p73
aI25
aI7
aI14
aF0.5
aI0
aI0
aF0.0
aI3
aI4
aF0.75
aI3
aI5
aI8
aI3
aI1
aI3
aI2
aI3
aI17
aI12
aa(lp74
V0021300725
p75
aVFEB 05, 2014
p76
aVLAL @ CLE
p77
aVW
p78
aI14
aI6
aI7
aF0.857
aI0
aI0
aF0.0
aI1
aI1
aF1.0
aI1
aI2
aI3
aI1
aI0
aI0
aI0
aI6
aI13
aI17
aa(lp79
V0021300722
p80
aVFEB 04, 2014
p81
aVLAL @ MIN
p82
aVL
p83
aI17
aI2
aI6
aF0.333
aI0
aI0
aF0.0
aI5
aI6
aF0.833
aI0
aI3
aI3
aI1
aI1
aI1
aI4
aI5
aI9
aI-11
aa(lp84
V0021300586
p85
aVJAN 17, 2014
p86
aVLAL @ BOS
p87
aVW
p88
aI6
aI2
aI3
aF0.667
aI0
aI0
aF0.0
aI0
aI0
aF0.0
aI1
aI0
aI1
aI0
aI0
aI0
aI3
aI1
aI4
aI-6
aa(lp89
V0021300574
p90
aVJAN 15, 2014
p91
aVLAL @ PHX
p92
aVL
p93
aI16
aI6
aI7
aF0.857
aI0
aI0
aF0.0
aI6
aI6
aF1.0
aI0
aI5
aI5
aI2
aI0
aI0
aI2
aI1
aI18
aI8
aa(lp94
V0021300565
p95
aVJAN 14, 2014
p96
aVLAL vs. CLE
p97
aVL
p98
aI12
aI3
aI6
aF0.5
aI0
aI1
aF0.0
aI0
aI0
aF0.0
aI1
aI2
aI3
aI1
aI0
aI0
aI1
aI2
aI6
aI2
aa(lp99
V0021300542
p100
aVJAN 10, 2014
p101
aVLAL @ LAC
p102
aVL
p103
aI19
aI2
aI6
aF0.333
aI0
aI0
aF0.0
aI2
aI2
aF1.0
aI1
aI5
aI6
aI0
aI0
aI0
aI4
aI3
aI6
aI-18
aa(lp104
V0021300526
p105
aVJAN 08, 2014
p106
aVLAL @ HOU
p107
aVL
p108
aI14
aI2
aI4
aF0.5
aI0
aI0
aF0.0
aI1
aI2
aF0.5
aI2
aI3
aI5
aI3
aI1
aI2
aI1
aI5
aI5
aI-2
aa(lp109
V0021300452
p110
aVDEC 29, 2013
p111
aVLAL vs. PHI
p112
aVL
p113
aI10
aI1
aI2
aF0.5
aI0
aI0
aF0.0
aI2
aI2
aF1.0
aI1
aI2
aI3
aI0
aI0
aI2
aI1
aI1
aI4
aI-12
aa(lp114
V0021300433
p115
aVDEC 27, 2013
p116
aVLAL @ UTA
p117
aVL
p118
aI30
aI7
aI11
aF0.636
aI0
aI0
aF0.0
aI5
aI6
aF0.833
aI1
aI9
aI10
aI0
aI1
aI3
aI4
aI2
aI19
aI4
aa(lp119
V0021300416
p120
aVDEC 23, 2013
p121
aVLAL @ PHX
p122
aVL
p123
aI13
aI0
aI2
aF0.0
aI0
aI0
aF0.0
aI1
aI2
aF0.5
aI0
aI5
aI5
aI1
aI0
aI0
aI1
aI0
aI1
aI1
aa(lp124
V0021300402
p125
aVDEC 21, 2013
p126
aVLAL @ GSW
p127
aVL
p128
aI28
aI5
aI17
aF0.294
aI0
aI1
aF0.0
aI0
aI0
aF0.0
aI2
aI15
aI17
aI1
aI0
aI3
aI2
aI3
aI10
aI-8
aa(lp129
V0021300391
p130
aVDEC 20, 2013
p131
aVLAL vs. MIN
p132
aVW
p133
aI16
aI3
aI6
aF0.5
aI0
aI0
aF0.0
aI0
aI0
aF0.0
aI0
aI3
aI3
aI0
aI0
aI2
aI0
aI1
aI6
aI5
aa(lp134
V0021300336
p135
aVDEC 13, 2013
p136
aVLAL @ OKC
p137
aVL
p138
aI12
aI3
aI4
aF0.75
aI0
aI0
aF0.0
aI3
aI5
aF0.6
aI1
aI1
aI2
aI1
aI0
aI1
aI1
aI2
aI9
aI-5
aa(lp139
V0021300149
p140
aVNOV 17, 2013
p141
aVLAL vs. DET
p142
aVW
p143
aI5
aI1
aI4
aF0.25
aI0
aI0
aF0.0
aI0
aI0
aF0.0
aI1
aI0
aI1
aI0
aI0
aI0
aI0
aI0
aI2
aI-7
aa(lp144
V0021300134
p145
aVNOV 15, 2013
p146
aVLAL vs. MEM
p147
aVL
p148
aI16
aI3
aI10
aF0.3
aI0
aI0
aF0.0
aI0
aI0
aF0.0
aI0
aI3
aI3
aI0
aI0
aI1
aI0
aI2
aI6
aI-6
aa(lp149
V0021300118
p150
aVNOV 13, 2013
p151
aVLAL @ DEN
p152
aVL
p153
aI19
aI3
aI9
aF0.333
aI0
aI0
aF0.0
aI2
aI2
aF1.0
aI3
aI1
aI4
aI2
aI0
aI0
aI3
aI4
aI8
aI-9
aa(lp154
V0021300110
p155
aVNOV 12, 2013
p156
aVLAL vs. NOP
p157
aVW
p158
aI21
aI4
aI9
aF0.444
aI0
aI0
aF0.0
aI0
aI0
aF0.0
aI2
aI7
aI9
aI6
aI1
aI0
aI3
aI3
aI8
aI17
aa(lp159
V0021300097
p160
aVNOV 10, 2013
p161
aVLAL vs. MIN
p162
aVL
p163
aI19
aI4
aI10
aF0.4
aI0
aI0
aF0.0
aI0
aI0
aF0.0
aI0
aI5
aI5
aI0
aI0
aI0
aI3
aI2
aI8
aI-17
aa(lp164
V0021300081
p165
aVNOV 08, 2013
p166
aVLAL @ NOP
p167
aVL
p168
aI24
aI7
aI13
aF0.538
aI0
aI0
aF0.0
aI2
aI2
aF1.0
aI0
aI4
aI4
aI2
aI0
aI2
aI2
aI3
aI16
aI-8
aa(lp169
V0021300072
p170
aVNOV 07, 2013
p171
aVLAL @ HOU
p172
aVW
p173
aI20
aI3
aI5
aF0.6
aI0
aI0
aF0.0
aI0
aI0
aF0.0
aI2
aI8
aI10
aI1
aI2
aI2
aI4
aI3
aI6
aI16
aa(lp174
V0021300056
p175
aVNOV 05, 2013
p176
aVLAL @ DAL
p177
aVL
p178
aI17
aI5
aI7
aF0.714
aI0
aI0
aF0.0
aI0
aI0
aF0.0
aI2
aI5
aI7
aI0
aI0
aI1
aI3
aI2
aI10
aI-5
aa(lp179
V0021300046
p180
aVNOV 03, 2013
p181
aVLAL vs. ATL
p182
aVW
p183
aI16
aI5
aI7
aF0.714
aI0
aI0
aF0.0
aI0
aI0
aF0.0
aI0
aI5
aI5
aI1
aI0
aI1
aI3
aI5
aI10
aI4
aa(lp184
V0021300032
p185
aVNOV 01, 2013
p186
aVLAL vs. SAS
p187
aVL
p188
aI13
aI2
aI3
aF0.667
aI0
aI0
aF0.0
aI0
aI0
aF0.0
aI2
aI2
aI4
aI1
aI0
aI0
aI1
aI2
aI4
aI2
aa(lp189
V0021300017
p190
aVOCT 30, 2013
p191
aVLAL @ GSW
p192
aVL
p193
aI18
aI5
aI9
aF0.556
aI0
aI0
aF0.0
aI1
aI2
aF0.5
aI2
aI2
aI4
aI0
aI0
aI0
aI0
aI1
aI11
aI-13
aa(lp194
V0021300003
p195
aVOCT 29, 2013
p196
aVLAL vs. LAC
p197
aVW
p198
aI20
aI5
aI10
aF0.5
aI0
aI0
aF0.0
aI0
aI0
aF0.0
aI4
aI4
aI8
aI0
aI1
aI2
aI1
aI1
aI10
aI0
aasS'name'
p199
VChris Kaman
p200
sS'experience'
p201
I10
s.