(dp0
S'age'
p1
I28
sS'stats'
p2
(lp3
(lp4
V0021301223
p5
aVAPR 16, 2014
p6
aVCHA vs. CHI
p7
aVW
p8
aI42
aI4
aI14
aF0.286
aI0
aI1
aF0.0
aI2
aI4
aF0.5
aI6
aI12
aI18
aI3
aI1
aI2
aI2
aI1
aI10
aI9
aa(lp9
V0021301207
p10
aVAPR 14, 2014
p11
aVCHA @ ATL
p12
aVW
p13
aI35
aI11
aI17
aF0.647
aI0
aI1
aF0.0
aI5
aI7
aF0.714
aI4
aI11
aI15
aI1
aI1
aI0
aI2
aI4
aI27
aI-3
aa(lp14
V0021301190
p15
aVAPR 12, 2014
p16
aVCHA vs. PHI
p17
aVW
p18
aI36
aI13
aI19
aF0.684
aI0
aI0
aF0.0
aI3
aI5
aF0.6
aI2
aI10
aI12
aI3
aI0
aI2
aI3
aI3
aI29
aI3
aa(lp19
V0021301178
p20
aVAPR 11, 2014
p21
aVCHA @ BOS
p22
aVL
p23
aI39
aI16
aI26
aF0.615
aI0
aI0
aF0.0
aI0
aI0
aF0.0
aI2
aI8
aI10
aI4
aI1
aI0
aI3
aI2
aI32
aI-4
aa(lp24
V0021301165
p25
aVAPR 09, 2014
p26
aVCHA @ WAS
p27
aVW
p28
aI43
aI9
aI20
aF0.45
aI0
aI0
aF0.0
aI2
aI2
aF1.0
aI5
aI13
aI18
aI2
aI1
aI0
aI3
aI2
aI20
aI5
aa(lp29
V0021301145
p30
aVAPR 05, 2014
p31
aVCHA @ CLE
p32
aVW
p33
aI41
aI9
aI21
aF0.429
aI0
aI0
aF0.0
aI6
aI8
aF0.75
aI3
aI12
aI15
aI4
aI1
aI2
aI2
aI2
aI24
aI-3
aa(lp34
V0021301130
p35
aVAPR 04, 2014
p36
aVCHA vs. ORL
p37
aVW
p38
aI37
aI13
aI24
aF0.542
aI0
aI1
aF0.0
aI3
aI3
aF1.0
aI4
aI12
aI16
aI0
aI0
aI1
aI2
aI1
aI29
aI7
aa(lp39
V0021301117
p40
aVAPR 02, 2014
p41
aVCHA @ PHI
p42
aVW
p43
aI31
aI9
aI17
aF0.529
aI0
aI0
aF0.0
aI7
aI10
aF0.7
aI1
aI9
aI10
aI0
aI0
aI0
aI1
aI0
aI25
aI12
aa(lp44
V0021301101
p45
aVMAR 31, 2014
p46
aVCHA vs. WAS
p47
aVW
p48
aI40
aI8
aI19
aF0.421
aI0
aI0
aF0.0
aI3
aI3
aF1.0
aI3
aI8
aI11
aI0
aI0
aI2
aI0
aI3
aI19
aI-2
aa(lp49
V0021301075
p50
aVMAR 28, 2014
p51
aVCHA @ ORL
p52
aVL
p53
aI42
aI10
aI16
aF0.625
aI0
aI1
aF0.0
aI0
aI0
aF0.0
aI2
aI6
aI8
aI2
aI4
aI0
aI1
aI4
aI20
aI7
aa(lp54
V0021301061
p55
aVMAR 26, 2014
p56
aVCHA vs. BKN
p57
aVW
p58
aI41
aI15
aI27
aF0.556
aI0
aI0
aF0.0
aI5
aI7
aF0.714
aI3
aI12
aI15
aI1
aI0
aI0
aI1
aI2
aI35
aI3
aa(lp59
V0021301047
p60
aVMAR 24, 2014
p61
aVCHA vs. HOU
p62
aVL
p63
aI42
aI8
aI17
aF0.471
aI0
aI1
aF0.0
aI4
aI6
aF0.667
aI2
aI9
aI11
aI2
aI1
aI1
aI2
aI4
aI20
aI-5
aa(lp64
V0021301032
p65
aVMAR 22, 2014
p66
aVCHA vs. POR
p67
aVW
p68
aI29
aI13
aI22
aF0.591
aI0
aI1
aF0.0
aI2
aI2
aF1.0
aI1
aI6
aI7
aI6
aI0
aI2
aI1
aI2
aI28
aI12
aa(lp69
V0021301010
p70
aVMAR 19, 2014
p71
aVCHA @ BKN
p72
aVL
p73
aI37
aI8
aI19
aF0.421
aI0
aI0
aF0.0
aI2
aI3
aF0.667
aI2
aI10
aI12
aI3
aI0
aI0
aI5
aI2
aI18
aI-8
aa(lp74
V0021300996
p75
aVMAR 17, 2014
p76
aVCHA vs. ATL
p77
aVL
p78
aI39
aI6
aI15
aF0.4
aI0
aI1
aF0.0
aI4
aI4
aF1.0
aI3
aI9
aI12
aI3
aI1
aI0
aI0
aI0
aI16
aI-13
aa(lp79
V0021300987
p80
aVMAR 16, 2014
p81
aVCHA @ MIL
p82
aVW
p83
aI37
aI10
aI17
aF0.588
aI0
aI0
aF0.0
aI0
aI0
aF0.0
aI0
aI7
aI7
aI2
aI2
aI2
aI6
aI1
aI20
aI8
aa(lp84
V0021300971
p85
aVMAR 14, 2014
p86
aVCHA vs. MIN
p87
aVW
p88
aI38
aI12
aI26
aF0.462
aI0
aI1
aF0.0
aI1
aI1
aF1.0
aI4
aI12
aI16
aI1
aI0
aI1
aI3
aI2
aI25
aI0
aa(lp89
V0021300961
p90
aVMAR 12, 2014
p91
aVCHA @ WAS
p92
aVW
p93
aI36
aI13
aI20
aF0.65
aI0
aI0
aF0.0
aI0
aI0
aF0.0
aI0
aI10
aI10
aI1
aI0
aI1
aI2
aI2
aI26
aI16
aa(lp94
V0021300943
p95
aVMAR 10, 2014
p96
aVCHA vs. DEN
p97
aVW
p98
aI39
aI12
aI23
aF0.522
aI0
aI0
aF0.0
aI2
aI6
aF0.333
aI2
aI11
aI13
aI4
aI3
aI1
aI3
aI3
aI26
aI2
aa(lp99
V0021300930
p100
aVMAR 08, 2014
p101
aVCHA @ MEM
p102
aVL
p103
aI27
aI7
aI17
aF0.412
aI0
aI0
aF0.0
aI3
aI4
aF0.75
aI1
aI6
aI7
aI1
aI0
aI0
aI0
aI2
aI17
aI-18
aa(lp104
V0021300918
p105
aVMAR 07, 2014
p106
aVCHA vs. CLE
p107
aVW
p108
aI39
aI12
aI18
aF0.667
aI0
aI0
aF0.0
aI4
aI4
aF1.0
aI1
aI6
aI7
aI2
aI1
aI3
aI4
aI1
aI28
aI18
aa(lp109
V0021300904
p110
aVMAR 05, 2014
p111
aVCHA vs. IND
p112
aVW
p113
aI36
aI16
aI25
aF0.64
aI1
aI1
aF1.0
aI1
aI2
aF0.5
aI2
aI6
aI8
aI3
aI1
aI1
aI1
aI3
aI34
aI30
aa(lp114
V0021300893
p115
aVMAR 03, 2014
p116
aVCHA @ MIA
p117
aVL
p118
aI37
aI18
aI24
aF0.75
aI0
aI0
aF0.0
aI2
aI4
aF0.5
aI4
aI15
aI19
aI1
aI1
aI0
aI1
aI4
aI38
aI-9
aa(lp119
V0021300887
p120
aVMAR 02, 2014
p121
aVCHA @ OKC
p122
aVL
p123
aI36
aI10
aI16
aF0.625
aI0
aI0
aF0.0
aI5
aI8
aF0.625
aI0
aI7
aI7
aI3
aI2
aI1
aI1
aI3
aI25
aI-15
aa(lp124
V0021300871
p125
aVFEB 28, 2014
p126
aVCHA @ SAS
p127
aVL
p128
aI35
aI10
aI21
aF0.476
aI0
aI0
aF0.0
aI0
aI0
aF0.0
aI3
aI4
aI7
aI1
aI2
aI0
aI3
aI3
aI20
aI-10
aa(lp129
V0021300825
p130
aVFEB 22, 2014
p131
aVCHA vs. MEM
p132
aVW
p133
aI31
aI2
aI13
aF0.154
aI0
aI0
aF0.0
aI2
aI2
aF1.0
aI0
aI9
aI9
aI1
aI0
aI0
aI2
aI3
aI6
aI-3
aa(lp134
V0021300815
p135
aVFEB 21, 2014
p136
aVCHA vs. NOP
p137
aVW
p138
aI34
aI14
aI30
aF0.467
aI0
aI0
aF0.0
aI5
aI6
aF0.833
aI3
aI7
aI10
aI1
aI0
aI2
aI4
aI3
aI33
aI-5
aa(lp139
V0021300801
p140
aVFEB 19, 2014
p141
aVCHA vs. DET
p142
aVW
p143
aI32
aI12
aI20
aF0.6
aI0
aI0
aF0.0
aI5
aI8
aF0.625
aI1
aI7
aI8
aI1
aI0
aI1
aI2
aI2
aI29
aI27
aa(lp144
V0021300795
p145
aVFEB 18, 2014
p146
aVCHA @ DET
p147
aVW
p148
aI38
aI15
aI28
aF0.536
aI0
aI0
aF0.0
aI2
aI3
aF0.667
aI0
aI12
aI12
aI7
aI1
aI0
aI1
aI2
aI32
aI9
aa(lp149
V0021300781
p150
aVFEB 12, 2014
p151
aVCHA @ BKN
p152
aVL
p153
aI28
aI5
aI13
aF0.385
aI0
aI0
aF0.0
aI2
aI3
aF0.667
aI0
aI10
aI10
aI1
aI0
aI0
aI2
aI3
aI12
aI-21
aa(lp154
V0021300770
p155
aVFEB 11, 2014
p156
aVCHA vs. DAL
p157
aVW
p158
aI34
aI14
aI23
aF0.609
aI0
aI1
aF0.0
aI2
aI3
aF0.667
aI0
aI8
aI8
aI2
aI0
aI2
aI1
aI0
aI30
aI22
aa(lp159
V0021300749
p160
aVFEB 08, 2014
p161
aVCHA vs. SAS
p162
aVL
p163
aI38
aI12
aI21
aF0.571
aI0
aI0
aF0.0
aI2
aI2
aF1.0
aI3
aI6
aI9
aI3
aI4
aI3
aI3
aI3
aI26
aI9
aa(lp164
V0021300724
p165
aVFEB 04, 2014
p166
aVCHA @ GSW
p167
aVW
p168
aI39
aI12
aI22
aF0.545
aI0
aI0
aF0.0
aI6
aI10
aF0.6
aI2
aI11
aI13
aI3
aI2
aI0
aI2
aI3
aI30
aI16
aa(lp169
V0021300706
p170
aVFEB 01, 2014
p171
aVCHA @ PHX
p172
aVL
p173
aI27
aI4
aI15
aF0.267
aI0
aI0
aF0.0
aI2
aI4
aF0.5
aI2
aI4
aI6
aI1
aI1
aI1
aI2
aI2
aI10
aI-14
aa(lp174
V0021300695
p175
aVJAN 31, 2014
p176
aVCHA @ LAL
p177
aVW
p178
aI39
aI18
aI32
aF0.563
aI0
aI0
aF0.0
aI4
aI6
aF0.667
aI2
aI16
aI18
aI4
aI3
aI0
aI2
aI3
aI40
aI11
aa(lp179
V0021300682
p180
aVJAN 29, 2014
p181
aVCHA @ DEN
p182
aVW
p183
aI32
aI13
aI24
aF0.542
aI0
aI0
aF0.0
aI9
aI12
aF0.75
aI0
aI11
aI11
aI2
aI0
aI2
aI4
aI4
aI35
aI0
aa(lp184
V0021300646
p185
aVJAN 25, 2014
p186
aVCHA vs. CHI
p187
aVL
p188
aI38
aI15
aI26
aF0.577
aI1
aI1
aF1.0
aI1
aI2
aF0.5
aI3
aI10
aI13
aI1
aI0
aI3
aI3
aI2
aI32
aI10
aa(lp189
V0021300640
p190
aVJAN 24, 2014
p191
aVCHA @ NYK
p192
aVL
p193
aI31
aI11
aI19
aF0.579
aI0
aI1
aF0.0
aI3
aI4
aF0.75
aI1
aI8
aI9
aI2
aI0
aI0
aI1
aI0
aI25
aI-36
aa(lp194
V0021300621
p195
aVJAN 22, 2014
p196
aVCHA vs. LAC
p197
aVW
p198
aI36
aI12
aI23
aF0.522
aI0
aI0
aF0.0
aI0
aI2
aF0.0
aI3
aI7
aI10
aI1
aI1
aI1
aI4
aI1
aI24
aI-3
aa(lp199
V0021300608
p200
aVJAN 20, 2014
p201
aVCHA vs. TOR
p202
aVW
p203
aI38
aI9
aI18
aF0.5
aI0
aI0
aF0.0
aI4
aI4
aF1.0
aI1
aI18
aI19
aI7
aI0
aI2
aI2
aI1
aI22
aI7
aa(lp204
V0021300593
p205
aVJAN 18, 2014
p206
aVCHA vs. MIA
p207
aVL
p208
aI43
aI10
aI23
aF0.435
aI0
aI0
aF0.0
aI2
aI6
aF0.333
aI0
aI14
aI14
aI3
aI1
aI1
aI1
aI4
aI22
aI-11
aa(lp209
V0021300582
p210
aVJAN 17, 2014
p211
aVCHA @ ORL
p212
aVW
p213
aI36
aI13
aI17
aF0.765
aI0
aI0
aF0.0
aI4
aI4
aF1.0
aI1
aI15
aI16
aI2
aI3
aI1
aI1
aI3
aI30
aI17
aa(lp214
V0021300567
p215
aVJAN 15, 2014
p216
aVCHA @ PHI
p217
aVL
p218
aI38
aI11
aI20
aF0.55
aI0
aI0
aF0.0
aI2
aI3
aF0.667
aI1
aI7
aI8
aI4
aI2
aI1
aI1
aI2
aI24
aI-3
aa(lp219
V0021300562
p220
aVJAN 14, 2014
p221
aVCHA vs. NYK
p222
aVW
p223
aI39
aI14
aI20
aF0.7
aI0
aI0
aF0.0
aI7
aI8
aF0.875
aI2
aI6
aI8
aI2
aI1
aI1
aI1
aI3
aI35
aI19
aa(lp224
V0021300547
p225
aVJAN 11, 2014
p226
aVCHA @ CHI
p227
aVL
p228
aI39
aI10
aI22
aF0.455
aI0
aI0
aF0.0
aI0
aI0
aF0.0
aI1
aI10
aI11
aI1
aI0
aI1
aI1
aI2
aI20
aI-3
aa(lp229
V0021300535
p230
aVJAN 10, 2014
p231
aVCHA @ MIN
p232
aVL
p233
aI28
aI3
aI9
aF0.333
aI0
aI0
aF0.0
aI2
aI2
aF1.0
aI1
aI6
aI7
aI2
aI0
aI1
aI2
aI3
aI8
aI-16
aa(lp234
V0021300508
p235
aVJAN 07, 2014
p236
aVCHA vs. WAS
p237
aVL
p238
aI35
aI3
aI9
aF0.333
aI0
aI0
aF0.0
aI0
aI0
aF0.0
aI1
aI9
aI10
aI4
aI0
aI0
aI1
aI2
aI6
aI-16
aa(lp239
V0021300497
p240
aVJAN 04, 2014
p241
aVCHA @ SAC
p242
aVW
p243
aI39
aI11
aI21
aF0.524
aI0
aI0
aF0.0
aI5
aI7
aF0.714
aI1
aI8
aI9
aI2
aI2
aI1
aI2
aI4
aI27
aI3
aa(lp244
V0021300480
p245
aVJAN 02, 2014
p246
aVCHA @ POR
p247
aVL
p248
aI29
aI9
aI17
aF0.529
aI0
aI0
aF0.0
aI1
aI2
aF0.5
aI2
aI3
aI5
aI1
aI0
aI1
aI1
aI2
aI19
aI-17
aa(lp249
V0021300472
p250
aVJAN 01, 2014
p251
aVCHA @ LAC
p252
aVL
p253
aI30
aI7
aI15
aF0.467
aI0
aI0
aF0.0
aI0
aI0
aF0.0
aI1
aI11
aI12
aI4
aI1
aI0
aI3
aI0
aI14
aI-18
aa(lp254
V0021300458
p255
aVDEC 30, 2013
p256
aVCHA @ UTA
p257
aVL
p258
aI36
aI8
aI23
aF0.348
aI1
aI2
aF0.5
aI1
aI2
aF0.5
aI2
aI8
aI10
aI2
aI3
aI2
aI2
aI1
aI18
aI-1
aa(lp259
V0021300440
p260
aVDEC 28, 2013
p261
aVCHA @ ATL
p262
aVL
p263
aI39
aI10
aI18
aF0.556
aI0
aI0
aF0.0
aI4
aI6
aF0.667
aI4
aI19
aI23
aI1
aI1
aI0
aI3
aI4
aI24
aI0
aa(lp264
V0021300427
p265
aVDEC 27, 2013
p266
aVCHA vs. OKC
p267
aVL
p268
aI35
aI7
aI16
aF0.438
aI0
aI0
aF0.0
aI2
aI2
aF1.0
aI2
aI9
aI11
aI0
aI0
aI1
aI0
aI2
aI16
aI1
aa(lp269
V0021300407
p270
aVDEC 23, 2013
p271
aVCHA vs. MIL
p272
aVW
p273
aI39
aI12
aI23
aF0.522
aI0
aI0
aF0.0
aI2
aI3
aF0.667
aI2
aI7
aI9
aI1
aI0
aI1
aI0
aI3
aI26
aI-8
aa(lp274
V0021300394
p275
aVDEC 21, 2013
p276
aVCHA vs. UTA
p277
aVL
p278
aI31
aI9
aI19
aF0.474
aI0
aI1
aF0.0
aI1
aI3
aF0.333
aI6
aI5
aI11
aI1
aI0
aI3
aI0
aI1
aI19
aI-3
aa(lp279
V0021300386
p280
aVDEC 20, 2013
p281
aVCHA @ DET
p282
aVW
p283
aI33
aI11
aI24
aF0.458
aI0
aI0
aF0.0
aI2
aI3
aF0.667
aI4
aI10
aI14
aI2
aI2
aI1
aI1
aI3
aI24
aI9
aa(lp284
V0021300371
p285
aVDEC 18, 2013
p286
aVCHA @ TOR
p287
aVW
p288
aI40
aI9
aI18
aF0.5
aI0
aI0
aF0.0
aI6
aI10
aF0.6
aI0
aI11
aI11
aI2
aI0
aI0
aI1
aI4
aI24
aI9
aa(lp289
V0021300364
p290
aVDEC 17, 2013
p291
aVCHA vs. SAC
p292
aVW
p293
aI28
aI5
aI13
aF0.385
aI0
aI0
aF0.0
aI0
aI1
aF0.0
aI1
aI8
aI9
aI1
aI3
aI0
aI1
aI6
aI10
aI-6
aa(lp294
V0021300342
p295
aVDEC 14, 2013
p296
aVCHA vs. LAL
p297
aVL
p298
aI34
aI7
aI18
aF0.389
aI0
aI0
aF0.0
aI0
aI0
aF0.0
aI3
aI6
aI9
aI4
aI1
aI2
aI0
aI1
aI14
aI3
aa(lp299
V0021300329
p300
aVDEC 13, 2013
p301
aVCHA @ IND
p302
aVL
p303
aI28
aI9
aI18
aF0.5
aI0
aI0
aF0.0
aI3
aI4
aF0.75
aI3
aI6
aI9
aI2
aI0
aI2
aI0
aI2
aI21
aI-8
aa(lp304
V0021300318
p305
aVDEC 11, 2013
p306
aVCHA vs. ORL
p307
aVL
p308
aI34
aI4
aI10
aF0.4
aI0
aI0
aF0.0
aI2
aI2
aF1.0
aI3
aI8
aI11
aI1
aI1
aI1
aI1
aI1
aI10
aI-13
aa(lp309
V0021300304
p310
aVDEC 09, 2013
p311
aVCHA vs. GSW
p312
aVW
p313
aI35
aI5
aI16
aF0.313
aI0
aI0
aF0.0
aI1
aI2
aF0.5
aI1
aI8
aI9
aI1
aI1
aI1
aI0
aI4
aI11
aI5
aa(lp314
V0021300280
p315
aVDEC 06, 2013
p316
aVCHA vs. PHI
p317
aVW
p318
aI32
aI6
aI21
aF0.286
aI0
aI0
aF0.0
aI2
aI3
aF0.667
aI6
aI6
aI12
aI2
aI1
aI2
aI1
aI3
aI14
aI0
aa(lp319
V0021300266
p320
aVDEC 03, 2013
p321
aVCHA @ DAL
p322
aVL
p323
aI38
aI6
aI10
aF0.6
aI0
aI0
aF0.0
aI7
aI10
aF0.7
aI2
aI10
aI12
aI2
aI0
aI3
aI2
aI2
aI19
aI-3
aa(lp324
V0021300252
p325
aVDEC 01, 2013
p326
aVCHA @ MIA
p327
aVL
p328
aI38
aI7
aI14
aF0.5
aI0
aI0
aF0.0
aI2
aI3
aF0.667
aI3
aI10
aI13
aI0
aI3
aI0
aI0
aI4
aI16
aI-3
aa(lp329
V0021300228
p330
aVNOV 29, 2013
p331
aVCHA vs. MIL
p332
aVW
p333
aI26
aI11
aI18
aF0.611
aI0
aI0
aF0.0
aI1
aI3
aF0.333
aI6
aI6
aI12
aI3
aI1
aI0
aI0
aI5
aI23
aI9
aa(lp334
V0021300215
p335
aVNOV 27, 2013
p336
aVCHA vs. IND
p337
aVL
p338
aI32
aI7
aI15
aF0.467
aI0
aI0
aF0.0
aI2
aI4
aF0.5
aI3
aI6
aI9
aI2
aI0
aI3
aI3
aI2
aI16
aI-10
aa(lp339
V0021300202
p340
aVNOV 25, 2013
p341
aVCHA vs. BOS
p342
aVL
p343
aI33
aI6
aI14
aF0.429
aI0
aI0
aF0.0
aI2
aI2
aF1.0
aI1
aI2
aI3
aI1
aI0
aI2
aI2
aI1
aI14
aI-1
aa(lp344
V0021300193
p345
aVNOV 23, 2013
p346
aVCHA @ MIL
p347
aVW
p348
aI25
aI8
aI15
aF0.533
aI0
aI0
aF0.0
aI3
aI5
aF0.6
aI3
aI4
aI7
aI2
aI2
aI1
aI2
aI2
aI19
aI21
aa(lp349
V0021300176
p350
aVNOV 22, 2013
p351
aVCHA vs. PHX
p352
aVL
p353
aI25
aI3
aI6
aF0.5
aI0
aI0
aF0.0
aI3
aI5
aF0.6
aI2
aI4
aI6
aI3
aI2
aI3
aI3
aI4
aI9
aI-9
aa(lp354
V0021300113
p355
aVNOV 13, 2013
p356
aVCHA @ BOS
p357
aVW
p358
aI33
aI8
aI17
aF0.471
aI0
aI0
aF0.0
aI6
aI6
aF1.0
aI2
aI9
aI11
aI3
aI0
aI2
aI1
aI3
aI22
aI12
aa(lp359
V0021300098
p360
aVNOV 11, 2013
p361
aVCHA vs. ATL
p362
aVL
p363
aI28
aI5
aI11
aF0.455
aI0
aI0
aF0.0
aI0
aI0
aF0.0
aI1
aI6
aI7
aI3
aI1
aI0
aI0
aI3
aI10
aI4
aa(lp364
V0021300009
p365
aVOCT 30, 2013
p366
aVCHA @ HOU
p367
aVL
p368
aI30
aI6
aI19
aF0.316
aI0
aI0
aF0.0
aI1
aI2
aF0.5
aI4
aI4
aI8
aI1
aI0
aI2
aI0
aI2
aI13
aI-4
aasS'name'
p369
VAl Jefferson
p370
sS'experience'
p371
I9
s.