(dp0
S'age'
p1
I37
sS'stats'
p2
(lp3
(lp4
V0021301214
p5
aVAPR 15, 2014
p6
aVBKN vs. NYK
p7
aVL
p8
aI15
aI0
aI4
aF0.0
aI0
aI0
aF0.0
aI0
aI0
aF0.0
aI0
aI2
aI2
aI0
aI0
aI0
aI0
aI3
aI0
aI-6
aa(lp9
V0021301199
p10
aVAPR 13, 2014
p11
aVBKN vs. ORL
p12
aVW
p13
aI19
aI1
aI3
aF0.333
aI0
aI0
aF0.0
aI1
aI2
aF0.5
aI2
aI5
aI7
aI2
aI1
aI2
aI5
aI2
aI3
aI5
aa(lp14
V0021301179
p15
aVAPR 11, 2014
p16
aVBKN vs. ATL
p17
aVL
p18
aI18
aI2
aI6
aF0.333
aI0
aI0
aF0.0
aI0
aI2
aF0.0
aI3
aI7
aI10
aI1
aI1
aI1
aI2
aI3
aI4
aI-6
aa(lp19
V0021301163
p20
aVAPR 09, 2014
p21
aVBKN @ ORL
p22
aVL
p23
aI17
aI2
aI2
aF1.0
aI0
aI0
aF0.0
aI1
aI1
aF1.0
aI2
aI6
aI8
aI6
aI0
aI0
aI1
aI1
aI5
aI-2
aa(lp24
V0021301147
p25
aVAPR 05, 2014
p26
aVBKN @ PHI
p27
aVW
p28
aI13
aI5
aI6
aF0.833
aI0
aI0
aF0.0
aI0
aI0
aF0.0
aI1
aI3
aI4
aI1
aI1
aI1
aI0
aI0
aI10
aI12
aa(lp29
V0021300866
p30
aVFEB 27, 2014
p31
aVBKN @ DEN
p32
aVW
p33
aI12
aI2
aI4
aF0.5
aI0
aI0
aF0.0
aI0
aI0
aF0.0
aI1
aI2
aI3
aI0
aI1
aI0
aI0
aI1
aI4
aI6
aa(lp34
V0021300861
p35
aVFEB 26, 2014
p36
aVBKN @ POR
p37
aVL
p38
aI14
aI2
aI3
aF0.667
aI0
aI0
aF0.0
aI2
aI2
aF1.0
aI0
aI7
aI7
aI0
aI0
aI0
aI1
aI2
aI6
aI-10
aa(lp39
V0021300832
p40
aVFEB 22, 2014
p41
aVBKN @ GSW
p42
aVL
p43
aI20
aI3
aI7
aF0.429
aI0
aI0
aF0.0
aI0
aI1
aF0.0
aI0
aI7
aI7
aI0
aI0
aI0
aI1
aI0
aI6
aI-17
aa(lp44
V0021300808
p45
aVFEB 19, 2014
p46
aVBKN @ UTA
p47
aVW
p48
aI17
aI3
aI5
aF0.6
aI0
aI0
aF0.0
aI0
aI0
aF0.0
aI1
aI3
aI4
aI2
aI0
aI1
aI1
aI0
aI6
aI-2
aa(lp49
V0021300790
p50
aVFEB 13, 2014
p51
aVBKN @ CHI
p52
aVL
p53
aI25
aI2
aI3
aF0.667
aI0
aI0
aF0.0
aI0
aI0
aF0.0
aI1
aI6
aI7
aI3
aI3
aI2
aI1
aI3
aI4
aI6
aa(lp54
V0021300781
p55
aVFEB 12, 2014
p56
aVBKN vs. CHA
p57
aVW
p58
aI15
aI5
aI9
aF0.556
aI0
aI0
aF0.0
aI0
aI0
aF0.0
aI0
aI3
aI3
aI1
aI0
aI1
aI1
aI1
aI10
aI13
aa(lp59
V0021300759
p60
aVFEB 09, 2014
p61
aVBKN vs. NOP
p62
aVW
p63
aI13
aI3
aI3
aF1.0
aI0
aI0
aF0.0
aI0
aI0
aF0.0
aI0
aI4
aI4
aI2
aI1
aI1
aI3
aI1
aI6
aI4
aa(lp64
V0021300737
p65
aVFEB 06, 2014
p66
aVBKN vs. SAS
p67
aVW
p68
aI18
aI4
aI9
aF0.444
aI0
aI0
aF0.0
aI0
aI0
aF0.0
aI3
aI6
aI9
aI0
aI0
aI0
aI2
aI2
aI8
aI7
aa(lp69
V0021300712
p70
aVFEB 03, 2014
p71
aVBKN vs. PHI
p72
aVW
p73
aI21
aI2
aI5
aF0.4
aI0
aI0
aF0.0
aI2
aI2
aF1.0
aI2
aI5
aI7
aI4
aI2
aI5
aI1
aI0
aI6
aI6
aa(lp74
V0021300697
p75
aVFEB 01, 2014
p76
aVBKN @ IND
p77
aVL
p78
aI25
aI6
aI9
aF0.667
aI0
aI0
aF0.0
aI0
aI0
aF0.0
aI4
aI6
aI10
aI1
aI0
aI1
aI3
aI4
aI12
aI0
aa(lp79
V0021300692
p80
aVJAN 31, 2014
p81
aVBKN vs. OKC
p82
aVL
p83
aI12
aI0
aI4
aF0.0
aI0
aI0
aF0.0
aI0
aI0
aF0.0
aI0
aI1
aI1
aI0
aI0
aI1
aI1
aI4
aI0
aI-12
aa(lp84
V0021300663
p85
aVJAN 27, 2014
p86
aVBKN vs. TOR
p87
aVL
p88
aI26
aI3
aI8
aF0.375
aI0
aI0
aF0.0
aI0
aI0
aF0.0
aI1
aI10
aI11
aI0
aI0
aI1
aI2
aI3
aI6
aI-4
aa(lp89
V0021300658
p90
aVJAN 26, 2014
p91
aVBKN @ BOS
p92
aVW
p93
aI23
aI3
aI6
aF0.5
aI0
aI0
aF0.0
aI0
aI0
aF0.0
aI0
aI4
aI4
aI3
aI2
aI1
aI0
aI0
aI6
aI0
aa(lp94
V0021300637
p95
aVJAN 24, 2014
p96
aVBKN vs. DAL
p97
aVW
p98
aI20
aI5
aI8
aF0.625
aI0
aI0
aF0.0
aI0
aI0
aF0.0
aI1
aI10
aI11
aI1
aI0
aI1
aI2
aI2
aI10
aI-3
aa(lp99
V0021300616
p100
aVJAN 21, 2014
p101
aVBKN vs. ORL
p102
aVW
p103
aI18
aI4
aI5
aF0.8
aI0
aI0
aF0.0
aI0
aI0
aF0.0
aI1
aI4
aI5
aI1
aI1
aI0
aI3
aI1
aI8
aI13
aa(lp104
V0021300610
p105
aVJAN 20, 2014
p106
aVBKN @ NYK
p107
aVW
p108
aI18
aI3
aI4
aF0.75
aI0
aI0
aF0.0
aI0
aI0
aF0.0
aI1
aI5
aI6
aI1
aI1
aI0
aI1
aI1
aI6
aI2
aa(lp109
V0021300579
p110
aVJAN 16, 2014
p111
aVBKN @ ATL
p112
aVW
p113
aI18
aI6
aI8
aF0.75
aI0
aI0
aF0.0
aI0
aI0
aF0.0
aI0
aI3
aI3
aI2
aI0
aI1
aI0
aI2
aI12
aI8
aa(lp114
V0021300537
p115
aVJAN 10, 2014
p116
aVBKN vs. MIA
p117
aVW
p118
aI36
aI5
aI8
aF0.625
aI0
aI0
aF0.0
aI2
aI2
aF1.0
aI0
aI10
aI10
aI3
aI0
aI1
aI1
aI0
aI12
aI18
aa(lp119
V0021300523
p120
aVJAN 08, 2014
p121
aVBKN vs. GSW
p122
aVW
p123
aI23
aI5
aI7
aF0.714
aI0
aI0
aF0.0
aI3
aI3
aF1.0
aI2
aI3
aI5
aI0
aI4
aI1
aI2
aI2
aI13
aI7
aa(lp124
V0021300506
p125
aVJAN 06, 2014
p126
aVBKN vs. ATL
p127
aVW
p128
aI25
aI1
aI2
aF0.5
aI0
aI0
aF0.0
aI2
aI2
aF1.0
aI1
aI9
aI10
aI1
aI1
aI0
aI0
aI2
aI4
aI10
aa(lp129
V0021300476
p130
aVJAN 02, 2014
p131
aVBKN @ OKC
p132
aVW
p133
aI26
aI2
aI4
aF0.5
aI0
aI0
aF0.0
aI0
aI0
aF0.0
aI1
aI6
aI7
aI1
aI1
aI0
aI3
aI2
aI4
aI14
aa(lp134
V0021300465
p135
aVDEC 31, 2013
p136
aVBKN @ SAS
p137
aVL
p138
aI17
aI0
aI5
aF0.0
aI0
aI0
aF0.0
aI2
aI2
aF1.0
aI1
aI2
aI3
aI1
aI0
aI0
aI0
aI1
aI2
aI-22
aa(lp139
V0021300437
p140
aVDEC 28, 2013
p141
aVBKN @ IND
p142
aVL
p143
aI21
aI1
aI5
aF0.2
aI0
aI0
aF0.0
aI0
aI0
aF0.0
aI0
aI7
aI7
aI0
aI0
aI1
aI1
aI3
aI2
aI-14
aa(lp144
V0021300429
p145
aVDEC 27, 2013
p146
aVBKN vs. MIL
p147
aVW
p148
aI18
aI3
aI5
aF0.6
aI0
aI0
aF0.0
aI4
aI5
aF0.8
aI1
aI4
aI5
aI0
aI0
aI0
aI2
aI1
aI10
aI14
aa(lp149
V0021300418
p150
aVDEC 25, 2013
p151
aVBKN vs. CHI
p152
aVL
p153
aI19
aI2
aI7
aF0.286
aI0
aI0
aF0.0
aI2
aI2
aF1.0
aI1
aI6
aI7
aI1
aI2
aI0
aI2
aI4
aI6
aI1
aa(lp154
V0021300410
p155
aVDEC 23, 2013
p156
aVBKN vs. IND
p157
aVL
p158
aI19
aI3
aI10
aF0.3
aI0
aI0
aF0.0
aI6
aI6
aF1.0
aI1
aI4
aI5
aI2
aI2
aI0
aI2
aI3
aI12
aI0
aa(lp159
V0021300374
p160
aVDEC 18, 2013
p161
aVBKN vs. WAS
p162
aVL
p163
aI25
aI3
aI5
aF0.6
aI0
aI0
aF0.0
aI1
aI2
aF0.5
aI0
aI4
aI4
aI2
aI1
aI0
aI2
aI6
aI7
aI1
aa(lp164
V0021300359
p165
aVDEC 16, 2013
p166
aVBKN vs. PHI
p167
aVW
p168
aI16
aI4
aI8
aF0.5
aI0
aI0
aF0.0
aI1
aI2
aF0.5
aI0
aI4
aI4
aI4
aI2
aI1
aI1
aI2
aI9
aI34
aa(lp169
V0021300334
p170
aVDEC 13, 2013
p171
aVBKN @ DET
p172
aVL
p173
aI19
aI2
aI8
aF0.25
aI0
aI0
aF0.0
aI0
aI0
aF0.0
aI1
aI7
aI8
aI2
aI0
aI0
aI1
aI3
aI4
aI-1
aa(lp174
V0021300327
p175
aVDEC 12, 2013
p176
aVBKN vs. LAC
p177
aVW
p178
aI15
aI1
aI2
aF0.5
aI0
aI0
aF0.0
aI0
aI0
aF0.0
aI0
aI6
aI6
aI0
aI0
aI0
aI1
aI4
aI2
aI-3
aa(lp179
V0021300314
p180
aVDEC 10, 2013
p181
aVBKN vs. BOS
p182
aVW
p183
aI26
aI5
aI10
aF0.5
aI0
aI0
aF0.0
aI1
aI2
aF0.5
aI2
aI7
aI9
aI3
aI0
aI0
aI0
aI3
aI11
aI0
aa(lp184
V0021300295
p185
aVDEC 07, 2013
p186
aVBKN @ MIL
p187
aVW
p188
aI26
aI2
aI9
aF0.222
aI0
aI0
aF0.0
aI2
aI2
aF1.0
aI1
aI7
aI8
aI1
aI1
aI2
aI0
aI4
aI6
aI-5
aa(lp189
V0021300277
p190
aVDEC 05, 2013
p191
aVBKN vs. NYK
p192
aVL
p193
aI20
aI3
aI5
aF0.6
aI0
aI0
aF0.0
aI0
aI0
aF0.0
aI2
aI4
aI6
aI0
aI0
aI0
aI0
aI3
aI6
aI-10
aa(lp194
V0021300263
p195
aVDEC 03, 2013
p196
aVBKN vs. DEN
p197
aVL
p198
aI17
aI1
aI4
aF0.25
aI0
aI0
aF0.0
aI0
aI0
aF0.0
aI0
aI6
aI6
aI1
aI0
aI1
aI0
aI1
aI2
aI-4
aa(lp199
V0021300243
p200
aVNOV 30, 2013
p201
aVBKN @ MEM
p202
aVW
p203
aI28
aI4
aI9
aF0.444
aI0
aI0
aF0.0
aI0
aI0
aF0.0
aI2
aI3
aI5
aI3
aI2
aI1
aI2
aI1
aI8
aI-3
aa(lp204
V0021300218
p205
aVNOV 27, 2013
p206
aVBKN vs. LAL
p207
aVL
p208
aI23
aI2
aI5
aF0.4
aI0
aI0
aF0.0
aI0
aI0
aF0.0
aI4
aI5
aI9
aI0
aI0
aI2
aI1
aI4
aI4
aI-8
aa(lp209
V0021300211
p210
aVNOV 26, 2013
p211
aVBKN @ TOR
p212
aVW
p213
aI24
aI5
aI11
aF0.455
aI0
aI0
aF0.0
aI2
aI2
aF1.0
aI1
aI5
aI6
aI4
aI1
aI0
aI0
aI2
aI12
aI2
aa(lp214
V0021300197
p215
aVNOV 24, 2013
p216
aVBKN vs. DET
p217
aVL
p218
aI23
aI2
aI9
aF0.222
aI0
aI1
aF0.0
aI0
aI0
aF0.0
aI3
aI6
aI9
aI3
aI1
aI0
aI2
aI3
aI4
aI-7
aa(lp219
V0021300182
p220
aVNOV 22, 2013
p221
aVBKN @ MIN
p222
aVL
p223
aI21
aI4
aI6
aF0.667
aI0
aI0
aF0.0
aI0
aI0
aF0.0
aI2
aI6
aI8
aI2
aI0
aI1
aI0
aI3
aI8
aI-24
aa(lp224
V0021300161
p225
aVNOV 20, 2013
p226
aVBKN @ CHA
p227
aVL
p228
aI21
aI2
aI2
aF1.0
aI0
aI0
aF0.0
aI0
aI0
aF0.0
aI0
aI8
aI8
aI3
aI0
aI3
aI2
aI5
aI4
aI7
aa(lp229
V0021300150
p230
aVNOV 18, 2013
p231
aVBKN vs. POR
p232
aVL
p233
aI24
aI8
aI19
aF0.421
aI0
aI0
aF0.0
aI0
aI0
aF0.0
aI3
aI5
aI8
aI0
aI2
aI2
aI2
aI3
aI16
aI-10
aa(lp234
V0021300132
p235
aVNOV 15, 2013
p236
aVBKN @ PHX
p237
aVW
p238
aI28
aI2
aI8
aF0.25
aI0
aI0
aF0.0
aI0
aI0
aF0.0
aI3
aI11
aI14
aI2
aI1
aI0
aI0
aI2
aI4
aI5
aa(lp239
V0021300121
p240
aVNOV 13, 2013
p241
aVBKN @ SAC
p242
aVL
p243
aI15
aI2
aI9
aF0.222
aI0
aI0
aF0.0
aI2
aI2
aF1.0
aI0
aI8
aI8
aI1
aI0
aI1
aI1
aI1
aI6
aI-15
aa(lp244
V0021300087
p245
aVNOV 09, 2013
p246
aVBKN vs. IND
p247
aVL
p248
aI27
aI3
aI7
aF0.429
aI0
aI0
aF0.0
aI0
aI0
aF0.0
aI1
aI7
aI8
aI2
aI3
aI0
aI3
aI4
aI6
aI-14
aa(lp249
V0021300077
p250
aVNOV 08, 2013
p251
aVBKN @ WAS
p252
aVL
p253
aI24
aI2
aI11
aF0.182
aI0
aI1
aF0.0
aI0
aI1
aF0.0
aI0
aI6
aI6
aI2
aI2
aI1
aI0
aI5
aI4
aI-19
aa(lp254
V0021300052
p255
aVNOV 05, 2013
p256
aVBKN vs. UTA
p257
aVW
p258
aI14
aI2
aI5
aF0.4
aI0
aI0
aF0.0
aI0
aI0
aF0.0
aI0
aI4
aI4
aI1
aI0
aI0
aI1
aI1
aI4
aI8
aa(lp259
V0021300043
p260
aVNOV 03, 2013
p261
aVBKN @ ORL
p262
aVL
p263
aI22
aI3
aI11
aF0.273
aI0
aI1
aF0.0
aI2
aI2
aF1.0
aI0
aI5
aI5
aI1
aI0
aI1
aI1
aI2
aI8
aI-20
aa(lp264
V0021300028
p265
aVNOV 01, 2013
p266
aVBKN vs. MIA
p267
aVW
p268
aI26
aI3
aI11
aF0.273
aI0
aI0
aF0.0
aI0
aI0
aF0.0
aI1
aI6
aI7
aI2
aI1
aI0
aI3
aI3
aI6
aI2
aa(lp269
V0021300004
p270
aVOCT 30, 2013
p271
aVBKN @ CLE
p272
aVL
p273
aI26
aI4
aI8
aF0.5
aI0
aI0
aF0.0
aI0
aI0
aF0.0
aI2
aI8
aI10
aI3
aI2
aI1
aI2
aI4
aI8
aI7
aasS'name'
p274
VKevin Garnett
p275
sS'experience'
p276
I18
s.