(dp0
S'age'
p1
I25
sS'stats'
p2
(lp3
(lp4
V0020801223
p5
aVAPR 15, 2009
p6
aVDET @ MIA
p7
aVL
p8
aI33
aI6
aI11
aF0.545
aI0
aI0
aF0.0
aI4
aI7
aF0.571
aI7
aI3
aI10
aI2
aI0
aI0
aI1
aI3
aI16
aI-3
aa(lp9
V0020801204
p10
aVAPR 13, 2009
p11
aVDET vs. CHI
p12
aVL
p13
aI7
aI0
aI2
aF0.0
aI0
aI0
aF0.0
aI0
aI0
aF0.0
aI2
aI0
aI2
aI0
aI0
aI0
aI1
aI1
aI0
aI0
aa(lp14
V0020801189
p15
aVAPR 11, 2009
p16
aVDET @ IND
p17
aVL
p18
aI19
aI3
aI4
aF0.75
aI0
aI0
aF0.0
aI2
aI4
aF0.5
aI1
aI1
aI2
aI1
aI0
aI1
aI1
aI1
aI8
aI-14
aa(lp19
V0020801180
p20
aVAPR 10, 2009
p21
aVDET vs. NJN
p22
aVW
p23
aI24
aI5
aI7
aF0.714
aI0
aI0
aF0.0
aI1
aI4
aF0.25
aI3
aI3
aI6
aI0
aI1
aI1
aI1
aI1
aI11
aI5
aa(lp24
V0020801166
p25
aVAPR 08, 2009
p26
aVDET @ NYK
p27
aVW
p28
aI18
aI3
aI5
aF0.6
aI0
aI0
aF0.0
aI0
aI0
aF0.0
aI3
aI3
aI6
aI0
aI0
aI0
aI2
aI4
aI6
aI4
aa(lp29
V0020801144
p30
aVAPR 05, 2009
p31
aVDET vs. CHA
p32
aVW
p33
aI15
aI1
aI2
aF0.5
aI0
aI0
aF0.0
aI0
aI0
aF0.0
aI2
aI3
aI5
aI0
aI1
aI0
aI1
aI2
aI2
aI5
aa(lp34
V0020801137
p35
aVAPR 04, 2009
p36
aVDET @ PHI
p37
aVL
p38
aI13
aI2
aI3
aF0.667
aI0
aI0
aF0.0
aI1
aI2
aF0.5
aI2
aI2
aI4
aI0
aI0
aI1
aI1
aI1
aI5
aI0
aa(lp39
V0020801115
p40
aVAPR 01, 2009
p41
aVDET @ NJN
p42
aVL
p43
aI16
aI2
aI2
aF1.0
aI0
aI0
aF0.0
aI0
aI0
aF0.0
aI2
aI3
aI5
aI1
aI0
aI0
aI0
aI1
aI4
aI7
aa(lp44
V0020801105
p45
aVMAR 31, 2009
p46
aVDET @ CLE
p47
aVL
p48
aI19
aI2
aI4
aF0.5
aI0
aI0
aF0.0
aI2
aI4
aF0.5
aI3
aI3
aI6
aI0
aI1
aI0
aI0
aI0
aI6
aI0
aa(lp49
V0020801095
p50
aVMAR 29, 2009
p51
aVDET vs. PHI
p52
aVW
p53
aI19
aI2
aI3
aF0.667
aI0
aI0
aF0.0
aI0
aI0
aF0.0
aI3
aI2
aI5
aI0
aI0
aI1
aI1
aI1
aI4
aI-13
aa(lp54
V0020801085
p55
aVMAR 28, 2009
p56
aVDET @ WAS
p57
aVW
p58
aI26
aI4
aI6
aF0.667
aI0
aI0
aF0.0
aI2
aI2
aF1.0
aI5
aI2
aI7
aI2
aI0
aI2
aI1
aI3
aI10
aI-2
aa(lp59
V0020801070
p60
aVMAR 26, 2009
p61
aVDET vs. LAL
p62
aVL
p63
aI24
aI2
aI4
aF0.5
aI0
aI0
aF0.0
aI1
aI1
aF1.0
aI2
aI3
aI5
aI1
aI0
aI3
aI0
aI3
aI5
aI1
aa(lp64
V0020801055
p65
aVMAR 24, 2009
p66
aVDET @ CHI
p67
aVL
p68
aI17
aI0
aI2
aF0.0
aI0
aI0
aF0.0
aI0
aI0
aF0.0
aI0
aI0
aI0
aI0
aI0
aI1
aI0
aI1
aI0
aI1
aa(lp69
V0020801041
p70
aVMAR 22, 2009
p71
aVDET vs. MIA
p72
aVL
p73
aI21
aI2
aI3
aF0.667
aI0
aI0
aF0.0
aI2
aI4
aF0.5
aI6
aI1
aI7
aI0
aI0
aI3
aI0
aI3
aI6
aI-13
aa(lp74
V0020801027
p75
aVMAR 20, 2009
p76
aVDET vs. LAC
p77
aVW
p78
aI23
aI2
aI4
aF0.5
aI0
aI0
aF0.0
aI2
aI4
aF0.5
aI2
aI0
aI2
aI0
aI0
aI0
aI1
aI3
aI6
aI-1
aa(lp79
V0020801017
p80
aVMAR 18, 2009
p81
aVDET @ HOU
p82
aVL
p83
aI19
aI2
aI5
aF0.4
aI0
aI0
aF0.0
aI1
aI2
aF0.5
aI3
aI0
aI3
aI0
aI0
aI2
aI0
aI1
aI5
aI-11
aa(lp84
V0020801004
p85
aVMAR 17, 2009
p86
aVDET @ DAL
p87
aVL
p88
aI27
aI2
aI3
aF0.667
aI0
aI0
aF0.0
aI1
aI1
aF1.0
aI5
aI4
aI9
aI1
aI1
aI0
aI0
aI3
aI5
aI-6
aa(lp89
V0020800987
p90
aVMAR 15, 2009
p91
aVDET vs. MEM
p92
aVL
p93
aI25
aI6
aI9
aF0.667
aI0
aI0
aF0.0
aI0
aI0
aF0.0
aI2
aI1
aI3
aI0
aI1
aI1
aI0
aI1
aI12
aI-10
aa(lp94
V0020800970
p95
aVMAR 13, 2009
p96
aVDET @ TOR
p97
aVW
p98
aI38
aI8
aI9
aF0.889
aI0
aI0
aF0.0
aI0
aI1
aF0.0
aI2
aI4
aI6
aI0
aI1
aI2
aI1
aI4
aI16
aI14
aa(lp99
V0020800959
p100
aVMAR 11, 2009
p101
aVDET vs. NYK
p102
aVL
p103
aI26
aI1
aI4
aF0.25
aI0
aI0
aF0.0
aI1
aI2
aF0.5
aI1
aI1
aI2
aI0
aI0
aI0
aI1
aI3
aI3
aI-9
aa(lp104
V0020800944
p105
aVMAR 09, 2009
p106
aVDET vs. ORL
p107
aVW
p108
aI19
aI2
aI4
aF0.5
aI0
aI0
aF0.0
aI0
aI2
aF0.0
aI0
aI1
aI1
aI0
aI0
aI1
aI0
aI4
aI4
aI-9
aa(lp109
V0020800927
p110
aVMAR 07, 2009
p111
aVDET @ ATL
p112
aVL
p113
aI19
aI2
aI4
aF0.5
aI0
aI0
aF0.0
aI0
aI0
aF0.0
aI2
aI3
aI5
aI0
aI0
aI0
aI0
aI2
aI4
aI-5
aa(lp114
V0020800921
p115
aVMAR 06, 2009
p116
aVDET vs. GSW
p117
aVW
p118
aI26
aI8
aI11
aF0.727
aI0
aI0
aF0.0
aI0
aI2
aF0.0
aI6
aI3
aI9
aI1
aI1
aI1
aI1
aI1
aI16
aI9
aa(lp119
V0020800899
p120
aVMAR 03, 2009
p121
aVDET vs. DEN
p122
aVW
p123
aI16
aI0
aI1
aF0.0
aI0
aI0
aF0.0
aI0
aI0
aF0.0
aI1
aI2
aI3
aI0
aI0
aI1
aI1
aI3
aI0
aI2
aa(lp124
V0020800883
p125
aVMAR 01, 2009
p126
aVDET @ BOS
p127
aVW
p128
aI17
aI1
aI3
aF0.333
aI0
aI0
aF0.0
aI6
aI6
aF1.0
aI3
aI0
aI3
aI1
aI0
aI0
aI0
aI2
aI8
aI1
aa(lp129
V0020800864
p130
aVFEB 27, 2009
p131
aVDET @ ORL
p132
aVW
p133
aI20
aI1
aI1
aF1.0
aI0
aI0
aF0.0
aI0
aI2
aF0.0
aI1
aI2
aI3
aI2
aI0
aI0
aI1
aI3
aI2
aI9
aa(lp134
V0020800855
p135
aVFEB 25, 2009
p136
aVDET @ NOH
p137
aVL
p138
aI30
aI3
aI4
aF0.75
aI0
aI0
aF0.0
aI0
aI2
aF0.0
aI4
aI5
aI9
aI1
aI0
aI0
aI0
aI2
aI6
aI5
aa(lp139
V0020800844
p140
aVFEB 24, 2009
p141
aVDET @ MIA
p142
aVL
p143
aI23
aI4
aI7
aF0.571
aI0
aI0
aF0.0
aI3
aI5
aF0.6
aI1
aI5
aI6
aI0
aI1
aI0
aI0
aI1
aI11
aI-4
aa(lp144
V0020800835
p145
aVFEB 22, 2009
p146
aVDET @ CLE
p147
aVL
p148
aI25
aI3
aI5
aF0.6
aI0
aI0
aF0.0
aI5
aI7
aF0.714
aI3
aI6
aI9
aI0
aI0
aI1
aI1
aI2
aI11
aI-7
aa(lp149
V0020800809
p150
aVFEB 19, 2009
p151
aVDET vs. SAS
p152
aVL
p153
aI25
aI4
aI5
aF0.8
aI0
aI0
aF0.0
aI2
aI5
aF0.4
aI3
aI6
aI9
aI0
aI0
aI1
aI2
aI3
aI10
aI-12
aa(lp154
V0020800791
p155
aVFEB 17, 2009
p156
aVDET vs. MIL
p157
aVL
p158
aI7
aI0
aI1
aF0.0
aI0
aI0
aF0.0
aI0
aI0
aF0.0
aI0
aI1
aI1
aI0
aI0
aI0
aI0
aI2
aI0
aI2
aa(lp159
V0020800778
p160
aVFEB 11, 2009
p161
aVDET vs. ATL
p162
aVL
p163
aI17
aI3
aI5
aF0.6
aI0
aI0
aF0.0
aI0
aI0
aF0.0
aI2
aI2
aI4
aI0
aI1
aI2
aI0
aI2
aI6
aI2
aa(lp164
V0020800769
p165
aVFEB 10, 2009
p166
aVDET @ CHI
p167
aVL
p168
aI13
aI2
aI3
aF0.667
aI0
aI0
aF0.0
aI1
aI2
aF0.5
aI1
aI0
aI1
aI0
aI0
aI1
aI0
aI1
aI5
aI-8
aa(lp169
V0020800758
p170
aVFEB 08, 2009
p171
aVDET vs. PHX
p172
aVL
p173
aI9
aI0
aI1
aF0.0
aI0
aI0
aF0.0
aI0
aI0
aF0.0
aI0
aI0
aI0
aI0
aI0
aI0
aI1
aI1
aI0
aI-4
aa(lp174
V0020800749
p175
aVFEB 07, 2009
p176
aVDET @ MIL
p177
aVW
p178
aI7
aI0
aI0
aF0.0
aI0
aI0
aF0.0
aI0
aI0
aF0.0
aI1
aI0
aI1
aI1
aI0
aI0
aI0
aI2
aI0
aI-3
aa(lp179
V0020800723
p180
aVFEB 04, 2009
p181
aVDET vs. MIA
p182
aVW
p183
aI16
aI1
aI2
aF0.5
aI0
aI0
aF0.0
aI0
aI0
aF0.0
aI1
aI0
aI1
aI0
aI0
aI0
aI2
aI2
aI2
aI2
aa(lp184
V0020800704
p185
aVFEB 01, 2009
p186
aVDET vs. CLE
p187
aVL
p188
aI5
aI0
aI1
aF0.0
aI0
aI0
aF0.0
aI0
aI2
aF0.0
aI0
aI0
aI0
aI0
aI0
aI0
aI0
aI2
aI0
aI-5
aa(lp189
V0020800681
p190
aVJAN 30, 2009
p191
aVDET vs. BOS
p192
aVL
p193
aI14
aI2
aI3
aF0.667
aI0
aI0
aF0.0
aI1
aI3
aF0.333
aI4
aI1
aI5
aI0
aI0
aI0
aI0
aI2
aI5
aI0
aa(lp194
V0020800672
p195
aVJAN 28, 2009
p196
aVDET @ MIN
p197
aVW
p198
aI8
aI1
aI1
aF1.0
aI0
aI0
aF0.0
aI0
aI0
aF0.0
aI0
aI0
aI0
aI0
aI0
aI0
aI1
aI0
aI2
aI-2
aa(lp199
V0020800650
p200
aVJAN 25, 2009
p201
aVDET vs. HOU
p202
aVL
p203
aI18
aI4
aI4
aF1.0
aI0
aI0
aF0.0
aI0
aI0
aF0.0
aI2
aI1
aI3
aI1
aI0
aI1
aI0
aI2
aI8
aI-8
aa(lp204
V0020800631
p205
aVJAN 23, 2009
p206
aVDET vs. DAL
p207
aVL
p208
aI17
aI1
aI2
aF0.5
aI0
aI0
aF0.0
aI2
aI2
aF1.0
aI2
aI3
aI5
aI0
aI1
aI1
aI1
aI1
aI4
aI2
aa(lp209
V0020800618
p210
aVJAN 21, 2009
p211
aVDET vs. TOR
p212
aVW
p213
aI25
aI7
aI10
aF0.7
aI0
aI0
aF0.0
aI2
aI2
aF1.0
aI5
aI6
aI11
aI0
aI0
aI2
aI0
aI2
aI16
aI14
aa(lp214
V0020800609
p215
aVJAN 19, 2009
p216
aVDET @ MEM
p217
aVW
p218
aI19
aI2
aI3
aF0.667
aI0
aI0
aF0.0
aI3
aI6
aF0.5
aI2
aI3
aI5
aI0
aI0
aI1
aI2
aI2
aI7
aI-5
aa(lp219
V0020800592
p220
aVJAN 17, 2009
p221
aVDET vs. NOH
p222
aVL
p223
aI18
aI5
aI8
aF0.625
aI0
aI0
aF0.0
aI1
aI3
aF0.333
aI5
aI3
aI8
aI0
aI0
aI1
aI1
aI3
aI11
aI4
aa(lp224
V0020800559
p225
aVJAN 13, 2009
p226
aVDET vs. CHA
p227
aVL
p228
aI11
aI0
aI1
aF0.0
aI0
aI0
aF0.0
aI0
aI0
aF0.0
aI2
aI0
aI2
aI1
aI1
aI0
aI0
aI0
aI0
aI-1
aa(lp229
V0020800544
p230
aVJAN 10, 2009
p231
aVDET @ UTA
p232
aVL
p233
aI23
aI3
aI5
aF0.6
aI0
aI0
aF0.0
aI5
aI7
aF0.714
aI2
aI2
aI4
aI0
aI0
aI0
aI1
aI2
aI11
aI1
aa(lp234
V0020800536
p235
aVJAN 09, 2009
p236
aVDET @ DEN
p237
aVW
p238
aI21
aI3
aI4
aF0.75
aI0
aI0
aF0.0
aI3
aI6
aF0.5
aI4
aI3
aI7
aI0
aI0
aI1
aI0
aI1
aI9
aI-2
aa(lp239
V0020800524
p240
aVJAN 07, 2009
p241
aVDET @ POR
p242
aVL
p243
aI16
aI2
aI3
aF0.667
aI0
aI0
aF0.0
aI1
aI2
aF0.5
aI1
aI2
aI3
aI0
aI0
aI0
aI1
aI3
aI5
aI-11
aa(lp244
V0020800497
p245
aVJAN 04, 2009
p246
aVDET @ LAC
p247
aVW
p248
aI16
aI2
aI3
aF0.667
aI0
aI0
aF0.0
aI0
aI0
aF0.0
aI0
aI1
aI1
aI1
aI0
aI1
aI0
aI2
aI4
aI7
aa(lp249
V0020800479
p250
aVJAN 02, 2009
p251
aVDET vs. SAC
p252
aVW
p253
aI22
aI1
aI3
aF0.333
aI0
aI0
aF0.0
aI0
aI2
aF0.0
aI1
aI1
aI2
aI0
aI3
aI3
aI0
aI5
aI2
aI-11
aa(lp254
V0020800468
p255
aVDEC 31, 2008
p256
aVDET vs. NJN
p257
aVW
p258
aI25
aI2
aI6
aF0.333
aI0
aI0
aF0.0
aI1
aI3
aF0.333
aI2
aI7
aI9
aI0
aI1
aI2
aI0
aI4
aI5
aI10
aa(lp259
V0020800451
p260
aVDEC 29, 2008
p261
aVDET vs. ORL
p262
aVW
p263
aI16
aI2
aI2
aF1.0
aI0
aI0
aF0.0
aI0
aI0
aF0.0
aI0
aI2
aI2
aI1
aI0
aI1
aI1
aI2
aI4
aI8
aa(lp264
V0020800441
p265
aVDEC 27, 2008
p266
aVDET @ MIL
p267
aVW
p268
aI11
aI0
aI1
aF0.0
aI0
aI0
aF0.0
aI1
aI2
aF0.5
aI0
aI1
aI1
aI0
aI0
aI0
aI0
aI1
aI1
aI-17
aa(lp269
V0020800429
p270
aVDEC 26, 2008
p271
aVDET vs. OKC
p272
aVW
p273
aI5
aI1
aI2
aF0.5
aI0
aI0
aF0.0
aI0
aI0
aF0.0
aI0
aI0
aI0
aI0
aI0
aI0
aI0
aI0
aI2
aI-2
aa(lp274
V0020800415
p275
aVDEC 23, 2008
p276
aVDET vs. CHI
p277
aVW
p278
aI15
aI1
aI4
aF0.25
aI0
aI0
aF0.0
aI2
aI4
aF0.5
aI5
aI1
aI6
aI0
aI0
aI2
aI0
aI0
aI4
aI-2
aa(lp279
V0020800383
p280
aVDEC 19, 2008
p281
aVDET vs. UTA
p282
aVL
p283
aI16
aI0
aI1
aF0.0
aI0
aI0
aF0.0
aI0
aI0
aF0.0
aI1
aI3
aI4
aI1
aI0
aI2
aI0
aI1
aI0
aI-10
aa(lp284
V0020800370
p285
aVDEC 17, 2008
p286
aVDET vs. WAS
p287
aVW
p288
aI13
aI1
aI4
aF0.25
aI0
aI1
aF0.0
aI0
aI2
aF0.0
aI2
aI4
aI6
aI0
aI1
aI1
aI0
aI2
aI2
aI6
aa(lp289
V0020800338
p290
aVDEC 13, 2008
p291
aVDET @ CHA
p292
aVW
p293
aI22
aI2
aI4
aF0.5
aI0
aI0
aF0.0
aI3
aI5
aF0.6
aI2
aI2
aI4
aI0
aI1
aI0
aI2
aI5
aI7
aI-5
aa(lp294
V0020800330
p295
aVDEC 12, 2008
p296
aVDET vs. IND
p297
aVW
p298
aI14
aI3
aI3
aF1.0
aI0
aI0
aF0.0
aI2
aI3
aF0.667
aI3
aI1
aI4
aI0
aI1
aI0
aI1
aI2
aI8
aI-5
aa(lp299
V0020800297
p300
aVDEC 07, 2008
p301
aVDET @ NYK
p302
aVL
p303
aI9
aI0
aI0
aF0.0
aI0
aI0
aF0.0
aI0
aI0
aF0.0
aI1
aI1
aI2
aI0
aI0
aI0
aI2
aI3
aI0
aI-8
aa(lp304
V0020800282
p305
aVDEC 05, 2008
p306
aVDET vs. PHI
p307
aVL
p308
aI16
aI4
aI6
aF0.667
aI0
aI0
aF0.0
aI0
aI0
aF0.0
aI0
aI0
aI0
aI0
aI0
aI1
aI0
aI4
aI8
aI-1
aa(lp309
V0020800260
p310
aVDEC 02, 2008
p311
aVDET @ SAS
p312
aVW
p313
aI7
aI2
aI3
aF0.667
aI0
aI0
aF0.0
aI0
aI2
aF0.0
aI0
aI1
aI1
aI1
aI1
aI0
aI0
aI1
aI4
aI5
aa(lp314
V0020800247
p315
aVNOV 30, 2008
p316
aVDET vs. POR
p317
aVL
p318
aI10
aI2
aI4
aF0.5
aI0
aI0
aF0.0
aI0
aI0
aF0.0
aI0
aI2
aI2
aI1
aI3
aI0
aI0
aI0
aI4
aI-5
aa(lp319
V0020800228
p320
aVNOV 28, 2008
p321
aVDET vs. MIL
p322
aVW
p323
aI29
aI5
aI8
aF0.625
aI0
aI0
aF0.0
aI3
aI6
aF0.5
aI5
aI3
aI8
aI1
aI0
aI6
aI0
aI2
aI13
aI13
aa(lp324
V0020800215
p325
aVNOV 26, 2008
p326
aVDET vs. NYK
p327
aVW
p328
aI21
aI5
aI5
aF1.0
aI0
aI0
aF0.0
aI0
aI0
aF0.0
aI3
aI2
aI5
aI0
aI0
aI2
aI1
aI0
aI10
aI21
aa(lp329
V0020800195
p330
aVNOV 23, 2008
p331
aVDET vs. MIN
p332
aVL
p333
aI23
aI5
aI10
aF0.5
aI0
aI0
aF0.0
aI2
aI4
aF0.5
aI4
aI4
aI8
aI0
aI0
aI0
aI0
aI2
aI12
aI-12
aa(lp334
V0020800169
p335
aVNOV 20, 2008
p336
aVDET @ BOS
p337
aVL
p338
aI29
aI5
aI9
aF0.556
aI0
aI0
aF0.0
aI0
aI2
aF0.0
aI3
aI3
aI6
aI0
aI1
aI1
aI0
aI4
aI10
aI-18
aa(lp339
V0020800160
p340
aVNOV 19, 2008
p341
aVDET vs. CLE
p342
aVW
p343
aI20
aI3
aI5
aF0.6
aI0
aI0
aF0.0
aI0
aI0
aF0.0
aI1
aI2
aI3
aI1
aI0
aI0
aI0
aI3
aI6
aI9
aa(lp344
V0020800144
p345
aVNOV 16, 2008
p346
aVDET @ PHX
p347
aVL
p348
aI11
aI2
aI7
aF0.286
aI0
aI0
aF0.0
aI0
aI1
aF0.0
aI5
aI2
aI7
aI1
aI0
aI1
aI0
aI1
aI4
aI-6
aa(lp349
V0020800131
p350
aVNOV 14, 2008
p351
aVDET @ LAL
p352
aVW
p353
aI11
aI2
aI4
aF0.5
aI0
aI0
aF0.0
aI0
aI0
aF0.0
aI1
aI0
aI1
aI0
aI0
aI0
aI1
aI3
aI4
aI1
aa(lp354
V0020800119
p355
aVNOV 13, 2008
p356
aVDET @ GSW
p357
aVW
p358
aI12
aI2
aI4
aF0.5
aI0
aI0
aF0.0
aI2
aI2
aF1.0
aI3
aI1
aI4
aI0
aI0
aI0
aI1
aI2
aI6
aI-6
aa(lp359
V0020800104
p360
aVNOV 11, 2008
p361
aVDET @ SAC
p362
aVW
p363
aI12
aI1
aI3
aF0.333
aI0
aI0
aF0.0
aI1
aI2
aF0.5
aI1
aI0
aI1
aI0
aI0
aI1
aI0
aI2
aI3
aI-6
aa(lp364
V0020800088
p365
aVNOV 09, 2008
p366
aVDET vs. BOS
p367
aVL
p368
aI17
aI0
aI5
aF0.0
aI0
aI0
aF0.0
aI2
aI4
aF0.5
aI1
aI1
aI2
aI0
aI0
aI1
aI3
aI4
aI2
aI-26
aa(lp369
V0020800071
p370
aVNOV 07, 2008
p371
aVDET @ NJN
p372
aVL
p373
aI15
aI0
aI1
aF0.0
aI0
aI0
aF0.0
aI0
aI0
aF0.0
aI1
aI3
aI4
aI0
aI0
aI1
aI0
aI3
aI0
aI-8
aa(lp374
V0020800052
p375
aVNOV 05, 2008
p376
aVDET @ TOR
p377
aVW
p378
aI21
aI3
aI6
aF0.5
aI0
aI0
aF0.0
aI0
aI0
aF0.0
aI2
aI3
aI5
aI0
aI2
aI2
aI0
aI1
aI6
aI7
aa(lp379
V0020800042
p380
aVNOV 03, 2008
p381
aVDET @ CHA
p382
aVW
p383
aI23
aI3
aI4
aF0.75
aI0
aI0
aF0.0
aI4
aI4
aF1.0
aI1
aI1
aI2
aI0
aI0
aI1
aI1
aI2
aI10
aI-2
aa(lp384
V0020800030
p385
aVNOV 01, 2008
p386
aVDET vs. WAS
p387
aVW
p388
aI17
aI4
aI5
aF0.8
aI0
aI0
aF0.0
aI3
aI3
aF1.0
aI4
aI3
aI7
aI0
aI0
aI0
aI1
aI2
aI11
aI5
aa(lp389
V0020800008
p390
aVOCT 29, 2008
p391
aVDET vs. IND
p392
aVW
p393
aI18
aI2
aI4
aF0.5
aI0
aI0
aF0.0
aI3
aI3
aF1.0
aI3
aI1
aI4
aI0
aI0
aI1
aI2
aI1
aI7
aI0
aasS'name'
p394
VJason Maxiell
p395
sS'experience'
p396
I3
s.