(dp0
S'age'
p1
I22
sS'stats'
p2
(lp3
(lp4
V0020800006
p5
aVOCT 29, 2008
p6
aVWAS vs. NJN
p7
aVL
p8
aI25
aI6
aI13
aF0.462
aI0
aI1
aF0.0
aI1
aI2
aF0.5
aI2
aI4
aI6
aI0
aI0
aI1
aI5
aI3
aI13
aI-10
aa(lp9
V0020800030
p10
aVNOV 01, 2008
p11
aVWAS @ DET
p12
aVL
p13
aI4
aI1
aI3
aF0.333
aI0
aI0
aF0.0
aI2
aI2
aF1.0
aI1
aI0
aI1
aI0
aI0
aI0
aI0
aI0
aI4
aI2
aa(lp14
V0020800056
p15
aVNOV 05, 2008
p16
aVWAS @ MIL
p17
aVL
p18
aI22
aI1
aI2
aF0.5
aI0
aI1
aF0.0
aI3
aI4
aF0.75
aI1
aI5
aI6
aI2
aI0
aI0
aI4
aI3
aI5
aI-4
aa(lp19
V0020800067
p20
aVNOV 07, 2008
p21
aVWAS vs. NYK
p22
aVL
p23
aI13
aI3
aI5
aF0.6
aI0
aI2
aF0.0
aI1
aI1
aF1.0
aI2
aI3
aI5
aI2
aI0
aI1
aI2
aI2
aI7
aI-2
aa(lp24
V0020800080
p25
aVNOV 08, 2008
p26
aVWAS @ ORL
p27
aVL
p28
aI26
aI1
aI10
aF0.1
aI0
aI0
aF0.0
aI5
aI6
aF0.833
aI0
aI5
aI5
aI0
aI3
aI0
aI3
aI4
aI7
aI-9
aa(lp29
V0020800114
p30
aVNOV 12, 2008
p31
aVWAS vs. UTA
p32
aVW
p33
aI21
aI2
aI6
aF0.333
aI0
aI0
aF0.0
aI3
aI4
aF0.75
aI2
aI3
aI5
aI2
aI2
aI0
aI2
aI0
aI7
aI7
aa(lp34
V0020800122
p35
aVNOV 14, 2008
p36
aVWAS @ MIA
p37
aVL
p38
aI13
aI0
aI2
aF0.0
aI0
aI0
aF0.0
aI1
aI2
aF0.5
aI0
aI1
aI1
aI0
aI0
aI0
aI1
aI1
aI1
aI-16
aa(lp39
V0020800152
p40
aVNOV 18, 2008
p41
aVWAS vs. MIA
p42
aVL
p43
aI15
aI3
aI6
aF0.5
aI0
aI0
aF0.0
aI0
aI1
aF0.0
aI1
aI1
aI2
aI0
aI1
aI0
aI2
aI2
aI6
aI5
aa(lp44
V0020800159
p45
aVNOV 19, 2008
p46
aVWAS @ ATL
p47
aVL
p48
aI17
aI2
aI5
aF0.4
aI0
aI1
aF0.0
aI0
aI0
aF0.0
aI0
aI2
aI2
aI1
aI1
aI1
aI1
aI2
aI4
aI-4
aa(lp49
V0020800174
p50
aVNOV 21, 2008
p51
aVWAS vs. HOU
p52
aVL
p53
aI20
aI6
aI9
aF0.667
aI0
aI0
aF0.0
aI2
aI2
aF1.0
aI2
aI2
aI4
aI1
aI0
aI1
aI0
aI5
aI14
aI3
aa(lp54
V0020800189
p55
aVNOV 22, 2008
p56
aVWAS @ NYK
p57
aVL
p58
aI10
aI3
aI3
aF1.0
aI0
aI0
aF0.0
aI0
aI0
aF0.0
aI0
aI2
aI2
aI0
aI0
aI1
aI1
aI1
aI6
aI-2
aa(lp59
V0020800205
p60
aVNOV 25, 2008
p61
aVWAS vs. GSW
p62
aVW
p63
aI29
aI11
aI18
aF0.611
aI1
aI1
aF1.0
aI2
aI2
aF1.0
aI5
aI7
aI12
aI5
aI2
aI5
aI1
aI3
aI25
aI21
aa(lp64
V0020800223
p65
aVNOV 27, 2008
p66
aVWAS vs. ORL
p67
aVL
p68
aI12
aI2
aI6
aF0.333
aI0
aI0
aF0.0
aI1
aI2
aF0.5
aI1
aI4
aI5
aI1
aI1
aI1
aI1
aI6
aI5
aI9
aa(lp69
V0020800238
p70
aVNOV 29, 2008
p71
aVWAS vs. ATL
p72
aVL
p73
aI19
aI4
aI9
aF0.444
aI0
aI2
aF0.0
aI2
aI2
aF1.0
aI2
aI2
aI4
aI2
aI1
aI1
aI1
aI5
aI10
aI10
aa(lp74
V0020800256
p75
aVDEC 02, 2008
p76
aVWAS @ NJN
p77
aVW
p78
aI14
aI1
aI5
aF0.2
aI0
aI0
aF0.0
aI1
aI1
aF1.0
aI1
aI1
aI2
aI2
aI0
aI0
aI2
aI2
aI3
aI5
aa(lp79
V0020800268
p80
aVDEC 03, 2008
p81
aVWAS vs. POR
p82
aVL
p83
aI21
aI5
aI8
aF0.625
aI0
aI0
aF0.0
aI1
aI2
aF0.5
aI2
aI0
aI2
aI0
aI0
aI0
aI2
aI2
aI11
aI8
aa(lp84
V0020800277
p85
aVDEC 05, 2008
p86
aVWAS vs. LAL
p87
aVL
p88
aI29
aI8
aI17
aF0.471
aI1
aI1
aF1.0
aI1
aI1
aF1.0
aI5
aI7
aI12
aI3
aI2
aI0
aI1
aI4
aI18
aI14
aa(lp89
V0020800292
p90
aVDEC 06, 2008
p91
aVWAS @ CHI
p92
aVL
p93
aI20
aI6
aI9
aF0.667
aI1
aI2
aF0.5
aI1
aI1
aF1.0
aI1
aI3
aI4
aI0
aI0
aI0
aI2
aI2
aI14
aI-18
aa(lp94
V0020800306
p95
aVDEC 09, 2008
p96
aVWAS vs. DET
p97
aVW
p98
aI18
aI4
aI6
aF0.667
aI0
aI0
aF0.0
aI0
aI0
aF0.0
aI3
aI2
aI5
aI1
aI1
aI0
aI1
aI4
aI8
aI5
aa(lp99
V0020800323
p100
aVDEC 11, 2008
p101
aVWAS vs. BOS
p102
aVL
p103
aI16
aI2
aI2
aF1.0
aI0
aI0
aF0.0
aI0
aI0
aF0.0
aI0
aI3
aI3
aI0
aI1
aI2
aI3
aI2
aI4
aI-8
aa(lp104
V0020800339
p105
aVDEC 13, 2008
p106
aVWAS @ PHI
p107
aVL
p108
aI31
aI2
aI6
aF0.333
aI0
aI0
aF0.0
aI3
aI4
aF0.75
aI2
aI4
aI6
aI3
aI1
aI1
aI2
aI5
aI7
aI3
aa(lp109
V0020800353
p110
aVDEC 15, 2008
p111
aVWAS vs. IND
p112
aVL
p113
aI33
aI7
aI15
aF0.467
aI0
aI1
aF0.0
aI5
aI7
aF0.714
aI0
aI2
aI2
aI1
aI0
aI1
aI0
aI3
aI19
aI-11
aa(lp114
V0020800370
p115
aVDEC 17, 2008
p116
aVWAS @ DET
p117
aVL
p118
aI35
aI4
aI11
aF0.364
aI0
aI0
aF0.0
aI4
aI4
aF1.0
aI6
aI5
aI11
aI4
aI0
aI1
aI2
aI3
aI12
aI-4
aa(lp119
V0020800378
p120
aVDEC 19, 2008
p121
aVWAS vs. PHI
p122
aVL
p123
aI31
aI5
aI10
aF0.5
aI0
aI0
aF0.0
aI3
aI6
aF0.5
aI2
aI6
aI8
aI3
aI1
aI1
aI2
aI4
aI13
aI10
aa(lp124
V0020800401
p125
aVDEC 21, 2008
p126
aVWAS vs. DAL
p127
aVL
p128
aI19
aI2
aI5
aF0.4
aI0
aI1
aF0.0
aI2
aI2
aF1.0
aI0
aI2
aI2
aI1
aI0
aI1
aI1
aI5
aI6
aI-4
aa(lp129
V0020800410
p130
aVDEC 23, 2008
p131
aVWAS @ CHA
p132
aVL
p133
aI23
aI2
aI10
aF0.2
aI0
aI0
aF0.0
aI1
aI2
aF0.5
aI4
aI4
aI8
aI1
aI1
aI1
aI1
aI5
aI5
aI-8
aa(lp134
V0020800424
p135
aVDEC 25, 2008
p136
aVWAS @ CLE
p137
aVL
p138
aI35
aI6
aI12
aF0.5
aI0
aI0
aF0.0
aI0
aI0
aF0.0
aI1
aI5
aI6
aI2
aI2
aI1
aI1
aI3
aI12
aI-4
aa(lp139
V0020800438
p140
aVDEC 27, 2008
p141
aVWAS vs. OKC
p142
aVW
p143
aI37
aI8
aI14
aF0.571
aI0
aI0
aF0.0
aI3
aI3
aF1.0
aI7
aI8
aI15
aI4
aI3
aI1
aI0
aI3
aI19
aI16
aa(lp144
V0020800455
p145
aVDEC 29, 2008
p146
aVWAS @ HOU
p147
aVW
p148
aI36
aI6
aI14
aF0.429
aI0
aI1
aF0.0
aI4
aI4
aF1.0
aI2
aI6
aI8
aI5
aI0
aI0
aI2
aI3
aI16
aI-13
aa(lp149
V0020800462
p150
aVDEC 30, 2008
p151
aVWAS @ NOH
p152
aVL
p153
aI24
aI5
aI8
aF0.625
aI0
aI0
aF0.0
aI1
aI1
aF1.0
aI1
aI3
aI4
aI2
aI0
aI1
aI0
aI4
aI11
aI-5
aa(lp154
V0020800475
p155
aVJAN 02, 2009
p156
aVWAS @ BOS
p157
aVL
p158
aI7
aI2
aI4
aF0.5
aI0
aI0
aF0.0
aI0
aI0
aF0.0
aI1
aI1
aI2
aI2
aI0
aI0
aI1
aI1
aI4
aI-9
aa(lp159
V0020800496
p160
aVJAN 04, 2009
p161
aVWAS vs. CLE
p162
aVW
p163
aI22
aI4
aI9
aF0.444
aI0
aI0
aF0.0
aI0
aI0
aF0.0
aI2
aI2
aI4
aI4
aI1
aI3
aI2
aI4
aI8
aI9
aa(lp164
V0020800507
p165
aVJAN 06, 2009
p166
aVWAS @ ORL
p167
aVL
p168
aI25
aI3
aI9
aF0.333
aI0
aI0
aF0.0
aI2
aI3
aF0.667
aI0
aI7
aI7
aI1
aI0
aI1
aI2
aI1
aI8
aI-12
aa(lp169
V0020800516
p170
aVJAN 07, 2009
p171
aVWAS vs. TOR
p172
aVL
p173
aI27
aI6
aI9
aF0.667
aI0
aI0
aF0.0
aI0
aI0
aF0.0
aI0
aI1
aI1
aI0
aI1
aI1
aI1
aI3
aI12
aI-6
aa(lp174
V0020800534
p175
aVJAN 09, 2009
p176
aVWAS @ CHI
p177
aVL
p178
aI26
aI4
aI8
aF0.5
aI0
aI0
aF0.0
aI0
aI2
aF0.0
aI2
aI6
aI8
aI0
aI1
aI4
aI2
aI2
aI8
aI-8
aa(lp179
V0020800540
p180
aVJAN 10, 2009
p181
aVWAS vs. CHA
p182
aVL
p183
aI36
aI7
aI13
aF0.538
aI0
aI0
aF0.0
aI0
aI0
aF0.0
aI4
aI6
aI10
aI4
aI0
aI0
aI4
aI4
aI14
aI13
aa(lp184
V0020800553
p185
aVJAN 12, 2009
p186
aVWAS vs. MIL
p187
aVL
p188
aI25
aI5
aI8
aF0.625
aI0
aI0
aF0.0
aI0
aI0
aF0.0
aI4
aI1
aI5
aI3
aI1
aI2
aI2
aI4
aI10
aI-5
aa(lp189
V0020800570
p190
aVJAN 14, 2009
p191
aVWAS @ NYK
p192
aVL
p193
aI16
aI2
aI5
aF0.4
aI0
aI0
aF0.0
aI2
aI2
aF1.0
aI2
aI1
aI3
aI2
aI0
aI2
aI0
aI3
aI6
aI-2
aa(lp194
V0020800582
p195
aVJAN 16, 2009
p196
aVWAS vs. NYK
p197
aVW
p198
aI27
aI6
aI11
aF0.545
aI0
aI0
aF0.0
aI1
aI2
aF0.5
aI2
aI9
aI11
aI4
aI3
aI1
aI2
aI2
aI13
aI-5
aa(lp199
V0020800608
p200
aVJAN 19, 2009
p201
aVWAS @ GSW
p202
aVL
p203
aI33
aI10
aI19
aF0.526
aI0
aI0
aF0.0
aI2
aI2
aF1.0
aI5
aI4
aI9
aI2
aI2
aI1
aI2
aI3
aI22
aI-18
aa(lp204
V0020800625
p205
aVJAN 21, 2009
p206
aVWAS @ SAC
p207
aVW
p208
aI26
aI7
aI10
aF0.7
aI0
aI0
aF0.0
aI6
aI8
aF0.75
aI1
aI2
aI3
aI3
aI0
aI1
aI2
aI5
aI20
aI6
aa(lp209
V0020800629
p210
aVJAN 22, 2009
p211
aVWAS @ LAL
p212
aVL
p213
aI24
aI2
aI9
aF0.222
aI0
aI1
aF0.0
aI1
aI2
aF0.5
aI1
aI3
aI4
aI3
aI1
aI0
aI2
aI2
aI5
aI-18
aa(lp214
V0020800645
p215
aVJAN 24, 2009
p216
aVWAS @ POR
p217
aVL
p218
aI36
aI5
aI12
aF0.417
aI0
aI0
aF0.0
aI1
aI2
aF0.5
aI1
aI4
aI5
aI2
aI0
aI1
aI2
aI5
aI11
aI-5
aa(lp219
V0020800655
p220
aVJAN 26, 2009
p221
aVWAS vs. PHX
p222
aVL
p223
aI27
aI6
aI14
aF0.429
aI0
aI0
aF0.0
aI0
aI0
aF0.0
aI0
aI6
aI6
aI1
aI0
aI2
aI1
aI4
aI12
aI1
aa(lp224
V0020800790
p225
aVFEB 17, 2009
p226
aVWAS vs. MIN
p227
aVW
p228
aI27
aI5
aI10
aF0.5
aI0
aI2
aF0.0
aI4
aI6
aF0.667
aI3
aI4
aI7
aI2
aI2
aI0
aI3
aI4
aI14
aI21
aa(lp229
V0020800815
p230
aVFEB 20, 2009
p231
aVWAS @ NJN
p232
aVW
p233
aI20
aI4
aI12
aF0.333
aI0
aI0
aF0.0
aI1
aI2
aF0.5
aI5
aI4
aI9
aI3
aI1
aI0
aI1
aI5
aI9
aI8
aa(lp234
V0020800823
p235
aVFEB 21, 2009
p236
aVWAS vs. SAS
p237
aVL
p238
aI22
aI1
aI5
aF0.2
aI0
aI1
aF0.0
aI0
aI4
aF0.0
aI2
aI4
aI6
aI0
aI1
aI2
aI1
aI4
aI2
aI-26
aa(lp239
V0020800851
p240
aVFEB 25, 2009
p241
aVWAS vs. PHI
p242
aVL
p243
aI16
aI2
aI4
aF0.5
aI0
aI0
aF0.0
aI2
aI2
aF1.0
aI0
aI2
aI2
aI1
aI0
aI3
aI4
aI1
aI6
aI-15
aa(lp244
V0020800865
p245
aVFEB 27, 2009
p246
aVWAS vs. CHI
p247
aVW
p248
aI23
aI4
aI9
aF0.444
aI0
aI0
aF0.0
aI4
aI6
aF0.667
aI1
aI2
aI3
aI2
aI0
aI2
aI1
aI3
aI12
aI10
aa(lp249
V0020800880
p250
aVFEB 28, 2009
p251
aVWAS @ MIL
p252
aVL
p253
aI22
aI2
aI6
aF0.333
aI0
aI0
aF0.0
aI4
aI4
aF1.0
aI0
aI1
aI1
aI0
aI0
aI2
aI0
aI2
aI8
aI-8
aa(lp254
V0020800893
p255
aVMAR 02, 2009
p256
aVWAS vs. ATL
p257
aVL
p258
aI28
aI6
aI10
aF0.6
aI0
aI0
aF0.0
aI0
aI0
aF0.0
aI1
aI3
aI4
aI3
aI1
aI1
aI1
aI3
aI12
aI-12
aa(lp259
V0020800909
p260
aVMAR 04, 2009
p261
aVWAS @ OKC
p262
aVL
p263
aI35
aI6
aI12
aF0.5
aI1
aI1
aF1.0
aI1
aI2
aF0.5
aI1
aI4
aI5
aI0
aI1
aI0
aI1
aI2
aI14
aI-6
aa(lp264
V0020800924
p265
aVMAR 06, 2009
p266
aVWAS @ SAS
p267
aVL
p268
aI32
aI3
aI8
aF0.375
aI0
aI0
aF0.0
aI0
aI0
aF0.0
aI0
aI5
aI5
aI3
aI1
aI1
aI5
aI3
aI6
aI-16
aa(lp269
V0020800932
p270
aVMAR 07, 2009
p271
aVWAS @ DAL
p272
aVL
p273
aI23
aI5
aI8
aF0.625
aI1
aI1
aF1.0
aI1
aI3
aF0.333
aI0
aI1
aI1
aI1
aI2
aI1
aI2
aI2
aI12
aI-11
aa(lp274
V0020800946
p275
aVMAR 09, 2009
p276
aVWAS @ MIN
p277
aVW
p278
aI24
aI3
aI6
aF0.5
aI0
aI1
aF0.0
aI0
aI0
aF0.0
aI2
aI3
aI5
aI1
aI0
aI3
aI1
aI2
aI6
aI7
aa(lp279
V0020800958
p280
aVMAR 11, 2009
p281
aVWAS vs. NOH
p282
aVL
p283
aI31
aI1
aI6
aF0.167
aI0
aI0
aF0.0
aI0
aI0
aF0.0
aI3
aI6
aI9
aI3
aI1
aI1
aI2
aI3
aI2
aI-11
aa(lp284
V0020800971
p285
aVMAR 13, 2009
p286
aVWAS vs. ORL
p287
aVL
p288
aI15
aI4
aI5
aF0.8
aI0
aI0
aF0.0
aI1
aI1
aF1.0
aI0
aI2
aI2
aI1
aI0
aI1
aI0
aI3
aI9
aI5
aa(lp289
V0020800993
p290
aVMAR 15, 2009
p291
aVWAS vs. SAC
p292
aVW
p293
aI34
aI8
aI12
aF0.667
aI0
aI0
aF0.0
aI0
aI0
aF0.0
aI1
aI5
aI6
aI1
aI1
aI3
aI2
aI5
aI16
aI11
aa(lp294
V0020801006
p295
aVMAR 17, 2009
p296
aVWAS @ UTA
p297
aVL
p298
aI19
aI4
aI11
aF0.364
aI0
aI0
aF0.0
aI1
aI2
aF0.5
aI4
aI9
aI13
aI0
aI1
aI0
aI2
aI4
aI9
aI-18
aa(lp299
V0020801019
p300
aVMAR 18, 2009
p301
aVWAS @ LAC
p302
aVL
p303
aI27
aI5
aI9
aF0.556
aI0
aI0
aF0.0
aI4
aI5
aF0.8
aI1
aI3
aI4
aI2
aI0
aI2
aI2
aI4
aI14
aI-19
aa(lp304
V0020801032
p305
aVMAR 20, 2009
p306
aVWAS @ DEN
p307
aVL
p308
aI24
aI4
aI8
aF0.5
aI0
aI0
aF0.0
aI2
aI4
aF0.5
aI1
aI1
aI2
aI2
aI2
aI2
aI4
aI6
aI10
aI-5
aa(lp309
V0020801040
p310
aVMAR 21, 2009
p311
aVWAS @ PHX
p312
aVL
p313
aI32
aI6
aI15
aF0.4
aI0
aI0
aF0.0
aI2
aI2
aF1.0
aI3
aI6
aI9
aI2
aI1
aI0
aI1
aI2
aI14
aI-36
aa(lp314
V0020801049
p315
aVMAR 23, 2009
p316
aVWAS vs. CHI
p317
aVL
p318
aI31
aI7
aI15
aF0.467
aI0
aI0
aF0.0
aI1
aI4
aF0.25
aI6
aI7
aI13
aI1
aI0
aI1
aI2
aI3
aI15
aI-7
aa(lp319
V0020801064
p320
aVMAR 25, 2009
p321
aVWAS vs. CHA
p322
aVW
p323
aI39
aI6
aI15
aF0.4
aI0
aI0
aF0.0
aI3
aI3
aF1.0
aI4
aI3
aI7
aI2
aI1
aI2
aI3
aI4
aI15
aI7
aa(lp324
V0020801085
p325
aVMAR 28, 2009
p326
aVWAS vs. DET
p327
aVL
p328
aI34
aI6
aI13
aF0.462
aI0
aI0
aF0.0
aI3
aI4
aF0.75
aI0
aI4
aI4
aI0
aI0
aI1
aI1
aI0
aI15
aI-7
aa(lp329
V0020801097
p330
aVMAR 29, 2009
p331
aVWAS @ IND
p332
aVL
p333
aI24
aI3
aI10
aF0.3
aI0
aI0
aF0.0
aI6
aI7
aF0.857
aI0
aI3
aI3
aI1
aI0
aI1
aI0
aI1
aI12
aI-21
aa(lp334
V0020801116
p335
aVAPR 01, 2009
p336
aVWAS @ MEM
p337
aVL
p338
aI27
aI5
aI12
aF0.417
aI0
aI0
aF0.0
aI1
aI2
aF0.5
aI4
aI5
aI9
aI2
aI2
aI1
aI2
aI4
aI11
aI0
aa(lp339
V0020801123
p340
aVAPR 02, 2009
p341
aVWAS vs. CLE
p342
aVW
p343
aI13
aI1
aI2
aF0.5
aI0
aI0
aF0.0
aI2
aI2
aF1.0
aI0
aI2
aI2
aI3
aI0
aI0
aI2
aI4
aI4
aI-4
aa(lp344
V0020801139
p345
aVAPR 04, 2009
p346
aVWAS vs. MIA
p347
aVL
p348
aI14
aI1
aI5
aF0.2
aI0
aI0
aF0.0
aI0
aI0
aF0.0
aI1
aI2
aI3
aI1
aI1
aI0
aI0
aI2
aI2
aI4
aa(lp349
V0020801162
p350
aVAPR 08, 2009
p351
aVWAS @ CLE
p352
aVL
p353
aI27
aI6
aI9
aF0.667
aI0
aI0
aF0.0
aI2
aI4
aF0.5
aI2
aI4
aI6
aI1
aI1
aI1
aI1
aI0
aI14
aI11
aa(lp354
V0020801183
p355
aVAPR 10, 2009
p356
aVWAS @ TOR
p357
aVW
p358
aI11
aI2
aI4
aF0.5
aI0
aI0
aF0.0
aI1
aI2
aF0.5
aI0
aI2
aI2
aI1
aI0
aI1
aI2
aI1
aI5
aI2
aasS'name'
p359
VAndray Blatche
p360
sS'experience'
p361
I3
s.