(dp0
S'stats'
p1
(lp2
(lp3
V0020800006
p4
aVOCT 29, 2008
p5
aVWAS vs. NJN
p6
aVL
p7
aI28
aI1
aI2
aF0.5
aI0
aI0
aF0.0
aI6
aI8
aF0.75
aI0
aI3
aI3
aI4
aI0
aI0
aI1
aI1
aI8
aI-8
aa(lp8
V0020800030
p9
aVNOV 01, 2008
p10
aVWAS @ DET
p11
aVL
p12
aI28
aI3
aI4
aF0.75
aI0
aI0
aF0.0
aI1
aI1
aF1.0
aI0
aI0
aI0
aI5
aI0
aI0
aI1
aI2
aI7
aI-17
aa(lp13
V0020800056
p14
aVNOV 05, 2008
p15
aVWAS @ MIL
p16
aVL
p17
aI21
aI1
aI5
aF0.2
aI0
aI1
aF0.0
aI1
aI3
aF0.333
aI0
aI1
aI1
aI4
aI3
aI0
aI2
aI0
aI3
aI-15
aa(lp18
V0020800067
p19
aVNOV 07, 2008
p20
aVWAS vs. NYK
p21
aVL
p22
aI20
aI2
aI5
aF0.4
aI0
aI1
aF0.0
aI0
aI0
aF0.0
aI0
aI3
aI3
aI5
aI0
aI0
aI2
aI0
aI4
aI-2
aa(lp23
V0020800114
p24
aVNOV 12, 2008
p25
aVWAS vs. UTA
p26
aVW
p27
aI13
aI0
aI1
aF0.0
aI0
aI1
aF0.0
aI1
aI2
aF0.5
aI0
aI0
aI0
aI2
aI1
aI0
aI2
aI2
aI1
aI-8
aa(lp28
V0020800174
p29
aVNOV 21, 2008
p30
aVWAS vs. HOU
p31
aVL
p32
aI19
aI0
aI1
aF0.0
aI0
aI0
aF0.0
aI0
aI0
aF0.0
aI0
aI1
aI1
aI3
aI0
aI0
aI1
aI2
aI0
aI-3
aa(lp33
V0020800223
p34
aVNOV 27, 2008
p35
aVWAS vs. ORL
p36
aVL
p37
aI20
aI1
aI4
aF0.25
aI0
aI0
aF0.0
aI3
aI3
aF1.0
aI0
aI4
aI4
aI2
aI0
aI0
aI1
aI2
aI5
aI0
aa(lp38
V0020800238
p39
aVNOV 29, 2008
p40
aVWAS vs. ATL
p41
aVL
p42
aI38
aI3
aI7
aF0.429
aI2
aI3
aF0.667
aI2
aI2
aF1.0
aI0
aI3
aI3
aI3
aI2
aI0
aI1
aI0
aI10
aI14
aa(lp43
V0020800256
p44
aVDEC 02, 2008
p45
aVWAS @ NJN
p46
aVW
p47
aI20
aI2
aI2
aF1.0
aI1
aI1
aF1.0
aI1
aI2
aF0.5
aI0
aI2
aI2
aI5
aI0
aI0
aI1
aI1
aI6
aI0
aa(lp48
V0020800268
p49
aVDEC 03, 2008
p50
aVWAS vs. POR
p51
aVL
p52
aI20
aI0
aI2
aF0.0
aI0
aI1
aF0.0
aI4
aI4
aF1.0
aI0
aI0
aI0
aI3
aI0
aI0
aI1
aI0
aI4
aI-14
aa(lp53
V0020800277
p54
aVDEC 05, 2008
p55
aVWAS vs. LAL
p56
aVL
p57
aI30
aI3
aI7
aF0.429
aI1
aI2
aF0.5
aI3
aI4
aF0.75
aI0
aI3
aI3
aI4
aI1
aI0
aI0
aI2
aI10
aI5
aa(lp58
V0020800292
p59
aVDEC 06, 2008
p60
aVWAS @ CHI
p61
aVL
p62
aI16
aI1
aI2
aF0.5
aI1
aI1
aF1.0
aI0
aI0
aF0.0
aI0
aI1
aI1
aI5
aI0
aI0
aI0
aI0
aI3
aI-12
aa(lp63
V0020800306
p64
aVDEC 09, 2008
p65
aVWAS vs. DET
p66
aVW
p67
aI16
aI1
aI3
aF0.333
aI0
aI0
aF0.0
aI3
aI4
aF0.75
aI0
aI1
aI1
aI2
aI0
aI0
aI0
aI2
aI5
aI-2
aa(lp68
V0020800347
p69
aVDEC 14, 2008
p70
aVNOH @ TOR
p71
aVW
p72
aI9
aI0
aI1
aF0.0
aI0
aI1
aF0.0
aI0
aI0
aF0.0
aI0
aI0
aI0
aI5
aI0
aI0
aI1
aI1
aI0
aI-5
aa(lp73
V0020800361
p74
aVDEC 16, 2008
p75
aVNOH @ MEM
p76
aVW
p77
aI9
aI2
aI2
aF1.0
aI0
aI0
aF0.0
aI2
aI3
aF0.667
aI0
aI0
aI0
aI2
aI0
aI0
aI1
aI0
aI6
aI-7
aa(lp78
V0020800374
p79
aVDEC 17, 2008
p80
aVNOH vs. SAS
p81
aVW
p82
aI15
aI2
aI5
aF0.4
aI0
aI1
aF0.0
aI0
aI1
aF0.0
aI0
aI1
aI1
aI3
aI0
aI0
aI1
aI1
aI4
aI0
aa(lp83
V0020800394
p84
aVDEC 20, 2008
p85
aVNOH vs. SAC
p86
aVW
p87
aI14
aI1
aI6
aF0.167
aI0
aI1
aF0.0
aI2
aI2
aF1.0
aI1
aI0
aI1
aI0
aI1
aI0
aI0
aI1
aI4
aI-3
aa(lp88
V0020800431
p89
aVDEC 26, 2008
p90
aVNOH vs. HOU
p91
aVW
p92
aI11
aI1
aI2
aF0.5
aI0
aI1
aF0.0
aI0
aI0
aF0.0
aI0
aI1
aI1
aI1
aI0
aI0
aI2
aI2
aI2
aI-5
aa(lp93
V0020800447
p94
aVDEC 28, 2008
p95
aVNOH @ IND
p96
aVW
p97
aI12
aI2
aI2
aF1.0
aI2
aI2
aF1.0
aI0
aI0
aF0.0
aI0
aI1
aI1
aI2
aI0
aI0
aI0
aI0
aI6
aI-7
aa(lp98
V0020800462
p99
aVDEC 30, 2008
p100
aVNOH vs. WAS
p101
aVW
p102
aI12
aI1
aI4
aF0.25
aI1
aI2
aF0.5
aI2
aI2
aF1.0
aI1
aI0
aI1
aI2
aI0
aI0
aI0
aI0
aI5
aI3
aa(lp103
V0020800486
p104
aVJAN 02, 2009
p105
aVNOH @ POR
p106
aVW
p107
aI13
aI0
aI2
aF0.0
aI0
aI0
aF0.0
aI0
aI0
aF0.0
aI0
aI3
aI3
aI4
aI0
aI1
aI1
aI1
aI0
aI6
aa(lp108
V0020800494
p109
aVJAN 03, 2009
p110
aVNOH @ DEN
p111
aVL
p112
aI13
aI2
aI2
aF1.0
aI1
aI1
aF1.0
aI0
aI0
aF0.0
aI0
aI1
aI1
aI5
aI0
aI0
aI2
aI1
aI5
aI-1
aa(lp113
V0020800513
p114
aVJAN 06, 2009
p115
aVNOH @ LAL
p116
aVW
p117
aI4
aI0
aI1
aF0.0
aI0
aI0
aF0.0
aI0
aI0
aF0.0
aI0
aI0
aI0
aI0
aI0
aI0
aI0
aI0
aI0
aI-3
aa(lp118
V0020800523
p119
aVJAN 07, 2009
p120
aVNOH @ UTA
p121
aVL
p122
aI17
aI1
aI5
aF0.2
aI0
aI2
aF0.0
aI3
aI3
aF1.0
aI0
aI1
aI1
aI2
aI1
aI0
aI5
aI2
aI5
aI-9
aa(lp123
V0020800532
p124
aVJAN 09, 2009
p125
aVNOH vs. LAC
p126
aVW
p127
aI19
aI5
aI6
aF0.833
aI0
aI0
aF0.0
aI0
aI0
aF0.0
aI0
aI0
aI0
aI5
aI1
aI0
aI1
aI0
aI10
aI11
aa(lp128
V0020800556
p129
aVJAN 12, 2009
p130
aVNOH vs. NYK
p131
aVL
p132
aI12
aI1
aI3
aF0.333
aI1
aI2
aF0.5
aI2
aI2
aF1.0
aI0
aI0
aI0
aI2
aI1
aI0
aI0
aI1
aI5
aI-8
aa(lp133
V0020800573
p134
aVJAN 14, 2009
p135
aVNOH @ DAL
p136
aVW
p137
aI6
aI2
aI2
aF1.0
aI0
aI0
aF0.0
aI2
aI2
aF1.0
aI0
aI0
aI0
aI1
aI1
aI0
aI0
aI0
aI6
aI-1
aa(lp138
V0020800583
p139
aVJAN 16, 2009
p140
aVNOH @ CLE
p141
aVL
p142
aI8
aI0
aI0
aF0.0
aI0
aI0
aF0.0
aI0
aI0
aF0.0
aI0
aI0
aI0
aI0
aI2
aI0
aI0
aI0
aI0
aI5
aa(lp143
V0020800592
p144
aVJAN 17, 2009
p145
aVNOH @ DET
p146
aVW
p147
aI10
aI0
aI1
aF0.0
aI0
aI0
aF0.0
aI0
aI0
aF0.0
aI0
aI1
aI1
aI6
aI0
aI0
aI0
aI0
aI0
aI3
aa(lp148
V0020800607
p149
aVJAN 19, 2009
p150
aVNOH vs. IND
p151
aVW
p152
aI17
aI2
aI5
aF0.4
aI1
aI2
aF0.5
aI2
aI2
aF1.0
aI0
aI2
aI2
aI3
aI0
aI0
aI1
aI0
aI7
aI3
aa(lp153
V0020800622
p154
aVJAN 21, 2009
p155
aVNOH vs. NJN
p156
aVW
p157
aI13
aI2
aI4
aF0.5
aI0
aI1
aF0.0
aI0
aI0
aF0.0
aI0
aI1
aI1
aI4
aI0
aI0
aI0
aI0
aI4
aI1
aa(lp158
V0020800635
p159
aVJAN 23, 2009
p160
aVNOH @ MIN
p161
aVL
p162
aI13
aI0
aI3
aF0.0
aI0
aI0
aF0.0
aI2
aI2
aF1.0
aI0
aI2
aI2
aI2
aI0
aI0
aI1
aI1
aI2
aI3
aa(lp163
V0020800659
p164
aVJAN 26, 2009
p165
aVNOH vs. PHI
p166
aVW
p167
aI13
aI3
aI7
aF0.429
aI1
aI2
aF0.5
aI1
aI2
aF0.5
aI0
aI0
aI0
aI0
aI1
aI0
aI0
aI1
aI8
aI7
aa(lp168
V0020800673
p169
aVJAN 28, 2009
p170
aVNOH vs. DEN
p171
aVW
p172
aI11
aI2
aI6
aF0.333
aI1
aI2
aF0.5
aI0
aI0
aF0.0
aI0
aI0
aI0
aI3
aI0
aI0
aI2
aI0
aI5
aI7
aa(lp173
V0020800690
p174
aVJAN 30, 2009
p175
aVNOH vs. GSW
p176
aVL
p177
aI12
aI1
aI5
aF0.2
aI1
aI2
aF0.5
aI0
aI0
aF0.0
aI1
aI0
aI1
aI1
aI0
aI0
aI0
aI0
aI3
aI-1
aa(lp178
V0020800699
p179
aVJAN 31, 2009
p180
aVNOH @ SAS
p181
aVL
p182
aI18
aI1
aI3
aF0.333
aI0
aI1
aF0.0
aI2
aI2
aF1.0
aI0
aI2
aI2
aI1
aI1
aI0
aI0
aI0
aI4
aI-4
aa(lp183
V0020800710
p184
aVFEB 02, 2009
p185
aVNOH vs. POR
p186
aVL
p187
aI20
aI3
aI7
aF0.429
aI0
aI2
aF0.0
aI3
aI4
aF0.75
aI0
aI1
aI1
aI2
aI1
aI0
aI3
aI5
aI9
aI-27
aa(lp188
V0020800727
p189
aVFEB 04, 2009
p190
aVNOH vs. CHI
p191
aVL
p192
aI25
aI2
aI4
aF0.5
aI0
aI0
aF0.0
aI2
aI4
aF0.5
aI0
aI2
aI2
aI3
aI0
aI0
aI1
aI0
aI6
aI-21
aa(lp193
V0020800738
p194
aVFEB 06, 2009
p195
aVNOH vs. TOR
p196
aVW
p197
aI28
aI3
aI9
aF0.333
aI0
aI1
aF0.0
aI2
aI2
aF1.0
aI0
aI0
aI0
aI6
aI1
aI0
aI2
aI1
aI8
aI-5
aa(lp198
V0020800756
p199
aVFEB 08, 2009
p200
aVNOH vs. MIN
p201
aVW
p202
aI29
aI5
aI9
aF0.556
aI0
aI1
aF0.0
aI2
aI2
aF1.0
aI0
aI1
aI1
aI7
aI1
aI0
aI0
aI0
aI12
aI-3
aa(lp203
V0020800762
p204
aVFEB 09, 2009
p205
aVNOH @ MEM
p206
aVL
p207
aI34
aI2
aI10
aF0.2
aI1
aI3
aF0.333
aI6
aI6
aF1.0
aI0
aI1
aI1
aI4
aI0
aI0
aI0
aI2
aI11
aI-3
aa(lp208
V0020800780
p209
aVFEB 11, 2009
p210
aVNOH vs. BOS
p211
aVL
p212
aI17
aI1
aI2
aF0.5
aI0
aI0
aF0.0
aI1
aI2
aF0.5
aI0
aI2
aI2
aI5
aI1
aI0
aI2
aI2
aI3
aI-4
aa(lp213
V0020800793
p214
aVFEB 17, 2009
p215
aVNOH @ OKC
p216
aVW
p217
aI14
aI1
aI1
aF1.0
aI0
aI0
aF0.0
aI0
aI0
aF0.0
aI0
aI0
aI0
aI1
aI0
aI0
aI0
aI1
aI2
aI-1
aa(lp218
V0020800802
p219
aVFEB 18, 2009
p220
aVNOH vs. ORL
p221
aVW
p222
aI18
aI3
aI4
aF0.75
aI0
aI0
aF0.0
aI0
aI0
aF0.0
aI0
aI2
aI2
aI5
aI1
aI0
aI0
aI0
aI6
aI8
aa(lp223
V0020800821
p224
aVFEB 20, 2009
p225
aVNOH @ LAL
p226
aVL
p227
aI8
aI1
aI1
aF1.0
aI0
aI0
aF0.0
aI0
aI0
aF0.0
aI0
aI2
aI2
aI2
aI0
aI0
aI0
aI1
aI2
aI11
aa(lp228
V0020800825
p229
aVFEB 21, 2009
p230
aVNOH @ UTA
p231
aVL
p232
aI9
aI0
aI2
aF0.0
aI0
aI1
aF0.0
aI2
aI2
aF1.0
aI0
aI0
aI0
aI1
aI0
aI0
aI1
aI2
aI2
aI-5
aa(lp233
V0020800840
p234
aVFEB 23, 2009
p235
aVNOH @ SAC
p236
aVW
p237
aI9
aI0
aI0
aF0.0
aI0
aI0
aF0.0
aI0
aI0
aF0.0
aI0
aI0
aI0
aI4
aI2
aI0
aI2
aI1
aI0
aI-5
aa(lp238
V0020800855
p239
aVFEB 25, 2009
p240
aVNOH vs. DET
p241
aVW
p242
aI6
aI1
aI2
aF0.5
aI0
aI0
aF0.0
aI0
aI0
aF0.0
aI1
aI0
aI1
aI0
aI0
aI0
aI2
aI1
aI2
aI-7
aa(lp243
V0020800863
p244
aVFEB 27, 2009
p245
aVNOH vs. MIL
p246
aVW
p247
aI12
aI2
aI5
aF0.4
aI0
aI2
aF0.0
aI0
aI0
aF0.0
aI0
aI3
aI3
aI1
aI1
aI0
aI1
aI0
aI4
aI1
aa(lp248
V0020800886
p249
aVMAR 01, 2009
p250
aVNOH @ NJN
p251
aVW
p252
aI6
aI0
aI1
aF0.0
aI0
aI0
aF0.0
aI0
aI0
aF0.0
aI0
aI1
aI1
aI2
aI0
aI0
aI0
aI0
aI0
aI1
aa(lp253
V0020800892
p254
aVMAR 02, 2009
p255
aVNOH @ PHI
p256
aVW
p257
aI4
aI1
aI2
aF0.5
aI0
aI0
aF0.0
aI0
aI0
aF0.0
aI0
aI0
aI0
aI0
aI0
aI0
aI0
aI0
aI2
aI-8
aa(lp258
V0020800915
p259
aVMAR 05, 2009
p260
aVNOH vs. DAL
p261
aVW
p262
aI12
aI2
aI3
aF0.667
aI1
aI2
aF0.5
aI0
aI0
aF0.0
aI0
aI0
aI0
aI4
aI0
aI0
aI0
aI0
aI5
aI-6
aa(lp263
V0020800931
p264
aVMAR 07, 2009
p265
aVNOH vs. OKC
p266
aVW
p267
aI12
aI0
aI3
aF0.0
aI0
aI1
aF0.0
aI4
aI6
aF0.667
aI0
aI1
aI1
aI2
aI0
aI0
aI1
aI2
aI4
aI-10
aa(lp268
V0020800943
p269
aVMAR 09, 2009
p270
aVNOH @ ATL
p271
aVL
p272
aI6
aI0
aI1
aF0.0
aI0
aI0
aF0.0
aI0
aI0
aF0.0
aI0
aI0
aI0
aI2
aI0
aI0
aI0
aI0
aI0
aI-8
aa(lp273
V0020800958
p274
aVMAR 11, 2009
p275
aVNOH @ WAS
p276
aVW
p277
aI8
aI0
aI1
aF0.0
aI0
aI0
aF0.0
aI0
aI0
aF0.0
aI0
aI0
aI0
aI2
aI0
aI0
aI1
aI2
aI0
aI-13
aa(lp278
V0020800975
p279
aVMAR 13, 2009
p280
aVNOH @ MIL
p281
aVW
p282
aI7
aI0
aI1
aF0.0
aI0
aI0
aF0.0
aI0
aI0
aF0.0
aI0
aI1
aI1
aI0
aI0
aI0
aI1
aI0
aI0
aI-4
aa(lp283
V0020800981
p284
aVMAR 14, 2009
p285
aVNOH @ CHI
p286
aVL
p287
aI12
aI2
aI4
aF0.5
aI0
aI0
aF0.0
aI0
aI0
aF0.0
aI0
aI2
aI2
aI1
aI0
aI0
aI0
aI1
aI4
aI0
aa(lp288
V0020800998
p289
aVMAR 16, 2009
p290
aVNOH vs. HOU
p291
aVL
p292
aI4
aI0
aI1
aF0.0
aI0
aI1
aF0.0
aI2
aI2
aF1.0
aI0
aI0
aI0
aI2
aI0
aI0
aI0
aI1
aI2
aI-6
aa(lp293
V0020801015
p294
aVMAR 18, 2009
p295
aVNOH vs. MIN
p296
aVW
p297
aI7
aI1
aI3
aF0.333
aI1
aI1
aF1.0
aI0
aI0
aF0.0
aI0
aI1
aI1
aI1
aI0
aI0
aI0
aI1
aI3
aI5
aa(lp298
V0020801028
p299
aVMAR 20, 2009
p300
aVNOH vs. MEM
p301
aVW
p302
aI7
aI0
aI2
aF0.0
aI0
aI0
aF0.0
aI0
aI0
aF0.0
aI0
aI1
aI1
aI1
aI0
aI0
aI1
aI0
aI0
aI-9
aa(lp303
V0020801046
p304
aVMAR 22, 2009
p305
aVNOH vs. GSW
p306
aVW
p307
aI9
aI2
aI2
aF1.0
aI0
aI0
aF0.0
aI1
aI2
aF0.5
aI0
aI2
aI2
aI1
aI0
aI0
aI2
aI1
aI5
aI13
aa(lp308
V0020801066
p309
aVMAR 25, 2009
p310
aVNOH vs. DEN
p311
aVL
p312
aI8
aI1
aI2
aF0.5
aI1
aI1
aF1.0
aI2
aI2
aF1.0
aI0
aI2
aI2
aI1
aI0
aI0
aI3
aI0
aI5
aI6
aa(lp313
V0020801079
p314
aVMAR 27, 2009
p315
aVNOH @ NYK
p316
aVL
p317
aI8
aI1
aI2
aF0.5
aI0
aI0
aF0.0
aI0
aI0
aF0.0
aI0
aI2
aI2
aI1
aI1
aI0
aI0
aI0
aI2
aI7
aa(lp318
V0020801098
p319
aVMAR 29, 2009
p320
aVNOH vs. SAS
p321
aVW
p322
aI21
aI3
aI4
aF0.75
aI2
aI3
aF0.667
aI2
aI2
aF1.0
aI0
aI3
aI3
aI1
aI0
aI0
aI1
aI0
aI10
aI5
aa(lp323
V0020801112
p324
aVMAR 31, 2009
p325
aVNOH @ SAC
p326
aVW
p327
aI7
aI2
aI3
aF0.667
aI1
aI1
aF1.0
aI0
aI0
aF0.0
aI0
aI1
aI1
aI0
aI0
aI0
aI0
aI0
aI5
aI3
aa(lp328
V0020801121
p329
aVAPR 01, 2009
p330
aVNOH @ LAC
p331
aVW
p332
aI11
aI1
aI3
aF0.333
aI0
aI0
aF0.0
aI0
aI0
aF0.0
aI0
aI0
aI0
aI3
aI1
aI0
aI0
aI0
aI2
aI-8
aa(lp333
V0020801133
p334
aVAPR 03, 2009
p335
aVNOH @ GSW
p336
aVL
p337
aI7
aI1
aI1
aF1.0
aI0
aI0
aF0.0
aI0
aI0
aF0.0
aI0
aI0
aI0
aI3
aI0
aI0
aI2
aI1
aI2
aI-2
aa(lp338
V0020801148
p339
aVAPR 05, 2009
p340
aVNOH vs. UTA
p341
aVL
p342
aI20
aI3
aI5
aF0.6
aI0
aI2
aF0.0
aI3
aI4
aF0.75
aI0
aI0
aI0
aI1
aI0
aI0
aI1
aI0
aI9
aI-6
aa(lp343
V0020801155
p344
aVAPR 07, 2009
p345
aVNOH @ MIA
p346
aVW
p347
aI7
aI1
aI3
aF0.333
aI0
aI1
aF0.0
aI0
aI0
aF0.0
aI1
aI0
aI1
aI0
aI0
aI0
aI2
aI1
aI2
aI-6
aa(lp348
V0020801168
p349
aVAPR 08, 2009
p350
aVNOH vs. PHX
p351
aVL
p352
aI7
aI0
aI1
aF0.0
aI0
aI0
aF0.0
aI0
aI0
aF0.0
aI0
aI1
aI1
aI1
aI0
aI0
aI1
aI0
aI0
aI-11
aa(lp353
V0020801184
p354
aVAPR 10, 2009
p355
aVNOH @ DAL
p356
aVL
p357
aI6
aI1
aI3
aF0.333
aI0
aI1
aF0.0
aI2
aI2
aF1.0
aI0
aI0
aI0
aI0
aI0
aI0
aI0
aI2
aI4
aI-8
aa(lp358
V0020801196
p359
aVAPR 12, 2009
p360
aVNOH vs. DAL
p361
aVW
p362
aI6
aI1
aI2
aF0.5
aI0
aI1
aF0.0
aI0
aI0
aF0.0
aI0
aI0
aI0
aI0
aI0
aI0
aI1
aI1
aI2
aI-11
aa(lp363
V0020801208
p364
aVAPR 13, 2009
p365
aVNOH @ HOU
p366
aVL
p367
aI18
aI3
aI4
aF0.75
aI1
aI1
aF1.0
aI1
aI2
aF0.5
aI0
aI1
aI1
aI3
aI0
aI0
aI0
aI0
aI8
aI-7
aa(lp368
V0020801227
p369
aVAPR 15, 2009
p370
aVNOH @ SAS
p371
aVL
p372
aI6
aI0
aI1
aF0.0
aI0
aI0
aF0.0
aI0
aI0
aF0.0
aI0
aI1
aI1
aI3
aI0
aI0
aI0
aI0
aI0
aI-4
aasS'name'
p373
VAntonio Daniels
p374
sS'weight'
p375
V205
p376
sS'age'
p377
I33
sS'experience'
p378
I11
sS'height'
p379
V6-4
p380
sS'position'
p381
VGuard
p382
s.