(dp0
S'age'
p1
I33
sS'stats'
p2
(lp3
(lp4
V0020801227
p5
aVAPR 15, 2009
p6
aVNOH @ SAS
p7
aVL
p8
aI6
aI0
aI1
aF0.0
aI0
aI0
aF0.0
aI0
aI0
aF0.0
aI0
aI1
aI1
aI3
aI0
aI0
aI0
aI0
aI0
aI-4
aa(lp9
V0020801208
p10
aVAPR 13, 2009
p11
aVNOH @ HOU
p12
aVL
p13
aI18
aI3
aI4
aF0.75
aI1
aI1
aF1.0
aI1
aI2
aF0.5
aI0
aI1
aI1
aI3
aI0
aI0
aI0
aI0
aI8
aI-7
aa(lp14
V0020801196
p15
aVAPR 12, 2009
p16
aVNOH vs. DAL
p17
aVW
p18
aI6
aI1
aI2
aF0.5
aI0
aI1
aF0.0
aI0
aI0
aF0.0
aI0
aI0
aI0
aI0
aI0
aI0
aI1
aI1
aI2
aI-11
aa(lp19
V0020801184
p20
aVAPR 10, 2009
p21
aVNOH @ DAL
p22
aVL
p23
aI6
aI1
aI3
aF0.333
aI0
aI1
aF0.0
aI2
aI2
aF1.0
aI0
aI0
aI0
aI0
aI0
aI0
aI0
aI2
aI4
aI-8
aa(lp24
V0020801168
p25
aVAPR 08, 2009
p26
aVNOH vs. PHX
p27
aVL
p28
aI7
aI0
aI1
aF0.0
aI0
aI0
aF0.0
aI0
aI0
aF0.0
aI0
aI1
aI1
aI1
aI0
aI0
aI1
aI0
aI0
aI-11
aa(lp29
V0020801155
p30
aVAPR 07, 2009
p31
aVNOH @ MIA
p32
aVW
p33
aI7
aI1
aI3
aF0.333
aI0
aI1
aF0.0
aI0
aI0
aF0.0
aI1
aI0
aI1
aI0
aI0
aI0
aI2
aI1
aI2
aI-6
aa(lp34
V0020801148
p35
aVAPR 05, 2009
p36
aVNOH vs. UTA
p37
aVL
p38
aI20
aI3
aI5
aF0.6
aI0
aI2
aF0.0
aI3
aI4
aF0.75
aI0
aI0
aI0
aI1
aI0
aI0
aI1
aI0
aI9
aI-6
aa(lp39
V0020801133
p40
aVAPR 03, 2009
p41
aVNOH @ GSW
p42
aVL
p43
aI7
aI1
aI1
aF1.0
aI0
aI0
aF0.0
aI0
aI0
aF0.0
aI0
aI0
aI0
aI3
aI0
aI0
aI2
aI1
aI2
aI-2
aa(lp44
V0020801121
p45
aVAPR 01, 2009
p46
aVNOH @ LAC
p47
aVW
p48
aI11
aI1
aI3
aF0.333
aI0
aI0
aF0.0
aI0
aI0
aF0.0
aI0
aI0
aI0
aI3
aI1
aI0
aI0
aI0
aI2
aI-8
aa(lp49
V0020801112
p50
aVMAR 31, 2009
p51
aVNOH @ SAC
p52
aVW
p53
aI7
aI2
aI3
aF0.667
aI1
aI1
aF1.0
aI0
aI0
aF0.0
aI0
aI1
aI1
aI0
aI0
aI0
aI0
aI0
aI5
aI3
aa(lp54
V0020801098
p55
aVMAR 29, 2009
p56
aVNOH vs. SAS
p57
aVW
p58
aI21
aI3
aI4
aF0.75
aI2
aI3
aF0.667
aI2
aI2
aF1.0
aI0
aI3
aI3
aI1
aI0
aI0
aI1
aI0
aI10
aI5
aa(lp59
V0020801079
p60
aVMAR 27, 2009
p61
aVNOH @ NYK
p62
aVL
p63
aI8
aI1
aI2
aF0.5
aI0
aI0
aF0.0
aI0
aI0
aF0.0
aI0
aI2
aI2
aI1
aI1
aI0
aI0
aI0
aI2
aI7
aa(lp64
V0020801066
p65
aVMAR 25, 2009
p66
aVNOH vs. DEN
p67
aVL
p68
aI8
aI1
aI2
aF0.5
aI1
aI1
aF1.0
aI2
aI2
aF1.0
aI0
aI2
aI2
aI1
aI0
aI0
aI3
aI0
aI5
aI6
aa(lp69
V0020801046
p70
aVMAR 22, 2009
p71
aVNOH vs. GSW
p72
aVW
p73
aI9
aI2
aI2
aF1.0
aI0
aI0
aF0.0
aI1
aI2
aF0.5
aI0
aI2
aI2
aI1
aI0
aI0
aI2
aI1
aI5
aI13
aa(lp74
V0020801028
p75
aVMAR 20, 2009
p76
aVNOH vs. MEM
p77
aVW
p78
aI7
aI0
aI2
aF0.0
aI0
aI0
aF0.0
aI0
aI0
aF0.0
aI0
aI1
aI1
aI1
aI0
aI0
aI1
aI0
aI0
aI-9
aa(lp79
V0020801015
p80
aVMAR 18, 2009
p81
aVNOH vs. MIN
p82
aVW
p83
aI7
aI1
aI3
aF0.333
aI1
aI1
aF1.0
aI0
aI0
aF0.0
aI0
aI1
aI1
aI1
aI0
aI0
aI0
aI1
aI3
aI5
aa(lp84
V0020800998
p85
aVMAR 16, 2009
p86
aVNOH vs. HOU
p87
aVL
p88
aI4
aI0
aI1
aF0.0
aI0
aI1
aF0.0
aI2
aI2
aF1.0
aI0
aI0
aI0
aI2
aI0
aI0
aI0
aI1
aI2
aI-6
aa(lp89
V0020800981
p90
aVMAR 14, 2009
p91
aVNOH @ CHI
p92
aVL
p93
aI12
aI2
aI4
aF0.5
aI0
aI0
aF0.0
aI0
aI0
aF0.0
aI0
aI2
aI2
aI1
aI0
aI0
aI0
aI1
aI4
aI0
aa(lp94
V0020800975
p95
aVMAR 13, 2009
p96
aVNOH @ MIL
p97
aVW
p98
aI7
aI0
aI1
aF0.0
aI0
aI0
aF0.0
aI0
aI0
aF0.0
aI0
aI1
aI1
aI0
aI0
aI0
aI1
aI0
aI0
aI-4
aa(lp99
V0020800958
p100
aVMAR 11, 2009
p101
aVNOH @ WAS
p102
aVW
p103
aI8
aI0
aI1
aF0.0
aI0
aI0
aF0.0
aI0
aI0
aF0.0
aI0
aI0
aI0
aI2
aI0
aI0
aI1
aI2
aI0
aI-13
aa(lp104
V0020800943
p105
aVMAR 09, 2009
p106
aVNOH @ ATL
p107
aVL
p108
aI6
aI0
aI1
aF0.0
aI0
aI0
aF0.0
aI0
aI0
aF0.0
aI0
aI0
aI0
aI2
aI0
aI0
aI0
aI0
aI0
aI-8
aa(lp109
V0020800931
p110
aVMAR 07, 2009
p111
aVNOH vs. OKC
p112
aVW
p113
aI12
aI0
aI3
aF0.0
aI0
aI1
aF0.0
aI4
aI6
aF0.667
aI0
aI1
aI1
aI2
aI0
aI0
aI1
aI2
aI4
aI-10
aa(lp114
V0020800915
p115
aVMAR 05, 2009
p116
aVNOH vs. DAL
p117
aVW
p118
aI12
aI2
aI3
aF0.667
aI1
aI2
aF0.5
aI0
aI0
aF0.0
aI0
aI0
aI0
aI4
aI0
aI0
aI0
aI0
aI5
aI-6
aa(lp119
V0020800892
p120
aVMAR 02, 2009
p121
aVNOH @ PHI
p122
aVW
p123
aI4
aI1
aI2
aF0.5
aI0
aI0
aF0.0
aI0
aI0
aF0.0
aI0
aI0
aI0
aI0
aI0
aI0
aI0
aI0
aI2
aI-8
aa(lp124
V0020800886
p125
aVMAR 01, 2009
p126
aVNOH @ NJN
p127
aVW
p128
aI6
aI0
aI1
aF0.0
aI0
aI0
aF0.0
aI0
aI0
aF0.0
aI0
aI1
aI1
aI2
aI0
aI0
aI0
aI0
aI0
aI1
aa(lp129
V0020800863
p130
aVFEB 27, 2009
p131
aVNOH vs. MIL
p132
aVW
p133
aI12
aI2
aI5
aF0.4
aI0
aI2
aF0.0
aI0
aI0
aF0.0
aI0
aI3
aI3
aI1
aI1
aI0
aI1
aI0
aI4
aI1
aa(lp134
V0020800855
p135
aVFEB 25, 2009
p136
aVNOH vs. DET
p137
aVW
p138
aI6
aI1
aI2
aF0.5
aI0
aI0
aF0.0
aI0
aI0
aF0.0
aI1
aI0
aI1
aI0
aI0
aI0
aI2
aI1
aI2
aI-7
aa(lp139
V0020800840
p140
aVFEB 23, 2009
p141
aVNOH @ SAC
p142
aVW
p143
aI9
aI0
aI0
aF0.0
aI0
aI0
aF0.0
aI0
aI0
aF0.0
aI0
aI0
aI0
aI4
aI2
aI0
aI2
aI1
aI0
aI-5
aa(lp144
V0020800825
p145
aVFEB 21, 2009
p146
aVNOH @ UTA
p147
aVL
p148
aI9
aI0
aI2
aF0.0
aI0
aI1
aF0.0
aI2
aI2
aF1.0
aI0
aI0
aI0
aI1
aI0
aI0
aI1
aI2
aI2
aI-5
aa(lp149
V0020800821
p150
aVFEB 20, 2009
p151
aVNOH @ LAL
p152
aVL
p153
aI8
aI1
aI1
aF1.0
aI0
aI0
aF0.0
aI0
aI0
aF0.0
aI0
aI2
aI2
aI2
aI0
aI0
aI0
aI1
aI2
aI11
aa(lp154
V0020800802
p155
aVFEB 18, 2009
p156
aVNOH vs. ORL
p157
aVW
p158
aI18
aI3
aI4
aF0.75
aI0
aI0
aF0.0
aI0
aI0
aF0.0
aI0
aI2
aI2
aI5
aI1
aI0
aI0
aI0
aI6
aI8
aa(lp159
V0020800793
p160
aVFEB 17, 2009
p161
aVNOH @ OKC
p162
aVW
p163
aI14
aI1
aI1
aF1.0
aI0
aI0
aF0.0
aI0
aI0
aF0.0
aI0
aI0
aI0
aI1
aI0
aI0
aI0
aI1
aI2
aI-1
aa(lp164
V0020800780
p165
aVFEB 11, 2009
p166
aVNOH vs. BOS
p167
aVL
p168
aI17
aI1
aI2
aF0.5
aI0
aI0
aF0.0
aI1
aI2
aF0.5
aI0
aI2
aI2
aI5
aI1
aI0
aI2
aI2
aI3
aI-4
aa(lp169
V0020800762
p170
aVFEB 09, 2009
p171
aVNOH @ MEM
p172
aVL
p173
aI34
aI2
aI10
aF0.2
aI1
aI3
aF0.333
aI6
aI6
aF1.0
aI0
aI1
aI1
aI4
aI0
aI0
aI0
aI2
aI11
aI-3
aa(lp174
V0020800756
p175
aVFEB 08, 2009
p176
aVNOH vs. MIN
p177
aVW
p178
aI29
aI5
aI9
aF0.556
aI0
aI1
aF0.0
aI2
aI2
aF1.0
aI0
aI1
aI1
aI7
aI1
aI0
aI0
aI0
aI12
aI-3
aa(lp179
V0020800738
p180
aVFEB 06, 2009
p181
aVNOH vs. TOR
p182
aVW
p183
aI28
aI3
aI9
aF0.333
aI0
aI1
aF0.0
aI2
aI2
aF1.0
aI0
aI0
aI0
aI6
aI1
aI0
aI2
aI1
aI8
aI-5
aa(lp184
V0020800727
p185
aVFEB 04, 2009
p186
aVNOH vs. CHI
p187
aVL
p188
aI25
aI2
aI4
aF0.5
aI0
aI0
aF0.0
aI2
aI4
aF0.5
aI0
aI2
aI2
aI3
aI0
aI0
aI1
aI0
aI6
aI-21
aa(lp189
V0020800710
p190
aVFEB 02, 2009
p191
aVNOH vs. POR
p192
aVL
p193
aI20
aI3
aI7
aF0.429
aI0
aI2
aF0.0
aI3
aI4
aF0.75
aI0
aI1
aI1
aI2
aI1
aI0
aI3
aI5
aI9
aI-27
aa(lp194
V0020800699
p195
aVJAN 31, 2009
p196
aVNOH @ SAS
p197
aVL
p198
aI18
aI1
aI3
aF0.333
aI0
aI1
aF0.0
aI2
aI2
aF1.0
aI0
aI2
aI2
aI1
aI1
aI0
aI0
aI0
aI4
aI-4
aa(lp199
V0020800690
p200
aVJAN 30, 2009
p201
aVNOH vs. GSW
p202
aVL
p203
aI12
aI1
aI5
aF0.2
aI1
aI2
aF0.5
aI0
aI0
aF0.0
aI1
aI0
aI1
aI1
aI0
aI0
aI0
aI0
aI3
aI-1
aa(lp204
V0020800673
p205
aVJAN 28, 2009
p206
aVNOH vs. DEN
p207
aVW
p208
aI11
aI2
aI6
aF0.333
aI1
aI2
aF0.5
aI0
aI0
aF0.0
aI0
aI0
aI0
aI3
aI0
aI0
aI2
aI0
aI5
aI7
aa(lp209
V0020800659
p210
aVJAN 26, 2009
p211
aVNOH vs. PHI
p212
aVW
p213
aI13
aI3
aI7
aF0.429
aI1
aI2
aF0.5
aI1
aI2
aF0.5
aI0
aI0
aI0
aI0
aI1
aI0
aI0
aI1
aI8
aI7
aa(lp214
V0020800635
p215
aVJAN 23, 2009
p216
aVNOH @ MIN
p217
aVL
p218
aI13
aI0
aI3
aF0.0
aI0
aI0
aF0.0
aI2
aI2
aF1.0
aI0
aI2
aI2
aI2
aI0
aI0
aI1
aI1
aI2
aI3
aa(lp219
V0020800622
p220
aVJAN 21, 2009
p221
aVNOH vs. NJN
p222
aVW
p223
aI13
aI2
aI4
aF0.5
aI0
aI1
aF0.0
aI0
aI0
aF0.0
aI0
aI1
aI1
aI4
aI0
aI0
aI0
aI0
aI4
aI1
aa(lp224
V0020800607
p225
aVJAN 19, 2009
p226
aVNOH vs. IND
p227
aVW
p228
aI17
aI2
aI5
aF0.4
aI1
aI2
aF0.5
aI2
aI2
aF1.0
aI0
aI2
aI2
aI3
aI0
aI0
aI1
aI0
aI7
aI3
aa(lp229
V0020800592
p230
aVJAN 17, 2009
p231
aVNOH @ DET
p232
aVW
p233
aI10
aI0
aI1
aF0.0
aI0
aI0
aF0.0
aI0
aI0
aF0.0
aI0
aI1
aI1
aI6
aI0
aI0
aI0
aI0
aI0
aI3
aa(lp234
V0020800583
p235
aVJAN 16, 2009
p236
aVNOH @ CLE
p237
aVL
p238
aI8
aI0
aI0
aF0.0
aI0
aI0
aF0.0
aI0
aI0
aF0.0
aI0
aI0
aI0
aI0
aI2
aI0
aI0
aI0
aI0
aI5
aa(lp239
V0020800573
p240
aVJAN 14, 2009
p241
aVNOH @ DAL
p242
aVW
p243
aI6
aI2
aI2
aF1.0
aI0
aI0
aF0.0
aI2
aI2
aF1.0
aI0
aI0
aI0
aI1
aI1
aI0
aI0
aI0
aI6
aI-1
aa(lp244
V0020800556
p245
aVJAN 12, 2009
p246
aVNOH vs. NYK
p247
aVL
p248
aI12
aI1
aI3
aF0.333
aI1
aI2
aF0.5
aI2
aI2
aF1.0
aI0
aI0
aI0
aI2
aI1
aI0
aI0
aI1
aI5
aI-8
aa(lp249
V0020800532
p250
aVJAN 09, 2009
p251
aVNOH vs. LAC
p252
aVW
p253
aI19
aI5
aI6
aF0.833
aI0
aI0
aF0.0
aI0
aI0
aF0.0
aI0
aI0
aI0
aI5
aI1
aI0
aI1
aI0
aI10
aI11
aa(lp254
V0020800523
p255
aVJAN 07, 2009
p256
aVNOH @ UTA
p257
aVL
p258
aI17
aI1
aI5
aF0.2
aI0
aI2
aF0.0
aI3
aI3
aF1.0
aI0
aI1
aI1
aI2
aI1
aI0
aI5
aI2
aI5
aI-9
aa(lp259
V0020800513
p260
aVJAN 06, 2009
p261
aVNOH @ LAL
p262
aVW
p263
aI4
aI0
aI1
aF0.0
aI0
aI0
aF0.0
aI0
aI0
aF0.0
aI0
aI0
aI0
aI0
aI0
aI0
aI0
aI0
aI0
aI-3
aa(lp264
V0020800494
p265
aVJAN 03, 2009
p266
aVNOH @ DEN
p267
aVL
p268
aI13
aI2
aI2
aF1.0
aI1
aI1
aF1.0
aI0
aI0
aF0.0
aI0
aI1
aI1
aI5
aI0
aI0
aI2
aI1
aI5
aI-1
aa(lp269
V0020800486
p270
aVJAN 02, 2009
p271
aVNOH @ POR
p272
aVW
p273
aI13
aI0
aI2
aF0.0
aI0
aI0
aF0.0
aI0
aI0
aF0.0
aI0
aI3
aI3
aI4
aI0
aI1
aI1
aI1
aI0
aI6
aa(lp274
V0020800462
p275
aVDEC 30, 2008
p276
aVNOH vs. WAS
p277
aVW
p278
aI12
aI1
aI4
aF0.25
aI1
aI2
aF0.5
aI2
aI2
aF1.0
aI1
aI0
aI1
aI2
aI0
aI0
aI0
aI0
aI5
aI3
aa(lp279
V0020800447
p280
aVDEC 28, 2008
p281
aVNOH @ IND
p282
aVW
p283
aI12
aI2
aI2
aF1.0
aI2
aI2
aF1.0
aI0
aI0
aF0.0
aI0
aI1
aI1
aI2
aI0
aI0
aI0
aI0
aI6
aI-7
aa(lp284
V0020800431
p285
aVDEC 26, 2008
p286
aVNOH vs. HOU
p287
aVW
p288
aI11
aI1
aI2
aF0.5
aI0
aI1
aF0.0
aI0
aI0
aF0.0
aI0
aI1
aI1
aI1
aI0
aI0
aI2
aI2
aI2
aI-5
aa(lp289
V0020800394
p290
aVDEC 20, 2008
p291
aVNOH vs. SAC
p292
aVW
p293
aI14
aI1
aI6
aF0.167
aI0
aI1
aF0.0
aI2
aI2
aF1.0
aI1
aI0
aI1
aI0
aI1
aI0
aI0
aI1
aI4
aI-3
aa(lp294
V0020800374
p295
aVDEC 17, 2008
p296
aVNOH vs. SAS
p297
aVW
p298
aI15
aI2
aI5
aF0.4
aI0
aI1
aF0.0
aI0
aI1
aF0.0
aI0
aI1
aI1
aI3
aI0
aI0
aI1
aI1
aI4
aI0
aa(lp299
V0020800361
p300
aVDEC 16, 2008
p301
aVNOH @ MEM
p302
aVW
p303
aI9
aI2
aI2
aF1.0
aI0
aI0
aF0.0
aI2
aI3
aF0.667
aI0
aI0
aI0
aI2
aI0
aI0
aI1
aI0
aI6
aI-7
aa(lp304
V0020800347
p305
aVDEC 14, 2008
p306
aVNOH @ TOR
p307
aVW
p308
aI9
aI0
aI1
aF0.0
aI0
aI1
aF0.0
aI0
aI0
aF0.0
aI0
aI0
aI0
aI5
aI0
aI0
aI1
aI1
aI0
aI-5
aa(lp309
V0020800306
p310
aVDEC 09, 2008
p311
aVWAS vs. DET
p312
aVW
p313
aI16
aI1
aI3
aF0.333
aI0
aI0
aF0.0
aI3
aI4
aF0.75
aI0
aI1
aI1
aI2
aI0
aI0
aI0
aI2
aI5
aI-2
aa(lp314
V0020800292
p315
aVDEC 06, 2008
p316
aVWAS @ CHI
p317
aVL
p318
aI16
aI1
aI2
aF0.5
aI1
aI1
aF1.0
aI0
aI0
aF0.0
aI0
aI1
aI1
aI5
aI0
aI0
aI0
aI0
aI3
aI-12
aa(lp319
V0020800277
p320
aVDEC 05, 2008
p321
aVWAS vs. LAL
p322
aVL
p323
aI30
aI3
aI7
aF0.429
aI1
aI2
aF0.5
aI3
aI4
aF0.75
aI0
aI3
aI3
aI4
aI1
aI0
aI0
aI2
aI10
aI5
aa(lp324
V0020800268
p325
aVDEC 03, 2008
p326
aVWAS vs. POR
p327
aVL
p328
aI20
aI0
aI2
aF0.0
aI0
aI1
aF0.0
aI4
aI4
aF1.0
aI0
aI0
aI0
aI3
aI0
aI0
aI1
aI0
aI4
aI-14
aa(lp329
V0020800256
p330
aVDEC 02, 2008
p331
aVWAS @ NJN
p332
aVW
p333
aI20
aI2
aI2
aF1.0
aI1
aI1
aF1.0
aI1
aI2
aF0.5
aI0
aI2
aI2
aI5
aI0
aI0
aI1
aI1
aI6
aI0
aa(lp334
V0020800238
p335
aVNOV 29, 2008
p336
aVWAS vs. ATL
p337
aVL
p338
aI38
aI3
aI7
aF0.429
aI2
aI3
aF0.667
aI2
aI2
aF1.0
aI0
aI3
aI3
aI3
aI2
aI0
aI1
aI0
aI10
aI14
aa(lp339
V0020800223
p340
aVNOV 27, 2008
p341
aVWAS vs. ORL
p342
aVL
p343
aI20
aI1
aI4
aF0.25
aI0
aI0
aF0.0
aI3
aI3
aF1.0
aI0
aI4
aI4
aI2
aI0
aI0
aI1
aI2
aI5
aI0
aa(lp344
V0020800174
p345
aVNOV 21, 2008
p346
aVWAS vs. HOU
p347
aVL
p348
aI19
aI0
aI1
aF0.0
aI0
aI0
aF0.0
aI0
aI0
aF0.0
aI0
aI1
aI1
aI3
aI0
aI0
aI1
aI2
aI0
aI-3
aa(lp349
V0020800114
p350
aVNOV 12, 2008
p351
aVWAS vs. UTA
p352
aVW
p353
aI13
aI0
aI1
aF0.0
aI0
aI1
aF0.0
aI1
aI2
aF0.5
aI0
aI0
aI0
aI2
aI1
aI0
aI2
aI2
aI1
aI-8
aa(lp354
V0020800067
p355
aVNOV 07, 2008
p356
aVWAS vs. NYK
p357
aVL
p358
aI20
aI2
aI5
aF0.4
aI0
aI1
aF0.0
aI0
aI0
aF0.0
aI0
aI3
aI3
aI5
aI0
aI0
aI2
aI0
aI4
aI-2
aa(lp359
V0020800056
p360
aVNOV 05, 2008
p361
aVWAS @ MIL
p362
aVL
p363
aI21
aI1
aI5
aF0.2
aI0
aI1
aF0.0
aI1
aI3
aF0.333
aI0
aI1
aI1
aI4
aI3
aI0
aI2
aI0
aI3
aI-15
aa(lp364
V0020800030
p365
aVNOV 01, 2008
p366
aVWAS @ DET
p367
aVL
p368
aI28
aI3
aI4
aF0.75
aI0
aI0
aF0.0
aI1
aI1
aF1.0
aI0
aI0
aI0
aI5
aI0
aI0
aI1
aI2
aI7
aI-17
aa(lp369
V0020800006
p370
aVOCT 29, 2008
p371
aVWAS vs. NJN
p372
aVL
p373
aI28
aI1
aI2
aF0.5
aI0
aI0
aF0.0
aI6
aI8
aF0.75
aI0
aI3
aI3
aI4
aI0
aI0
aI1
aI1
aI8
aI-8
aasS'name'
p374
VAntonio Daniels
p375
sS'experience'
p376
I11
s.