(dp0
S'age'
p1
I33
sS'stats'
p2
(lp3
(lp4
V0020801217
p5
aVAPR 15, 2009
p6
aVBOS vs. WAS
p7
aVW
p8
aI27
aI3
aI6
aF0.5
aI0
aI0
aF0.0
aI1
aI2
aF0.5
aI3
aI2
aI5
aI3
aI0
aI0
aI3
aI5
aI7
aI8
aa(lp9
V0020801215
p10
aVAPR 14, 2009
p11
aVBOS @ PHI
p12
aVW
p13
aI13
aI2
aI3
aF0.667
aI0
aI0
aF0.0
aI0
aI0
aF0.0
aI2
aI3
aI5
aI1
aI0
aI1
aI1
aI2
aI4
aI4
aa(lp14
V0020801197
p15
aVAPR 12, 2009
p16
aVBOS @ CLE
p17
aVL
p18
aI22
aI5
aI6
aF0.833
aI0
aI0
aF0.0
aI0
aI2
aF0.0
aI1
aI2
aI3
aI0
aI0
aI1
aI1
aI5
aI10
aI-19
aa(lp19
V0020801179
p20
aVAPR 10, 2009
p21
aVBOS vs. MIA
p22
aVW
p23
aI17
aI0
aI2
aF0.0
aI0
aI0
aF0.0
aI2
aI2
aF1.0
aI0
aI0
aI0
aI1
aI0
aI0
aI0
aI5
aI2
aI5
aa(lp24
V0020801165
p25
aVAPR 08, 2009
p26
aVBOS vs. NJN
p27
aVW
p28
aI22
aI4
aI4
aF1.0
aI0
aI0
aF0.0
aI1
aI1
aF1.0
aI4
aI5
aI9
aI0
aI0
aI0
aI1
aI4
aI9
aI6
aa(lp29
V0020801127
p30
aVAPR 03, 2009
p31
aVBOS vs. ATL
p32
aVW
p33
aI26
aI4
aI5
aF0.8
aI0
aI0
aF0.0
aI1
aI1
aF1.0
aI2
aI4
aI6
aI2
aI1
aI0
aI2
aI3
aI9
aI10
aa(lp34
V0020801114
p35
aVAPR 01, 2009
p36
aVBOS vs. CHA
p37
aVW
p38
aI13
aI2
aI2
aF1.0
aI0
aI0
aF0.0
aI0
aI0
aF0.0
aI0
aI2
aI2
aI1
aI0
aI0
aI3
aI5
aI4
aI5
aa(lp39
V0020801096
p40
aVMAR 29, 2009
p41
aVBOS vs. OKC
p42
aVW
p43
aI27
aI6
aI8
aF0.75
aI0
aI0
aF0.0
aI0
aI0
aF0.0
aI2
aI9
aI11
aI1
aI1
aI0
aI1
aI5
aI12
aI16
aa(lp44
V0020801076
p45
aVMAR 27, 2009
p46
aVBOS @ ATL
p47
aVW
p48
aI30
aI1
aI4
aF0.25
aI0
aI0
aF0.0
aI0
aI0
aF0.0
aI0
aI10
aI10
aI1
aI0
aI0
aI0
aI5
aI2
aI-1
aa(lp49
V0020801067
p50
aVMAR 25, 2009
p51
aVBOS @ ORL
p52
aVL
p53
aI11
aI1
aI2
aF0.5
aI0
aI0
aF0.0
aI0
aI0
aF0.0
aI0
aI1
aI1
aI0
aI0
aI0
aI0
aI4
aI2
aI-8
aa(lp54
V0020801050
p55
aVMAR 23, 2009
p56
aVBOS vs. LAC
p57
aVW
p58
aI19
aI0
aI2
aF0.0
aI0
aI0
aF0.0
aI0
aI0
aF0.0
aI1
aI0
aI1
aI1
aI0
aI0
aI1
aI5
aI0
aI-11
aa(lp59
V0020801037
p60
aVMAR 21, 2009
p61
aVBOS @ MEM
p62
aVW
p63
aI21
aI1
aI2
aF0.5
aI0
aI0
aF0.0
aI0
aI0
aF0.0
aI1
aI2
aI3
aI2
aI1
aI1
aI0
aI3
aI2
aI2
aa(lp64
V0020801031
p65
aVMAR 20, 2009
p66
aVBOS @ SAS
p67
aVW
p68
aI20
aI2
aI2
aF1.0
aI0
aI0
aF0.0
aI0
aI0
aF0.0
aI2
aI6
aI8
aI0
aI0
aI0
aI0
aI1
aI4
aI0
aa(lp69
V0020801009
p70
aVMAR 18, 2009
p71
aVBOS vs. MIA
p72
aVW
p73
aI17
aI2
aI3
aF0.667
aI0
aI0
aF0.0
aI0
aI0
aF0.0
aI1
aI3
aI4
aI2
aI1
aI0
aI0
aI6
aI4
aI-11
aa(lp74
V0020801003
p75
aVMAR 17, 2009
p76
aVBOS @ CHI
p77
aVL
p78
aI29
aI2
aI5
aF0.4
aI0
aI0
aF0.0
aI2
aI2
aF1.0
aI4
aI6
aI10
aI1
aI0
aI0
aI1
aI6
aI6
aI9
aa(lp79
V0020800988
p80
aVMAR 15, 2009
p81
aVBOS @ MIL
p82
aVL
p83
aI23
aI3
aI4
aF0.75
aI0
aI0
aF0.0
aI3
aI4
aF0.75
aI1
aI3
aI4
aI2
aI0
aI1
aI1
aI4
aI9
aI-3
aa(lp84
V0020800973
p85
aVMAR 13, 2009
p86
aVBOS vs. MEM
p87
aVW
p88
aI22
aI3
aI3
aF1.0
aI0
aI0
aF0.0
aI0
aI0
aF0.0
aI2
aI6
aI8
aI2
aI0
aI1
aI2
aI5
aI6
aI12
aa(lp89
V0020800960
p90
aVMAR 11, 2009
p91
aVBOS @ MIA
p92
aVL
p93
aI18
aI0
aI3
aF0.0
aI0
aI0
aF0.0
aI0
aI0
aF0.0
aI2
aI2
aI4
aI2
aI0
aI0
aI1
aI5
aI0
aI2
aa(lp94
V0020800936
p95
aVMAR 08, 2009
p96
aVBOS vs. ORL
p97
aVL
p98
aI15
aI0
aI2
aF0.0
aI0
aI0
aF0.0
aI0
aI0
aF0.0
aI1
aI3
aI4
aI0
aI0
aI0
aI0
aI3
aI0
aI-3
aa(lp99
V0020800920
p100
aVMAR 06, 2009
p101
aVBOS vs. CLE
p102
aVW
p103
aI13
aI3
aI3
aF1.0
aI0
aI0
aF0.0
aI0
aI0
aF0.0
aI0
aI2
aI2
aI1
aI0
aI0
aI1
aI5
aI6
aI3
aa(lp104
V0020800907
p105
aVMAR 04, 2009
p106
aVBOS @ NJN
p107
aVW
p108
aI12
aI2
aI4
aF0.5
aI0
aI0
aF0.0
aI2
aI2
aF1.0
aI1
aI0
aI1
aI0
aI0
aI0
aI0
aI3
aI6
aI-9
aa(lp109
V0020800883
p110
aVMAR 01, 2009
p111
aVBOS vs. DET
p112
aVL
p113
aI9
aI1
aI3
aF0.333
aI0
aI0
aF0.0
aI0
aI0
aF0.0
aI1
aI0
aI1
aI0
aI0
aI0
aI0
aI3
aI2
aI-6
aa(lp114
V0020800867
p115
aVFEB 27, 2009
p116
aVBOS vs. IND
p117
aVW
p118
aI16
aI2
aI5
aF0.4
aI0
aI0
aF0.0
aI2
aI3
aF0.667
aI0
aI3
aI3
aI0
aI0
aI0
aI2
aI2
aI6
aI-9
aa(lp119
V0020800860
p120
aVFEB 25, 2009
p121
aVBOS @ LAC
p122
aVL
p123
aI14
aI2
aI2
aF1.0
aI0
aI0
aF0.0
aI0
aI0
aF0.0
aI0
aI1
aI1
aI2
aI0
aI0
aI0
aI2
aI4
aI7
aa(lp124
V0020800806
p125
aVFEB 18, 2009
p126
aVSAC vs. ATL
p127
aVL
p128
aI6
aI0
aI0
aF0.0
aI0
aI0
aF0.0
aI0
aI0
aF0.0
aI1
aI0
aI1
aI0
aI0
aI1
aI0
aI0
aI0
aI-5
aa(lp129
V0020800757
p130
aVFEB 08, 2009
p131
aVSAC @ OKC
p132
aVL
p133
aI16
aI2
aI3
aF0.667
aI0
aI0
aF0.0
aI1
aI2
aF0.5
aI2
aI2
aI4
aI1
aI0
aI0
aI2
aI2
aI5
aI5
aa(lp134
V0020800741
p135
aVFEB 06, 2009
p136
aVSAC vs. UTA
p137
aVL
p138
aI19
aI5
aI6
aF0.833
aI0
aI0
aF0.0
aI2
aI4
aF0.5
aI3
aI4
aI7
aI2
aI1
aI0
aI0
aI2
aI12
aI5
aa(lp139
V0020800711
p140
aVFEB 02, 2009
p141
aVSAC @ PHX
p142
aVL
p143
aI13
aI0
aI1
aF0.0
aI0
aI0
aF0.0
aI0
aI0
aF0.0
aI0
aI1
aI1
aI1
aI0
aI0
aI1
aI2
aI0
aI-13
aa(lp144
V0020800705
p145
aVFEB 01, 2009
p146
aVSAC vs. OKC
p147
aVW
p148
aI9
aI0
aI0
aF0.0
aI0
aI0
aF0.0
aI0
aI0
aF0.0
aI0
aI1
aI1
aI0
aI1
aI0
aI1
aI1
aI0
aI1
aa(lp149
V0020800691
p150
aVJAN 30, 2009
p151
aVSAC vs. CHI
p152
aVL
p153
aI5
aI0
aI0
aF0.0
aI0
aI0
aF0.0
aI0
aI0
aF0.0
aI0
aI1
aI1
aI0
aI0
aI0
aI0
aI1
aI0
aI-9
aa(lp154
V0020800668
p155
aVJAN 28, 2009
p156
aVSAC @ BOS
p157
aVL
p158
aI5
aI1
aI1
aF1.0
aI0
aI0
aF0.0
aI0
aI0
aF0.0
aI1
aI1
aI2
aI0
aI0
aI0
aI1
aI1
aI2
aI-5
aa(lp159
V0020800649
p160
aVJAN 25, 2009
p161
aVSAC @ TOR
p162
aVL
p163
aI8
aI1
aI1
aF1.0
aI0
aI0
aF0.0
aI0
aI0
aF0.0
aI1
aI0
aI1
aI0
aI0
aI0
aI0
aI2
aI2
aI5
aa(lp164
V0020800615
p165
aVJAN 20, 2009
p166
aVSAC @ DEN
p167
aVL
p168
aI9
aI0
aI1
aF0.0
aI0
aI0
aF0.0
aI0
aI0
aF0.0
aI0
aI0
aI0
aI0
aI0
aI0
aI0
aI3
aI0
aI-6
aa(lp169
V0020800587
p170
aVJAN 16, 2009
p171
aVSAC vs. MIL
p172
aVL
p173
aI4
aI0
aI0
aF0.0
aI0
aI0
aF0.0
aI0
aI0
aF0.0
aI0
aI1
aI1
aI0
aI0
aI0
aI0
aI2
aI0
aI-4
aa(lp174
V0020800575
p175
aVJAN 14, 2009
p176
aVSAC @ GSW
p177
aVW
p178
aI4
aI0
aI0
aF0.0
aI0
aI0
aF0.0
aI0
aI0
aF0.0
aI0
aI1
aI1
aI1
aI0
aI0
aI1
aI2
aI0
aI-4
aa(lp179
V0020800565
p180
aVJAN 13, 2009
p181
aVSAC vs. ORL
p182
aVL
p183
aI7
aI0
aI2
aF0.0
aI0
aI0
aF0.0
aI0
aI0
aF0.0
aI0
aI1
aI1
aI0
aI0
aI1
aI0
aI0
aI0
aI-6
aa(lp184
V0020800551
p185
aVJAN 11, 2009
p186
aVSAC vs. DAL
p187
aVW
p188
aI6
aI0
aI1
aF0.0
aI0
aI0
aF0.0
aI0
aI0
aF0.0
aI0
aI0
aI0
aI0
aI0
aI0
aI0
aI0
aI0
aI-4
aa(lp189
V0020800537
p190
aVJAN 09, 2009
p191
aVSAC vs. MIA
p192
aVL
p193
aI5
aI0
aI0
aF0.0
aI0
aI0
aF0.0
aI0
aI0
aF0.0
aI0
aI1
aI1
aI1
aI0
aI0
aI1
aI2
aI0
aI0
aa(lp194
V0020800511
p195
aVJAN 06, 2009
p196
aVSAC @ CHI
p197
aVL
p198
aI15
aI2
aI2
aF1.0
aI0
aI0
aF0.0
aI0
aI0
aF0.0
aI0
aI1
aI1
aI1
aI0
aI0
aI0
aI2
aI4
aI4
aa(lp199
V0020800502
p200
aVJAN 05, 2009
p201
aVSAC @ NJN
p202
aVL
p203
aI13
aI2
aI5
aF0.4
aI0
aI0
aF0.0
aI0
aI0
aF0.0
aI2
aI1
aI3
aI1
aI1
aI0
aI0
aI2
aI4
aI-8
aa(lp204
V0020800490
p205
aVJAN 03, 2009
p206
aVSAC @ IND
p207
aVL
p208
aI28
aI2
aI6
aF0.333
aI0
aI0
aF0.0
aI1
aI2
aF0.5
aI0
aI1
aI1
aI1
aI0
aI1
aI0
aI5
aI5
aI0
aa(lp209
V0020800479
p210
aVJAN 02, 2009
p211
aVSAC @ DET
p212
aVL
p213
aI25
aI1
aI2
aF0.5
aI0
aI0
aF0.0
aI0
aI0
aF0.0
aI2
aI4
aI6
aI0
aI1
aI0
aI0
aI1
aI2
aI-15
aa(lp214
V0020800466
p215
aVDEC 30, 2008
p216
aVSAC vs. LAC
p217
aVW
p218
aI32
aI3
aI6
aF0.5
aI0
aI0
aF0.0
aI1
aI1
aF1.0
aI1
aI8
aI9
aI3
aI0
aI1
aI2
aI3
aI7
aI-6
aa(lp219
V0020800448
p220
aVDEC 28, 2008
p221
aVSAC vs. BOS
p222
aVL
p223
aI24
aI1
aI4
aF0.25
aI0
aI0
aF0.0
aI3
aI3
aF1.0
aI3
aI5
aI8
aI1
aI0
aI0
aI0
aI4
aI5
aI-31
aa(lp224
V0020800434
p225
aVDEC 26, 2008
p226
aVSAC vs. TOR
p227
aVL
p228
aI19
aI1
aI2
aF0.5
aI0
aI0
aF0.0
aI1
aI2
aF0.5
aI0
aI4
aI4
aI1
aI0
aI1
aI0
aI3
aI3
aI-2
aa(lp229
V0020800406
p230
aVDEC 22, 2008
p231
aVSAC @ SAS
p232
aVL
p233
aI18
aI3
aI4
aF0.75
aI0
aI0
aF0.0
aI0
aI0
aF0.0
aI1
aI4
aI5
aI0
aI0
aI1
aI0
aI2
aI6
aI-6
aa(lp234
V0020800394
p235
aVDEC 20, 2008
p236
aVSAC @ NOH
p237
aVL
p238
aI8
aI0
aI0
aF0.0
aI0
aI0
aF0.0
aI0
aI0
aF0.0
aI0
aI1
aI1
aI0
aI0
aI0
aI0
aI1
aI0
aI6
aa(lp239
V0020800387
p240
aVDEC 19, 2008
p241
aVSAC @ HOU
p242
aVL
p243
aI20
aI0
aI0
aF0.0
aI0
aI0
aF0.0
aI2
aI2
aF1.0
aI0
aI0
aI0
aI0
aI1
aI1
aI0
aI5
aI2
aI9
aa(lp244
V0020800364
p245
aVDEC 16, 2008
p246
aVSAC @ POR
p247
aVL
p248
aI17
aI0
aI2
aF0.0
aI0
aI0
aF0.0
aI0
aI0
aF0.0
aI3
aI3
aI6
aI0
aI0
aI0
aI1
aI2
aI0
aI-9
aa(lp249
V0020800358
p250
aVDEC 15, 2008
p251
aVSAC vs. MIN
p252
aVW
p253
aI17
aI1
aI2
aF0.5
aI0
aI0
aF0.0
aI2
aI2
aF1.0
aI0
aI1
aI1
aI1
aI0
aI1
aI0
aI4
aI4
aI10
aa(lp254
V0020800345
p255
aVDEC 13, 2008
p256
aVSAC vs. NYK
p257
aVL
p258
aI8
aI1
aI2
aF0.5
aI0
aI0
aF0.0
aI0
aI0
aF0.0
aI2
aI4
aI6
aI0
aI0
aI0
aI1
aI2
aI2
aI-1
aa(lp259
V0020800336
p260
aVDEC 12, 2008
p261
aVSAC @ LAL
p262
aVL
p263
aI22
aI1
aI3
aF0.333
aI0
aI0
aF0.0
aI1
aI2
aF0.5
aI2
aI2
aI4
aI1
aI0
aI1
aI0
aI2
aI3
aI9
aa(lp264
V0020800313
p265
aVDEC 09, 2008
p266
aVSAC vs. LAL
p267
aVW
p268
aI14
aI2
aI3
aF0.667
aI0
aI0
aF0.0
aI0
aI0
aF0.0
aI0
aI3
aI3
aI0
aI0
aI0
aI0
aI1
aI4
aI7
aa(lp269
V0020800296
p270
aVDEC 06, 2008
p271
aVSAC vs. DEN
p272
aVL
p273
aI3
aI0
aI1
aF0.0
aI0
aI0
aF0.0
aI0
aI0
aF0.0
aI2
aI1
aI3
aI0
aI0
aI0
aI0
aI1
aI0
aI-2
aa(lp274
V0020800262
p275
aVDEC 02, 2008
p276
aVSAC vs. UTA
p277
aVL
p278
aI12
aI0
aI3
aF0.0
aI0
aI0
aF0.0
aI0
aI0
aF0.0
aI1
aI2
aI3
aI0
aI0
aI0
aI0
aI3
aI0
aI-19
aa(lp279
V0020800245
p280
aVNOV 29, 2008
p281
aVSAC vs. DAL
p282
aVL
p283
aI26
aI4
aI6
aF0.667
aI0
aI0
aF0.0
aI0
aI0
aF0.0
aI1
aI6
aI7
aI0
aI1
aI0
aI0
aI3
aI8
aI-5
aa(lp284
V0020800233
p285
aVNOV 28, 2008
p286
aVSAC @ UTA
p287
aVL
p288
aI21
aI2
aI3
aF0.667
aI0
aI0
aF0.0
aI0
aI0
aF0.0
aI0
aI4
aI4
aI0
aI1
aI0
aI1
aI3
aI4
aI-12
aa(lp289
V0020800221
p290
aVNOV 26, 2008
p291
aVSAC vs. NJN
p292
aVL
p293
aI24
aI1
aI5
aF0.2
aI0
aI0
aF0.0
aI2
aI2
aF1.0
aI2
aI3
aI5
aI0
aI1
aI1
aI1
aI4
aI4
aI-7
aa(lp294
V0020800203
p295
aVNOV 24, 2008
p296
aVSAC @ POR
p297
aVL
p298
aI20
aI2
aI2
aF1.0
aI0
aI0
aF0.0
aI2
aI2
aF1.0
aI1
aI4
aI5
aI0
aI0
aI0
aI6
aI2
aI6
aI-6
aa(lp299
V0020800145
p300
aVNOV 16, 2008
p301
aVSAC vs. SAS
p302
aVL
p303
aI20
aI1
aI2
aF0.5
aI0
aI0
aF0.0
aI0
aI0
aF0.0
aI2
aI6
aI8
aI1
aI0
aI1
aI1
aI2
aI2
aI1
aa(lp304
V0020800130
p305
aVNOV 14, 2008
p306
aVSAC vs. PHX
p307
aVL
p308
aI20
aI1
aI1
aF1.0
aI0
aI0
aF0.0
aI0
aI0
aF0.0
aI1
aI4
aI5
aI0
aI0
aI1
aI0
aI2
aI2
aI1
aa(lp309
V0020800115
p310
aVNOV 12, 2008
p311
aVSAC @ LAC
p312
aVW
p313
aI23
aI2
aI3
aF0.667
aI0
aI0
aF0.0
aI4
aI4
aF1.0
aI1
aI0
aI1
aI1
aI1
aI0
aI0
aI6
aI8
aI-3
aa(lp314
V0020800104
p315
aVNOV 11, 2008
p316
aVSAC vs. DET
p317
aVL
p318
aI30
aI4
aI5
aF0.8
aI0
aI0
aF0.0
aI2
aI4
aF0.5
aI1
aI4
aI5
aI2
aI2
aI0
aI0
aI3
aI10
aI4
aa(lp319
V0020800091
p320
aVNOV 09, 2008
p321
aVSAC vs. GSW
p322
aVW
p323
aI21
aI2
aI6
aF0.333
aI0
aI0
aF0.0
aI4
aI4
aF1.0
aI2
aI4
aI6
aI0
aI0
aI2
aI2
aI2
aI8
aI10
aa(lp324
V0020800075
p325
aVNOV 07, 2008
p326
aVSAC vs. MIN
p327
aVW
p328
aI24
aI4
aI5
aF0.8
aI0
aI0
aF0.0
aI4
aI4
aF1.0
aI3
aI2
aI5
aI1
aI0
aI0
aI0
aI4
aI12
aI8
aa(lp329
V0020800061
p330
aVNOV 05, 2008
p331
aVSAC vs. MEM
p332
aVW
p333
aI32
aI3
aI6
aF0.5
aI0
aI0
aF0.0
aI0
aI0
aF0.0
aI3
aI8
aI11
aI2
aI1
aI0
aI2
aI4
aI6
aI2
aa(lp334
V0020800044
p335
aVNOV 03, 2008
p336
aVSAC @ PHI
p337
aVL
p338
aI18
aI0
aI2
aF0.0
aI0
aI0
aF0.0
aI0
aI0
aF0.0
aI0
aI0
aI0
aI3
aI1
aI0
aI0
aI3
aI0
aI-17
aa(lp339
V0020800029
p340
aVNOV 01, 2008
p341
aVSAC @ ORL
p342
aVL
p343
aI20
aI3
aI6
aF0.5
aI0
aI0
aF0.0
aI0
aI0
aF0.0
aI0
aI1
aI1
aI2
aI0
aI0
aI1
aI4
aI6
aI1
aa(lp344
V0020800021
p345
aVOCT 31, 2008
p346
aVSAC @ MIA
p347
aVL
p348
aI18
aI1
aI1
aF1.0
aI0
aI0
aF0.0
aI2
aI2
aF1.0
aI1
aI2
aI3
aI0
aI0
aI0
aI2
aI4
aI4
aI-11
aa(lp349
V0020800009
p350
aVOCT 29, 2008
p351
aVSAC @ MIN
p352
aVL
p353
aI21
aI4
aI5
aF0.8
aI0
aI0
aF0.0
aI0
aI0
aF0.0
aI0
aI0
aI0
aI0
aI0
aI0
aI0
aI3
aI8
aI1
aasS'name'
p354
VMikki Moore
p355
sS'experience'
p356
I10
s.