(dp0
S'age'
p1
I32
sS'stats'
p2
(lp3
(lp4
V0020800114
p5
aVNOV 12, 2008
p6
aVUTA @ WAS
p7
aVL
p8
aI5
aI1
aI2
aF0.5
aI0
aI0
aF0.0
aI0
aI0
aF0.0
aI0
aI1
aI1
aI0
aI0
aI0
aI0
aI2
aI2
aI-3
aa(lp9
V0020800120
p10
aVNOV 14, 2008
p11
aVUTA @ CHA
p12
aVL
p13
aI14
aI2
aI2
aF1.0
aI0
aI0
aF0.0
aI0
aI0
aF0.0
aI1
aI1
aI2
aI1
aI0
aI1
aI2
aI2
aI4
aI0
aa(lp14
V0020800147
p15
aVNOV 17, 2008
p16
aVUTA vs. PHX
p17
aVW
p18
aI12
aI1
aI3
aF0.333
aI0
aI0
aF0.0
aI2
aI2
aF1.0
aI0
aI2
aI2
aI1
aI2
aI0
aI1
aI2
aI4
aI10
aa(lp19
V0020800167
p20
aVNOV 19, 2008
p21
aVUTA vs. MIL
p22
aVW
p23
aI9
aI1
aI1
aF1.0
aI0
aI0
aF0.0
aI0
aI0
aF0.0
aI0
aI0
aI0
aI1
aI1
aI0
aI0
aI0
aI2
aI9
aa(lp24
V0020800179
p25
aVNOV 21, 2008
p26
aVUTA @ SAS
p27
aVL
p28
aI9
aI2
aI3
aF0.667
aI0
aI0
aF0.0
aI0
aI0
aF0.0
aI0
aI0
aI0
aI0
aI2
aI0
aI1
aI1
aI4
aI-18
aa(lp29
V0020800190
p30
aVNOV 22, 2008
p31
aVUTA @ MEM
p32
aVW
p33
aI13
aI1
aI4
aF0.25
aI0
aI0
aF0.0
aI3
aI4
aF0.75
aI0
aI3
aI3
aI0
aI1
aI0
aI1
aI2
aI5
aI15
aa(lp34
V0020800219
p35
aVNOV 26, 2008
p36
aVUTA vs. MEM
p37
aVW
p38
aI8
aI1
aI1
aF1.0
aI0
aI0
aF0.0
aI0
aI0
aF0.0
aI0
aI0
aI0
aI0
aI0
aI0
aI0
aI2
aI2
aI-6
aa(lp39
V0020800286
p40
aVDEC 05, 2008
p41
aVUTA vs. TOR
p42
aVW
p43
aI12
aI6
aI9
aF0.667
aI0
aI0
aF0.0
aI2
aI3
aF0.667
aI4
aI3
aI7
aI0
aI0
aI0
aI0
aI0
aI14
aI11
aa(lp44
V0020800295
p45
aVDEC 06, 2008
p46
aVUTA @ PHX
p47
aVL
p48
aI10
aI0
aI3
aF0.0
aI0
aI0
aF0.0
aI0
aI2
aF0.0
aI0
aI1
aI1
aI1
aI0
aI0
aI0
aI0
aI0
aI-4
aa(lp49
V0020800307
p50
aVDEC 09, 2008
p51
aVUTA @ MIN
p52
aVW
p53
aI4
aI0
aI0
aF0.0
aI0
aI0
aF0.0
aI0
aI0
aF0.0
aI0
aI1
aI1
aI0
aI0
aI0
aI1
aI0
aI0
aI-4
aa(lp54
V0020800325
p55
aVDEC 11, 2008
p56
aVUTA vs. POR
p57
aVW
p58
aI8
aI2
aI4
aF0.5
aI0
aI0
aF0.0
aI2
aI2
aF1.0
aI0
aI0
aI0
aI0
aI0
aI0
aI1
aI3
aI6
aI6
aa(lp59
V0020800344
p60
aVDEC 13, 2008
p61
aVUTA vs. ORL
p62
aVL
p63
aI5
aI0
aI1
aF0.0
aI0
aI0
aF0.0
aI0
aI0
aF0.0
aI0
aI1
aI1
aI0
aI0
aI0
aI1
aI2
aI0
aI1
aa(lp64
V0020800354
p65
aVDEC 15, 2008
p66
aVUTA @ BOS
p67
aVL
p68
aI10
aI0
aI3
aF0.0
aI0
aI0
aF0.0
aI2
aI2
aF1.0
aI1
aI3
aI4
aI0
aI1
aI1
aI0
aI3
aI2
aI1
aa(lp69
V0020800371
p70
aVDEC 17, 2008
p71
aVUTA @ NJN
p72
aVW
p73
aI9
aI0
aI3
aF0.0
aI0
aI0
aF0.0
aI0
aI0
aF0.0
aI1
aI1
aI2
aI0
aI0
aI0
aI0
aI1
aI0
aI4
aa(lp74
V0020800383
p75
aVDEC 19, 2008
p76
aVUTA @ DET
p77
aVW
p78
aI9
aI1
aI3
aF0.333
aI0
aI0
aF0.0
aI0
aI0
aF0.0
aI2
aI0
aI2
aI0
aI1
aI0
aI0
aI2
aI2
aI6
aa(lp79
V0020800395
p80
aVDEC 20, 2008
p81
aVUTA @ CHI
p82
aVL
p83
aI6
aI0
aI2
aF0.0
aI0
aI0
aF0.0
aI2
aI2
aF1.0
aI1
aI1
aI2
aI0
aI1
aI1
aI1
aI1
aI2
aI-2
aa(lp84
V0020800416
p85
aVDEC 23, 2008
p86
aVUTA @ MIL
p87
aVL
p88
aI27
aI3
aI6
aF0.5
aI0
aI0
aF0.0
aI0
aI0
aF0.0
aI2
aI1
aI3
aI1
aI0
aI0
aI2
aI4
aI6
aI2
aa(lp89
V0020800433
p90
aVDEC 26, 2008
p91
aVUTA vs. DAL
p92
aVW
p93
aI16
aI1
aI3
aF0.333
aI0
aI0
aF0.0
aI4
aI5
aF0.8
aI1
aI0
aI1
aI2
aI2
aI0
aI0
aI1
aI6
aI1
aa(lp94
V0020800440
p95
aVDEC 27, 2008
p96
aVUTA @ HOU
p97
aVL
p98
aI12
aI2
aI4
aF0.5
aI0
aI0
aF0.0
aI0
aI0
aF0.0
aI0
aI0
aI0
aI0
aI2
aI0
aI0
aI1
aI4
aI2
aa(lp99
V0020800456
p100
aVDEC 29, 2008
p101
aVUTA vs. PHI
p102
aVW
p103
aI6
aI1
aI3
aF0.333
aI0
aI0
aF0.0
aI0
aI0
aF0.0
aI0
aI2
aI2
aI1
aI0
aI0
aI1
aI1
aI2
aI-4
aa(lp104
V0020800487
p105
aVJAN 02, 2009
p106
aVUTA @ LAL
p107
aVL
p108
aI6
aI0
aI1
aF0.0
aI0
aI0
aF0.0
aI0
aI0
aF0.0
aI1
aI1
aI2
aI0
aI0
aI0
aI0
aI2
aI0
aI-3
aa(lp109
V0020800523
p110
aVJAN 07, 2009
p111
aVUTA vs. NOH
p112
aVW
p113
aI12
aI5
aI7
aF0.714
aI0
aI0
aF0.0
aI0
aI0
aF0.0
aI1
aI1
aI2
aI0
aI0
aI0
aI0
aI2
aI10
aI17
aa(lp114
V0020800544
p115
aVJAN 10, 2009
p116
aVUTA vs. DET
p117
aVW
p118
aI17
aI4
aI7
aF0.571
aI0
aI0
aF0.0
aI3
aI5
aF0.6
aI2
aI0
aI2
aI0
aI0
aI0
aI1
aI4
aI11
aI6
aa(lp119
V0020800558
p120
aVJAN 12, 2009
p121
aVUTA vs. IND
p122
aVW
p123
aI9
aI1
aI1
aF1.0
aI0
aI0
aF0.0
aI0
aI0
aF0.0
aI1
aI1
aI2
aI1
aI0
aI0
aI0
aI2
aI2
aI-10
aa(lp124
V0020800572
p125
aVJAN 14, 2009
p126
aVUTA @ OKC
p127
aVL
p128
aI18
aI4
aI8
aF0.5
aI0
aI1
aF0.0
aI2
aI4
aF0.5
aI0
aI2
aI2
aI0
aI0
aI0
aI0
aI2
aI10
aI5
aa(lp129
V0020800584
p130
aVJAN 16, 2009
p131
aVUTA @ MEM
p132
aVW
p133
aI16
aI5
aI8
aF0.625
aI0
aI0
aF0.0
aI2
aI2
aF1.0
aI0
aI1
aI1
aI2
aI0
aI0
aI0
aI2
aI12
aI1
aa(lp134
V0020800596
p135
aVJAN 17, 2009
p136
aVUTA @ DAL
p137
aVL
p138
aI4
aI2
aI3
aF0.667
aI0
aI1
aF0.0
aI0
aI0
aF0.0
aI0
aI0
aI0
aI0
aI0
aI0
aI0
aI0
aI4
aI-7
aa(lp139
V0020800616
p140
aVJAN 20, 2009
p141
aVUTA vs. MIN
p142
aVW
p143
aI15
aI2
aI5
aF0.4
aI0
aI0
aF0.0
aI2
aI2
aF1.0
aI2
aI1
aI3
aI1
aI3
aI0
aI0
aI0
aI6
aI0
aa(lp144
V0020800623
p145
aVJAN 21, 2009
p146
aVUTA @ HOU
p147
aVL
p148
aI15
aI1
aI4
aF0.25
aI0
aI0
aF0.0
aI0
aI0
aF0.0
aI0
aI2
aI2
aI0
aI1
aI0
aI0
aI2
aI2
aI3
aa(lp149
V0020800644
p150
aVJAN 24, 2009
p151
aVUTA vs. CLE
p152
aVL
p153
aI21
aI5
aI7
aF0.714
aI0
aI0
aF0.0
aI1
aI1
aF1.0
aI2
aI3
aI5
aI0
aI1
aI0
aI0
aI3
aI11
aI12
aa(lp154
V0020800653
p155
aVJAN 25, 2009
p156
aVUTA @ DEN
p157
aVL
p158
aI17
aI2
aI7
aF0.286
aI0
aI0
aF0.0
aI2
aI2
aF1.0
aI1
aI2
aI3
aI1
aI1
aI0
aI1
aI1
aI6
aI2
aa(lp159
V0020800665
p160
aVJAN 27, 2009
p161
aVUTA vs. SAS
p162
aVL
p163
aI12
aI1
aI3
aF0.333
aI0
aI0
aF0.0
aI0
aI0
aF0.0
aI2
aI5
aI7
aI2
aI0
aI0
aI1
aI3
aI2
aI5
aa(lp164
V0020800689
p165
aVJAN 30, 2009
p166
aVUTA vs. OKC
p167
aVW
p168
aI16
aI3
aI8
aF0.375
aI0
aI0
aF0.0
aI0
aI0
aF0.0
aI3
aI1
aI4
aI1
aI2
aI2
aI1
aI2
aI6
aI10
aa(lp169
V0020800701
p170
aVJAN 31, 2009
p171
aVUTA @ POR
p172
aVL
p173
aI4
aI0
aI1
aF0.0
aI0
aI0
aF0.0
aI0
aI0
aF0.0
aI0
aI1
aI1
aI0
aI0
aI0
aI1
aI0
aI0
aI-7
aa(lp174
V0020800712
p175
aVFEB 02, 2009
p176
aVUTA vs. CHA
p177
aVW
p178
aI15
aI5
aI6
aF0.833
aI0
aI0
aF0.0
aI0
aI0
aF0.0
aI0
aI3
aI3
aI0
aI0
aI0
aI0
aI1
aI10
aI12
aa(lp179
V0020800733
p180
aVFEB 05, 2009
p181
aVUTA vs. DAL
p182
aVW
p183
aI13
aI1
aI2
aF0.5
aI0
aI0
aF0.0
aI2
aI2
aF1.0
aI0
aI2
aI2
aI2
aI0
aI0
aI0
aI3
aI4
aI3
aa(lp184
V0020800741
p185
aVFEB 06, 2009
p186
aVUTA @ SAC
p187
aVW
p188
aI18
aI6
aI9
aF0.667
aI0
aI0
aF0.0
aI2
aI3
aF0.667
aI3
aI5
aI8
aI0
aI0
aI0
aI0
aI2
aI14
aI-2
aa(lp189
V0020800759
p190
aVFEB 08, 2009
p191
aVUTA @ GSW
p192
aVL
p193
aI14
aI2
aI6
aF0.333
aI0
aI0
aF0.0
aI0
aI0
aF0.0
aI2
aI1
aI3
aI1
aI0
aI0
aI1
aI2
aI4
aI-13
aa(lp194
V0020800782
p195
aVFEB 11, 2009
p196
aVUTA vs. LAL
p197
aVW
p198
aI18
aI3
aI4
aF0.75
aI0
aI0
aF0.0
aI1
aI2
aF0.5
aI2
aI3
aI5
aI0
aI0
aI1
aI0
aI2
aI7
aI-12
aa(lp199
V0020800796
p200
aVFEB 17, 2009
p201
aVUTA vs. MEM
p202
aVW
p203
aI11
aI0
aI4
aF0.0
aI0
aI0
aF0.0
aI3
aI4
aF0.75
aI0
aI0
aI0
aI1
aI0
aI0
aI1
aI3
aI3
aI-9
aa(lp204
V0020800810
p205
aVFEB 19, 2009
p206
aVUTA vs. BOS
p207
aVW
p208
aI18
aI4
aI7
aF0.571
aI0
aI0
aF0.0
aI0
aI0
aF0.0
aI0
aI2
aI2
aI0
aI0
aI0
aI0
aI2
aI8
aI11
aa(lp209
V0020800825
p210
aVFEB 21, 2009
p211
aVUTA vs. NOH
p212
aVW
p213
aI11
aI2
aI4
aF0.5
aI0
aI0
aF0.0
aI0
aI0
aF0.0
aI1
aI0
aI1
aI0
aI0
aI0
aI1
aI3
aI4
aI2
aa(lp214
V0020800839
p215
aVFEB 23, 2009
p216
aVUTA vs. ATL
p217
aVW
p218
aI14
aI6
aI8
aF0.75
aI0
aI0
aF0.0
aI3
aI4
aF0.75
aI0
aI1
aI1
aI3
aI0
aI0
aI0
aI1
aI15
aI11
aa(lp219
V0020800881
p220
aVFEB 28, 2009
p221
aVUTA vs. SAC
p222
aVW
p223
aI7
aI2
aI3
aF0.667
aI0
aI0
aF0.0
aI1
aI2
aF0.5
aI0
aI1
aI1
aI0
aI0
aI0
aI2
aI0
aI5
aI-1
aa(lp224
V0020800891
p225
aVMAR 01, 2009
p226
aVUTA @ GSW
p227
aVW
p228
aI11
aI1
aI5
aF0.2
aI0
aI0
aF0.0
aI2
aI2
aF1.0
aI3
aI1
aI4
aI0
aI0
aI0
aI0
aI1
aI4
aI-5
aa(lp229
V0020800912
p230
aVMAR 04, 2009
p231
aVUTA vs. HOU
p232
aVW
p233
aI10
aI2
aI4
aF0.5
aI0
aI0
aF0.0
aI0
aI0
aF0.0
aI1
aI0
aI1
aI0
aI2
aI0
aI0
aI2
aI4
aI6
aa(lp234
V0020800926
p235
aVMAR 06, 2009
p236
aVUTA vs. DEN
p237
aVW
p238
aI6
aI0
aI2
aF0.0
aI0
aI0
aF0.0
aI0
aI0
aF0.0
aI0
aI0
aI0
aI0
aI0
aI0
aI2
aI0
aI0
aI-5
aa(lp239
V0020800937
p240
aVMAR 08, 2009
p241
aVUTA @ TOR
p242
aVW
p243
aI11
aI0
aI3
aF0.0
aI0
aI0
aF0.0
aI0
aI0
aF0.0
aI0
aI0
aI0
aI1
aI0
aI0
aI0
aI1
aI0
aI-5
aa(lp244
V0020800949
p245
aVMAR 10, 2009
p246
aVUTA @ IND
p247
aVW
p248
aI5
aI0
aI2
aF0.0
aI0
aI0
aF0.0
aI0
aI0
aF0.0
aI0
aI0
aI0
aI0
aI0
aI0
aI1
aI0
aI0
aI0
aa(lp249
V0020800955
p250
aVMAR 11, 2009
p251
aVUTA @ ATL
p252
aVL
p253
aI4
aI0
aI1
aF0.0
aI0
aI0
aF0.0
aI0
aI0
aF0.0
aI1
aI1
aI2
aI0
aI0
aI0
aI0
aI2
aI0
aI-1
aa(lp254
V0020800992
p255
aVMAR 15, 2009
p256
aVUTA @ ORL
p257
aVL
p258
aI10
aI1
aI3
aF0.333
aI0
aI0
aF0.0
aI0
aI0
aF0.0
aI0
aI1
aI1
aI0
aI0
aI0
aI0
aI2
aI2
aI-1
aa(lp259
V0020801006
p260
aVMAR 17, 2009
p261
aVUTA vs. WAS
p262
aVW
p263
aI5
aI0
aI1
aF0.0
aI0
aI0
aF0.0
aI2
aI2
aF1.0
aI0
aI0
aI0
aI0
aI0
aI0
aI0
aI2
aI2
aI0
aa(lp264
V0020801089
p265
aVMAR 28, 2009
p266
aVUTA vs. PHX
p267
aVW
p268
aI16
aI4
aI8
aF0.5
aI0
aI0
aF0.0
aI0
aI0
aF0.0
aI1
aI3
aI4
aI0
aI2
aI1
aI0
aI1
aI8
aI-2
aa(lp269
V0020801102
p270
aVMAR 30, 2009
p271
aVUTA vs. NYK
p272
aVW
p273
aI8
aI0
aI0
aF0.0
aI0
aI0
aF0.0
aI2
aI2
aF1.0
aI1
aI2
aI3
aI0
aI1
aI0
aI1
aI4
aI2
aI-1
aa(lp274
V0020801111
p275
aVMAR 31, 2009
p276
aVUTA @ POR
p277
aVL
p278
aI7
aI2
aI2
aF1.0
aI0
aI0
aF0.0
aI1
aI2
aF0.5
aI0
aI0
aI0
aI0
aI1
aI0
aI1
aI2
aI5
aI-1
aa(lp279
V0020801124
p280
aVAPR 02, 2009
p281
aVUTA @ DEN
p282
aVL
p283
aI5
aI0
aI0
aF0.0
aI0
aI0
aF0.0
aI0
aI0
aF0.0
aI0
aI0
aI0
aI0
aI0
aI0
aI1
aI1
aI0
aI-11
aa(lp284
V0020801131
p285
aVAPR 03, 2009
p286
aVUTA vs. MIN
p287
aVL
p288
aI9
aI0
aI1
aF0.0
aI0
aI0
aF0.0
aI2
aI2
aF1.0
aI0
aI0
aI0
aI0
aI0
aI0
aI0
aI0
aI2
aI-3
aa(lp289
V0020801148
p290
aVAPR 05, 2009
p291
aVUTA @ NOH
p292
aVW
p293
aI8
aI2
aI7
aF0.286
aI0
aI0
aF0.0
aI2
aI3
aF0.667
aI1
aI0
aI1
aI0
aI0
aI0
aI0
aI1
aI6
aI8
aa(lp294
V0020801171
p295
aVAPR 08, 2009
p296
aVUTA @ DAL
p297
aVL
p298
aI7
aI1
aI2
aF0.5
aI0
aI0
aF0.0
aI0
aI0
aF0.0
aI1
aI0
aI1
aI0
aI0
aI0
aI0
aI1
aI2
aI-3
aa(lp299
V0020801185
p300
aVAPR 10, 2009
p301
aVUTA @ SAS
p302
aVL
p303
aI5
aI0
aI0
aF0.0
aI0
aI0
aF0.0
aI0
aI0
aF0.0
aI1
aI1
aI2
aI1
aI0
aI0
aI0
aI0
aI0
aI-10
aa(lp304
V0020801194
p305
aVAPR 11, 2009
p306
aVUTA vs. GSW
p307
aVL
p308
aI9
aI0
aI3
aF0.0
aI0
aI0
aF0.0
aI2
aI2
aF1.0
aI0
aI3
aI3
aI1
aI0
aI1
aI0
aI3
aI2
aI-2
aa(lp309
V0020801210
p310
aVAPR 13, 2009
p311
aVUTA vs. LAC
p312
aVW
p313
aI15
aI4
aI7
aF0.571
aI0
aI0
aF0.0
aI1
aI2
aF0.5
aI1
aI3
aI4
aI0
aI1
aI1
aI1
aI2
aI9
aI14
aa(lp314
V0020801216
p315
aVAPR 14, 2009
p316
aVUTA @ LAL
p317
aVL
p318
aI17
aI3
aI7
aF0.429
aI0
aI0
aF0.0
aI0
aI0
aF0.0
aI0
aI1
aI1
aI2
aI1
aI0
aI0
aI3
aI6
aI6
aasS'name'
p319
VMatt Harpring
p320
sS'experience'
p321
I10
s.