(dp0
S'age'
p1
I33
sS'stats'
p2
(lp3
(lp4
V0020801066
p5
aVMAR 25, 2009
p6
aVNOH vs. DEN
p7
aVL
p8
aI5
aI1
aI2
aF0.5
aI0
aI0
aF0.0
aI0
aI0
aF0.0
aI0
aI0
aI0
aI1
aI0
aI0
aI0
aI1
aI2
aI-1
aa(lp9
V0020801046
p10
aVMAR 22, 2009
p11
aVNOH vs. GSW
p12
aVW
p13
aI6
aI3
aI4
aF0.75
aI0
aI0
aF0.0
aI0
aI0
aF0.0
aI1
aI0
aI1
aI0
aI1
aI0
aI0
aI0
aI6
aI16
aa(lp14
V0020801028
p15
aVMAR 20, 2009
p16
aVNOH vs. MEM
p17
aVW
p18
aI11
aI1
aI1
aF1.0
aI0
aI0
aF0.0
aI0
aI0
aF0.0
aI0
aI1
aI1
aI0
aI0
aI0
aI1
aI0
aI2
aI-8
aa(lp19
V0020801015
p20
aVMAR 18, 2009
p21
aVNOH vs. MIN
p22
aVW
p23
aI10
aI0
aI1
aF0.0
aI0
aI0
aF0.0
aI0
aI0
aF0.0
aI0
aI1
aI1
aI0
aI0
aI0
aI0
aI3
aI0
aI-3
aa(lp24
V0020800981
p25
aVMAR 14, 2009
p26
aVNOH @ CHI
p27
aVL
p28
aI14
aI1
aI5
aF0.2
aI0
aI0
aF0.0
aI0
aI0
aF0.0
aI2
aI1
aI3
aI1
aI0
aI0
aI0
aI1
aI2
aI2
aa(lp29
V0020800975
p30
aVMAR 13, 2009
p31
aVNOH @ MIL
p32
aVW
p33
aI11
aI0
aI0
aF0.0
aI0
aI0
aF0.0
aI0
aI0
aF0.0
aI1
aI0
aI1
aI0
aI2
aI1
aI0
aI0
aI0
aI-7
aa(lp34
V0020800958
p35
aVMAR 11, 2009
p36
aVNOH @ WAS
p37
aVW
p38
aI10
aI1
aI1
aF1.0
aI0
aI0
aF0.0
aI2
aI2
aF1.0
aI0
aI1
aI1
aI0
aI1
aI0
aI0
aI1
aI4
aI0
aa(lp39
V0020800931
p40
aVMAR 07, 2009
p41
aVNOH vs. OKC
p42
aVW
p43
aI5
aI0
aI0
aF0.0
aI0
aI0
aF0.0
aI0
aI0
aF0.0
aI0
aI1
aI1
aI1
aI0
aI0
aI0
aI0
aI0
aI0
aa(lp44
V0020800915
p45
aVMAR 05, 2009
p46
aVNOH vs. DAL
p47
aVW
p48
aI3
aI0
aI0
aF0.0
aI0
aI0
aF0.0
aI0
aI0
aF0.0
aI0
aI0
aI0
aI0
aI0
aI0
aI0
aI0
aI0
aI-2
aa(lp49
V0020800802
p50
aVFEB 18, 2009
p51
aVNOH vs. ORL
p52
aVW
p53
aI13
aI2
aI2
aF1.0
aI0
aI0
aF0.0
aI0
aI0
aF0.0
aI0
aI0
aI0
aI0
aI0
aI0
aI0
aI2
aI4
aI5
aa(lp54
V0020800793
p55
aVFEB 17, 2009
p56
aVNOH @ OKC
p57
aVW
p58
aI9
aI0
aI0
aF0.0
aI0
aI0
aF0.0
aI0
aI0
aF0.0
aI0
aI0
aI0
aI1
aI1
aI0
aI0
aI1
aI0
aI-2
aa(lp59
V0020800780
p60
aVFEB 11, 2009
p61
aVNOH vs. BOS
p62
aVL
p63
aI11
aI0
aI0
aF0.0
aI0
aI0
aF0.0
aI0
aI0
aF0.0
aI0
aI1
aI1
aI0
aI0
aI1
aI2
aI4
aI0
aI4
aa(lp64
V0020800762
p65
aVFEB 09, 2009
p66
aVNOH @ MEM
p67
aVL
p68
aI16
aI0
aI1
aF0.0
aI0
aI0
aF0.0
aI0
aI0
aF0.0
aI0
aI2
aI2
aI1
aI1
aI2
aI0
aI3
aI0
aI-3
aa(lp69
V0020800756
p70
aVFEB 08, 2009
p71
aVNOH vs. MIN
p72
aVW
p73
aI13
aI2
aI3
aF0.667
aI0
aI0
aF0.0
aI0
aI0
aF0.0
aI0
aI0
aI0
aI1
aI0
aI1
aI0
aI5
aI4
aI-12
aa(lp74
V0020800738
p75
aVFEB 06, 2009
p76
aVNOH vs. TOR
p77
aVW
p78
aI16
aI1
aI3
aF0.333
aI0
aI0
aF0.0
aI1
aI2
aF0.5
aI2
aI0
aI2
aI0
aI2
aI0
aI1
aI4
aI3
aI-13
aa(lp79
V0020800727
p80
aVFEB 04, 2009
p81
aVNOH vs. CHI
p82
aVL
p83
aI17
aI3
aI4
aF0.75
aI0
aI0
aF0.0
aI0
aI0
aF0.0
aI2
aI1
aI3
aI0
aI1
aI0
aI0
aI4
aI6
aI6
aa(lp84
V0020800673
p85
aVJAN 28, 2009
p86
aVNOH vs. DEN
p87
aVW
p88
aI7
aI2
aI2
aF1.0
aI0
aI0
aF0.0
aI0
aI0
aF0.0
aI0
aI0
aI0
aI0
aI1
aI0
aI0
aI1
aI4
aI0
aa(lp89
V0020800659
p90
aVJAN 26, 2009
p91
aVNOH vs. PHI
p92
aVW
p93
aI7
aI0
aI1
aF0.0
aI0
aI0
aF0.0
aI0
aI0
aF0.0
aI1
aI0
aI1
aI3
aI0
aI0
aI0
aI2
aI0
aI3
aa(lp94
V0020800635
p95
aVJAN 23, 2009
p96
aVNOH @ MIN
p97
aVL
p98
aI16
aI2
aI3
aF0.667
aI0
aI0
aF0.0
aI0
aI1
aF0.0
aI0
aI0
aI0
aI0
aI2
aI0
aI1
aI4
aI4
aI-8
aa(lp99
V0020800421
p100
aVDEC 25, 2008
p101
aVNOH @ ORL
p102
aVL
p103
aI10
aI1
aI2
aF0.5
aI0
aI0
aF0.0
aI0
aI0
aF0.0
aI1
aI2
aI3
aI0
aI1
aI0
aI0
aI0
aI2
aI5
aa(lp104
V0020800180
p105
aVNOV 21, 2008
p106
aVNOH @ OKC
p107
aVW
p108
aI8
aI2
aI3
aF0.667
aI0
aI0
aF0.0
aI0
aI0
aF0.0
aI0
aI3
aI3
aI0
aI1
aI0
aI0
aI1
aI4
aI-2
aasS'name'
p109
VRyan Bowen
p110
sS'experience'
p111
I9
s.