(dp0
S'age'
p1
I28
sS'stats'
p2
(lp3
(lp4
V0020801155
p5
aVAPR 07, 2009
p6
aVMIA vs. NOH
p7
aVL
p8
aI32
aI1
aI7
aF0.143
aI0
aI4
aF0.0
aI0
aI0
aF0.0
aI1
aI3
aI4
aI2
aI3
aI0
aI2
aI1
aI2
aI-4
aa(lp9
V0020801139
p10
aVAPR 04, 2009
p11
aVMIA @ WAS
p12
aVW
p13
aI20
aI5
aI5
aF1.0
aI1
aI1
aF1.0
aI0
aI0
aF0.0
aI1
aI3
aI4
aI0
aI0
aI1
aI0
aI4
aI11
aI8
aa(lp14
V0020801125
p15
aVAPR 03, 2009
p16
aVMIA @ CHA
p17
aVW
p18
aI7
aI0
aI1
aF0.0
aI0
aI1
aF0.0
aI0
aI0
aF0.0
aI0
aI0
aI0
aI0
aI0
aI0
aI0
aI0
aI0
aI-16
aa(lp19
V0020801118
p20
aVAPR 01, 2009
p21
aVMIA @ DAL
p22
aVL
p23
aI22
aI1
aI3
aF0.333
aI1
aI2
aF0.5
aI2
aI2
aF1.0
aI0
aI4
aI4
aI2
aI1
aI0
aI0
aI4
aI5
aI0
aa(lp24
V0020801100
p25
aVMAR 30, 2009
p26
aVMIA vs. ORL
p27
aVL
p28
aI19
aI1
aI2
aF0.5
aI1
aI1
aF1.0
aI0
aI0
aF0.0
aI0
aI1
aI1
aI0
aI0
aI0
aI0
aI1
aI3
aI-2
aa(lp29
V0020801086
p30
aVMAR 28, 2009
p31
aVMIA vs. MIL
p32
aVW
p33
aI20
aI2
aI5
aF0.4
aI1
aI3
aF0.333
aI0
aI0
aF0.0
aI0
aI4
aI4
aI0
aI0
aI0
aI0
aI3
aI5
aI-4
aa(lp34
V0020801071
p35
aVMAR 26, 2009
p36
aVMIA @ CHI
p37
aVL
p38
aI30
aI2
aI5
aF0.4
aI0
aI3
aF0.0
aI0
aI0
aF0.0
aI0
aI4
aI4
aI0
aI2
aI2
aI0
aI0
aI4
aI-15
aa(lp39
V0020801061
p40
aVMAR 25, 2009
p41
aVMIA @ IND
p42
aVL
p43
aI28
aI2
aI7
aF0.286
aI0
aI4
aF0.0
aI1
aI1
aF1.0
aI0
aI4
aI4
aI1
aI0
aI0
aI2
aI3
aI5
aI-11
aa(lp44
V0020801051
p45
aVMAR 23, 2009
p46
aVMIA vs. MEM
p47
aVW
p48
aI33
aI3
aI7
aF0.429
aI2
aI4
aF0.5
aI1
aI1
aF1.0
aI0
aI5
aI5
aI1
aI4
aI1
aI1
aI0
aI9
aI11
aa(lp49
V0020801041
p50
aVMAR 22, 2009
p51
aVMIA @ DET
p52
aVW
p53
aI37
aI5
aI7
aF0.714
aI3
aI5
aF0.6
aI4
aI5
aF0.8
aI0
aI6
aI6
aI1
aI1
aI3
aI0
aI3
aI17
aI10
aa(lp54
V0020801025
p55
aVMAR 20, 2009
p56
aVMIA @ NJN
p57
aVL
p58
aI11
aI0
aI3
aF0.0
aI0
aI1
aF0.0
aI0
aI0
aF0.0
aI0
aI1
aI1
aI0
aI1
aI0
aI0
aI1
aI0
aI-1
aa(lp59
V0020801009
p60
aVMAR 18, 2009
p61
aVMIA @ BOS
p62
aVL
p63
aI20
aI2
aI5
aF0.4
aI2
aI3
aF0.667
aI0
aI0
aF0.0
aI0
aI2
aI2
aI2
aI0
aI0
aI1
aI0
aI6
aI-18
aa(lp64
V0020800989
p65
aVMAR 15, 2009
p66
aVMIA @ PHI
p67
aVL
p68
aI26
aI1
aI2
aF0.5
aI1
aI2
aF0.5
aI0
aI0
aF0.0
aI1
aI6
aI7
aI6
aI0
aI0
aI0
aI1
aI3
aI-5
aa(lp69
V0020800979
p70
aVMAR 14, 2009
p71
aVMIA vs. UTA
p72
aVW
p73
aI32
aI1
aI7
aF0.143
aI1
aI4
aF0.25
aI0
aI0
aF0.0
aI1
aI8
aI9
aI1
aI1
aI0
aI0
aI1
aI3
aI-5
aa(lp74
V0020800960
p75
aVMAR 11, 2009
p76
aVMIA vs. BOS
p77
aVW
p78
aI30
aI5
aI9
aF0.556
aI3
aI5
aF0.6
aI0
aI0
aF0.0
aI0
aI8
aI8
aI3
aI1
aI1
aI0
aI3
aI13
aI8
aa(lp79
V0020800945
p80
aVMAR 09, 2009
p81
aVMIA vs. CHI
p82
aVW
p83
aI36
aI6
aI10
aF0.6
aI1
aI3
aF0.333
aI0
aI0
aF0.0
aI1
aI3
aI4
aI0
aI1
aI2
aI1
aI5
aI13
aI13
aa(lp84
V0020800928
p85
aVMAR 07, 2009
p86
aVMIA @ CLE
p87
aVL
p88
aI40
aI1
aI6
aF0.167
aI0
aI2
aF0.0
aI0
aI0
aF0.0
aI0
aI5
aI5
aI1
aI2
aI0
aI1
aI5
aI2
aI-5
aa(lp89
V0020800919
p90
aVMAR 06, 2009
p91
aVMIA @ TOR
p92
aVW
p93
aI29
aI2
aI5
aF0.4
aI1
aI4
aF0.25
aI0
aI0
aF0.0
aI0
aI5
aI5
aI2
aI1
aI2
aI1
aI0
aI5
aI3
aa(lp94
V0020800906
p95
aVMAR 04, 2009
p96
aVMIA vs. PHX
p97
aVW
p98
aI32
aI5
aI9
aF0.556
aI2
aI4
aF0.5
aI3
aI3
aF1.0
aI0
aI5
aI5
aI0
aI0
aI1
aI0
aI2
aI15
aI15
aa(lp99
V0020800894
p100
aVMAR 02, 2009
p101
aVMIA vs. CLE
p102
aVL
p103
aI37
aI5
aI10
aF0.5
aI1
aI4
aF0.25
aI0
aI1
aF0.0
aI1
aI7
aI8
aI1
aI0
aI0
aI3
aI3
aI11
aI-7
aa(lp104
V0020800877
p105
aVFEB 28, 2009
p106
aVMIA vs. NYK
p107
aVW
p108
aI39
aI7
aI14
aF0.5
aI3
aI6
aF0.5
aI0
aI0
aF0.0
aI3
aI9
aI12
aI0
aI1
aI0
aI0
aI1
aI17
aI6
aa(lp109
V0020800866
p110
aVFEB 27, 2009
p111
aVMIA @ ATL
p112
aVL
p113
aI22
aI2
aI6
aF0.333
aI0
aI2
aF0.0
aI0
aI0
aF0.0
aI0
aI1
aI1
aI0
aI0
aI1
aI0
aI1
aI4
aI-2
aa(lp114
V0020800844
p115
aVFEB 24, 2009
p116
aVMIA vs. DET
p117
aVW
p118
aI31
aI5
aI7
aF0.714
aI2
aI2
aF1.0
aI0
aI0
aF0.0
aI1
aI5
aI6
aI1
aI2
aI0
aI0
aI4
aI12
aI12
aa(lp119
V0020800832
p120
aVFEB 22, 2009
p121
aVMIA @ ORL
p122
aVL
p123
aI26
aI3
aI6
aF0.5
aI1
aI2
aF0.5
aI0
aI0
aF0.0
aI0
aI4
aI4
aI0
aI0
aI0
aI0
aI1
aI7
aI-15
aa(lp124
V0020800822
p125
aVFEB 21, 2009
p126
aVMIA vs. PHI
p127
aVW
p128
aI24
aI5
aI9
aF0.556
aI0
aI1
aF0.0
aI2
aI2
aF1.0
aI0
aI2
aI2
aI1
aI0
aI2
aI0
aI1
aI12
aI-2
aa(lp129
V0020800800
p130
aVFEB 18, 2009
p131
aVMIA vs. MIN
p132
aVL
p133
aI5
aI0
aI0
aF0.0
aI0
aI0
aF0.0
aI0
aI0
aF0.0
aI0
aI1
aI1
aI0
aI0
aI0
aI0
aI0
aI0
aI-9
aa(lp134
V0020800777
p135
aVFEB 11, 2009
p136
aVTOR vs. SAS
p137
aVW
p138
aI33
aI3
aI7
aF0.429
aI1
aI2
aF0.5
aI1
aI1
aF1.0
aI0
aI9
aI9
aI2
aI1
aI1
aI1
aI2
aI8
aI-1
aa(lp139
V0020800768
p140
aVFEB 10, 2009
p141
aVTOR @ MIN
p142
aVW
p143
aI28
aI4
aI5
aF0.8
aI1
aI1
aF1.0
aI2
aI2
aF1.0
aI1
aI8
aI9
aI4
aI0
aI0
aI2
aI2
aI11
aI21
aa(lp144
V0020800746
p145
aVFEB 07, 2009
p146
aVTOR @ MEM
p147
aVL
p148
aI28
aI2
aI4
aF0.5
aI0
aI1
aF0.0
aI2
aI2
aF1.0
aI2
aI7
aI9
aI0
aI2
aI2
aI0
aI0
aI6
aI5
aa(lp149
V0020800738
p150
aVFEB 06, 2009
p151
aVTOR @ NOH
p152
aVL
p153
aI30
aI4
aI8
aF0.5
aI0
aI1
aF0.0
aI2
aI2
aF1.0
aI2
aI5
aI7
aI2
aI1
aI1
aI0
aI1
aI10
aI0
aa(lp154
V0020800721
p155
aVFEB 04, 2009
p156
aVTOR vs. LAL
p157
aVL
p158
aI24
aI1
aI5
aF0.2
aI0
aI1
aF0.0
aI0
aI0
aF0.0
aI3
aI1
aI4
aI3
aI0
aI0
aI0
aI2
aI2
aI-6
aa(lp159
V0020800714
p160
aVFEB 03, 2009
p161
aVTOR @ CLE
p162
aVL
p163
aI5
aI0
aI2
aF0.0
aI0
aI1
aF0.0
aI1
aI2
aF0.5
aI0
aI1
aI1
aI0
aI0
aI0
aI0
aI0
aI1
aI-8
aa(lp164
V0020800703
p165
aVFEB 01, 2009
p166
aVTOR vs. ORL
p167
aVL
p168
aI20
aI3
aI5
aF0.6
aI1
aI1
aF1.0
aI0
aI0
aF0.0
aI0
aI2
aI2
aI1
aI0
aI0
aI0
aI1
aI7
aI-15
aa(lp169
V0020800684
p170
aVJAN 30, 2009
p171
aVTOR vs. MIL
p172
aVL
p173
aI26
aI2
aI3
aF0.667
aI0
aI1
aF0.0
aI0
aI0
aF0.0
aI1
aI2
aI3
aI2
aI0
aI0
aI0
aI1
aI4
aI0
aa(lp174
V0020800670
p175
aVJAN 28, 2009
p176
aVTOR @ NJN
p177
aVW
p178
aI36
aI4
aI7
aF0.571
aI2
aI3
aF0.667
aI0
aI0
aF0.0
aI0
aI4
aI4
aI0
aI1
aI3
aI0
aI1
aI10
aI-6
aa(lp179
V0020800649
p180
aVJAN 25, 2009
p181
aVTOR vs. SAC
p182
aVW
p183
aI18
aI2
aI3
aF0.667
aI1
aI1
aF1.0
aI0
aI0
aF0.0
aI1
aI1
aI2
aI1
aI0
aI0
aI0
aI0
aI5
aI11
aa(lp184
V0020800636
p185
aVJAN 23, 2009
p186
aVTOR @ CHI
p187
aVW
p188
aI23
aI3
aI5
aF0.6
aI0
aI1
aF0.0
aI0
aI0
aF0.0
aI1
aI4
aI5
aI1
aI2
aI0
aI1
aI3
aI6
aI2
aa(lp189
V0020800618
p190
aVJAN 21, 2009
p191
aVTOR @ DET
p192
aVL
p193
aI36
aI4
aI5
aF0.8
aI1
aI1
aF1.0
aI0
aI0
aF0.0
aI1
aI6
aI7
aI1
aI1
aI0
aI2
aI2
aI9
aI-10
aa(lp194
V0020800603
p195
aVJAN 19, 2009
p196
aVTOR @ ATL
p197
aVL
p198
aI41
aI4
aI9
aF0.444
aI1
aI4
aF0.25
aI0
aI0
aF0.0
aI1
aI4
aI5
aI2
aI4
aI0
aI1
aI5
aI9
aI-5
aa(lp199
V0020800599
p200
aVJAN 18, 2009
p201
aVTOR vs. PHX
p202
aVL
p203
aI43
aI6
aI9
aF0.667
aI4
aI6
aF0.667
aI0
aI0
aF0.0
aI2
aI1
aI3
aI3
aI3
aI1
aI1
aI1
aI16
aI8
aa(lp204
V0020800580
p205
aVJAN 16, 2009
p206
aVTOR @ IND
p207
aVL
p208
aI34
aI3
aI8
aF0.375
aI1
aI3
aF0.333
aI1
aI1
aF1.0
aI0
aI7
aI7
aI3
aI2
aI0
aI0
aI1
aI8
aI3
aa(lp209
V0020800568
p210
aVJAN 14, 2009
p211
aVTOR vs. CHI
p212
aVL
p213
aI34
aI3
aI9
aF0.333
aI0
aI2
aF0.0
aI5
aI5
aF1.0
aI0
aI5
aI5
aI1
aI1
aI1
aI1
aI2
aI11
aI4
aa(lp214
V0020800554
p215
aVJAN 12, 2009
p216
aVTOR @ BOS
p217
aVL
p218
aI23
aI3
aI7
aF0.429
aI2
aI4
aF0.5
aI0
aI0
aF0.0
aI0
aI1
aI1
aI1
aI1
aI2
aI1
aI2
aI8
aI0
aa(lp219
V0020800546
p220
aVJAN 11, 2009
p221
aVTOR vs. BOS
p222
aVL
p223
aI38
aI6
aI10
aF0.6
aI1
aI4
aF0.25
aI2
aI2
aF1.0
aI0
aI7
aI7
aI1
aI1
aI3
aI0
aI1
aI15
aI2
aa(lp224
V0020800530
p225
aVJAN 09, 2009
p226
aVTOR vs. MEM
p227
aVW
p228
aI31
aI3
aI9
aF0.333
aI0
aI2
aF0.0
aI0
aI0
aF0.0
aI1
aI5
aI6
aI1
aI1
aI1
aI0
aI0
aI6
aI9
aa(lp229
V0020800503
p230
aVJAN 05, 2009
p231
aVTOR @ MIL
p232
aVL
p233
aI36
aI3
aI5
aF0.6
aI0
aI2
aF0.0
aI0
aI0
aF0.0
aI0
aI5
aI5
aI0
aI0
aI0
aI1
aI3
aI6
aI4
aa(lp234
V0020800495
p235
aVJAN 04, 2009
p236
aVTOR vs. ORL
p237
aVW
p238
aI31
aI2
aI5
aF0.4
aI1
aI3
aF0.333
aI0
aI0
aF0.0
aI2
aI7
aI9
aI0
aI1
aI1
aI0
aI1
aI5
aI20
aa(lp239
V0020800474
p240
aVJAN 02, 2009
p241
aVTOR vs. HOU
p242
aVW
p243
aI23
aI3
aI5
aF0.6
aI0
aI0
aF0.0
aI1
aI2
aF0.5
aI0
aI1
aI1
aI2
aI2
aI0
aI0
aI1
aI7
aI15
aa(lp244
V0020800470
p245
aVDEC 31, 2008
p246
aVTOR vs. DEN
p247
aVL
p248
aI34
aI4
aI10
aF0.4
aI0
aI4
aF0.0
aI2
aI2
aF1.0
aI2
aI5
aI7
aI3
aI2
aI1
aI1
aI2
aI10
aI-10
aa(lp249
V0020800457
p250
aVDEC 29, 2008
p251
aVTOR @ GSW
p252
aVL
p253
aI25
aI4
aI8
aF0.5
aI3
aI4
aF0.75
aI1
aI2
aF0.5
aI2
aI2
aI4
aI2
aI1
aI2
aI1
aI2
aI12
aI-8
aa(lp254
V0020800443
p255
aVDEC 27, 2008
p256
aVTOR @ POR
p257
aVL
p258
aI29
aI4
aI8
aF0.5
aI0
aI3
aF0.0
aI0
aI0
aF0.0
aI7
aI1
aI8
aI0
aI1
aI0
aI1
aI1
aI8
aI-16
aa(lp259
V0020800434
p260
aVDEC 26, 2008
p261
aVTOR @ SAC
p262
aVW
p263
aI21
aI1
aI4
aF0.25
aI0
aI3
aF0.0
aI2
aI2
aF1.0
aI2
aI2
aI4
aI0
aI1
aI1
aI1
aI1
aI4
aI6
aa(lp264
V0020800408
p265
aVDEC 22, 2008
p266
aVTOR @ LAC
p267
aVW
p268
aI24
aI2
aI5
aF0.4
aI0
aI1
aF0.0
aI2
aI2
aF1.0
aI3
aI5
aI8
aI2
aI1
aI1
aI0
aI1
aI6
aI-3
aa(lp269
V0020800397
p270
aVDEC 20, 2008
p271
aVTOR @ SAS
p272
aVL
p273
aI19
aI1
aI5
aF0.2
aI0
aI2
aF0.0
aI0
aI0
aF0.0
aI0
aI4
aI4
aI0
aI0
aI0
aI0
aI1
aI2
aI7
aa(lp274
V0020800386
p275
aVDEC 19, 2008
p276
aVTOR @ OKC
p277
aVL
p278
aI23
aI3
aI8
aF0.375
aI1
aI4
aF0.25
aI0
aI0
aF0.0
aI0
aI5
aI5
aI0
aI1
aI0
aI0
aI4
aI7
aI-10
aa(lp279
V0020800369
p280
aVDEC 17, 2008
p281
aVTOR vs. DAL
p282
aVL
p283
aI28
aI5
aI7
aF0.714
aI3
aI3
aF1.0
aI0
aI0
aF0.0
aI1
aI8
aI9
aI2
aI1
aI1
aI0
aI1
aI13
aI-11
aa(lp284
V0020800352
p285
aVDEC 15, 2008
p286
aVTOR vs. NJN
p287
aVL
p288
aI28
aI3
aI6
aF0.5
aI0
aI1
aF0.0
aI4
aI4
aF1.0
aI1
aI8
aI9
aI1
aI2
aI1
aI1
aI4
aI10
aI1
aa(lp289
V0020800347
p290
aVDEC 14, 2008
p291
aVTOR vs. NOH
p292
aVL
p293
aI30
aI2
aI7
aF0.286
aI1
aI4
aF0.25
aI2
aI2
aF1.0
aI1
aI7
aI8
aI1
aI0
aI2
aI0
aI2
aI7
aI-9
aa(lp294
V0020800328
p295
aVDEC 12, 2008
p296
aVTOR @ NJN
p297
aVW
p298
aI28
aI4
aI10
aF0.4
aI0
aI0
aF0.0
aI0
aI0
aF0.0
aI1
aI8
aI9
aI1
aI5
aI1
aI0
aI3
aI8
aI14
aa(lp299
V0020800314
p300
aVDEC 10, 2008
p301
aVTOR vs. IND
p302
aVW
p303
aI34
aI7
aI12
aF0.583
aI1
aI3
aF0.333
aI2
aI2
aF1.0
aI2
aI6
aI8
aI1
aI2
aI3
aI0
aI1
aI17
aI10
aa(lp304
V0020800305
p305
aVDEC 09, 2008
p306
aVTOR @ CLE
p307
aVL
p308
aI13
aI0
aI2
aF0.0
aI0
aI0
aF0.0
aI2
aI2
aF1.0
aI0
aI1
aI1
aI1
aI1
aI1
aI0
aI0
aI2
aI6
aa(lp309
V0020800298
p310
aVDEC 07, 2008
p311
aVTOR vs. POR
p312
aVL
p313
aI13
aI2
aI3
aF0.667
aI0
aI0
aF0.0
aI0
aI0
aF0.0
aI1
aI3
aI4
aI1
aI0
aI0
aI1
aI1
aI4
aI5
aa(lp314
V0020800286
p315
aVDEC 05, 2008
p316
aVTOR @ UTA
p317
aVL
p318
aI18
aI1
aI3
aF0.333
aI0
aI1
aF0.0
aI0
aI0
aF0.0
aI1
aI4
aI5
aI2
aI1
aI1
aI2
aI2
aI2
aI-9
aa(lp319
V0020800261
p320
aVDEC 02, 2008
p321
aVTOR @ DEN
p322
aVL
p323
aI10
aI1
aI4
aF0.25
aI0
aI1
aF0.0
aI0
aI0
aF0.0
aI0
aI1
aI1
aI0
aI1
aI0
aI1
aI0
aI2
aI-11
aa(lp324
V0020800251
p325
aVNOV 30, 2008
p326
aVTOR @ LAL
p327
aVL
p328
aI26
aI3
aI5
aF0.6
aI2
aI3
aF0.667
aI3
aI3
aF1.0
aI0
aI1
aI1
aI3
aI3
aI1
aI0
aI4
aI11
aI-7
aa(lp329
V0020800225
p330
aVNOV 28, 2008
p331
aVTOR vs. ATL
p332
aVW
p333
aI27
aI5
aI8
aF0.625
aI0
aI1
aF0.0
aI0
aI0
aF0.0
aI1
aI3
aI4
aI0
aI1
aI0
aI1
aI2
aI10
aI-1
aa(lp334
V0020800212
p335
aVNOV 26, 2008
p336
aVTOR vs. CHA
p337
aVW
p338
aI18
aI1
aI4
aF0.25
aI1
aI1
aF1.0
aI0
aI0
aF0.0
aI0
aI0
aI0
aI1
aI1
aI1
aI0
aI2
aI3
aI2
aa(lp339
V0020800193
p340
aVNOV 23, 2008
p341
aVTOR vs. BOS
p342
aVL
p343
aI20
aI3
aI6
aF0.5
aI0
aI1
aF0.0
aI3
aI4
aF0.75
aI1
aI1
aI2
aI0
aI2
aI1
aI0
aI4
aI9
aI-10
aa(lp344
V0020800173
p345
aVNOV 21, 2008
p346
aVTOR vs. NJN
p347
aVL
p348
aI10
aI2
aI4
aF0.5
aI0
aI1
aF0.0
aI0
aI0
aF0.0
aI0
aI1
aI1
aI0
aI0
aI0
aI1
aI1
aI4
aI-15
aa(lp349
V0020800161
p350
aVNOV 19, 2008
p351
aVTOR @ MIA
p352
aVW
p353
aI13
aI1
aI2
aF0.5
aI0
aI1
aF0.0
aI1
aI2
aF0.5
aI0
aI1
aI1
aI0
aI2
aI0
aI1
aI1
aI3
aI-2
aa(lp354
V0020800151
p355
aVNOV 18, 2008
p356
aVTOR @ ORL
p357
aVL
p358
aI13
aI0
aI3
aF0.0
aI0
aI1
aF0.0
aI0
aI0
aF0.0
aI1
aI1
aI2
aI1
aI1
aI0
aI0
aI1
aI0
aI-6
aa(lp359
V0020800140
p360
aVNOV 16, 2008
p361
aVTOR vs. MIA
p362
aVW
p363
aI19
aI2
aI4
aF0.5
aI0
aI1
aF0.0
aI4
aI5
aF0.8
aI0
aI5
aI5
aI4
aI1
aI2
aI0
aI0
aI8
aI9
aa(lp364
V0020800106
p365
aVNOV 12, 2008
p366
aVTOR vs. PHI
p367
aVL
p368
aI23
aI1
aI8
aF0.125
aI1
aI4
aF0.25
aI2
aI2
aF1.0
aI0
aI3
aI3
aI0
aI1
aI0
aI1
aI1
aI5
aI-3
aa(lp369
V0020800095
p370
aVNOV 10, 2008
p371
aVTOR @ BOS
p372
aVL
p373
aI16
aI2
aI5
aF0.4
aI1
aI4
aF0.25
aI0
aI0
aF0.0
aI1
aI6
aI7
aI1
aI1
aI1
aI0
aI2
aI5
aI5
aa(lp374
V0020800085
p375
aVNOV 09, 2008
p376
aVTOR @ CHA
p377
aVW
p378
aI36
aI5
aI8
aF0.625
aI0
aI2
aF0.0
aI0
aI0
aF0.0
aI0
aI9
aI9
aI3
aI0
aI1
aI0
aI2
aI10
aI24
aa(lp379
V0020800068
p380
aVNOV 07, 2008
p381
aVTOR @ ATL
p382
aVL
p383
aI24
aI1
aI3
aF0.333
aI1
aI1
aF1.0
aI1
aI2
aF0.5
aI1
aI1
aI2
aI3
aI1
aI2
aI0
aI1
aI4
aI1
aa(lp384
V0020800052
p385
aVNOV 05, 2008
p386
aVTOR vs. DET
p387
aVL
p388
aI32
aI2
aI3
aF0.667
aI1
aI2
aF0.5
aI0
aI0
aF0.0
aI0
aI4
aI4
aI0
aI2
aI0
aI2
aI1
aI5
aI-3
aa(lp389
V0020800036
p390
aVNOV 01, 2008
p391
aVTOR @ MIL
p392
aVW
p393
aI28
aI4
aI8
aF0.5
aI3
aI6
aF0.5
aI4
aI4
aF1.0
aI0
aI2
aI2
aI2
aI1
aI1
aI0
aI1
aI15
aI9
aa(lp394
V0020800020
p395
aVOCT 31, 2008
p396
aVTOR vs. GSW
p397
aVW
p398
aI32
aI4
aI5
aF0.8
aI1
aI1
aF1.0
aI2
aI2
aF1.0
aI0
aI0
aI0
aI2
aI2
aI2
aI3
aI2
aI11
aI5
aa(lp399
V0020800005
p400
aVOCT 29, 2008
p401
aVTOR @ PHI
p402
aVW
p403
aI24
aI2
aI4
aF0.5
aI1
aI1
aF1.0
aI1
aI4
aF0.25
aI1
aI0
aI1
aI2
aI2
aI1
aI2
aI2
aI6
aI0
aasS'name'
p404
VJamario Moon
p405
sS'experience'
p406
I1
s.