(dp0
S'stats'
p1
(lp2
(lp3
V0020800003
p4
aVOCT 28, 2008
p5
aVPOR @ LAL
p6
aVL
p7
aI38
aI5
aI15
aF0.333
aI2
aI4
aF0.5
aI2
aI2
aF1.0
aI1
aI2
aI3
aI5
aI3
aI0
aI2
aI0
aI14
aI-10
aa(lp8
V0020800025
p9
aVOCT 31, 2008
p10
aVPOR vs. SAS
p11
aVW
p12
aI35
aI10
aI18
aF0.556
aI1
aI3
aF0.333
aI5
aI7
aF0.714
aI1
aI4
aI5
aI7
aI3
aI0
aI1
aI2
aI26
aI2
aa(lp13
V0020800039
p14
aVNOV 01, 2008
p15
aVPOR @ PHX
p16
aVL
p17
aI37
aI7
aI18
aF0.389
aI2
aI6
aF0.333
aI4
aI4
aF1.0
aI0
aI1
aI1
aI4
aI0
aI2
aI3
aI4
aI20
aI-23
aa(lp18
V0020800060
p19
aVNOV 05, 2008
p20
aVPOR @ UTA
p21
aVL
p22
aI36
aI6
aI16
aF0.375
aI0
aI2
aF0.0
aI6
aI6
aF1.0
aI2
aI1
aI3
aI6
aI1
aI0
aI3
aI3
aI18
aI-4
aa(lp23
V0020800065
p24
aVNOV 06, 2008
p25
aVPOR vs. HOU
p26
aVW
p27
aI40
aI6
aI18
aF0.333
aI1
aI3
aF0.333
aI4
aI4
aF1.0
aI3
aI4
aI7
aI5
aI1
aI0
aI5
aI4
aI17
aI2
aa(lp28
V0020800084
p29
aVNOV 08, 2008
p30
aVPOR vs. MIN
p31
aVW
p32
aI35
aI7
aI15
aF0.467
aI1
aI2
aF0.5
aI9
aI12
aF0.75
aI1
aI4
aI5
aI9
aI0
aI0
aI3
aI2
aI24
aI3
aa(lp33
V0020800094
p34
aVNOV 10, 2008
p35
aVPOR @ ORL
p36
aVW
p37
aI39
aI10
aI22
aF0.455
aI0
aI1
aF0.0
aI7
aI8
aF0.875
aI1
aI2
aI3
aI4
aI0
aI0
aI1
aI0
aI27
aI5
aa(lp38
V0020800108
p39
aVNOV 12, 2008
p40
aVPOR @ MIA
p41
aVW
p42
aI36
aI6
aI13
aF0.462
aI0
aI0
aF0.0
aI10
aI13
aF0.769
aI2
aI3
aI5
aI2
aI0
aI0
aI3
aI0
aI22
aI7
aa(lp43
V0020800127
p44
aVNOV 14, 2008
p45
aVPOR @ NOH
p46
aVL
p47
aI42
aI7
aI17
aF0.412
aI2
aI5
aF0.4
aI5
aI6
aF0.833
aI1
aI2
aI3
aI6
aI2
aI0
aI1
aI1
aI21
aI5
aa(lp48
V0020800136
p49
aVNOV 15, 2008
p50
aVPOR @ MIN
p51
aVW
p52
aI40
aI9
aI18
aF0.5
aI0
aI0
aF0.0
aI6
aI7
aF0.857
aI2
aI1
aI3
aI6
aI0
aI0
aI0
aI2
aI24
aI11
aa(lp53
V0020800157
p54
aVNOV 18, 2008
p55
aVPOR @ GSW
p56
aVL
p57
aI40
aI7
aI14
aF0.5
aI3
aI3
aF1.0
aI5
aI8
aF0.625
aI1
aI3
aI4
aI9
aI4
aI0
aI3
aI3
aI22
aI7
aa(lp58
V0020800168
p59
aVNOV 19, 2008
p60
aVPOR vs. CHI
p61
aVW
p62
aI28
aI7
aI13
aF0.538
aI0
aI1
aF0.0
aI6
aI6
aF1.0
aI2
aI3
aI5
aI2
aI2
aI0
aI1
aI0
aI20
aI26
aa(lp63
V0020800181
p64
aVNOV 21, 2008
p65
aVPOR @ SAC
p66
aVW
p67
aI27
aI6
aI8
aF0.75
aI0
aI1
aF0.0
aI4
aI4
aF1.0
aI1
aI2
aI3
aI3
aI1
aI0
aI3
aI1
aI16
aI20
aa(lp68
V0020800192
p69
aVNOV 22, 2008
p70
aVPOR @ PHX
p71
aVL
p72
aI42
aI10
aI23
aF0.435
aI2
aI7
aF0.286
aI4
aI4
aF1.0
aI0
aI4
aI4
aI4
aI1
aI0
aI1
aI2
aI26
aI-5
aa(lp73
V0020800203
p74
aVNOV 24, 2008
p75
aVPOR vs. SAC
p76
aVW
p77
aI36
aI10
aI19
aF0.526
aI3
aI3
aF1.0
aI5
aI5
aF1.0
aI2
aI2
aI4
aI3
aI0
aI0
aI3
aI0
aI28
aI-3
aa(lp78
V0020800220
p79
aVNOV 26, 2008
p80
aVPOR vs. MIA
p81
aVW
p82
aI30
aI2
aI11
aF0.182
aI0
aI4
aF0.0
aI4
aI6
aF0.667
aI4
aI3
aI7
aI6
aI0
aI0
aI1
aI0
aI8
aI14
aa(lp83
V0020800234
p84
aVNOV 28, 2008
p85
aVPOR vs. NOH
p86
aVW
p87
aI38
aI11
aI16
aF0.688
aI1
aI3
aF0.333
aI2
aI2
aF1.0
aI1
aI5
aI6
aI10
aI0
aI1
aI2
aI1
aI25
aI11
aa(lp88
V0020800247
p89
aVNOV 30, 2008
p90
aVPOR @ DET
p91
aVW
p92
aI33
aI7
aI13
aF0.538
aI1
aI2
aF0.5
aI4
aI5
aF0.8
aI2
aI2
aI4
aI5
aI0
aI0
aI0
aI3
aI19
aI19
aa(lp93
V0020800257
p94
aVDEC 02, 2008
p95
aVPOR @ NYK
p96
aVW
p97
aI38
aI9
aI19
aF0.474
aI0
aI2
aF0.0
aI5
aI6
aF0.833
aI1
aI5
aI6
aI5
aI3
aI0
aI6
aI3
aI23
aI-7
aa(lp98
V0020800268
p99
aVDEC 03, 2008
p100
aVPOR @ WAS
p101
aVW
p102
aI34
aI9
aI19
aF0.474
aI0
aI1
aF0.0
aI4
aI6
aF0.667
aI4
aI4
aI8
aI4
aI0
aI0
aI4
aI3
aI22
aI12
aa(lp103
V0020800281
p104
aVDEC 05, 2008
p105
aVPOR @ BOS
p106
aVL
p107
aI28
aI3
aI11
aF0.273
aI0
aI1
aF0.0
aI6
aI8
aF0.75
aI1
aI1
aI2
aI3
aI2
aI0
aI0
aI3
aI12
aI-18
aa(lp108
V0020800298
p109
aVDEC 07, 2008
p110
aVPOR @ TOR
p111
aVW
p112
aI41
aI6
aI16
aF0.375
aI0
aI3
aF0.0
aI3
aI3
aF1.0
aI0
aI5
aI5
aI7
aI0
aI0
aI2
aI1
aI15
aI0
aa(lp113
V0020800312
p114
aVDEC 09, 2008
p115
aVPOR vs. ORL
p116
aVL
p117
aI38
aI10
aI20
aF0.5
aI1
aI4
aF0.25
aI9
aI14
aF0.643
aI1
aI8
aI9
aI5
aI0
aI2
aI1
aI0
aI30
aI-9
aa(lp118
V0020800325
p119
aVDEC 11, 2008
p120
aVPOR @ UTA
p121
aVL
p122
aI43
aI12
aI22
aF0.545
aI2
aI6
aF0.333
aI7
aI8
aF0.875
aI2
aI6
aI8
aI0
aI0
aI1
aI2
aI3
aI33
aI-4
aa(lp123
V0020800334
p124
aVDEC 12, 2008
p125
aVPOR vs. LAC
p126
aVL
p127
aI53
aI15
aI30
aF0.5
aI1
aI3
aF0.333
aI7
aI7
aF1.0
aI2
aI2
aI4
aI9
aI0
aI2
aI1
aI1
aI38
aI1
aa(lp128
V0020800364
p129
aVDEC 16, 2008
p130
aVPOR vs. SAC
p131
aVW
p132
aI31
aI7
aI12
aF0.583
aI0
aI0
aF0.0
aI15
aI15
aF1.0
aI0
aI2
aI2
aI5
aI4
aI1
aI2
aI2
aI29
aI26
aa(lp133
V0020800376
p134
aVDEC 18, 2008
p135
aVPOR vs. PHX
p136
aVW
p137
aI44
aI14
aI27
aF0.519
aI5
aI7
aF0.714
aI19
aI21
aF0.905
aI1
aI4
aI5
aI6
aI0
aI1
aI0
aI1
aI52
aI12
aa(lp138
V0020800407
p139
aVDEC 22, 2008
p140
aVPOR @ DEN
p141
aVL
p142
aI32
aI3
aI11
aF0.273
aI0
aI1
aF0.0
aI2
aI2
aF1.0
aI1
aI5
aI6
aI5
aI3
aI0
aI3
aI5
aI8
aI-2
aa(lp143
V0020800420
p144
aVDEC 23, 2008
p145
aVPOR vs. DEN
p146
aVW
p147
aI37
aI6
aI13
aF0.462
aI1
aI2
aF0.5
aI6
aI7
aF0.857
aI1
aI2
aI3
aI6
aI1
aI1
aI2
aI1
aI19
aI3
aa(lp148
V0020800425
p149
aVDEC 25, 2008
p150
aVPOR vs. DAL
p151
aVL
p152
aI42
aI8
aI20
aF0.4
aI0
aI1
aF0.0
aI6
aI9
aF0.667
aI2
aI3
aI5
aI3
aI1
aI0
aI1
aI1
aI22
aI-3
aa(lp153
V0020800443
p154
aVDEC 27, 2008
p155
aVPOR vs. TOR
p156
aVW
p157
aI38
aI14
aI19
aF0.737
aI2
aI4
aF0.5
aI2
aI2
aF1.0
aI0
aI1
aI1
aI9
aI0
aI1
aI2
aI1
aI32
aI18
aa(lp158
V0020800545
p159
aVJAN 10, 2009
p160
aVPOR vs. GSW
p161
aVW
p162
aI31
aI8
aI15
aF0.533
aI0
aI1
aF0.0
aI3
aI5
aF0.6
aI1
aI5
aI6
aI5
aI2
aI0
aI1
aI1
aI19
aI20
aa(lp163
V0020800557
p164
aVJAN 12, 2009
p165
aVPOR @ CHI
p166
aVW
p167
aI35
aI3
aI13
aF0.231
aI1
aI1
aF1.0
aI4
aI4
aF1.0
aI2
aI6
aI8
aI3
aI0
aI0
aI3
aI2
aI11
aI12
aa(lp168
V0020800567
p169
aVJAN 14, 2009
p170
aVPOR @ PHI
p171
aVL
p172
aI36
aI10
aI17
aF0.588
aI0
aI1
aF0.0
aI7
aI8
aF0.875
aI2
aI3
aI5
aI6
aI1
aI0
aI4
aI1
aI27
aI-7
aa(lp173
V0020800577
p174
aVJAN 15, 2009
p175
aVPOR @ NJN
p176
aVW
p177
aI40
aI8
aI16
aF0.5
aI0
aI2
aF0.0
aI13
aI16
aF0.813
aI2
aI6
aI8
aI5
aI2
aI0
aI0
aI1
aI29
aI-1
aa(lp178
V0020800591
p179
aVJAN 17, 2009
p180
aVPOR @ CHA
p181
aVL
p182
aI45
aI7
aI18
aF0.389
aI0
aI2
aF0.0
aI3
aI10
aF0.3
aI1
aI5
aI6
aI6
aI2
aI1
aI1
aI6
aI17
aI1
aa(lp183
V0020800611
p184
aVJAN 19, 2009
p185
aVPOR vs. MIL
p186
aVW
p187
aI36
aI4
aI13
aF0.308
aI0
aI2
aF0.0
aI1
aI2
aF0.5
aI2
aI4
aI6
aI7
aI0
aI0
aI2
aI1
aI9
aI30
aa(lp188
V0020800624
p189
aVJAN 21, 2009
p190
aVPOR vs. CLE
p191
aVL
p192
aI38
aI8
aI23
aF0.348
aI1
aI4
aF0.25
aI6
aI7
aF0.857
aI1
aI1
aI2
aI3
aI0
aI1
aI1
aI2
aI23
aI-14
aa(lp193
V0020800645
p194
aVJAN 24, 2009
p195
aVPOR vs. WAS
p196
aVW
p197
aI39
aI7
aI18
aF0.389
aI2
aI3
aF0.667
aI6
aI8
aF0.75
aI2
aI3
aI5
aI7
aI10
aI2
aI1
aI5
aI22
aI23
aa(lp198
V0020800661
p199
aVJAN 26, 2009
p200
aVPOR @ LAC
p201
aVW
p202
aI34
aI11
aI15
aF0.733
aI2
aI2
aF1.0
aI9
aI10
aF0.9
aI2
aI2
aI4
aI2
aI1
aI0
aI1
aI0
aI33
aI7
aa(lp203
V0020800677
p204
aVJAN 28, 2009
p205
aVPOR vs. CHA
p206
aVW
p207
aI35
aI8
aI15
aF0.533
aI0
aI1
aF0.0
aI1
aI1
aF1.0
aI0
aI2
aI2
aI3
aI0
aI0
aI1
aI1
aI17
aI2
aa(lp208
V0020800701
p209
aVJAN 31, 2009
p210
aVPOR vs. UTA
p211
aVW
p212
aI35
aI11
aI19
aF0.579
aI2
aI4
aF0.5
aI6
aI8
aF0.75
aI2
aI1
aI3
aI5
aI0
aI0
aI1
aI1
aI30
aI15
aa(lp213
V0020800710
p214
aVFEB 02, 2009
p215
aVPOR @ NOH
p216
aVW
p217
aI39
aI2
aI10
aF0.2
aI0
aI1
aF0.0
aI2
aI2
aF1.0
aI2
aI2
aI4
aI5
aI1
aI0
aI3
aI2
aI6
aI6
aa(lp218
V0020800729
p219
aVFEB 04, 2009
p220
aVPOR @ DAL
p221
aVL
p222
aI40
aI10
aI20
aF0.5
aI4
aI5
aF0.8
aI2
aI2
aF1.0
aI0
aI7
aI7
aI2
aI0
aI0
aI5
aI1
aI26
aI-5
aa(lp223
V0020800739
p224
aVFEB 06, 2009
p225
aVPOR @ OKC
p226
aVL
p227
aI45
aI12
aI27
aF0.444
aI3
aI4
aF0.75
aI5
aI6
aF0.833
aI5
aI4
aI9
aI6
aI0
aI0
aI3
aI1
aI32
aI-5
aa(lp228
V0020800754
p229
aVFEB 08, 2009
p230
aVPOR vs. NYK
p231
aVW
p232
aI40
aI9
aI16
aF0.563
aI1
aI4
aF0.25
aI0
aI0
aF0.0
aI0
aI4
aI4
aI8
aI1
aI0
aI1
aI1
aI19
aI14
aa(lp233
V0020800783
p234
aVFEB 11, 2009
p235
aVPOR vs. OKC
p236
aVW
p237
aI38
aI8
aI18
aF0.444
aI1
aI3
aF0.333
aI5
aI6
aF0.833
aI0
aI6
aI6
aI5
aI0
aI0
aI1
aI2
aI22
aI6
aa(lp238
V0020800787
p239
aVFEB 12, 2009
p240
aVPOR @ GSW
p241
aVL
p242
aI42
aI14
aI21
aF0.667
aI3
aI5
aF0.6
aI6
aI8
aF0.75
aI2
aI0
aI2
aI2
aI2
aI0
aI3
aI4
aI37
aI-7
aa(lp243
V0020800805
p244
aVFEB 18, 2009
p245
aVPOR vs. MEM
p246
aVW
p247
aI37
aI9
aI15
aF0.6
aI1
aI1
aF1.0
aI5
aI5
aF1.0
aI2
aI3
aI5
aI9
aI1
aI0
aI4
aI2
aI24
aI0
aa(lp248
V0020800820
p249
aVFEB 20, 2009
p250
aVPOR vs. ATL
p251
aVW
p252
aI40
aI12
aI22
aF0.545
aI2
aI3
aF0.667
aI1
aI2
aF0.5
aI2
aI5
aI7
aI5
aI2
aI0
aI0
aI1
aI27
aI8
aa(lp253
V0020800833
p254
aVFEB 22, 2009
p255
aVPOR vs. LAC
p256
aVW
p257
aI33
aI7
aI11
aF0.636
aI1
aI2
aF0.5
aI5
aI6
aF0.833
aI2
aI6
aI8
aI9
aI0
aI0
aI1
aI2
aI20
aI15
aa(lp258
V0020800847
p259
aVFEB 24, 2009
p260
aVPOR @ HOU
p261
aVL
p262
aI41
aI10
aI23
aF0.435
aI0
aI4
aF0.0
aI4
aI4
aF1.0
aI2
aI3
aI5
aI5
aI0
aI0
aI3
aI3
aI24
aI7
aa(lp263
V0020800857
p264
aVFEB 25, 2009
p265
aVPOR @ SAS
p266
aVL
p267
aI39
aI5
aI18
aF0.278
aI0
aI2
aF0.0
aI4
aI4
aF1.0
aI2
aI3
aI5
aI3
aI1
aI0
aI1
aI0
aI14
aI-18
aa(lp268
V0020800869
p269
aVFEB 27, 2009
p270
aVPOR @ MIN
p271
aVW
p272
aI31
aI7
aI12
aF0.583
aI1
aI1
aF1.0
aI4
aI5
aF0.8
aI0
aI2
aI2
aI5
aI1
aI0
aI2
aI1
aI19
aI22
aa(lp273
V0020800889
p274
aVMAR 01, 2009
p275
aVPOR vs. SAS
p276
aVW
p277
aI27
aI11
aI17
aF0.647
aI2
aI4
aF0.5
aI2
aI2
aF1.0
aI0
aI1
aI1
aI2
aI1
aI0
aI0
aI1
aI26
aI17
aa(lp278
V0020800913
p279
aVMAR 04, 2009
p280
aVPOR vs. IND
p281
aVW
p282
aI42
aI10
aI19
aF0.526
aI0
aI2
aF0.0
aI8
aI8
aF1.0
aI1
aI5
aI6
aI3
aI2
aI0
aI4
aI1
aI28
aI7
aa(lp283
V0020800916
p284
aVMAR 05, 2009
p285
aVPOR @ DEN
p286
aVL
p287
aI40
aI9
aI16
aF0.563
aI0
aI2
aF0.0
aI4
aI9
aF0.444
aI0
aI1
aI1
aI4
aI1
aI0
aI1
aI1
aI22
aI-7
aa(lp288
V0020800934
p289
aVMAR 07, 2009
p290
aVPOR vs. MIN
p291
aVW
p292
aI38
aI13
aI19
aF0.684
aI2
aI2
aF1.0
aI3
aI4
aF0.75
aI2
aI2
aI4
aI6
aI1
aI0
aI2
aI1
aI31
aI4
aa(lp293
V0020800948
p294
aVMAR 09, 2009
p295
aVPOR vs. LAL
p296
aVW
p297
aI38
aI8
aI18
aF0.444
aI1
aI4
aF0.25
aI10
aI11
aF0.909
aI0
aI6
aI6
aI5
aI1
aI0
aI1
aI1
aI27
aI30
aa(lp298
V0020800964
p299
aVMAR 11, 2009
p300
aVPOR vs. DAL
p301
aVL
p302
aI43
aI7
aI20
aF0.35
aI1
aI4
aF0.25
aI7
aI8
aF0.875
aI1
aI2
aI3
aI6
aI1
aI0
aI4
aI2
aI22
aI-2
aa(lp303
V0020800976
p304
aVMAR 13, 2009
p305
aVPOR vs. NJN
p306
aVW
p307
aI45
aI8
aI21
aF0.381
aI0
aI2
aF0.0
aI15
aI17
aF0.882
aI1
aI1
aI2
aI3
aI2
aI0
aI0
aI1
aI31
aI13
aa(lp308
V0020800985
p309
aVMAR 15, 2009
p310
aVPOR @ ATL
p311
aVL
p312
aI39
aI11
aI19
aF0.579
aI1
aI2
aF0.5
aI6
aI6
aF1.0
aI1
aI3
aI4
aI5
aI0
aI0
aI1
aI0
aI29
aI-13
aa(lp313
V0020800997
p314
aVMAR 16, 2009
p315
aVPOR @ MEM
p316
aVW
p317
aI39
aI8
aI19
aF0.421
aI2
aI4
aF0.5
aI2
aI3
aF0.667
aI3
aI3
aI6
aI9
aI0
aI0
aI3
aI3
aI20
aI8
aa(lp318
V0020801011
p319
aVMAR 18, 2009
p320
aVPOR @ IND
p321
aVW
p322
aI34
aI8
aI20
aF0.4
aI2
aI4
aF0.5
aI2
aI3
aF0.667
aI1
aI5
aI6
aI6
aI2
aI1
aI1
aI2
aI20
aI25
aa(lp323
V0020801021
p324
aVMAR 19, 2009
p325
aVPOR @ CLE
p326
aVL
p327
aI47
aI6
aI16
aF0.375
aI1
aI4
aF0.25
aI11
aI11
aF1.0
aI0
aI7
aI7
aI7
aI0
aI0
aI2
aI2
aI24
aI1
aa(lp328
V0020801039
p329
aVMAR 21, 2009
p330
aVPOR @ MIL
p331
aVW
p332
aI41
aI11
aI19
aF0.579
aI1
aI3
aF0.333
aI7
aI9
aF0.778
aI2
aI6
aI8
aI7
aI2
aI1
aI1
aI2
aI30
aI17
aa(lp333
V0020801054
p334
aVMAR 23, 2009
p335
aVPOR vs. PHI
p336
aVL
p337
aI46
aI5
aI18
aF0.278
aI1
aI6
aF0.167
aI1
aI1
aF1.0
aI1
aI5
aI6
aI3
aI2
aI0
aI3
aI0
aI12
aI3
aa(lp338
V0020801072
p339
aVMAR 26, 2009
p340
aVPOR vs. PHX
p341
aVW
p342
aI34
aI11
aI19
aF0.579
aI2
aI4
aF0.5
aI2
aI2
aF1.0
aI0
aI9
aI9
aI6
aI3
aI1
aI2
aI2
aI26
aI24
aa(lp343
V0020801090
p344
aVMAR 28, 2009
p345
aVPOR vs. MEM
p346
aVW
p347
aI32
aI7
aI13
aF0.538
aI1
aI4
aF0.25
aI6
aI8
aF0.75
aI4
aI4
aI8
aI4
aI2
aI0
aI3
aI1
aI21
aI22
aa(lp348
V0020801111
p349
aVMAR 31, 2009
p350
aVPOR vs. UTA
p351
aVW
p352
aI38
aI10
aI14
aF0.714
aI2
aI3
aF0.667
aI3
aI5
aF0.6
aI1
aI5
aI6
aI11
aI2
aI1
aI2
aI3
aI25
aI27
aa(lp353
V0020801129
p354
aVAPR 03, 2009
p355
aVPOR @ OKC
p356
aVW
p357
aI27
aI5
aI12
aF0.417
aI1
aI1
aF1.0
aI4
aI6
aF0.667
aI0
aI6
aI6
aI2
aI0
aI0
aI0
aI1
aI15
aI30
aa(lp358
V0020801146
p359
aVAPR 05, 2009
p360
aVPOR @ HOU
p361
aVL
p362
aI34
aI8
aI20
aF0.4
aI2
aI5
aF0.4
aI4
aI4
aF1.0
aI2
aI1
aI3
aI6
aI0
aI0
aI2
aI1
aI22
aI-5
aa(lp363
V0020801156
p364
aVAPR 07, 2009
p365
aVPOR @ MEM
p366
aVW
p367
aI38
aI7
aI16
aF0.438
aI2
aI4
aF0.5
aI8
aI11
aF0.727
aI2
aI1
aI3
aI4
aI3
aI0
aI3
aI0
aI24
aI-4
aa(lp368
V0020801169
p369
aVAPR 08, 2009
p370
aVPOR @ SAS
p371
aVW
p372
aI38
aI9
aI19
aF0.474
aI0
aI3
aF0.0
aI8
aI8
aF1.0
aI0
aI3
aI3
aI6
aI0
aI1
aI6
aI2
aI26
aI17
aa(lp373
V0020801186
p374
aVAPR 10, 2009
p375
aVPOR vs. LAL
p376
aVW
p377
aI37
aI8
aI18
aF0.444
aI2
aI5
aF0.4
aI6
aI6
aF1.0
aI2
aI2
aI4
aI8
aI1
aI1
aI2
aI1
aI24
aI2
aa(lp378
V0020801195
p379
aVAPR 11, 2009
p380
aVPOR @ LAC
p381
aVW
p382
aI40
aI5
aI8
aF0.625
aI0
aI1
aF0.0
aI5
aI10
aF0.5
aI0
aI3
aI3
aI4
aI2
aI0
aI3
aI3
aI15
aI19
aa(lp383
V0020801212
p384
aVAPR 13, 2009
p385
aVPOR vs. OKC
p386
aVW
p387
aI22
aI7
aI10
aF0.7
aI1
aI2
aF0.5
aI5
aI5
aF1.0
aI0
aI2
aI2
aI1
aI0
aI0
aI0
aI1
aI20
aI20
aa(lp388
V0020801230
p389
aVAPR 15, 2009
p390
aVPOR vs. DEN
p391
aVW
p392
aI23
aI2
aI7
aF0.286
aI0
aI2
aF0.0
aI2
aI2
aF1.0
aI1
aI4
aI5
aI3
aI1
aI0
aI1
aI1
aI6
aI3
aasS'name'
p393
VBrandon Roy
p394
sS'weight'
p395
V211
p396
sS'age'
p397
I24
sS'experience'
p398
I2
sS'height'
p399
V6-6
p400
sS'position'
p401
VGuard
p402
s.