(dp0
S'age'
p1
I22
sS'stats'
p2
(lp3
(lp4
V0020800113
p5
aVNOV 12, 2008
p6
aVOKC vs. ORL
p7
aVL
p8
aI4
aI0
aI0
aF0.0
aI0
aI0
aF0.0
aI1
aI2
aF0.5
aI0
aI2
aI2
aI0
aI0
aI0
aI0
aI0
aI1
aI7
aa(lp9
V0020800134
p10
aVNOV 15, 2008
p11
aVOKC @ PHI
p12
aVL
p13
aI6
aI3
aI4
aF0.75
aI0
aI0
aF0.0
aI0
aI0
aF0.0
aI1
aI2
aI3
aI0
aI0
aI0
aI1
aI0
aI6
aI0
aa(lp14
V0020800165
p15
aVNOV 19, 2008
p16
aVOKC vs. LAC
p17
aVL
p18
aI2
aI1
aI1
aF1.0
aI0
aI0
aF0.0
aI0
aI0
aF0.0
aI0
aI0
aI0
aI0
aI0
aI1
aI0
aI0
aI2
aI0
aa(lp19
V0020800180
p20
aVNOV 21, 2008
p21
aVOKC vs. NOH
p22
aVL
p23
aI6
aI1
aI2
aF0.5
aI0
aI0
aF0.0
aI2
aI3
aF0.667
aI2
aI2
aI4
aI0
aI0
aI0
aI1
aI1
aI4
aI1
aa(lp24
V0020800211
p25
aVNOV 26, 2008
p26
aVOKC @ CLE
p27
aVL
p28
aI6
aI0
aI0
aF0.0
aI0
aI0
aF0.0
aI4
aI4
aF1.0
aI0
aI0
aI0
aI0
aI1
aI1
aI1
aI1
aI4
aI-3
aa(lp29
V0020801225
p30
aVAPR 15, 2009
p31
aVNYK vs. NJN
p32
aVW
p33
aI6
aI1
aI2
aF0.5
aI0
aI0
aF0.0
aI1
aI1
aF1.0
aI2
aI3
aI5
aI0
aI0
aI1
aI1
aI0
aI3
aI0
aasS'name'
p34
VMouhamed Sene
p35
sS'experience'
p36
I2
s.