(dp0
S'stats'
p1
(lp2
(lp3
V0020800001
p4
aVOCT 28, 2008
p5
aVBOS vs. CLE
p6
aVW
p7
aI30
aI4
aI5
aF0.8
aI0
aI0
aF0.0
aI6
aI10
aF0.6
aI1
aI4
aI5
aI6
aI3
aI0
aI2
aI5
aI14
aI4
aa(lp8
V0020800022
p9
aVOCT 31, 2008
p10
aVBOS vs. CHI
p11
aVW
p12
aI30
aI4
aI8
aF0.5
aI0
aI0
aF0.0
aI6
aI11
aF0.545
aI0
aI3
aI3
aI6
aI1
aI0
aI3
aI1
aI14
aI16
aa(lp13
V0020800028
p14
aVNOV 01, 2008
p15
aVBOS @ IND
p16
aVL
p17
aI25
aI1
aI4
aF0.25
aI0
aI0
aF0.0
aI0
aI3
aF0.0
aI3
aI3
aI6
aI4
aI1
aI0
aI0
aI4
aI2
aI-22
aa(lp18
V0020800049
p19
aVNOV 04, 2008
p20
aVBOS @ HOU
p21
aVW
p22
aI29
aI5
aI10
aF0.5
aI0
aI0
aF0.0
aI0
aI0
aF0.0
aI2
aI5
aI7
aI7
aI0
aI0
aI2
aI3
aI10
aI-8
aa(lp23
V0020800059
p24
aVNOV 05, 2008
p25
aVBOS @ OKC
p26
aVW
p27
aI33
aI2
aI2
aF1.0
aI0
aI0
aF0.0
aI0
aI2
aF0.0
aI0
aI2
aI2
aI11
aI2
aI0
aI3
aI2
aI4
aI4
aa(lp28
V0020800069
p29
aVNOV 07, 2008
p30
aVBOS vs. MIL
p31
aVW
p32
aI33
aI3
aI5
aF0.6
aI0
aI1
aF0.0
aI2
aI2
aF1.0
aI0
aI2
aI2
aI8
aI3
aI1
aI3
aI2
aI8
aI13
aa(lp33
V0020800088
p34
aVNOV 09, 2008
p35
aVBOS @ DET
p36
aVW
p37
aI32
aI4
aI5
aF0.8
aI0
aI0
aF0.0
aI5
aI7
aF0.714
aI1
aI0
aI1
aI5
aI2
aI0
aI3
aI4
aI13
aI0
aa(lp38
V0020800095
p39
aVNOV 10, 2008
p40
aVBOS vs. TOR
p41
aVW
p42
aI33
aI2
aI8
aF0.25
aI0
aI1
aF0.0
aI0
aI0
aF0.0
aI1
aI4
aI5
aI3
aI1
aI0
aI2
aI2
aI4
aI10
aa(lp43
V0020800107
p44
aVNOV 12, 2008
p45
aVBOS vs. ATL
p46
aVW
p47
aI31
aI2
aI8
aF0.25
aI0
aI1
aF0.0
aI1
aI4
aF0.25
aI0
aI4
aI4
aI10
aI1
aI0
aI3
aI4
aI5
aI3
aa(lp48
V0020800125
p49
aVNOV 14, 2008
p50
aVBOS vs. DEN
p51
aVL
p52
aI30
aI1
aI8
aF0.125
aI0
aI1
aF0.0
aI0
aI0
aF0.0
aI0
aI0
aI0
aI7
aI7
aI0
aI1
aI3
aI2
aI6
aa(lp53
V0020800139
p54
aVNOV 15, 2008
p55
aVBOS @ MIL
p56
aVW
p57
aI36
aI0
aI1
aF0.0
aI0
aI0
aF0.0
aI2
aI2
aF1.0
aI0
aI5
aI5
aI6
aI2
aI1
aI2
aI3
aI2
aI-2
aa(lp58
V0020800153
p59
aVNOV 18, 2008
p60
aVBOS vs. NYK
p61
aVW
p62
aI28
aI7
aI11
aF0.636
aI0
aI0
aF0.0
aI1
aI2
aF0.5
aI1
aI7
aI8
aI7
aI2
aI0
aI2
aI2
aI15
aI1
aa(lp63
V0020800169
p64
aVNOV 20, 2008
p65
aVBOS vs. DET
p66
aVW
p67
aI26
aI7
aI11
aF0.636
aI1
aI1
aF1.0
aI3
aI4
aF0.75
aI0
aI1
aI1
aI8
aI3
aI0
aI2
aI4
aI18
aI10
aa(lp68
V0020800176
p69
aVNOV 21, 2008
p70
aVBOS @ MIN
p71
aVW
p72
aI31
aI5
aI13
aF0.385
aI2
aI3
aF0.667
aI1
aI2
aF0.5
aI0
aI7
aI7
aI5
aI3
aI0
aI1
aI1
aI13
aI25
aa(lp73
V0020800193
p74
aVNOV 23, 2008
p75
aVBOS @ TOR
p76
aVW
p77
aI26
aI6
aI11
aF0.545
aI0
aI0
aF0.0
aI3
aI4
aF0.75
aI0
aI2
aI2
aI4
aI2
aI0
aI3
aI1
aI15
aI18
aa(lp78
V0020800213
p79
aVNOV 26, 2008
p80
aVBOS vs. GSW
p81
aVW
p82
aI35
aI9
aI15
aF0.6
aI0
aI1
aF0.0
aI4
aI4
aF1.0
aI4
aI4
aI8
aI7
aI2
aI0
aI0
aI2
aI22
aI18
aa(lp83
V0020800226
p84
aVNOV 28, 2008
p85
aVBOS vs. PHI
p86
aVW
p87
aI28
aI3
aI5
aF0.6
aI0
aI0
aF0.0
aI0
aI0
aF0.0
aI0
aI6
aI6
aI12
aI3
aI0
aI1
aI0
aI6
aI18
aa(lp88
V0020800236
p89
aVNOV 29, 2008
p90
aVBOS @ CHA
p91
aVW
p92
aI32
aI2
aI2
aF1.0
aI0
aI0
aF0.0
aI0
aI2
aF0.0
aI2
aI2
aI4
aI9
aI2
aI0
aI2
aI5
aI4
aI0
aa(lp93
V0020800253
p94
aVDEC 01, 2008
p95
aVBOS vs. ORL
p96
aVW
p97
aI34
aI6
aI10
aF0.6
aI0
aI1
aF0.0
aI4
aI4
aF1.0
aI0
aI4
aI4
aI12
aI1
aI0
aI3
aI2
aI16
aI20
aa(lp98
V0020800269
p99
aVDEC 03, 2008
p100
aVBOS vs. IND
p101
aVW
p102
aI41
aI5
aI10
aF0.5
aI0
aI1
aF0.0
aI6
aI7
aF0.857
aI2
aI11
aI13
aI17
aI3
aI0
aI4
aI4
aI16
aI30
aa(lp103
V0020800281
p104
aVDEC 05, 2008
p105
aVBOS vs. POR
p106
aVW
p107
aI33
aI6
aI8
aF0.75
aI1
aI1
aF1.0
aI3
aI4
aF0.75
aI1
aI7
aI8
aI7
aI2
aI0
aI2
aI1
aI16
aI27
aa(lp108
V0020800299
p109
aVDEC 07, 2008
p110
aVBOS @ IND
p111
aVW
p112
aI36
aI3
aI6
aF0.5
aI0
aI0
aF0.0
aI1
aI2
aF0.5
aI1
aI5
aI6
aI7
aI4
aI0
aI6
aI4
aI7
aI3
aa(lp113
V0020800323
p114
aVDEC 11, 2008
p115
aVBOS @ WAS
p116
aVW
p117
aI24
aI4
aI7
aF0.571
aI0
aI0
aF0.0
aI3
aI4
aF0.75
aI0
aI2
aI2
aI6
aI3
aI0
aI0
aI3
aI11
aI3
aa(lp118
V0020800329
p119
aVDEC 12, 2008
p120
aVBOS vs. NOH
p121
aVW
p122
aI32
aI4
aI12
aF0.333
aI0
aI1
aF0.0
aI2
aI2
aF1.0
aI2
aI4
aI6
aI2
aI1
aI0
aI2
aI4
aI10
aI5
aa(lp123
V0020800354
p124
aVDEC 15, 2008
p125
aVBOS vs. UTA
p126
aVW
p127
aI39
aI7
aI14
aF0.5
aI0
aI0
aF0.0
aI11
aI15
aF0.733
aI3
aI6
aI9
aI8
aI3
aI0
aI6
aI3
aI25
aI8
aa(lp128
V0020800366
p129
aVDEC 17, 2008
p130
aVBOS @ ATL
p131
aVW
p132
aI37
aI7
aI12
aF0.583
aI0
aI1
aF0.0
aI1
aI2
aF0.5
aI2
aI4
aI6
aI7
aI4
aI0
aI3
aI2
aI15
aI9
aa(lp133
V0020800380
p134
aVDEC 19, 2008
p135
aVBOS vs. CHI
p136
aVW
p137
aI30
aI2
aI3
aF0.667
aI0
aI0
aF0.0
aI0
aI0
aF0.0
aI4
aI1
aI5
aI15
aI4
aI0
aI1
aI3
aI4
aI25
aa(lp138
V0020800400
p139
aVDEC 21, 2008
p140
aVBOS vs. NYK
p141
aVW
p142
aI32
aI12
aI14
aF0.857
aI0
aI0
aF0.0
aI2
aI5
aF0.4
aI1
aI5
aI6
aI5
aI2
aI0
aI1
aI0
aI26
aI12
aa(lp143
V0020800413
p144
aVDEC 23, 2008
p145
aVBOS vs. PHI
p146
aVW
p147
aI29
aI7
aI12
aF0.583
aI0
aI0
aF0.0
aI4
aI4
aF1.0
aI2
aI2
aI4
aI4
aI2
aI0
aI2
aI3
aI18
aI8
aa(lp148
V0020800423
p149
aVDEC 25, 2008
p150
aVBOS @ LAL
p151
aVL
p152
aI34
aI3
aI11
aF0.273
aI0
aI1
aF0.0
aI0
aI0
aF0.0
aI1
aI2
aI3
aI12
aI1
aI0
aI2
aI5
aI6
aI-3
aa(lp153
V0020800435
p154
aVDEC 26, 2008
p155
aVBOS @ GSW
p156
aVL
p157
aI35
aI5
aI11
aF0.455
aI0
aI0
aF0.0
aI1
aI2
aF0.5
aI6
aI4
aI10
aI9
aI3
aI0
aI7
aI3
aI11
aI-6
aa(lp158
V0020800448
p159
aVDEC 28, 2008
p160
aVBOS @ SAC
p161
aVW
p162
aI29
aI2
aI5
aF0.4
aI0
aI1
aF0.0
aI0
aI0
aF0.0
aI0
aI0
aI0
aI6
aI0
aI1
aI2
aI1
aI4
aI25
aa(lp163
V0020800465
p164
aVDEC 30, 2008
p165
aVBOS @ POR
p166
aVL
p167
aI34
aI5
aI10
aF0.5
aI1
aI3
aF0.333
aI2
aI2
aF1.0
aI2
aI4
aI6
aI7
aI3
aI0
aI4
aI1
aI13
aI2
aa(lp168
V0020800475
p169
aVJAN 02, 2009
p170
aVBOS vs. WAS
p171
aVW
p172
aI28
aI4
aI6
aF0.667
aI1
aI1
aF1.0
aI1
aI2
aF0.5
aI1
aI2
aI3
aI14
aI1
aI1
aI2
aI1
aI10
aI24
aa(lp173
V0020800499
p174
aVJAN 04, 2009
p175
aVBOS @ NYK
p176
aVL
p177
aI26
aI1
aI7
aF0.143
aI1
aI2
aF0.5
aI0
aI0
aF0.0
aI1
aI3
aI4
aI3
aI1
aI0
aI2
aI2
aI3
aI-25
aa(lp178
V0020800506
p179
aVJAN 06, 2009
p180
aVBOS @ CHA
p181
aVL
p182
aI46
aI5
aI11
aF0.455
aI0
aI1
aF0.0
aI6
aI8
aF0.75
aI1
aI3
aI4
aI6
aI3
aI1
aI9
aI4
aI16
aI-18
aa(lp183
V0020800517
p184
aVJAN 07, 2009
p185
aVBOS vs. HOU
p186
aVL
p187
aI33
aI2
aI4
aF0.5
aI0
aI0
aF0.0
aI1
aI4
aF0.25
aI0
aI0
aI0
aI5
aI0
aI0
aI1
aI2
aI5
aI5
aa(lp188
V0020800531
p189
aVJAN 09, 2009
p190
aVBOS @ CLE
p191
aVL
p192
aI36
aI1
aI8
aF0.125
aI0
aI1
aF0.0
aI3
aI6
aF0.5
aI3
aI1
aI4
aI13
aI4
aI0
aI2
aI3
aI5
aI-17
aa(lp193
V0020800546
p194
aVJAN 11, 2009
p195
aVBOS @ TOR
p196
aVW
p197
aI38
aI5
aI12
aF0.417
aI0
aI1
aF0.0
aI4
aI5
aF0.8
aI1
aI5
aI6
aI11
aI0
aI0
aI4
aI3
aI14
aI15
aa(lp198
V0020800554
p199
aVJAN 12, 2009
p200
aVBOS vs. TOR
p201
aVW
p202
aI40
aI4
aI9
aF0.444
aI0
aI0
aF0.0
aI1
aI2
aF0.5
aI0
aI5
aI5
aI8
aI3
aI2
aI1
aI0
aI9
aI4
aa(lp203
V0020800569
p204
aVJAN 14, 2009
p205
aVBOS vs. NJN
p206
aVW
p207
aI30
aI5
aI9
aF0.556
aI0
aI0
aF0.0
aI1
aI2
aF0.5
aI2
aI5
aI7
aI12
aI3
aI0
aI4
aI2
aI11
aI21
aa(lp208
V0020800590
p209
aVJAN 17, 2009
p210
aVBOS @ NJN
p211
aVW
p212
aI28
aI3
aI6
aF0.5
aI1
aI1
aF1.0
aI1
aI2
aF0.5
aI1
aI8
aI9
aI14
aI2
aI0
aI4
aI4
aI8
aI24
aa(lp213
V0020800610
p214
aVJAN 19, 2009
p215
aVBOS vs. PHX
p216
aVW
p217
aI30
aI9
aI15
aF0.6
aI1
aI1
aF1.0
aI4
aI7
aF0.571
aI2
aI3
aI5
aI7
aI2
aI0
aI3
aI3
aI23
aI22
aa(lp218
V0020800619
p219
aVJAN 21, 2009
p220
aVBOS @ MIA
p221
aVW
p222
aI34
aI3
aI7
aF0.429
aI1
aI2
aF0.5
aI0
aI2
aF0.0
aI3
aI1
aI4
aI10
aI1
aI0
aI5
aI2
aI7
aI23
aa(lp223
V0020800628
p224
aVJAN 22, 2009
p225
aVBOS @ ORL
p226
aVW
p227
aI39
aI4
aI10
aF0.4
aI0
aI1
aF0.0
aI1
aI2
aF0.5
aI2
aI6
aI8
aI2
aI1
aI0
aI2
aI4
aI9
aI8
aa(lp228
V0020800646
p229
aVJAN 25, 2009
p230
aVBOS vs. DAL
p231
aVW
p232
aI34
aI6
aI10
aF0.6
aI0
aI1
aF0.0
aI1
aI2
aF0.5
aI3
aI4
aI7
aI14
aI4
aI0
aI2
aI1
aI13
aI28
aa(lp233
V0020800668
p234
aVJAN 28, 2009
p235
aVBOS vs. SAC
p236
aVW
p237
aI29
aI10
aI15
aF0.667
aI0
aI0
aF0.0
aI4
aI7
aF0.571
aI0
aI3
aI3
aI9
aI0
aI0
aI1
aI1
aI24
aI0
aa(lp238
V0020800681
p239
aVJAN 30, 2009
p240
aVBOS @ DET
p241
aVW
p242
aI39
aI4
aI8
aF0.5
aI0
aI0
aF0.0
aI0
aI0
aF0.0
aI0
aI4
aI4
aI12
aI1
aI0
aI2
aI0
aI8
aI9
aa(lp243
V0020800702
p244
aVFEB 01, 2009
p245
aVBOS vs. MIN
p246
aVW
p247
aI35
aI2
aI6
aF0.333
aI0
aI0
aF0.0
aI1
aI1
aF1.0
aI2
aI5
aI7
aI8
aI2
aI1
aI1
aI1
aI5
aI3
aa(lp248
V0020800716
p249
aVFEB 03, 2009
p250
aVBOS @ PHI
p251
aVW
p252
aI36
aI9
aI12
aF0.75
aI0
aI1
aF0.0
aI2
aI2
aF1.0
aI3
aI2
aI5
aI8
aI0
aI0
aI7
aI2
aI20
aI5
aa(lp253
V0020800732
p254
aVFEB 05, 2009
p255
aVBOS vs. LAL
p256
aVL
p257
aI37
aI7
aI16
aF0.438
aI0
aI0
aF0.0
aI2
aI2
aF1.0
aI2
aI6
aI8
aI12
aI1
aI0
aI2
aI4
aI16
aI-1
aa(lp258
V0020800736
p259
aVFEB 06, 2009
p260
aVBOS @ NYK
p261
aVW
p262
aI32
aI5
aI11
aF0.455
aI0
aI0
aF0.0
aI2
aI4
aF0.5
aI1
aI9
aI10
aI7
aI2
aI0
aI4
aI3
aI12
aI-4
aa(lp263
V0020800750
p264
aVFEB 08, 2009
p265
aVBOS vs. SAS
p266
aVL
p267
aI39
aI3
aI11
aF0.273
aI0
aI0
aF0.0
aI0
aI0
aF0.0
aI1
aI4
aI5
aI16
aI1
aI0
aI1
aI2
aI6
aI5
aa(lp268
V0020800780
p269
aVFEB 11, 2009
p270
aVBOS @ NOH
p271
aVW
p272
aI43
aI3
aI11
aF0.273
aI0
aI1
aF0.0
aI0
aI2
aF0.0
aI3
aI5
aI8
aI11
aI3
aI0
aI4
aI4
aI6
aI13
aa(lp273
V0020800786
p274
aVFEB 12, 2009
p275
aVBOS @ DAL
p276
aVW
p277
aI44
aI9
aI14
aF0.643
aI0
aI0
aF0.0
aI1
aI2
aF0.5
aI3
aI12
aI15
aI14
aI1
aI0
aI6
aI1
aI19
aI10
aa(lp278
V0020800810
p279
aVFEB 19, 2009
p280
aVBOS @ UTA
p281
aVL
p282
aI33
aI5
aI7
aF0.714
aI0
aI0
aF0.0
aI5
aI6
aF0.833
aI0
aI1
aI1
aI7
aI0
aI0
aI1
aI3
aI15
aI-5
aa(lp283
V0020800829
p284
aVFEB 22, 2009
p285
aVBOS @ PHX
p286
aVW
p287
aI37
aI13
aI18
aF0.722
aI1
aI1
aF1.0
aI5
aI9
aF0.556
aI0
aI6
aI6
aI10
aI3
aI0
aI5
aI3
aI32
aI16
aa(lp288
V0020800838
p289
aVFEB 23, 2009
p290
aVBOS @ DEN
p291
aVW
p292
aI31
aI5
aI7
aF0.714
aI0
aI0
aF0.0
aI4
aI5
aF0.8
aI3
aI5
aI8
aI8
aI1
aI1
aI2
aI2
aI14
aI25
aa(lp293
V0020800860
p294
aVFEB 25, 2009
p295
aVBOS @ LAC
p296
aVL
p297
aI37
aI6
aI10
aF0.6
aI1
aI1
aF1.0
aI4
aI8
aF0.5
aI3
aI4
aI7
aI3
aI1
aI0
aI4
aI2
aI17
aI-10
aa(lp298
V0020800867
p299
aVFEB 27, 2009
p300
aVBOS vs. IND
p301
aVW
p302
aI34
aI1
aI7
aF0.143
aI1
aI2
aF0.5
aI0
aI0
aF0.0
aI0
aI4
aI4
aI17
aI0
aI0
aI1
aI3
aI3
aI8
aa(lp303
V0020800883
p304
aVMAR 01, 2009
p305
aVBOS vs. DET
p306
aVL
p307
aI31
aI2
aI7
aF0.286
aI0
aI1
aF0.0
aI4
aI4
aF1.0
aI0
aI6
aI6
aI6
aI1
aI0
aI3
aI4
aI8
aI-9
aa(lp308
V0020800907
p309
aVMAR 04, 2009
p310
aVBOS @ NJN
p311
aVW
p312
aI35
aI9
aI14
aF0.643
aI0
aI0
aF0.0
aI2
aI3
aF0.667
aI0
aI5
aI5
aI5
aI2
aI0
aI2
aI3
aI20
aI-5
aa(lp313
V0020800920
p314
aVMAR 06, 2009
p315
aVBOS vs. CLE
p316
aVW
p317
aI30
aI3
aI8
aF0.375
aI0
aI1
aF0.0
aI0
aI0
aF0.0
aI0
aI2
aI2
aI10
aI2
aI1
aI1
aI0
aI6
aI8
aa(lp318
V0020800973
p319
aVMAR 13, 2009
p320
aVBOS vs. MEM
p321
aVW
p322
aI29
aI2
aI7
aF0.286
aI0
aI0
aF0.0
aI0
aI0
aF0.0
aI2
aI6
aI8
aI8
aI1
aI0
aI4
aI1
aI4
aI3
aa(lp323
V0020800988
p324
aVMAR 15, 2009
p325
aVBOS @ MIL
p326
aVL
p327
aI37
aI2
aI10
aF0.2
aI0
aI1
aF0.0
aI1
aI2
aF0.5
aI1
aI6
aI7
aI8
aI3
aI0
aI5
aI5
aI5
aI-8
aa(lp328
V0020801003
p329
aVMAR 17, 2009
p330
aVBOS @ CHI
p331
aVL
p332
aI42
aI9
aI16
aF0.563
aI0
aI0
aF0.0
aI8
aI11
aF0.727
aI1
aI4
aI5
aI10
aI0
aI0
aI1
aI2
aI26
aI-12
aa(lp333
V0020801009
p334
aVMAR 18, 2009
p335
aVBOS vs. MIA
p336
aVW
p337
aI47
aI11
aI20
aF0.55
aI0
aI0
aF0.0
aI5
aI6
aF0.833
aI0
aI3
aI3
aI10
aI1
aI0
aI2
aI4
aI27
aI8
aa(lp338
V0020801031
p339
aVMAR 20, 2009
p340
aVBOS @ SAS
p341
aVW
p342
aI40
aI8
aI19
aF0.421
aI0
aI0
aF0.0
aI0
aI1
aF0.0
aI0
aI5
aI5
aI12
aI3
aI0
aI1
aI3
aI16
aI17
aa(lp343
V0020801037
p344
aVMAR 21, 2009
p345
aVBOS @ MEM
p346
aVW
p347
aI30
aI4
aI9
aF0.444
aI0
aI1
aF0.0
aI1
aI2
aF0.5
aI1
aI6
aI7
aI10
aI0
aI0
aI2
aI1
aI9
aI15
aa(lp348
V0020801050
p349
aVMAR 23, 2009
p350
aVBOS vs. LAC
p351
aVW
p352
aI28
aI7
aI13
aF0.538
aI0
aI2
aF0.0
aI0
aI0
aF0.0
aI0
aI1
aI1
aI7
aI5
aI0
aI2
aI4
aI14
aI24
aa(lp353
V0020801067
p354
aVMAR 25, 2009
p355
aVBOS @ ORL
p356
aVL
p357
aI39
aI4
aI11
aF0.364
aI0
aI0
aF0.0
aI1
aI1
aF1.0
aI0
aI4
aI4
aI5
aI0
aI0
aI4
aI4
aI9
aI2
aa(lp358
V0020801076
p359
aVMAR 27, 2009
p360
aVBOS @ ATL
p361
aVW
p362
aI26
aI4
aI7
aF0.571
aI0
aI0
aF0.0
aI1
aI1
aF1.0
aI1
aI1
aI2
aI5
aI0
aI0
aI1
aI3
aI9
aI-3
aa(lp363
V0020801096
p364
aVMAR 29, 2009
p365
aVBOS vs. OKC
p366
aVW
p367
aI29
aI3
aI6
aF0.5
aI0
aI0
aF0.0
aI0
aI0
aF0.0
aI2
aI3
aI5
aI12
aI1
aI0
aI2
aI1
aI6
aI3
aa(lp368
V0020801114
p369
aVAPR 01, 2009
p370
aVBOS vs. CHA
p371
aVW
p372
aI44
aI9
aI16
aF0.563
aI1
aI3
aF0.333
aI2
aI4
aF0.5
aI0
aI4
aI4
aI9
aI4
aI0
aI5
aI2
aI21
aI-2
aa(lp373
V0020801127
p374
aVAPR 03, 2009
p375
aVBOS vs. ATL
p376
aVW
p377
aI30
aI7
aI10
aF0.7
aI1
aI1
aF1.0
aI5
aI7
aF0.714
aI0
aI1
aI1
aI6
aI2
aI0
aI2
aI1
aI20
aI14
aa(lp378
V0020801165
p379
aVAPR 08, 2009
p380
aVBOS vs. NJN
p381
aVW
p382
aI32
aI10
aI15
aF0.667
aI0
aI0
aF0.0
aI11
aI13
aF0.846
aI1
aI8
aI9
aI5
aI3
aI1
aI3
aI1
aI31
aI-13
aa(lp383
V0020801179
p384
aVAPR 10, 2009
p385
aVBOS vs. MIA
p386
aVW
p387
aI35
aI3
aI6
aF0.5
aI0
aI0
aF0.0
aI1
aI1
aF1.0
aI3
aI7
aI10
aI12
aI1
aI0
aI2
aI1
aI7
aI10
aa(lp388
V0020801197
p389
aVAPR 12, 2009
p390
aVBOS @ CLE
p391
aVL
p392
aI28
aI2
aI9
aF0.222
aI0
aI0
aF0.0
aI1
aI4
aF0.25
aI2
aI2
aI4
aI6
aI3
aI0
aI0
aI1
aI5
aI-16
aa(lp393
V0020801215
p394
aVAPR 14, 2009
p395
aVBOS @ PHI
p396
aVW
p397
aI27
aI5
aI12
aF0.417
aI0
aI1
aF0.0
aI1
aI4
aF0.25
aI3
aI4
aI7
aI2
aI0
aI0
aI4
aI1
aI11
aI1
aa(lp398
V0020801217
p399
aVAPR 15, 2009
p400
aVBOS vs. WAS
p401
aVW
p402
aI10
aI0
aI0
aF0.0
aI0
aI0
aF0.0
aI0
aI0
aF0.0
aI0
aI0
aI0
aI1
aI0
aI0
aI1
aI2
aI0
aI4
aasS'name'
p403
VRajon Rondo
p404
sS'weight'
p405
V186
p406
sS'age'
p407
I22
sS'experience'
p408
I2
sS'height'
p409
V6-1
p410
sS'position'
p411
VGuard
p412
s.