(dp0
S'age'
p1
I23
sS'stats'
p2
(lp3
(lp4
V0020801199
p5
aVAPR 12, 2009
p6
aVTOR vs. PHI
p7
aVW
p8
aI33
aI8
aI14
aF0.571
aI1
aI3
aF0.333
aI0
aI0
aF0.0
aI0
aI2
aI2
aI4
aI1
aI6
aI0
aI4
aI17
aI-11
aa(lp9
V0020801183
p10
aVAPR 10, 2009
p11
aVTOR vs. WAS
p12
aVL
p13
aI35
aI4
aI16
aF0.25
aI0
aI4
aF0.0
aI1
aI2
aF0.5
aI1
aI2
aI3
aI0
aI1
aI1
aI3
aI1
aI9
aI-5
aa(lp14
V0020801154
p15
aVAPR 07, 2009
p16
aVTOR vs. ATL
p17
aVL
p18
aI29
aI6
aI14
aF0.429
aI2
aI4
aF0.5
aI1
aI2
aF0.5
aI0
aI2
aI2
aI1
aI0
aI2
aI1
aI3
aI15
aI-7
aa(lp19
V0020801145
p20
aVAPR 05, 2009
p21
aVTOR vs. NYK
p22
aVL
p23
aI39
aI7
aI15
aF0.467
aI1
aI3
aF0.333
aI3
aI4
aF0.75
aI1
aI6
aI7
aI2
aI0
aI2
aI1
aI3
aI18
aI-1
aa(lp24
V0020801135
p25
aVAPR 04, 2009
p26
aVTOR @ NYK
p27
aVW
p28
aI40
aI8
aI19
aF0.421
aI3
aI6
aF0.5
aI4
aI4
aF1.0
aI2
aI5
aI7
aI2
aI2
aI4
aI3
aI3
aI23
aI11
aa(lp29
V0020801113
p30
aVAPR 01, 2009
p31
aVTOR @ ORL
p32
aVW
p33
aI26
aI7
aI12
aF0.583
aI0
aI2
aF0.0
aI2
aI2
aF1.0
aI0
aI2
aI2
aI0
aI0
aI0
aI1
aI6
aI16
aI2
aa(lp34
V0020801094
p35
aVMAR 29, 2009
p36
aVTOR vs. CHI
p37
aVW
p38
aI38
aI10
aI20
aF0.5
aI3
aI6
aF0.5
aI5
aI6
aF0.833
aI0
aI6
aI6
aI2
aI0
aI0
aI3
aI3
aI28
aI-6
aa(lp39
V0020801075
p40
aVMAR 27, 2009
p41
aVTOR vs. OKC
p42
aVW
p43
aI26
aI6
aI13
aF0.462
aI2
aI3
aF0.667
aI0
aI0
aF0.0
aI1
aI8
aI9
aI2
aI0
aI1
aI4
aI5
aI14
aI10
aa(lp44
V0020801063
p45
aVMAR 25, 2009
p46
aVTOR vs. MIL
p47
aVW
p48
aI33
aI7
aI17
aF0.412
aI3
aI8
aF0.375
aI6
aI6
aF1.0
aI1
aI1
aI2
aI2
aI0
aI2
aI3
aI2
aI23
aI-2
aa(lp49
V0020801024
p50
aVMAR 20, 2009
p51
aVTOR vs. CHA
p52
aVL
p53
aI40
aI10
aI17
aF0.588
aI4
aI7
aF0.571
aI3
aI4
aF0.75
aI0
aI7
aI7
aI0
aI0
aI1
aI1
aI3
aI27
aI-8
aa(lp54
V0020800996
p55
aVMAR 16, 2009
p56
aVTOR @ CHA
p57
aVL
p58
aI34
aI4
aI11
aF0.364
aI0
aI3
aF0.0
aI5
aI6
aF0.833
aI0
aI6
aI6
aI1
aI1
aI1
aI3
aI4
aI13
aI-20
aa(lp59
V0020800990
p60
aVMAR 15, 2009
p61
aVTOR vs. IND
p62
aVW
p63
aI35
aI9
aI11
aF0.818
aI3
aI3
aF1.0
aI6
aI8
aF0.75
aI2
aI7
aI9
aI4
aI2
aI1
aI3
aI2
aI27
aI18
aa(lp64
V0020800970
p65
aVMAR 13, 2009
p66
aVTOR vs. DET
p67
aVL
p68
aI9
aI2
aI5
aF0.4
aI0
aI2
aF0.0
aI0
aI0
aF0.0
aI1
aI2
aI3
aI0
aI0
aI0
aI0
aI0
aI4
aI-4
aa(lp69
V0020800957
p70
aVMAR 11, 2009
p71
aVTOR @ PHI
p72
aVL
p73
aI36
aI8
aI13
aF0.615
aI4
aI6
aF0.667
aI1
aI2
aF0.5
aI0
aI5
aI5
aI4
aI0
aI0
aI3
aI5
aI21
aI-7
aa(lp74
V0020800937
p75
aVMAR 08, 2009
p76
aVTOR vs. UTA
p77
aVL
p78
aI36
aI7
aI13
aF0.538
aI2
aI2
aF1.0
aI4
aI4
aF1.0
aI1
aI7
aI8
aI0
aI0
aI1
aI2
aI5
aI20
aI-5
aa(lp79
V0020800919
p80
aVMAR 06, 2009
p81
aVTOR vs. MIA
p82
aVL
p83
aI41
aI10
aI18
aF0.556
aI1
aI2
aF0.5
aI2
aI2
aF1.0
aI0
aI2
aI2
aI1
aI0
aI2
aI3
aI3
aI23
aI-10
aa(lp84
V0020800902
p85
aVMAR 03, 2009
p86
aVTOR @ HOU
p87
aVL
p88
aI34
aI9
aI14
aF0.643
aI5
aI6
aF0.833
aI2
aI2
aF1.0
aI1
aI6
aI7
aI1
aI1
aI3
aI1
aI4
aI25
aI14
aa(lp89
V0020800890
p90
aVMAR 01, 2009
p91
aVTOR @ DAL
p92
aVL
p93
aI39
aI6
aI18
aF0.333
aI0
aI4
aF0.0
aI6
aI6
aF1.0
aI3
aI4
aI7
aI1
aI2
aI4
aI2
aI5
aI18
aI-18
aa(lp94
V0020800872
p95
aVFEB 27, 2009
p96
aVTOR @ PHX
p97
aVL
p98
aI35
aI7
aI13
aF0.538
aI2
aI4
aF0.5
aI5
aI6
aF0.833
aI2
aI4
aI6
aI1
aI0
aI1
aI2
aI6
aI21
aI-11
aa(lp99
V0020800843
p100
aVFEB 24, 2009
p101
aVTOR vs. MIN
p102
aVW
p103
aI38
aI10
aI15
aF0.667
aI1
aI2
aF0.5
aI5
aI5
aF1.0
aI0
aI5
aI5
aI3
aI1
aI0
aI1
aI3
aI26
aI5
aa(lp104
V0020800828
p105
aVFEB 22, 2009
p106
aVTOR vs. NYK
p107
aVW
p108
aI39
aI8
aI15
aF0.533
aI3
aI5
aF0.6
aI9
aI12
aF0.75
aI1
aI9
aI10
aI3
aI1
aI3
aI4
aI3
aI28
aI5
aa(lp109
V0020800812
p110
aVFEB 20, 2009
p111
aVTOR @ NYK
p112
aVL
p113
aI36
aI6
aI16
aF0.375
aI1
aI4
aF0.25
aI5
aI7
aF0.714
aI0
aI6
aI6
aI4
aI1
aI4
aI2
aI4
aI18
aI-21
aa(lp114
V0020800799
p115
aVFEB 18, 2009
p116
aVTOR vs. CLE
p117
aVL
p118
aI32
aI5
aI14
aF0.357
aI1
aI3
aF0.333
aI0
aI0
aF0.0
aI0
aI4
aI4
aI0
aI0
aI0
aI1
aI4
aI11
aI-14
aa(lp119
V0020800777
p120
aVFEB 11, 2009
p121
aVTOR vs. SAS
p122
aVW
p123
aI43
aI8
aI21
aF0.381
aI1
aI5
aF0.2
aI6
aI6
aF1.0
aI2
aI6
aI8
aI0
aI1
aI0
aI2
aI2
aI23
aI-1
aa(lp124
V0020800768
p125
aVFEB 10, 2009
p126
aVTOR @ MIN
p127
aVW
p128
aI36
aI8
aI17
aF0.471
aI1
aI3
aF0.333
aI1
aI1
aF1.0
aI0
aI6
aI6
aI2
aI0
aI1
aI3
aI1
aI18
aI4
aa(lp129
V0020800746
p130
aVFEB 07, 2009
p131
aVTOR @ MEM
p132
aVL
p133
aI31
aI1
aI11
aF0.091
aI0
aI4
aF0.0
aI6
aI8
aF0.75
aI1
aI8
aI9
aI1
aI0
aI0
aI2
aI3
aI8
aI-6
aa(lp134
V0020800738
p135
aVFEB 06, 2009
p136
aVTOR @ NOH
p137
aVL
p138
aI41
aI7
aI14
aF0.5
aI2
aI4
aF0.5
aI3
aI5
aF0.6
aI0
aI4
aI4
aI2
aI0
aI2
aI5
aI2
aI19
aI-3
aa(lp139
V0020800721
p140
aVFEB 04, 2009
p141
aVTOR vs. LAL
p142
aVL
p143
aI43
aI8
aI19
aF0.421
aI2
aI5
aF0.4
aI3
aI4
aF0.75
aI2
aI7
aI9
aI1
aI0
aI1
aI1
aI3
aI21
aI-5
aa(lp144
V0020800714
p145
aVFEB 03, 2009
p146
aVTOR @ CLE
p147
aVL
p148
aI33
aI3
aI11
aF0.273
aI0
aI4
aF0.0
aI4
aI5
aF0.8
aI3
aI7
aI10
aI0
aI0
aI1
aI0
aI2
aI10
aI-17
aa(lp149
V0020800703
p150
aVFEB 01, 2009
p151
aVTOR vs. ORL
p152
aVL
p153
aI35
aI4
aI16
aF0.25
aI0
aI2
aF0.0
aI4
aI4
aF1.0
aI1
aI7
aI8
aI1
aI0
aI0
aI0
aI1
aI12
aI-22
aa(lp154
V0020800684
p155
aVJAN 30, 2009
p156
aVTOR vs. MIL
p157
aVL
p158
aI32
aI6
aI16
aF0.375
aI2
aI5
aF0.4
aI2
aI2
aF1.0
aI0
aI4
aI4
aI0
aI0
aI0
aI2
aI5
aI16
aI3
aa(lp159
V0020800670
p160
aVJAN 28, 2009
p161
aVTOR @ NJN
p162
aVW
p163
aI22
aI3
aI8
aF0.375
aI1
aI4
aF0.25
aI1
aI2
aF0.5
aI0
aI1
aI1
aI1
aI1
aI0
aI1
aI4
aI8
aI-7
aa(lp164
V0020800649
p165
aVJAN 25, 2009
p166
aVTOR vs. SAC
p167
aVW
p168
aI33
aI7
aI14
aF0.5
aI2
aI4
aF0.5
aI8
aI10
aF0.8
aI0
aI7
aI7
aI0
aI1
aI1
aI2
aI3
aI24
aI12
aa(lp169
V0020800636
p170
aVJAN 23, 2009
p171
aVTOR @ CHI
p172
aVW
p173
aI31
aI8
aI13
aF0.615
aI2
aI4
aF0.5
aI4
aI6
aF0.667
aI2
aI3
aI5
aI1
aI0
aI1
aI1
aI2
aI22
aI15
aa(lp174
V0020800618
p175
aVJAN 21, 2009
p176
aVTOR @ DET
p177
aVL
p178
aI41
aI6
aI16
aF0.375
aI2
aI5
aF0.4
aI2
aI4
aF0.5
aI1
aI5
aI6
aI3
aI0
aI0
aI1
aI0
aI16
aI-11
aa(lp179
V0020800603
p180
aVJAN 19, 2009
p181
aVTOR @ ATL
p182
aVL
p183
aI42
aI8
aI20
aF0.4
aI0
aI4
aF0.0
aI4
aI5
aF0.8
aI3
aI7
aI10
aI0
aI0
aI0
aI1
aI3
aI20
aI8
aa(lp184
V0020800599
p185
aVJAN 18, 2009
p186
aVTOR vs. PHX
p187
aVL
p188
aI42
aI6
aI16
aF0.375
aI1
aI5
aF0.2
aI2
aI2
aF1.0
aI1
aI2
aI3
aI0
aI0
aI0
aI4
aI4
aI15
aI2
aa(lp189
V0020800580
p190
aVJAN 16, 2009
p191
aVTOR @ IND
p192
aVL
p193
aI41
aI5
aI14
aF0.357
aI3
aI5
aF0.6
aI7
aI8
aF0.875
aI1
aI4
aI5
aI1
aI0
aI0
aI4
aI4
aI20
aI1
aa(lp194
V0020800568
p195
aVJAN 14, 2009
p196
aVTOR vs. CHI
p197
aVL
p198
aI40
aI10
aI14
aF0.714
aI2
aI4
aF0.5
aI9
aI10
aF0.9
aI3
aI7
aI10
aI1
aI1
aI0
aI3
aI0
aI31
aI2
aa(lp199
V0020800554
p200
aVJAN 12, 2009
p201
aVTOR @ BOS
p202
aVL
p203
aI39
aI9
aI20
aF0.45
aI2
aI6
aF0.333
aI3
aI3
aF1.0
aI1
aI7
aI8
aI3
aI1
aI0
aI2
aI4
aI23
aI-6
aa(lp204
V0020800546
p205
aVJAN 11, 2009
p206
aVTOR vs. BOS
p207
aVL
p208
aI32
aI5
aI14
aF0.357
aI3
aI5
aF0.6
aI4
aI6
aF0.667
aI2
aI7
aI9
aI3
aI0
aI1
aI2
aI4
aI17
aI-5
aa(lp209
V0020800530
p210
aVJAN 09, 2009
p211
aVTOR vs. MEM
p212
aVW
p213
aI36
aI8
aI14
aF0.571
aI3
aI4
aF0.75
aI2
aI4
aF0.5
aI0
aI8
aI8
aI0
aI0
aI2
aI2
aI4
aI21
aI17
aa(lp214
V0020800516
p215
aVJAN 07, 2009
p216
aVTOR @ WAS
p217
aVW
p218
aI35
aI8
aI9
aF0.889
aI4
aI5
aF0.8
aI5
aI5
aF1.0
aI1
aI3
aI4
aI2
aI1
aI2
aI4
aI3
aI25
aI3
aa(lp219
V0020800503
p220
aVJAN 05, 2009
p221
aVTOR @ MIL
p222
aVL
p223
aI37
aI7
aI13
aF0.538
aI5
aI6
aF0.833
aI2
aI2
aF1.0
aI1
aI7
aI8
aI2
aI0
aI1
aI1
aI1
aI21
aI-3
aa(lp224
V0020800495
p225
aVJAN 04, 2009
p226
aVTOR vs. ORL
p227
aVW
p228
aI36
aI7
aI15
aF0.467
aI2
aI5
aF0.4
aI2
aI2
aF1.0
aI1
aI4
aI5
aI3
aI1
aI0
aI2
aI5
aI18
aI-8
aa(lp229
V0020800474
p230
aVJAN 02, 2009
p231
aVTOR vs. HOU
p232
aVW
p233
aI33
aI8
aI12
aF0.667
aI2
aI4
aF0.5
aI1
aI2
aF0.5
aI0
aI6
aI6
aI1
aI0
aI1
aI3
aI5
aI19
aI17
aa(lp234
V0020800470
p235
aVDEC 31, 2008
p236
aVTOR vs. DEN
p237
aVL
p238
aI41
aI9
aI19
aF0.474
aI3
aI6
aF0.5
aI5
aI5
aF1.0
aI2
aI4
aI6
aI1
aI2
aI5
aI2
aI3
aI26
aI-10
aa(lp239
V0020800457
p240
aVDEC 29, 2008
p241
aVTOR @ GSW
p242
aVL
p243
aI26
aI3
aI8
aF0.375
aI0
aI3
aF0.0
aI1
aI2
aF0.5
aI3
aI3
aI6
aI0
aI1
aI0
aI1
aI1
aI7
aI-23
aa(lp244
V0020800443
p245
aVDEC 27, 2008
p246
aVTOR @ POR
p247
aVL
p248
aI22
aI5
aI12
aF0.417
aI3
aI4
aF0.75
aI0
aI0
aF0.0
aI0
aI2
aI2
aI1
aI0
aI0
aI2
aI3
aI13
aI-3
aa(lp249
V0020800434
p250
aVDEC 26, 2008
p251
aVTOR @ SAC
p252
aVW
p253
aI22
aI4
aI5
aF0.8
aI2
aI2
aF1.0
aI4
aI5
aF0.8
aI0
aI0
aI0
aI0
aI0
aI0
aI1
aI3
aI14
aI1
aa(lp254
V0020800408
p255
aVDEC 22, 2008
p256
aVTOR @ LAC
p257
aVW
p258
aI15
aI1
aI5
aF0.2
aI0
aI2
aF0.0
aI1
aI2
aF0.5
aI0
aI1
aI1
aI0
aI0
aI0
aI2
aI5
aI3
aI-17
aa(lp259
V0020800397
p260
aVDEC 20, 2008
p261
aVTOR @ SAS
p262
aVL
p263
aI18
aI1
aI5
aF0.2
aI0
aI2
aF0.0
aI0
aI0
aF0.0
aI0
aI2
aI2
aI0
aI1
aI0
aI0
aI1
aI2
aI0
aa(lp264
V0020800386
p265
aVDEC 19, 2008
p266
aVTOR @ OKC
p267
aVL
p268
aI29
aI6
aI16
aF0.375
aI1
aI5
aF0.2
aI3
aI4
aF0.75
aI1
aI4
aI5
aI1
aI0
aI1
aI3
aI3
aI16
aI11
aa(lp269
V0020800369
p270
aVDEC 17, 2008
p271
aVTOR vs. DAL
p272
aVL
p273
aI18
aI1
aI5
aF0.2
aI0
aI1
aF0.0
aI1
aI2
aF0.5
aI1
aI2
aI3
aI0
aI1
aI0
aI0
aI4
aI3
aI-12
aa(lp274
V0020800352
p275
aVDEC 15, 2008
p276
aVTOR vs. NJN
p277
aVL
p278
aI23
aI2
aI6
aF0.333
aI0
aI1
aF0.0
aI6
aI6
aF1.0
aI0
aI2
aI2
aI0
aI1
aI2
aI0
aI4
aI10
aI-13
aa(lp279
V0020800347
p280
aVDEC 14, 2008
p281
aVTOR vs. NOH
p282
aVL
p283
aI11
aI2
aI7
aF0.286
aI0
aI1
aF0.0
aI0
aI0
aF0.0
aI1
aI0
aI1
aI2
aI0
aI0
aI1
aI1
aI4
aI-13
aa(lp284
V0020800328
p285
aVDEC 12, 2008
p286
aVTOR @ NJN
p287
aVW
p288
aI28
aI2
aI10
aF0.2
aI1
aI5
aF0.2
aI6
aI6
aF1.0
aI2
aI5
aI7
aI1
aI0
aI4
aI0
aI3
aI11
aI24
aa(lp289
V0020800314
p290
aVDEC 10, 2008
p291
aVTOR vs. IND
p292
aVW
p293
aI23
aI0
aI4
aF0.0
aI0
aI2
aF0.0
aI0
aI0
aF0.0
aI1
aI3
aI4
aI1
aI0
aI0
aI3
aI4
aI0
aI-2
aa(lp294
V0020800305
p295
aVDEC 09, 2008
p296
aVTOR @ CLE
p297
aVL
p298
aI30
aI3
aI7
aF0.429
aI1
aI1
aF1.0
aI1
aI2
aF0.5
aI0
aI3
aI3
aI1
aI1
aI0
aI1
aI4
aI8
aI-31
aa(lp299
V0020800298
p300
aVDEC 07, 2008
p301
aVTOR vs. POR
p302
aVL
p303
aI28
aI1
aI6
aF0.167
aI0
aI2
aF0.0
aI3
aI3
aF1.0
aI0
aI4
aI4
aI1
aI0
aI1
aI1
aI4
aI5
aI-7
aa(lp304
V0020800286
p305
aVDEC 05, 2008
p306
aVTOR @ UTA
p307
aVL
p308
aI35
aI3
aI12
aF0.25
aI0
aI4
aF0.0
aI1
aI1
aF1.0
aI0
aI6
aI6
aI1
aI0
aI4
aI2
aI2
aI7
aI-24
aa(lp309
V0020800261
p310
aVDEC 02, 2008
p311
aVTOR @ DEN
p312
aVL
p313
aI23
aI4
aI9
aF0.444
aI1
aI3
aF0.333
aI0
aI0
aF0.0
aI1
aI1
aI2
aI1
aI2
aI0
aI0
aI5
aI9
aI-16
aa(lp314
V0020800251
p315
aVNOV 30, 2008
p316
aVTOR @ LAL
p317
aVL
p318
aI37
aI5
aI14
aF0.357
aI1
aI5
aF0.2
aI3
aI4
aF0.75
aI2
aI9
aI11
aI0
aI0
aI4
aI0
aI1
aI14
aI-5
aa(lp319
V0020800225
p320
aVNOV 28, 2008
p321
aVTOR vs. ATL
p322
aVW
p323
aI23
aI3
aI7
aF0.429
aI1
aI2
aF0.5
aI0
aI0
aF0.0
aI0
aI4
aI4
aI0
aI0
aI2
aI2
aI4
aI7
aI8
aa(lp324
V0020800212
p325
aVNOV 26, 2008
p326
aVTOR vs. CHA
p327
aVW
p328
aI40
aI4
aI15
aF0.267
aI2
aI6
aF0.333
aI1
aI2
aF0.5
aI2
aI7
aI9
aI3
aI0
aI3
aI4
aI4
aI11
aI5
aa(lp329
V0020800193
p330
aVNOV 23, 2008
p331
aVTOR vs. BOS
p332
aVL
p333
aI32
aI3
aI9
aF0.333
aI2
aI4
aF0.5
aI6
aI6
aF1.0
aI0
aI7
aI7
aI3
aI1
aI1
aI1
aI3
aI14
aI-12
aa(lp334
V0020800173
p335
aVNOV 21, 2008
p336
aVTOR vs. NJN
p337
aVL
p338
aI49
aI8
aI15
aF0.533
aI5
aI10
aF0.5
aI8
aI8
aF1.0
aI2
aI8
aI10
aI2
aI0
aI1
aI1
aI5
aI29
aI0
aa(lp339
V0020800161
p340
aVNOV 19, 2008
p341
aVTOR @ MIA
p342
aVW
p343
aI37
aI9
aI15
aF0.6
aI3
aI4
aF0.75
aI4
aI4
aF1.0
aI2
aI2
aI4
aI1
aI0
aI2
aI1
aI2
aI25
aI12
aa(lp344
V0020800151
p345
aVNOV 18, 2008
p346
aVTOR @ ORL
p347
aVL
p348
aI23
aI2
aI9
aF0.222
aI1
aI4
aF0.25
aI0
aI0
aF0.0
aI0
aI3
aI3
aI0
aI1
aI1
aI0
aI3
aI5
aI-13
aa(lp349
V0020800140
p350
aVNOV 16, 2008
p351
aVTOR vs. MIA
p352
aVW
p353
aI31
aI6
aI12
aF0.5
aI0
aI2
aF0.0
aI0
aI0
aF0.0
aI1
aI3
aI4
aI3
aI1
aI0
aI2
aI4
aI12
aI0
aa(lp354
V0020800106
p355
aVNOV 12, 2008
p356
aVTOR vs. PHI
p357
aVL
p358
aI27
aI6
aI11
aF0.545
aI1
aI3
aF0.333
aI2
aI2
aF1.0
aI1
aI4
aI5
aI1
aI0
aI2
aI2
aI0
aI15
aI-3
aa(lp359
V0020800095
p360
aVNOV 10, 2008
p361
aVTOR @ BOS
p362
aVL
p363
aI11
aI1
aI4
aF0.25
aI0
aI1
aF0.0
aI0
aI0
aF0.0
aI0
aI0
aI0
aI0
aI0
aI0
aI1
aI4
aI2
aI-9
aa(lp364
V0020800085
p365
aVNOV 09, 2008
p366
aVTOR @ CHA
p367
aVW
p368
aI28
aI6
aI10
aF0.6
aI3
aI5
aF0.6
aI3
aI4
aF0.75
aI1
aI4
aI5
aI1
aI1
aI3
aI1
aI2
aI18
aI9
aa(lp369
V0020800068
p370
aVNOV 07, 2008
p371
aVTOR @ ATL
p372
aVL
p373
aI26
aI4
aI8
aF0.5
aI1
aI2
aF0.5
aI0
aI0
aF0.0
aI0
aI3
aI3
aI0
aI0
aI0
aI2
aI3
aI9
aI-7
aa(lp374
V0020800052
p375
aVNOV 05, 2008
p376
aVTOR vs. DET
p377
aVL
p378
aI21
aI5
aI6
aF0.833
aI2
aI2
aF1.0
aI0
aI0
aF0.0
aI1
aI3
aI4
aI1
aI0
aI1
aI0
aI4
aI12
aI-15
aa(lp379
V0020800036
p380
aVNOV 01, 2008
p381
aVTOR @ MIL
p382
aVW
p383
aI17
aI0
aI3
aF0.0
aI0
aI1
aF0.0
aI0
aI0
aF0.0
aI1
aI4
aI5
aI0
aI0
aI2
aI2
aI4
aI0
aI-9
aa(lp384
V0020800020
p385
aVOCT 31, 2008
p386
aVTOR vs. GSW
p387
aVW
p388
aI30
aI8
aI10
aF0.8
aI1
aI2
aF0.5
aI2
aI2
aF1.0
aI1
aI4
aI5
aI0
aI0
aI3
aI2
aI1
aI19
aI11
aa(lp389
V0020800005
p390
aVOCT 29, 2008
p391
aVTOR @ PHI
p392
aVW
p393
aI20
aI0
aI4
aF0.0
aI0
aI0
aF0.0
aI0
aI0
aF0.0
aI1
aI4
aI5
aI2
aI1
aI2
aI0
aI2
aI0
aI10
aasS'name'
p394
VAndrea Bargnani
p395
sS'experience'
p396
I2
s.