(dp0
S'age'
p1
I25
sS'stats'
p2
(lp3
(lp4
V0020801223
p5
aVAPR 15, 2009
p6
aVMIA vs. DET
p7
aVW
p8
aI31
aI9
aI13
aF0.692
aI5
aI5
aF1.0
aI3
aI6
aF0.5
aI0
aI4
aI4
aI5
aI0
aI0
aI1
aI2
aI26
aI0
aa(lp9
V0020801214
p10
aVAPR 14, 2009
p11
aVMIA @ ATL
p12
aVL
p13
aI29
aI0
aI9
aF0.0
aI0
aI4
aF0.0
aI0
aI2
aF0.0
aI0
aI1
aI1
aI7
aI2
aI0
aI4
aI2
aI0
aI-5
aa(lp14
V0020801198
p15
aVAPR 12, 2009
p16
aVMIA vs. NYK
p17
aVW
p18
aI1
aI0
aI0
aF0.0
aI0
aI0
aF0.0
aI0
aI0
aF0.0
aI0
aI0
aI0
aI0
aI0
aI0
aI0
aI0
aI0
aI0
aa(lp19
V0020801179
p20
aVAPR 10, 2009
p21
aVMIA @ BOS
p22
aVL
p23
aI8
aI0
aI1
aF0.0
aI0
aI0
aF0.0
aI1
aI2
aF0.5
aI0
aI1
aI1
aI2
aI0
aI0
aI1
aI0
aI1
aI-1
aa(lp24
V0020801155
p25
aVAPR 07, 2009
p26
aVMIA vs. NOH
p27
aVL
p28
aI7
aI1
aI3
aF0.333
aI0
aI1
aF0.0
aI0
aI0
aF0.0
aI0
aI1
aI1
aI0
aI0
aI0
aI0
aI1
aI2
aI6
aa(lp29
V0020801139
p30
aVAPR 04, 2009
p31
aVMIA @ WAS
p32
aVW
p33
aI23
aI2
aI4
aF0.5
aI1
aI3
aF0.333
aI0
aI0
aF0.0
aI0
aI2
aI2
aI5
aI0
aI0
aI0
aI0
aI5
aI14
aa(lp34
V0020801125
p35
aVAPR 03, 2009
p36
aVMIA @ CHA
p37
aVW
p38
aI5
aI2
aI2
aF1.0
aI1
aI1
aF1.0
aI0
aI0
aF0.0
aI0
aI0
aI0
aI2
aI0
aI0
aI1
aI2
aI5
aI3
aa(lp39
V0020801118
p40
aVAPR 01, 2009
p41
aVMIA @ DAL
p42
aVL
p43
aI3
aI0
aI0
aF0.0
aI0
aI0
aF0.0
aI0
aI0
aF0.0
aI0
aI0
aI0
aI1
aI0
aI0
aI0
aI2
aI0
aI-5
aa(lp44
V0020801086
p45
aVMAR 28, 2009
p46
aVMIA vs. MIL
p47
aVW
p48
aI2
aI0
aI0
aF0.0
aI0
aI0
aF0.0
aI0
aI0
aF0.0
aI0
aI0
aI0
aI0
aI0
aI0
aI1
aI0
aI0
aI-1
aa(lp49
V0020801071
p50
aVMAR 26, 2009
p51
aVMIA @ CHI
p52
aVL
p53
aI2
aI0
aI0
aF0.0
aI0
aI0
aF0.0
aI0
aI0
aF0.0
aI0
aI0
aI0
aI0
aI0
aI0
aI0
aI0
aI0
aI0
aa(lp54
V0020801051
p55
aVMAR 23, 2009
p56
aVMIA vs. MEM
p57
aVW
p58
aI2
aI0
aI0
aF0.0
aI0
aI0
aF0.0
aI0
aI0
aF0.0
aI0
aI0
aI0
aI0
aI0
aI0
aI0
aI0
aI0
aI-5
aa(lp59
V0020801009
p60
aVMAR 18, 2009
p61
aVMIA @ BOS
p62
aVL
p63
aI13
aI2
aI3
aF0.667
aI0
aI0
aF0.0
aI2
aI2
aF1.0
aI0
aI1
aI1
aI3
aI0
aI0
aI0
aI0
aI6
aI5
aa(lp64
V0020800989
p65
aVMAR 15, 2009
p66
aVMIA @ PHI
p67
aVL
p68
aI4
aI1
aI1
aF1.0
aI1
aI1
aF1.0
aI0
aI0
aF0.0
aI0
aI0
aI0
aI1
aI0
aI0
aI1
aI0
aI3
aI6
aa(lp69
V0020800945
p70
aVMAR 09, 2009
p71
aVMIA vs. CHI
p72
aVW
p73
aI9
aI1
aI7
aF0.143
aI0
aI3
aF0.0
aI0
aI0
aF0.0
aI1
aI2
aI3
aI1
aI0
aI0
aI0
aI1
aI2
aI-12
aa(lp74
V0020800928
p75
aVMAR 07, 2009
p76
aVMIA @ CLE
p77
aVL
p78
aI6
aI0
aI1
aF0.0
aI0
aI0
aF0.0
aI0
aI0
aF0.0
aI1
aI0
aI1
aI2
aI1
aI0
aI1
aI0
aI0
aI-4
aa(lp79
V0020800919
p80
aVMAR 06, 2009
p81
aVMIA @ TOR
p82
aVW
p83
aI9
aI3
aI5
aF0.6
aI2
aI3
aF0.667
aI2
aI2
aF1.0
aI0
aI1
aI1
aI0
aI1
aI0
aI0
aI0
aI10
aI5
aa(lp84
V0020800866
p85
aVFEB 27, 2009
p86
aVMIA @ ATL
p87
aVL
p88
aI3
aI0
aI0
aF0.0
aI0
aI0
aF0.0
aI0
aI0
aF0.0
aI0
aI0
aI0
aI0
aI0
aI0
aI0
aI1
aI0
aI1
aa(lp89
V0020800832
p90
aVFEB 22, 2009
p91
aVMIA @ ORL
p92
aVL
p93
aI19
aI3
aI5
aF0.6
aI1
aI2
aF0.5
aI0
aI0
aF0.0
aI0
aI0
aI0
aI0
aI0
aI0
aI1
aI2
aI7
aI-7
aa(lp94
V0020800822
p95
aVFEB 21, 2009
p96
aVMIA vs. PHI
p97
aVW
p98
aI15
aI2
aI5
aF0.4
aI1
aI3
aF0.333
aI0
aI0
aF0.0
aI0
aI1
aI1
aI2
aI0
aI0
aI1
aI3
aI5
aI-9
aa(lp99
V0020800800
p100
aVFEB 18, 2009
p101
aVMIA vs. MIN
p102
aVL
p103
aI24
aI2
aI8
aF0.25
aI0
aI3
aF0.0
aI1
aI1
aF1.0
aI0
aI1
aI1
aI0
aI1
aI0
aI0
aI1
aI5
aI-18
aa(lp104
V0020800785
p105
aVFEB 12, 2009
p106
aVMIA @ CHI
p107
aVW
p108
aI14
aI1
aI5
aF0.2
aI1
aI4
aF0.25
aI0
aI1
aF0.0
aI0
aI2
aI2
aI2
aI2
aI0
aI1
aI2
aI3
aI-2
aa(lp109
V0020800766
p110
aVFEB 10, 2009
p111
aVMIA vs. DEN
p112
aVL
p113
aI11
aI2
aI3
aF0.667
aI2
aI3
aF0.667
aI2
aI2
aF1.0
aI1
aI0
aI1
aI1
aI0
aI0
aI0
aI0
aI8
aI-4
aa(lp114
V0020800752
p115
aVFEB 08, 2009
p116
aVMIA vs. CHA
p117
aVW
p118
aI13
aI3
aI6
aF0.5
aI0
aI1
aF0.0
aI0
aI0
aF0.0
aI0
aI0
aI0
aI3
aI0
aI0
aI0
aI2
aI6
aI-7
aa(lp119
V0020800744
p120
aVFEB 07, 2009
p121
aVMIA @ PHI
p122
aVL
p123
aI12
aI1
aI3
aF0.333
aI0
aI1
aF0.0
aI0
aI0
aF0.0
aI0
aI0
aI0
aI1
aI0
aI0
aI2
aI1
aI2
aI-4
aa(lp124
V0020800723
p125
aVFEB 04, 2009
p126
aVMIA @ DET
p127
aVL
p128
aI8
aI0
aI1
aF0.0
aI0
aI0
aF0.0
aI0
aI0
aF0.0
aI0
aI0
aI0
aI0
aI0
aI0
aI0
aI2
aI0
aI-6
aa(lp129
V0020800708
p130
aVFEB 02, 2009
p131
aVMIA vs. LAC
p132
aVW
p133
aI13
aI4
aI5
aF0.8
aI1
aI1
aF1.0
aI0
aI0
aF0.0
aI0
aI2
aI2
aI1
aI1
aI0
aI1
aI2
aI9
aI6
aa(lp134
V0020800694
p135
aVJAN 31, 2009
p136
aVMIA vs. DAL
p137
aVL
p138
aI19
aI3
aI6
aF0.5
aI0
aI1
aF0.0
aI4
aI5
aF0.8
aI0
aI2
aI2
aI4
aI0
aI0
aI0
aI1
aI10
aI5
aa(lp139
V0020800682
p140
aVJAN 30, 2009
p141
aVMIA @ IND
p142
aVL
p143
aI28
aI2
aI3
aF0.667
aI0
aI1
aF0.0
aI2
aI2
aF1.0
aI0
aI3
aI3
aI5
aI1
aI0
aI2
aI3
aI6
aI-1
aa(lp144
V0020800669
p145
aVJAN 28, 2009
p146
aVMIA vs. WAS
p147
aVW
p148
aI18
aI1
aI6
aF0.167
aI1
aI4
aF0.25
aI2
aI2
aF1.0
aI1
aI0
aI1
aI5
aI1
aI0
aI0
aI0
aI5
aI9
aa(lp149
V0020800656
p150
aVJAN 26, 2009
p151
aVMIA vs. ATL
p152
aVW
p153
aI12
aI1
aI4
aF0.25
aI1
aI2
aF0.5
aI0
aI0
aF0.0
aI0
aI0
aI0
aI0
aI1
aI0
aI1
aI1
aI3
aI4
aa(lp154
V0020800641
p155
aVJAN 24, 2009
p156
aVMIA vs. ORL
p157
aVW
p158
aI15
aI3
aI5
aF0.6
aI2
aI2
aF1.0
aI2
aI3
aF0.667
aI1
aI3
aI4
aI1
aI0
aI0
aI0
aI0
aI10
aI5
aa(lp159
V0020800619
p160
aVJAN 21, 2009
p161
aVMIA vs. BOS
p162
aVL
p163
aI12
aI2
aI6
aF0.333
aI0
aI1
aF0.0
aI2
aI2
aF1.0
aI0
aI1
aI1
aI1
aI0
aI0
aI1
aI0
aI6
aI2
aa(lp164
V0020800600
p165
aVJAN 18, 2009
p166
aVMIA @ OKC
p167
aVW
p168
aI18
aI2
aI5
aF0.4
aI0
aI0
aF0.0
aI2
aI3
aF0.667
aI0
aI1
aI1
aI2
aI1
aI0
aI0
aI1
aI6
aI-3
aa(lp169
V0020800595
p170
aVJAN 17, 2009
p171
aVMIA @ HOU
p172
aVL
p173
aI11
aI1
aI4
aF0.25
aI1
aI2
aF0.5
aI0
aI0
aF0.0
aI0
aI1
aI1
aI3
aI0
aI0
aI0
aI1
aI3
aI4
aa(lp174
V0020800571
p175
aVJAN 14, 2009
p176
aVMIA @ MIL
p177
aVW
p178
aI33
aI1
aI5
aF0.2
aI1
aI2
aF0.5
aI1
aI1
aF1.0
aI0
aI2
aI2
aI4
aI1
aI0
aI1
aI1
aI4
aI3
aa(lp179
V0020800561
p180
aVJAN 13, 2009
p181
aVMIA @ MIN
p182
aVW
p183
aI18
aI1
aI3
aF0.333
aI1
aI2
aF0.5
aI4
aI4
aF1.0
aI0
aI0
aI0
aI3
aI2
aI0
aI0
aI1
aI7
aI5
aa(lp184
V0020800552
p185
aVJAN 11, 2009
p186
aVMIA @ LAL
p187
aVL
p188
aI32
aI5
aI12
aF0.417
aI2
aI7
aF0.286
aI0
aI0
aF0.0
aI0
aI3
aI3
aI7
aI0
aI0
aI1
aI2
aI12
aI11
aa(lp189
V0020800537
p190
aVJAN 09, 2009
p191
aVMIA @ SAC
p192
aVW
p193
aI9
aI1
aI3
aF0.333
aI0
aI1
aF0.0
aI0
aI0
aF0.0
aI0
aI0
aI0
aI3
aI0
aI0
aI1
aI3
aI2
aI0
aa(lp194
V0020800521
p195
aVJAN 07, 2009
p196
aVMIA @ DEN
p197
aVL
p198
aI15
aI1
aI5
aF0.2
aI1
aI5
aF0.2
aI1
aI1
aF1.0
aI1
aI0
aI1
aI0
aI0
aI0
aI0
aI2
aI4
aI-4
aa(lp199
V0020800501
p200
aVJAN 05, 2009
p201
aVMIA vs. SAS
p202
aVL
p203
aI14
aI3
aI4
aF0.75
aI2
aI3
aF0.667
aI0
aI0
aF0.0
aI0
aI1
aI1
aI1
aI0
aI0
aI1
aI1
aI8
aI0
aa(lp204
V0020800491
p205
aVJAN 03, 2009
p206
aVMIA vs. NJN
p207
aVW
p208
aI18
aI3
aI5
aF0.6
aI1
aI3
aF0.333
aI0
aI0
aF0.0
aI0
aI1
aI1
aI3
aI2
aI0
aI1
aI1
aI7
aI9
aa(lp209
V0020800473
p210
aVJAN 02, 2009
p211
aVMIA @ ORL
p212
aVL
p213
aI1
aI0
aI0
aF0.0
aI0
aI0
aF0.0
aI0
aI0
aF0.0
aI0
aI0
aI0
aI0
aI0
aI0
aI0
aI0
aI0
aI2
aa(lp214
V0020800426
p215
aVDEC 26, 2008
p216
aVMIA vs. CHI
p217
aVW
p218
aI1
aI0
aI0
aF0.0
aI0
aI0
aF0.0
aI0
aI0
aF0.0
aI0
aI1
aI1
aI0
aI0
aI0
aI0
aI0
aI0
aI0
aa(lp219
V0020800414
p220
aVDEC 23, 2008
p221
aVMIA vs. GSW
p222
aVW
p223
aI10
aI0
aI0
aF0.0
aI0
aI0
aF0.0
aI0
aI0
aF0.0
aI0
aI2
aI2
aI2
aI0
aI0
aI1
aI0
aI0
aI0
aa(lp224
V0020800385
p225
aVDEC 19, 2008
p226
aVMIA vs. LAL
p227
aVW
p228
aI5
aI0
aI1
aF0.0
aI0
aI0
aF0.0
aI0
aI0
aF0.0
aI0
aI0
aI0
aI2
aI0
aI0
aI0
aI0
aI0
aI-6
aa(lp229
V0020800355
p230
aVDEC 15, 2008
p231
aVMIA vs. MIL
p232
aVL
p233
aI10
aI1
aI4
aF0.25
aI1
aI3
aF0.333
aI0
aI0
aF0.0
aI0
aI0
aI0
aI0
aI0
aI0
aI0
aI1
aI3
aI-8
aa(lp234
V0020800348
p235
aVDEC 14, 2008
p236
aVMIA @ MEM
p237
aVL
p238
aI21
aI3
aI10
aF0.3
aI1
aI5
aF0.2
aI0
aI0
aF0.0
aI0
aI1
aI1
aI2
aI0
aI0
aI0
aI0
aI7
aI5
aa(lp239
V0020800327
p240
aVDEC 12, 2008
p241
aVMIA vs. ATL
p242
aVL
p243
aI14
aI1
aI3
aF0.333
aI0
aI1
aF0.0
aI0
aI0
aF0.0
aI0
aI1
aI1
aI3
aI0
aI0
aI0
aI2
aI2
aI-7
aa(lp244
V0020800301
p245
aVDEC 08, 2008
p246
aVMIA vs. CHA
p247
aVW
p248
aI13
aI3
aI7
aF0.429
aI2
aI4
aF0.5
aI1
aI1
aF1.0
aI0
aI1
aI1
aI0
aI0
aI0
aI0
aI2
aI9
aI-6
aa(lp249
V0020800273
p250
aVDEC 03, 2008
p251
aVMIA @ UTA
p252
aVW
p253
aI18
aI2
aI6
aF0.333
aI1
aI2
aF0.5
aI0
aI0
aF0.0
aI0
aI3
aI3
aI6
aI1
aI1
aI0
aI2
aI5
aI1
aa(lp254
V0020800254
p255
aVDEC 01, 2008
p256
aVMIA @ GSW
p257
aVW
p258
aI19
aI3
aI6
aF0.5
aI1
aI4
aF0.25
aI1
aI1
aF1.0
aI0
aI0
aI0
aI3
aI0
aI0
aI1
aI3
aI8
aI11
aa(lp259
V0020800246
p260
aVNOV 29, 2008
p261
aVMIA @ LAC
p262
aVL
p263
aI11
aI1
aI4
aF0.25
aI1
aI2
aF0.5
aI0
aI0
aF0.0
aI0
aI2
aI2
aI1
aI0
aI0
aI0
aI3
aI3
aI-1
aa(lp264
V0020800231
p265
aVNOV 28, 2008
p266
aVMIA @ PHX
p267
aVW
p268
aI13
aI0
aI4
aF0.0
aI0
aI2
aF0.0
aI1
aI1
aF1.0
aI0
aI1
aI1
aI2
aI0
aI0
aI0
aI2
aI1
aI-2
aa(lp269
V0020800220
p270
aVNOV 26, 2008
p271
aVMIA @ POR
p272
aVL
p273
aI12
aI0
aI0
aF0.0
aI0
aI0
aF0.0
aI0
aI0
aF0.0
aI0
aI0
aI0
aI1
aI0
aI0
aI1
aI2
aI0
aI-21
aa(lp274
V0020800200
p275
aVNOV 24, 2008
p276
aVMIA vs. HOU
p277
aVL
p278
aI11
aI1
aI5
aF0.2
aI1
aI3
aF0.333
aI0
aI0
aF0.0
aI0
aI0
aI0
aI2
aI0
aI0
aI0
aI0
aI3
aI-5
aa(lp279
V0020800187
p280
aVNOV 22, 2008
p281
aVMIA vs. IND
p282
aVW
p283
aI24
aI3
aI6
aF0.5
aI1
aI2
aF0.5
aI1
aI1
aF1.0
aI0
aI2
aI2
aI2
aI1
aI0
aI1
aI4
aI8
aI8
aa(lp284
V0020800161
p285
aVNOV 19, 2008
p286
aVMIA vs. TOR
p287
aVL
p288
aI24
aI2
aI4
aF0.5
aI1
aI2
aF0.5
aI1
aI1
aF1.0
aI1
aI2
aI3
aI3
aI0
aI0
aI2
aI1
aI6
aI14
aa(lp289
V0020800152
p290
aVNOV 18, 2008
p291
aVMIA @ WAS
p292
aVW
p293
aI25
aI4
aI9
aF0.444
aI2
aI4
aF0.5
aI0
aI0
aF0.0
aI0
aI1
aI1
aI1
aI0
aI0
aI1
aI0
aI10
aI-3
aa(lp294
V0020800140
p295
aVNOV 16, 2008
p296
aVMIA @ TOR
p297
aVL
p298
aI24
aI4
aI10
aF0.4
aI2
aI4
aF0.5
aI1
aI1
aF1.0
aI0
aI1
aI1
aI3
aI0
aI0
aI0
aI1
aI11
aI-8
aa(lp299
V0020800122
p300
aVNOV 14, 2008
p301
aVMIA vs. WAS
p302
aVW
p303
aI27
aI4
aI10
aF0.4
aI1
aI4
aF0.25
aI0
aI0
aF0.0
aI1
aI2
aI3
aI3
aI1
aI0
aI0
aI2
aI9
aI14
aa(lp304
V0020800108
p305
aVNOV 12, 2008
p306
aVMIA vs. POR
p307
aVL
p308
aI30
aI4
aI7
aF0.571
aI1
aI3
aF0.333
aI1
aI1
aF1.0
aI0
aI1
aI1
aI5
aI0
aI0
aI0
aI3
aI10
aI1
aa(lp309
V0020800096
p310
aVNOV 10, 2008
p311
aVMIA vs. NJN
p312
aVW
p313
aI22
aI1
aI4
aF0.25
aI1
aI2
aF0.5
aI6
aI6
aF1.0
aI0
aI2
aI2
aI2
aI0
aI0
aI1
aI1
aI9
aI17
aa(lp314
V0020800081
p315
aVNOV 08, 2008
p316
aVMIA @ NOH
p317
aVL
p318
aI24
aI5
aI8
aF0.625
aI4
aI7
aF0.571
aI0
aI0
aF0.0
aI0
aI3
aI3
aI2
aI2
aI0
aI0
aI2
aI14
aI6
aa(lp319
V0020800072
p320
aVNOV 07, 2008
p321
aVMIA @ SAS
p322
aVW
p323
aI17
aI5
aI9
aF0.556
aI5
aI6
aF0.833
aI0
aI0
aF0.0
aI0
aI2
aI2
aI1
aI1
aI0
aI0
aI1
aI15
aI0
aa(lp324
V0020800053
p325
aVNOV 05, 2008
p326
aVMIA vs. PHI
p327
aVW
p328
aI17
aI2
aI4
aF0.5
aI1
aI2
aF0.5
aI1
aI2
aF0.5
aI0
aI2
aI2
aI5
aI1
aI1
aI0
aI2
aI6
aI5
aa(lp329
V0020800027
p330
aVNOV 01, 2008
p331
aVMIA @ CHA
p332
aVL
p333
aI11
aI0
aI2
aF0.0
aI0
aI0
aF0.0
aI2
aI2
aF1.0
aI0
aI0
aI0
aI0
aI0
aI0
aI0
aI1
aI2
aI-15
aasS'name'
p334
VChris Quinn
p335
sS'experience'
p336
I2
s.