(dp0
S'age'
p1
I25
sS'stats'
p2
(lp3
(lp4
V0020800857
p5
aVFEB 25, 2009
p6
aVSAS vs. POR
p7
aVW
p8
aI1
aI0
aI0
aF0.0
aI0
aI0
aF0.0
aI0
aI0
aF0.0
aI0
aI1
aI1
aI0
aI0
aI0
aI0
aI0
aI0
aI1
aa(lp9
V0020800873
p10
aVFEB 27, 2009
p11
aVSAS vs. CLE
p12
aVL
p13
aI12
aI3
aI3
aF1.0
aI0
aI0
aF0.0
aI5
aI7
aF0.714
aI4
aI2
aI6
aI0
aI1
aI1
aI1
aI3
aI11
aI10
aa(lp14
V0020800889
p15
aVMAR 01, 2009
p16
aVSAS @ POR
p17
aVL
p18
aI7
aI2
aI4
aF0.5
aI0
aI0
aF0.0
aI0
aI0
aF0.0
aI1
aI2
aI3
aI0
aI0
aI0
aI1
aI3
aI4
aI7
aa(lp19
V0020800919
p20
aVMAR 06, 2009
p21
aVTOR vs. MIA
p22
aVL
p23
aI15
aI2
aI6
aF0.333
aI0
aI1
aF0.0
aI0
aI0
aF0.0
aI3
aI7
aI10
aI1
aI0
aI0
aI1
aI2
aI4
aI6
aa(lp24
V0020800937
p25
aVMAR 08, 2009
p26
aVTOR vs. UTA
p27
aVL
p28
aI11
aI0
aI2
aF0.0
aI0
aI0
aF0.0
aI0
aI0
aF0.0
aI2
aI5
aI7
aI0
aI0
aI1
aI2
aI4
aI0
aI3
aa(lp29
V0020800957
p30
aVMAR 11, 2009
p31
aVTOR @ PHI
p32
aVL
p33
aI17
aI2
aI5
aF0.4
aI0
aI0
aF0.0
aI1
aI1
aF1.0
aI3
aI5
aI8
aI0
aI0
aI0
aI0
aI5
aI5
aI17
aa(lp34
V0020800970
p35
aVMAR 13, 2009
p36
aVTOR vs. DET
p37
aVL
p38
aI28
aI3
aI5
aF0.6
aI0
aI0
aF0.0
aI2
aI2
aF1.0
aI3
aI7
aI10
aI0
aI1
aI0
aI1
aI4
aI8
aI-3
aa(lp39
V0020800990
p40
aVMAR 15, 2009
p41
aVTOR vs. IND
p42
aVW
p43
aI22
aI5
aI10
aF0.5
aI0
aI0
aF0.0
aI11
aI13
aF0.846
aI5
aI3
aI8
aI0
aI0
aI0
aI2
aI1
aI21
aI11
aa(lp44
V0020800996
p45
aVMAR 16, 2009
p46
aVTOR @ CHA
p47
aVL
p48
aI20
aI2
aI6
aF0.333
aI0
aI0
aF0.0
aI4
aI6
aF0.667
aI1
aI2
aI3
aI0
aI1
aI2
aI1
aI1
aI8
aI-16
aa(lp49
V0020801024
p50
aVMAR 20, 2009
p51
aVTOR vs. CHA
p52
aVL
p53
aI8
aI0
aI3
aF0.0
aI0
aI0
aF0.0
aI0
aI0
aF0.0
aI3
aI2
aI5
aI0
aI0
aI1
aI2
aI2
aI0
aI-8
aa(lp54
V0020801044
p55
aVMAR 22, 2009
p56
aVTOR vs. LAC
p57
aVW
p58
aI21
aI4
aI8
aF0.5
aI0
aI0
aF0.0
aI0
aI0
aF0.0
aI2
aI6
aI8
aI1
aI0
aI0
aI0
aI5
aI8
aI3
aa(lp59
V0020801075
p60
aVMAR 27, 2009
p61
aVTOR vs. OKC
p62
aVW
p63
aI8
aI0
aI0
aF0.0
aI0
aI0
aF0.0
aI0
aI0
aF0.0
aI0
aI2
aI2
aI0
aI0
aI0
aI1
aI1
aI0
aI0
aa(lp64
V0020801094
p65
aVMAR 29, 2009
p66
aVTOR vs. CHI
p67
aVW
p68
aI23
aI5
aI8
aF0.625
aI0
aI0
aF0.0
aI3
aI5
aF0.6
aI3
aI1
aI4
aI0
aI1
aI0
aI2
aI0
aI13
aI11
aa(lp69
V0020801113
p70
aVAPR 01, 2009
p71
aVTOR @ ORL
p72
aVW
p73
aI6
aI0
aI2
aF0.0
aI0
aI0
aF0.0
aI0
aI0
aF0.0
aI0
aI0
aI0
aI0
aI0
aI0
aI0
aI2
aI0
aI-1
aa(lp74
V0020801135
p75
aVAPR 04, 2009
p76
aVTOR @ NYK
p77
aVW
p78
aI6
aI0
aI0
aF0.0
aI0
aI0
aF0.0
aI1
aI2
aF0.5
aI1
aI2
aI3
aI0
aI0
aI0
aI1
aI0
aI1
aI-12
aa(lp79
V0020801145
p80
aVAPR 05, 2009
p81
aVTOR vs. NYK
p82
aVL
p83
aI12
aI0
aI7
aF0.0
aI0
aI1
aF0.0
aI0
aI0
aF0.0
aI7
aI1
aI8
aI1
aI0
aI0
aI1
aI1
aI0
aI-13
aa(lp84
V0020801154
p85
aVAPR 07, 2009
p86
aVTOR vs. ATL
p87
aVL
p88
aI6
aI1
aI3
aF0.333
aI0
aI0
aF0.0
aI2
aI3
aF0.667
aI1
aI0
aI1
aI0
aI0
aI0
aI0
aI2
aI4
aI5
aa(lp89
V0020801163
p90
aVAPR 08, 2009
p91
aVTOR @ IND
p92
aVL
p93
aI22
aI3
aI11
aF0.273
aI0
aI0
aF0.0
aI2
aI4
aF0.5
aI5
aI0
aI5
aI1
aI0
aI0
aI0
aI0
aI8
aI-18
aa(lp94
V0020801183
p95
aVAPR 10, 2009
p96
aVTOR vs. WAS
p97
aVL
p98
aI10
aI3
aI6
aF0.5
aI0
aI0
aF0.0
aI0
aI0
aF0.0
aI3
aI4
aI7
aI0
aI0
aI0
aI2
aI3
aI6
aI3
aa(lp99
V0020801199
p100
aVAPR 12, 2009
p101
aVTOR vs. PHI
p102
aVW
p103
aI3
aI0
aI0
aF0.0
aI0
aI0
aF0.0
aI1
aI2
aF0.5
aI0
aI2
aI2
aI1
aI1
aI0
aI0
aI0
aI1
aI7
aa(lp104
V0020801203
p105
aVAPR 13, 2009
p106
aVTOR @ WAS
p107
aVW
p108
aI20
aI4
aI10
aF0.4
aI0
aI0
aF0.0
aI1
aI3
aF0.333
aI8
aI4
aI12
aI1
aI4
aI0
aI1
aI3
aI9
aI-5
aa(lp109
V0020801218
p110
aVAPR 15, 2009
p111
aVTOR @ CHI
p112
aVW
p113
aI5
aI0
aI4
aF0.0
aI0
aI0
aF0.0
aI0
aI0
aF0.0
aI0
aI0
aI0
aI0
aI0
aI0
aI0
aI1
aI0
aI-1
aasS'name'
p114
VPops Mensah-Bonsu
p115
sS'experience'
p116
I2
s.