(dp0
S'age'
p1
I25
sS'stats'
p2
(lp3
(lp4
V0020801220
p5
aVAPR 15, 2009
p6
aVHOU @ DAL
p7
aVL
p8
aI28
aI4
aI7
aF0.571
aI0
aI0
aF0.0
aI0
aI0
aF0.0
aI0
aI3
aI3
aI0
aI0
aI1
aI0
aI2
aI8
aI-4
aa(lp9
V0020801208
p10
aVAPR 13, 2009
p11
aVHOU vs. NOH
p12
aVW
p13
aI23
aI5
aI5
aF1.0
aI0
aI0
aF0.0
aI0
aI0
aF0.0
aI1
aI6
aI7
aI0
aI0
aI0
aI3
aI2
aI10
aI6
aa(lp14
V0020801187
p15
aVAPR 10, 2009
p16
aVHOU @ GSW
p17
aVW
p18
aI17
aI3
aI5
aF0.6
aI0
aI0
aF0.0
aI2
aI4
aF0.5
aI2
aI1
aI3
aI0
aI0
aI0
aI2
aI2
aI8
aI-5
aa(lp19
V0020801174
p20
aVAPR 09, 2009
p21
aVHOU @ SAC
p22
aVW
p23
aI18
aI3
aI4
aF0.75
aI0
aI0
aF0.0
aI0
aI0
aF0.0
aI0
aI6
aI6
aI1
aI0
aI2
aI1
aI3
aI6
aI12
aa(lp24
V0020801159
p25
aVAPR 07, 2009
p26
aVHOU vs. ORL
p27
aVW
p28
aI20
aI4
aI7
aF0.571
aI0
aI0
aF0.0
aI0
aI1
aF0.0
aI2
aI3
aI5
aI0
aI0
aI2
aI1
aI3
aI8
aI10
aa(lp29
V0020800998
p30
aVMAR 16, 2009
p31
aVHOU @ NOH
p32
aVW
p33
aI23
aI3
aI7
aF0.429
aI0
aI0
aF0.0
aI6
aI6
aF1.0
aI2
aI4
aI6
aI1
aI0
aI2
aI0
aI4
aI12
aI3
aa(lp34
V0020800982
p35
aVMAR 14, 2009
p36
aVHOU vs. SAS
p37
aVL
p38
aI16
aI0
aI2
aF0.0
aI0
aI0
aF0.0
aI2
aI4
aF0.5
aI1
aI1
aI2
aI0
aI0
aI0
aI0
aI1
aI2
aI-6
aa(lp39
V0020800968
p40
aVMAR 13, 2009
p41
aVHOU @ CHA
p42
aVW
p43
aI14
aI2
aI4
aF0.5
aI0
aI0
aF0.0
aI0
aI0
aF0.0
aI1
aI2
aI3
aI0
aI0
aI0
aI2
aI4
aI4
aI-2
aa(lp44
V0020800962
p45
aVMAR 11, 2009
p46
aVHOU vs. LAL
p47
aVL
p48
aI26
aI4
aI6
aF0.667
aI0
aI0
aF0.0
aI2
aI2
aF1.0
aI2
aI6
aI8
aI0
aI1
aI0
aI0
aI2
aI10
aI3
aa(lp49
V0020800947
p50
aVMAR 09, 2009
p51
aVHOU @ DEN
p52
aVW
p53
aI29
aI5
aI9
aF0.556
aI0
aI0
aF0.0
aI2
aI5
aF0.4
aI2
aI3
aI5
aI0
aI0
aI1
aI1
aI1
aI12
aI-2
aa(lp54
V0020800940
p55
aVMAR 08, 2009
p56
aVHOU vs. MEM
p57
aVW
p58
aI18
aI3
aI5
aF0.6
aI0
aI0
aF0.0
aI0
aI0
aF0.0
aI0
aI3
aI3
aI0
aI1
aI4
aI1
aI3
aI6
aI14
aa(lp59
V0020800923
p60
aVMAR 06, 2009
p61
aVHOU vs. PHX
p62
aVW
p63
aI23
aI6
aI7
aF0.857
aI0
aI0
aF0.0
aI4
aI8
aF0.5
aI1
aI1
aI2
aI0
aI4
aI0
aI2
aI3
aI16
aI3
aa(lp64
V0020800912
p65
aVMAR 04, 2009
p66
aVHOU @ UTA
p67
aVL
p68
aI28
aI2
aI3
aF0.667
aI0
aI1
aF0.0
aI4
aI4
aF1.0
aI2
aI4
aI6
aI0
aI2
aI0
aI4
aI4
aI8
aI1
aa(lp69
V0020800902
p70
aVMAR 03, 2009
p71
aVHOU vs. TOR
p72
aVW
p73
aI32
aI7
aI9
aF0.778
aI0
aI0
aF0.0
aI8
aI8
aF1.0
aI0
aI6
aI6
aI1
aI0
aI2
aI1
aI1
aI22
aI30
aa(lp74
V0020800888
p75
aVMAR 01, 2009
p76
aVHOU @ MIN
p77
aVW
p78
aI26
aI4
aI5
aF0.8
aI0
aI0
aF0.0
aI4
aI4
aF1.0
aI0
aI3
aI3
aI0
aI1
aI2
aI0
aI1
aI12
aI-12
aa(lp79
V0020800794
p80
aVFEB 17, 2009
p81
aVHOU vs. NJN
p82
aVW
p83
aI10
aI2
aI7
aF0.286
aI0
aI0
aF0.0
aI2
aI2
aF1.0
aI4
aI3
aI7
aI0
aI0
aI0
aI0
aI1
aI6
aI11
aa(lp84
V0020800781
p85
aVFEB 11, 2009
p86
aVHOU vs. SAC
p87
aVW
p88
aI16
aI3
aI4
aF0.75
aI0
aI0
aF0.0
aI0
aI0
aF0.0
aI1
aI1
aI2
aI0
aI1
aI0
aI0
aI3
aI6
aI-8
aa(lp89
V0020800763
p90
aVFEB 09, 2009
p91
aVHOU @ MIL
p92
aVL
p93
aI24
aI3
aI5
aF0.6
aI0
aI0
aF0.0
aI10
aI11
aF0.909
aI4
aI3
aI7
aI0
aI0
aI0
aI1
aI3
aI16
aI-1
aa(lp94
V0020800748
p95
aVFEB 07, 2009
p96
aVHOU vs. MIN
p97
aVW
p98
aI18
aI5
aI9
aF0.556
aI0
aI1
aF0.0
aI0
aI0
aF0.0
aI2
aI4
aI6
aI1
aI0
aI1
aI2
aI3
aI10
aI14
aa(lp99
V0020800725
p100
aVFEB 04, 2009
p101
aVHOU @ MEM
p102
aVL
p103
aI15
aI0
aI2
aF0.0
aI0
aI0
aF0.0
aI0
aI0
aF0.0
aI1
aI4
aI5
aI0
aI0
aI0
aI2
aI5
aI0
aI-7
aa(lp104
V0020800718
p105
aVFEB 03, 2009
p106
aVHOU vs. CHI
p107
aVW
p108
aI20
aI1
aI5
aF0.2
aI0
aI0
aF0.0
aI3
aI4
aF0.75
aI3
aI2
aI5
aI0
aI1
aI0
aI1
aI3
aI5
aI-6
aa(lp109
V0020800697
p110
aVJAN 31, 2009
p111
aVHOU vs. GSW
p112
aVW
p113
aI20
aI6
aI8
aF0.75
aI1
aI1
aF1.0
aI4
aI4
aF1.0
aI3
aI5
aI8
aI0
aI1
aI0
aI1
aI1
aI17
aI12
aa(lp114
V0020800675
p115
aVJAN 28, 2009
p116
aVHOU vs. PHI
p117
aVL
p118
aI17
aI4
aI8
aF0.5
aI0
aI0
aF0.0
aI1
aI3
aF0.333
aI1
aI2
aI3
aI0
aI0
aI0
aI1
aI2
aI9
aI-5
aa(lp119
V0020800657
p120
aVJAN 26, 2009
p121
aVHOU @ NYK
p122
aVL
p123
aI19
aI5
aI9
aF0.556
aI0
aI0
aF0.0
aI6
aI6
aF1.0
aI2
aI1
aI3
aI0
aI0
aI0
aI1
aI1
aI16
aI4
aa(lp124
V0020800650
p125
aVJAN 25, 2009
p126
aVHOU @ DET
p127
aVW
p128
aI21
aI2
aI3
aF0.667
aI0
aI0
aF0.0
aI4
aI4
aF1.0
aI0
aI2
aI2
aI3
aI0
aI0
aI1
aI2
aI8
aI1
aa(lp129
V0020800632
p130
aVJAN 23, 2009
p131
aVHOU @ IND
p132
aVL
p133
aI23
aI7
aI12
aF0.583
aI0
aI0
aF0.0
aI3
aI4
aF0.75
aI1
aI0
aI1
aI0
aI1
aI1
aI2
aI3
aI17
aI-12
aa(lp134
V0020800623
p135
aVJAN 21, 2009
p136
aVHOU vs. UTA
p137
aVW
p138
aI24
aI4
aI8
aF0.5
aI0
aI0
aF0.0
aI2
aI3
aF0.667
aI3
aI4
aI7
aI1
aI0
aI1
aI3
aI2
aI10
aI-3
aa(lp139
V0020800605
p140
aVJAN 19, 2009
p141
aVHOU vs. DEN
p142
aVW
p143
aI24
aI1
aI5
aF0.2
aI0
aI0
aF0.0
aI2
aI2
aF1.0
aI1
aI2
aI3
aI2
aI1
aI0
aI0
aI3
aI4
aI-1
aa(lp144
V0020800595
p145
aVJAN 17, 2009
p146
aVHOU vs. MIA
p147
aVW
p148
aI21
aI4
aI6
aF0.667
aI0
aI0
aF0.0
aI1
aI2
aF0.5
aI2
aI1
aI3
aI1
aI0
aI1
aI0
aI2
aI9
aI6
aa(lp149
V0020800562
p150
aVJAN 13, 2009
p151
aVHOU vs. LAL
p152
aVL
p153
aI30
aI8
aI12
aF0.667
aI0
aI0
aF0.0
aI5
aI5
aF1.0
aI3
aI5
aI8
aI1
aI0
aI0
aI2
aI4
aI21
aI-6
aa(lp154
V0020800543
p155
aVJAN 10, 2009
p156
aVHOU vs. NYK
p157
aVW
p158
aI26
aI0
aI5
aF0.0
aI0
aI0
aF0.0
aI4
aI4
aF1.0
aI2
aI7
aI9
aI1
aI0
aI1
aI0
aI1
aI4
aI0
aa(lp159
V0020800533
p160
aVJAN 09, 2009
p161
aVHOU @ OKC
p162
aVW
p163
aI22
aI3
aI4
aF0.75
aI0
aI0
aF0.0
aI0
aI0
aF0.0
aI1
aI3
aI4
aI0
aI0
aI1
aI1
aI1
aI6
aI9
aa(lp164
V0020800517
p165
aVJAN 07, 2009
p166
aVHOU @ BOS
p167
aVW
p168
aI28
aI2
aI5
aF0.4
aI0
aI0
aF0.0
aI2
aI3
aF0.667
aI2
aI4
aI6
aI2
aI0
aI1
aI0
aI3
aI6
aI8
aa(lp169
V0020800508
p170
aVJAN 06, 2009
p171
aVHOU @ PHI
p172
aVL
p173
aI23
aI5
aI10
aF0.5
aI0
aI0
aF0.0
aI4
aI4
aF1.0
aI5
aI4
aI9
aI0
aI0
aI0
aI2
aI3
aI14
aI-8
aa(lp174
V0020800488
p175
aVJAN 03, 2009
p176
aVHOU @ ATL
p177
aVL
p178
aI19
aI5
aI5
aF1.0
aI0
aI0
aF0.0
aI8
aI8
aF1.0
aI3
aI2
aI5
aI0
aI0
aI0
aI0
aI2
aI18
aI2
aa(lp179
V0020800474
p180
aVJAN 02, 2009
p181
aVHOU @ TOR
p182
aVL
p183
aI24
aI1
aI7
aF0.143
aI0
aI0
aF0.0
aI0
aI0
aF0.0
aI2
aI3
aI5
aI0
aI0
aI1
aI2
aI2
aI2
aI-18
aa(lp184
V0020800469
p185
aVDEC 31, 2008
p186
aVHOU vs. MIL
p187
aVW
p188
aI23
aI5
aI6
aF0.833
aI0
aI0
aF0.0
aI4
aI5
aF0.8
aI3
aI1
aI4
aI0
aI2
aI0
aI2
aI3
aI14
aI18
aa(lp189
V0020800455
p190
aVDEC 29, 2008
p191
aVHOU vs. WAS
p192
aVL
p193
aI21
aI3
aI7
aF0.429
aI0
aI0
aF0.0
aI0
aI0
aF0.0
aI2
aI4
aI6
aI0
aI0
aI0
aI0
aI2
aI6
aI0
aa(lp194
V0020800440
p195
aVDEC 27, 2008
p196
aVHOU vs. UTA
p197
aVW
p198
aI22
aI3
aI5
aF0.6
aI0
aI0
aF0.0
aI0
aI0
aF0.0
aI2
aI2
aI4
aI0
aI0
aI1
aI1
aI4
aI6
aI-5
aa(lp199
V0020800431
p200
aVDEC 26, 2008
p201
aVHOU @ NOH
p202
aVL
p203
aI21
aI4
aI5
aF0.8
aI0
aI0
aF0.0
aI1
aI2
aF0.5
aI2
aI2
aI4
aI0
aI0
aI0
aI2
aI3
aI9
aI-2
aa(lp204
V0020800411
p205
aVDEC 23, 2008
p206
aVHOU @ CLE
p207
aVL
p208
aI8
aI1
aI2
aF0.5
aI0
aI0
aF0.0
aI0
aI0
aF0.0
aI0
aI1
aI1
aI0
aI1
aI0
aI2
aI3
aI2
aI-2
aa(lp209
V0020800404
p210
aVDEC 22, 2008
p211
aVHOU @ NJN
p212
aVW
p213
aI21
aI5
aI7
aF0.714
aI0
aI0
aF0.0
aI3
aI4
aF0.75
aI0
aI3
aI3
aI1
aI0
aI0
aI1
aI1
aI13
aI10
aa(lp214
V0020800392
p215
aVDEC 20, 2008
p216
aVHOU @ MIN
p217
aVW
p218
aI13
aI0
aI1
aF0.0
aI0
aI0
aF0.0
aI0
aI0
aF0.0
aI0
aI2
aI2
aI1
aI0
aI0
aI2
aI3
aI0
aI-9
aa(lp219
V0020800387
p220
aVDEC 19, 2008
p221
aVHOU vs. SAC
p222
aVW
p223
aI21
aI4
aI7
aF0.571
aI0
aI0
aF0.0
aI1
aI2
aF0.5
aI5
aI6
aI11
aI2
aI0
aI0
aI0
aI3
aI9
aI-7
aa(lp224
V0020800363
p225
aVDEC 16, 2008
p226
aVHOU vs. DEN
p227
aVW
p228
aI24
aI3
aI3
aF1.0
aI0
aI0
aF0.0
aI0
aI0
aF0.0
aI1
aI3
aI4
aI0
aI0
aI0
aI1
aI3
aI6
aI-5
aa(lp229
V0020800346
p230
aVDEC 13, 2008
p231
aVHOU @ LAC
p232
aVL
p233
aI22
aI2
aI4
aF0.5
aI0
aI0
aF0.0
aI1
aI2
aF0.5
aI2
aI3
aI5
aI1
aI0
aI0
aI1
aI2
aI5
aI-14
aa(lp234
V0020800335
p235
aVDEC 12, 2008
p236
aVHOU @ GSW
p237
aVW
p238
aI23
aI7
aI10
aF0.7
aI0
aI0
aF0.0
aI4
aI4
aF1.0
aI3
aI3
aI6
aI0
aI1
aI0
aI1
aI0
aI18
aI6
aa(lp239
V0020800310
p240
aVDEC 09, 2008
p241
aVHOU vs. ATL
p242
aVW
p243
aI22
aI3
aI6
aF0.5
aI0
aI0
aF0.0
aI1
aI2
aF0.5
aI1
aI1
aI2
aI0
aI0
aI2
aI1
aI1
aI7
aI5
aa(lp244
V0020800302
p245
aVDEC 08, 2008
p246
aVHOU @ MEM
p247
aVL
p248
aI21
aI5
aI7
aF0.714
aI0
aI0
aF0.0
aI2
aI5
aF0.4
aI0
aI5
aI5
aI0
aI1
aI0
aI1
aI2
aI12
aI-9
aa(lp249
V0020800284
p250
aVDEC 05, 2008
p251
aVHOU vs. GSW
p252
aVW
p253
aI24
aI1
aI6
aF0.167
aI0
aI0
aF0.0
aI4
aI4
aF1.0
aI2
aI7
aI9
aI1
aI0
aI0
aI1
aI1
aI6
aI18
aa(lp254
V0020800272
p255
aVDEC 03, 2008
p256
aVHOU vs. LAC
p257
aVW
p258
aI24
aI5
aI8
aF0.625
aI0
aI0
aF0.0
aI2
aI3
aF0.667
aI3
aI5
aI8
aI1
aI0
aI0
aI1
aI2
aI12
aI4
aa(lp259
V0020800249
p260
aVNOV 30, 2008
p261
aVHOU @ DEN
p262
aVL
p263
aI23
aI5
aI7
aF0.714
aI0
aI0
aF0.0
aI4
aI4
aF1.0
aI1
aI2
aI3
aI2
aI1
aI0
aI0
aI2
aI14
aI4
aa(lp264
V0020800242
p265
aVNOV 29, 2008
p266
aVHOU vs. SAS
p267
aVW
p268
aI13
aI2
aI4
aF0.5
aI0
aI0
aF0.0
aI0
aI0
aF0.0
aI0
aI2
aI2
aI0
aI2
aI0
aI1
aI3
aI4
aI14
aa(lp269
V0020800217
p270
aVNOV 26, 2008
p271
aVHOU vs. IND
p272
aVL
p273
aI29
aI6
aI10
aF0.6
aI0
aI0
aF0.0
aI3
aI5
aF0.6
aI5
aI5
aI10
aI0
aI0
aI0
aI0
aI4
aI15
aI-15
aa(lp274
V0020800200
p275
aVNOV 24, 2008
p276
aVHOU @ MIA
p277
aVW
p278
aI23
aI5
aI8
aF0.625
aI0
aI0
aF0.0
aI1
aI1
aF1.0
aI2
aI4
aI6
aI0
aI0
aI0
aI0
aI2
aI11
aI-3
aa(lp279
V0020800185
p280
aVNOV 22, 2008
p281
aVHOU @ ORL
p282
aVW
p283
aI26
aI4
aI6
aF0.667
aI0
aI0
aF0.0
aI3
aI4
aF0.75
aI0
aI4
aI4
aI2
aI0
aI2
aI0
aI1
aI11
aI5
aa(lp284
V0020800174
p285
aVNOV 21, 2008
p286
aVHOU @ WAS
p287
aVW
p288
aI27
aI6
aI7
aF0.857
aI0
aI0
aF0.0
aI7
aI7
aF1.0
aI3
aI3
aI6
aI3
aI0
aI0
aI1
aI4
aI19
aI28
aa(lp289
V0020800162
p290
aVNOV 19, 2008
p291
aVHOU vs. DAL
p292
aVL
p293
aI26
aI1
aI4
aF0.25
aI0
aI0
aF0.0
aI3
aI4
aF0.75
aI0
aI7
aI7
aI0
aI1
aI0
aI1
aI5
aI5
aI-2
aa(lp294
V0020800146
p295
aVNOV 17, 2008
p296
aVHOU @ OKC
p297
aVW
p298
aI12
aI2
aI4
aF0.5
aI0
aI0
aF0.0
aI0
aI0
aF0.0
aI0
aI1
aI1
aI0
aI0
aI0
aI0
aI1
aI4
aI-5
aa(lp299
V0020800138
p300
aVNOV 15, 2008
p301
aVHOU vs. NOH
p302
aVW
p303
aI10
aI1
aI3
aF0.333
aI0
aI0
aF0.0
aI2
aI2
aF1.0
aI1
aI1
aI2
aI0
aI0
aI0
aI0
aI0
aI4
aI5
aa(lp304
V0020800129
p305
aVNOV 14, 2008
p306
aVHOU @ SAS
p307
aVL
p308
aI27
aI4
aI6
aF0.667
aI0
aI0
aF0.0
aI0
aI0
aF0.0
aI3
aI4
aI7
aI2
aI0
aI1
aI0
aI2
aI8
aI-2
aa(lp309
V0020800116
p310
aVNOV 12, 2008
p311
aVHOU @ PHX
p312
aVW
p313
aI15
aI2
aI4
aF0.5
aI0
aI0
aF0.0
aI2
aI2
aF1.0
aI2
aI4
aI6
aI1
aI0
aI0
aI1
aI2
aI6
aI2
aa(lp314
V0020800092
p315
aVNOV 09, 2008
p316
aVHOU @ LAL
p317
aVL
p318
aI26
aI6
aI10
aF0.6
aI0
aI0
aF0.0
aI0
aI0
aF0.0
aI5
aI1
aI6
aI2
aI0
aI0
aI1
aI2
aI12
aI-29
aa(lp319
V0020800078
p320
aVNOV 07, 2008
p321
aVHOU @ LAC
p322
aVW
p323
aI30
aI7
aI14
aF0.5
aI0
aI0
aF0.0
aI6
aI6
aF1.0
aI3
aI6
aI9
aI0
aI0
aI1
aI1
aI1
aI20
aI1
aa(lp324
V0020800065
p325
aVNOV 06, 2008
p326
aVHOU @ POR
p327
aVL
p328
aI15
aI2
aI3
aF0.667
aI0
aI0
aF0.0
aI0
aI0
aF0.0
aI0
aI2
aI2
aI1
aI0
aI0
aI0
aI5
aI4
aI-17
aa(lp329
V0020800049
p330
aVNOV 04, 2008
p331
aVHOU vs. BOS
p332
aVL
p333
aI12
aI1
aI3
aF0.333
aI0
aI0
aF0.0
aI0
aI0
aF0.0
aI2
aI1
aI3
aI2
aI0
aI0
aI1
aI4
aI2
aI-11
aa(lp334
V0020800035
p335
aVNOV 01, 2008
p336
aVHOU vs. OKC
p337
aVW
p338
aI28
aI6
aI11
aF0.545
aI0
aI0
aF0.0
aI2
aI2
aF1.0
aI4
aI7
aI11
aI1
aI2
aI0
aI1
aI0
aI14
aI8
aa(lp339
V0020800017
p340
aVOCT 30, 2008
p341
aVHOU @ DAL
p342
aVW
p343
aI8
aI3
aI3
aF1.0
aI0
aI0
aF0.0
aI2
aI2
aF1.0
aI0
aI2
aI2
aI0
aI0
aI0
aI0
aI5
aI8
aI-2
aa(lp344
V0020800012
p345
aVOCT 29, 2008
p346
aVHOU vs. MEM
p347
aVW
p348
aI22
aI0
aI3
aF0.0
aI0
aI0
aF0.0
aI4
aI6
aF0.667
aI5
aI1
aI6
aI1
aI1
aI0
aI3
aI4
aI4
aI3
aasS'name'
p349
VCarl Landry
p350
sS'experience'
p351
I1
s.