(dp0
S'age'
p1
I20
sS'stats'
p2
(lp3
(lp4
V0020801219
p5
aVAPR 15, 2009
p6
aVPHI @ CLE
p7
aVW
p8
aI37
aI8
aI14
aF0.571
aI0
aI1
aF0.0
aI4
aI6
aF0.667
aI3
aI6
aI9
aI1
aI3
aI0
aI4
aI1
aI20
aI9
aa(lp9
V0020801215
p10
aVAPR 14, 2009
p11
aVPHI vs. BOS
p12
aVL
p13
aI29
aI8
aI16
aF0.5
aI1
aI4
aF0.25
aI1
aI3
aF0.333
aI1
aI2
aI3
aI1
aI3
aI0
aI1
aI3
aI18
aI1
aa(lp14
V0020801107
p15
aVMAR 31, 2009
p16
aVPHI vs. ATL
p17
aVW
p18
aI10
aI3
aI8
aF0.375
aI0
aI0
aF0.0
aI0
aI2
aF0.0
aI0
aI1
aI1
aI2
aI1
aI0
aI0
aI1
aI6
aI7
aa(lp19
V0020801095
p20
aVMAR 29, 2009
p21
aVPHI @ DET
p22
aVL
p23
aI39
aI10
aI15
aF0.667
aI0
aI1
aF0.0
aI2
aI2
aF1.0
aI4
aI4
aI8
aI3
aI1
aI0
aI1
aI3
aI22
aI2
aa(lp24
V0020801074
p25
aVMAR 27, 2009
p26
aVPHI vs. CHA
p27
aVL
p28
aI39
aI10
aI14
aF0.714
aI1
aI1
aF1.0
aI0
aI0
aF0.0
aI3
aI4
aI7
aI4
aI2
aI0
aI2
aI2
aI21
aI-1
aa(lp29
V0020801062
p30
aVMAR 25, 2009
p31
aVPHI vs. MIN
p32
aVW
p33
aI39
aI9
aI18
aF0.5
aI0
aI2
aF0.0
aI11
aI14
aF0.786
aI0
aI3
aI3
aI0
aI3
aI0
aI0
aI2
aI29
aI15
aa(lp34
V0020801054
p35
aVMAR 23, 2009
p36
aVPHI @ POR
p37
aVW
p38
aI44
aI10
aI15
aF0.667
aI1
aI1
aF1.0
aI4
aI4
aF1.0
aI2
aI5
aI7
aI1
aI0
aI0
aI1
aI2
aI25
aI-5
aa(lp39
V0020801047
p40
aVMAR 22, 2009
p41
aVPHI @ SAC
p42
aVW
p43
aI35
aI9
aI15
aF0.6
aI0
aI0
aF0.0
aI4
aI6
aF0.667
aI1
aI5
aI6
aI1
aI2
aI1
aI2
aI2
aI22
aI16
aa(lp44
V0020801033
p45
aVMAR 20, 2009
p46
aVPHI @ GSW
p47
aVL
p48
aI38
aI9
aI21
aF0.429
aI0
aI3
aF0.0
aI5
aI6
aF0.833
aI5
aI1
aI6
aI4
aI1
aI1
aI3
aI3
aI23
aI3
aa(lp49
V0020801018
p50
aVMAR 18, 2009
p51
aVPHI @ PHX
p52
aVL
p53
aI35
aI10
aI17
aF0.588
aI1
aI1
aF1.0
aI2
aI4
aF0.5
aI2
aI3
aI5
aI2
aI0
aI1
aI0
aI0
aI23
aI-13
aa(lp54
V0020801008
p55
aVMAR 17, 2009
p56
aVPHI @ LAL
p57
aVW
p58
aI29
aI6
aI10
aF0.6
aI0
aI0
aF0.0
aI2
aI2
aF1.0
aI2
aI5
aI7
aI2
aI0
aI0
aI1
aI4
aI14
aI-3
aa(lp59
V0020800989
p60
aVMAR 15, 2009
p61
aVPHI vs. MIA
p62
aVW
p63
aI38
aI7
aI16
aF0.438
aI1
aI3
aF0.333
aI2
aI2
aF1.0
aI1
aI5
aI6
aI1
aI1
aI0
aI0
aI2
aI17
aI8
aa(lp64
V0020800969
p65
aVMAR 13, 2009
p66
aVPHI vs. CHI
p67
aVW
p68
aI36
aI14
aI21
aF0.667
aI1
aI1
aF1.0
aI2
aI2
aF1.0
aI3
aI2
aI5
aI0
aI0
aI0
aI1
aI3
aI31
aI6
aa(lp69
V0020800957
p70
aVMAR 11, 2009
p71
aVPHI vs. TOR
p72
aVW
p73
aI36
aI13
aI20
aF0.65
aI2
aI5
aF0.4
aI1
aI4
aF0.25
aI1
aI4
aI5
aI1
aI0
aI1
aI1
aI2
aI29
aI16
aa(lp74
V0020800941
p75
aVMAR 08, 2009
p76
aVPHI @ OKC
p77
aVL
p78
aI39
aI8
aI18
aF0.444
aI2
aI4
aF0.5
aI2
aI2
aF1.0
aI1
aI4
aI5
aI0
aI3
aI0
aI2
aI1
aI20
aI2
aa(lp79
V0020800930
p80
aVMAR 07, 2009
p81
aVPHI @ MEM
p82
aVW
p83
aI30
aI5
aI14
aF0.357
aI0
aI3
aF0.0
aI4
aI4
aF1.0
aI4
aI4
aI8
aI0
aI2
aI0
aI1
aI3
aI14
aI6
aa(lp84
V0020800892
p85
aVMAR 02, 2009
p86
aVPHI vs. NOH
p87
aVL
p88
aI41
aI5
aI12
aF0.417
aI1
aI2
aF0.5
aI0
aI0
aF0.0
aI1
aI2
aI3
aI0
aI2
aI0
aI0
aI1
aI11
aI2
aa(lp89
V0020800876
p90
aVFEB 28, 2009
p91
aVPHI vs. ORL
p92
aVL
p93
aI41
aI7
aI15
aF0.467
aI0
aI0
aF0.0
aI4
aI4
aF1.0
aI2
aI0
aI2
aI0
aI2
aI1
aI3
aI4
aI18
aI-8
aa(lp94
V0020800868
p95
aVFEB 27, 2009
p96
aVPHI @ NYK
p97
aVW
p98
aI41
aI7
aI12
aF0.583
aI1
aI2
aF0.5
aI8
aI10
aF0.8
aI1
aI2
aI3
aI2
aI1
aI2
aI1
aI2
aI23
aI12
aa(lp99
V0020800851
p100
aVFEB 25, 2009
p101
aVPHI @ WAS
p102
aVW
p103
aI30
aI4
aI11
aF0.364
aI0
aI0
aF0.0
aI0
aI0
aF0.0
aI1
aI3
aI4
aI0
aI1
aI0
aI2
aI2
aI8
aI1
aa(lp104
V0020800836
p105
aVFEB 23, 2009
p106
aVPHI @ NJN
p107
aVL
p108
aI36
aI5
aI11
aF0.455
aI0
aI1
aF0.0
aI4
aI4
aF1.0
aI2
aI3
aI5
aI1
aI3
aI0
aI1
aI3
aI14
aI-1
aa(lp109
V0020800822
p110
aVFEB 21, 2009
p111
aVPHI @ MIA
p112
aVL
p113
aI29
aI4
aI8
aF0.5
aI0
aI1
aF0.0
aI2
aI2
aF1.0
aI1
aI3
aI4
aI0
aI1
aI1
aI1
aI4
aI10
aI-9
aa(lp114
V0020800803
p115
aVFEB 18, 2009
p116
aVPHI vs. DEN
p117
aVL
p118
aI37
aI4
aI14
aF0.286
aI2
aI3
aF0.667
aI2
aI3
aF0.667
aI2
aI3
aI5
aI0
aI1
aI1
aI2
aI3
aI12
aI-18
aa(lp119
V0020800788
p120
aVFEB 17, 2009
p121
aVPHI @ IND
p122
aVL
p123
aI43
aI7
aI14
aF0.5
aI1
aI3
aF0.333
aI1
aI3
aF0.333
aI4
aI5
aI9
aI0
aI3
aI0
aI0
aI2
aI16
aI-6
aa(lp124
V0020800776
p125
aVFEB 11, 2009
p126
aVPHI vs. MEM
p127
aVW
p128
aI33
aI6
aI17
aF0.353
aI0
aI3
aF0.0
aI0
aI0
aF0.0
aI0
aI2
aI2
aI3
aI4
aI0
aI1
aI2
aI12
aI-3
aa(lp129
V0020800761
p130
aVFEB 09, 2009
p131
aVPHI vs. PHX
p132
aVW
p133
aI30
aI10
aI14
aF0.714
aI2
aI2
aF1.0
aI3
aI4
aF0.75
aI3
aI2
aI5
aI1
aI1
aI0
aI1
aI2
aI25
aI14
aa(lp134
V0020800744
p135
aVFEB 07, 2009
p136
aVPHI vs. MIA
p137
aVW
p138
aI32
aI6
aI11
aF0.545
aI1
aI3
aF0.333
aI1
aI3
aF0.333
aI1
aI1
aI2
aI2
aI0
aI0
aI1
aI3
aI14
aI8
aa(lp139
V0020800731
p140
aVFEB 05, 2009
p141
aVPHI vs. IND
p142
aVW
p143
aI38
aI5
aI20
aF0.25
aI2
aI5
aF0.4
aI2
aI2
aF1.0
aI3
aI4
aI7
aI2
aI5
aI1
aI1
aI3
aI14
aI14
aa(lp144
V0020800716
p145
aVFEB 03, 2009
p146
aVPHI vs. BOS
p147
aVL
p148
aI36
aI4
aI13
aF0.308
aI0
aI2
aF0.0
aI2
aI2
aF1.0
aI0
aI1
aI1
aI2
aI1
aI0
aI3
aI0
aI10
aI8
aa(lp149
V0020800693
p150
aVJAN 31, 2009
p151
aVPHI vs. NJN
p152
aVL
p153
aI42
aI4
aI12
aF0.333
aI0
aI3
aF0.0
aI3
aI5
aF0.6
aI1
aI5
aI6
aI0
aI3
aI4
aI1
aI0
aI11
aI-8
aa(lp154
V0020800683
p155
aVJAN 30, 2009
p156
aVPHI vs. WAS
p157
aVW
p158
aI42
aI7
aI19
aF0.368
aI2
aI7
aF0.286
aI2
aI2
aF1.0
aI3
aI6
aI9
aI1
aI2
aI0
aI3
aI4
aI18
aI10
aa(lp159
V0020800675
p160
aVJAN 28, 2009
p161
aVPHI @ HOU
p162
aVW
p163
aI27
aI4
aI6
aF0.667
aI0
aI2
aF0.0
aI0
aI0
aF0.0
aI1
aI6
aI7
aI0
aI1
aI0
aI2
aI5
aI8
aI7
aa(lp164
V0020800659
p165
aVJAN 26, 2009
p166
aVPHI @ NOH
p167
aVL
p168
aI41
aI11
aI16
aF0.688
aI0
aI1
aF0.0
aI0
aI0
aF0.0
aI1
aI3
aI4
aI0
aI2
aI0
aI1
aI2
aI22
aI-10
aa(lp169
V0020800640
p170
aVJAN 24, 2009
p171
aVPHI vs. NYK
p172
aVW
p173
aI39
aI8
aI17
aF0.471
aI1
aI2
aF0.5
aI0
aI0
aF0.0
aI0
aI3
aI3
aI3
aI2
aI1
aI2
aI2
aI17
aI4
aa(lp174
V0020800602
p175
aVJAN 19, 2009
p176
aVPHI vs. DAL
p177
aVL
p178
aI36
aI4
aI7
aF0.571
aI0
aI1
aF0.0
aI3
aI5
aF0.6
aI1
aI3
aI4
aI4
aI1
aI0
aI3
aI3
aI11
aI4
aa(lp179
V0020800593
p180
aVJAN 17, 2009
p181
aVPHI @ NYK
p182
aVW
p183
aI40
aI5
aI11
aF0.455
aI0
aI1
aF0.0
aI0
aI0
aF0.0
aI4
aI6
aI10
aI2
aI3
aI1
aI2
aI3
aI10
aI14
aa(lp184
V0020800581
p185
aVJAN 16, 2009
p186
aVPHI vs. SAS
p187
aVW
p188
aI31
aI11
aI15
aF0.733
aI1
aI1
aF1.0
aI4
aI4
aF1.0
aI2
aI3
aI5
aI0
aI0
aI0
aI1
aI0
aI27
aI24
aa(lp189
V0020800567
p190
aVJAN 14, 2009
p191
aVPHI vs. POR
p192
aVW
p193
aI22
aI4
aI7
aF0.571
aI3
aI4
aF0.75
aI0
aI0
aF0.0
aI0
aI1
aI1
aI2
aI2
aI0
aI1
aI5
aI11
aI8
aa(lp194
V0020800547
p195
aVJAN 11, 2009
p196
aVPHI @ ATL
p197
aVW
p198
aI39
aI9
aI15
aF0.6
aI3
aI4
aF0.75
aI1
aI2
aF0.5
aI4
aI5
aI9
aI1
aI1
aI0
aI4
aI2
aI22
aI9
aa(lp199
V0020800529
p200
aVJAN 09, 2009
p201
aVPHI vs. CHA
p202
aVW
p203
aI40
aI7
aI13
aF0.538
aI0
aI0
aF0.0
aI1
aI1
aF1.0
aI4
aI4
aI8
aI0
aI0
aI0
aI3
aI4
aI15
aI3
aa(lp204
V0020800519
p205
aVJAN 07, 2009
p206
aVPHI @ MIL
p207
aVW
p208
aI33
aI4
aI11
aF0.364
aI0
aI1
aF0.0
aI2
aI2
aF1.0
aI0
aI2
aI2
aI2
aI2
aI0
aI2
aI2
aI10
aI14
aa(lp209
V0020800508
p210
aVJAN 06, 2009
p211
aVPHI vs. HOU
p212
aVW
p213
aI36
aI4
aI10
aF0.4
aI0
aI0
aF0.0
aI0
aI2
aF0.0
aI4
aI2
aI6
aI0
aI0
aI0
aI2
aI1
aI8
aI-1
aa(lp214
V0020800493
p215
aVJAN 03, 2009
p216
aVPHI @ SAS
p217
aVL
p218
aI38
aI8
aI16
aF0.5
aI1
aI2
aF0.5
aI2
aI2
aF1.0
aI3
aI2
aI5
aI0
aI0
aI0
aI1
aI1
aI19
aI-12
aa(lp219
V0020800483
p220
aVJAN 02, 2009
p221
aVPHI @ DAL
p222
aVL
p223
aI40
aI4
aI10
aF0.4
aI0
aI1
aF0.0
aI0
aI2
aF0.0
aI1
aI4
aI5
aI1
aI0
aI1
aI0
aI2
aI8
aI-10
aa(lp224
V0020800472
p225
aVDEC 31, 2008
p226
aVPHI @ LAC
p227
aVW
p228
aI38
aI10
aI14
aF0.714
aI0
aI0
aF0.0
aI0
aI0
aF0.0
aI3
aI3
aI6
aI1
aI3
aI0
aI0
aI4
aI20
aI8
aa(lp229
V0020800456
p230
aVDEC 29, 2008
p231
aVPHI @ UTA
p232
aVL
p233
aI33
aI8
aI14
aF0.571
aI1
aI2
aF0.5
aI0
aI0
aF0.0
aI3
aI4
aI7
aI1
aI1
aI0
aI1
aI3
aI17
aI-16
aa(lp234
V0020800432
p235
aVDEC 26, 2008
p236
aVPHI @ DEN
p237
aVL
p238
aI30
aI4
aI7
aF0.571
aI0
aI1
aF0.0
aI2
aI2
aF1.0
aI0
aI1
aI1
aI1
aI0
aI0
aI1
aI0
aI10
aI4
aa(lp239
V0020800413
p240
aVDEC 23, 2008
p241
aVPHI @ BOS
p242
aVL
p243
aI30
aI2
aI8
aF0.25
aI0
aI2
aF0.0
aI3
aI4
aF0.75
aI2
aI4
aI6
aI1
aI0
aI0
aI3
aI4
aI7
aI-5
aa(lp244
V0020800391
p245
aVDEC 20, 2008
p246
aVPHI vs. IND
p247
aVL
p248
aI31
aI5
aI12
aF0.417
aI0
aI0
aF0.0
aI0
aI0
aF0.0
aI1
aI1
aI2
aI1
aI1
aI0
aI2
aI1
aI10
aI1
aa(lp249
V0020800378
p250
aVDEC 19, 2008
p251
aVPHI @ WAS
p252
aVW
p253
aI40
aI4
aI12
aF0.333
aI2
aI5
aF0.4
aI8
aI8
aF1.0
aI1
aI4
aI5
aI2
aI4
aI1
aI3
aI1
aI18
aI10
aa(lp254
V0020800368
p255
aVDEC 17, 2008
p256
aVPHI vs. MIL
p257
aVW
p258
aI31
aI4
aI7
aF0.571
aI1
aI1
aF1.0
aI1
aI4
aF0.25
aI2
aI2
aI4
aI0
aI1
aI0
aI3
aI2
aI10
aI6
aa(lp259
V0020800339
p260
aVDEC 13, 2008
p261
aVPHI vs. WAS
p262
aVW
p263
aI29
aI5
aI9
aF0.556
aI1
aI2
aF0.5
aI3
aI4
aF0.75
aI2
aI2
aI4
aI0
aI0
aI0
aI1
aI3
aI14
aI-1
aa(lp264
V0020800326
p265
aVDEC 12, 2008
p266
aVPHI @ CLE
p267
aVL
p268
aI20
aI5
aI9
aF0.556
aI0
aI1
aF0.0
aI0
aI0
aF0.0
aI4
aI0
aI4
aI0
aI0
aI0
aI1
aI1
aI10
aI-9
aa(lp269
V0020800318
p270
aVDEC 10, 2008
p271
aVPHI vs. CLE
p272
aVL
p273
aI27
aI2
aI9
aF0.222
aI0
aI2
aF0.0
aI2
aI3
aF0.667
aI0
aI5
aI5
aI0
aI0
aI0
aI0
aI2
aI6
aI-2
aa(lp274
V0020800289
p275
aVDEC 06, 2008
p276
aVPHI vs. NJN
p277
aVL
p278
aI37
aI3
aI11
aF0.273
aI0
aI4
aF0.0
aI2
aI2
aF1.0
aI1
aI7
aI8
aI2
aI1
aI0
aI1
aI1
aI8
aI-5
aa(lp279
V0020800282
p280
aVDEC 05, 2008
p281
aVPHI @ DET
p282
aVW
p283
aI32
aI4
aI8
aF0.5
aI0
aI2
aF0.0
aI1
aI1
aF1.0
aI1
aI2
aI3
aI2
aI0
aI0
aI0
aI2
aI9
aI11
aa(lp284
V0020800267
p285
aVDEC 03, 2008
p286
aVPHI vs. LAL
p287
aVL
p288
aI36
aI7
aI14
aF0.5
aI2
aI3
aF0.667
aI1
aI1
aF1.0
aI3
aI5
aI8
aI0
aI1
aI0
aI1
aI4
aI17
aI5
aa(lp289
V0020800258
p290
aVDEC 02, 2008
p291
aVPHI @ CHI
p292
aVW
p293
aI30
aI1
aI9
aF0.111
aI0
aI3
aF0.0
aI2
aI2
aF1.0
aI2
aI3
aI5
aI2
aI5
aI1
aI2
aI4
aI4
aI-5
aa(lp294
V0020800248
p295
aVNOV 30, 2008
p296
aVPHI vs. CHI
p297
aVL
p298
aI36
aI8
aI14
aF0.571
aI1
aI2
aF0.5
aI0
aI0
aF0.0
aI1
aI4
aI5
aI4
aI0
aI0
aI1
aI1
aI17
aI-3
aa(lp299
V0020800226
p300
aVNOV 28, 2008
p301
aVPHI @ BOS
p302
aVL
p303
aI22
aI2
aI9
aF0.222
aI0
aI1
aF0.0
aI0
aI0
aF0.0
aI0
aI1
aI1
aI1
aI0
aI1
aI1
aI0
aI4
aI-8
aa(lp304
V0020800214
p305
aVNOV 26, 2008
p306
aVPHI vs. ORL
p307
aVL
p308
aI34
aI6
aI10
aF0.6
aI1
aI3
aF0.333
aI0
aI0
aF0.0
aI1
aI1
aI2
aI1
aI1
aI0
aI2
aI3
aI13
aI-3
aa(lp309
V0020800198
p310
aVNOV 24, 2008
p311
aVPHI @ CHA
p312
aVL
p313
aI36
aI2
aI10
aF0.2
aI0
aI4
aF0.0
aI2
aI4
aF0.5
aI1
aI4
aI5
aI1
aI3
aI0
aI3
aI3
aI6
aI-11
aa(lp314
V0020800194
p315
aVNOV 23, 2008
p316
aVPHI vs. GSW
p317
aVW
p318
aI34
aI5
aI12
aF0.417
aI2
aI3
aF0.667
aI0
aI0
aF0.0
aI2
aI4
aI6
aI1
aI2
aI0
aI3
aI3
aI12
aI10
aa(lp319
V0020800172
p320
aVNOV 21, 2008
p321
aVPHI vs. LAC
p322
aVW
p323
aI41
aI7
aI12
aF0.583
aI1
aI2
aF0.5
aI2
aI4
aF0.5
aI2
aI4
aI6
aI0
aI1
aI0
aI1
aI3
aI17
aI-4
aa(lp324
V0020800163
p325
aVNOV 19, 2008
p326
aVPHI @ MIN
p327
aVL
p328
aI38
aI7
aI11
aF0.636
aI0
aI1
aF0.0
aI1
aI2
aF0.5
aI1
aI1
aI2
aI2
aI1
aI0
aI1
aI2
aI15
aI-6
aa(lp329
V0020800134
p330
aVNOV 15, 2008
p331
aVPHI vs. OKC
p332
aVW
p333
aI32
aI10
aI15
aF0.667
aI1
aI3
aF0.333
aI2
aI2
aF1.0
aI1
aI3
aI4
aI2
aI0
aI0
aI2
aI0
aI23
aI35
aa(lp334
V0020800121
p335
aVNOV 14, 2008
p336
aVPHI @ IND
p337
aVW
p338
aI41
aI11
aI18
aF0.611
aI0
aI3
aF0.0
aI3
aI6
aF0.5
aI5
aI5
aI10
aI0
aI1
aI1
aI1
aI1
aI25
aI6
aa(lp339
V0020800106
p340
aVNOV 12, 2008
p341
aVPHI @ TOR
p342
aVW
p343
aI31
aI3
aI5
aF0.6
aI1
aI2
aF0.5
aI0
aI0
aF0.0
aI0
aI4
aI4
aI1
aI3
aI1
aI5
aI4
aI7
aI-2
aa(lp344
V0020800100
p345
aVNOV 11, 2008
p346
aVPHI vs. UTA
p347
aVL
p348
aI41
aI3
aI15
aF0.2
aI0
aI2
aF0.0
aI3
aI4
aF0.75
aI5
aI6
aI11
aI4
aI0
aI1
aI2
aI1
aI9
aI-8
aa(lp349
V0020800064
p350
aVNOV 06, 2008
p351
aVPHI @ ORL
p352
aVL
p353
aI34
aI7
aI18
aF0.389
aI1
aI5
aF0.2
aI4
aI4
aF1.0
aI2
aI2
aI4
aI0
aI1
aI0
aI1
aI1
aI19
aI-14
aa(lp354
V0020800053
p355
aVNOV 05, 2008
p356
aVPHI @ MIA
p357
aVL
p358
aI38
aI7
aI14
aF0.5
aI3
aI7
aF0.429
aI2
aI2
aF1.0
aI1
aI3
aI4
aI0
aI3
aI0
aI5
aI0
aI19
aI-23
aa(lp359
V0020800044
p360
aVNOV 03, 2008
p361
aVPHI vs. SAC
p362
aVW
p363
aI31
aI8
aI14
aF0.571
aI2
aI2
aF1.0
aI0
aI0
aF0.0
aI2
aI0
aI2
aI1
aI1
aI0
aI0
aI1
aI18
aI21
aa(lp364
V0020800026
p365
aVNOV 01, 2008
p366
aVPHI @ ATL
p367
aVL
p368
aI37
aI9
aI15
aF0.6
aI4
aI6
aF0.667
aI0
aI0
aF0.0
aI1
aI4
aI5
aI1
aI0
aI0
aI0
aI1
aI22
aI-2
aa(lp369
V0020800019
p370
aVOCT 31, 2008
p371
aVPHI vs. NYK
p372
aVW
p373
aI24
aI6
aI10
aF0.6
aI0
aI1
aF0.0
aI1
aI2
aF0.5
aI3
aI3
aI6
aI1
aI0
aI0
aI2
aI4
aI13
aI13
aa(lp374
V0020800005
p375
aVOCT 29, 2008
p376
aVPHI vs. TOR
p377
aVL
p378
aI24
aI3
aI6
aF0.5
aI1
aI2
aF0.5
aI1
aI1
aF1.0
aI3
aI2
aI5
aI1
aI0
aI0
aI4
aI4
aI8
aI3
aasS'name'
p379
VThaddeus Young
p380
sS'experience'
p381
I1
s.