(dp0
S'age'
p1
I20
sS'stats'
p2
(lp3
(lp4
V0020800003
p5
aVOCT 28, 2008
p6
aVPOR @ LAL
p7
aVL
p8
aI13
aI0
aI4
aF0.0
aI0
aI0
aF0.0
aI0
aI2
aF0.0
aI3
aI2
aI5
aI0
aI0
aI1
aI2
aI2
aI0
aI-13
aa(lp9
V0020800108
p10
aVNOV 12, 2008
p11
aVPOR @ MIA
p12
aVW
p13
aI16
aI1
aI3
aF0.333
aI0
aI0
aF0.0
aI1
aI2
aF0.5
aI1
aI1
aI2
aI0
aI0
aI2
aI2
aI2
aI3
aI-6
aa(lp14
V0020800127
p15
aVNOV 14, 2008
p16
aVPOR @ NOH
p17
aVL
p18
aI24
aI3
aI3
aF1.0
aI0
aI0
aF0.0
aI5
aI6
aF0.833
aI1
aI10
aI11
aI0
aI0
aI4
aI0
aI4
aI11
aI-2
aa(lp19
V0020800136
p20
aVNOV 15, 2008
p21
aVPOR @ MIN
p22
aVW
p23
aI24
aI4
aI8
aF0.5
aI0
aI0
aF0.0
aI5
aI8
aF0.625
aI2
aI6
aI8
aI1
aI2
aI3
aI2
aI5
aI13
aI13
aa(lp24
V0020800157
p25
aVNOV 18, 2008
p26
aVPOR @ GSW
p27
aVL
p28
aI30
aI8
aI12
aF0.667
aI0
aI0
aF0.0
aI6
aI8
aF0.75
aI4
aI6
aI10
aI2
aI1
aI2
aI5
aI5
aI22
aI-11
aa(lp29
V0020800168
p30
aVNOV 19, 2008
p31
aVPOR vs. CHI
p32
aVW
p33
aI17
aI3
aI7
aF0.429
aI0
aI0
aF0.0
aI5
aI6
aF0.833
aI5
aI5
aI10
aI0
aI0
aI3
aI0
aI3
aI11
aI9
aa(lp34
V0020800181
p35
aVNOV 21, 2008
p36
aVPOR @ SAC
p37
aVW
p38
aI19
aI3
aI6
aF0.5
aI0
aI0
aF0.0
aI1
aI2
aF0.5
aI2
aI6
aI8
aI3
aI1
aI0
aI0
aI4
aI7
aI3
aa(lp39
V0020800192
p40
aVNOV 22, 2008
p41
aVPOR @ PHX
p42
aVL
p43
aI14
aI2
aI3
aF0.667
aI0
aI0
aF0.0
aI1
aI4
aF0.25
aI0
aI1
aI1
aI0
aI0
aI0
aI2
aI5
aI5
aI-18
aa(lp44
V0020800203
p45
aVNOV 24, 2008
p46
aVPOR vs. SAC
p47
aVW
p48
aI19
aI1
aI3
aF0.333
aI0
aI0
aF0.0
aI1
aI2
aF0.5
aI2
aI4
aI6
aI2
aI0
aI0
aI4
aI3
aI3
aI-22
aa(lp49
V0020800220
p50
aVNOV 26, 2008
p51
aVPOR vs. MIA
p52
aVW
p53
aI26
aI4
aI6
aF0.667
aI0
aI0
aF0.0
aI2
aI2
aF1.0
aI4
aI6
aI10
aI0
aI0
aI1
aI1
aI4
aI10
aI15
aa(lp54
V0020800234
p55
aVNOV 28, 2008
p56
aVPOR vs. NOH
p57
aVW
p58
aI24
aI0
aI2
aF0.0
aI0
aI0
aF0.0
aI1
aI4
aF0.25
aI3
aI5
aI8
aI3
aI0
aI1
aI1
aI2
aI1
aI6
aa(lp59
V0020800247
p60
aVNOV 30, 2008
p61
aVPOR @ DET
p62
aVW
p63
aI31
aI3
aI4
aF0.75
aI0
aI0
aF0.0
aI5
aI6
aF0.833
aI2
aI11
aI13
aI1
aI1
aI3
aI2
aI5
aI11
aI26
aa(lp64
V0020800257
p65
aVDEC 02, 2008
p66
aVPOR @ NYK
p67
aVW
p68
aI19
aI1
aI5
aF0.2
aI0
aI0
aF0.0
aI0
aI0
aF0.0
aI3
aI4
aI7
aI0
aI0
aI2
aI0
aI2
aI2
aI0
aa(lp69
V0020800268
p70
aVDEC 03, 2008
p71
aVPOR @ WAS
p72
aVW
p73
aI31
aI4
aI6
aF0.667
aI0
aI0
aF0.0
aI5
aI6
aF0.833
aI3
aI7
aI10
aI0
aI0
aI1
aI3
aI2
aI13
aI2
aa(lp74
V0020800281
p75
aVDEC 05, 2008
p76
aVPOR @ BOS
p77
aVL
p78
aI18
aI2
aI5
aF0.4
aI0
aI0
aF0.0
aI1
aI2
aF0.5
aI1
aI5
aI6
aI0
aI1
aI1
aI1
aI6
aI5
aI-3
aa(lp79
V0020800298
p80
aVDEC 07, 2008
p81
aVPOR @ TOR
p82
aVW
p83
aI28
aI3
aI10
aF0.3
aI0
aI0
aF0.0
aI4
aI6
aF0.667
aI5
aI5
aI10
aI0
aI0
aI2
aI2
aI4
aI10
aI5
aa(lp84
V0020800312
p85
aVDEC 09, 2008
p86
aVPOR vs. ORL
p87
aVL
p88
aI11
aI1
aI1
aF1.0
aI0
aI0
aF0.0
aI0
aI0
aF0.0
aI1
aI0
aI1
aI0
aI0
aI0
aI1
aI4
aI2
aI-10
aa(lp89
V0020800325
p90
aVDEC 11, 2008
p91
aVPOR @ UTA
p92
aVL
p93
aI32
aI4
aI6
aF0.667
aI0
aI0
aF0.0
aI0
aI3
aF0.0
aI4
aI5
aI9
aI0
aI0
aI1
aI3
aI3
aI8
aI-8
aa(lp94
V0020800334
p95
aVDEC 12, 2008
p96
aVPOR vs. LAC
p97
aVL
p98
aI42
aI6
aI10
aF0.6
aI0
aI0
aF0.0
aI3
aI4
aF0.75
aI6
aI9
aI15
aI0
aI0
aI1
aI2
aI2
aI15
aI-3
aa(lp99
V0020800364
p100
aVDEC 16, 2008
p101
aVPOR vs. SAC
p102
aVW
p103
aI21
aI3
aI6
aF0.5
aI0
aI0
aF0.0
aI2
aI2
aF1.0
aI3
aI7
aI10
aI0
aI0
aI0
aI0
aI4
aI8
aI20
aa(lp104
V0020800376
p105
aVDEC 18, 2008
p106
aVPOR vs. PHX
p107
aVW
p108
aI17
aI4
aI5
aF0.8
aI0
aI0
aF0.0
aI0
aI0
aF0.0
aI2
aI0
aI2
aI0
aI1
aI2
aI0
aI5
aI8
aI3
aa(lp109
V0020800407
p110
aVDEC 22, 2008
p111
aVPOR @ DEN
p112
aVL
p113
aI22
aI4
aI5
aF0.8
aI0
aI0
aF0.0
aI2
aI2
aF1.0
aI2
aI1
aI3
aI2
aI0
aI2
aI0
aI6
aI10
aI7
aa(lp114
V0020800420
p115
aVDEC 23, 2008
p116
aVPOR vs. DEN
p117
aVW
p118
aI8
aI0
aI1
aF0.0
aI0
aI0
aF0.0
aI0
aI0
aF0.0
aI0
aI2
aI2
aI0
aI0
aI0
aI0
aI5
aI0
aI2
aa(lp119
V0020800425
p120
aVDEC 25, 2008
p121
aVPOR vs. DAL
p122
aVL
p123
aI25
aI2
aI6
aF0.333
aI0
aI0
aF0.0
aI0
aI3
aF0.0
aI2
aI3
aI5
aI1
aI1
aI0
aI3
aI4
aI4
aI-3
aa(lp124
V0020800443
p125
aVDEC 27, 2008
p126
aVPOR vs. TOR
p127
aVW
p128
aI28
aI5
aI7
aF0.714
aI0
aI0
aF0.0
aI6
aI6
aF1.0
aI7
aI3
aI10
aI0
aI0
aI1
aI1
aI3
aI16
aI15
aa(lp129
V0020800465
p130
aVDEC 30, 2008
p131
aVPOR vs. BOS
p132
aVW
p133
aI36
aI5
aI9
aF0.556
aI0
aI0
aF0.0
aI3
aI5
aF0.6
aI4
aI7
aI11
aI3
aI3
aI0
aI3
aI5
aI13
aI12
aa(lp134
V0020800486
p135
aVJAN 02, 2009
p136
aVPOR vs. NOH
p137
aVL
p138
aI16
aI2
aI4
aF0.5
aI0
aI0
aF0.0
aI0
aI0
aF0.0
aI1
aI3
aI4
aI0
aI0
aI1
aI1
aI4
aI4
aI-9
aa(lp139
V0020800500
p140
aVJAN 04, 2009
p141
aVPOR @ LAL
p142
aVL
p143
aI35
aI3
aI7
aF0.429
aI0
aI0
aF0.0
aI4
aI7
aF0.571
aI2
aI2
aI4
aI1
aI0
aI0
aI0
aI4
aI10
aI-2
aa(lp144
V0020800524
p145
aVJAN 07, 2009
p146
aVPOR vs. DET
p147
aVW
p148
aI13
aI2
aI3
aF0.667
aI0
aI0
aF0.0
aI0
aI1
aF0.0
aI0
aI1
aI1
aI1
aI0
aI0
aI1
aI4
aI4
aI-14
aa(lp149
V0020800545
p150
aVJAN 10, 2009
p151
aVPOR vs. GSW
p152
aVW
p153
aI26
aI4
aI8
aF0.5
aI0
aI0
aF0.0
aI2
aI3
aF0.667
aI4
aI4
aI8
aI2
aI1
aI0
aI2
aI3
aI10
aI14
aa(lp154
V0020800557
p155
aVJAN 12, 2009
p156
aVPOR @ CHI
p157
aVW
p158
aI26
aI5
aI7
aF0.714
aI0
aI0
aF0.0
aI7
aI9
aF0.778
aI6
aI7
aI13
aI1
aI0
aI1
aI4
aI4
aI17
aI6
aa(lp159
V0020800567
p160
aVJAN 14, 2009
p161
aVPOR @ PHI
p162
aVL
p163
aI18
aI1
aI3
aF0.333
aI0
aI0
aF0.0
aI0
aI0
aF0.0
aI1
aI2
aI3
aI0
aI0
aI0
aI1
aI3
aI2
aI5
aa(lp164
V0020800577
p165
aVJAN 15, 2009
p166
aVPOR @ NJN
p167
aVW
p168
aI13
aI1
aI2
aF0.5
aI0
aI0
aF0.0
aI0
aI0
aF0.0
aI0
aI1
aI1
aI0
aI0
aI1
aI0
aI2
aI2
aI-9
aa(lp169
V0020800591
p170
aVJAN 17, 2009
p171
aVPOR @ CHA
p172
aVL
p173
aI18
aI3
aI7
aF0.429
aI0
aI0
aF0.0
aI2
aI5
aF0.4
aI2
aI1
aI3
aI0
aI0
aI0
aI1
aI6
aI8
aI-2
aa(lp174
V0020800611
p175
aVJAN 19, 2009
p176
aVPOR vs. MIL
p177
aVW
p178
aI35
aI9
aI14
aF0.643
aI0
aI0
aF0.0
aI6
aI11
aF0.545
aI6
aI9
aI15
aI0
aI2
aI2
aI1
aI2
aI24
aI27
aa(lp179
V0020800624
p180
aVJAN 21, 2009
p181
aVPOR vs. CLE
p182
aVL
p183
aI25
aI3
aI4
aF0.75
aI0
aI0
aF0.0
aI4
aI4
aF1.0
aI4
aI4
aI8
aI1
aI0
aI1
aI3
aI6
aI10
aI-5
aa(lp184
V0020800645
p185
aVJAN 24, 2009
p186
aVPOR vs. WAS
p187
aVW
p188
aI39
aI6
aI10
aF0.6
aI0
aI0
aF0.0
aI6
aI8
aF0.75
aI9
aI5
aI14
aI1
aI2
aI0
aI2
aI4
aI18
aI19
aa(lp189
V0020800661
p190
aVJAN 26, 2009
p191
aVPOR @ LAC
p192
aVW
p193
aI26
aI7
aI7
aF1.0
aI0
aI0
aF0.0
aI2
aI4
aF0.5
aI2
aI4
aI6
aI0
aI2
aI1
aI1
aI4
aI16
aI-2
aa(lp194
V0020800677
p195
aVJAN 28, 2009
p196
aVPOR vs. CHA
p197
aVW
p198
aI30
aI4
aI9
aF0.444
aI0
aI0
aF0.0
aI6
aI10
aF0.6
aI8
aI6
aI14
aI1
aI2
aI3
aI3
aI5
aI14
aI8
aa(lp199
V0020800701
p200
aVJAN 31, 2009
p201
aVPOR vs. UTA
p202
aVW
p203
aI11
aI2
aI2
aF1.0
aI0
aI0
aF0.0
aI1
aI2
aF0.5
aI1
aI0
aI1
aI0
aI2
aI1
aI1
aI5
aI5
aI6
aa(lp204
V0020800710
p205
aVFEB 02, 2009
p206
aVPOR @ NOH
p207
aVW
p208
aI18
aI3
aI6
aF0.5
aI0
aI0
aF0.0
aI0
aI0
aF0.0
aI3
aI3
aI6
aI0
aI0
aI0
aI0
aI4
aI6
aI-6
aa(lp209
V0020800729
p210
aVFEB 04, 2009
p211
aVPOR @ DAL
p212
aVL
p213
aI21
aI3
aI6
aF0.5
aI0
aI0
aF0.0
aI0
aI0
aF0.0
aI1
aI3
aI4
aI1
aI0
aI0
aI1
aI2
aI6
aI-14
aa(lp214
V0020800739
p215
aVFEB 06, 2009
p216
aVPOR @ OKC
p217
aVL
p218
aI16
aI1
aI3
aF0.333
aI0
aI0
aF0.0
aI2
aI2
aF1.0
aI0
aI2
aI2
aI2
aI0
aI0
aI2
aI4
aI4
aI-8
aa(lp219
V0020800754
p220
aVFEB 08, 2009
p221
aVPOR vs. NYK
p222
aVW
p223
aI28
aI7
aI11
aF0.636
aI0
aI0
aF0.0
aI3
aI5
aF0.6
aI6
aI6
aI12
aI1
aI0
aI6
aI2
aI5
aI17
aI9
aa(lp224
V0020800783
p225
aVFEB 11, 2009
p226
aVPOR vs. OKC
p227
aVW
p228
aI25
aI8
aI10
aF0.8
aI0
aI0
aF0.0
aI0
aI2
aF0.0
aI4
aI6
aI10
aI0
aI1
aI3
aI3
aI5
aI16
aI1
aa(lp229
V0020800787
p230
aVFEB 12, 2009
p231
aVPOR @ GSW
p232
aVL
p233
aI18
aI4
aI5
aF0.8
aI0
aI0
aF0.0
aI0
aI0
aF0.0
aI2
aI9
aI11
aI0
aI0
aI0
aI3
aI5
aI8
aI8
aa(lp234
V0020801011
p235
aVMAR 18, 2009
p236
aVPOR @ IND
p237
aVW
p238
aI12
aI1
aI3
aF0.333
aI0
aI0
aF0.0
aI2
aI2
aF1.0
aI2
aI5
aI7
aI0
aI0
aI1
aI2
aI2
aI4
aI21
aa(lp239
V0020801021
p240
aVMAR 19, 2009
p241
aVPOR @ CLE
p242
aVL
p243
aI12
aI1
aI4
aF0.25
aI0
aI0
aF0.0
aI5
aI8
aF0.625
aI4
aI5
aI9
aI0
aI0
aI0
aI0
aI5
aI7
aI5
aa(lp244
V0020801039
p245
aVMAR 21, 2009
p246
aVPOR @ MIL
p247
aVW
p248
aI9
aI1
aI2
aF0.5
aI0
aI0
aF0.0
aI0
aI1
aF0.0
aI1
aI2
aI3
aI0
aI1
aI0
aI4
aI5
aI2
aI-4
aa(lp249
V0020801054
p250
aVMAR 23, 2009
p251
aVPOR vs. PHI
p252
aVL
p253
aI25
aI5
aI7
aF0.714
aI0
aI0
aF0.0
aI3
aI3
aF1.0
aI4
aI4
aI8
aI0
aI0
aI2
aI0
aI5
aI13
aI8
aa(lp254
V0020801072
p255
aVMAR 26, 2009
p256
aVPOR vs. PHX
p257
aVW
p258
aI17
aI2
aI2
aF1.0
aI0
aI0
aF0.0
aI4
aI8
aF0.5
aI0
aI1
aI1
aI0
aI0
aI3
aI1
aI4
aI8
aI7
aa(lp259
V0020801090
p260
aVMAR 28, 2009
p261
aVPOR vs. MEM
p262
aVW
p263
aI22
aI3
aI9
aF0.333
aI0
aI0
aF0.0
aI6
aI8
aF0.75
aI5
aI4
aI9
aI0
aI0
aI1
aI0
aI4
aI12
aI8
aa(lp264
V0020801111
p265
aVMAR 31, 2009
p266
aVPOR vs. UTA
p267
aVW
p268
aI11
aI4
aI6
aF0.667
aI0
aI0
aF0.0
aI4
aI5
aF0.8
aI4
aI4
aI8
aI0
aI0
aI2
aI1
aI4
aI12
aI5
aa(lp269
V0020801129
p270
aVAPR 03, 2009
p271
aVPOR @ OKC
p272
aVW
p273
aI16
aI3
aI8
aF0.375
aI0
aI0
aF0.0
aI2
aI4
aF0.5
aI7
aI1
aI8
aI1
aI0
aI0
aI2
aI5
aI8
aI1
aa(lp274
V0020801146
p275
aVAPR 05, 2009
p276
aVPOR @ HOU
p277
aVL
p278
aI11
aI1
aI2
aF0.5
aI0
aI0
aF0.0
aI2
aI4
aF0.5
aI0
aI0
aI0
aI0
aI1
aI1
aI0
aI4
aI4
aI-9
aa(lp279
V0020801156
p280
aVAPR 07, 2009
p281
aVPOR @ MEM
p282
aVW
p283
aI23
aI5
aI8
aF0.625
aI0
aI0
aF0.0
aI0
aI0
aF0.0
aI2
aI3
aI5
aI0
aI0
aI1
aI3
aI5
aI10
aI13
aa(lp284
V0020801169
p285
aVAPR 08, 2009
p286
aVPOR @ SAS
p287
aVW
p288
aI22
aI4
aI5
aF0.8
aI0
aI0
aF0.0
aI0
aI1
aF0.0
aI2
aI6
aI8
aI0
aI0
aI2
aI0
aI5
aI8
aI8
aa(lp289
V0020801186
p290
aVAPR 10, 2009
p291
aVPOR vs. LAL
p292
aVW
p293
aI23
aI3
aI5
aF0.6
aI0
aI0
aF0.0
aI4
aI8
aF0.5
aI1
aI5
aI6
aI0
aI0
aI0
aI1
aI5
aI10
aI1
aa(lp294
V0020801195
p295
aVAPR 11, 2009
p296
aVPOR @ LAC
p297
aVW
p298
aI17
aI1
aI2
aF0.5
aI0
aI0
aF0.0
aI2
aI2
aF1.0
aI2
aI4
aI6
aI0
aI0
aI1
aI0
aI1
aI4
aI-7
aa(lp299
V0020801212
p300
aVAPR 13, 2009
p301
aVPOR vs. OKC
p302
aVW
p303
aI20
aI7
aI11
aF0.636
aI0
aI0
aF0.0
aI2
aI2
aF1.0
aI1
aI8
aI9
aI0
aI0
aI1
aI0
aI2
aI16
aI19
aa(lp304
V0020801230
p305
aVAPR 15, 2009
p306
aVPOR vs. DEN
p307
aVW
p308
aI20
aI3
aI6
aF0.5
aI0
aI0
aF0.0
aI4
aI6
aF0.667
aI0
aI4
aI4
aI0
aI0
aI1
aI1
aI2
aI10
aI24
aasS'name'
p309
VGreg Oden
p310
sS'experience'
p311
I1
s.