(dp0
S'stats'
p1
(lp2
(lp3
V0020800545
p4
aVJAN 10, 2009
p5
aVGSW @ POR
p6
aVL
p7
aI4
aI0
aI1
aF0.0
aI0
aI0
aF0.0
aI0
aI0
aF0.0
aI0
aI0
aI0
aI0
aI0
aI0
aI1
aI0
aI0
aI-2
aa(lp8
V0020800608
p9
aVJAN 19, 2009
p10
aVGSW vs. WAS
p11
aVW
p12
aI1
aI0
aI0
aF0.0
aI0
aI0
aF0.0
aI1
aI2
aF0.5
aI0
aI0
aI0
aI0
aI0
aI0
aI0
aI0
aI1
aI3
aa(lp13
V0020800654
p14
aVJAN 25, 2009
p15
aVGSW vs. LAC
p16
aVW
p17
aI4
aI2
aI3
aF0.667
aI0
aI0
aF0.0
aI0
aI0
aF0.0
aI0
aI0
aI0
aI0
aI0
aI1
aI1
aI1
aI4
aI-8
aa(lp18
V0020800676
p19
aVJAN 28, 2009
p20
aVGSW @ DAL
p21
aVL
p22
aI2
aI0
aI0
aF0.0
aI0
aI0
aF0.0
aI0
aI0
aF0.0
aI0
aI1
aI1
aI0
aI0
aI0
aI0
aI0
aI0
aI-2
aa(lp23
V0020800697
p24
aVJAN 31, 2009
p25
aVGSW @ HOU
p26
aVL
p27
aI1
aI0
aI0
aF0.0
aI0
aI0
aF0.0
aI0
aI0
aF0.0
aI0
aI0
aI0
aI0
aI0
aI0
aI0
aI0
aI0
aI-3
aa(lp28
V0020800807
p29
aVFEB 18, 2009
p30
aVGSW vs. LAL
p31
aVL
p32
aI1
aI0
aI1
aF0.0
aI0
aI0
aF0.0
aI0
aI0
aF0.0
aI0
aI0
aI0
aI0
aI0
aI0
aI0
aI0
aI0
aI-2
aa(lp33
V0020800891
p34
aVMAR 01, 2009
p35
aVGSW vs. UTA
p36
aVL
p37
aI3
aI0
aI0
aF0.0
aI0
aI0
aF0.0
aI0
aI0
aF0.0
aI0
aI0
aI0
aI0
aI0
aI0
aI0
aI2
aI0
aI-5
aa(lp38
V0020800901
p39
aVMAR 03, 2009
p40
aVGSW @ MIN
p41
aVW
p42
aI21
aI2
aI4
aF0.5
aI0
aI0
aF0.0
aI3
aI6
aF0.5
aI2
aI5
aI7
aI0
aI0
aI0
aI1
aI3
aI7
aI4
aa(lp43
V0020800910
p44
aVMAR 04, 2009
p45
aVGSW @ CHI
p46
aVL
p47
aI5
aI0
aI1
aF0.0
aI0
aI0
aF0.0
aI1
aI2
aF0.5
aI0
aI3
aI3
aI0
aI0
aI0
aI1
aI1
aI1
aI-4
aa(lp48
V0020800921
p49
aVMAR 06, 2009
p50
aVGSW @ DET
p51
aVL
p52
aI33
aI5
aI10
aF0.5
aI0
aI0
aF0.0
aI1
aI5
aF0.2
aI2
aI8
aI10
aI0
aI0
aI1
aI0
aI3
aI11
aI5
aa(lp53
V0020800933
p54
aVMAR 07, 2009
p55
aVGSW @ MIL
p56
aVL
p57
aI10
aI1
aI2
aF0.5
aI0
aI0
aF0.0
aI2
aI2
aF1.0
aI2
aI4
aI6
aI0
aI0
aI0
aI0
aI1
aI4
aI3
aa(lp58
V0020800994
p59
aVMAR 15, 2009
p60
aVGSW vs. PHX
p61
aVL
p62
aI7
aI2
aI5
aF0.4
aI0
aI0
aF0.0
aI0
aI0
aF0.0
aI2
aI1
aI3
aI1
aI0
aI0
aI1
aI0
aI4
aI5
aa(lp63
V0020801007
p64
aVMAR 17, 2009
p65
aVGSW vs. LAC
p66
aVW
p67
aI7
aI1
aI2
aF0.5
aI0
aI0
aF0.0
aI0
aI0
aF0.0
aI0
aI1
aI1
aI0
aI0
aI1
aI0
aI0
aI2
aI-6
aa(lp68
V0020801022
p69
aVMAR 19, 2009
p70
aVGSW @ LAL
p71
aVL
p72
aI11
aI4
aI6
aF0.667
aI0
aI0
aF0.0
aI0
aI0
aF0.0
aI2
aI1
aI3
aI0
aI2
aI0
aI0
aI1
aI8
aI-6
aasS'name'
p73
VJermareo Davidson
p74
sS'weight'
p75
V230
p76
sS'age'
p77
I24
sS'experience'
p78
I1
sS'height'
p79
V6-10
p80
sS'position'
p81
VForward
p82
s.