(dp0
S'age'
p1
I23
sS'stats'
p2
(lp3
(lp4
V0020800002
p5
aVOCT 28, 2008
p6
aVCHI vs. MIL
p7
aVW
p8
aI19
aI2
aI3
aF0.667
aI0
aI0
aF0.0
aI2
aI4
aF0.5
aI2
aI4
aI6
aI1
aI0
aI3
aI1
aI3
aI6
aI8
aa(lp9
V0020800022
p10
aVOCT 31, 2008
p11
aVCHI @ BOS
p12
aVL
p13
aI23
aI2
aI7
aF0.286
aI0
aI1
aF0.0
aI1
aI2
aF0.5
aI4
aI9
aI13
aI0
aI1
aI0
aI2
aI3
aI5
aI2
aa(lp14
V0020800034
p15
aVNOV 01, 2008
p16
aVCHI vs. MEM
p17
aVW
p18
aI7
aI0
aI0
aF0.0
aI0
aI0
aF0.0
aI0
aI0
aF0.0
aI0
aI0
aI0
aI0
aI0
aI1
aI1
aI1
aI0
aI-4
aa(lp19
V0020800043
p20
aVNOV 03, 2008
p21
aVCHI @ ORL
p22
aVL
p23
aI5
aI0
aI1
aF0.0
aI0
aI0
aF0.0
aI0
aI0
aF0.0
aI1
aI2
aI3
aI0
aI1
aI0
aI0
aI2
aI0
aI-5
aa(lp24
V0020800055
p25
aVNOV 05, 2008
p26
aVCHI @ CLE
p27
aVL
p28
aI9
aI1
aI2
aF0.5
aI0
aI0
aF0.0
aI2
aI2
aF1.0
aI0
aI1
aI1
aI1
aI1
aI0
aI1
aI3
aI4
aI-1
aa(lp29
V0020800073
p30
aVNOV 07, 2008
p31
aVCHI vs. PHX
p32
aVW
p33
aI31
aI3
aI7
aF0.429
aI0
aI0
aF0.0
aI3
aI8
aF0.375
aI6
aI8
aI14
aI1
aI1
aI0
aI0
aI4
aI9
aI20
aa(lp34
V0020800082
p35
aVNOV 08, 2008
p36
aVCHI vs. CLE
p37
aVL
p38
aI26
aI1
aI1
aF1.0
aI0
aI0
aF0.0
aI2
aI2
aF1.0
aI1
aI2
aI3
aI4
aI1
aI2
aI1
aI4
aI4
aI5
aa(lp39
V0020800101
p40
aVNOV 11, 2008
p41
aVCHI vs. ATL
p42
aVL
p43
aI28
aI1
aI3
aF0.333
aI0
aI0
aF0.0
aI0
aI0
aF0.0
aI2
aI6
aI8
aI2
aI0
aI1
aI0
aI4
aI2
aI-13
aa(lp44
V0020800118
p45
aVNOV 13, 2008
p46
aVCHI vs. DAL
p47
aVW
p48
aI4
aI0
aI1
aF0.0
aI0
aI0
aF0.0
aI0
aI0
aF0.0
aI0
aI0
aI0
aI0
aI0
aI0
aI0
aI2
aI0
aI-15
aa(lp49
V0020800137
p50
aVNOV 15, 2008
p51
aVCHI vs. IND
p52
aVW
p53
aI22
aI2
aI5
aF0.4
aI0
aI0
aF0.0
aI1
aI1
aF1.0
aI2
aI6
aI8
aI2
aI2
aI1
aI0
aI2
aI5
aI3
aa(lp54
V0020800158
p55
aVNOV 18, 2008
p56
aVCHI @ LAL
p57
aVL
p58
aI12
aI1
aI2
aF0.5
aI0
aI0
aF0.0
aI0
aI0
aF0.0
aI2
aI3
aI5
aI0
aI0
aI1
aI0
aI3
aI2
aI-10
aa(lp59
V0020800168
p60
aVNOV 19, 2008
p61
aVCHI @ POR
p62
aVL
p63
aI17
aI2
aI4
aF0.5
aI0
aI0
aF0.0
aI0
aI0
aF0.0
aI4
aI1
aI5
aI0
aI1
aI2
aI0
aI6
aI4
aI-14
aa(lp64
V0020800196
p65
aVNOV 23, 2008
p66
aVCHI @ DEN
p67
aVL
p68
aI19
aI1
aI4
aF0.25
aI0
aI0
aF0.0
aI0
aI0
aF0.0
aI4
aI5
aI9
aI1
aI1
aI0
aI1
aI3
aI2
aI7
aa(lp69
V0020800202
p70
aVNOV 24, 2008
p71
aVCHI @ UTA
p72
aVW
p73
aI16
aI3
aI5
aF0.6
aI0
aI0
aF0.0
aI0
aI0
aF0.0
aI4
aI3
aI7
aI0
aI0
aI0
aI2
aI1
aI6
aI4
aa(lp74
V0020800218
p75
aVNOV 26, 2008
p76
aVCHI @ SAS
p77
aVL
p78
aI12
aI0
aI2
aF0.0
aI0
aI0
aF0.0
aI2
aI2
aF1.0
aI1
aI4
aI5
aI0
aI1
aI0
aI0
aI3
aI2
aI2
aa(lp79
V0020800248
p80
aVNOV 30, 2008
p81
aVCHI @ PHI
p82
aVW
p83
aI14
aI1
aI3
aF0.333
aI0
aI0
aF0.0
aI2
aI4
aF0.5
aI1
aI3
aI4
aI0
aI0
aI2
aI0
aI2
aI4
aI5
aa(lp84
V0020800258
p85
aVDEC 02, 2008
p86
aVCHI vs. PHI
p87
aVL
p88
aI12
aI0
aI2
aF0.0
aI0
aI0
aF0.0
aI2
aI2
aF1.0
aI3
aI3
aI6
aI1
aI1
aI3
aI2
aI2
aI2
aI3
aa(lp89
V0020800270
p90
aVDEC 03, 2008
p91
aVCHI @ MIL
p92
aVL
p93
aI17
aI1
aI1
aF1.0
aI0
aI0
aF0.0
aI0
aI0
aF0.0
aI1
aI4
aI5
aI1
aI0
aI2
aI0
aI2
aI2
aI-10
aa(lp94
V0020800308
p95
aVDEC 09, 2008
p96
aVCHI vs. NYK
p97
aVW
p98
aI19
aI1
aI1
aF1.0
aI0
aI0
aF0.0
aI1
aI2
aF0.5
aI1
aI4
aI5
aI0
aI1
aI4
aI1
aI3
aI3
aI0
aa(lp99
V0020800331
p100
aVDEC 12, 2008
p101
aVCHI @ MEM
p102
aVL
p103
aI18
aI1
aI2
aF0.5
aI0
aI0
aF0.0
aI2
aI2
aF1.0
aI3
aI2
aI5
aI1
aI0
aI2
aI2
aI3
aI4
aI-2
aa(lp104
V0020800340
p105
aVDEC 13, 2008
p106
aVCHI vs. NJN
p107
aVW
p108
aI27
aI3
aI3
aF1.0
aI0
aI0
aF0.0
aI1
aI1
aF1.0
aI3
aI5
aI8
aI2
aI0
aI3
aI2
aI3
aI7
aI21
aa(lp109
V0020800360
p110
aVDEC 16, 2008
p111
aVCHI @ CHA
p112
aVL
p113
aI16
aI3
aI4
aF0.75
aI0
aI0
aF0.0
aI1
aI2
aF0.5
aI5
aI1
aI6
aI3
aI0
aI0
aI1
aI2
aI7
aI-11
aa(lp114
V0020800373
p115
aVDEC 17, 2008
p116
aVCHI vs. LAC
p117
aVW
p118
aI24
aI3
aI4
aF0.75
aI0
aI0
aF0.0
aI1
aI1
aF1.0
aI1
aI5
aI6
aI1
aI2
aI3
aI2
aI4
aI7
aI6
aa(lp119
V0020800380
p120
aVDEC 19, 2008
p121
aVCHI @ BOS
p122
aVL
p123
aI27
aI5
aI6
aF0.833
aI0
aI0
aF0.0
aI0
aI0
aF0.0
aI4
aI1
aI5
aI3
aI1
aI0
aI0
aI5
aI10
aI1
aa(lp124
V0020800395
p125
aVDEC 20, 2008
p126
aVCHI vs. UTA
p127
aVW
p128
aI20
aI2
aI6
aF0.333
aI0
aI0
aF0.0
aI0
aI0
aF0.0
aI8
aI1
aI9
aI0
aI1
aI1
aI1
aI4
aI4
aI-6
aa(lp129
V0020800415
p130
aVDEC 23, 2008
p131
aVCHI @ DET
p132
aVL
p133
aI17
aI0
aI1
aF0.0
aI0
aI0
aF0.0
aI2
aI2
aF1.0
aI0
aI1
aI1
aI0
aI0
aI0
aI0
aI0
aI2
aI-11
aa(lp134
V0020800426
p135
aVDEC 26, 2008
p136
aVCHI @ MIA
p137
aVL
p138
aI16
aI1
aI3
aF0.333
aI0
aI0
aF0.0
aI0
aI0
aF0.0
aI1
aI5
aI6
aI0
aI0
aI2
aI1
aI1
aI2
aI-5
aa(lp139
V0020800436
p140
aVDEC 27, 2008
p141
aVCHI @ ATL
p142
aVL
p143
aI6
aI0
aI0
aF0.0
aI0
aI0
aF0.0
aI0
aI0
aF0.0
aI0
aI0
aI0
aI0
aI0
aI0
aI0
aI0
aI0
aI0
aa(lp144
V0020800452
p145
aVDEC 29, 2008
p146
aVCHI @ NJN
p147
aVW
p148
aI32
aI4
aI6
aF0.667
aI0
aI0
aF0.0
aI0
aI2
aF0.0
aI4
aI3
aI7
aI1
aI1
aI4
aI1
aI3
aI8
aI13
aa(lp149
V0020800467
p150
aVDEC 31, 2008
p151
aVCHI vs. ORL
p152
aVL
p153
aI31
aI4
aI6
aF0.667
aI0
aI0
aF0.0
aI11
aI13
aF0.846
aI4
aI7
aI11
aI3
aI1
aI1
aI0
aI3
aI19
aI-7
aa(lp154
V0020800476
p155
aVJAN 02, 2009
p156
aVCHI @ CLE
p157
aVL
p158
aI23
aI4
aI9
aF0.444
aI0
aI0
aF0.0
aI0
aI1
aF0.0
aI6
aI4
aI10
aI0
aI0
aI0
aI0
aI1
aI8
aI-10
aa(lp159
V0020800492
p160
aVJAN 03, 2009
p161
aVCHI vs. MIN
p162
aVL
p163
aI14
aI2
aI6
aF0.333
aI0
aI0
aF0.0
aI1
aI4
aF0.25
aI4
aI4
aI8
aI0
aI0
aI3
aI2
aI5
aI5
aI0
aa(lp164
V0020800511
p165
aVJAN 06, 2009
p166
aVCHI vs. SAC
p167
aVW
p168
aI15
aI1
aI4
aF0.25
aI0
aI0
aF0.0
aI0
aI0
aF0.0
aI4
aI2
aI6
aI1
aI1
aI1
aI1
aI3
aI2
aI17
aa(lp169
V0020800534
p170
aVJAN 09, 2009
p171
aVCHI vs. WAS
p172
aVW
p173
aI23
aI3
aI3
aF1.0
aI0
aI0
aF0.0
aI0
aI0
aF0.0
aI2
aI5
aI7
aI1
aI0
aI0
aI0
aI2
aI6
aI-1
aa(lp174
V0020800542
p175
aVJAN 10, 2009
p176
aVCHI vs. OKC
p177
aVL
p178
aI30
aI2
aI4
aF0.5
aI0
aI0
aF0.0
aI0
aI2
aF0.0
aI5
aI6
aI11
aI0
aI1
aI2
aI3
aI6
aI4
aI-1
aa(lp179
V0020800557
p180
aVJAN 12, 2009
p181
aVCHI vs. POR
p182
aVL
p183
aI8
aI1
aI1
aF1.0
aI0
aI0
aF0.0
aI1
aI2
aF0.5
aI1
aI1
aI2
aI0
aI0
aI0
aI2
aI3
aI3
aI2
aa(lp184
V0020800568
p185
aVJAN 14, 2009
p186
aVCHI @ TOR
p187
aVW
p188
aI17
aI4
aI5
aF0.8
aI0
aI0
aF0.0
aI0
aI0
aF0.0
aI1
aI2
aI3
aI2
aI0
aI1
aI0
aI3
aI8
aI6
aa(lp189
V0020800578
p190
aVJAN 15, 2009
p191
aVCHI vs. CLE
p192
aVW
p193
aI13
aI2
aI4
aF0.5
aI0
aI0
aF0.0
aI0
aI0
aF0.0
aI1
aI2
aI3
aI1
aI0
aI0
aI1
aI2
aI4
aI-12
aa(lp194
V0020800594
p195
aVJAN 17, 2009
p196
aVCHI vs. SAS
p197
aVL
p198
aI22
aI1
aI3
aF0.333
aI0
aI0
aF0.0
aI0
aI1
aF0.0
aI1
aI4
aI5
aI1
aI1
aI2
aI1
aI3
aI2
aI-9
aa(lp199
V0020800601
p200
aVJAN 19, 2009
p201
aVCHI @ NYK
p202
aVL
p203
aI29
aI2
aI6
aF0.333
aI0
aI0
aF0.0
aI3
aI4
aF0.75
aI7
aI11
aI18
aI0
aI1
aI3
aI1
aI4
aI7
aI4
aa(lp204
V0020800613
p205
aVJAN 20, 2009
p206
aVCHI vs. ATL
p207
aVL
p208
aI32
aI4
aI7
aF0.571
aI0
aI0
aF0.0
aI1
aI4
aF0.25
aI8
aI3
aI11
aI0
aI1
aI1
aI1
aI3
aI9
aI-14
aa(lp209
V0020800636
p210
aVJAN 23, 2009
p211
aVCHI vs. TOR
p212
aVL
p213
aI14
aI0
aI0
aF0.0
aI0
aI0
aF0.0
aI0
aI2
aF0.0
aI1
aI2
aI3
aI1
aI0
aI0
aI3
aI6
aI0
aI-10
aa(lp214
V0020800652
p215
aVJAN 25, 2009
p216
aVCHI @ MIN
p217
aVL
p218
aI35
aI7
aI10
aF0.7
aI0
aI0
aF0.0
aI0
aI0
aF0.0
aI6
aI4
aI10
aI3
aI0
aI8
aI0
aI5
aI14
aI4
aa(lp219
V0020800678
p220
aVJAN 28, 2009
p221
aVCHI @ LAC
p222
aVW
p223
aI26
aI4
aI6
aF0.667
aI0
aI0
aF0.0
aI2
aI3
aF0.667
aI5
aI3
aI8
aI2
aI0
aI4
aI1
aI2
aI10
aI25
aa(lp224
V0020800691
p225
aVJAN 30, 2009
p226
aVCHI @ SAC
p227
aVW
p228
aI35
aI8
aI11
aF0.727
aI0
aI0
aF0.0
aI1
aI5
aF0.2
aI3
aI3
aI6
aI1
aI0
aI3
aI0
aI2
aI17
aI19
aa(lp229
V0020800700
p230
aVJAN 31, 2009
p231
aVCHI @ PHX
p232
aVW
p233
aI28
aI2
aI4
aF0.5
aI0
aI0
aF0.0
aI0
aI0
aF0.0
aI2
aI6
aI8
aI2
aI1
aI0
aI0
aI5
aI4
aI11
aa(lp234
V0020800718
p235
aVFEB 03, 2009
p236
aVCHI @ HOU
p237
aVL
p238
aI18
aI1
aI3
aF0.333
aI0
aI0
aF0.0
aI0
aI0
aF0.0
aI1
aI0
aI1
aI3
aI1
aI1
aI1
aI6
aI2
aI-6
aa(lp239
V0020800727
p240
aVFEB 04, 2009
p241
aVCHI @ NOH
p242
aVW
p243
aI38
aI7
aI9
aF0.778
aI0
aI0
aF0.0
aI2
aI5
aF0.4
aI2
aI7
aI9
aI2
aI0
aI2
aI1
aI5
aI16
aI13
aa(lp244
V0020800747
p245
aVFEB 07, 2009
p246
aVCHI @ DAL
p247
aVL
p248
aI30
aI4
aI4
aF1.0
aI0
aI0
aF0.0
aI0
aI3
aF0.0
aI2
aI8
aI10
aI2
aI0
aI1
aI2
aI5
aI8
aI-2
aa(lp249
V0020800769
p250
aVFEB 10, 2009
p251
aVCHI vs. DET
p252
aVW
p253
aI43
aI5
aI11
aF0.455
aI0
aI0
aF0.0
aI2
aI2
aF1.0
aI8
aI8
aI16
aI2
aI2
aI1
aI0
aI4
aI12
aI8
aa(lp254
V0020800785
p255
aVFEB 12, 2009
p256
aVCHI vs. MIA
p257
aVL
p258
aI43
aI1
aI5
aF0.2
aI0
aI0
aF0.0
aI3
aI4
aF0.75
aI5
aI6
aI11
aI3
aI2
aI2
aI4
aI2
aI5
aI0
aa(lp259
V0020800801
p260
aVFEB 18, 2009
p261
aVCHI @ MIL
p262
aVW
p263
aI33
aI1
aI3
aF0.333
aI0
aI0
aF0.0
aI2
aI2
aF1.0
aI4
aI5
aI9
aI3
aI0
aI1
aI2
aI6
aI4
aI7
aa(lp264
V0020800816
p265
aVFEB 20, 2009
p266
aVCHI vs. DEN
p267
aVW
p268
aI31
aI4
aI8
aF0.5
aI0
aI0
aF0.0
aI5
aI6
aF0.833
aI4
aI3
aI7
aI2
aI0
aI2
aI2
aI5
aI13
aI14
aa(lp269
V0020800827
p270
aVFEB 22, 2009
p271
aVCHI @ IND
p272
aVL
p273
aI32
aI2
aI4
aF0.5
aI0
aI0
aF0.0
aI1
aI4
aF0.25
aI2
aI10
aI12
aI0
aI1
aI2
aI0
aI1
aI5
aI-15
aa(lp274
V0020800845
p275
aVFEB 24, 2009
p276
aVCHI vs. ORL
p277
aVW
p278
aI25
aI4
aI4
aF1.0
aI0
aI0
aF0.0
aI6
aI7
aF0.857
aI3
aI5
aI8
aI1
aI0
aI1
aI2
aI5
aI14
aI12
aa(lp279
V0020800852
p280
aVFEB 25, 2009
p281
aVCHI @ NJN
p282
aVL
p283
aI24
aI2
aI3
aF0.667
aI0
aI0
aF0.0
aI2
aI2
aF1.0
aI4
aI4
aI8
aI1
aI1
aI0
aI1
aI2
aI6
aI-11
aa(lp284
V0020800865
p285
aVFEB 27, 2009
p286
aVCHI @ WAS
p287
aVL
p288
aI30
aI4
aI4
aF1.0
aI0
aI0
aF0.0
aI1
aI2
aF0.5
aI4
aI5
aI9
aI2
aI1
aI1
aI1
aI4
aI9
aI-19
aa(lp289
V0020800879
p290
aVFEB 28, 2009
p291
aVCHI vs. HOU
p292
aVW
p293
aI33
aI3
aI7
aF0.429
aI0
aI0
aF0.0
aI4
aI4
aF1.0
aI5
aI10
aI15
aI3
aI0
aI2
aI1
aI2
aI10
aI13
aa(lp294
V0020800897
p295
aVMAR 03, 2009
p296
aVCHI @ CHA
p297
aVL
p298
aI28
aI1
aI3
aF0.333
aI0
aI0
aF0.0
aI2
aI2
aF1.0
aI1
aI4
aI5
aI0
aI0
aI3
aI1
aI2
aI4
aI-19
aa(lp299
V0020800910
p300
aVMAR 04, 2009
p301
aVCHI vs. GSW
p302
aVW
p303
aI34
aI3
aI11
aF0.273
aI0
aI0
aF0.0
aI8
aI8
aF1.0
aI8
aI9
aI17
aI1
aI1
aI4
aI2
aI2
aI14
aI5
aa(lp304
V0020800922
p305
aVMAR 06, 2009
p306
aVCHI vs. MIL
p307
aVW
p308
aI26
aI2
aI4
aF0.5
aI0
aI0
aF0.0
aI3
aI4
aF0.75
aI4
aI9
aI13
aI0
aI0
aI1
aI2
aI3
aI7
aI10
aa(lp309
V0020800945
p310
aVMAR 09, 2009
p311
aVCHI @ MIA
p312
aVL
p313
aI44
aI3
aI5
aF0.6
aI0
aI0
aF0.0
aI5
aI8
aF0.625
aI5
aI10
aI15
aI1
aI1
aI1
aI1
aI6
aI11
aI-12
aa(lp314
V0020800956
p315
aVMAR 11, 2009
p316
aVCHI @ ORL
p317
aVL
p318
aI12
aI1
aI3
aF0.333
aI0
aI0
aF0.0
aI2
aI2
aF1.0
aI1
aI4
aI5
aI2
aI0
aI0
aI0
aI4
aI4
aI-8
aa(lp319
V0020800969
p320
aVMAR 13, 2009
p321
aVCHI @ PHI
p322
aVL
p323
aI32
aI6
aI8
aF0.75
aI0
aI0
aF0.0
aI1
aI2
aF0.5
aI3
aI6
aI9
aI3
aI0
aI0
aI0
aI1
aI13
aI-11
aa(lp324
V0020800981
p325
aVMAR 14, 2009
p326
aVCHI vs. NOH
p327
aVW
p328
aI30
aI3
aI9
aF0.333
aI0
aI0
aF0.0
aI0
aI0
aF0.0
aI5
aI4
aI9
aI4
aI1
aI0
aI0
aI3
aI6
aI13
aa(lp329
V0020801003
p330
aVMAR 17, 2009
p331
aVCHI vs. BOS
p332
aVW
p333
aI24
aI3
aI6
aF0.5
aI0
aI0
aF0.0
aI0
aI2
aF0.0
aI1
aI6
aI7
aI1
aI0
aI0
aI1
aI2
aI6
aI-9
aa(lp334
V0020801016
p335
aVMAR 18, 2009
p336
aVCHI @ OKC
p337
aVW
p338
aI35
aI2
aI4
aF0.5
aI0
aI0
aF0.0
aI0
aI0
aF0.0
aI2
aI3
aI5
aI0
aI2
aI3
aI1
aI1
aI4
aI7
aa(lp339
V0020801038
p340
aVMAR 21, 2009
p341
aVCHI vs. LAL
p342
aVL
p343
aI30
aI2
aI5
aF0.4
aI0
aI0
aF0.0
aI0
aI0
aF0.0
aI1
aI8
aI9
aI1
aI0
aI3
aI3
aI4
aI4
aI-10
aa(lp344
V0020801049
p345
aVMAR 23, 2009
p346
aVCHI @ WAS
p347
aVW
p348
aI26
aI3
aI5
aF0.6
aI0
aI0
aF0.0
aI3
aI4
aF0.75
aI2
aI10
aI12
aI1
aI2
aI4
aI0
aI2
aI9
aI13
aa(lp349
V0020801055
p350
aVMAR 24, 2009
p351
aVCHI vs. DET
p352
aVW
p353
aI30
aI6
aI9
aF0.667
aI0
aI0
aF0.0
aI3
aI4
aF0.75
aI5
aI5
aI10
aI2
aI0
aI0
aI2
aI0
aI15
aI9
aa(lp354
V0020801071
p355
aVMAR 26, 2009
p356
aVCHI vs. MIA
p357
aVW
p358
aI35
aI4
aI6
aF0.667
aI0
aI0
aF0.0
aI2
aI2
aF1.0
aI4
aI3
aI7
aI4
aI0
aI0
aI1
aI1
aI10
aI6
aa(lp359
V0020801083
p360
aVMAR 28, 2009
p361
aVCHI vs. IND
p362
aVW
p363
aI33
aI3
aI4
aF0.75
aI0
aI0
aF0.0
aI2
aI3
aF0.667
aI2
aI5
aI7
aI2
aI1
aI2
aI1
aI1
aI8
aI4
aa(lp364
V0020801094
p365
aVMAR 29, 2009
p366
aVCHI @ TOR
p367
aVL
p368
aI21
aI8
aI10
aF0.8
aI0
aI0
aF0.0
aI0
aI0
aF0.0
aI4
aI2
aI6
aI1
aI1
aI1
aI0
aI3
aI16
aI-6
aa(lp369
V0020801106
p370
aVMAR 31, 2009
p371
aVCHI @ IND
p372
aVL
p373
aI20
aI0
aI2
aF0.0
aI0
aI0
aF0.0
aI4
aI4
aF1.0
aI1
aI6
aI7
aI2
aI0
aI1
aI2
aI1
aI4
aI7
aa(lp374
V0020801136
p375
aVAPR 04, 2009
p376
aVCHI vs. NJN
p377
aVW
p378
aI32
aI3
aI7
aF0.429
aI0
aI0
aF0.0
aI6
aI7
aF0.857
aI3
aI7
aI10
aI0
aI4
aI1
aI2
aI3
aI12
aI0
aa(lp379
V0020801158
p380
aVAPR 07, 2009
p381
aVCHI vs. NYK
p382
aVW
p383
aI23
aI1
aI2
aF0.5
aI0
aI0
aF0.0
aI2
aI2
aF1.0
aI4
aI5
aI9
aI1
aI0
aI0
aI2
aI3
aI4
aI3
aa(lp384
V0020801173
p385
aVAPR 09, 2009
p386
aVCHI vs. PHI
p387
aVW
p388
aI28
aI4
aI4
aF1.0
aI0
aI0
aF0.0
aI0
aI0
aF0.0
aI3
aI4
aI7
aI2
aI1
aI1
aI2
aI3
aI8
aI22
aa(lp389
V0020801192
p390
aVAPR 11, 2009
p391
aVCHI vs. CHA
p392
aVW
p393
aI39
aI4
aI5
aF0.8
aI0
aI0
aF0.0
aI3
aI3
aF1.0
aI4
aI6
aI10
aI7
aI1
aI2
aI4
aI4
aI11
aI13
aa(lp394
V0020801204
p395
aVAPR 13, 2009
p396
aVCHI @ DET
p397
aVW
p398
aI36
aI4
aI6
aF0.667
aI0
aI0
aF0.0
aI3
aI3
aF1.0
aI2
aI11
aI13
aI4
aI0
aI1
aI0
aI2
aI11
aI6
aa(lp399
V0020801218
p400
aVAPR 15, 2009
p401
aVCHI vs. TOR
p402
aVL
p403
aI31
aI8
aI11
aF0.727
aI0
aI0
aF0.0
aI1
aI1
aF1.0
aI6
aI3
aI9
aI0
aI2
aI0
aI0
aI4
aI17
aI-8
aasS'name'
p404
VJoakim Noah
p405
sS'experience'
p406
I1
s.