(dp0
S'age'
p1
I21
sS'stats'
p2
(lp3
(lp4
V0020801221
p5
aVAPR 15, 2009
p6
aVIND vs. MIL
p7
aVW
p8
aI16
aI3
aI5
aF0.6
aI0
aI1
aF0.0
aI0
aI0
aF0.0
aI2
aI1
aI3
aI2
aI2
aI3
aI0
aI1
aI6
aI22
aa(lp9
V0020801202
p10
aVAPR 13, 2009
p11
aVIND vs. CLE
p12
aVL
p13
aI6
aI0
aI1
aF0.0
aI0
aI0
aF0.0
aI0
aI0
aF0.0
aI1
aI0
aI1
aI0
aI0
aI0
aI0
aI0
aI0
aI1
aa(lp14
V0020801189
p15
aVAPR 11, 2009
p16
aVIND vs. DET
p17
aVW
p18
aI11
aI2
aI3
aF0.667
aI0
aI0
aF0.0
aI0
aI0
aF0.0
aI1
aI1
aI2
aI0
aI1
aI0
aI0
aI3
aI4
aI4
aa(lp19
V0020801163
p20
aVAPR 08, 2009
p21
aVIND vs. TOR
p22
aVW
p23
aI22
aI5
aI8
aF0.625
aI0
aI1
aF0.0
aI2
aI2
aF1.0
aI2
aI9
aI11
aI1
aI1
aI2
aI1
aI3
aI12
aI-4
aa(lp24
V0020801149
p25
aVAPR 05, 2009
p26
aVIND @ OKC
p27
aVW
p28
aI15
aI1
aI3
aF0.333
aI0
aI1
aF0.0
aI2
aI2
aF1.0
aI2
aI3
aI5
aI2
aI0
aI0
aI0
aI0
aI4
aI-1
aa(lp29
V0020801126
p30
aVAPR 03, 2009
p31
aVIND vs. SAS
p32
aVL
p33
aI5
aI0
aI2
aF0.0
aI0
aI0
aF0.0
aI0
aI0
aF0.0
aI0
aI0
aI0
aI0
aI0
aI0
aI0
aI1
aI0
aI-7
aa(lp34
V0020801106
p35
aVMAR 31, 2009
p36
aVIND vs. CHI
p37
aVW
p38
aI18
aI4
aI6
aF0.667
aI0
aI0
aF0.0
aI2
aI3
aF0.667
aI1
aI0
aI1
aI1
aI1
aI1
aI1
aI0
aI10
aI-8
aa(lp39
V0020801097
p40
aVMAR 29, 2009
p41
aVIND vs. WAS
p42
aVW
p43
aI0
aI0
aI0
aF0.0
aI0
aI0
aF0.0
aI0
aI0
aF0.0
aI0
aI0
aI0
aI0
aI0
aI0
aI0
aI0
aI0
aI0
aa(lp44
V0020801061
p45
aVMAR 25, 2009
p46
aVIND vs. MIA
p47
aVW
p48
aI4
aI0
aI1
aF0.0
aI0
aI0
aF0.0
aI0
aI0
aF0.0
aI0
aI0
aI0
aI0
aI0
aI0
aI0
aI1
aI0
aI-7
aa(lp49
V0020801035
p50
aVMAR 21, 2009
p51
aVIND @ CHA
p52
aVW
p53
aI11
aI0
aI3
aF0.0
aI0
aI0
aF0.0
aI0
aI0
aF0.0
aI1
aI2
aI3
aI0
aI0
aI0
aI0
aI3
aI0
aI-2
aa(lp54
V0020801023
p55
aVMAR 20, 2009
p56
aVIND vs. DAL
p57
aVL
p58
aI6
aI1
aI2
aF0.5
aI0
aI0
aF0.0
aI0
aI0
aF0.0
aI0
aI0
aI0
aI0
aI0
aI0
aI0
aI0
aI2
aI3
aa(lp59
V0020801011
p60
aVMAR 18, 2009
p61
aVIND vs. POR
p62
aVL
p63
aI10
aI1
aI1
aF1.0
aI0
aI0
aF0.0
aI0
aI0
aF0.0
aI1
aI3
aI4
aI0
aI2
aI1
aI0
aI2
aI2
aI5
aa(lp64
V0020800972
p65
aVMAR 13, 2009
p66
aVIND @ ATL
p67
aVL
p68
aI2
aI0
aI0
aF0.0
aI0
aI0
aF0.0
aI0
aI0
aF0.0
aI0
aI0
aI0
aI0
aI0
aI0
aI0
aI0
aI0
aI-1
aa(lp69
V0020800814
p70
aVFEB 20, 2009
p71
aVIND @ MIN
p72
aVW
p73
aI0
aI1
aI1
aF1.0
aI0
aI0
aF0.0
aI0
aI0
aF0.0
aI1
aI0
aI1
aI0
aI0
aI0
aI0
aI0
aI2
aI0
aa(lp74
V0020800580
p75
aVJAN 16, 2009
p76
aVIND vs. TOR
p77
aVW
p78
aI5
aI0
aI2
aF0.0
aI0
aI0
aF0.0
aI0
aI0
aF0.0
aI0
aI2
aI2
aI0
aI0
aI0
aI2
aI6
aI0
aI-8
aa(lp79
V0020800538
p80
aVJAN 09, 2009
p81
aVIND @ LAL
p82
aVL
p83
aI2
aI1
aI1
aF1.0
aI0
aI0
aF0.0
aI0
aI0
aF0.0
aI1
aI1
aI2
aI0
aI0
aI0
aI0
aI1
aI2
aI3
aa(lp84
V0020800504
p85
aVJAN 05, 2009
p86
aVIND @ DEN
p87
aVL
p88
aI5
aI0
aI0
aF0.0
aI0
aI0
aF0.0
aI0
aI0
aF0.0
aI0
aI2
aI2
aI1
aI0
aI1
aI0
aI0
aI0
aI0
aa(lp89
V0020800490
p90
aVJAN 03, 2009
p91
aVIND vs. SAC
p92
aVW
p93
aI6
aI1
aI4
aF0.25
aI0
aI0
aF0.0
aI0
aI0
aF0.0
aI2
aI1
aI3
aI0
aI0
aI0
aI0
aI0
aI2
aI6
aa(lp94
V0020800478
p95
aVJAN 02, 2009
p96
aVIND @ NYK
p97
aVW
p98
aI4
aI1
aI1
aF1.0
aI0
aI0
aF0.0
aI0
aI0
aF0.0
aI0
aI2
aI2
aI0
aI0
aI0
aI2
aI2
aI2
aI-7
aa(lp99
V0020800412
p100
aVDEC 23, 2008
p101
aVIND vs. NJN
p102
aVL
p103
aI25
aI4
aI10
aF0.4
aI0
aI0
aF0.0
aI0
aI0
aF0.0
aI1
aI3
aI4
aI5
aI2
aI0
aI0
aI1
aI8
aI-5
aa(lp104
V0020800391
p105
aVDEC 20, 2008
p106
aVIND @ PHI
p107
aVW
p108
aI28
aI5
aI12
aF0.417
aI0
aI4
aF0.0
aI0
aI0
aF0.0
aI3
aI5
aI8
aI0
aI0
aI4
aI3
aI3
aI10
aI9
aa(lp109
V0020800377
p110
aVDEC 19, 2008
p111
aVIND vs. LAC
p112
aVL
p113
aI17
aI1
aI3
aF0.333
aI0
aI0
aF0.0
aI2
aI4
aF0.5
aI2
aI3
aI5
aI1
aI0
aI1
aI0
aI2
aI4
aI-16
aa(lp114
V0020800353
p115
aVDEC 15, 2008
p116
aVIND @ WAS
p117
aVW
p118
aI1
aI0
aI0
aF0.0
aI0
aI0
aF0.0
aI0
aI0
aF0.0
aI0
aI0
aI0
aI0
aI0
aI0
aI0
aI0
aI0
aI0
aa(lp119
V0020800342
p120
aVDEC 13, 2008
p121
aVIND @ MIL
p122
aVL
p123
aI1
aI0
aI1
aF0.0
aI0
aI1
aF0.0
aI0
aI0
aF0.0
aI0
aI0
aI0
aI0
aI0
aI0
aI0
aI0
aI0
aI-3
aa(lp124
V0020800314
p125
aVDEC 10, 2008
p126
aVIND @ TOR
p127
aVL
p128
aI3
aI0
aI1
aF0.0
aI0
aI0
aF0.0
aI0
aI0
aF0.0
aI0
aI0
aI0
aI0
aI0
aI0
aI0
aI1
aI0
aI-9
aa(lp129
V0020800299
p130
aVDEC 07, 2008
p131
aVIND vs. BOS
p132
aVL
p133
aI10
aI1
aI4
aF0.25
aI0
aI1
aF0.0
aI0
aI0
aF0.0
aI1
aI1
aI2
aI0
aI0
aI1
aI0
aI3
aI2
aI5
aa(lp134
V0020800279
p135
aVDEC 05, 2008
p136
aVIND @ CLE
p137
aVL
p138
aI4
aI1
aI2
aF0.5
aI0
aI1
aF0.0
aI0
aI0
aF0.0
aI1
aI1
aI2
aI0
aI1
aI0
aI0
aI0
aI2
aI1
aa(lp139
V0020800269
p140
aVDEC 03, 2008
p141
aVIND @ BOS
p142
aVL
p143
aI2
aI0
aI1
aF0.0
aI0
aI0
aF0.0
aI0
aI0
aF0.0
aI0
aI0
aI0
aI0
aI0
aI0
aI0
aI0
aI0
aI-1
aa(lp144
V0020800255
p145
aVDEC 02, 2008
p146
aVIND vs. LAL
p147
aVW
p148
aI11
aI1
aI2
aF0.5
aI0
aI0
aF0.0
aI0
aI0
aF0.0
aI2
aI4
aI6
aI1
aI0
aI1
aI2
aI4
aI2
aI-1
aa(lp149
V0020800237
p150
aVNOV 29, 2008
p151
aVIND @ ORL
p152
aVL
p153
aI1
aI0
aI0
aF0.0
aI0
aI0
aF0.0
aI0
aI0
aF0.0
aI0
aI1
aI1
aI0
aI0
aI0
aI1
aI1
aI0
aI0
aa(lp154
V0020800137
p155
aVNOV 15, 2008
p156
aVIND @ CHI
p157
aVL
p158
aI2
aI0
aI0
aF0.0
aI0
aI0
aF0.0
aI0
aI0
aF0.0
aI0
aI0
aI0
aI0
aI0
aI0
aI0
aI0
aI0
aI0
aa(lp159
V0020800109
p160
aVNOV 12, 2008
p161
aVIND @ NJN
p162
aVW
p163
aI14
aI0
aI1
aF0.0
aI0
aI0
aF0.0
aI2
aI2
aF1.0
aI1
aI2
aI3
aI1
aI1
aI0
aI0
aI2
aI2
aI-8
aa(lp164
V0020800093
p165
aVNOV 10, 2008
p166
aVIND vs. OKC
p167
aVW
p168
aI10
aI1
aI2
aF0.5
aI0
aI0
aF0.0
aI0
aI0
aF0.0
aI0
aI1
aI1
aI1
aI1
aI1
aI0
aI1
aI2
aI7
aasS'name'
p169
VJosh McRoberts
p170
sS'experience'
p171
I1
s.