(dp0
S'age'
p1
I24
sS'stats'
p2
(lp3
(lp4
V0020800539
p5
aVJAN 09, 2009
p6
aVPHX vs. DAL
p7
aVW
p8
aI8
aI2
aI2
aF1.0
aI0
aI0
aF0.0
aI0
aI0
aF0.0
aI0
aI0
aI0
aI0
aI0
aI0
aI1
aI0
aI4
aI-3
aa(lp9
V0020800579
p10
aVJAN 15, 2009
p11
aVPHX @ DEN
p12
aVL
p13
aI4
aI0
aI1
aF0.0
aI0
aI0
aF0.0
aI0
aI0
aF0.0
aI0
aI0
aI0
aI1
aI0
aI0
aI0
aI1
aI0
aI-2
aa(lp14
V0020800586
p15
aVJAN 16, 2009
p16
aVPHX vs. MIN
p17
aVL
p18
aI7
aI2
aI2
aF1.0
aI0
aI0
aF0.0
aI1
aI1
aF1.0
aI0
aI1
aI1
aI0
aI0
aI0
aI0
aI1
aI5
aI4
aa(lp19
V0020800599
p20
aVJAN 18, 2009
p21
aVPHX @ TOR
p22
aVW
p23
aI4
aI0
aI0
aF0.0
aI0
aI0
aF0.0
aI0
aI0
aF0.0
aI0
aI0
aI0
aI0
aI0
aI0
aI0
aI0
aI0
aI2
aa(lp24
V0020800610
p25
aVJAN 19, 2009
p26
aVPHX @ BOS
p27
aVL
p28
aI12
aI4
aI6
aF0.667
aI0
aI1
aF0.0
aI3
aI4
aF0.75
aI1
aI0
aI1
aI1
aI1
aI0
aI1
aI0
aI11
aI14
aa(lp29
V0020800620
p30
aVJAN 21, 2009
p31
aVPHX @ NYK
p32
aVL
p33
aI4
aI0
aI0
aF0.0
aI0
aI0
aF0.0
aI0
aI0
aF0.0
aI0
aI0
aI0
aI0
aI0
aI0
aI1
aI0
aI0
aI-8
aa(lp34
V0020800630
p35
aVJAN 23, 2009
p36
aVPHX @ CHA
p37
aVL
p38
aI10
aI2
aI6
aF0.333
aI1
aI2
aF0.5
aI1
aI2
aF0.5
aI1
aI0
aI1
aI0
aI0
aI0
aI0
aI0
aI6
aI10
aa(lp39
V0020800711
p40
aVFEB 02, 2009
p41
aVPHX vs. SAC
p42
aVW
p43
aI21
aI1
aI8
aF0.125
aI0
aI2
aF0.0
aI4
aI4
aF1.0
aI1
aI2
aI3
aI1
aI0
aI0
aI1
aI1
aI6
aI9
aa(lp44
V0020800730
p45
aVFEB 04, 2009
p46
aVPHX @ GSW
p47
aVL
p48
aI3
aI0
aI1
aF0.0
aI0
aI0
aF0.0
aI0
aI0
aF0.0
aI0
aI1
aI1
aI0
aI1
aI0
aI0
aI0
aI0
aI6
aa(lp49
V0020800761
p50
aVFEB 09, 2009
p51
aVPHX @ PHI
p52
aVL
p53
aI21
aI4
aI10
aF0.4
aI1
aI1
aF1.0
aI0
aI0
aF0.0
aI1
aI2
aI3
aI1
aI0
aI1
aI2
aI2
aI9
aI-6
aa(lp54
V0020800774
p55
aVFEB 11, 2009
p56
aVPHX @ CLE
p57
aVL
p58
aI7
aI1
aI2
aF0.5
aI1
aI1
aF1.0
aI0
aI0
aF0.0
aI1
aI0
aI1
aI0
aI0
aI0
aI0
aI1
aI3
aI4
aa(lp59
V0020800795
p60
aVFEB 17, 2009
p61
aVPHX vs. LAC
p62
aVW
p63
aI20
aI2
aI9
aF0.222
aI0
aI2
aF0.0
aI4
aI5
aF0.8
aI2
aI0
aI2
aI1
aI1
aI0
aI3
aI0
aI8
aI2
aa(lp64
V0020800808
p65
aVFEB 18, 2009
p66
aVPHX @ LAC
p67
aVW
p68
aI5
aI0
aI1
aF0.0
aI0
aI0
aF0.0
aI0
aI0
aF0.0
aI0
aI1
aI1
aI1
aI0
aI0
aI0
aI1
aI0
aI-4
aa(lp69
V0020800829
p70
aVFEB 22, 2009
p71
aVPHX vs. BOS
p72
aVL
p73
aI2
aI0
aI0
aF0.0
aI0
aI0
aF0.0
aI0
aI0
aF0.0
aI0
aI0
aI0
aI0
aI0
aI0
aI1
aI0
aI0
aI-1
aa(lp74
V0020800862
p75
aVFEB 26, 2009
p76
aVPHX @ LAL
p77
aVL
p78
aI32
aI7
aI11
aF0.636
aI2
aI3
aF0.667
aI0
aI0
aF0.0
aI2
aI2
aI4
aI1
aI0
aI0
aI2
aI1
aI16
aI-5
aa(lp79
V0020800872
p80
aVFEB 27, 2009
p81
aVPHX vs. TOR
p82
aVW
p83
aI8
aI2
aI5
aF0.4
aI1
aI1
aF1.0
aI2
aI2
aF1.0
aI1
aI0
aI1
aI0
aI0
aI0
aI0
aI2
aI7
aI3
aa(lp84
V0020800984
p85
aVMAR 14, 2009
p86
aVPHX vs. OKC
p87
aVW
p88
aI10
aI1
aI4
aF0.25
aI0
aI1
aF0.0
aI1
aI2
aF0.5
aI1
aI0
aI1
aI0
aI0
aI0
aI0
aI2
aI3
aI3
aa(lp89
V0020800994
p90
aVMAR 15, 2009
p91
aVPHX @ GSW
p92
aVW
p93
aI14
aI2
aI3
aF0.667
aI0
aI1
aF0.0
aI0
aI0
aF0.0
aI0
aI0
aI0
aI1
aI0
aI0
aI0
aI1
aI4
aI-15
aa(lp94
V0020801018
p95
aVMAR 18, 2009
p96
aVPHX vs. PHI
p97
aVW
p98
aI6
aI1
aI3
aF0.333
aI0
aI0
aF0.0
aI2
aI3
aF0.667
aI0
aI1
aI1
aI0
aI0
aI0
aI0
aI1
aI4
aI9
aa(lp99
V0020801040
p100
aVMAR 21, 2009
p101
aVPHX vs. WAS
p102
aVW
p103
aI11
aI5
aI6
aF0.833
aI1
aI1
aF1.0
aI0
aI0
aF0.0
aI1
aI0
aI1
aI0
aI0
aI0
aI1
aI0
aI11
aI2
aa(lp104
V0020801053
p105
aVMAR 23, 2009
p106
aVPHX vs. DEN
p107
aVW
p108
aI9
aI2
aI5
aF0.4
aI0
aI0
aF0.0
aI1
aI2
aF0.5
aI0
aI0
aI0
aI1
aI1
aI0
aI0
aI0
aI5
aI6
aa(lp109
V0020801069
p110
aVMAR 25, 2009
p111
aVPHX vs. UTA
p112
aVW
p113
aI5
aI0
aI1
aF0.0
aI0
aI1
aF0.0
aI0
aI0
aF0.0
aI0
aI0
aI0
aI1
aI0
aI0
aI0
aI0
aI0
aI2
aa(lp114
V0020801072
p115
aVMAR 26, 2009
p116
aVPHX @ POR
p117
aVL
p118
aI17
aI4
aI10
aF0.4
aI1
aI3
aF0.333
aI0
aI0
aF0.0
aI3
aI0
aI3
aI0
aI1
aI0
aI0
aI0
aI9
aI1
aa(lp119
V0020801089
p120
aVMAR 28, 2009
p121
aVPHX @ UTA
p122
aVL
p123
aI5
aI0
aI1
aF0.0
aI0
aI0
aF0.0
aI0
aI0
aF0.0
aI0
aI1
aI1
aI0
aI0
aI0
aI0
aI0
aI0
aI-4
aa(lp124
V0020801099
p125
aVMAR 29, 2009
p126
aVPHX @ SAC
p127
aVL
p128
aI4
aI0
aI2
aF0.0
aI0
aI1
aF0.0
aI0
aI0
aF0.0
aI0
aI0
aI0
aI0
aI0
aI0
aI0
aI0
aI0
aI-2
aa(lp129
V0020801119
p130
aVAPR 01, 2009
p131
aVPHX vs. HOU
p132
aVW
p133
aI3
aI0
aI1
aF0.0
aI0
aI0
aF0.0
aI0
aI0
aF0.0
aI0
aI0
aI0
aI0
aI0
aI0
aI0
aI0
aI0
aI-7
aa(lp134
V0020801132
p135
aVAPR 03, 2009
p136
aVPHX vs. SAC
p137
aVW
p138
aI3
aI1
aI3
aF0.333
aI0
aI0
aF0.0
aI0
aI0
aF0.0
aI1
aI0
aI1
aI0
aI0
aI0
aI0
aI0
aI2
aI4
aa(lp139
V0020801143
p140
aVAPR 05, 2009
p141
aVPHX @ DAL
p142
aVL
p143
aI10
aI4
aI6
aF0.667
aI0
aI1
aF0.0
aI5
aI5
aF1.0
aI1
aI1
aI2
aI0
aI0
aI0
aI1
aI0
aI13
aI8
aa(lp144
V0020801181
p145
aVAPR 10, 2009
p146
aVPHX @ MEM
p147
aVL
p148
aI3
aI1
aI4
aF0.25
aI0
aI0
aF0.0
aI0
aI0
aF0.0
aI0
aI0
aI0
aI0
aI0
aI0
aI0
aI0
aI2
aI-3
aa(lp149
V0020801191
p150
aVAPR 11, 2009
p151
aVPHX @ MIN
p152
aVW
p153
aI13
aI4
aI8
aF0.5
aI0
aI1
aF0.0
aI2
aI3
aF0.667
aI2
aI0
aI2
aI2
aI0
aI0
aI0
aI0
aI10
aI-9
aasS'name'
p154
VAlando Tucker
p155
sS'experience'
p156
I1
s.