(dp0
S'age'
p1
I22
sS'stats'
p2
(lp3
(lp4
V0020800008
p5
aVOCT 29, 2008
p6
aVDET vs. IND
p7
aVW
p8
aI16
aI3
aI9
aF0.333
aI0
aI0
aF0.0
aI2
aI2
aF1.0
aI1
aI2
aI3
aI4
aI1
aI0
aI1
aI4
aI8
aI2
aa(lp9
V0020800030
p10
aVNOV 01, 2008
p11
aVDET vs. WAS
p12
aVW
p13
aI18
aI4
aI8
aF0.5
aI0
aI0
aF0.0
aI3
aI4
aF0.75
aI1
aI0
aI1
aI2
aI0
aI0
aI3
aI5
aI11
aI-6
aa(lp14
V0020800042
p15
aVNOV 03, 2008
p16
aVDET @ CHA
p17
aVW
p18
aI25
aI3
aI7
aF0.429
aI1
aI1
aF1.0
aI2
aI2
aF1.0
aI1
aI3
aI4
aI3
aI0
aI0
aI1
aI1
aI9
aI7
aa(lp19
V0020800052
p20
aVNOV 05, 2008
p21
aVDET @ TOR
p22
aVW
p23
aI32
aI6
aI14
aF0.429
aI0
aI0
aF0.0
aI2
aI3
aF0.667
aI1
aI1
aI2
aI5
aI0
aI0
aI1
aI5
aI14
aI10
aa(lp24
V0020800071
p25
aVNOV 07, 2008
p26
aVDET @ NJN
p27
aVL
p28
aI23
aI2
aI7
aF0.286
aI0
aI0
aF0.0
aI5
aI6
aF0.833
aI1
aI1
aI2
aI6
aI2
aI0
aI1
aI5
aI9
aI7
aa(lp29
V0020800088
p30
aVNOV 09, 2008
p31
aVDET vs. BOS
p32
aVL
p33
aI12
aI1
aI2
aF0.5
aI0
aI0
aF0.0
aI2
aI2
aF1.0
aI0
aI2
aI2
aI0
aI1
aI0
aI0
aI1
aI4
aI-21
aa(lp34
V0020800131
p35
aVNOV 14, 2008
p36
aVDET @ LAL
p37
aVW
p38
aI17
aI2
aI6
aF0.333
aI0
aI1
aF0.0
aI1
aI1
aF1.0
aI0
aI1
aI1
aI4
aI1
aI0
aI3
aI4
aI5
aI8
aa(lp39
V0020800144
p40
aVNOV 16, 2008
p41
aVDET @ PHX
p42
aVL
p43
aI23
aI3
aI9
aF0.333
aI0
aI0
aF0.0
aI6
aI7
aF0.857
aI2
aI2
aI4
aI1
aI2
aI1
aI4
aI4
aI12
aI-24
aa(lp44
V0020800160
p45
aVNOV 19, 2008
p46
aVDET vs. CLE
p47
aVW
p48
aI23
aI4
aI9
aF0.444
aI0
aI0
aF0.0
aI1
aI2
aF0.5
aI0
aI2
aI2
aI2
aI1
aI0
aI3
aI1
aI9
aI5
aa(lp49
V0020800169
p50
aVNOV 20, 2008
p51
aVDET @ BOS
p52
aVL
p53
aI15
aI0
aI2
aF0.0
aI0
aI1
aF0.0
aI0
aI0
aF0.0
aI0
aI1
aI1
aI2
aI0
aI0
aI5
aI3
aI0
aI-22
aa(lp54
V0020800195
p55
aVNOV 23, 2008
p56
aVDET vs. MIN
p57
aVL
p58
aI18
aI0
aI5
aF0.0
aI0
aI0
aF0.0
aI4
aI6
aF0.667
aI0
aI1
aI1
aI2
aI0
aI0
aI0
aI1
aI4
aI-16
aa(lp59
V0020800215
p60
aVNOV 26, 2008
p61
aVDET vs. NYK
p62
aVW
p63
aI24
aI6
aI13
aF0.462
aI0
aI1
aF0.0
aI1
aI2
aF0.5
aI2
aI3
aI5
aI11
aI1
aI0
aI1
aI0
aI13
aI20
aa(lp64
V0020800228
p65
aVNOV 28, 2008
p66
aVDET vs. MIL
p67
aVW
p68
aI24
aI5
aI11
aF0.455
aI1
aI1
aF1.0
aI1
aI1
aF1.0
aI1
aI1
aI2
aI5
aI4
aI0
aI1
aI1
aI12
aI-5
aa(lp69
V0020800247
p70
aVNOV 30, 2008
p71
aVDET vs. POR
p72
aVL
p73
aI26
aI5
aI12
aF0.417
aI0
aI2
aF0.0
aI5
aI7
aF0.714
aI1
aI5
aI6
aI5
aI1
aI1
aI5
aI3
aI15
aI12
aa(lp74
V0020800260
p75
aVDEC 02, 2008
p76
aVDET @ SAS
p77
aVW
p78
aI31
aI5
aI8
aF0.625
aI0
aI0
aF0.0
aI0
aI2
aF0.0
aI1
aI1
aI2
aI7
aI2
aI0
aI1
aI2
aI10
aI16
aa(lp79
V0020800282
p80
aVDEC 05, 2008
p81
aVDET vs. PHI
p82
aVL
p83
aI26
aI6
aI10
aF0.6
aI0
aI1
aF0.0
aI4
aI4
aF1.0
aI2
aI2
aI4
aI6
aI1
aI0
aI1
aI5
aI16
aI-2
aa(lp84
V0020800297
p85
aVDEC 07, 2008
p86
aVDET @ NYK
p87
aVL
p88
aI18
aI3
aI9
aF0.333
aI0
aI1
aF0.0
aI0
aI0
aF0.0
aI0
aI2
aI2
aI5
aI1
aI0
aI2
aI2
aI6
aI-4
aa(lp89
V0020800306
p90
aVDEC 09, 2008
p91
aVDET @ WAS
p92
aVL
p93
aI36
aI4
aI8
aF0.5
aI0
aI0
aF0.0
aI2
aI2
aF1.0
aI0
aI1
aI1
aI11
aI0
aI0
aI2
aI5
aI10
aI-10
aa(lp94
V0020800330
p95
aVDEC 12, 2008
p96
aVDET vs. IND
p97
aVW
p98
aI34
aI7
aI8
aF0.875
aI4
aI5
aF0.8
aI3
aI5
aF0.6
aI0
aI4
aI4
aI8
aI3
aI0
aI3
aI1
aI21
aI-2
aa(lp99
V0020800338
p100
aVDEC 13, 2008
p101
aVDET @ CHA
p102
aVW
p103
aI37
aI6
aI9
aF0.667
aI1
aI2
aF0.5
aI0
aI0
aF0.0
aI1
aI4
aI5
aI10
aI3
aI0
aI3
aI2
aI13
aI11
aa(lp104
V0020800370
p105
aVDEC 17, 2008
p106
aVDET vs. WAS
p107
aVW
p108
aI38
aI6
aI12
aF0.5
aI1
aI2
aF0.5
aI5
aI6
aF0.833
aI1
aI2
aI3
aI11
aI0
aI0
aI2
aI3
aI18
aI7
aa(lp109
V0020800383
p110
aVDEC 19, 2008
p111
aVDET vs. UTA
p112
aVL
p113
aI32
aI3
aI8
aF0.375
aI0
aI3
aF0.0
aI1
aI2
aF0.5
aI1
aI2
aI3
aI5
aI3
aI1
aI1
aI6
aI7
aI0
aa(lp114
V0020800399
p115
aVDEC 21, 2008
p116
aVDET @ ATL
p117
aVL
p118
aI36
aI9
aI12
aF0.75
aI1
aI1
aF1.0
aI1
aI3
aF0.333
aI3
aI6
aI9
aI3
aI2
aI0
aI1
aI5
aI20
aI-4
aa(lp119
V0020800415
p120
aVDEC 23, 2008
p121
aVDET vs. CHI
p122
aVW
p123
aI42
aI15
aI24
aF0.625
aI1
aI2
aF0.5
aI9
aI11
aF0.818
aI1
aI1
aI2
aI4
aI4
aI0
aI3
aI2
aI40
aI10
aa(lp124
V0020800429
p125
aVDEC 26, 2008
p126
aVDET vs. OKC
p127
aVW
p128
aI30
aI6
aI14
aF0.429
aI0
aI0
aF0.0
aI0
aI0
aF0.0
aI1
aI1
aI2
aI4
aI2
aI1
aI4
aI4
aI12
aI4
aa(lp129
V0020800441
p130
aVDEC 27, 2008
p131
aVDET @ MIL
p132
aVW
p133
aI37
aI6
aI13
aF0.462
aI0
aI1
aF0.0
aI4
aI4
aF1.0
aI1
aI5
aI6
aI6
aI0
aI0
aI1
aI3
aI16
aI8
aa(lp134
V0020800451
p135
aVDEC 29, 2008
p136
aVDET vs. ORL
p137
aVW
p138
aI41
aI7
aI19
aF0.368
aI0
aI1
aF0.0
aI5
aI6
aF0.833
aI2
aI3
aI5
aI4
aI0
aI0
aI1
aI1
aI19
aI11
aa(lp139
V0020800468
p140
aVDEC 31, 2008
p141
aVDET vs. NJN
p142
aVW
p143
aI40
aI5
aI12
aF0.417
aI0
aI1
aF0.0
aI1
aI3
aF0.333
aI0
aI5
aI5
aI4
aI1
aI1
aI5
aI2
aI11
aI3
aa(lp144
V0020800479
p145
aVJAN 02, 2009
p146
aVDET vs. SAC
p147
aVW
p148
aI43
aI15
aI29
aF0.517
aI0
aI1
aF0.0
aI8
aI10
aF0.8
aI0
aI4
aI4
aI7
aI2
aI0
aI4
aI5
aI38
aI13
aa(lp149
V0020800497
p150
aVJAN 04, 2009
p151
aVDET @ LAC
p152
aVW
p153
aI43
aI10
aI24
aF0.417
aI1
aI1
aF1.0
aI3
aI3
aF1.0
aI1
aI3
aI4
aI6
aI2
aI0
aI3
aI5
aI24
aI1
aa(lp154
V0020800524
p155
aVJAN 07, 2009
p156
aVDET @ POR
p157
aVL
p158
aI40
aI4
aI12
aF0.333
aI0
aI2
aF0.0
aI5
aI6
aF0.833
aI0
aI3
aI3
aI7
aI1
aI0
aI6
aI1
aI13
aI-2
aa(lp159
V0020800536
p160
aVJAN 09, 2009
p161
aVDET @ DEN
p162
aVW
p163
aI31
aI4
aI9
aF0.444
aI0
aI2
aF0.0
aI1
aI4
aF0.25
aI0
aI4
aI4
aI2
aI2
aI0
aI3
aI2
aI9
aI-4
aa(lp164
V0020800544
p165
aVJAN 10, 2009
p166
aVDET @ UTA
p167
aVL
p168
aI33
aI6
aI15
aF0.4
aI0
aI0
aF0.0
aI7
aI7
aF1.0
aI1
aI3
aI4
aI2
aI1
aI0
aI1
aI2
aI19
aI-21
aa(lp169
V0020800559
p170
aVJAN 13, 2009
p171
aVDET vs. CHA
p172
aVL
p173
aI38
aI8
aI11
aF0.727
aI1
aI1
aF1.0
aI5
aI8
aF0.625
aI0
aI6
aI6
aI5
aI0
aI0
aI2
aI0
aI22
aI-2
aa(lp174
V0020800566
p175
aVJAN 14, 2009
p176
aVDET @ IND
p177
aVL
p178
aI46
aI12
aI20
aF0.6
aI3
aI6
aF0.5
aI3
aI4
aF0.75
aI1
aI8
aI9
aI6
aI1
aI0
aI1
aI3
aI30
aI4
aa(lp179
V0020800585
p180
aVJAN 16, 2009
p181
aVDET @ OKC
p182
aVL
p183
aI33
aI1
aI10
aF0.1
aI1
aI3
aF0.333
aI0
aI0
aF0.0
aI0
aI3
aI3
aI3
aI1
aI0
aI1
aI3
aI3
aI-19
aa(lp184
V0020800592
p185
aVJAN 17, 2009
p186
aVDET vs. NOH
p187
aVL
p188
aI38
aI6
aI15
aF0.4
aI1
aI3
aF0.333
aI0
aI0
aF0.0
aI1
aI4
aI5
aI6
aI2
aI0
aI2
aI2
aI13
aI-5
aa(lp189
V0020800609
p190
aVJAN 19, 2009
p191
aVDET @ MEM
p192
aVW
p193
aI39
aI7
aI12
aF0.583
aI0
aI2
aF0.0
aI0
aI0
aF0.0
aI0
aI2
aI2
aI4
aI1
aI0
aI0
aI3
aI14
aI7
aa(lp194
V0020800618
p195
aVJAN 21, 2009
p196
aVDET vs. TOR
p197
aVW
p198
aI36
aI7
aI15
aF0.467
aI0
aI1
aF0.0
aI3
aI4
aF0.75
aI0
aI1
aI1
aI7
aI0
aI1
aI1
aI3
aI17
aI12
aa(lp199
V0020800631
p200
aVJAN 23, 2009
p201
aVDET vs. DAL
p202
aVL
p203
aI27
aI5
aI12
aF0.417
aI0
aI0
aF0.0
aI0
aI0
aF0.0
aI0
aI0
aI0
aI3
aI0
aI0
aI5
aI3
aI10
aI-20
aa(lp204
V0020800650
p205
aVJAN 25, 2009
p206
aVDET vs. HOU
p207
aVL
p208
aI31
aI7
aI12
aF0.583
aI0
aI0
aF0.0
aI0
aI0
aF0.0
aI1
aI4
aI5
aI8
aI0
aI0
aI1
aI4
aI14
aI0
aa(lp209
V0020800672
p210
aVJAN 28, 2009
p211
aVDET @ MIN
p212
aVW
p213
aI39
aI4
aI10
aF0.4
aI0
aI1
aF0.0
aI6
aI7
aF0.857
aI2
aI3
aI5
aI6
aI0
aI1
aI2
aI3
aI14
aI5
aa(lp214
V0020800681
p215
aVJAN 30, 2009
p216
aVDET vs. BOS
p217
aVL
p218
aI37
aI7
aI11
aF0.636
aI0
aI1
aF0.0
aI5
aI6
aF0.833
aI2
aI1
aI3
aI4
aI0
aI0
aI2
aI4
aI19
aI-11
aa(lp219
V0020800704
p220
aVFEB 01, 2009
p221
aVDET vs. CLE
p222
aVL
p223
aI30
aI2
aI9
aF0.222
aI0
aI0
aF0.0
aI2
aI4
aF0.5
aI0
aI2
aI2
aI8
aI0
aI0
aI2
aI3
aI6
aI8
aa(lp224
V0020800723
p225
aVFEB 04, 2009
p226
aVDET vs. MIA
p227
aVW
p228
aI39
aI8
aI15
aF0.533
aI0
aI0
aF0.0
aI2
aI2
aF1.0
aI2
aI4
aI6
aI6
aI1
aI0
aI2
aI1
aI18
aI8
aa(lp229
V0020800749
p230
aVFEB 07, 2009
p231
aVDET @ MIL
p232
aVW
p233
aI27
aI1
aI10
aF0.1
aI0
aI0
aF0.0
aI4
aI4
aF1.0
aI1
aI4
aI5
aI4
aI0
aI0
aI3
aI5
aI6
aI-11
aa(lp234
V0020800758
p235
aVFEB 08, 2009
p236
aVDET vs. PHX
p237
aVL
p238
aI29
aI4
aI8
aF0.5
aI0
aI0
aF0.0
aI0
aI0
aF0.0
aI1
aI2
aI3
aI1
aI0
aI1
aI0
aI2
aI8
aI-4
aa(lp239
V0020800769
p240
aVFEB 10, 2009
p241
aVDET @ CHI
p242
aVL
p243
aI41
aI6
aI16
aF0.375
aI0
aI0
aF0.0
aI4
aI4
aF1.0
aI0
aI4
aI4
aI5
aI2
aI0
aI4
aI5
aI16
aI-8
aa(lp244
V0020800778
p245
aVFEB 11, 2009
p246
aVDET vs. ATL
p247
aVL
p248
aI31
aI5
aI11
aF0.455
aI1
aI1
aF1.0
aI1
aI2
aF0.5
aI1
aI0
aI1
aI1
aI0
aI0
aI2
aI4
aI12
aI-6
aa(lp249
V0020800791
p250
aVFEB 17, 2009
p251
aVDET vs. MIL
p252
aVL
p253
aI31
aI1
aI6
aF0.167
aI0
aI2
aF0.0
aI1
aI2
aF0.5
aI0
aI3
aI3
aI1
aI0
aI0
aI2
aI6
aI3
aI0
aa(lp254
V0020800809
p255
aVFEB 19, 2009
p256
aVDET vs. SAS
p257
aVL
p258
aI29
aI1
aI3
aF0.333
aI0
aI0
aF0.0
aI0
aI0
aF0.0
aI0
aI3
aI3
aI8
aI1
aI0
aI0
aI2
aI2
aI0
aa(lp259
V0020800835
p260
aVFEB 22, 2009
p261
aVDET @ CLE
p262
aVL
p263
aI28
aI3
aI9
aF0.333
aI0
aI0
aF0.0
aI2
aI2
aF1.0
aI1
aI2
aI3
aI3
aI0
aI0
aI3
aI1
aI8
aI-20
aa(lp264
V0020800844
p265
aVFEB 24, 2009
p266
aVDET @ MIA
p267
aVL
p268
aI31
aI3
aI6
aF0.5
aI0
aI0
aF0.0
aI2
aI3
aF0.667
aI0
aI0
aI0
aI0
aI0
aI0
aI2
aI3
aI8
aI-17
aa(lp269
V0020800855
p270
aVFEB 25, 2009
p271
aVDET @ NOH
p272
aVL
p273
aI33
aI2
aI8
aF0.25
aI0
aI0
aF0.0
aI2
aI2
aF1.0
aI1
aI2
aI3
aI5
aI1
aI0
aI1
aI6
aI6
aI-5
aa(lp274
V0020800864
p275
aVFEB 27, 2009
p276
aVDET @ ORL
p277
aVW
p278
aI41
aI9
aI15
aF0.6
aI0
aI0
aF0.0
aI4
aI5
aF0.8
aI2
aI2
aI4
aI1
aI1
aI0
aI4
aI2
aI22
aI15
aa(lp279
V0020800883
p280
aVMAR 01, 2009
p281
aVDET @ BOS
p282
aVW
p283
aI36
aI4
aI8
aF0.5
aI0
aI1
aF0.0
aI2
aI5
aF0.4
aI0
aI3
aI3
aI5
aI1
aI0
aI1
aI3
aI10
aI14
aa(lp284
V0020800899
p285
aVMAR 03, 2009
p286
aVDET vs. DEN
p287
aVW
p288
aI34
aI4
aI8
aF0.5
aI0
aI0
aF0.0
aI9
aI10
aF0.9
aI2
aI2
aI4
aI4
aI1
aI1
aI3
aI2
aI17
aI9
aa(lp289
V0020800921
p290
aVMAR 06, 2009
p291
aVDET vs. GSW
p292
aVW
p293
aI36
aI6
aI12
aF0.5
aI0
aI0
aF0.0
aI2
aI4
aF0.5
aI0
aI2
aI2
aI8
aI3
aI0
aI3
aI2
aI14
aI10
aa(lp294
V0020800927
p295
aVMAR 07, 2009
p296
aVDET @ ATL
p297
aVL
p298
aI37
aI7
aI14
aF0.5
aI0
aI1
aF0.0
aI5
aI6
aF0.833
aI2
aI6
aI8
aI6
aI1
aI1
aI4
aI2
aI19
aI6
aa(lp299
V0020800944
p300
aVMAR 09, 2009
p301
aVDET vs. ORL
p302
aVW
p303
aI34
aI4
aI12
aF0.333
aI0
aI0
aF0.0
aI2
aI2
aF1.0
aI3
aI0
aI3
aI5
aI1
aI0
aI3
aI3
aI10
aI5
aa(lp304
V0020800959
p305
aVMAR 11, 2009
p306
aVDET vs. NYK
p307
aVL
p308
aI41
aI9
aI20
aF0.45
aI0
aI1
aF0.0
aI5
aI5
aF1.0
aI3
aI5
aI8
aI8
aI1
aI0
aI3
aI5
aI23
aI1
aa(lp309
V0020800970
p310
aVMAR 13, 2009
p311
aVDET @ TOR
p312
aVW
p313
aI41
aI7
aI12
aF0.583
aI0
aI0
aF0.0
aI3
aI4
aF0.75
aI1
aI4
aI5
aI4
aI0
aI0
aI3
aI2
aI17
aI8
aa(lp314
V0020800987
p315
aVMAR 15, 2009
p316
aVDET vs. MEM
p317
aVL
p318
aI28
aI1
aI7
aF0.143
aI0
aI0
aF0.0
aI0
aI0
aF0.0
aI1
aI0
aI1
aI6
aI0
aI0
aI4
aI1
aI2
aI-17
aa(lp319
V0020801004
p320
aVMAR 17, 2009
p321
aVDET @ DAL
p322
aVL
p323
aI36
aI5
aI19
aF0.263
aI0
aI1
aF0.0
aI7
aI7
aF1.0
aI0
aI3
aI3
aI7
aI1
aI0
aI0
aI1
aI17
aI-2
aa(lp324
V0020801017
p325
aVMAR 18, 2009
p326
aVDET @ HOU
p327
aVL
p328
aI50
aI8
aI25
aF0.32
aI0
aI0
aF0.0
aI5
aI7
aF0.714
aI0
aI5
aI5
aI10
aI1
aI0
aI2
aI3
aI21
aI-6
aa(lp329
V0020801041
p330
aVMAR 22, 2009
p331
aVDET vs. MIA
p332
aVL
p333
aI38
aI9
aI18
aF0.5
aI0
aI0
aF0.0
aI6
aI6
aF1.0
aI0
aI1
aI1
aI3
aI1
aI0
aI4
aI4
aI24
aI4
aa(lp334
V0020801055
p335
aVMAR 24, 2009
p336
aVDET @ CHI
p337
aVL
p338
aI38
aI5
aI14
aF0.357
aI0
aI0
aF0.0
aI4
aI4
aF1.0
aI1
aI4
aI5
aI3
aI1
aI1
aI0
aI1
aI14
aI-5
aa(lp339
V0020801070
p340
aVMAR 26, 2009
p341
aVDET vs. LAL
p342
aVL
p343
aI27
aI2
aI8
aF0.25
aI0
aI0
aF0.0
aI1
aI2
aF0.5
aI0
aI2
aI2
aI3
aI2
aI0
aI4
aI3
aI5
aI-31
aa(lp344
V0020801085
p345
aVMAR 28, 2009
p346
aVDET @ WAS
p347
aVW
p348
aI31
aI5
aI9
aF0.556
aI0
aI0
aF0.0
aI3
aI4
aF0.75
aI1
aI4
aI5
aI6
aI0
aI0
aI2
aI2
aI13
aI6
aa(lp349
V0020801095
p350
aVMAR 29, 2009
p351
aVDET vs. PHI
p352
aVW
p353
aI26
aI7
aI13
aF0.538
aI0
aI1
aF0.0
aI2
aI2
aF1.0
aI1
aI2
aI3
aI5
aI3
aI0
aI0
aI1
aI16
aI-5
aa(lp354
V0020801105
p355
aVMAR 31, 2009
p356
aVDET @ CLE
p357
aVL
p358
aI27
aI3
aI14
aF0.214
aI0
aI3
aF0.0
aI0
aI0
aF0.0
aI3
aI4
aI7
aI1
aI1
aI0
aI2
aI0
aI6
aI-9
aa(lp359
V0020801115
p360
aVAPR 01, 2009
p361
aVDET @ NJN
p362
aVL
p363
aI32
aI6
aI13
aF0.462
aI1
aI3
aF0.333
aI3
aI4
aF0.75
aI2
aI5
aI7
aI6
aI0
aI0
aI3
aI3
aI16
aI-11
aa(lp364
V0020801137
p365
aVAPR 04, 2009
p366
aVDET @ PHI
p367
aVL
p368
aI32
aI6
aI14
aF0.429
aI3
aI5
aF0.6
aI8
aI8
aF1.0
aI2
aI1
aI3
aI4
aI2
aI0
aI2
aI4
aI23
aI-3
aa(lp369
V0020801144
p370
aVAPR 05, 2009
p371
aVDET vs. CHA
p372
aVW
p373
aI22
aI2
aI6
aF0.333
aI0
aI0
aF0.0
aI4
aI5
aF0.8
aI0
aI2
aI2
aI0
aI0
aI0
aI2
aI1
aI8
aI-5
aa(lp374
V0020801166
p375
aVAPR 08, 2009
p376
aVDET @ NYK
p377
aVW
p378
aI28
aI6
aI10
aF0.6
aI1
aI2
aF0.5
aI1
aI1
aF1.0
aI0
aI1
aI1
aI7
aI1
aI0
aI2
aI3
aI14
aI21
aa(lp379
V0020801180
p380
aVAPR 10, 2009
p381
aVDET vs. NJN
p382
aVW
p383
aI28
aI3
aI8
aF0.375
aI0
aI2
aF0.0
aI4
aI4
aF1.0
aI1
aI1
aI2
aI8
aI0
aI0
aI2
aI3
aI10
aI-3
aa(lp384
V0020801189
p385
aVAPR 11, 2009
p386
aVDET @ IND
p387
aVL
p388
aI28
aI2
aI9
aF0.222
aI0
aI1
aF0.0
aI6
aI6
aF1.0
aI1
aI1
aI2
aI5
aI1
aI0
aI2
aI0
aI10
aI-1
aa(lp389
V0020801204
p390
aVAPR 13, 2009
p391
aVDET vs. CHI
p392
aVL
p393
aI37
aI6
aI15
aF0.4
aI0
aI3
aF0.0
aI4
aI5
aF0.8
aI1
aI6
aI7
aI9
aI1
aI0
aI1
aI3
aI16
aI1
aa(lp394
V0020801223
p395
aVAPR 15, 2009
p396
aVDET @ MIA
p397
aVL
p398
aI35
aI4
aI12
aF0.333
aI0
aI0
aF0.0
aI7
aI7
aF1.0
aI1
aI1
aI2
aI5
aI0
aI0
aI3
aI1
aI15
aI-3
aasS'name'
p399
VRodney Stuckey
p400
sS'experience'
p401
I1
s.