(dp0
S'age'
p1
I23
sS'stats'
p2
(lp3
(lp4
V0020800008
p5
aVOCT 29, 2008
p6
aVDET vs. IND
p7
aVW
p8
aI14
aI2
aI3
aF0.667
aI1
aI1
aF1.0
aI0
aI0
aF0.0
aI0
aI0
aI0
aI0
aI3
aI0
aI1
aI3
aI5
aI-1
aa(lp9
V0020800030
p10
aVNOV 01, 2008
p11
aVDET vs. WAS
p12
aVW
p13
aI4
aI1
aI2
aF0.5
aI0
aI0
aF0.0
aI1
aI2
aF0.5
aI0
aI0
aI0
aI0
aI0
aI0
aI0
aI1
aI3
aI2
aa(lp14
V0020800042
p15
aVNOV 03, 2008
p16
aVDET @ CHA
p17
aVW
p18
aI18
aI1
aI6
aF0.167
aI0
aI1
aF0.0
aI0
aI0
aF0.0
aI0
aI2
aI2
aI2
aI1
aI0
aI1
aI3
aI2
aI4
aa(lp19
V0020800052
p20
aVNOV 05, 2008
p21
aVDET @ TOR
p22
aVW
p23
aI7
aI1
aI3
aF0.333
aI0
aI0
aF0.0
aI0
aI0
aF0.0
aI0
aI0
aI0
aI1
aI0
aI0
aI0
aI1
aI2
aI8
aa(lp24
V0020800071
p25
aVNOV 07, 2008
p26
aVDET @ NJN
p27
aVL
p28
aI7
aI2
aI4
aF0.5
aI0
aI1
aF0.0
aI0
aI0
aF0.0
aI0
aI2
aI2
aI1
aI0
aI0
aI0
aI1
aI4
aI2
aa(lp29
V0020800088
p30
aVNOV 09, 2008
p31
aVDET vs. BOS
p32
aVL
p33
aI12
aI2
aI3
aF0.667
aI0
aI0
aF0.0
aI0
aI0
aF0.0
aI0
aI1
aI1
aI1
aI0
aI1
aI1
aI1
aI4
aI8
aa(lp34
V0020800104
p35
aVNOV 11, 2008
p36
aVDET @ SAC
p37
aVW
p38
aI18
aI3
aI5
aF0.6
aI0
aI2
aF0.0
aI0
aI0
aF0.0
aI1
aI3
aI4
aI0
aI0
aI1
aI1
aI1
aI6
aI14
aa(lp39
V0020800119
p40
aVNOV 13, 2008
p41
aVDET @ GSW
p42
aVW
p43
aI28
aI4
aI8
aF0.5
aI1
aI2
aF0.5
aI2
aI2
aF1.0
aI2
aI0
aI2
aI1
aI1
aI0
aI0
aI4
aI11
aI9
aa(lp44
V0020800131
p45
aVNOV 14, 2008
p46
aVDET @ LAL
p47
aVW
p48
aI26
aI2
aI2
aF1.0
aI1
aI1
aF1.0
aI2
aI4
aF0.5
aI0
aI3
aI3
aI2
aI0
aI1
aI1
aI1
aI7
aI8
aa(lp49
V0020800144
p50
aVNOV 16, 2008
p51
aVDET @ PHX
p52
aVL
p53
aI12
aI0
aI1
aF0.0
aI0
aI0
aF0.0
aI1
aI2
aF0.5
aI0
aI1
aI1
aI0
aI0
aI0
aI0
aI2
aI1
aI0
aa(lp54
V0020800160
p55
aVNOV 19, 2008
p56
aVDET vs. CLE
p57
aVW
p58
aI14
aI2
aI3
aF0.667
aI1
aI1
aF1.0
aI0
aI0
aF0.0
aI0
aI1
aI1
aI1
aI0
aI0
aI0
aI2
aI5
aI12
aa(lp59
V0020800169
p60
aVNOV 20, 2008
p61
aVDET @ BOS
p62
aVL
p63
aI18
aI0
aI2
aF0.0
aI0
aI2
aF0.0
aI0
aI0
aF0.0
aI0
aI3
aI3
aI1
aI0
aI0
aI0
aI0
aI0
aI-8
aa(lp64
V0020800195
p65
aVNOV 23, 2008
p66
aVDET vs. MIN
p67
aVL
p68
aI16
aI1
aI4
aF0.25
aI1
aI2
aF0.5
aI0
aI0
aF0.0
aI0
aI1
aI1
aI1
aI0
aI0
aI2
aI2
aI3
aI-18
aa(lp69
V0020800215
p70
aVNOV 26, 2008
p71
aVDET vs. NYK
p72
aVW
p73
aI21
aI5
aI5
aF1.0
aI3
aI3
aF1.0
aI0
aI0
aF0.0
aI0
aI5
aI5
aI0
aI0
aI0
aI1
aI1
aI13
aI1
aa(lp74
V0020800228
p75
aVNOV 28, 2008
p76
aVDET vs. MIL
p77
aVW
p78
aI21
aI4
aI6
aF0.667
aI0
aI1
aF0.0
aI1
aI1
aF1.0
aI0
aI5
aI5
aI0
aI0
aI0
aI3
aI0
aI9
aI13
aa(lp79
V0020800247
p80
aVNOV 30, 2008
p81
aVDET vs. POR
p82
aVL
p83
aI20
aI0
aI2
aF0.0
aI0
aI0
aF0.0
aI2
aI2
aF1.0
aI1
aI1
aI2
aI1
aI0
aI1
aI0
aI3
aI2
aI7
aa(lp84
V0020800260
p85
aVDEC 02, 2008
p86
aVDET @ SAS
p87
aVW
p88
aI18
aI1
aI2
aF0.5
aI0
aI0
aF0.0
aI0
aI0
aF0.0
aI0
aI1
aI1
aI0
aI3
aI1
aI1
aI3
aI2
aI12
aa(lp89
V0020800282
p90
aVDEC 05, 2008
p91
aVDET vs. PHI
p92
aVL
p93
aI18
aI0
aI1
aF0.0
aI0
aI1
aF0.0
aI1
aI2
aF0.5
aI0
aI4
aI4
aI1
aI0
aI0
aI0
aI3
aI1
aI-16
aa(lp94
V0020800297
p95
aVDEC 07, 2008
p96
aVDET @ NYK
p97
aVL
p98
aI26
aI7
aI10
aF0.7
aI1
aI2
aF0.5
aI2
aI2
aF1.0
aI0
aI1
aI1
aI2
aI2
aI0
aI0
aI2
aI17
aI2
aa(lp99
V0020800306
p100
aVDEC 09, 2008
p101
aVDET @ WAS
p102
aVL
p103
aI18
aI0
aI2
aF0.0
aI0
aI1
aF0.0
aI0
aI0
aF0.0
aI0
aI0
aI0
aI2
aI0
aI0
aI0
aI3
aI0
aI-3
aa(lp104
V0020800330
p105
aVDEC 12, 2008
p106
aVDET vs. IND
p107
aVW
p108
aI9
aI0
aI0
aF0.0
aI0
aI0
aF0.0
aI3
aI3
aF1.0
aI0
aI0
aI0
aI0
aI0
aI1
aI0
aI4
aI3
aI-1
aa(lp109
V0020800338
p110
aVDEC 13, 2008
p111
aVDET @ CHA
p112
aVW
p113
aI21
aI3
aI5
aF0.6
aI1
aI3
aF0.333
aI1
aI1
aF1.0
aI0
aI0
aI0
aI0
aI0
aI0
aI1
aI0
aI8
aI-14
aa(lp114
V0020800370
p115
aVDEC 17, 2008
p116
aVDET vs. WAS
p117
aVW
p118
aI9
aI1
aI2
aF0.5
aI0
aI1
aF0.0
aI0
aI0
aF0.0
aI0
aI1
aI1
aI0
aI1
aI0
aI0
aI4
aI2
aI-1
aa(lp119
V0020800383
p120
aVDEC 19, 2008
p121
aVDET vs. UTA
p122
aVL
p123
aI18
aI1
aI2
aF0.5
aI0
aI0
aF0.0
aI0
aI0
aF0.0
aI0
aI5
aI5
aI0
aI0
aI0
aI1
aI3
aI2
aI-5
aa(lp124
V0020800399
p125
aVDEC 21, 2008
p126
aVDET @ ATL
p127
aVL
p128
aI5
aI1
aI1
aF1.0
aI0
aI0
aF0.0
aI0
aI0
aF0.0
aI0
aI0
aI0
aI0
aI0
aI0
aI0
aI0
aI2
aI-11
aa(lp129
V0020800415
p130
aVDEC 23, 2008
p131
aVDET vs. CHI
p132
aVW
p133
aI30
aI2
aI6
aF0.333
aI2
aI4
aF0.5
aI0
aI0
aF0.0
aI1
aI2
aI3
aI2
aI1
aI0
aI0
aI4
aI6
aI3
aa(lp134
V0020800429
p135
aVDEC 26, 2008
p136
aVDET vs. OKC
p137
aVW
p138
aI22
aI2
aI5
aF0.4
aI0
aI1
aF0.0
aI2
aI2
aF1.0
aI1
aI1
aI2
aI1
aI1
aI0
aI1
aI1
aI6
aI2
aa(lp139
V0020800441
p140
aVDEC 27, 2008
p141
aVDET @ MIL
p142
aVW
p143
aI24
aI1
aI8
aF0.125
aI0
aI1
aF0.0
aI1
aI2
aF0.5
aI3
aI2
aI5
aI0
aI1
aI0
aI0
aI3
aI3
aI-6
aa(lp144
V0020800451
p145
aVDEC 29, 2008
p146
aVDET vs. ORL
p147
aVW
p148
aI21
aI1
aI3
aF0.333
aI1
aI1
aF1.0
aI2
aI4
aF0.5
aI1
aI3
aI4
aI0
aI1
aI0
aI0
aI2
aI5
aI5
aa(lp149
V0020800468
p150
aVDEC 31, 2008
p151
aVDET vs. NJN
p152
aVW
p153
aI30
aI4
aI10
aF0.4
aI2
aI5
aF0.4
aI0
aI0
aF0.0
aI1
aI2
aI3
aI2
aI1
aI0
aI1
aI5
aI10
aI9
aa(lp154
V0020800479
p155
aVJAN 02, 2009
p156
aVDET vs. SAC
p157
aVW
p158
aI28
aI0
aI4
aF0.0
aI0
aI2
aF0.0
aI0
aI0
aF0.0
aI2
aI1
aI3
aI0
aI1
aI1
aI2
aI4
aI0
aI-16
aa(lp159
V0020800497
p160
aVJAN 04, 2009
p161
aVDET @ LAC
p162
aVW
p163
aI27
aI4
aI9
aF0.444
aI1
aI4
aF0.25
aI1
aI1
aF1.0
aI0
aI1
aI1
aI0
aI0
aI0
aI0
aI3
aI10
aI1
aa(lp164
V0020800524
p165
aVJAN 07, 2009
p166
aVDET @ POR
p167
aVL
p168
aI12
aI2
aI3
aF0.667
aI1
aI1
aF1.0
aI0
aI1
aF0.0
aI0
aI1
aI1
aI0
aI0
aI0
aI1
aI1
aI5
aI0
aa(lp169
V0020800536
p170
aVJAN 09, 2009
p171
aVDET @ DEN
p172
aVW
p173
aI21
aI4
aI9
aF0.444
aI1
aI5
aF0.2
aI8
aI8
aF1.0
aI2
aI0
aI2
aI0
aI0
aI1
aI1
aI3
aI17
aI11
aa(lp174
V0020800544
p175
aVJAN 10, 2009
p176
aVDET @ UTA
p177
aVL
p178
aI22
aI2
aI5
aF0.4
aI1
aI2
aF0.5
aI4
aI4
aF1.0
aI0
aI3
aI3
aI1
aI0
aI0
aI3
aI2
aI9
aI-16
aa(lp179
V0020800559
p180
aVJAN 13, 2009
p181
aVDET vs. CHA
p182
aVL
p183
aI7
aI0
aI4
aF0.0
aI0
aI2
aF0.0
aI0
aI0
aF0.0
aI0
aI1
aI1
aI1
aI0
aI0
aI0
aI1
aI0
aI-4
aa(lp184
V0020800566
p185
aVJAN 14, 2009
p186
aVDET @ IND
p187
aVL
p188
aI15
aI4
aI6
aF0.667
aI2
aI3
aF0.667
aI0
aI0
aF0.0
aI1
aI0
aI1
aI0
aI0
aI0
aI2
aI6
aI10
aI-3
aa(lp189
V0020800585
p190
aVJAN 16, 2009
p191
aVDET @ OKC
p192
aVL
p193
aI16
aI1
aI2
aF0.5
aI0
aI0
aF0.0
aI0
aI0
aF0.0
aI0
aI2
aI2
aI2
aI0
aI0
aI0
aI1
aI2
aI2
aa(lp194
V0020800592
p195
aVJAN 17, 2009
p196
aVDET vs. NOH
p197
aVL
p198
aI7
aI0
aI1
aF0.0
aI0
aI1
aF0.0
aI0
aI0
aF0.0
aI0
aI0
aI0
aI0
aI0
aI0
aI0
aI0
aI0
aI1
aa(lp199
V0020800609
p200
aVJAN 19, 2009
p201
aVDET @ MEM
p202
aVW
p203
aI4
aI0
aI1
aF0.0
aI0
aI0
aF0.0
aI0
aI0
aF0.0
aI0
aI0
aI0
aI0
aI0
aI0
aI0
aI0
aI0
aI-2
aa(lp204
V0020800618
p205
aVJAN 21, 2009
p206
aVDET vs. TOR
p207
aVW
p208
aI7
aI1
aI4
aF0.25
aI0
aI1
aF0.0
aI0
aI0
aF0.0
aI0
aI0
aI0
aI0
aI0
aI0
aI1
aI2
aI2
aI3
aa(lp209
V0020800631
p210
aVJAN 23, 2009
p211
aVDET vs. DAL
p212
aVL
p213
aI18
aI3
aI5
aF0.6
aI1
aI1
aF1.0
aI1
aI1
aF1.0
aI2
aI1
aI3
aI0
aI0
aI1
aI0
aI2
aI8
aI-5
aa(lp214
V0020800650
p215
aVJAN 25, 2009
p216
aVDET vs. HOU
p217
aVL
p218
aI17
aI1
aI3
aF0.333
aI0
aI1
aF0.0
aI1
aI1
aF1.0
aI0
aI2
aI2
aI0
aI0
aI1
aI0
aI3
aI3
aI12
aa(lp219
V0020800672
p220
aVJAN 28, 2009
p221
aVDET @ MIN
p222
aVW
p223
aI6
aI0
aI0
aF0.0
aI0
aI0
aF0.0
aI0
aI0
aF0.0
aI0
aI0
aI0
aI1
aI0
aI0
aI0
aI1
aI0
aI0
aa(lp224
V0020800704
p225
aVFEB 01, 2009
p226
aVDET vs. CLE
p227
aVL
p228
aI6
aI0
aI0
aF0.0
aI0
aI0
aF0.0
aI0
aI0
aF0.0
aI0
aI1
aI1
aI0
aI0
aI0
aI0
aI0
aI0
aI-8
aa(lp229
V0020800723
p230
aVFEB 04, 2009
p231
aVDET vs. MIA
p232
aVW
p233
aI12
aI3
aI7
aF0.429
aI0
aI0
aF0.0
aI2
aI3
aF0.667
aI1
aI0
aI1
aI0
aI0
aI0
aI1
aI1
aI8
aI2
aa(lp234
V0020800749
p235
aVFEB 07, 2009
p236
aVDET @ MIL
p237
aVW
p238
aI12
aI0
aI1
aF0.0
aI0
aI1
aF0.0
aI0
aI0
aF0.0
aI0
aI1
aI1
aI0
aI0
aI0
aI0
aI2
aI0
aI-5
aa(lp239
V0020800758
p240
aVFEB 08, 2009
p241
aVDET vs. PHX
p242
aVL
p243
aI8
aI0
aI6
aF0.0
aI0
aI2
aF0.0
aI2
aI2
aF1.0
aI2
aI0
aI2
aI0
aI1
aI0
aI0
aI3
aI2
aI-4
aa(lp244
V0020800769
p245
aVFEB 10, 2009
p246
aVDET @ CHI
p247
aVL
p248
aI16
aI2
aI5
aF0.4
aI0
aI0
aF0.0
aI0
aI0
aF0.0
aI1
aI1
aI2
aI0
aI0
aI0
aI1
aI2
aI4
aI-11
aa(lp249
V0020800778
p250
aVFEB 11, 2009
p251
aVDET vs. ATL
p252
aVL
p253
aI11
aI0
aI1
aF0.0
aI0
aI0
aF0.0
aI0
aI0
aF0.0
aI0
aI4
aI4
aI0
aI0
aI0
aI0
aI3
aI0
aI-3
aa(lp254
V0020800791
p255
aVFEB 17, 2009
p256
aVDET vs. MIL
p257
aVL
p258
aI7
aI2
aI3
aF0.667
aI1
aI2
aF0.5
aI0
aI0
aF0.0
aI0
aI2
aI2
aI0
aI0
aI0
aI0
aI2
aI5
aI-7
aa(lp259
V0020800835
p260
aVFEB 22, 2009
p261
aVDET @ CLE
p262
aVL
p263
aI9
aI1
aI2
aF0.5
aI0
aI0
aF0.0
aI0
aI0
aF0.0
aI0
aI1
aI1
aI0
aI0
aI0
aI2
aI1
aI2
aI-8
aa(lp264
V0020800864
p265
aVFEB 27, 2009
p266
aVDET @ ORL
p267
aVW
p268
aI4
aI0
aI0
aF0.0
aI0
aI0
aF0.0
aI0
aI0
aF0.0
aI0
aI0
aI0
aI0
aI0
aI0
aI0
aI0
aI0
aI0
aa(lp269
V0020800883
p270
aVMAR 01, 2009
p271
aVDET @ BOS
p272
aVW
p273
aI1
aI0
aI0
aF0.0
aI0
aI0
aF0.0
aI0
aI0
aF0.0
aI0
aI0
aI0
aI0
aI0
aI0
aI0
aI0
aI0
aI2
aa(lp274
V0020800921
p275
aVMAR 06, 2009
p276
aVDET vs. GSW
p277
aVW
p278
aI18
aI4
aI7
aF0.571
aI1
aI1
aF1.0
aI0
aI0
aF0.0
aI2
aI1
aI3
aI1
aI0
aI0
aI0
aI3
aI9
aI2
aa(lp279
V0020800927
p280
aVMAR 07, 2009
p281
aVDET @ ATL
p282
aVL
p283
aI15
aI1
aI2
aF0.5
aI1
aI1
aF1.0
aI0
aI0
aF0.0
aI0
aI0
aI0
aI1
aI0
aI0
aI0
aI2
aI3
aI1
aa(lp284
V0020800959
p285
aVMAR 11, 2009
p286
aVDET vs. NYK
p287
aVL
p288
aI0
aI0
aI0
aF0.0
aI0
aI0
aF0.0
aI0
aI0
aF0.0
aI0
aI0
aI0
aI0
aI0
aI0
aI0
aI0
aI0
aI-3
aa(lp289
V0020800970
p290
aVMAR 13, 2009
p291
aVDET @ TOR
p292
aVW
p293
aI23
aI3
aI6
aF0.5
aI2
aI4
aF0.5
aI0
aI0
aF0.0
aI0
aI3
aI3
aI1
aI0
aI0
aI0
aI3
aI8
aI-2
aa(lp294
V0020800987
p295
aVMAR 15, 2009
p296
aVDET vs. MEM
p297
aVL
p298
aI9
aI0
aI1
aF0.0
aI0
aI0
aF0.0
aI0
aI0
aF0.0
aI0
aI1
aI1
aI0
aI1
aI0
aI1
aI2
aI0
aI1
aa(lp299
V0020801004
p300
aVMAR 17, 2009
p301
aVDET @ DAL
p302
aVL
p303
aI39
aI6
aI12
aF0.5
aI4
aI7
aF0.571
aI0
aI0
aF0.0
aI0
aI6
aI6
aI2
aI1
aI0
aI2
aI2
aI16
aI-2
aa(lp304
V0020801017
p305
aVMAR 18, 2009
p306
aVDET @ HOU
p307
aVL
p308
aI45
aI7
aI13
aF0.538
aI4
aI6
aF0.667
aI6
aI6
aF1.0
aI1
aI1
aI2
aI0
aI1
aI0
aI1
aI3
aI24
aI3
aa(lp309
V0020801027
p310
aVMAR 20, 2009
p311
aVDET vs. LAC
p312
aVW
p313
aI35
aI1
aI6
aF0.167
aI1
aI4
aF0.25
aI1
aI1
aF1.0
aI1
aI1
aI2
aI5
aI0
aI0
aI1
aI4
aI4
aI0
aa(lp314
V0020801041
p315
aVMAR 22, 2009
p316
aVDET vs. MIA
p317
aVL
p318
aI30
aI4
aI10
aF0.4
aI1
aI5
aF0.2
aI4
aI4
aF1.0
aI0
aI2
aI2
aI2
aI2
aI1
aI2
aI4
aI13
aI0
aa(lp319
V0020801055
p320
aVMAR 24, 2009
p321
aVDET @ CHI
p322
aVL
p323
aI21
aI1
aI7
aF0.143
aI0
aI2
aF0.0
aI0
aI0
aF0.0
aI1
aI2
aI3
aI0
aI0
aI1
aI1
aI3
aI2
aI-10
aa(lp324
V0020801070
p325
aVMAR 26, 2009
p326
aVDET vs. LAL
p327
aVL
p328
aI31
aI2
aI8
aF0.25
aI0
aI2
aF0.0
aI2
aI2
aF1.0
aI0
aI1
aI1
aI0
aI0
aI0
aI1
aI4
aI6
aI-4
aa(lp329
V0020801085
p330
aVMAR 28, 2009
p331
aVDET @ WAS
p332
aVW
p333
aI10
aI0
aI2
aF0.0
aI0
aI1
aF0.0
aI2
aI2
aF1.0
aI0
aI1
aI1
aI0
aI0
aI0
aI0
aI1
aI2
aI-12
aa(lp334
V0020801115
p335
aVAPR 01, 2009
p336
aVDET @ NJN
p337
aVL
p338
aI3
aI0
aI0
aF0.0
aI0
aI0
aF0.0
aI0
aI0
aF0.0
aI0
aI2
aI2
aI0
aI1
aI0
aI0
aI0
aI0
aI4
aa(lp339
V0020801137
p340
aVAPR 04, 2009
p341
aVDET @ PHI
p342
aVL
p343
aI8
aI0
aI1
aF0.0
aI0
aI1
aF0.0
aI2
aI2
aF1.0
aI1
aI0
aI1
aI1
aI0
aI0
aI0
aI1
aI2
aI-9
aa(lp344
V0020801144
p345
aVAPR 05, 2009
p346
aVDET vs. CHA
p347
aVW
p348
aI25
aI4
aI4
aF1.0
aI3
aI3
aF1.0
aI1
aI2
aF0.5
aI0
aI2
aI2
aI0
aI1
aI0
aI1
aI3
aI12
aI18
aa(lp349
V0020801166
p350
aVAPR 08, 2009
p351
aVDET @ NYK
p352
aVW
p353
aI15
aI1
aI1
aF1.0
aI0
aI0
aF0.0
aI0
aI0
aF0.0
aI0
aI3
aI3
aI0
aI0
aI0
aI1
aI0
aI2
aI-3
aa(lp354
V0020801180
p355
aVAPR 10, 2009
p356
aVDET vs. NJN
p357
aVW
p358
aI16
aI3
aI3
aF1.0
aI0
aI0
aF0.0
aI0
aI0
aF0.0
aI0
aI2
aI2
aI0
aI0
aI1
aI0
aI0
aI6
aI3
aa(lp359
V0020801189
p360
aVAPR 11, 2009
p361
aVDET @ IND
p362
aVL
p363
aI12
aI2
aI3
aF0.667
aI1
aI2
aF0.5
aI0
aI2
aF0.0
aI0
aI1
aI1
aI0
aI1
aI0
aI1
aI1
aI5
aI-2
aa(lp364
V0020801204
p365
aVAPR 13, 2009
p366
aVDET vs. CHI
p367
aVL
p368
aI14
aI2
aI4
aF0.5
aI1
aI1
aF1.0
aI0
aI0
aF0.0
aI0
aI2
aI2
aI1
aI0
aI0
aI0
aI1
aI5
aI-2
aa(lp369
V0020801223
p370
aVAPR 15, 2009
p371
aVDET @ MIA
p372
aVL
p373
aI49
aI6
aI13
aF0.462
aI1
aI2
aF0.5
aI0
aI0
aF0.0
aI2
aI1
aI3
aI3
aI2
aI0
aI1
aI1
aI13
aI-2
aasS'name'
p374
VArron Afflalo
p375
sS'experience'
p376
I1
s.