(dp0
S'stats'
p1
(lp2
(lp3
V0020800014
p4
aVOCT 29, 2008
p5
aVGSW vs. NOH
p6
aVL
p7
aI2
aI0
aI1
aF0.0
aI0
aI0
aF0.0
aI0
aI0
aF0.0
aI0
aI0
aI0
aI0
aI0
aI0
aI0
aI0
aI0
aI-4
aa(lp8
V0020800020
p9
aVOCT 31, 2008
p10
aVGSW @ TOR
p11
aVL
p12
aI10
aI3
aI4
aF0.75
aI0
aI0
aF0.0
aI1
aI1
aF1.0
aI0
aI0
aI0
aI1
aI1
aI0
aI0
aI2
aI7
aI-1
aa(lp13
V0020800031
p14
aVNOV 01, 2008
p15
aVGSW @ NJN
p16
aVW
p17
aI28
aI1
aI5
aF0.2
aI0
aI0
aF0.0
aI3
aI6
aF0.5
aI1
aI2
aI3
aI4
aI1
aI0
aI2
aI4
aI5
aI-4
aa(lp18
V0020800045
p19
aVNOV 03, 2008
p20
aVGSW @ MEM
p21
aVL
p22
aI20
aI2
aI5
aF0.4
aI0
aI0
aF0.0
aI0
aI0
aF0.0
aI1
aI1
aI2
aI4
aI1
aI0
aI1
aI1
aI4
aI-4
aa(lp23
V0020800062
p24
aVNOV 05, 2008
p25
aVGSW vs. DEN
p26
aVW
p27
aI42
aI7
aI16
aF0.438
aI0
aI0
aF0.0
aI0
aI0
aF0.0
aI1
aI4
aI5
aI4
aI2
aI0
aI1
aI1
aI14
aI20
aa(lp28
V0020800077
p29
aVNOV 07, 2008
p30
aVGSW vs. MEM
p31
aVL
p32
aI42
aI1
aI7
aF0.143
aI0
aI1
aF0.0
aI7
aI11
aF0.636
aI3
aI5
aI8
aI8
aI1
aI0
aI0
aI2
aI9
aI-8
aa(lp33
V0020800091
p34
aVNOV 09, 2008
p35
aVGSW @ SAC
p36
aVL
p37
aI27
aI5
aI10
aF0.5
aI0
aI0
aF0.0
aI0
aI0
aF0.0
aI0
aI1
aI1
aI3
aI0
aI0
aI2
aI2
aI10
aI-12
aa(lp38
V0020800105
p39
aVNOV 11, 2008
p40
aVGSW vs. MIN
p41
aVW
p42
aI24
aI3
aI6
aF0.5
aI1
aI1
aF1.0
aI1
aI2
aF0.5
aI0
aI4
aI4
aI4
aI0
aI0
aI3
aI2
aI8
aI-1
aa(lp43
V0020800119
p44
aVNOV 13, 2008
p45
aVGSW vs. DET
p46
aVL
p47
aI35
aI7
aI15
aF0.467
aI0
aI1
aF0.0
aI3
aI4
aF0.75
aI2
aI4
aI6
aI1
aI2
aI0
aI4
aI4
aI17
aI7
aa(lp48
V0020800132
p49
aVNOV 15, 2008
p50
aVGSW @ LAC
p51
aVW
p52
aI28
aI3
aI4
aF0.75
aI0
aI0
aF0.0
aI4
aI6
aF0.667
aI0
aI3
aI3
aI8
aI1
aI0
aI1
aI1
aI10
aI22
aa(lp53
V0020800157
p54
aVNOV 18, 2008
p55
aVGSW vs. POR
p56
aVW
p57
aI35
aI4
aI9
aF0.444
aI0
aI1
aF0.0
aI2
aI2
aF1.0
aI1
aI4
aI5
aI4
aI2
aI0
aI2
aI1
aI10
aI10
aa(lp58
V0020800182
p59
aVNOV 21, 2008
p60
aVGSW vs. CHI
p61
aVL
p62
aI35
aI2
aI10
aF0.2
aI0
aI3
aF0.0
aI0
aI0
aF0.0
aI0
aI5
aI5
aI6
aI2
aI0
aI0
aI1
aI4
aI-6
aa(lp63
V0020800194
p64
aVNOV 23, 2008
p65
aVGSW @ PHI
p66
aVL
p67
aI24
aI5
aI10
aF0.5
aI1
aI2
aF0.5
aI1
aI2
aF0.5
aI0
aI5
aI5
aI2
aI3
aI0
aI4
aI1
aI12
aI-5
aa(lp68
V0020800205
p69
aVNOV 25, 2008
p70
aVGSW @ WAS
p71
aVL
p72
aI19
aI3
aI5
aF0.6
aI0
aI0
aF0.0
aI0
aI0
aF0.0
aI2
aI1
aI3
aI3
aI1
aI0
aI1
aI0
aI6
aI-6
aa(lp73
V0020800213
p74
aVNOV 26, 2008
p75
aVGSW @ BOS
p76
aVL
p77
aI16
aI4
aI4
aF1.0
aI0
aI0
aF0.0
aI2
aI2
aF1.0
aI0
aI1
aI1
aI1
aI0
aI0
aI0
aI0
aI10
aI4
aa(lp78
V0020800227
p79
aVNOV 28, 2008
p80
aVGSW @ CLE
p81
aVL
p82
aI24
aI6
aI7
aF0.857
aI1
aI2
aF0.5
aI4
aI4
aF1.0
aI0
aI3
aI3
aI2
aI2
aI0
aI0
aI1
aI17
aI-8
aa(lp83
V0020800239
p84
aVNOV 29, 2008
p85
aVGSW @ NYK
p86
aVL
p87
aI36
aI9
aI17
aF0.529
aI1
aI2
aF0.5
aI4
aI4
aF1.0
aI1
aI5
aI6
aI5
aI3
aI0
aI2
aI1
aI23
aI-4
aa(lp88
V0020800254
p89
aVDEC 01, 2008
p90
aVGSW vs. MIA
p91
aVL
p92
aI27
aI2
aI5
aF0.4
aI0
aI0
aF0.0
aI4
aI4
aF1.0
aI1
aI3
aI4
aI3
aI4
aI0
aI0
aI3
aI8
aI-4
aa(lp93
V0020800284
p94
aVDEC 05, 2008
p95
aVGSW @ HOU
p96
aVL
p97
aI12
aI0
aI2
aF0.0
aI0
aI0
aF0.0
aI0
aI0
aF0.0
aI0
aI0
aI0
aI0
aI1
aI0
aI0
aI0
aI0
aI-5
aa(lp98
V0020800294
p99
aVDEC 06, 2008
p100
aVGSW @ SAS
p101
aVL
p102
aI31
aI4
aI12
aF0.333
aI0
aI0
aF0.0
aI0
aI0
aF0.0
aI0
aI1
aI1
aI0
aI0
aI0
aI0
aI1
aI8
aI-31
aa(lp103
V0020800303
p104
aVDEC 08, 2008
p105
aVGSW @ OKC
p106
aVW
p107
aI21
aI4
aI6
aF0.667
aI0
aI0
aF0.0
aI2
aI2
aF1.0
aI0
aI2
aI2
aI1
aI1
aI0
aI2
aI1
aI10
aI2
aa(lp108
V0020800321
p109
aVDEC 10, 2008
p110
aVGSW vs. MIL
p111
aVW
p112
aI36
aI7
aI11
aF0.636
aI1
aI2
aF0.5
aI4
aI4
aF1.0
aI2
aI5
aI7
aI4
aI0
aI0
aI1
aI1
aI19
aI24
aa(lp113
V0020800335
p114
aVDEC 12, 2008
p115
aVGSW vs. HOU
p116
aVL
p117
aI32
aI7
aI13
aF0.538
aI2
aI4
aF0.5
aI1
aI1
aF1.0
aI2
aI4
aI6
aI1
aI2
aI0
aI2
aI2
aI17
aI-15
aa(lp118
V0020800343
p119
aVDEC 13, 2008
p120
aVGSW @ DEN
p121
aVL
p122
aI31
aI2
aI8
aF0.25
aI0
aI2
aF0.0
aI4
aI4
aF1.0
aI0
aI3
aI3
aI1
aI3
aI0
aI2
aI2
aI8
aI-5
aa(lp123
V0020800359
p124
aVDEC 15, 2008
p125
aVGSW vs. ORL
p126
aVL
p127
aI22
aI2
aI6
aF0.333
aI1
aI1
aF1.0
aI2
aI2
aF1.0
aI1
aI2
aI3
aI0
aI2
aI0
aI2
aI3
aI7
aI-14
aa(lp128
V0020800379
p129
aVDEC 19, 2008
p130
aVGSW @ ATL
p131
aVL
p132
aI13
aI1
aI3
aF0.333
aI1
aI1
aF1.0
aI0
aI0
aF0.0
aI0
aI0
aI0
aI0
aI0
aI0
aI1
aI1
aI3
aI-5
aa(lp133
V0020800389
p134
aVDEC 20, 2008
p135
aVGSW @ CHA
p136
aVW
p137
aI25
aI1
aI3
aF0.333
aI0
aI0
aF0.0
aI3
aI4
aF0.75
aI2
aI1
aI3
aI1
aI1
aI1
aI0
aI0
aI5
aI0
aa(lp138
V0020800403
p139
aVDEC 22, 2008
p140
aVGSW @ ORL
p141
aVL
p142
aI11
aI1
aI7
aF0.143
aI0
aI1
aF0.0
aI2
aI2
aF1.0
aI0
aI1
aI1
aI0
aI1
aI0
aI1
aI1
aI4
aI-10
aa(lp143
V0020800414
p144
aVDEC 23, 2008
p145
aVGSW @ MIA
p146
aVL
p147
aI39
aI7
aI15
aF0.467
aI2
aI4
aF0.5
aI2
aI2
aF1.0
aI1
aI0
aI1
aI2
aI0
aI0
aI1
aI1
aI18
aI5
aa(lp148
V0020800435
p149
aVDEC 26, 2008
p150
aVGSW vs. BOS
p151
aVW
p152
aI28
aI3
aI6
aF0.5
aI1
aI3
aF0.333
aI1
aI2
aF0.5
aI0
aI2
aI2
aI3
aI0
aI0
aI2
aI3
aI8
aI0
aa(lp153
V0020800449
p154
aVDEC 28, 2008
p155
aVGSW @ LAL
p156
aVL
p157
aI23
aI5
aI7
aF0.714
aI3
aI3
aF1.0
aI1
aI2
aF0.5
aI0
aI1
aI1
aI1
aI2
aI0
aI0
aI1
aI14
aI-6
aa(lp158
V0020800457
p159
aVDEC 29, 2008
p160
aVGSW vs. TOR
p161
aVW
p162
aI35
aI5
aI9
aF0.556
aI2
aI3
aF0.667
aI3
aI4
aF0.75
aI0
aI2
aI2
aI2
aI3
aI0
aI0
aI3
aI15
aI7
aa(lp163
V0020800471
p164
aVDEC 31, 2008
p165
aVGSW @ OKC
p166
aVL
p167
aI30
aI5
aI10
aF0.5
aI4
aI8
aF0.5
aI2
aI2
aF1.0
aI0
aI2
aI2
aI0
aI0
aI1
aI3
aI2
aI16
aI-7
aa(lp168
V0020800481
p169
aVJAN 02, 2009
p170
aVGSW @ MIN
p171
aVL
p172
aI31
aI3
aI8
aF0.375
aI1
aI3
aF0.333
aI4
aI4
aF1.0
aI2
aI4
aI6
aI2
aI3
aI0
aI1
aI3
aI11
aI3
aa(lp173
V0020800505
p174
aVJAN 05, 2009
p175
aVGSW @ UTA
p176
aVL
p177
aI23
aI2
aI6
aF0.333
aI1
aI2
aF0.5
aI0
aI0
aF0.0
aI0
aI1
aI1
aI2
aI2
aI0
aI1
aI3
aI5
aI-9
aa(lp178
V0020800525
p179
aVJAN 07, 2009
p180
aVGSW vs. LAL
p181
aVL
p182
aI25
aI0
aI2
aF0.0
aI0
aI0
aF0.0
aI2
aI2
aF1.0
aI0
aI0
aI0
aI6
aI0
aI0
aI1
aI0
aI2
aI-10
aa(lp183
V0020800545
p184
aVJAN 10, 2009
p185
aVGSW @ POR
p186
aVL
p187
aI22
aI4
aI6
aF0.667
aI1
aI1
aF1.0
aI0
aI0
aF0.0
aI0
aI0
aI0
aI1
aI1
aI0
aI4
aI3
aI9
aI0
aa(lp188
V0020800550
p189
aVJAN 11, 2009
p190
aVGSW vs. IND
p191
aVW
p192
aI37
aI4
aI9
aF0.444
aI1
aI4
aF0.25
aI2
aI2
aF1.0
aI0
aI5
aI5
aI5
aI2
aI0
aI2
aI1
aI11
aI14
aa(lp193
V0020800575
p194
aVJAN 14, 2009
p195
aVGSW vs. SAC
p196
aVL
p197
aI49
aI10
aI24
aF0.417
aI1
aI1
aF1.0
aI5
aI5
aF1.0
aI0
aI2
aI2
aI6
aI3
aI0
aI1
aI6
aI26
aI-2
aa(lp198
V0020800626
p199
aVJAN 21, 2009
p200
aVGSW vs. OKC
p201
aVL
p202
aI18
aI2
aI4
aF0.5
aI0
aI1
aF0.0
aI5
aI6
aF0.833
aI1
aI1
aI2
aI0
aI3
aI0
aI1
aI0
aI9
aI4
aa(lp203
V0020800638
p204
aVJAN 23, 2009
p205
aVGSW vs. CLE
p206
aVL
p207
aI17
aI1
aI4
aF0.25
aI0
aI2
aF0.0
aI1
aI2
aF0.5
aI0
aI1
aI1
aI3
aI0
aI0
aI0
aI2
aI3
aI4
aa(lp208
V0020800654
p209
aVJAN 25, 2009
p210
aVGSW vs. LAC
p211
aVW
p212
aI22
aI3
aI5
aF0.6
aI1
aI2
aF0.5
aI2
aI2
aF1.0
aI0
aI2
aI2
aI3
aI3
aI0
aI2
aI1
aI9
aI17
aa(lp213
V0020800676
p214
aVJAN 28, 2009
p215
aVGSW @ DAL
p216
aVL
p217
aI17
aI1
aI4
aF0.25
aI1
aI1
aF1.0
aI0
aI0
aF0.0
aI0
aI0
aI0
aI3
aI0
aI0
aI0
aI1
aI3
aI-4
aa(lp218
V0020800690
p219
aVJAN 30, 2009
p220
aVGSW @ NOH
p221
aVW
p222
aI10
aI0
aI2
aF0.0
aI0
aI2
aF0.0
aI0
aI0
aF0.0
aI2
aI1
aI3
aI0
aI0
aI0
aI1
aI1
aI0
aI-1
aa(lp223
V0020800697
p224
aVJAN 31, 2009
p225
aVGSW @ HOU
p226
aVL
p227
aI21
aI4
aI6
aF0.667
aI2
aI3
aF0.667
aI2
aI2
aF1.0
aI0
aI2
aI2
aI3
aI0
aI0
aI1
aI1
aI12
aI-1
aa(lp228
V0020800713
p229
aVFEB 02, 2009
p230
aVGSW vs. SAS
p231
aVL
p232
aI26
aI4
aI6
aF0.667
aI1
aI1
aF1.0
aI2
aI2
aF1.0
aI1
aI3
aI4
aI1
aI0
aI0
aI1
aI2
aI11
aI0
aa(lp233
V0020800730
p234
aVFEB 04, 2009
p235
aVGSW vs. PHX
p236
aVW
p237
aI15
aI1
aI3
aF0.333
aI1
aI2
aF0.5
aI0
aI0
aF0.0
aI0
aI1
aI1
aI1
aI0
aI0
aI0
aI1
aI3
aI1
aa(lp238
V0020800742
p239
aVFEB 06, 2009
p240
aVGSW @ PHX
p241
aVL
p242
aI12
aI1
aI2
aF0.5
aI0
aI1
aF0.0
aI0
aI0
aF0.0
aI0
aI0
aI0
aI4
aI2
aI0
aI1
aI0
aI2
aI6
aa(lp243
V0020800759
p244
aVFEB 08, 2009
p245
aVGSW vs. UTA
p246
aVW
p247
aI22
aI5
aI6
aF0.833
aI2
aI3
aF0.667
aI2
aI2
aF1.0
aI0
aI1
aI1
aI5
aI1
aI0
aI0
aI2
aI14
aI5
aa(lp248
V0020800771
p249
aVFEB 10, 2009
p250
aVGSW vs. NYK
p251
aVW
p252
aI17
aI5
aI6
aF0.833
aI1
aI1
aF1.0
aI0
aI0
aF0.0
aI1
aI1
aI2
aI1
aI1
aI0
aI2
aI3
aI11
aI-6
aa(lp253
V0020800787
p254
aVFEB 12, 2009
p255
aVGSW vs. POR
p256
aVW
p257
aI12
aI0
aI2
aF0.0
aI0
aI0
aF0.0
aI0
aI0
aF0.0
aI0
aI0
aI0
aI0
aI0
aI0
aI1
aI1
aI0
aI-1
aa(lp258
V0020800807
p259
aVFEB 18, 2009
p260
aVGSW vs. LAL
p261
aVL
p262
aI3
aI0
aI2
aF0.0
aI0
aI0
aF0.0
aI2
aI2
aF1.0
aI1
aI0
aI1
aI0
aI1
aI0
aI0
aI0
aI2
aI6
aa(lp263
V0020800826
p264
aVFEB 21, 2009
p265
aVGSW vs. OKC
p266
aVW
p267
aI21
aI4
aI8
aF0.5
aI2
aI3
aF0.667
aI1
aI1
aF1.0
aI0
aI0
aI0
aI2
aI1
aI0
aI0
aI0
aI11
aI12
aa(lp268
V0020800841
p269
aVFEB 23, 2009
p270
aVGSW @ LAC
p271
aVL
p272
aI27
aI5
aI8
aF0.625
aI1
aI2
aF0.5
aI5
aI5
aF1.0
aI0
aI4
aI4
aI4
aI2
aI0
aI2
aI1
aI16
aI-6
aa(lp273
V0020800875
p274
aVFEB 27, 2009
p275
aVGSW vs. CHA
p276
aVL
p277
aI44
aI3
aI10
aF0.3
aI0
aI2
aF0.0
aI4
aI4
aF1.0
aI1
aI2
aI3
aI3
aI4
aI0
aI3
aI4
aI10
aI-5
aa(lp278
V0020800891
p279
aVMAR 01, 2009
p280
aVGSW vs. UTA
p281
aVL
p282
aI17
aI0
aI4
aF0.0
aI0
aI2
aF0.0
aI2
aI2
aF1.0
aI0
aI4
aI4
aI5
aI0
aI0
aI4
aI1
aI2
aI-7
aa(lp283
V0020800901
p284
aVMAR 03, 2009
p285
aVGSW @ MIN
p286
aVW
p287
aI28
aI2
aI7
aF0.286
aI0
aI1
aF0.0
aI5
aI6
aF0.833
aI1
aI4
aI5
aI3
aI2
aI0
aI1
aI1
aI9
aI2
aa(lp288
V0020800910
p289
aVMAR 04, 2009
p290
aVGSW @ CHI
p291
aVL
p292
aI23
aI5
aI8
aF0.625
aI1
aI2
aF0.5
aI0
aI0
aF0.0
aI0
aI0
aI0
aI2
aI1
aI0
aI1
aI2
aI11
aI-24
aa(lp293
V0020800921
p294
aVMAR 06, 2009
p295
aVGSW @ DET
p296
aVL
p297
aI22
aI2
aI5
aF0.4
aI0
aI1
aF0.0
aI0
aI0
aF0.0
aI0
aI0
aI0
aI1
aI2
aI0
aI3
aI0
aI4
aI-5
aa(lp298
V0020800933
p299
aVMAR 07, 2009
p300
aVGSW @ MIL
p301
aVL
p302
aI7
aI0
aI3
aF0.0
aI0
aI0
aF0.0
aI0
aI0
aF0.0
aI1
aI0
aI1
aI0
aI1
aI0
aI0
aI2
aI0
aI-6
aa(lp303
V0020800994
p304
aVMAR 15, 2009
p305
aVGSW vs. PHX
p306
aVL
p307
aI3
aI0
aI1
aF0.0
aI0
aI1
aF0.0
aI0
aI0
aF0.0
aI0
aI0
aI0
aI1
aI0
aI0
aI0
aI0
aI0
aI4
aa(lp308
V0020801007
p309
aVMAR 17, 2009
p310
aVGSW vs. LAC
p311
aVW
p312
aI11
aI1
aI3
aF0.333
aI0
aI1
aF0.0
aI2
aI2
aF1.0
aI0
aI2
aI2
aI1
aI1
aI0
aI0
aI1
aI4
aI6
aa(lp313
V0020801022
p314
aVMAR 19, 2009
p315
aVGSW @ LAL
p316
aVL
p317
aI12
aI3
aI6
aF0.5
aI0
aI1
aF0.0
aI0
aI1
aF0.0
aI0
aI0
aI0
aI1
aI1
aI0
aI0
aI1
aI6
aI-2
aa(lp318
V0020801033
p319
aVMAR 20, 2009
p320
aVGSW vs. PHI
p321
aVW
p322
aI19
aI4
aI8
aF0.5
aI1
aI2
aF0.5
aI0
aI0
aF0.0
aI0
aI1
aI1
aI4
aI1
aI0
aI0
aI3
aI9
aI4
aa(lp323
V0020801046
p324
aVMAR 22, 2009
p325
aVGSW @ NOH
p326
aVL
p327
aI15
aI1
aI5
aF0.2
aI1
aI2
aF0.5
aI2
aI2
aF1.0
aI0
aI0
aI0
aI3
aI0
aI0
aI2
aI0
aI5
aI2
aa(lp328
V0020801057
p329
aVMAR 24, 2009
p330
aVGSW @ SAS
p331
aVL
p332
aI8
aI1
aI1
aF1.0
aI0
aI0
aF0.0
aI2
aI2
aF1.0
aI0
aI0
aI0
aI0
aI0
aI0
aI0
aI2
aI4
aI5
aa(lp333
V0020801068
p334
aVMAR 25, 2009
p335
aVGSW @ DAL
p336
aVL
p337
aI30
aI3
aI8
aF0.375
aI1
aI3
aF0.333
aI3
aI3
aF1.0
aI0
aI0
aI0
aI3
aI2
aI0
aI0
aI4
aI10
aI-17
aa(lp338
V0020801088
p339
aVMAR 28, 2009
p340
aVGSW @ DEN
p341
aVL
p342
aI27
aI5
aI13
aF0.385
aI1
aI4
aF0.25
aI2
aI2
aF1.0
aI3
aI4
aI7
aI4
aI2
aI0
aI1
aI1
aI13
aI5
aa(lp343
V0020801103
p344
aVMAR 30, 2009
p345
aVGSW vs. MEM
p346
aVL
p347
aI11
aI2
aI4
aF0.5
aI1
aI1
aF1.0
aI2
aI2
aF1.0
aI0
aI1
aI1
aI1
aI1
aI0
aI1
aI4
aI7
aI-5
aa(lp348
V0020801120
p349
aVAPR 01, 2009
p350
aVGSW vs. SAC
p351
aVW
p352
aI34
aI3
aI6
aF0.5
aI0
aI0
aF0.0
aI1
aI2
aF0.5
aI1
aI0
aI1
aI1
aI1
aI0
aI0
aI5
aI7
aI10
aa(lp353
V0020801133
p354
aVAPR 03, 2009
p355
aVGSW vs. NOH
p356
aVW
p357
aI23
aI3
aI6
aF0.5
aI1
aI2
aF0.5
aI4
aI4
aF1.0
aI0
aI2
aI2
aI2
aI0
aI0
aI0
aI4
aI11
aI-1
aa(lp358
V0020801151
p359
aVAPR 05, 2009
p360
aVGSW @ SAC
p361
aVW
p362
aI34
aI6
aI10
aF0.6
aI0
aI1
aF0.0
aI6
aI6
aF1.0
aI1
aI4
aI5
aI6
aI3
aI0
aI5
aI3
aI18
aI12
aa(lp363
V0020801172
p364
aVAPR 08, 2009
p365
aVGSW vs. MIN
p366
aVL
p367
aI29
aI4
aI10
aF0.4
aI1
aI2
aF0.5
aI1
aI1
aF1.0
aI0
aI3
aI3
aI3
aI0
aI0
aI2
aI1
aI10
aI-7
aa(lp368
V0020801187
p369
aVAPR 10, 2009
p370
aVGSW vs. HOU
p371
aVL
p372
aI48
aI6
aI15
aF0.4
aI0
aI2
aF0.0
aI6
aI6
aF1.0
aI0
aI3
aI3
aI9
aI3
aI0
aI0
aI6
aI18
aI-4
aa(lp373
V0020801194
p374
aVAPR 11, 2009
p375
aVGSW @ UTA
p376
aVW
p377
aI39
aI10
aI16
aF0.625
aI2
aI4
aF0.5
aI16
aI16
aF1.0
aI1
aI6
aI7
aI9
aI1
aI0
aI4
aI4
aI38
aI2
aa(lp378
V0020801213
p379
aVAPR 13, 2009
p380
aVGSW vs. SAS
p381
aVL
p382
aI44
aI7
aI15
aF0.467
aI0
aI1
aF0.0
aI4
aI7
aF0.571
aI0
aI5
aI5
aI1
aI0
aI1
aI0
aI3
aI18
aI-32
aa(lp383
V0020801229
p384
aVAPR 15, 2009
p385
aVGSW @ PHX
p386
aVL
p387
aI45
aI6
aI17
aF0.353
aI0
aI5
aF0.0
aI8
aI9
aF0.889
aI1
aI6
aI7
aI12
aI3
aI1
aI3
aI4
aI20
aI0
aasS'name'
p388
VCJ Watson
p389
sS'weight'
p390
V175
p391
sS'age'
p392
I24
sS'experience'
p393
I1
sS'height'
p394
V6-2
p395
sS'position'
p396
VGuard
p397
s.