(dp0
S'stats'
p1
(lp2
(lp3
V0020800004
p4
aVOCT 29, 2008
p5
aVATL @ ORL
p6
aVW
p7
aI3
aI0
aI0
aF0.0
aI0
aI0
aF0.0
aI0
aI0
aF0.0
aI0
aI0
aI0
aI0
aI0
aI1
aI0
aI0
aI0
aI8
aa(lp8
V0020800068
p9
aVNOV 07, 2008
p10
aVATL vs. TOR
p11
aVW
p12
aI4
aI0
aI1
aF0.0
aI0
aI0
aF0.0
aI0
aI0
aF0.0
aI0
aI0
aI0
aI0
aI0
aI1
aI0
aI1
aI0
aI-6
aa(lp13
V0020800101
p14
aVNOV 11, 2008
p15
aVATL @ CHI
p16
aVW
p17
aI0
aI0
aI0
aF0.0
aI0
aI0
aF0.0
aI0
aI0
aF0.0
aI0
aI0
aI0
aI0
aI0
aI0
aI0
aI0
aI0
aI-2
aa(lp18
V0020800107
p19
aVNOV 12, 2008
p20
aVATL @ BOS
p21
aVL
p22
aI1
aI0
aI0
aF0.0
aI0
aI0
aF0.0
aI1
aI2
aF0.5
aI0
aI1
aI1
aI1
aI1
aI0
aI0
aI0
aI1
aI3
aa(lp23
V0020800123
p24
aVNOV 14, 2008
p25
aVATL @ NJN
p26
aVL
p27
aI0
aI0
aI0
aF0.0
aI0
aI0
aF0.0
aI0
aI0
aF0.0
aI1
aI0
aI1
aI0
aI0
aI0
aI0
aI0
aI0
aI0
aa(lp28
V0020800133
p29
aVNOV 15, 2008
p30
aVATL vs. NJN
p31
aVL
p32
aI4
aI0
aI0
aF0.0
aI0
aI0
aF0.0
aI1
aI2
aF0.5
aI0
aI1
aI1
aI1
aI0
aI0
aI0
aI2
aI1
aI6
aa(lp33
V0020800150
p34
aVNOV 18, 2008
p35
aVATL @ IND
p36
aVL
p37
aI2
aI0
aI1
aF0.0
aI0
aI0
aF0.0
aI0
aI0
aF0.0
aI0
aI1
aI1
aI0
aI0
aI0
aI1
aI1
aI0
aI-5
aa(lp38
V0020800186
p39
aVNOV 22, 2008
p40
aVATL @ CLE
p41
aVL
p42
aI7
aI0
aI1
aF0.0
aI0
aI0
aF0.0
aI0
aI2
aF0.0
aI1
aI1
aI2
aI0
aI0
aI0
aI0
aI0
aI0
aI8
aa(lp43
V0020800210
p44
aVNOV 26, 2008
p45
aVATL vs. MIL
p46
aVW
p47
aI0
aI0
aI0
aF0.0
aI0
aI0
aF0.0
aI0
aI0
aF0.0
aI0
aI0
aI0
aI0
aI0
aI0
aI0
aI0
aI0
aI-2
aa(lp48
V0020800238
p49
aVNOV 29, 2008
p50
aVATL @ WAS
p51
aVW
p52
aI1
aI0
aI0
aF0.0
aI0
aI0
aF0.0
aI0
aI0
aF0.0
aI0
aI0
aI0
aI0
aI0
aI0
aI0
aI0
aI0
aI0
aa(lp53
V0020800263
p54
aVDEC 03, 2008
p55
aVATL vs. MEM
p56
aVW
p57
aI0
aI0
aI0
aF0.0
aI0
aI0
aF0.0
aI0
aI0
aF0.0
aI0
aI0
aI0
aI0
aI0
aI0
aI0
aI0
aI0
aI0
aa(lp58
V0020800310
p59
aVDEC 09, 2008
p60
aVATL @ HOU
p61
aVL
p62
aI1
aI0
aI1
aF0.0
aI0
aI0
aF0.0
aI0
aI0
aF0.0
aI0
aI0
aI0
aI1
aI0
aI0
aI0
aI0
aI0
aI2
aa(lp63
V0020800327
p64
aVDEC 12, 2008
p65
aVATL @ MIA
p66
aVW
p67
aI2
aI0
aI0
aF0.0
aI0
aI0
aF0.0
aI0
aI0
aF0.0
aI0
aI0
aI0
aI0
aI0
aI0
aI1
aI0
aI0
aI-3
aa(lp68
V0020800351
p69
aVDEC 15, 2008
p70
aVATL vs. CHA
p71
aVW
p72
aI0
aI0
aI0
aF0.0
aI0
aI0
aF0.0
aI0
aI0
aF0.0
aI0
aI0
aI0
aI0
aI0
aI0
aI0
aI0
aI0
aI-2
aa(lp73
V0020800379
p74
aVDEC 19, 2008
p75
aVATL vs. GSW
p76
aVW
p77
aI1
aI0
aI0
aF0.0
aI0
aI0
aF0.0
aI0
aI0
aF0.0
aI0
aI0
aI0
aI1
aI0
aI0
aI0
aI0
aI0
aI1
aa(lp78
V0020800409
p79
aVDEC 23, 2008
p80
aVATL vs. OKC
p81
aVW
p82
aI1
aI0
aI0
aF0.0
aI0
aI0
aF0.0
aI0
aI0
aF0.0
aI0
aI0
aI0
aI0
aI0
aI0
aI0
aI0
aI0
aI0
aa(lp83
V0020800436
p84
aVDEC 27, 2008
p85
aVATL vs. CHI
p86
aVW
p87
aI1
aI1
aI1
aF1.0
aI0
aI0
aF0.0
aI0
aI0
aF0.0
aI0
aI0
aI0
aI0
aI0
aI0
aI0
aI0
aI2
aI0
aa(lp88
V0020800450
p89
aVDEC 29, 2008
p90
aVATL vs. DEN
p91
aVW
p92
aI2
aI0
aI0
aF0.0
aI0
aI0
aF0.0
aI0
aI0
aF0.0
aI0
aI0
aI0
aI0
aI0
aI0
aI1
aI0
aI0
aI-3
aa(lp93
V0020800477
p94
aVJAN 02, 2009
p95
aVATL @ NJN
p96
aVL
p97
aI0
aI1
aI1
aF1.0
aI1
aI1
aF1.0
aI0
aI0
aF0.0
aI0
aI0
aI0
aI0
aI1
aI0
aI0
aI0
aI3
aI3
aa(lp98
V0020800528
p99
aVJAN 09, 2009
p100
aVATL @ ORL
p101
aVL
p102
aI11
aI0
aI1
aF0.0
aI0
aI0
aF0.0
aI0
aI2
aF0.0
aI0
aI1
aI1
aI1
aI0
aI0
aI1
aI1
aI0
aI-8
aa(lp103
V0020800576
p104
aVJAN 14, 2009
p105
aVATL @ LAC
p106
aVW
p107
aI1
aI0
aI0
aF0.0
aI0
aI0
aF0.0
aI0
aI0
aF0.0
aI0
aI0
aI0
aI0
aI0
aI0
aI0
aI0
aI0
aI2
aa(lp108
V0020800588
p109
aVJAN 16, 2009
p110
aVATL @ GSW
p111
aVL
p112
aI0
aI1
aI1
aF1.0
aI0
aI0
aF0.0
aI0
aI0
aF0.0
aI1
aI0
aI1
aI0
aI0
aI0
aI0
aI0
aI2
aI2
aa(lp113
V0020800603
p114
aVJAN 19, 2009
p115
aVATL vs. TOR
p116
aVW
p117
aI3
aI0
aI0
aF0.0
aI0
aI0
aF0.0
aI0
aI0
aF0.0
aI0
aI0
aI0
aI0
aI0
aI0
aI0
aI1
aI0
aI0
aa(lp118
V0020800613
p119
aVJAN 20, 2009
p120
aVATL @ CHI
p121
aVW
p122
aI7
aI0
aI0
aF0.0
aI0
aI0
aF0.0
aI0
aI0
aF0.0
aI0
aI0
aI0
aI0
aI0
aI0
aI0
aI1
aI0
aI-17
aa(lp123
V0020800633
p124
aVJAN 23, 2009
p125
aVATL vs. MIL
p126
aVW
p127
aI6
aI0
aI1
aF0.0
aI0
aI0
aF0.0
aI0
aI0
aF0.0
aI0
aI1
aI1
aI1
aI0
aI0
aI1
aI0
aI0
aI0
aa(lp128
V0020800671
p129
aVJAN 28, 2009
p130
aVATL @ NYK
p131
aVL
p132
aI1
aI1
aI1
aF1.0
aI0
aI0
aF0.0
aI0
aI0
aF0.0
aI0
aI0
aI0
aI0
aI1
aI0
aI0
aI0
aI2
aI2
aa(lp133
V0020800685
p134
aVJAN 30, 2009
p135
aVATL vs. NJN
p136
aVW
p137
aI2
aI0
aI0
aF0.0
aI0
aI0
aF0.0
aI0
aI0
aF0.0
aI1
aI0
aI1
aI0
aI0
aI0
aI0
aI0
aI0
aI-3
aa(lp138
V0020800743
p139
aVFEB 07, 2009
p140
aVATL vs. LAC
p141
aVL
p142
aI4
aI2
aI3
aF0.667
aI0
aI0
aF0.0
aI0
aI2
aF0.0
aI1
aI0
aI1
aI0
aI2
aI0
aI0
aI0
aI4
aI0
aa(lp143
V0020800764
p144
aVFEB 10, 2009
p145
aVATL vs. WAS
p146
aVW
p147
aI4
aI0
aI2
aF0.0
aI0
aI0
aF0.0
aI0
aI0
aF0.0
aI1
aI1
aI2
aI0
aI0
aI0
aI1
aI1
aI0
aI0
aa(lp148
V0020800797
p149
aVFEB 17, 2009
p150
aVATL @ LAL
p151
aVL
p152
aI7
aI1
aI1
aF1.0
aI0
aI0
aF0.0
aI5
aI8
aF0.625
aI2
aI2
aI4
aI0
aI5
aI0
aI1
aI1
aI7
aI12
aa(lp153
V0020800806
p154
aVFEB 18, 2009
p155
aVATL @ SAC
p156
aVW
p157
aI0
aI0
aI0
aF0.0
aI0
aI0
aF0.0
aI0
aI0
aF0.0
aI0
aI0
aI0
aI0
aI0
aI0
aI0
aI1
aI0
aI0
aa(lp158
V0020800820
p159
aVFEB 20, 2009
p160
aVATL @ POR
p161
aVL
p162
aI1
aI0
aI0
aF0.0
aI0
aI0
aF0.0
aI0
aI0
aF0.0
aI0
aI0
aI0
aI0
aI0
aI0
aI0
aI0
aI0
aI0
aa(lp163
V0020800858
p164
aVFEB 25, 2009
p165
aVATL @ DEN
p166
aVL
p167
aI7
aI0
aI2
aF0.0
aI0
aI0
aF0.0
aI0
aI0
aF0.0
aI2
aI2
aI4
aI0
aI1
aI1
aI0
aI2
aI0
aI-11
aa(lp168
V0020800893
p169
aVMAR 02, 2009
p170
aVATL @ WAS
p171
aVW
p172
aI1
aI0
aI0
aF0.0
aI0
aI0
aF0.0
aI0
aI0
aF0.0
aI0
aI0
aI0
aI0
aI0
aI0
aI0
aI0
aI0
aI-2
aa(lp173
V0020800927
p174
aVMAR 07, 2009
p175
aVATL vs. DET
p176
aVW
p177
aI0
aI0
aI0
aF0.0
aI0
aI0
aF0.0
aI0
aI0
aF0.0
aI0
aI1
aI1
aI0
aI0
aI0
aI0
aI0
aI0
aI0
aa(lp178
V0020800943
p179
aVMAR 09, 2009
p180
aVATL vs. NOH
p181
aVW
p182
aI1
aI0
aI0
aF0.0
aI0
aI0
aF0.0
aI0
aI0
aF0.0
aI0
aI0
aI0
aI0
aI0
aI0
aI0
aI0
aI0
aI-2
aa(lp183
V0020800955
p184
aVMAR 11, 2009
p185
aVATL vs. UTA
p186
aVW
p187
aI16
aI1
aI1
aF1.0
aI0
aI0
aF0.0
aI1
aI4
aF0.25
aI2
aI2
aI4
aI3
aI1
aI1
aI0
aI0
aI3
aI6
aa(lp188
V0020800972
p189
aVMAR 13, 2009
p190
aVATL vs. IND
p191
aVW
p192
aI7
aI0
aI0
aF0.0
aI0
aI0
aF0.0
aI0
aI0
aF0.0
aI3
aI1
aI4
aI0
aI0
aI0
aI0
aI0
aI0
aI-10
aa(lp193
V0020800985
p194
aVMAR 15, 2009
p195
aVATL vs. POR
p196
aVW
p197
aI9
aI0
aI1
aF0.0
aI0
aI0
aF0.0
aI0
aI0
aF0.0
aI2
aI1
aI3
aI0
aI1
aI0
aI0
aI3
aI0
aI4
aa(lp198
V0020801001
p199
aVMAR 17, 2009
p200
aVATL vs. SAC
p201
aVW
p202
aI5
aI0
aI0
aF0.0
aI0
aI0
aF0.0
aI0
aI0
aF0.0
aI0
aI4
aI4
aI1
aI0
aI0
aI1
aI0
aI0
aI5
aa(lp203
V0020801020
p204
aVMAR 19, 2009
p205
aVATL vs. DAL
p206
aVW
p207
aI4
aI0
aI0
aF0.0
aI0
aI0
aF0.0
aI0
aI0
aF0.0
aI0
aI1
aI1
aI0
aI0
aI0
aI0
aI0
aI0
aI6
aa(lp208
V0020801034
p209
aVMAR 21, 2009
p210
aVATL @ CLE
p211
aVL
p212
aI5
aI0
aI0
aF0.0
aI0
aI0
aF0.0
aI0
aI0
aF0.0
aI0
aI0
aI0
aI1
aI0
aI0
aI0
aI1
aI0
aI7
aa(lp213
V0020801048
p214
aVMAR 23, 2009
p215
aVATL vs. MIN
p216
aVW
p217
aI16
aI0
aI0
aF0.0
aI0
aI0
aF0.0
aI2
aI2
aF1.0
aI2
aI0
aI2
aI0
aI0
aI0
aI0
aI1
aI2
aI-2
aa(lp218
V0020801059
p219
aVMAR 25, 2009
p220
aVATL vs. SAS
p221
aVL
p222
aI9
aI1
aI1
aF1.0
aI0
aI0
aF0.0
aI0
aI0
aF0.0
aI0
aI2
aI2
aI0
aI1
aI0
aI0
aI0
aI2
aI1
aa(lp223
V0020801092
p224
aVMAR 29, 2009
p225
aVATL vs. LAL
p226
aVW
p227
aI6
aI2
aI3
aF0.667
aI0
aI0
aF0.0
aI0
aI0
aF0.0
aI1
aI0
aI1
aI0
aI0
aI0
aI0
aI2
aI4
aI-4
aa(lp228
V0020801107
p229
aVMAR 31, 2009
p230
aVATL @ PHI
p231
aVL
p232
aI7
aI0
aI0
aF0.0
aI0
aI0
aF0.0
aI0
aI0
aF0.0
aI0
aI0
aI0
aI1
aI0
aI0
aI0
aI2
aI0
aI4
aa(lp233
V0020801127
p234
aVAPR 03, 2009
p235
aVATL @ BOS
p236
aVL
p237
aI7
aI1
aI2
aF0.5
aI0
aI0
aF0.0
aI0
aI0
aF0.0
aI1
aI0
aI1
aI0
aI1
aI0
aI0
aI1
aI2
aI3
aa(lp238
V0020801138
p239
aVAPR 04, 2009
p240
aVATL vs. ORL
p241
aVL
p242
aI1
aI0
aI0
aF0.0
aI0
aI0
aF0.0
aI0
aI0
aF0.0
aI0
aI0
aI0
aI0
aI0
aI0
aI0
aI1
aI0
aI-1
aa(lp243
V0020801154
p244
aVAPR 07, 2009
p245
aVATL @ TOR
p246
aVW
p247
aI0
aI0
aI0
aF0.0
aI0
aI0
aF0.0
aI0
aI0
aF0.0
aI0
aI0
aI0
aI0
aI0
aI0
aI0
aI0
aI0
aI0
aa(lp248
V0020801167
p249
aVAPR 08, 2009
p250
aVATL @ MIL
p251
aVW
p252
aI8
aI0
aI0
aF0.0
aI0
aI0
aF0.0
aI0
aI0
aF0.0
aI0
aI0
aI0
aI0
aI1
aI0
aI0
aI1
aI0
aI-1
aa(lp253
V0020801178
p254
aVAPR 10, 2009
p255
aVATL vs. IND
p256
aVW
p257
aI14
aI1
aI2
aF0.5
aI0
aI0
aF0.0
aI0
aI0
aF0.0
aI1
aI1
aI2
aI1
aI1
aI0
aI3
aI5
aI2
aI-8
aa(lp258
V0020801214
p259
aVAPR 14, 2009
p260
aVATL vs. MIA
p261
aVW
p262
aI39
aI1
aI3
aF0.333
aI0
aI0
aF0.0
aI1
aI2
aF0.5
aI1
aI6
aI7
aI3
aI0
aI0
aI0
aI1
aI3
aI-6
aa(lp263
V0020801222
p264
aVAPR 15, 2009
p265
aVATL @ MEM
p266
aVL
p267
aI30
aI0
aI3
aF0.0
aI0
aI0
aF0.0
aI3
aI4
aF0.75
aI1
aI2
aI3
aI3
aI1
aI0
aI2
aI5
aI3
aI-4
aasS'name'
p268
VMario West
p269
sS'weight'
p270
V210
p271
sS'age'
p272
I24
sS'experience'
p273
I1
sS'height'
p274
V6-5
p275
sS'position'
p276
VGuard
p277
s.