(dp0
S'stats'
p1
(lp2
(lp3
V0020800003
p4
aVOCT 28, 2008
p5
aVPOR @ LAL
p6
aVL
p7
aI15
aI1
aI5
aF0.2
aI0
aI0
aF0.0
aI1
aI2
aF0.5
aI0
aI2
aI2
aI0
aI0
aI0
aI2
aI2
aI3
aI1
aa(lp8
V0020800039
p9
aVNOV 01, 2008
p10
aVPOR @ PHX
p11
aVL
p12
aI6
aI0
aI1
aF0.0
aI0
aI1
aF0.0
aI0
aI0
aF0.0
aI0
aI1
aI1
aI1
aI0
aI0
aI0
aI0
aI0
aI1
aa(lp13
V0020800157
p14
aVNOV 18, 2008
p15
aVPOR @ GSW
p16
aVL
p17
aI4
aI0
aI0
aF0.0
aI0
aI0
aF0.0
aI0
aI0
aF0.0
aI0
aI0
aI0
aI0
aI1
aI0
aI1
aI1
aI0
aI-2
aa(lp18
V0020800168
p19
aVNOV 19, 2008
p20
aVPOR vs. CHI
p21
aVW
p22
aI7
aI0
aI1
aF0.0
aI0
aI0
aF0.0
aI1
aI2
aF0.5
aI0
aI0
aI0
aI2
aI0
aI0
aI2
aI0
aI1
aI-1
aa(lp23
V0020800181
p24
aVNOV 21, 2008
p25
aVPOR @ SAC
p26
aVW
p27
aI5
aI2
aI3
aF0.667
aI0
aI0
aF0.0
aI1
aI1
aF1.0
aI0
aI1
aI1
aI1
aI0
aI0
aI1
aI0
aI5
aI-1
aa(lp28
V0020800220
p29
aVNOV 26, 2008
p30
aVPOR vs. MIA
p31
aVW
p32
aI6
aI0
aI0
aF0.0
aI0
aI0
aF0.0
aI0
aI0
aF0.0
aI1
aI3
aI4
aI1
aI0
aI0
aI1
aI0
aI0
aI5
aa(lp33
V0020800234
p34
aVNOV 28, 2008
p35
aVPOR vs. NOH
p36
aVW
p37
aI1
aI0
aI0
aF0.0
aI0
aI0
aF0.0
aI0
aI0
aF0.0
aI0
aI0
aI0
aI0
aI0
aI0
aI0
aI0
aI0
aI0
aa(lp38
V0020800281
p39
aVDEC 05, 2008
p40
aVPOR @ BOS
p41
aVL
p42
aI8
aI2
aI2
aF1.0
aI0
aI0
aF0.0
aI3
aI4
aF0.75
aI0
aI0
aI0
aI1
aI0
aI0
aI2
aI2
aI7
aI0
aa(lp43
V0020800334
p44
aVDEC 12, 2008
p45
aVPOR vs. LAC
p46
aVL
p47
aI6
aI1
aI3
aF0.333
aI1
aI2
aF0.5
aI0
aI0
aF0.0
aI0
aI0
aI0
aI0
aI0
aI0
aI0
aI2
aI3
aI-1
aa(lp48
V0020800364
p49
aVDEC 16, 2008
p50
aVPOR vs. SAC
p51
aVW
p52
aI8
aI1
aI4
aF0.25
aI0
aI0
aF0.0
aI2
aI2
aF1.0
aI0
aI2
aI2
aI2
aI1
aI0
aI0
aI0
aI4
aI1
aa(lp53
V0020800407
p54
aVDEC 22, 2008
p55
aVPOR @ DEN
p56
aVL
p57
aI3
aI0
aI2
aF0.0
aI0
aI0
aF0.0
aI0
aI0
aF0.0
aI0
aI0
aI0
aI0
aI0
aI0
aI1
aI0
aI0
aI-3
aa(lp58
V0020800465
p59
aVDEC 30, 2008
p60
aVPOR vs. BOS
p61
aVW
p62
aI16
aI0
aI4
aF0.0
aI0
aI0
aF0.0
aI2
aI2
aF1.0
aI0
aI1
aI1
aI2
aI1
aI0
aI4
aI2
aI2
aI1
aa(lp63
V0020800486
p64
aVJAN 02, 2009
p65
aVPOR vs. NOH
p66
aVL
p67
aI15
aI1
aI6
aF0.167
aI0
aI1
aF0.0
aI2
aI2
aF1.0
aI0
aI0
aI0
aI2
aI1
aI0
aI0
aI1
aI4
aI-11
aa(lp68
V0020800500
p69
aVJAN 04, 2009
p70
aVPOR @ LAL
p71
aVL
p72
aI12
aI0
aI4
aF0.0
aI0
aI2
aF0.0
aI2
aI4
aF0.5
aI1
aI3
aI4
aI4
aI1
aI0
aI1
aI3
aI2
aI0
aa(lp73
V0020800524
p74
aVJAN 07, 2009
p75
aVPOR vs. DET
p76
aVW
p77
aI17
aI2
aI6
aF0.333
aI0
aI1
aF0.0
aI4
aI4
aF1.0
aI0
aI0
aI0
aI2
aI2
aI0
aI0
aI1
aI8
aI10
aa(lp78
V0020800545
p79
aVJAN 10, 2009
p80
aVPOR vs. GSW
p81
aVW
p82
aI5
aI0
aI1
aF0.0
aI0
aI1
aF0.0
aI2
aI2
aF1.0
aI0
aI0
aI0
aI0
aI0
aI0
aI1
aI2
aI2
aI-8
aa(lp83
V0020800557
p84
aVJAN 12, 2009
p85
aVPOR @ CHI
p86
aVW
p87
aI9
aI3
aI4
aF0.75
aI0
aI0
aF0.0
aI1
aI1
aF1.0
aI0
aI0
aI0
aI0
aI0
aI0
aI1
aI1
aI7
aI-3
aa(lp88
V0020800567
p89
aVJAN 14, 2009
p90
aVPOR @ PHI
p91
aVL
p92
aI25
aI1
aI11
aF0.091
aI0
aI2
aF0.0
aI3
aI4
aF0.75
aI1
aI1
aI2
aI0
aI0
aI0
aI2
aI3
aI5
aI-9
aa(lp93
V0020800577
p94
aVJAN 15, 2009
p95
aVPOR @ NJN
p96
aVW
p97
aI25
aI6
aI9
aF0.667
aI0
aI0
aF0.0
aI11
aI11
aF1.0
aI0
aI3
aI3
aI3
aI0
aI0
aI1
aI2
aI23
aI5
aa(lp98
V0020800591
p99
aVJAN 17, 2009
p100
aVPOR @ CHA
p101
aVL
p102
aI32
aI6
aI9
aF0.667
aI0
aI0
aF0.0
aI2
aI3
aF0.667
aI0
aI4
aI4
aI0
aI0
aI0
aI1
aI2
aI14
aI-3
aa(lp103
V0020800611
p104
aVJAN 19, 2009
p105
aVPOR vs. MIL
p106
aVW
p107
aI14
aI1
aI4
aF0.25
aI1
aI1
aF1.0
aI4
aI6
aF0.667
aI0
aI2
aI2
aI1
aI0
aI0
aI1
aI4
aI7
aI-1
aa(lp108
V0020800624
p109
aVJAN 21, 2009
p110
aVPOR vs. CLE
p111
aVL
p112
aI18
aI2
aI3
aF0.667
aI0
aI1
aF0.0
aI6
aI6
aF1.0
aI0
aI1
aI1
aI1
aI0
aI0
aI1
aI6
aI10
aI-2
aa(lp113
V0020800645
p114
aVJAN 24, 2009
p115
aVPOR vs. WAS
p116
aVW
p117
aI15
aI0
aI3
aF0.0
aI0
aI0
aF0.0
aI3
aI4
aF0.75
aI0
aI1
aI1
aI1
aI1
aI0
aI2
aI0
aI3
aI-7
aa(lp118
V0020800661
p119
aVJAN 26, 2009
p120
aVPOR @ LAC
p121
aVW
p122
aI22
aI2
aI6
aF0.333
aI1
aI3
aF0.333
aI0
aI0
aF0.0
aI0
aI0
aI0
aI6
aI1
aI0
aI1
aI4
aI5
aI25
aa(lp123
V0020800677
p124
aVJAN 28, 2009
p125
aVPOR vs. CHA
p126
aVW
p127
aI24
aI3
aI8
aF0.375
aI1
aI1
aF1.0
aI4
aI4
aF1.0
aI0
aI3
aI3
aI2
aI0
aI1
aI1
aI2
aI11
aI24
aa(lp128
V0020800701
p129
aVJAN 31, 2009
p130
aVPOR vs. UTA
p131
aVW
p132
aI24
aI1
aI4
aF0.25
aI0
aI3
aF0.0
aI2
aI2
aF1.0
aI0
aI1
aI1
aI4
aI1
aI0
aI0
aI3
aI4
aI-5
aa(lp133
V0020800710
p134
aVFEB 02, 2009
p135
aVPOR @ NOH
p136
aVW
p137
aI24
aI7
aI9
aF0.778
aI0
aI1
aF0.0
aI5
aI7
aF0.714
aI0
aI2
aI2
aI6
aI2
aI0
aI1
aI4
aI19
aI16
aa(lp138
V0020800729
p139
aVFEB 04, 2009
p140
aVPOR @ DAL
p141
aVL
p142
aI34
aI6
aI9
aF0.667
aI0
aI0
aF0.0
aI2
aI2
aF1.0
aI1
aI3
aI4
aI4
aI0
aI0
aI4
aI5
aI14
aI0
aa(lp143
V0020800739
p144
aVFEB 06, 2009
p145
aVPOR @ OKC
p146
aVL
p147
aI26
aI0
aI3
aF0.0
aI0
aI1
aF0.0
aI3
aI4
aF0.75
aI1
aI0
aI1
aI2
aI0
aI0
aI2
aI3
aI3
aI-5
aa(lp148
V0020800754
p149
aVFEB 08, 2009
p150
aVPOR vs. NYK
p151
aVW
p152
aI10
aI1
aI2
aF0.5
aI1
aI1
aF1.0
aI2
aI2
aF1.0
aI0
aI1
aI1
aI1
aI1
aI0
aI3
aI2
aI5
aI-1
aa(lp153
V0020800783
p154
aVFEB 11, 2009
p155
aVPOR vs. OKC
p156
aVW
p157
aI28
aI5
aI11
aF0.455
aI0
aI0
aF0.0
aI2
aI2
aF1.0
aI1
aI0
aI1
aI8
aI1
aI0
aI1
aI1
aI12
aI11
aa(lp158
V0020800787
p159
aVFEB 12, 2009
p160
aVPOR @ GSW
p161
aVL
p162
aI16
aI1
aI5
aF0.2
aI1
aI1
aF1.0
aI1
aI2
aF0.5
aI1
aI1
aI2
aI0
aI0
aI0
aI2
aI2
aI4
aI-10
aa(lp163
V0020800820
p164
aVFEB 20, 2009
p165
aVPOR vs. ATL
p166
aVW
p167
aI2
aI0
aI0
aF0.0
aI0
aI0
aF0.0
aI0
aI0
aF0.0
aI0
aI0
aI0
aI2
aI1
aI0
aI0
aI0
aI0
aI4
aa(lp168
V0020800833
p169
aVFEB 22, 2009
p170
aVPOR vs. LAC
p171
aVW
p172
aI12
aI3
aI6
aF0.5
aI1
aI2
aF0.5
aI0
aI0
aF0.0
aI0
aI0
aI0
aI2
aI0
aI0
aI1
aI3
aI7
aI-9
aa(lp173
V0020800847
p174
aVFEB 24, 2009
p175
aVPOR @ HOU
p176
aVL
p177
aI6
aI0
aI1
aF0.0
aI0
aI1
aF0.0
aI0
aI0
aF0.0
aI0
aI0
aI0
aI2
aI0
aI0
aI0
aI1
aI0
aI1
aa(lp178
V0020800869
p179
aVFEB 27, 2009
p180
aVPOR @ MIN
p181
aVW
p182
aI14
aI0
aI1
aF0.0
aI0
aI0
aF0.0
aI2
aI2
aF1.0
aI0
aI3
aI3
aI4
aI0
aI0
aI0
aI2
aI2
aI0
aa(lp183
V0020800889
p184
aVMAR 01, 2009
p185
aVPOR vs. SAS
p186
aVW
p187
aI7
aI0
aI2
aF0.0
aI0
aI0
aF0.0
aI3
aI4
aF0.75
aI0
aI0
aI0
aI1
aI0
aI0
aI0
aI1
aI3
aI-3
aa(lp188
V0020800913
p189
aVMAR 04, 2009
p190
aVPOR vs. IND
p191
aVW
p192
aI13
aI2
aI5
aF0.4
aI0
aI1
aF0.0
aI1
aI1
aF1.0
aI0
aI1
aI1
aI1
aI0
aI1
aI2
aI3
aI5
aI10
aa(lp193
V0020800916
p194
aVMAR 05, 2009
p195
aVPOR @ DEN
p196
aVL
p197
aI13
aI0
aI2
aF0.0
aI0
aI0
aF0.0
aI3
aI4
aF0.75
aI0
aI1
aI1
aI1
aI0
aI0
aI2
aI3
aI3
aI-1
aa(lp198
V0020800934
p199
aVMAR 07, 2009
p200
aVPOR vs. MIN
p201
aVW
p202
aI7
aI1
aI3
aF0.333
aI0
aI0
aF0.0
aI0
aI0
aF0.0
aI1
aI2
aI3
aI1
aI0
aI0
aI1
aI3
aI2
aI-3
aa(lp203
V0020800948
p204
aVMAR 09, 2009
p205
aVPOR vs. LAL
p206
aVW
p207
aI3
aI0
aI1
aF0.0
aI0
aI0
aF0.0
aI0
aI0
aF0.0
aI0
aI0
aI0
aI0
aI0
aI0
aI1
aI0
aI0
aI-10
aa(lp208
V0020800964
p209
aVMAR 11, 2009
p210
aVPOR vs. DAL
p211
aVL
p212
aI8
aI0
aI2
aF0.0
aI0
aI0
aF0.0
aI0
aI0
aF0.0
aI0
aI1
aI1
aI0
aI0
aI0
aI0
aI0
aI0
aI-7
aa(lp213
V0020800976
p214
aVMAR 13, 2009
p215
aVPOR vs. NJN
p216
aVW
p217
aI11
aI0
aI2
aF0.0
aI0
aI0
aF0.0
aI0
aI0
aF0.0
aI0
aI1
aI1
aI2
aI0
aI0
aI1
aI2
aI0
aI-5
aa(lp218
V0020800985
p219
aVMAR 15, 2009
p220
aVPOR @ ATL
p221
aVL
p222
aI10
aI0
aI0
aF0.0
aI0
aI0
aF0.0
aI0
aI2
aF0.0
aI0
aI0
aI0
aI0
aI0
aI0
aI1
aI0
aI0
aI-7
aa(lp223
V0020800997
p224
aVMAR 16, 2009
p225
aVPOR @ MEM
p226
aVW
p227
aI11
aI1
aI3
aF0.333
aI0
aI0
aF0.0
aI2
aI2
aF1.0
aI0
aI0
aI0
aI0
aI0
aI0
aI3
aI1
aI4
aI-11
aa(lp228
V0020801011
p229
aVMAR 18, 2009
p230
aVPOR @ IND
p231
aVW
p232
aI17
aI0
aI2
aF0.0
aI0
aI0
aF0.0
aI0
aI0
aF0.0
aI0
aI1
aI1
aI0
aI1
aI0
aI1
aI1
aI0
aI-3
aa(lp233
V0020801021
p234
aVMAR 19, 2009
p235
aVPOR @ CLE
p236
aVL
p237
aI5
aI0
aI1
aF0.0
aI0
aI0
aF0.0
aI0
aI0
aF0.0
aI0
aI1
aI1
aI0
aI0
aI0
aI0
aI0
aI0
aI-1
aa(lp238
V0020801072
p239
aVMAR 26, 2009
p240
aVPOR vs. PHX
p241
aVW
p242
aI4
aI1
aI1
aF1.0
aI0
aI0
aF0.0
aI0
aI0
aF0.0
aI0
aI0
aI0
aI0
aI0
aI0
aI1
aI1
aI2
aI-7
aa(lp243
V0020801090
p244
aVMAR 28, 2009
p245
aVPOR vs. MEM
p246
aVW
p247
aI3
aI0
aI0
aF0.0
aI0
aI0
aF0.0
aI0
aI0
aF0.0
aI0
aI0
aI0
aI1
aI0
aI0
aI1
aI0
aI0
aI-3
aa(lp248
V0020801111
p249
aVMAR 31, 2009
p250
aVPOR vs. UTA
p251
aVW
p252
aI3
aI2
aI2
aF1.0
aI0
aI0
aF0.0
aI1
aI1
aF1.0
aI0
aI0
aI0
aI0
aI0
aI0
aI1
aI0
aI5
aI-2
aa(lp253
V0020801129
p254
aVAPR 03, 2009
p255
aVPOR @ OKC
p256
aVW
p257
aI6
aI1
aI4
aF0.25
aI0
aI0
aF0.0
aI0
aI0
aF0.0
aI0
aI0
aI0
aI1
aI0
aI0
aI0
aI0
aI2
aI8
aa(lp258
V0020801212
p259
aVAPR 13, 2009
p260
aVPOR vs. OKC
p261
aVW
p262
aI11
aI1
aI5
aF0.2
aI0
aI0
aF0.0
aI0
aI2
aF0.0
aI0
aI0
aI0
aI2
aI0
aI0
aI0
aI0
aI2
aI-1
aa(lp263
V0020801230
p264
aVAPR 15, 2009
p265
aVPOR vs. DEN
p266
aVW
p267
aI6
aI2
aI4
aF0.5
aI0
aI0
aF0.0
aI0
aI0
aF0.0
aI0
aI2
aI2
aI1
aI0
aI0
aI0
aI0
aI4
aI-2
aasS'name'
p268
VJerryd Bayless
p269
sS'weight'
p270
V200
p271
sS'age'
p272
I20
sS'experience'
p273
I0
sS'height'
p274
V6-3
p275
sS'position'
p276
VGuard
p277
s.