(dp0
S'stats'
p1
(lp2
(lp3
V0020800006
p4
aVOCT 29, 2008
p5
aVNJN @ WAS
p6
aVW
p7
aI25
aI3
aI8
aF0.375
aI0
aI0
aF0.0
aI2
aI3
aF0.667
aI1
aI7
aI8
aI1
aI1
aI2
aI0
aI3
aI8
aI12
aa(lp8
V0020800031
p9
aVNOV 01, 2008
p10
aVNJN vs. GSW
p11
aVL
p12
aI19
aI4
aI7
aF0.571
aI0
aI0
aF0.0
aI2
aI2
aF1.0
aI2
aI6
aI8
aI1
aI2
aI2
aI3
aI6
aI10
aI-8
aa(lp13
V0020800048
p14
aVNOV 04, 2008
p15
aVNJN vs. PHX
p16
aVL
p17
aI19
aI1
aI6
aF0.167
aI0
aI0
aF0.0
aI0
aI0
aF0.0
aI2
aI4
aI6
aI0
aI1
aI2
aI4
aI4
aI2
aI-12
aa(lp18
V0020800071
p19
aVNOV 07, 2008
p20
aVNJN vs. DET
p21
aVW
p22
aI13
aI0
aI3
aF0.0
aI0
aI0
aF0.0
aI2
aI2
aF1.0
aI1
aI3
aI4
aI0
aI0
aI1
aI2
aI1
aI2
aI-15
aa(lp23
V0020800079
p24
aVNOV 08, 2008
p25
aVNJN @ IND
p26
aVL
p27
aI15
aI3
aI4
aF0.75
aI0
aI0
aF0.0
aI2
aI3
aF0.667
aI0
aI1
aI1
aI0
aI2
aI0
aI0
aI4
aI8
aI-3
aa(lp28
V0020800096
p29
aVNOV 10, 2008
p30
aVNJN @ MIA
p31
aVL
p32
aI14
aI0
aI2
aF0.0
aI0
aI0
aF0.0
aI0
aI0
aF0.0
aI1
aI2
aI3
aI1
aI0
aI0
aI3
aI2
aI0
aI-3
aa(lp33
V0020800109
p34
aVNOV 12, 2008
p35
aVNJN vs. IND
p36
aVL
p37
aI20
aI0
aI2
aF0.0
aI0
aI0
aF0.0
aI1
aI2
aF0.5
aI1
aI4
aI5
aI0
aI0
aI0
aI0
aI2
aI1
aI-2
aa(lp38
V0020800123
p39
aVNOV 14, 2008
p40
aVNJN vs. ATL
p41
aVW
p42
aI34
aI11
aI17
aF0.647
aI0
aI0
aF0.0
aI3
aI4
aF0.75
aI6
aI3
aI9
aI2
aI2
aI4
aI0
aI2
aI25
aI2
aa(lp43
V0020800133
p44
aVNOV 15, 2008
p45
aVNJN @ ATL
p46
aVW
p47
aI28
aI2
aI3
aF0.667
aI0
aI0
aF0.0
aI1
aI2
aF0.5
aI0
aI7
aI7
aI1
aI0
aI3
aI2
aI4
aI5
aI6
aa(lp48
V0020800154
p49
aVNOV 18, 2008
p50
aVNJN vs. CLE
p51
aVL
p52
aI33
aI6
aI13
aF0.462
aI0
aI0
aF0.0
aI3
aI3
aF1.0
aI8
aI5
aI13
aI0
aI1
aI0
aI1
aI6
aI15
aI-17
aa(lp53
V0020800173
p54
aVNOV 21, 2008
p55
aVNJN @ TOR
p56
aVW
p57
aI30
aI7
aI11
aF0.636
aI0
aI0
aF0.0
aI0
aI1
aF0.0
aI2
aI4
aI6
aI0
aI0
aI1
aI0
aI4
aI14
aI18
aa(lp58
V0020800188
p59
aVNOV 22, 2008
p60
aVNJN vs. LAC
p61
aVW
p62
aI35
aI6
aI10
aF0.6
aI0
aI0
aF0.0
aI2
aI3
aF0.667
aI2
aI8
aI10
aI1
aI0
aI0
aI2
aI3
aI14
aI22
aa(lp63
V0020800209
p64
aVNOV 25, 2008
p65
aVNJN @ LAL
p66
aVL
p67
aI39
aI6
aI15
aF0.4
aI0
aI0
aF0.0
aI5
aI6
aF0.833
aI5
aI5
aI10
aI2
aI1
aI3
aI1
aI3
aI17
aI-20
aa(lp68
V0020800221
p69
aVNOV 26, 2008
p70
aVNJN @ SAC
p71
aVW
p72
aI42
aI8
aI14
aF0.571
aI0
aI0
aF0.0
aI4
aI5
aF0.8
aI2
aI6
aI8
aI2
aI0
aI3
aI2
aI3
aI20
aI1
aa(lp73
V0020800244
p74
aVNOV 29, 2008
p75
aVNJN @ UTA
p76
aVW
p77
aI28
aI1
aI4
aF0.25
aI0
aI0
aF0.0
aI0
aI0
aF0.0
aI2
aI6
aI8
aI0
aI0
aI4
aI2
aI4
aI2
aI4
aa(lp78
V0020800250
p79
aVNOV 30, 2008
p80
aVNJN @ PHX
p81
aVW
p82
aI30
aI5
aI8
aF0.625
aI0
aI0
aF0.0
aI2
aI2
aF1.0
aI4
aI3
aI7
aI0
aI1
aI1
aI3
aI3
aI12
aI5
aa(lp83
V0020800256
p84
aVDEC 02, 2008
p85
aVNJN vs. WAS
p86
aVL
p87
aI35
aI3
aI9
aF0.333
aI0
aI0
aF0.0
aI4
aI4
aF1.0
aI3
aI6
aI9
aI1
aI0
aI3
aI2
aI1
aI10
aI-6
aa(lp88
V0020800280
p89
aVDEC 05, 2008
p90
aVNJN vs. MIN
p91
aVW
p92
aI25
aI3
aI9
aF0.333
aI0
aI0
aF0.0
aI5
aI6
aF0.833
aI5
aI5
aI10
aI2
aI0
aI0
aI0
aI2
aI11
aI14
aa(lp93
V0020800289
p94
aVDEC 06, 2008
p95
aVNJN @ PHI
p96
aVW
p97
aI26
aI3
aI7
aF0.429
aI0
aI0
aF0.0
aI0
aI0
aF0.0
aI3
aI8
aI11
aI0
aI0
aI3
aI2
aI3
aI6
aI17
aa(lp98
V0020800315
p99
aVDEC 10, 2008
p100
aVNJN vs. NYK
p101
aVL
p102
aI26
aI4
aI7
aF0.571
aI0
aI0
aF0.0
aI0
aI0
aF0.0
aI2
aI4
aI6
aI1
aI0
aI4
aI5
aI1
aI8
aI-4
aa(lp103
V0020800328
p104
aVDEC 12, 2008
p105
aVNJN vs. TOR
p106
aVL
p107
aI27
aI3
aI8
aF0.375
aI0
aI0
aF0.0
aI0
aI0
aF0.0
aI2
aI6
aI8
aI1
aI1
aI2
aI2
aI4
aI6
aI-26
aa(lp108
V0020800340
p109
aVDEC 13, 2008
p110
aVNJN @ CHI
p111
aVL
p112
aI33
aI8
aI14
aF0.571
aI0
aI0
aF0.0
aI1
aI2
aF0.5
aI3
aI4
aI7
aI0
aI0
aI3
aI0
aI1
aI17
aI4
aa(lp113
V0020800352
p114
aVDEC 15, 2008
p115
aVNJN @ TOR
p116
aVW
p117
aI25
aI4
aI13
aF0.308
aI0
aI0
aF0.0
aI2
aI2
aF1.0
aI3
aI4
aI7
aI2
aI0
aI3
aI4
aI6
aI10
aI8
aa(lp118
V0020800371
p119
aVDEC 17, 2008
p120
aVNJN vs. UTA
p121
aVL
p122
aI32
aI7
aI13
aF0.538
aI0
aI0
aF0.0
aI1
aI2
aF0.5
aI3
aI4
aI7
aI0
aI0
aI2
aI0
aI6
aI15
aI-12
aa(lp123
V0020800381
p124
aVDEC 19, 2008
p125
aVNJN vs. DAL
p126
aVW
p127
aI31
aI4
aI10
aF0.4
aI0
aI0
aF0.0
aI0
aI0
aF0.0
aI3
aI3
aI6
aI0
aI2
aI0
aI1
aI2
aI8
aI7
aa(lp128
V0020800393
p129
aVDEC 20, 2008
p130
aVNJN vs. MIA
p131
aVL
p132
aI36
aI11
aI16
aF0.688
aI0
aI0
aF0.0
aI0
aI0
aF0.0
aI6
aI7
aI13
aI0
aI2
aI5
aI1
aI4
aI22
aI-9
aa(lp133
V0020800404
p134
aVDEC 22, 2008
p135
aVNJN vs. HOU
p136
aVL
p137
aI30
aI4
aI11
aF0.364
aI0
aI0
aF0.0
aI0
aI0
aF0.0
aI3
aI6
aI9
aI1
aI0
aI2
aI0
aI0
aI8
aI-14
aa(lp138
V0020800412
p139
aVDEC 23, 2008
p140
aVNJN @ IND
p141
aVW
p142
aI30
aI1
aI6
aF0.167
aI0
aI0
aF0.0
aI0
aI0
aF0.0
aI3
aI5
aI8
aI0
aI0
aI2
aI4
aI2
aI2
aI2
aa(lp143
V0020800427
p144
aVDEC 26, 2008
p145
aVNJN vs. CHA
p146
aVL
p147
aI32
aI6
aI11
aF0.545
aI0
aI0
aF0.0
aI2
aI4
aF0.5
aI4
aI3
aI7
aI1
aI1
aI2
aI2
aI4
aI14
aI-12
aa(lp148
V0020800437
p149
aVDEC 27, 2008
p150
aVNJN @ CHA
p151
aVW
p152
aI31
aI3
aI8
aF0.375
aI0
aI0
aF0.0
aI0
aI0
aF0.0
aI3
aI10
aI13
aI1
aI1
aI2
aI0
aI6
aI6
aI1
aa(lp153
V0020800452
p154
aVDEC 29, 2008
p155
aVNJN vs. CHI
p156
aVL
p157
aI27
aI4
aI9
aF0.444
aI0
aI0
aF0.0
aI1
aI1
aF1.0
aI3
aI5
aI8
aI0
aI0
aI2
aI0
aI3
aI9
aI-12
aa(lp158
V0020800468
p159
aVDEC 31, 2008
p160
aVNJN @ DET
p161
aVL
p162
aI37
aI8
aI13
aF0.615
aI0
aI0
aF0.0
aI7
aI7
aF1.0
aI6
aI6
aI12
aI3
aI0
aI2
aI3
aI4
aI23
aI0
aa(lp163
V0020800477
p164
aVJAN 02, 2009
p165
aVNJN vs. ATL
p166
aVW
p167
aI37
aI3
aI10
aF0.3
aI0
aI0
aF0.0
aI1
aI1
aF1.0
aI4
aI7
aI11
aI2
aI2
aI2
aI4
aI4
aI7
aI-1
aa(lp168
V0020800491
p169
aVJAN 03, 2009
p170
aVNJN @ MIA
p171
aVL
p172
aI31
aI6
aI17
aF0.353
aI0
aI0
aF0.0
aI0
aI0
aF0.0
aI5
aI3
aI8
aI1
aI0
aI1
aI2
aI2
aI12
aI-4
aa(lp173
V0020800502
p174
aVJAN 05, 2009
p175
aVNJN vs. SAC
p176
aVW
p177
aI23
aI1
aI7
aF0.143
aI0
aI0
aF0.0
aI1
aI2
aF0.5
aI5
aI3
aI8
aI0
aI0
aI1
aI3
aI3
aI3
aI5
aa(lp178
V0020800518
p179
aVJAN 07, 2009
p180
aVNJN vs. MEM
p181
aVW
p182
aI32
aI8
aI11
aF0.727
aI0
aI0
aF0.0
aI1
aI1
aF1.0
aI0
aI8
aI8
aI0
aI1
aI5
aI3
aI3
aI17
aI4
aa(lp183
V0020800535
p184
aVJAN 09, 2009
p185
aVNJN @ MIL
p186
aVL
p187
aI35
aI4
aI6
aF0.667
aI0
aI0
aF0.0
aI0
aI0
aF0.0
aI2
aI6
aI8
aI0
aI1
aI2
aI3
aI4
aI8
aI3
aa(lp188
V0020800555
p189
aVJAN 12, 2009
p190
aVNJN vs. OKC
p191
aVW
p192
aI41
aI10
aI17
aF0.588
aI0
aI0
aF0.0
aI11
aI12
aF0.917
aI5
aI8
aI13
aI0
aI0
aI2
aI2
aI2
aI31
aI9
aa(lp193
V0020800569
p194
aVJAN 14, 2009
p195
aVNJN @ BOS
p196
aVL
p197
aI31
aI4
aI14
aF0.286
aI0
aI0
aF0.0
aI5
aI6
aF0.833
aI3
aI5
aI8
aI2
aI1
aI5
aI3
aI2
aI13
aI-11
aa(lp198
V0020800577
p199
aVJAN 15, 2009
p200
aVNJN vs. POR
p201
aVL
p202
aI33
aI7
aI10
aF0.7
aI0
aI0
aF0.0
aI3
aI3
aF1.0
aI2
aI4
aI6
aI2
aI1
aI2
aI1
aI3
aI17
aI-1
aa(lp203
V0020800590
p204
aVJAN 17, 2009
p205
aVNJN vs. BOS
p206
aVL
p207
aI41
aI12
aI17
aF0.706
aI0
aI0
aF0.0
aI4
aI5
aF0.8
aI2
aI8
aI10
aI0
aI0
aI0
aI3
aI2
aI28
aI-18
aa(lp208
V0020800622
p209
aVJAN 21, 2009
p210
aVNJN @ NOH
p211
aVL
p212
aI33
aI4
aI8
aF0.5
aI0
aI0
aF0.0
aI0
aI0
aF0.0
aI1
aI2
aI3
aI0
aI0
aI0
aI3
aI2
aI8
aI-4
aa(lp213
V0020800637
p214
aVJAN 23, 2009
p215
aVNJN @ SAS
p216
aVL
p217
aI36
aI7
aI17
aF0.412
aI0
aI0
aF0.0
aI1
aI1
aF1.0
aI3
aI5
aI8
aI1
aI1
aI1
aI0
aI3
aI15
aI1
aa(lp218
V0020800642
p219
aVJAN 24, 2009
p220
aVNJN @ MEM
p221
aVW
p222
aI31
aI3
aI8
aF0.375
aI0
aI0
aF0.0
aI2
aI2
aF1.0
aI2
aI1
aI3
aI1
aI1
aI3
aI1
aI3
aI8
aI9
aa(lp223
V0020800660
p224
aVJAN 26, 2009
p225
aVNJN @ OKC
p226
aVL
p227
aI31
aI8
aI13
aF0.615
aI0
aI0
aF0.0
aI2
aI2
aF1.0
aI3
aI4
aI7
aI0
aI1
aI0
aI1
aI0
aI18
aI-2
aa(lp228
V0020800670
p229
aVJAN 28, 2009
p230
aVNJN vs. TOR
p231
aVL
p232
aI34
aI7
aI10
aF0.7
aI0
aI0
aF0.0
aI0
aI0
aF0.0
aI1
aI3
aI4
aI0
aI0
aI1
aI3
aI4
aI14
aI8
aa(lp233
V0020800685
p234
aVJAN 30, 2009
p235
aVNJN @ ATL
p236
aVL
p237
aI25
aI6
aI12
aF0.5
aI0
aI0
aF0.0
aI3
aI3
aF1.0
aI2
aI3
aI5
aI0
aI0
aI0
aI2
aI5
aI15
aI-2
aa(lp238
V0020800693
p239
aVJAN 31, 2009
p240
aVNJN @ PHI
p241
aVW
p242
aI38
aI10
aI20
aF0.5
aI0
aI0
aF0.0
aI4
aI4
aF1.0
aI7
aI10
aI17
aI1
aI0
aI4
aI5
aI3
aI24
aI5
aa(lp243
V0020800717
p244
aVFEB 03, 2009
p245
aVNJN vs. MIL
p246
aVW
p247
aI37
aI10
aI14
aF0.714
aI0
aI0
aF0.0
aI2
aI3
aF0.667
aI3
aI9
aI12
aI1
aI0
aI2
aI3
aI3
aI22
aI20
aa(lp248
V0020800722
p249
aVFEB 04, 2009
p250
aVNJN @ WAS
p251
aVW
p252
aI24
aI6
aI6
aF1.0
aI0
aI0
aF0.0
aI0
aI0
aF0.0
aI3
aI9
aI12
aI2
aI1
aI1
aI2
aI2
aI12
aI23
aa(lp253
V0020800745
p254
aVFEB 07, 2009
p255
aVNJN vs. DEN
p256
aVW
p257
aI22
aI6
aI12
aF0.5
aI0
aI0
aF0.0
aI3
aI4
aF0.75
aI1
aI8
aI9
aI2
aI0
aI2
aI1
aI3
aI15
aI19
aa(lp258
V0020800753
p259
aVFEB 08, 2009
p260
aVNJN @ ORL
p261
aVL
p262
aI35
aI9
aI15
aF0.6
aI0
aI0
aF0.0
aI1
aI2
aF0.5
aI6
aI6
aI12
aI3
aI0
aI1
aI1
aI4
aI19
aI-9
aa(lp263
V0020800767
p264
aVFEB 10, 2009
p265
aVNJN vs. SAS
p266
aVL
p267
aI29
aI9
aI14
aF0.643
aI0
aI0
aF0.0
aI0
aI1
aF0.0
aI1
aI3
aI4
aI1
aI0
aI0
aI1
aI2
aI18
aI-16
aa(lp268
V0020800794
p269
aVFEB 17, 2009
p270
aVNJN @ HOU
p271
aVL
p272
aI29
aI9
aI14
aF0.643
aI0
aI0
aF0.0
aI3
aI3
aF1.0
aI0
aI9
aI9
aI3
aI1
aI4
aI3
aI3
aI21
aI-8
aa(lp273
V0020800804
p274
aVFEB 18, 2009
p275
aVNJN @ DAL
p276
aVL
p277
aI26
aI7
aI12
aF0.583
aI0
aI0
aF0.0
aI2
aI2
aF1.0
aI4
aI3
aI7
aI0
aI0
aI1
aI0
aI4
aI16
aI-23
aa(lp278
V0020800815
p279
aVFEB 20, 2009
p280
aVNJN vs. WAS
p281
aVL
p282
aI33
aI7
aI12
aF0.583
aI0
aI0
aF0.0
aI2
aI2
aF1.0
aI3
aI5
aI8
aI0
aI0
aI3
aI3
aI4
aI16
aI1
aa(lp283
V0020800836
p284
aVFEB 23, 2009
p285
aVNJN vs. PHI
p286
aVW
p287
aI29
aI3
aI6
aF0.5
aI0
aI0
aF0.0
aI1
aI2
aF0.5
aI2
aI3
aI5
aI2
aI0
aI2
aI1
aI4
aI7
aI-3
aa(lp288
V0020800852
p289
aVFEB 25, 2009
p290
aVNJN vs. CHI
p291
aVW
p292
aI31
aI6
aI13
aF0.462
aI0
aI1
aF0.0
aI1
aI1
aF1.0
aI2
aI5
aI7
aI2
aI0
aI1
aI1
aI5
aI13
aI3
aa(lp293
V0020800886
p294
aVMAR 01, 2009
p295
aVNJN vs. NOH
p296
aVL
p297
aI31
aI4
aI7
aF0.571
aI0
aI0
aF0.0
aI0
aI0
aF0.0
aI4
aI8
aI12
aI3
aI1
aI2
aI1
aI4
aI8
aI-5
aa(lp298
V0020800900
p299
aVMAR 03, 2009
p300
aVNJN @ MIL
p301
aVW
p302
aI39
aI9
aI12
aF0.75
aI0
aI0
aF0.0
aI6
aI7
aF0.857
aI2
aI10
aI12
aI0
aI1
aI3
aI2
aI1
aI24
aI9
aa(lp303
V0020800907
p304
aVMAR 04, 2009
p305
aVNJN vs. BOS
p306
aVL
p307
aI36
aI4
aI5
aF0.8
aI0
aI0
aF0.0
aI2
aI3
aF0.667
aI1
aI4
aI5
aI4
aI0
aI0
aI0
aI4
aI10
aI1
aa(lp308
V0020800918
p309
aVMAR 06, 2009
p310
aVNJN @ ORL
p311
aVL
p312
aI25
aI4
aI6
aF0.667
aI0
aI0
aF0.0
aI0
aI0
aF0.0
aI2
aI4
aI6
aI1
aI2
aI3
aI1
aI5
aI8
aI-13
aa(lp313
V0020800939
p314
aVMAR 08, 2009
p315
aVNJN vs. NYK
p316
aVW
p317
aI29
aI7
aI14
aF0.5
aI0
aI0
aF0.0
aI2
aI2
aF1.0
aI1
aI5
aI6
aI1
aI1
aI1
aI5
aI3
aI16
aI7
aa(lp318
V0020800965
p319
aVMAR 11, 2009
p320
aVNJN @ GSW
p321
aVL
p322
aI36
aI7
aI11
aF0.636
aI0
aI0
aF0.0
aI0
aI0
aF0.0
aI2
aI4
aI6
aI0
aI2
aI2
aI0
aI3
aI14
aI-2
aa(lp323
V0020800976
p324
aVMAR 13, 2009
p325
aVNJN @ POR
p326
aVL
p327
aI33
aI9
aI12
aF0.75
aI0
aI0
aF0.0
aI4
aI4
aF1.0
aI4
aI2
aI6
aI3
aI1
aI0
aI1
aI6
aI22
aI-11
aa(lp328
V0020800995
p329
aVMAR 15, 2009
p330
aVNJN @ LAC
p331
aVL
p332
aI36
aI6
aI8
aF0.75
aI0
aI0
aF0.0
aI2
aI2
aF1.0
aI0
aI5
aI5
aI0
aI0
aI4
aI1
aI4
aI14
aI13
aa(lp333
V0020801000
p334
aVMAR 16, 2009
p335
aVNJN @ DEN
p336
aVL
p337
aI30
aI3
aI6
aF0.5
aI0
aI0
aF0.0
aI3
aI4
aF0.75
aI1
aI5
aI6
aI3
aI1
aI0
aI4
aI4
aI9
aI-22
aa(lp338
V0020801012
p339
aVMAR 18, 2009
p340
aVNJN @ NYK
p341
aVW
p342
aI35
aI11
aI20
aF0.55
aI0
aI0
aF0.0
aI1
aI2
aF0.5
aI1
aI4
aI5
aI8
aI3
aI3
aI2
aI2
aI23
aI17
aa(lp343
V0020801025
p344
aVMAR 20, 2009
p345
aVNJN vs. MIA
p346
aVW
p347
aI32
aI4
aI13
aF0.308
aI0
aI0
aF0.0
aI7
aI8
aF0.875
aI3
aI4
aI7
aI0
aI0
aI2
aI3
aI3
aI15
aI12
aa(lp348
V0020801045
p349
aVMAR 22, 2009
p350
aVNJN vs. CLE
p351
aVL
p352
aI38
aI5
aI13
aF0.385
aI0
aI1
aF0.0
aI6
aI7
aF0.857
aI1
aI5
aI6
aI3
aI1
aI0
aI0
aI1
aI16
aI-12
aa(lp353
V0020801060
p354
aVMAR 25, 2009
p355
aVNJN @ CLE
p356
aVL
p357
aI33
aI4
aI8
aF0.5
aI0
aI0
aF0.0
aI1
aI2
aF0.5
aI5
aI5
aI10
aI0
aI0
aI2
aI1
aI4
aI9
aI-13
aa(lp358
V0020801078
p359
aVMAR 27, 2009
p360
aVNJN vs. LAL
p361
aVL
p362
aI29
aI8
aI11
aF0.727
aI0
aI0
aF0.0
aI0
aI2
aF0.0
aI3
aI7
aI10
aI1
aI0
aI1
aI3
aI3
aI16
aI-19
aa(lp363
V0020801093
p364
aVMAR 29, 2009
p365
aVNJN @ MIN
p366
aVL
p367
aI39
aI4
aI9
aF0.444
aI0
aI0
aF0.0
aI2
aI3
aF0.667
aI1
aI8
aI9
aI3
aI1
aI1
aI3
aI3
aI10
aI-6
aa(lp368
V0020801101
p369
aVMAR 30, 2009
p370
aVNJN vs. MIL
p371
aVL
p372
aI25
aI3
aI6
aF0.5
aI0
aI0
aF0.0
aI4
aI8
aF0.5
aI3
aI7
aI10
aI0
aI0
aI0
aI2
aI0
aI10
aI-25
aa(lp373
V0020801115
p374
aVAPR 01, 2009
p375
aVNJN vs. DET
p376
aVW
p377
aI31
aI7
aI9
aF0.778
aI0
aI0
aF0.0
aI5
aI6
aF0.833
aI1
aI6
aI7
aI0
aI0
aI1
aI0
aI3
aI19
aI9
aa(lp378
V0020801136
p379
aVAPR 04, 2009
p380
aVNJN @ CHI
p381
aVL
p382
aI35
aI7
aI10
aF0.7
aI0
aI0
aF0.0
aI6
aI7
aF0.857
aI3
aI7
aI10
aI1
aI0
aI2
aI2
aI4
aI20
aI-5
aa(lp383
V0020801150
p384
aVAPR 05, 2009
p385
aVNJN vs. PHI
p386
aVW
p387
aI25
aI6
aI9
aF0.667
aI0
aI0
aF0.0
aI1
aI2
aF0.5
aI3
aI5
aI8
aI0
aI1
aI2
aI1
aI2
aI13
aI24
aa(lp388
V0020801165
p389
aVAPR 08, 2009
p390
aVNJN @ BOS
p391
aVL
p392
aI36
aI4
aI6
aF0.667
aI0
aI0
aF0.0
aI4
aI4
aF1.0
aI2
aI6
aI8
aI1
aI0
aI1
aI3
aI2
aI12
aI12
aa(lp393
V0020801180
p394
aVAPR 10, 2009
p395
aVNJN @ DET
p396
aVL
p397
aI31
aI6
aI10
aF0.6
aI0
aI0
aF0.0
aI4
aI5
aF0.8
aI2
aI5
aI7
aI0
aI0
aI3
aI0
aI6
aI16
aI-2
aa(lp398
V0020801190
p399
aVAPR 11, 2009
p400
aVNJN vs. ORL
p401
aVW
p402
aI21
aI6
aI9
aF0.667
aI0
aI0
aF0.0
aI1
aI2
aF0.5
aI3
aI8
aI11
aI1
aI0
aI4
aI1
aI4
aI13
aI3
aa(lp403
V0020801205
p404
aVAPR 13, 2009
p405
aVNJN vs. CHA
p406
aVW
p407
aI35
aI7
aI15
aF0.467
aI0
aI0
aF0.0
aI4
aI7
aF0.571
aI8
aI12
aI20
aI2
aI0
aI2
aI3
aI3
aI18
aI-2
aa(lp408
V0020801225
p409
aVAPR 15, 2009
p410
aVNJN @ NYK
p411
aVL
p412
aI30
aI2
aI9
aF0.222
aI0
aI0
aF0.0
aI2
aI2
aF1.0
aI3
aI4
aI7
aI1
aI0
aI3
aI2
aI1
aI6
aI-29
aasS'name'
p413
VBrook Lopez
p414
sS'weight'
p415
V275
p416
sS'age'
p417
I20
sS'experience'
p418
I0
sS'height'
p419
V7-0
p420
sS'position'
p421
VCenter
p422
s.