(dp0
S'stats'
p1
(lp2
(lp3
V0020800008
p4
aVOCT 29, 2008
p5
aVIND @ DET
p6
aVL
p7
aI24
aI3
aI5
aF0.6
aI0
aI1
aF0.0
aI1
aI1
aF1.0
aI0
aI2
aI2
aI1
aI1
aI0
aI3
aI2
aI7
aI-3
aa(lp8
V0020800028
p9
aVNOV 01, 2008
p10
aVIND vs. BOS
p11
aVW
p12
aI18
aI1
aI9
aF0.111
aI0
aI3
aF0.0
aI1
aI2
aF0.5
aI2
aI2
aI4
aI0
aI0
aI1
aI1
aI2
aI3
aI-2
aa(lp13
V0020800051
p14
aVNOV 05, 2008
p15
aVIND vs. PHX
p16
aVL
p17
aI20
aI4
aI7
aF0.571
aI1
aI1
aF1.0
aI0
aI0
aF0.0
aI1
aI1
aI2
aI0
aI0
aI1
aI2
aI2
aI9
aI-19
aa(lp18
V0020800070
p19
aVNOV 07, 2008
p20
aVIND @ CLE
p21
aVL
p22
aI22
aI3
aI9
aF0.333
aI1
aI2
aF0.5
aI0
aI0
aF0.0
aI1
aI0
aI1
aI0
aI2
aI1
aI2
aI2
aI7
aI-19
aa(lp23
V0020800079
p24
aVNOV 08, 2008
p25
aVIND vs. NJN
p26
aVW
p27
aI18
aI2
aI4
aF0.5
aI1
aI3
aF0.333
aI0
aI0
aF0.0
aI0
aI1
aI1
aI2
aI0
aI0
aI1
aI1
aI5
aI0
aa(lp28
V0020800093
p29
aVNOV 10, 2008
p30
aVIND vs. OKC
p31
aVW
p32
aI18
aI1
aI6
aF0.167
aI0
aI2
aF0.0
aI2
aI2
aF1.0
aI1
aI1
aI2
aI1
aI1
aI0
aI0
aI1
aI4
aI-2
aa(lp33
V0020800109
p34
aVNOV 12, 2008
p35
aVIND @ NJN
p36
aVW
p37
aI23
aI3
aI8
aF0.375
aI2
aI5
aF0.4
aI0
aI0
aF0.0
aI0
aI4
aI4
aI0
aI2
aI1
aI0
aI3
aI8
aI13
aa(lp38
V0020800121
p39
aVNOV 14, 2008
p40
aVIND vs. PHI
p41
aVL
p42
aI17
aI1
aI5
aF0.2
aI0
aI3
aF0.0
aI3
aI4
aF0.75
aI0
aI2
aI2
aI0
aI0
aI2
aI1
aI0
aI5
aI-6
aa(lp43
V0020800137
p44
aVNOV 15, 2008
p45
aVIND @ CHI
p46
aVL
p47
aI22
aI2
aI7
aF0.286
aI0
aI0
aF0.0
aI0
aI0
aF0.0
aI2
aI4
aI6
aI3
aI0
aI0
aI2
aI4
aI4
aI-6
aa(lp48
V0020800150
p49
aVNOV 18, 2008
p50
aVIND vs. ATL
p51
aVW
p52
aI16
aI2
aI5
aF0.4
aI1
aI1
aF1.0
aI4
aI4
aF1.0
aI0
aI0
aI0
aI0
aI0
aI1
aI2
aI1
aI9
aI-7
aa(lp53
V0020800171
p54
aVNOV 21, 2008
p55
aVIND vs. ORL
p56
aVL
p57
aI23
aI2
aI6
aF0.333
aI1
aI1
aF1.0
aI0
aI0
aF0.0
aI4
aI1
aI5
aI0
aI1
aI1
aI0
aI1
aI5
aI4
aa(lp58
V0020800187
p59
aVNOV 22, 2008
p60
aVIND @ MIA
p61
aVL
p62
aI22
aI4
aI6
aF0.667
aI2
aI2
aF1.0
aI0
aI0
aF0.0
aI1
aI0
aI1
aI0
aI0
aI0
aI2
aI2
aI10
aI0
aa(lp63
V0020800208
p64
aVNOV 25, 2008
p65
aVIND @ DAL
p66
aVL
p67
aI30
aI8
aI12
aF0.667
aI1
aI2
aF0.5
aI1
aI2
aF0.5
aI0
aI2
aI2
aI1
aI1
aI0
aI1
aI2
aI18
aI8
aa(lp68
V0020800217
p69
aVNOV 26, 2008
p70
aVIND @ HOU
p71
aVW
p72
aI36
aI5
aI8
aF0.625
aI1
aI2
aF0.5
aI0
aI0
aF0.0
aI1
aI3
aI4
aI3
aI0
aI0
aI2
aI3
aI11
aI15
aa(lp73
V0020800229
p74
aVNOV 28, 2008
p75
aVIND vs. CHA
p76
aVL
p77
aI24
aI3
aI9
aF0.333
aI1
aI3
aF0.333
aI1
aI2
aF0.5
aI0
aI3
aI3
aI0
aI1
aI1
aI3
aI4
aI8
aI-15
aa(lp78
V0020800237
p79
aVNOV 29, 2008
p80
aVIND @ ORL
p81
aVL
p82
aI32
aI2
aI4
aF0.5
aI0
aI1
aF0.0
aI1
aI2
aF0.5
aI0
aI4
aI4
aI4
aI0
aI0
aI2
aI1
aI5
aI-8
aa(lp83
V0020800255
p84
aVDEC 02, 2008
p85
aVIND vs. LAL
p86
aVW
p87
aI16
aI3
aI5
aF0.6
aI1
aI3
aF0.333
aI0
aI0
aF0.0
aI0
aI0
aI0
aI1
aI0
aI0
aI1
aI0
aI7
aI-16
aa(lp88
V0020800269
p89
aVDEC 03, 2008
p90
aVIND @ BOS
p91
aVL
p92
aI24
aI2
aI8
aF0.25
aI1
aI2
aF0.5
aI0
aI0
aF0.0
aI2
aI0
aI2
aI1
aI0
aI0
aI1
aI0
aI5
aI-24
aa(lp93
V0020800279
p94
aVDEC 05, 2008
p95
aVIND @ CLE
p96
aVL
p97
aI11
aI1
aI2
aF0.5
aI1
aI1
aF1.0
aI0
aI0
aF0.0
aI0
aI1
aI1
aI0
aI0
aI0
aI0
aI0
aI3
aI4
aa(lp98
V0020800314
p99
aVDEC 10, 2008
p100
aVIND @ TOR
p101
aVL
p102
aI13
aI3
aI6
aF0.5
aI0
aI2
aF0.0
aI0
aI0
aF0.0
aI0
aI0
aI0
aI0
aI1
aI0
aI1
aI1
aI6
aI-5
aa(lp103
V0020800330
p104
aVDEC 12, 2008
p105
aVIND @ DET
p106
aVL
p107
aI10
aI0
aI2
aF0.0
aI0
aI2
aF0.0
aI0
aI0
aF0.0
aI0
aI0
aI0
aI0
aI1
aI0
aI0
aI3
aI0
aI-4
aa(lp108
V0020800342
p109
aVDEC 13, 2008
p110
aVIND @ MIL
p111
aVL
p112
aI28
aI5
aI9
aF0.556
aI2
aI2
aF1.0
aI4
aI4
aF1.0
aI0
aI2
aI2
aI1
aI2
aI0
aI1
aI3
aI16
aI6
aa(lp113
V0020800353
p114
aVDEC 15, 2008
p115
aVIND @ WAS
p116
aVW
p117
aI29
aI4
aI10
aF0.4
aI0
aI4
aF0.0
aI0
aI0
aF0.0
aI2
aI2
aI4
aI2
aI1
aI0
aI0
aI2
aI8
aI12
aa(lp118
V0020800367
p119
aVDEC 17, 2008
p120
aVIND vs. GSW
p121
aVW
p122
aI42
aI4
aI17
aF0.235
aI2
aI7
aF0.286
aI0
aI0
aF0.0
aI2
aI9
aI11
aI0
aI2
aI2
aI1
aI5
aI10
aI11
aa(lp123
V0020800377
p124
aVDEC 19, 2008
p125
aVIND vs. LAC
p126
aVL
p127
aI54
aI5
aI22
aF0.227
aI1
aI8
aF0.125
aI3
aI6
aF0.5
aI0
aI7
aI7
aI4
aI2
aI1
aI4
aI5
aI14
aI-10
aa(lp128
V0020800391
p129
aVDEC 20, 2008
p130
aVIND @ PHI
p131
aVW
p132
aI38
aI4
aI9
aF0.444
aI3
aI5
aF0.6
aI0
aI0
aF0.0
aI0
aI3
aI3
aI1
aI0
aI0
aI3
aI2
aI11
aI1
aa(lp133
V0020800412
p134
aVDEC 23, 2008
p135
aVIND vs. NJN
p136
aVL
p137
aI43
aI8
aI12
aF0.667
aI4
aI5
aF0.8
aI2
aI2
aF1.0
aI2
aI6
aI8
aI1
aI3
aI0
aI1
aI2
aI22
aI-6
aa(lp138
V0020800430
p139
aVDEC 26, 2008
p140
aVIND @ MEM
p141
aVL
p142
aI34
aI3
aI5
aF0.6
aI0
aI0
aF0.0
aI2
aI2
aF1.0
aI0
aI2
aI2
aI3
aI1
aI1
aI1
aI3
aI8
aI-15
aa(lp143
V0020800447
p144
aVDEC 28, 2008
p145
aVIND vs. NOH
p146
aVL
p147
aI23
aI0
aI1
aF0.0
aI0
aI0
aF0.0
aI1
aI4
aF0.25
aI0
aI4
aI4
aI2
aI0
aI1
aI0
aI1
aI1
aI5
aa(lp148
V0020800459
p149
aVDEC 30, 2008
p150
aVIND vs. ATL
p151
aVL
p152
aI27
aI1
aI9
aF0.111
aI1
aI5
aF0.2
aI0
aI0
aF0.0
aI2
aI0
aI2
aI1
aI0
aI0
aI1
aI1
aI3
aI-8
aa(lp153
V0020800478
p154
aVJAN 02, 2009
p155
aVIND @ NYK
p156
aVW
p157
aI16
aI2
aI4
aF0.5
aI2
aI3
aF0.667
aI0
aI0
aF0.0
aI0
aI0
aI0
aI0
aI1
aI0
aI1
aI1
aI6
aI-3
aa(lp158
V0020800490
p159
aVJAN 03, 2009
p160
aVIND vs. SAC
p161
aVW
p162
aI9
aI0
aI2
aF0.0
aI0
aI1
aF0.0
aI0
aI0
aF0.0
aI0
aI1
aI1
aI1
aI0
aI0
aI0
aI2
aI0
aI-9
aa(lp163
V0020800504
p164
aVJAN 05, 2009
p165
aVIND @ DEN
p166
aVL
p167
aI7
aI2
aI2
aF1.0
aI2
aI2
aF1.0
aI0
aI0
aF0.0
aI0
aI0
aI0
aI0
aI0
aI0
aI0
aI0
aI6
aI-2
aa(lp168
V0020800522
p169
aVJAN 07, 2009
p170
aVIND @ PHX
p171
aVW
p172
aI15
aI0
aI2
aF0.0
aI0
aI1
aF0.0
aI0
aI0
aF0.0
aI0
aI0
aI0
aI0
aI1
aI1
aI2
aI1
aI0
aI-8
aa(lp173
V0020800538
p174
aVJAN 09, 2009
p175
aVIND @ LAL
p176
aVL
p177
aI6
aI1
aI3
aF0.333
aI0
aI2
aF0.0
aI0
aI0
aF0.0
aI0
aI1
aI1
aI0
aI0
aI0
aI0
aI2
aI2
aI-1
aa(lp178
V0020800550
p179
aVJAN 11, 2009
p180
aVIND @ GSW
p181
aVL
p182
aI9
aI0
aI1
aF0.0
aI0
aI1
aF0.0
aI0
aI0
aF0.0
aI0
aI2
aI2
aI0
aI0
aI0
aI0
aI0
aI0
aI-7
aa(lp183
V0020800558
p184
aVJAN 12, 2009
p185
aVIND @ UTA
p186
aVL
p187
aI4
aI0
aI0
aF0.0
aI0
aI0
aF0.0
aI0
aI0
aF0.0
aI0
aI1
aI1
aI1
aI1
aI0
aI0
aI0
aI0
aI-2
aa(lp188
V0020800566
p189
aVJAN 14, 2009
p190
aVIND vs. DET
p191
aVW
p192
aI5
aI0
aI0
aF0.0
aI0
aI0
aF0.0
aI0
aI0
aF0.0
aI0
aI1
aI1
aI1
aI0
aI0
aI0
aI1
aI0
aI1
aa(lp193
V0020800580
p194
aVJAN 16, 2009
p195
aVIND vs. TOR
p196
aVW
p197
aI5
aI0
aI1
aF0.0
aI0
aI1
aF0.0
aI0
aI0
aF0.0
aI0
aI1
aI1
aI0
aI0
aI0
aI1
aI1
aI0
aI-12
aa(lp198
V0020800614
p199
aVJAN 20, 2009
p200
aVIND @ SAS
p201
aVL
p202
aI26
aI2
aI6
aF0.333
aI1
aI2
aF0.5
aI0
aI0
aF0.0
aI1
aI1
aI2
aI0
aI1
aI1
aI0
aI1
aI5
aI-1
aa(lp203
V0020800663
p204
aVJAN 27, 2009
p205
aVIND @ ORL
p206
aVL
p207
aI8
aI1
aI1
aF1.0
aI0
aI0
aF0.0
aI0
aI0
aF0.0
aI0
aI0
aI0
aI0
aI0
aI0
aI0
aI1
aI2
aI3
aa(lp208
V0020800682
p209
aVJAN 30, 2009
p210
aVIND vs. MIA
p211
aVW
p212
aI4
aI0
aI0
aF0.0
aI0
aI0
aF0.0
aI0
aI0
aF0.0
aI0
aI0
aI0
aI0
aI0
aI0
aI1
aI0
aI0
aI-8
aa(lp213
V0020800731
p214
aVFEB 05, 2009
p215
aVIND @ PHI
p216
aVL
p217
aI10
aI2
aI2
aF1.0
aI1
aI1
aF1.0
aI0
aI0
aF0.0
aI0
aI3
aI3
aI2
aI0
aI0
aI1
aI0
aI5
aI-6
aa(lp218
V0020800735
p219
aVFEB 06, 2009
p220
aVIND vs. ORL
p221
aVW
p222
aI22
aI0
aI2
aF0.0
aI0
aI1
aF0.0
aI0
aI0
aF0.0
aI0
aI5
aI5
aI0
aI0
aI0
aI1
aI1
aI0
aI1
aa(lp223
V0020800755
p224
aVFEB 08, 2009
p225
aVIND @ WAS
p226
aVL
p227
aI29
aI4
aI10
aF0.4
aI2
aI4
aF0.5
aI1
aI1
aF1.0
aI1
aI4
aI5
aI2
aI0
aI1
aI1
aI3
aI11
aI-11
aa(lp228
V0020800765
p229
aVFEB 10, 2009
p230
aVIND vs. CLE
p231
aVW
p232
aI20
aI2
aI7
aF0.286
aI0
aI4
aF0.0
aI0
aI0
aF0.0
aI1
aI4
aI5
aI0
aI1
aI1
aI0
aI0
aI4
aI7
aa(lp233
V0020800779
p234
aVFEB 11, 2009
p235
aVIND @ MIL
p236
aVL
p237
aI36
aI4
aI10
aF0.4
aI1
aI3
aF0.333
aI0
aI1
aF0.0
aI2
aI4
aI6
aI0
aI2
aI2
aI1
aI4
aI9
aI-12
aa(lp238
V0020800788
p239
aVFEB 17, 2009
p240
aVIND vs. PHI
p241
aVW
p242
aI13
aI0
aI2
aF0.0
aI0
aI1
aF0.0
aI0
aI0
aF0.0
aI0
aI0
aI0
aI0
aI0
aI1
aI0
aI0
aI0
aI5
aa(lp243
V0020800798
p244
aVFEB 18, 2009
p245
aVIND @ CHA
p246
aVL
p247
aI22
aI2
aI9
aF0.222
aI1
aI6
aF0.167
aI0
aI2
aF0.0
aI0
aI0
aI0
aI1
aI0
aI0
aI0
aI1
aI5
aI-8
aa(lp248
V0020800814
p249
aVFEB 20, 2009
p250
aVIND @ MIN
p251
aVW
p252
aI26
aI4
aI12
aF0.333
aI1
aI4
aF0.25
aI1
aI2
aF0.5
aI0
aI3
aI3
aI1
aI1
aI2
aI1
aI1
aI10
aI4
aa(lp253
V0020800827
p254
aVFEB 22, 2009
p255
aVIND vs. CHI
p256
aVW
p257
aI20
aI2
aI4
aF0.5
aI0
aI0
aF0.0
aI0
aI0
aF0.0
aI0
aI4
aI4
aI1
aI0
aI0
aI0
aI2
aI4
aI-15
aa(lp258
V0020800837
p259
aVFEB 23, 2009
p260
aVIND @ NYK
p261
aVL
p262
aI33
aI5
aI15
aF0.333
aI1
aI4
aF0.25
aI3
aI4
aF0.75
aI1
aI4
aI5
aI3
aI0
aI1
aI0
aI1
aI14
aI-15
aa(lp263
V0020800850
p264
aVFEB 25, 2009
p265
aVIND vs. MEM
p266
aVW
p267
aI23
aI5
aI11
aF0.455
aI2
aI4
aF0.5
aI2
aI2
aF1.0
aI0
aI2
aI2
aI0
aI0
aI1
aI2
aI2
aI14
aI0
aa(lp268
V0020800867
p269
aVFEB 27, 2009
p270
aVIND @ BOS
p271
aVL
p272
aI31
aI7
aI15
aF0.467
aI3
aI7
aF0.429
aI0
aI0
aF0.0
aI0
aI3
aI3
aI1
aI0
aI0
aI2
aI1
aI17
aI5
aa(lp273
V0020800887
p274
aVMAR 01, 2009
p275
aVIND vs. DEN
p276
aVW
p277
aI26
aI3
aI10
aF0.3
aI2
aI4
aF0.5
aI0
aI0
aF0.0
aI0
aI0
aI0
aI1
aI0
aI0
aI1
aI1
aI8
aI-1
aa(lp278
V0020800903
p279
aVMAR 03, 2009
p280
aVIND @ SAC
p281
aVW
p282
aI20
aI0
aI4
aF0.0
aI0
aI2
aF0.0
aI1
aI2
aF0.5
aI0
aI5
aI5
aI0
aI0
aI0
aI2
aI1
aI1
aI-3
aa(lp283
V0020800913
p284
aVMAR 04, 2009
p285
aVIND @ POR
p286
aVL
p287
aI17
aI0
aI1
aF0.0
aI0
aI1
aF0.0
aI0
aI0
aF0.0
aI0
aI3
aI3
aI0
aI0
aI0
aI0
aI1
aI0
aI-5
aa(lp288
V0020800935
p289
aVMAR 07, 2009
p290
aVIND @ LAC
p291
aVW
p292
aI24
aI2
aI10
aF0.2
aI0
aI2
aF0.0
aI3
aI4
aF0.75
aI1
aI2
aI3
aI1
aI0
aI1
aI0
aI2
aI7
aI10
aa(lp293
V0020800949
p294
aVMAR 10, 2009
p295
aVIND vs. UTA
p296
aVL
p297
aI24
aI3
aI7
aF0.429
aI1
aI3
aF0.333
aI0
aI0
aF0.0
aI0
aI4
aI4
aI0
aI0
aI1
aI3
aI1
aI7
aI-7
aa(lp298
V0020800972
p299
aVMAR 13, 2009
p300
aVIND @ ATL
p301
aVL
p302
aI29
aI3
aI8
aF0.375
aI2
aI3
aF0.667
aI0
aI0
aF0.0
aI0
aI5
aI5
aI1
aI0
aI0
aI2
aI1
aI8
aI-2
aa(lp303
V0020800990
p304
aVMAR 15, 2009
p305
aVIND @ TOR
p306
aVL
p307
aI27
aI3
aI8
aF0.375
aI2
aI5
aF0.4
aI0
aI0
aF0.0
aI0
aI4
aI4
aI1
aI2
aI0
aI1
aI2
aI8
aI-19
aa(lp308
V0020801011
p309
aVMAR 18, 2009
p310
aVIND vs. POR
p311
aVL
p312
aI15
aI2
aI4
aF0.5
aI1
aI2
aF0.5
aI0
aI0
aF0.0
aI0
aI2
aI2
aI0
aI1
aI0
aI1
aI2
aI5
aI3
aa(lp313
V0020801023
p314
aVMAR 20, 2009
p315
aVIND vs. DAL
p316
aVL
p317
aI31
aI4
aI9
aF0.444
aI3
aI5
aF0.6
aI0
aI0
aF0.0
aI0
aI6
aI6
aI3
aI0
aI0
aI0
aI1
aI11
aI13
aa(lp318
V0020801035
p319
aVMAR 21, 2009
p320
aVIND @ CHA
p321
aVW
p322
aI39
aI7
aI14
aF0.5
aI0
aI4
aF0.0
aI1
aI2
aF0.5
aI0
aI5
aI5
aI1
aI1
aI2
aI1
aI2
aI15
aI10
aa(lp323
V0020801061
p324
aVMAR 25, 2009
p325
aVIND vs. MIA
p326
aVW
p327
aI41
aI4
aI11
aF0.364
aI1
aI5
aF0.2
aI2
aI2
aF1.0
aI0
aI8
aI8
aI2
aI0
aI0
aI2
aI1
aI11
aI5
aa(lp328
V0020801083
p329
aVMAR 28, 2009
p330
aVIND @ CHI
p331
aVL
p332
aI39
aI13
aI19
aF0.684
aI2
aI4
aF0.5
aI1
aI1
aF1.0
aI0
aI4
aI4
aI2
aI1
aI1
aI0
aI0
aI29
aI-19
aa(lp333
V0020801097
p334
aVMAR 29, 2009
p335
aVIND vs. WAS
p336
aVW
p337
aI33
aI13
aI25
aF0.52
aI3
aI7
aF0.429
aI0
aI0
aF0.0
aI1
aI9
aI10
aI1
aI0
aI1
aI0
aI2
aI29
aI7
aa(lp338
V0020801106
p339
aVMAR 31, 2009
p340
aVIND vs. CHI
p341
aVW
p342
aI37
aI5
aI8
aF0.625
aI1
aI2
aF0.5
aI0
aI0
aF0.0
aI0
aI3
aI3
aI0
aI0
aI1
aI3
aI1
aI11
aI5
aa(lp343
V0020801126
p344
aVAPR 03, 2009
p345
aVIND vs. SAS
p346
aVL
p347
aI43
aI6
aI10
aF0.6
aI2
aI3
aF0.667
aI0
aI0
aF0.0
aI0
aI4
aI4
aI1
aI0
aI0
aI1
aI2
aI14
aI-1
aa(lp348
V0020801149
p349
aVAPR 05, 2009
p350
aVIND @ OKC
p351
aVW
p352
aI33
aI6
aI11
aF0.545
aI1
aI3
aF0.333
aI0
aI0
aF0.0
aI0
aI3
aI3
aI0
aI1
aI1
aI0
aI3
aI13
aI13
aa(lp353
V0020801163
p354
aVAPR 08, 2009
p355
aVIND vs. TOR
p356
aVW
p357
aI25
aI2
aI10
aF0.2
aI1
aI5
aF0.2
aI0
aI0
aF0.0
aI0
aI3
aI3
aI1
aI0
aI0
aI2
aI6
aI5
aI-13
aa(lp358
V0020801178
p359
aVAPR 10, 2009
p360
aVIND @ ATL
p361
aVL
p362
aI36
aI4
aI7
aF0.571
aI0
aI1
aF0.0
aI2
aI2
aF1.0
aI1
aI6
aI7
aI1
aI1
aI1
aI1
aI5
aI10
aI2
aa(lp363
V0020801189
p364
aVAPR 11, 2009
p365
aVIND vs. DET
p366
aVW
p367
aI34
aI8
aI16
aF0.5
aI5
aI8
aF0.625
aI0
aI0
aF0.0
aI1
aI6
aI7
aI2
aI0
aI1
aI0
aI4
aI21
aI2
aa(lp368
V0020801202
p369
aVAPR 13, 2009
p370
aVIND vs. CLE
p371
aVL
p372
aI34
aI11
aI17
aF0.647
aI2
aI4
aF0.5
aI3
aI4
aF0.75
aI0
aI3
aI3
aI2
aI0
aI1
aI1
aI3
aI27
aI7
aa(lp373
V0020801221
p374
aVAPR 15, 2009
p375
aVIND vs. MIL
p376
aVW
p377
aI38
aI10
aI18
aF0.556
aI4
aI6
aF0.667
aI0
aI0
aF0.0
aI1
aI4
aI5
aI0
aI1
aI1
aI1
aI2
aI24
aI4
aasS'name'
p378
VBrandon Rush
p379
sS'weight'
p380
V220
p381
sS'age'
p382
I23
sS'experience'
p383
I0
sS'height'
p384
V6-6
p385
sS'position'
p386
VForward-Guard
p387
s.