(dp0
S'stats'
p1
(lp2
(lp3
V0020800048
p4
aVNOV 04, 2008
p5
aVPHX @ NJN
p6
aVW
p7
aI4
aI1
aI2
aF0.5
aI0
aI0
aF0.0
aI0
aI0
aF0.0
aI0
aI0
aI0
aI1
aI0
aI0
aI0
aI0
aI2
aI2
aa(lp8
V0020800073
p9
aVNOV 07, 2008
p10
aVPHX @ CHI
p11
aVL
p12
aI9
aI0
aI1
aF0.0
aI0
aI0
aF0.0
aI0
aI0
aF0.0
aI0
aI1
aI1
aI2
aI0
aI0
aI0
aI0
aI0
aI3
aa(lp13
V0020800130
p14
aVNOV 14, 2008
p15
aVPHX @ SAC
p16
aVW
p17
aI23
aI2
aI7
aF0.286
aI1
aI3
aF0.333
aI0
aI0
aF0.0
aI2
aI3
aI5
aI1
aI0
aI0
aI0
aI2
aI5
aI-2
aa(lp18
V0020800144
p19
aVNOV 16, 2008
p20
aVPHX vs. DET
p21
aVW
p22
aI7
aI1
aI3
aF0.333
aI1
aI1
aF1.0
aI0
aI0
aF0.0
aI1
aI0
aI1
aI1
aI0
aI0
aI0
aI0
aI3
aI0
aa(lp23
V0020800170
p24
aVNOV 20, 2008
p25
aVPHX vs. LAL
p26
aVL
p27
aI13
aI1
aI4
aF0.25
aI1
aI2
aF0.5
aI0
aI0
aF0.0
aI0
aI0
aI0
aI2
aI1
aI0
aI2
aI3
aI3
aI-3
aa(lp28
V0020800192
p29
aVNOV 22, 2008
p30
aVPHX vs. POR
p31
aVW
p32
aI8
aI1
aI4
aF0.25
aI0
aI0
aF0.0
aI0
aI0
aF0.0
aI0
aI0
aI0
aI1
aI0
aI0
aI0
aI1
aI2
aI1
aa(lp33
V0020800207
p34
aVNOV 25, 2008
p35
aVPHX @ OKC
p36
aVW
p37
aI5
aI1
aI3
aF0.333
aI1
aI1
aF1.0
aI0
aI0
aF0.0
aI0
aI0
aI0
aI0
aI0
aI0
aI0
aI1
aI3
aI-2
aa(lp38
V0020800216
p39
aVNOV 26, 2008
p40
aVPHX @ MIN
p41
aVW
p42
aI20
aI3
aI6
aF0.5
aI0
aI2
aF0.0
aI2
aI2
aF1.0
aI0
aI5
aI5
aI1
aI1
aI0
aI1
aI3
aI8
aI-1
aa(lp43
V0020800231
p44
aVNOV 28, 2008
p45
aVPHX vs. MIA
p46
aVL
p47
aI11
aI2
aI2
aF1.0
aI0
aI0
aF0.0
aI2
aI2
aF1.0
aI1
aI1
aI2
aI2
aI1
aI0
aI1
aI0
aI6
aI-13
aa(lp48
V0020800250
p49
aVNOV 30, 2008
p50
aVPHX vs. NJN
p51
aVL
p52
aI11
aI0
aI3
aF0.0
aI0
aI1
aF0.0
aI2
aI2
aF1.0
aI0
aI1
aI1
aI1
aI2
aI0
aI1
aI2
aI2
aI-8
aa(lp53
V0020800271
p54
aVDEC 03, 2008
p55
aVPHX @ NOH
p56
aVL
p57
aI7
aI0
aI2
aF0.0
aI0
aI0
aF0.0
aI0
aI0
aF0.0
aI1
aI0
aI1
aI0
aI0
aI0
aI0
aI2
aI0
aI5
aa(lp58
V0020800274
p59
aVDEC 04, 2008
p60
aVPHX @ DAL
p61
aVL
p62
aI1
aI0
aI0
aF0.0
aI0
aI0
aF0.0
aI0
aI0
aF0.0
aI0
aI0
aI0
aI0
aI1
aI0
aI0
aI0
aI0
aI5
aa(lp63
V0020800311
p64
aVDEC 09, 2008
p65
aVPHX vs. MIL
p66
aVW
p67
aI2
aI0
aI0
aF0.0
aI0
aI0
aF0.0
aI0
aI0
aF0.0
aI0
aI0
aI0
aI0
aI0
aI0
aI0
aI0
aI0
aI-2
aa(lp68
V0020800360
p69
aVDEC 16, 2008
p70
aVCHA vs. CHI
p71
aVW
p72
aI3
aI1
aI1
aF1.0
aI0
aI0
aF0.0
aI0
aI0
aF0.0
aI1
aI1
aI2
aI0
aI0
aI0
aI0
aI0
aI2
aI1
aa(lp73
V0020800389
p74
aVDEC 20, 2008
p75
aVCHA vs. GSW
p76
aVL
p77
aI0
aI0
aI0
aF0.0
aI0
aI0
aF0.0
aI0
aI0
aF0.0
aI0
aI0
aI0
aI0
aI0
aI0
aI0
aI1
aI0
aI-2
aa(lp78
V0020800410
p79
aVDEC 23, 2008
p80
aVCHA vs. WAS
p81
aVW
p82
aI0
aI0
aI1
aF0.0
aI0
aI1
aF0.0
aI0
aI0
aF0.0
aI0
aI0
aI0
aI0
aI0
aI0
aI0
aI0
aI0
aI-2
aa(lp83
V0020800427
p84
aVDEC 26, 2008
p85
aVCHA @ NJN
p86
aVW
p87
aI3
aI0
aI0
aF0.0
aI0
aI0
aF0.0
aI0
aI0
aF0.0
aI0
aI0
aI0
aI0
aI0
aI0
aI0
aI2
aI0
aI3
aa(lp88
V0020800437
p89
aVDEC 27, 2008
p90
aVCHA vs. NJN
p91
aVL
p92
aI8
aI0
aI0
aF0.0
aI0
aI0
aF0.0
aI0
aI0
aF0.0
aI0
aI0
aI0
aI1
aI0
aI0
aI1
aI3
aI0
aI4
aa(lp93
V0020800458
p94
aVDEC 30, 2008
p95
aVCHA vs. NYK
p96
aVL
p97
aI14
aI2
aI6
aF0.333
aI0
aI2
aF0.0
aI0
aI0
aF0.0
aI0
aI2
aI2
aI3
aI1
aI0
aI3
aI2
aI4
aI-4
aa(lp98
V0020800484
p99
aVJAN 02, 2009
p100
aVCHA @ MIL
p101
aVL
p102
aI8
aI1
aI3
aF0.333
aI1
aI1
aF1.0
aI0
aI0
aF0.0
aI1
aI0
aI1
aI0
aI0
aI0
aI2
aI1
aI3
aI-9
aa(lp103
V0020800506
p104
aVJAN 06, 2009
p105
aVCHA vs. BOS
p106
aVW
p107
aI5
aI0
aI1
aF0.0
aI0
aI1
aF0.0
aI0
aI0
aF0.0
aI0
aI1
aI1
aI1
aI1
aI0
aI1
aI1
aI0
aI-3
aa(lp108
V0020800515
p109
aVJAN 07, 2009
p110
aVCHA @ CLE
p111
aVL
p112
aI20
aI4
aI7
aF0.571
aI1
aI2
aF0.5
aI4
aI4
aF1.0
aI1
aI2
aI3
aI0
aI1
aI0
aI0
aI1
aI13
aI7
aa(lp113
V0020800529
p114
aVJAN 09, 2009
p115
aVCHA @ PHI
p116
aVL
p117
aI9
aI1
aI3
aF0.333
aI0
aI1
aF0.0
aI0
aI0
aF0.0
aI0
aI1
aI1
aI3
aI1
aI0
aI0
aI2
aI2
aI-1
aa(lp118
V0020800540
p119
aVJAN 10, 2009
p120
aVCHA @ WAS
p121
aVW
p122
aI7
aI0
aI2
aF0.0
aI0
aI0
aF0.0
aI0
aI0
aF0.0
aI0
aI1
aI1
aI1
aI0
aI0
aI2
aI1
aI0
aI-5
aa(lp123
V0020800559
p124
aVJAN 13, 2009
p125
aVCHA @ DET
p126
aVW
p127
aI7
aI1
aI2
aF0.5
aI0
aI0
aF0.0
aI0
aI0
aF0.0
aI1
aI1
aI2
aI0
aI0
aI0
aI0
aI1
aI2
aI3
aa(lp128
V0020800591
p129
aVJAN 17, 2009
p130
aVCHA vs. POR
p131
aVW
p132
aI10
aI2
aI2
aF1.0
aI1
aI1
aF1.0
aI0
aI0
aF0.0
aI0
aI1
aI1
aI0
aI0
aI0
aI0
aI3
aI5
aI0
aa(lp133
V0020800604
p134
aVJAN 19, 2009
p135
aVCHA vs. SAS
p136
aVL
p137
aI10
aI1
aI4
aF0.25
aI0
aI1
aF0.0
aI2
aI2
aF1.0
aI0
aI2
aI2
aI1
aI0
aI0
aI0
aI2
aI4
aI-7
aa(lp138
V0020800617
p139
aVJAN 21, 2009
p140
aVCHA vs. MEM
p141
aVW
p142
aI13
aI2
aI5
aF0.4
aI1
aI1
aF1.0
aI0
aI0
aF0.0
aI1
aI0
aI1
aI2
aI0
aI0
aI2
aI1
aI5
aI-5
aa(lp143
V0020800630
p144
aVJAN 23, 2009
p145
aVCHA vs. PHX
p146
aVW
p147
aI11
aI0
aI2
aF0.0
aI0
aI0
aF0.0
aI1
aI1
aF1.0
aI0
aI0
aI0
aI0
aI0
aI0
aI2
aI0
aI1
aI-13
aa(lp148
V0020800651
p149
aVJAN 25, 2009
p150
aVCHA @ IND
p151
aVL
p152
aI11
aI0
aI2
aF0.0
aI0
aI2
aF0.0
aI2
aI2
aF1.0
aI0
aI0
aI0
aI1
aI1
aI0
aI1
aI2
aI2
aI-14
aa(lp153
V0020800666
p154
aVJAN 27, 2009
p155
aVCHA @ LAL
p156
aVW
p157
aI5
aI0
aI0
aF0.0
aI0
aI0
aF0.0
aI0
aI0
aF0.0
aI0
aI0
aI0
aI1
aI0
aI0
aI0
aI0
aI0
aI1
aa(lp158
V0020800677
p159
aVJAN 28, 2009
p160
aVCHA @ POR
p161
aVL
p162
aI12
aI0
aI2
aF0.0
aI0
aI0
aF0.0
aI1
aI2
aF0.5
aI0
aI1
aI1
aI0
aI0
aI0
aI3
aI2
aI1
aI-5
aa(lp163
V0020800688
p164
aVJAN 30, 2009
p165
aVCHA @ DEN
p166
aVL
p167
aI7
aI0
aI0
aF0.0
aI0
aI0
aF0.0
aI2
aI2
aF1.0
aI0
aI0
aI0
aI0
aI0
aI0
aI0
aI0
aI2
aI7
aa(lp168
V0020800712
p169
aVFEB 02, 2009
p170
aVCHA @ UTA
p171
aVL
p172
aI6
aI2
aI2
aF1.0
aI1
aI1
aF1.0
aI0
aI2
aF0.0
aI0
aI0
aI0
aI2
aI0
aI0
aI0
aI3
aI5
aI-6
aa(lp173
V0020800752
p174
aVFEB 08, 2009
p175
aVCHA @ MIA
p176
aVL
p177
aI4
aI2
aI2
aF1.0
aI1
aI1
aF1.0
aI0
aI0
aF0.0
aI0
aI1
aI1
aI0
aI0
aI0
aI0
aI1
aI5
aI-1
aa(lp178
V0020800760
p179
aVFEB 09, 2009
p180
aVCHA vs. LAC
p181
aVW
p182
aI2
aI0
aI0
aF0.0
aI0
aI0
aF0.0
aI0
aI0
aF0.0
aI0
aI0
aI0
aI0
aI0
aI0
aI0
aI1
aI0
aI1
aa(lp183
V0020800773
p184
aVFEB 11, 2009
p185
aVCHA vs. WAS
p186
aVW
p187
aI6
aI0
aI1
aF0.0
aI0
aI0
aF0.0
aI0
aI0
aF0.0
aI0
aI0
aI0
aI1
aI0
aI0
aI1
aI1
aI0
aI4
aasS'name'
p188
VSean Singletary
p189
sS'weight'
p190
V185
p191
sS'age'
p192
I23
sS'experience'
p193
I0
sS'height'
p194
V6-0
p195
sS'position'
p196
VGuard
p197
s.