(dp0
S'age'
p1
I31
sS'stats'
p2
(lp3
(lp4
V0020800014
p5
aVOCT 29, 2008
p6
aVNOH @ GSW
p7
aVW
p8
aI20
aI3
aI6
aF0.5
aI0
aI2
aF0.0
aI0
aI0
aF0.0
aI0
aI4
aI4
aI1
aI2
aI0
aI0
aI0
aI6
aI12
aa(lp9
V0020800018
p10
aVOCT 30, 2008
p11
aVNOH @ PHX
p12
aVW
p13
aI29
aI7
aI10
aF0.7
aI4
aI6
aF0.667
aI3
aI4
aF0.75
aI2
aI1
aI3
aI0
aI2
aI0
aI0
aI2
aI21
aI17
aa(lp14
V0020800033
p15
aVNOV 01, 2008
p16
aVNOH vs. CLE
p17
aVW
p18
aI21
aI2
aI7
aF0.286
aI0
aI1
aF0.0
aI1
aI2
aF0.5
aI0
aI4
aI4
aI1
aI0
aI1
aI1
aI2
aI5
aI-6
aa(lp19
V0020800058
p20
aVNOV 05, 2008
p21
aVNOH vs. ATL
p22
aVL
p23
aI20
aI3
aI7
aF0.429
aI0
aI1
aF0.0
aI0
aI0
aF0.0
aI0
aI1
aI1
aI0
aI0
aI0
aI1
aI0
aI6
aI-4
aa(lp24
V0020800066
p25
aVNOV 07, 2008
p26
aVNOH @ CHA
p27
aVL
p28
aI19
aI4
aI11
aF0.364
aI1
aI6
aF0.167
aI1
aI1
aF1.0
aI1
aI3
aI4
aI1
aI0
aI1
aI3
aI1
aI10
aI3
aa(lp29
V0020800081
p30
aVNOV 08, 2008
p31
aVNOH vs. MIA
p32
aVW
p33
aI19
aI4
aI8
aF0.5
aI2
aI6
aF0.333
aI0
aI0
aF0.0
aI1
aI2
aI3
aI1
aI2
aI0
aI0
aI2
aI10
aI9
aa(lp34
V0020800112
p35
aVNOV 12, 2008
p36
aVNOH vs. LAL
p37
aVL
p38
aI15
aI0
aI5
aF0.0
aI0
aI2
aF0.0
aI0
aI0
aF0.0
aI1
aI1
aI2
aI0
aI0
aI0
aI1
aI3
aI0
aI-10
aa(lp39
V0020800127
p40
aVNOV 14, 2008
p41
aVNOH vs. POR
p42
aVW
p43
aI19
aI3
aI5
aF0.6
aI1
aI2
aF0.5
aI1
aI2
aF0.5
aI0
aI2
aI2
aI0
aI0
aI0
aI0
aI0
aI8
aI5
aa(lp44
V0020800138
p45
aVNOV 15, 2008
p46
aVNOH @ HOU
p47
aVL
p48
aI25
aI3
aI8
aF0.375
aI1
aI3
aF0.333
aI0
aI0
aF0.0
aI0
aI3
aI3
aI0
aI1
aI0
aI0
aI2
aI7
aI-8
aa(lp49
V0020800271
p50
aVDEC 03, 2008
p51
aVNOH vs. PHX
p52
aVW
p53
aI4
aI0
aI1
aF0.0
aI0
aI1
aF0.0
aI0
aI0
aF0.0
aI0
aI1
aI1
aI0
aI0
aI0
aI2
aI1
aI0
aI-10
aa(lp54
V0020800291
p55
aVDEC 06, 2008
p56
aVNOH vs. MEM
p57
aVW
p58
aI19
aI2
aI8
aF0.25
aI1
aI3
aF0.333
aI0
aI0
aF0.0
aI0
aI6
aI6
aI1
aI0
aI0
aI0
aI2
aI5
aI-5
aa(lp59
V0020800316
p60
aVDEC 10, 2008
p61
aVNOH vs. CHA
p62
aVW
p63
aI18
aI5
aI10
aF0.5
aI4
aI5
aF0.8
aI2
aI2
aF1.0
aI0
aI2
aI2
aI0
aI1
aI0
aI2
aI2
aI16
aI-8
aa(lp64
V0020800329
p65
aVDEC 12, 2008
p66
aVNOH @ BOS
p67
aVL
p68
aI5
aI0
aI1
aF0.0
aI0
aI0
aF0.0
aI0
aI0
aF0.0
aI0
aI0
aI0
aI0
aI0
aI0
aI0
aI0
aI0
aI-2
aa(lp69
V0020800394
p70
aVDEC 20, 2008
p71
aVNOH vs. SAC
p72
aVW
p73
aI19
aI4
aI8
aF0.5
aI2
aI4
aF0.5
aI0
aI0
aF0.0
aI0
aI2
aI2
aI0
aI0
aI0
aI0
aI2
aI10
aI-7
aa(lp74
V0020800417
p75
aVDEC 23, 2008
p76
aVNOH vs. LAL
p77
aVL
p78
aI19
aI6
aI9
aF0.667
aI2
aI4
aF0.5
aI2
aI2
aF1.0
aI1
aI2
aI3
aI1
aI0
aI0
aI0
aI5
aI16
aI5
aa(lp79
V0020800421
p80
aVDEC 25, 2008
p81
aVNOH @ ORL
p82
aVL
p83
aI20
aI1
aI6
aF0.167
aI1
aI3
aF0.333
aI0
aI0
aF0.0
aI0
aI4
aI4
aI2
aI0
aI0
aI0
aI3
aI3
aI7
aa(lp84
V0020800431
p85
aVDEC 26, 2008
p86
aVNOH vs. HOU
p87
aVW
p88
aI6
aI0
aI1
aF0.0
aI0
aI1
aF0.0
aI0
aI0
aF0.0
aI0
aI2
aI2
aI0
aI0
aI0
aI1
aI0
aI0
aI0
aa(lp89
V0020800462
p90
aVDEC 30, 2008
p91
aVNOH vs. WAS
p92
aVW
p93
aI7
aI0
aI2
aF0.0
aI0
aI2
aF0.0
aI0
aI0
aF0.0
aI0
aI2
aI2
aI2
aI0
aI0
aI0
aI1
aI0
aI-2
aa(lp94
V0020800486
p95
aVJAN 02, 2009
p96
aVNOH @ POR
p97
aVW
p98
aI6
aI1
aI3
aF0.333
aI0
aI0
aF0.0
aI0
aI0
aF0.0
aI2
aI1
aI3
aI0
aI1
aI0
aI0
aI1
aI2
aI1
aa(lp99
V0020800494
p100
aVJAN 03, 2009
p101
aVNOH @ DEN
p102
aVL
p103
aI7
aI0
aI2
aF0.0
aI0
aI1
aF0.0
aI0
aI0
aF0.0
aI0
aI1
aI1
aI0
aI0
aI0
aI0
aI2
aI0
aI-7
aa(lp104
V0020800523
p105
aVJAN 07, 2009
p106
aVNOH @ UTA
p107
aVL
p108
aI12
aI2
aI3
aF0.667
aI0
aI0
aF0.0
aI1
aI1
aF1.0
aI0
aI0
aI0
aI0
aI0
aI0
aI0
aI3
aI5
aI-6
aa(lp109
V0020800532
p110
aVJAN 09, 2009
p111
aVNOH vs. LAC
p112
aVW
p113
aI3
aI1
aI2
aF0.5
aI1
aI1
aF1.0
aI0
aI0
aF0.0
aI0
aI0
aI0
aI1
aI1
aI0
aI0
aI0
aI3
aI5
aa(lp114
V0020800556
p115
aVJAN 12, 2009
p116
aVNOH vs. NYK
p117
aVL
p118
aI5
aI0
aI1
aF0.0
aI0
aI0
aF0.0
aI0
aI0
aF0.0
aI0
aI1
aI1
aI0
aI0
aI0
aI0
aI0
aI0
aI-4
aa(lp119
V0020800607
p120
aVJAN 19, 2009
p121
aVNOH vs. IND
p122
aVW
p123
aI4
aI1
aI3
aF0.333
aI1
aI2
aF0.5
aI0
aI0
aF0.0
aI0
aI1
aI1
aI0
aI0
aI0
aI0
aI0
aI3
aI5
aa(lp124
V0020800622
p125
aVJAN 21, 2009
p126
aVNOH vs. NJN
p127
aVW
p128
aI6
aI1
aI1
aF1.0
aI1
aI1
aF1.0
aI0
aI0
aF0.0
aI1
aI0
aI1
aI0
aI0
aI0
aI0
aI1
aI3
aI-5
aa(lp129
V0020800635
p130
aVJAN 23, 2009
p131
aVNOH @ MIN
p132
aVL
p133
aI8
aI3
aI3
aF1.0
aI2
aI2
aF1.0
aI0
aI0
aF0.0
aI0
aI3
aI3
aI1
aI0
aI0
aI0
aI3
aI8
aI6
aa(lp134
V0020800659
p135
aVJAN 26, 2009
p136
aVNOH vs. PHI
p137
aVW
p138
aI5
aI1
aI2
aF0.5
aI0
aI0
aF0.0
aI0
aI0
aF0.0
aI0
aI0
aI0
aI0
aI0
aI0
aI0
aI1
aI2
aI0
aa(lp139
V0020800673
p140
aVJAN 28, 2009
p141
aVNOH vs. DEN
p142
aVW
p143
aI3
aI1
aI2
aF0.5
aI1
aI1
aF1.0
aI0
aI0
aF0.0
aI0
aI0
aI0
aI1
aI0
aI0
aI0
aI1
aI3
aI2
aa(lp144
V0020800981
p145
aVMAR 14, 2009
p146
aVNOH @ CHI
p147
aVL
p148
aI10
aI1
aI4
aF0.25
aI0
aI3
aF0.0
aI0
aI0
aF0.0
aI1
aI0
aI1
aI0
aI1
aI0
aI0
aI0
aI2
aI12
aa(lp149
V0020800998
p150
aVMAR 16, 2009
p151
aVNOH vs. HOU
p152
aVL
p153
aI4
aI1
aI2
aF0.5
aI1
aI1
aF1.0
aI0
aI0
aF0.0
aI1
aI0
aI1
aI0
aI0
aI0
aI1
aI0
aI3
aI-6
aa(lp154
V0020801015
p155
aVMAR 18, 2009
p156
aVNOH vs. MIN
p157
aVW
p158
aI15
aI3
aI6
aF0.5
aI1
aI2
aF0.5
aI1
aI2
aF0.5
aI0
aI2
aI2
aI0
aI0
aI0
aI0
aI3
aI8
aI6
aa(lp159
V0020801028
p160
aVMAR 20, 2009
p161
aVNOH vs. MEM
p162
aVW
p163
aI10
aI1
aI4
aF0.25
aI0
aI1
aF0.0
aI0
aI0
aF0.0
aI0
aI1
aI1
aI1
aI0
aI0
aI0
aI2
aI2
aI-11
aa(lp164
V0020801046
p165
aVMAR 22, 2009
p166
aVNOH vs. GSW
p167
aVW
p168
aI18
aI1
aI5
aF0.2
aI1
aI3
aF0.333
aI0
aI0
aF0.0
aI0
aI2
aI2
aI0
aI1
aI0
aI1
aI1
aI3
aI-5
aa(lp169
V0020801066
p170
aVMAR 25, 2009
p171
aVNOH vs. DEN
p172
aVL
p173
aI22
aI2
aI4
aF0.5
aI2
aI3
aF0.667
aI0
aI0
aF0.0
aI1
aI3
aI4
aI1
aI0
aI0
aI0
aI0
aI6
aI1
aa(lp174
V0020801079
p175
aVMAR 27, 2009
p176
aVNOH @ NYK
p177
aVL
p178
aI20
aI3
aI6
aF0.5
aI3
aI4
aF0.75
aI0
aI0
aF0.0
aI0
aI3
aI3
aI1
aI3
aI0
aI0
aI2
aI9
aI9
aa(lp179
V0020801098
p180
aVMAR 29, 2009
p181
aVNOH vs. SAS
p182
aVW
p183
aI6
aI0
aI1
aF0.0
aI0
aI0
aF0.0
aI0
aI0
aF0.0
aI0
aI2
aI2
aI0
aI0
aI0
aI0
aI0
aI0
aI5
aa(lp184
V0020801112
p185
aVMAR 31, 2009
p186
aVNOH @ SAC
p187
aVW
p188
aI7
aI0
aI2
aF0.0
aI0
aI0
aF0.0
aI0
aI0
aF0.0
aI0
aI1
aI1
aI0
aI0
aI0
aI0
aI2
aI0
aI-2
aa(lp189
V0020801121
p190
aVAPR 01, 2009
p191
aVNOH @ LAC
p192
aVW
p193
aI6
aI1
aI4
aF0.25
aI0
aI3
aF0.0
aI0
aI0
aF0.0
aI0
aI3
aI3
aI0
aI0
aI0
aI0
aI0
aI2
aI1
aa(lp194
V0020801148
p195
aVAPR 05, 2009
p196
aVNOH vs. UTA
p197
aVL
p198
aI6
aI1
aI2
aF0.5
aI0
aI0
aF0.0
aI0
aI1
aF0.0
aI0
aI1
aI1
aI0
aI0
aI0
aI1
aI0
aI2
aI1
aa(lp199
V0020801155
p200
aVAPR 07, 2009
p201
aVNOH @ MIA
p202
aVW
p203
aI9
aI1
aI2
aF0.5
aI0
aI1
aF0.0
aI0
aI0
aF0.0
aI0
aI2
aI2
aI0
aI0
aI0
aI1
aI0
aI2
aI0
aa(lp204
V0020801168
p205
aVAPR 08, 2009
p206
aVNOH vs. PHX
p207
aVL
p208
aI8
aI0
aI3
aF0.0
aI0
aI2
aF0.0
aI0
aI0
aF0.0
aI1
aI1
aI2
aI0
aI0
aI0
aI0
aI0
aI0
aI-6
aa(lp209
V0020801196
p210
aVAPR 12, 2009
p211
aVNOH vs. DAL
p212
aVW
p213
aI7
aI0
aI0
aF0.0
aI0
aI0
aF0.0
aI0
aI0
aF0.0
aI0
aI0
aI0
aI0
aI0
aI0
aI0
aI1
aI0
aI0
aa(lp214
V0020801208
p215
aVAPR 13, 2009
p216
aVNOH @ HOU
p217
aVL
p218
aI6
aI0
aI3
aF0.0
aI0
aI2
aF0.0
aI0
aI2
aF0.0
aI0
aI1
aI1
aI0
aI0
aI0
aI0
aI0
aI0
aI3
aasS'name'
p219
VMorris Peterson
p220
sS'experience'
p221
I8
s.