(dp0
S'age'
p1
I32
sS'stats'
p2
(lp3
(lp4
V0020800084
p5
aVNOV 08, 2008
p6
aVMIN @ POR
p7
aVL
p8
aI10
aI0
aI0
aF0.0
aI0
aI0
aF0.0
aI0
aI0
aF0.0
aI3
aI1
aI4
aI2
aI0
aI0
aI1
aI2
aI0
aI0
aa(lp9
V0020800105
p10
aVNOV 11, 2008
p11
aVMIN @ GSW
p12
aVL
p13
aI2
aI0
aI0
aF0.0
aI0
aI0
aF0.0
aI0
aI0
aF0.0
aI0
aI0
aI0
aI0
aI0
aI0
aI0
aI1
aI0
aI-4
aa(lp14
V0020800176
p15
aVNOV 21, 2008
p16
aVMIN vs. BOS
p17
aVL
p18
aI2
aI0
aI0
aF0.0
aI0
aI0
aF0.0
aI0
aI0
aF0.0
aI0
aI0
aI0
aI0
aI0
aI0
aI0
aI0
aI0
aI4
aa(lp19
V0020800195
p20
aVNOV 23, 2008
p21
aVMIN @ DET
p22
aVW
p23
aI2
aI0
aI0
aF0.0
aI0
aI0
aF0.0
aI0
aI0
aF0.0
aI0
aI0
aI0
aI0
aI0
aI0
aI0
aI0
aI0
aI-2
aa(lp24
V0020800280
p25
aVDEC 05, 2008
p26
aVMIN @ NJN
p27
aVL
p28
aI6
aI0
aI0
aF0.0
aI0
aI0
aF0.0
aI0
aI0
aF0.0
aI1
aI0
aI1
aI1
aI0
aI0
aI0
aI0
aI0
aI-3
aa(lp29
V0020800290
p30
aVDEC 06, 2008
p31
aVMIN vs. LAC
p32
aVL
p33
aI6
aI0
aI1
aF0.0
aI0
aI0
aF0.0
aI0
aI0
aF0.0
aI1
aI0
aI1
aI0
aI0
aI0
aI0
aI1
aI0
aI5
aa(lp34
V0020800392
p35
aVDEC 20, 2008
p36
aVMIN vs. HOU
p37
aVL
p38
aI10
aI0
aI0
aF0.0
aI0
aI0
aF0.0
aI0
aI2
aF0.0
aI2
aI1
aI3
aI0
aI0
aI0
aI0
aI0
aI0
aI5
aa(lp39
V0020800439
p40
aVDEC 27, 2008
p41
aVMIN vs. ORL
p42
aVL
p43
aI4
aI1
aI1
aF1.0
aI0
aI0
aF0.0
aI0
aI0
aF0.0
aI1
aI0
aI1
aI0
aI0
aI0
aI0
aI0
aI2
aI-2
aa(lp44
V0020800520
p45
aVJAN 07, 2009
p46
aVMIN vs. OKC
p47
aVW
p48
aI7
aI1
aI5
aF0.2
aI0
aI0
aF0.0
aI0
aI2
aF0.0
aI1
aI1
aI2
aI0
aI0
aI0
aI0
aI1
aI2
aI5
aa(lp49
V0020800687
p50
aVJAN 30, 2009
p51
aVMIN vs. LAL
p52
aVL
p53
aI2
aI0
aI0
aF0.0
aI0
aI0
aF0.0
aI0
aI0
aF0.0
aI0
aI0
aI0
aI1
aI0
aI0
aI0
aI1
aI0
aI1
aa(lp54
V0020800790
p55
aVFEB 17, 2009
p56
aVMIN @ WAS
p57
aVL
p58
aI9
aI0
aI0
aF0.0
aI0
aI0
aF0.0
aI0
aI0
aF0.0
aI0
aI1
aI1
aI0
aI0
aI0
aI1
aI2
aI0
aI-10
aa(lp59
V0020800888
p60
aVMAR 01, 2009
p61
aVMIN vs. HOU
p62
aVL
p63
aI1
aI0
aI0
aF0.0
aI0
aI0
aF0.0
aI0
aI0
aF0.0
aI0
aI0
aI0
aI0
aI0
aI0
aI0
aI0
aI0
aI-2
aa(lp64
V0020800901
p65
aVMAR 03, 2009
p66
aVMIN vs. GSW
p67
aVL
p68
aI8
aI1
aI2
aF0.5
aI0
aI0
aF0.0
aI0
aI0
aF0.0
aI1
aI1
aI2
aI0
aI0
aI0
aI0
aI2
aI2
aI0
aa(lp69
V0020800974
p70
aVMAR 13, 2009
p71
aVMIN vs. NYK
p72
aVL
p73
aI5
aI0
aI0
aF0.0
aI0
aI0
aF0.0
aI0
aI0
aF0.0
aI0
aI0
aI0
aI0
aI0
aI0
aI0
aI0
aI0
aI4
aa(lp74
V0020801093
p75
aVMAR 29, 2009
p76
aVMIN vs. NJN
p77
aVW
p78
aI3
aI0
aI0
aF0.0
aI0
aI0
aF0.0
aI0
aI0
aF0.0
aI0
aI0
aI0
aI0
aI0
aI0
aI1
aI3
aI0
aI3
aa(lp79
V0020801108
p80
aVMAR 31, 2009
p81
aVMIN vs. DAL
p82
aVL
p83
aI5
aI0
aI0
aF0.0
aI0
aI0
aF0.0
aI0
aI0
aF0.0
aI0
aI0
aI0
aI0
aI0
aI0
aI0
aI2
aI0
aI-4
aa(lp84
V0020801147
p85
aVAPR 05, 2009
p86
aVMIN vs. DEN
p87
aVL
p88
aI15
aI0
aI3
aF0.0
aI0
aI0
aF0.0
aI0
aI0
aF0.0
aI0
aI3
aI3
aI0
aI0
aI0
aI0
aI2
aI0
aI3
aa(lp89
V0020801191
p90
aVAPR 11, 2009
p91
aVMIN vs. PHX
p92
aVL
p93
aI7
aI0
aI0
aF0.0
aI0
aI0
aF0.0
aI0
aI0
aF0.0
aI0
aI0
aI0
aI0
aI1
aI1
aI0
aI1
aI0
aI6
aa(lp94
V0020801224
p95
aVAPR 15, 2009
p96
aVMIN vs. SAC
p97
aVL
p98
aI10
aI0
aI2
aF0.0
aI0
aI0
aF0.0
aI0
aI0
aF0.0
aI0
aI0
aI0
aI0
aI0
aI0
aI0
aI0
aI0
aI3
aasS'name'
p99
VMark Madsen
p100
sS'experience'
p101
I8
s.