(dp0
S'age'
p1
I30
sS'stats'
p2
(lp3
(lp4
V0020800090
p5
aVNOV 09, 2008
p6
aVMEM @ DEN
p7
aVL
p8
aI5
aI0
aI0
aF0.0
aI0
aI0
aF0.0
aI0
aI0
aF0.0
aI0
aI0
aI0
aI0
aI0
aI0
aI0
aI0
aI0
aI3
aa(lp9
V0020800110
p10
aVNOV 12, 2008
p11
aVMEM vs. NYK
p12
aVL
p13
aI10
aI2
aI2
aF1.0
aI0
aI0
aF0.0
aI2
aI2
aF1.0
aI0
aI0
aI0
aI4
aI2
aI0
aI0
aI0
aI6
aI-4
aa(lp14
V0020800155
p15
aVNOV 18, 2008
p16
aVMEM vs. SAC
p17
aVW
p18
aI6
aI0
aI2
aF0.0
aI0
aI0
aF0.0
aI1
aI2
aF0.5
aI0
aI0
aI0
aI0
aI0
aI0
aI1
aI0
aI1
aI-5
aa(lp19
V0020800177
p20
aVNOV 21, 2008
p21
aVMEM @ DAL
p22
aVL
p23
aI1
aI0
aI1
aF0.0
aI0
aI0
aF0.0
aI0
aI0
aF0.0
aI0
aI0
aI0
aI0
aI0
aI0
aI0
aI0
aI0
aI0
aa(lp24
V0020800190
p25
aVNOV 22, 2008
p26
aVMEM vs. UTA
p27
aVL
p28
aI8
aI0
aI0
aF0.0
aI0
aI0
aF0.0
aI0
aI0
aF0.0
aI0
aI1
aI1
aI1
aI1
aI0
aI0
aI1
aI0
aI11
aa(lp29
V0020800219
p30
aVNOV 26, 2008
p31
aVMEM @ UTA
p32
aVL
p33
aI10
aI0
aI2
aF0.0
aI0
aI1
aF0.0
aI0
aI0
aF0.0
aI0
aI0
aI0
aI1
aI1
aI0
aI1
aI0
aI0
aI6
aa(lp34
V0020800232
p35
aVNOV 28, 2008
p36
aVMEM @ SAS
p37
aVL
p38
aI9
aI0
aI1
aF0.0
aI0
aI0
aF0.0
aI0
aI0
aF0.0
aI0
aI0
aI0
aI0
aI0
aI0
aI2
aI1
aI0
aI-4
aa(lp39
V0020800291
p40
aVDEC 06, 2008
p41
aVMEM @ NOH
p42
aVL
p43
aI12
aI1
aI3
aF0.333
aI0
aI0
aF0.0
aI0
aI2
aF0.0
aI0
aI1
aI1
aI2
aI0
aI1
aI0
aI1
aI2
aI10
aa(lp44
V0020800453
p45
aVDEC 29, 2008
p46
aVMEM @ MIN
p47
aVL
p48
aI2
aI0
aI0
aF0.0
aI0
aI0
aF0.0
aI0
aI0
aF0.0
aI0
aI0
aI0
aI0
aI0
aI0
aI0
aI0
aI0
aI2
aa(lp49
V0020800498
p50
aVJAN 04, 2009
p51
aVMEM vs. DAL
p52
aVW
p53
aI14
aI1
aI3
aF0.333
aI1
aI2
aF0.5
aI0
aI0
aF0.0
aI1
aI2
aI3
aI2
aI0
aI0
aI0
aI1
aI3
aI-4
aa(lp54
V0020800530
p55
aVJAN 09, 2009
p56
aVMEM @ TOR
p57
aVL
p58
aI4
aI0
aI0
aF0.0
aI0
aI0
aF0.0
aI0
aI0
aF0.0
aI0
aI0
aI0
aI1
aI1
aI0
aI0
aI0
aI0
aI0
aa(lp59
V0020800560
p60
aVJAN 13, 2009
p61
aVMEM vs. CLE
p62
aVL
p63
aI10
aI0
aI0
aF0.0
aI0
aI0
aF0.0
aI0
aI0
aF0.0
aI0
aI1
aI1
aI0
aI0
aI1
aI0
aI1
aI0
aI3
aa(lp64
V0020800584
p65
aVJAN 16, 2009
p66
aVMEM vs. UTA
p67
aVL
p68
aI17
aI2
aI5
aF0.4
aI1
aI2
aF0.5
aI2
aI2
aF1.0
aI1
aI0
aI1
aI2
aI2
aI0
aI0
aI1
aI7
aI4
aa(lp69
V0020800609
p70
aVJAN 19, 2009
p71
aVMEM vs. DET
p72
aVL
p73
aI13
aI1
aI2
aF0.5
aI0
aI0
aF0.0
aI0
aI0
aF0.0
aI0
aI0
aI0
aI0
aI0
aI0
aI1
aI0
aI2
aI-7
aa(lp74
V0020800617
p75
aVJAN 21, 2009
p76
aVMEM @ CHA
p77
aVL
p78
aI19
aI2
aI3
aF0.667
aI0
aI0
aF0.0
aI0
aI0
aF0.0
aI1
aI1
aI2
aI2
aI0
aI1
aI0
aI0
aI4
aI2
aa(lp79
V0020800634
p80
aVJAN 23, 2009
p81
aVMEM @ NYK
p82
aVL
p83
aI18
aI1
aI5
aF0.2
aI0
aI0
aF0.0
aI0
aI0
aF0.0
aI1
aI0
aI1
aI0
aI0
aI0
aI2
aI3
aI2
aI-23
aa(lp84
V0020800642
p85
aVJAN 24, 2009
p86
aVMEM vs. NJN
p87
aVL
p88
aI5
aI0
aI0
aF0.0
aI0
aI0
aF0.0
aI0
aI0
aF0.0
aI0
aI1
aI1
aI1
aI0
aI0
aI0
aI2
aI0
aI6
aa(lp89
V0020800664
p90
aVJAN 27, 2009
p91
aVMEM vs. DEN
p92
aVL
p93
aI12
aI1
aI2
aF0.5
aI0
aI0
aF0.0
aI0
aI0
aF0.0
aI1
aI1
aI2
aI1
aI0
aI0
aI3
aI3
aI2
aI5
aa(lp94
V0020800695
p95
aVJAN 31, 2009
p96
aVMEM vs. LAL
p97
aVL
p98
aI1
aI0
aI1
aF0.0
aI0
aI0
aF0.0
aI0
aI0
aF0.0
aI0
aI0
aI0
aI0
aI0
aI0
aI0
aI0
aI0
aI-2
aa(lp99
V0020800707
p100
aVFEB 02, 2009
p101
aVMEM @ WAS
p102
aVW
p103
aI9
aI1
aI2
aF0.5
aI0
aI0
aF0.0
aI0
aI0
aF0.0
aI0
aI1
aI1
aI3
aI2
aI0
aI0
aI0
aI2
aI14
aa(lp104
V0020800725
p105
aVFEB 04, 2009
p106
aVMEM vs. HOU
p107
aVW
p108
aI11
aI1
aI2
aF0.5
aI0
aI0
aF0.0
aI2
aI2
aF1.0
aI0
aI1
aI1
aI4
aI0
aI0
aI2
aI2
aI4
aI7
aa(lp109
V0020800737
p110
aVFEB 06, 2009
p111
aVMEM vs. LAC
p112
aVL
p113
aI16
aI3
aI9
aF0.333
aI0
aI1
aF0.0
aI2
aI2
aF1.0
aI0
aI2
aI2
aI2
aI1
aI0
aI0
aI1
aI8
aI4
aa(lp114
V0020800746
p115
aVFEB 07, 2009
p116
aVMEM vs. TOR
p117
aVW
p118
aI13
aI2
aI4
aF0.5
aI1
aI2
aF0.5
aI0
aI0
aF0.0
aI0
aI0
aI0
aI1
aI0
aI0
aI2
aI3
aI5
aI1
aa(lp119
V0020800762
p120
aVFEB 09, 2009
p121
aVMEM vs. NOH
p122
aVW
p123
aI9
aI1
aI4
aF0.25
aI0
aI1
aF0.0
aI0
aI0
aF0.0
aI0
aI2
aI2
aI1
aI0
aI0
aI0
aI1
aI2
aI-5
aa(lp124
V0020800776
p125
aVFEB 11, 2009
p126
aVMEM @ PHI
p127
aVL
p128
aI11
aI1
aI4
aF0.25
aI0
aI1
aF0.0
aI0
aI0
aF0.0
aI0
aI1
aI1
aI2
aI1
aI0
aI0
aI2
aI2
aI2
aa(lp129
V0020800796
p130
aVFEB 17, 2009
p131
aVMEM @ UTA
p132
aVL
p133
aI14
aI0
aI7
aF0.0
aI0
aI0
aF0.0
aI0
aI0
aF0.0
aI4
aI2
aI6
aI2
aI0
aI0
aI3
aI1
aI0
aI-4
aa(lp134
V0020800805
p135
aVFEB 18, 2009
p136
aVMEM @ POR
p137
aVL
p138
aI4
aI0
aI2
aF0.0
aI0
aI0
aF0.0
aI0
aI0
aF0.0
aI0
aI0
aI0
aI0
aI0
aI0
aI0
aI0
aI0
aI3
aa(lp139
V0020800813
p140
aVFEB 20, 2009
p141
aVMEM vs. SAC
p142
aVL
p143
aI10
aI0
aI1
aF0.0
aI0
aI0
aF0.0
aI0
aI0
aF0.0
aI0
aI2
aI2
aI0
aI1
aI0
aI3
aI1
aI0
aI-1
aa(lp144
V0020800842
p145
aVFEB 24, 2009
p146
aVMEM @ CLE
p147
aVL
p148
aI15
aI0
aI2
aF0.0
aI0
aI2
aF0.0
aI0
aI0
aF0.0
aI1
aI0
aI1
aI4
aI0
aI1
aI1
aI2
aI0
aI-6
aa(lp149
V0020800850
p150
aVFEB 25, 2009
p151
aVMEM @ IND
p152
aVL
p153
aI12
aI0
aI4
aF0.0
aI0
aI1
aF0.0
aI0
aI0
aF0.0
aI1
aI0
aI1
aI2
aI0
aI0
aI0
aI2
aI0
aI3
aa(lp154
V0020800878
p155
aVFEB 28, 2009
p156
aVMEM vs. OKC
p157
aVL
p158
aI13
aI0
aI4
aF0.0
aI0
aI0
aF0.0
aI4
aI4
aF1.0
aI0
aI0
aI0
aI3
aI3
aI0
aI1
aI3
aI4
aI-1
aa(lp159
V0020800904
p160
aVMAR 03, 2009
p161
aVMEM @ LAL
p162
aVL
p163
aI11
aI1
aI1
aF1.0
aI0
aI0
aF0.0
aI0
aI0
aF0.0
aI0
aI0
aI0
aI0
aI0
aI0
aI3
aI3
aI2
aI-8
aa(lp164
V0020800914
p165
aVMAR 04, 2009
p166
aVMEM @ LAC
p167
aVW
p168
aI20
aI1
aI4
aF0.25
aI1
aI1
aF1.0
aI0
aI0
aF0.0
aI1
aI0
aI1
aI2
aI0
aI1
aI1
aI3
aI3
aI5
aa(lp169
V0020800930
p170
aVMAR 07, 2009
p171
aVMEM vs. PHI
p172
aVL
p173
aI3
aI0
aI1
aF0.0
aI0
aI1
aF0.0
aI0
aI0
aF0.0
aI0
aI0
aI0
aI2
aI0
aI0
aI2
aI0
aI0
aI-3
aa(lp174
V0020800961
p175
aVMAR 11, 2009
p176
aVMEM @ MIN
p177
aVL
p178
aI9
aI1
aI2
aF0.5
aI0
aI0
aF0.0
aI0
aI0
aF0.0
aI0
aI0
aI0
aI1
aI0
aI0
aI1
aI0
aI2
aI-11
aa(lp179
V0020800973
p180
aVMAR 13, 2009
p181
aVMEM @ BOS
p182
aVL
p183
aI10
aI0
aI1
aF0.0
aI0
aI0
aF0.0
aI0
aI0
aF0.0
aI2
aI0
aI2
aI0
aI0
aI0
aI0
aI0
aI0
aI-1
aa(lp184
V0020800987
p185
aVMAR 15, 2009
p186
aVMEM @ DET
p187
aVW
p188
aI7
aI0
aI1
aF0.0
aI0
aI0
aF0.0
aI0
aI3
aF0.0
aI0
aI1
aI1
aI2
aI1
aI0
aI0
aI0
aI0
aI2
aa(lp189
V0020800997
p190
aVMAR 16, 2009
p191
aVMEM vs. POR
p192
aVL
p193
aI16
aI1
aI2
aF0.5
aI0
aI0
aF0.0
aI0
aI0
aF0.0
aI1
aI0
aI1
aI3
aI0
aI0
aI0
aI1
aI2
aI-5
aa(lp194
V0020801013
p195
aVMAR 18, 2009
p196
aVMEM vs. DEN
p197
aVL
p198
aI9
aI2
aI4
aF0.5
aI2
aI2
aF1.0
aI0
aI0
aF0.0
aI1
aI1
aI2
aI2
aI0
aI0
aI1
aI0
aI6
aI0
aa(lp199
V0020801028
p200
aVMAR 20, 2009
p201
aVMEM @ NOH
p202
aVL
p203
aI14
aI1
aI3
aF0.333
aI0
aI0
aF0.0
aI2
aI2
aF1.0
aI0
aI0
aI0
aI3
aI0
aI0
aI2
aI0
aI4
aI15
aa(lp204
V0020801037
p205
aVMAR 21, 2009
p206
aVMEM vs. BOS
p207
aVL
p208
aI16
aI3
aI5
aF0.6
aI0
aI0
aF0.0
aI1
aI2
aF0.5
aI1
aI0
aI1
aI2
aI0
aI1
aI2
aI2
aI7
aI-1
aa(lp209
V0020801051
p210
aVMAR 23, 2009
p211
aVMEM @ MIA
p212
aVL
p213
aI13
aI2
aI3
aF0.667
aI1
aI1
aF1.0
aI1
aI1
aF1.0
aI0
aI1
aI1
aI0
aI0
aI0
aI1
aI0
aI6
aI1
aa(lp214
V0020801082
p215
aVMAR 27, 2009
p216
aVMEM @ SAC
p217
aVW
p218
aI11
aI1
aI2
aF0.5
aI0
aI0
aF0.0
aI0
aI0
aF0.0
aI0
aI1
aI1
aI2
aI0
aI0
aI1
aI1
aI2
aI0
aa(lp219
V0020801090
p220
aVMAR 28, 2009
p221
aVMEM @ POR
p222
aVL
p223
aI13
aI1
aI2
aF0.5
aI0
aI0
aF0.0
aI0
aI2
aF0.0
aI0
aI0
aI0
aI1
aI1
aI0
aI4
aI3
aI2
aI2
aa(lp224
V0020801103
p225
aVMAR 30, 2009
p226
aVMEM @ GSW
p227
aVW
p228
aI12
aI2
aI6
aF0.333
aI0
aI1
aF0.0
aI1
aI2
aF0.5
aI1
aI3
aI4
aI1
aI1
aI0
aI0
aI1
aI5
aI18
aa(lp229
V0020801128
p230
aVAPR 03, 2009
p231
aVMEM vs. DAL
p232
aVW
p233
aI22
aI4
aI8
aF0.5
aI1
aI3
aF0.333
aI1
aI1
aF1.0
aI0
aI3
aI3
aI3
aI0
aI1
aI2
aI2
aI10
aI12
aa(lp234
V0020801140
p235
aVAPR 04, 2009
p236
aVMEM @ MIL
p237
aVW
p238
aI15
aI2
aI3
aF0.667
aI1
aI2
aF0.5
aI1
aI2
aF0.5
aI1
aI3
aI4
aI1
aI2
aI1
aI3
aI2
aI6
aI17
aa(lp239
V0020801156
p240
aVAPR 07, 2009
p241
aVMEM vs. POR
p242
aVL
p243
aI11
aI0
aI0
aF0.0
aI0
aI0
aF0.0
aI4
aI4
aF1.0
aI1
aI0
aI1
aI1
aI1
aI0
aI0
aI1
aI4
aI6
aa(lp244
V0020801164
p245
aVAPR 08, 2009
p246
aVMEM @ ORL
p247
aVL
p248
aI11
aI1
aI3
aF0.333
aI0
aI1
aF0.0
aI2
aI2
aF1.0
aI0
aI1
aI1
aI0
aI2
aI0
aI1
aI2
aI4
aI-1
aa(lp249
V0020801181
p250
aVAPR 10, 2009
p251
aVMEM vs. PHX
p252
aVW
p253
aI15
aI4
aI8
aF0.5
aI1
aI1
aF1.0
aI0
aI0
aF0.0
aI1
aI0
aI1
aI2
aI2
aI0
aI1
aI5
aI9
aI-3
aa(lp254
V0020801201
p255
aVAPR 12, 2009
p256
aVMEM @ LAL
p257
aVL
p258
aI18
aI1
aI5
aF0.2
aI1
aI2
aF0.5
aI0
aI0
aF0.0
aI0
aI2
aI2
aI0
aI2
aI1
aI1
aI3
aI3
aI-6
aa(lp259
V0020801211
p260
aVAPR 13, 2009
p261
aVMEM @ PHX
p262
aVL
p263
aI17
aI0
aI3
aF0.0
aI0
aI0
aF0.0
aI3
aI4
aF0.75
aI2
aI2
aI4
aI3
aI0
aI1
aI0
aI1
aI3
aI10
aa(lp264
V0020801222
p265
aVAPR 15, 2009
p266
aVMEM vs. ATL
p267
aVW
p268
aI23
aI0
aI1
aF0.0
aI0
aI0
aF0.0
aI0
aI0
aF0.0
aI0
aI5
aI5
aI2
aI2
aI1
aI1
aI0
aI0
aI-5
aasS'name'
p269
VMarko Jaric
p270
sS'experience'
p271
I6
s.