(dp0
S'age'
p1
I30
sS'stats'
p2
(lp3
(lp4
V0020800015
p5
aVOCT 29, 2008
p6
aVLAC vs. LAL
p7
aVL
p8
aI12
aI2
aI4
aF0.5
aI0
aI0
aF0.0
aI0
aI0
aF0.0
aI1
aI1
aI2
aI1
aI3
aI0
aI0
aI3
aI4
aI-10
aa(lp9
V0020800024
p10
aVOCT 31, 2008
p11
aVLAC vs. DEN
p12
aVL
p13
aI29
aI1
aI5
aF0.2
aI0
aI0
aF0.0
aI1
aI1
aF1.0
aI0
aI2
aI2
aI2
aI0
aI0
aI1
aI5
aI3
aI-25
aa(lp14
V0020800038
p15
aVNOV 01, 2008
p16
aVLAC @ UTA
p17
aVL
p18
aI15
aI1
aI4
aF0.25
aI0
aI0
aF0.0
aI0
aI0
aF0.0
aI0
aI1
aI1
aI2
aI0
aI0
aI1
aI2
aI2
aI-13
aa(lp19
V0020800087
p20
aVNOV 09, 2008
p21
aVLAC vs. DAL
p22
aVW
p23
aI5
aI1
aI2
aF0.5
aI0
aI0
aF0.0
aI0
aI0
aF0.0
aI0
aI0
aI0
aI1
aI0
aI0
aI2
aI2
aI2
aI4
aa(lp24
V0020800165
p25
aVNOV 19, 2008
p26
aVLAC @ OKC
p27
aVW
p28
aI6
aI1
aI2
aF0.5
aI0
aI0
aF0.0
aI0
aI0
aF0.0
aI0
aI2
aI2
aI0
aI0
aI0
aI0
aI1
aI2
aI0
aa(lp29
V0020800172
p30
aVNOV 21, 2008
p31
aVLAC @ PHI
p32
aVL
p33
aI10
aI0
aI3
aF0.0
aI0
aI0
aF0.0
aI0
aI0
aF0.0
aI1
aI1
aI2
aI2
aI0
aI0
aI0
aI1
aI0
aI-9
aa(lp34
V0020800272
p35
aVDEC 03, 2008
p36
aVLAC @ HOU
p37
aVL
p38
aI8
aI0
aI1
aF0.0
aI0
aI0
aF0.0
aI1
aI2
aF0.5
aI0
aI0
aI0
aI1
aI0
aI0
aI1
aI0
aI1
aI-1
aa(lp39
V0020800290
p40
aVDEC 06, 2008
p41
aVLAC @ MIN
p42
aVW
p43
aI16
aI1
aI3
aF0.333
aI0
aI0
aF0.0
aI0
aI0
aF0.0
aI1
aI1
aI2
aI1
aI0
aI0
aI1
aI0
aI2
aI-6
aa(lp44
V0020800346
p45
aVDEC 13, 2008
p46
aVLAC vs. HOU
p47
aVW
p48
aI8
aI0
aI2
aF0.0
aI0
aI0
aF0.0
aI2
aI2
aF1.0
aI0
aI2
aI2
aI2
aI1
aI2
aI0
aI1
aI2
aI9
aa(lp49
V0020800362
p50
aVDEC 16, 2008
p51
aVLAC @ OKC
p52
aVW
p53
aI10
aI2
aI5
aF0.4
aI0
aI1
aF0.0
aI0
aI0
aF0.0
aI0
aI0
aI0
aI0
aI0
aI0
aI1
aI2
aI4
aI-1
aa(lp54
V0020800373
p55
aVDEC 17, 2008
p56
aVLAC @ CHI
p57
aVL
p58
aI6
aI0
aI1
aF0.0
aI0
aI0
aF0.0
aI1
aI2
aF0.5
aI0
aI2
aI2
aI1
aI0
aI0
aI1
aI0
aI1
aI-1
aa(lp59
V0020800377
p60
aVDEC 19, 2008
p61
aVLAC @ IND
p62
aVW
p63
aI10
aI1
aI2
aF0.5
aI0
aI1
aF0.0
aI0
aI0
aF0.0
aI0
aI1
aI1
aI0
aI1
aI0
aI0
aI1
aI2
aI-2
aa(lp64
V0020800396
p65
aVDEC 20, 2008
p66
aVLAC @ MIL
p67
aVL
p68
aI30
aI2
aI6
aF0.333
aI0
aI0
aF0.0
aI5
aI5
aF1.0
aI1
aI4
aI5
aI7
aI0
aI0
aI3
aI1
aI9
aI-18
aa(lp69
V0020800408
p70
aVDEC 22, 2008
p71
aVLAC vs. TOR
p72
aVL
p73
aI10
aI0
aI1
aF0.0
aI0
aI0
aF0.0
aI0
aI0
aF0.0
aI0
aI0
aI0
aI1
aI0
aI0
aI0
aI1
aI0
aI-5
aa(lp74
V0020800445
p75
aVDEC 28, 2008
p76
aVLAC vs. DAL
p77
aVL
p78
aI22
aI3
aI9
aF0.333
aI0
aI0
aF0.0
aI2
aI4
aF0.5
aI2
aI5
aI7
aI2
aI0
aI0
aI0
aI3
aI8
aI-1
aa(lp79
V0020800466
p80
aVDEC 30, 2008
p81
aVLAC @ SAC
p82
aVL
p83
aI15
aI3
aI7
aF0.429
aI0
aI0
aF0.0
aI2
aI2
aF1.0
aI1
aI1
aI2
aI3
aI0
aI0
aI1
aI2
aI8
aI-3
aa(lp84
V0020800472
p85
aVDEC 31, 2008
p86
aVLAC vs. PHI
p87
aVL
p88
aI14
aI0
aI6
aF0.0
aI0
aI0
aF0.0
aI0
aI0
aF0.0
aI1
aI0
aI1
aI2
aI2
aI2
aI2
aI2
aI0
aI-4
aa(lp89
V0020800485
p90
aVJAN 02, 2009
p91
aVLAC @ PHX
p92
aVL
p93
aI10
aI0
aI0
aF0.0
aI0
aI0
aF0.0
aI0
aI0
aF0.0
aI0
aI1
aI1
aI1
aI0
aI0
aI1
aI0
aI0
aI-13
aa(lp94
V0020800527
p95
aVJAN 08, 2009
p96
aVLAC @ SAS
p97
aVL
p98
aI15
aI1
aI7
aF0.143
aI0
aI1
aF0.0
aI0
aI0
aF0.0
aI3
aI0
aI3
aI4
aI1
aI0
aI2
aI2
aI2
aI-2
aa(lp99
V0020800532
p100
aVJAN 09, 2009
p101
aVLAC @ NOH
p102
aVL
p103
aI6
aI0
aI1
aF0.0
aI0
aI0
aF0.0
aI0
aI0
aF0.0
aI0
aI0
aI0
aI1
aI0
aI0
aI0
aI0
aI0
aI-9
aa(lp104
V0020800639
p105
aVJAN 23, 2009
p106
aVLAC vs. OKC
p107
aVW
p108
aI12
aI1
aI2
aF0.5
aI0
aI0
aF0.0
aI0
aI0
aF0.0
aI0
aI0
aI0
aI1
aI1
aI0
aI1
aI2
aI2
aI-7
aa(lp109
V0020800654
p110
aVJAN 25, 2009
p111
aVLAC @ GSW
p112
aVL
p113
aI17
aI2
aI6
aF0.333
aI0
aI0
aF0.0
aI0
aI0
aF0.0
aI1
aI3
aI4
aI4
aI1
aI0
aI0
aI2
aI4
aI-3
aa(lp114
V0020800661
p115
aVJAN 26, 2009
p116
aVLAC vs. POR
p117
aVL
p118
aI8
aI0
aI0
aF0.0
aI0
aI0
aF0.0
aI0
aI0
aF0.0
aI0
aI0
aI0
aI1
aI0
aI0
aI1
aI0
aI0
aI-11
aa(lp119
V0020800708
p120
aVFEB 02, 2009
p121
aVLAC @ MIA
p122
aVL
p123
aI0
aI0
aI0
aF0.0
aI0
aI0
aF0.0
aI0
aI0
aF0.0
aI0
aI0
aI0
aI0
aI0
aI0
aI0
aI0
aI0
aI-4
aa(lp124
V0020800720
p125
aVFEB 04, 2009
p126
aVLAC @ ORL
p127
aVL
p128
aI7
aI1
aI2
aF0.5
aI0
aI0
aF0.0
aI1
aI1
aF1.0
aI0
aI1
aI1
aI1
aI1
aI0
aI0
aI1
aI3
aI4
aa(lp129
V0020800737
p130
aVFEB 06, 2009
p131
aVLAC @ MEM
p132
aVW
p133
aI1
aI1
aI1
aF1.0
aI0
aI0
aF0.0
aI0
aI0
aF0.0
aI0
aI0
aI0
aI1
aI0
aI0
aI0
aI0
aI2
aI0
aa(lp134
V0020800743
p135
aVFEB 07, 2009
p136
aVLAC @ ATL
p137
aVW
p138
aI2
aI1
aI1
aF1.0
aI0
aI0
aF0.0
aI0
aI0
aF0.0
aI0
aI0
aI0
aI0
aI1
aI0
aI0
aI1
aI2
aI-1
aa(lp139
V0020800795
p140
aVFEB 17, 2009
p141
aVLAC @ PHX
p142
aVL
p143
aI5
aI0
aI1
aF0.0
aI0
aI1
aF0.0
aI0
aI0
aF0.0
aI0
aI2
aI2
aI1
aI0
aI0
aI0
aI0
aI0
aI7
aa(lp144
V0020800916
p145
aVMAR 05, 2009
p146
aVDEN vs. POR
p147
aVW
p148
aI2
aI1
aI1
aF1.0
aI0
aI0
aF0.0
aI1
aI2
aF0.5
aI0
aI0
aI0
aI0
aI0
aI0
aI0
aI0
aI3
aI0
aa(lp149
V0020800942
p150
aVMAR 08, 2009
p151
aVDEN @ SAC
p152
aVL
p153
aI1
aI0
aI0
aF0.0
aI0
aI0
aF0.0
aI0
aI0
aF0.0
aI0
aI0
aI0
aI0
aI0
aI0
aI0
aI0
aI0
aI2
aa(lp154
V0020800947
p155
aVMAR 09, 2009
p156
aVDEN vs. HOU
p157
aVL
p158
aI4
aI1
aI1
aF1.0
aI0
aI0
aF0.0
aI0
aI0
aF0.0
aI0
aI0
aI0
aI0
aI0
aI0
aI0
aI0
aI2
aI-8
aa(lp159
V0020800983
p160
aVMAR 14, 2009
p161
aVDEN vs. LAC
p162
aVW
p163
aI1
aI0
aI1
aF0.0
aI0
aI1
aF0.0
aI0
aI0
aF0.0
aI0
aI0
aI0
aI0
aI0
aI0
aI0
aI0
aI0
aI-2
aa(lp164
V0020801000
p165
aVMAR 16, 2009
p166
aVDEN vs. NJN
p167
aVW
p168
aI4
aI2
aI2
aF1.0
aI0
aI0
aF0.0
aI0
aI0
aF0.0
aI1
aI1
aI2
aI1
aI0
aI0
aI0
aI1
aI4
aI1
aa(lp169
V0020801032
p170
aVMAR 20, 2009
p171
aVDEN vs. WAS
p172
aVW
p173
aI2
aI0
aI1
aF0.0
aI0
aI1
aF0.0
aI0
aI0
aF0.0
aI0
aI0
aI0
aI0
aI0
aI0
aI0
aI0
aI0
aI-3
aa(lp174
V0020801088
p175
aVMAR 28, 2009
p176
aVDEN vs. GSW
p177
aVW
p178
aI3
aI0
aI0
aF0.0
aI0
aI0
aF0.0
aI0
aI0
aF0.0
aI0
aI0
aI0
aI1
aI0
aI0
aI2
aI1
aI0
aI-7
aa(lp179
V0020801141
p180
aVAPR 04, 2009
p181
aVDEN vs. LAC
p182
aVW
p183
aI4
aI0
aI0
aF0.0
aI0
aI0
aF0.0
aI0
aI0
aF0.0
aI0
aI1
aI1
aI1
aI0
aI0
aI0
aI1
aI0
aI-5
aa(lp184
V0020801147
p185
aVAPR 05, 2009
p186
aVDEN @ MIN
p187
aVW
p188
aI8
aI0
aI2
aF0.0
aI0
aI0
aF0.0
aI2
aI2
aF1.0
aI0
aI1
aI1
aI0
aI0
aI0
aI0
aI0
aI2
aI-5
aa(lp189
V0020801175
p190
aVAPR 09, 2009
p191
aVDEN @ LAL
p192
aVL
p193
aI1
aI0
aI1
aF0.0
aI0
aI0
aF0.0
aI0
aI0
aF0.0
aI0
aI0
aI0
aI1
aI0
aI0
aI0
aI0
aI0
aI0
aa(lp194
V0020801230
p195
aVAPR 15, 2009
p196
aVDEN @ POR
p197
aVL
p198
aI5
aI1
aI1
aF1.0
aI0
aI0
aF0.0
aI0
aI0
aF0.0
aI0
aI0
aI0
aI1
aI0
aI0
aI1
aI1
aI2
aI1
aasS'name'
p199
VJason Hart
p200
sS'experience'
p201
I8
s.