(dp0
S'age'
p1
I30
sS'stats'
p2
(lp3
(lp4
V0020800136
p5
aVNOV 15, 2008
p6
aVMIN vs. POR
p7
aVL
p8
aI14
aI1
aI2
aF0.5
aI0
aI0
aF0.0
aI2
aI2
aF1.0
aI1
aI1
aI2
aI0
aI0
aI0
aI0
aI4
aI4
aI2
aa(lp9
V0020800143
p10
aVNOV 16, 2008
p11
aVMIN @ DEN
p12
aVL
p13
aI17
aI0
aI3
aF0.0
aI0
aI0
aF0.0
aI2
aI4
aF0.5
aI3
aI2
aI5
aI2
aI1
aI0
aI1
aI4
aI2
aI2
aa(lp14
V0020800163
p15
aVNOV 19, 2008
p16
aVMIN vs. PHI
p17
aVW
p18
aI14
aI0
aI2
aF0.0
aI0
aI0
aF0.0
aI1
aI2
aF0.5
aI0
aI2
aI2
aI0
aI0
aI0
aI0
aI2
aI1
aI-7
aa(lp19
V0020800176
p20
aVNOV 21, 2008
p21
aVMIN vs. BOS
p22
aVL
p23
aI12
aI0
aI2
aF0.0
aI0
aI0
aF0.0
aI0
aI0
aF0.0
aI2
aI0
aI2
aI2
aI0
aI0
aI0
aI4
aI0
aI-10
aa(lp24
V0020800195
p25
aVNOV 23, 2008
p26
aVMIN @ DET
p27
aVW
p28
aI16
aI0
aI2
aF0.0
aI0
aI0
aF0.0
aI0
aI0
aF0.0
aI0
aI1
aI1
aI1
aI0
aI1
aI0
aI3
aI0
aI6
aa(lp29
V0020800216
p30
aVNOV 26, 2008
p31
aVMIN vs. PHX
p32
aVL
p33
aI21
aI4
aI8
aF0.5
aI0
aI0
aF0.0
aI0
aI0
aF0.0
aI2
aI4
aI6
aI1
aI1
aI0
aI0
aI3
aI8
aI1
aa(lp34
V0020800230
p35
aVNOV 28, 2008
p36
aVMIN @ OKC
p37
aVW
p38
aI7
aI0
aI2
aF0.0
aI0
aI0
aF0.0
aI0
aI0
aF0.0
aI0
aI2
aI2
aI0
aI0
aI1
aI2
aI1
aI0
aI0
aa(lp39
V0020800241
p40
aVNOV 29, 2008
p41
aVMIN vs. DEN
p42
aVL
p43
aI18
aI1
aI3
aF0.333
aI0
aI0
aF0.0
aI0
aI0
aF0.0
aI0
aI0
aI0
aI2
aI1
aI1
aI1
aI1
aI2
aI-7
aa(lp44
V0020800252
p45
aVDEC 01, 2008
p46
aVMIN @ CHA
p47
aVL
p48
aI13
aI0
aI1
aF0.0
aI0
aI0
aF0.0
aI0
aI0
aF0.0
aI0
aI1
aI1
aI0
aI0
aI0
aI0
aI4
aI0
aI-4
aa(lp49
V0020800266
p50
aVDEC 03, 2008
p51
aVMIN @ ORL
p52
aVL
p53
aI6
aI0
aI1
aF0.0
aI0
aI0
aF0.0
aI0
aI0
aF0.0
aI0
aI2
aI2
aI0
aI0
aI0
aI0
aI2
aI0
aI-7
aa(lp54
V0020800280
p55
aVDEC 05, 2008
p56
aVMIN @ NJN
p57
aVL
p58
aI4
aI0
aI0
aF0.0
aI0
aI0
aF0.0
aI0
aI0
aF0.0
aI0
aI0
aI0
aI0
aI0
aI0
aI1
aI1
aI0
aI-5
aa(lp59
V0020800290
p60
aVDEC 06, 2008
p61
aVMIN vs. LAC
p62
aVL
p63
aI5
aI0
aI1
aF0.0
aI0
aI0
aF0.0
aI0
aI0
aF0.0
aI0
aI0
aI0
aI0
aI0
aI0
aI0
aI1
aI0
aI-9
aa(lp64
V0020800768
p65
aVFEB 10, 2009
p66
aVMIN vs. TOR
p67
aVL
p68
aI9
aI0
aI1
aF0.0
aI0
aI0
aF0.0
aI0
aI0
aF0.0
aI1
aI2
aI3
aI0
aI0
aI0
aI0
aI1
aI0
aI-2
aa(lp69
V0020800800
p70
aVFEB 18, 2009
p71
aVMIN @ MIA
p72
aVW
p73
aI8
aI1
aI2
aF0.5
aI0
aI0
aF0.0
aI0
aI2
aF0.0
aI3
aI1
aI4
aI0
aI0
aI0
aI0
aI1
aI2
aI2
aa(lp74
V0020800814
p75
aVFEB 20, 2009
p76
aVMIN vs. IND
p77
aVL
p78
aI13
aI1
aI2
aF0.5
aI0
aI0
aF0.0
aI2
aI2
aF1.0
aI0
aI2
aI2
aI0
aI0
aI2
aI0
aI3
aI4
aI0
aa(lp79
V0020800834
p80
aVFEB 22, 2009
p81
aVMIN vs. LAL
p82
aVL
p83
aI26
aI0
aI2
aF0.0
aI0
aI0
aF0.0
aI1
aI2
aF0.5
aI1
aI2
aI3
aI0
aI1
aI0
aI0
aI4
aI1
aI-12
aa(lp84
V0020800854
p85
aVFEB 25, 2009
p86
aVMIN vs. UTA
p87
aVL
p88
aI5
aI0
aI1
aF0.0
aI0
aI0
aF0.0
aI0
aI0
aF0.0
aI0
aI1
aI1
aI0
aI0
aI0
aI0
aI1
aI0
aI-9
aa(lp89
V0020800869
p90
aVFEB 27, 2009
p91
aVMIN vs. POR
p92
aVL
p93
aI15
aI2
aI6
aF0.333
aI0
aI0
aF0.0
aI0
aI0
aF0.0
aI3
aI1
aI4
aI0
aI0
aI2
aI0
aI3
aI4
aI-15
aa(lp94
V0020800888
p95
aVMAR 01, 2009
p96
aVMIN vs. HOU
p97
aVL
p98
aI17
aI2
aI4
aF0.5
aI0
aI0
aF0.0
aI0
aI0
aF0.0
aI2
aI0
aI2
aI0
aI0
aI0
aI0
aI4
aI4
aI-16
aa(lp99
V0020800925
p100
aVMAR 06, 2009
p101
aVMIN @ LAL
p102
aVL
p103
aI18
aI0
aI2
aF0.0
aI0
aI0
aF0.0
aI0
aI2
aF0.0
aI3
aI4
aI7
aI1
aI1
aI0
aI0
aI3
aI0
aI-14
aa(lp104
V0020800934
p105
aVMAR 07, 2009
p106
aVMIN @ POR
p107
aVL
p108
aI24
aI0
aI2
aF0.0
aI0
aI0
aF0.0
aI0
aI0
aF0.0
aI3
aI4
aI7
aI0
aI0
aI1
aI1
aI2
aI0
aI1
aa(lp109
V0020800961
p110
aVMAR 11, 2009
p111
aVMIN vs. MEM
p112
aVW
p113
aI24
aI0
aI0
aF0.0
aI0
aI0
aF0.0
aI1
aI2
aF0.5
aI0
aI2
aI2
aI0
aI1
aI0
aI0
aI3
aI1
aI8
aa(lp114
V0020801005
p115
aVMAR 17, 2009
p116
aVMIN @ SAS
p117
aVL
p118
aI11
aI1
aI1
aF1.0
aI0
aI0
aF0.0
aI1
aI2
aF0.5
aI0
aI2
aI2
aI0
aI0
aI2
aI1
aI2
aI3
aI-10
aa(lp119
V0020801015
p120
aVMAR 18, 2009
p121
aVMIN @ NOH
p122
aVL
p123
aI5
aI0
aI1
aF0.0
aI0
aI0
aF0.0
aI0
aI0
aF0.0
aI0
aI0
aI0
aI0
aI1
aI0
aI0
aI0
aI0
aI-7
aa(lp124
V0020801030
p125
aVMAR 20, 2009
p126
aVMIN @ HOU
p127
aVL
p128
aI15
aI3
aI8
aF0.375
aI0
aI0
aF0.0
aI1
aI2
aF0.5
aI2
aI2
aI4
aI0
aI0
aI1
aI0
aI2
aI7
aI-17
aa(lp129
V0020801077
p130
aVMAR 27, 2009
p131
aVMIN @ CLE
p132
aVL
p133
aI17
aI2
aI3
aF0.667
aI0
aI0
aF0.0
aI0
aI2
aF0.0
aI0
aI1
aI1
aI1
aI0
aI1
aI1
aI2
aI4
aI-15
aa(lp134
V0020801093
p135
aVMAR 29, 2009
p136
aVMIN vs. NJN
p137
aVW
p138
aI23
aI2
aI3
aF0.667
aI0
aI0
aF0.0
aI0
aI0
aF0.0
aI0
aI1
aI1
aI0
aI1
aI1
aI3
aI3
aI4
aI-2
aa(lp139
V0020801108
p140
aVMAR 31, 2009
p141
aVMIN vs. DAL
p142
aVL
p143
aI1
aI0
aI0
aF0.0
aI0
aI0
aF0.0
aI0
aI0
aF0.0
aI0
aI0
aI0
aI0
aI0
aI0
aI0
aI0
aI0
aI3
aa(lp144
V0020801147
p145
aVAPR 05, 2009
p146
aVMIN vs. DEN
p147
aVL
p148
aI19
aI0
aI2
aF0.0
aI0
aI0
aF0.0
aI2
aI2
aF1.0
aI0
aI1
aI1
aI0
aI1
aI0
aI1
aI2
aI2
aI-15
aa(lp149
V0020801191
p150
aVAPR 11, 2009
p151
aVMIN vs. PHX
p152
aVL
p153
aI11
aI1
aI2
aF0.5
aI0
aI0
aF0.0
aI0
aI2
aF0.0
aI1
aI0
aI1
aI1
aI0
aI0
aI0
aI3
aI2
aI-14
aa(lp154
V0020801224
p155
aVAPR 15, 2009
p156
aVMIN vs. SAC
p157
aVL
p158
aI13
aI1
aI1
aF1.0
aI0
aI0
aF0.0
aI0
aI0
aF0.0
aI1
aI1
aI2
aI0
aI0
aI0
aI0
aI4
aI2
aI-11
aasS'name'
p159
VJason Collins
p160
sS'experience'
p161
I7
s.