(dp0
S'age'
p1
I26
sS'stats'
p2
(lp3
(lp4
V0020800013
p5
aVOCT 29, 2008
p6
aVDEN @ UTA
p7
aVL
p8
aI26
aI4
aI7
aF0.571
aI0
aI0
aF0.0
aI3
aI5
aF0.6
aI0
aI4
aI4
aI2
aI1
aI0
aI4
aI6
aI11
aI-7
aa(lp9
V0020800024
p10
aVOCT 31, 2008
p11
aVDEN @ LAC
p12
aVW
p13
aI35
aI10
aI15
aF0.667
aI0
aI0
aF0.0
aI2
aI2
aF1.0
aI3
aI8
aI11
aI1
aI1
aI3
aI3
aI6
aI22
aI30
aa(lp14
V0020800037
p15
aVNOV 01, 2008
p16
aVDEN vs. LAL
p17
aVL
p18
aI34
aI2
aI5
aF0.4
aI0
aI0
aF0.0
aI4
aI5
aF0.8
aI0
aI5
aI5
aI2
aI2
aI0
aI0
aI2
aI8
aI-7
aa(lp19
V0020800062
p20
aVNOV 05, 2008
p21
aVDEN @ GSW
p22
aVL
p23
aI34
aI6
aI8
aF0.75
aI0
aI0
aF0.0
aI7
aI7
aF1.0
aI7
aI8
aI15
aI1
aI1
aI3
aI4
aI5
aI19
aI2
aa(lp24
V0020800076
p25
aVNOV 07, 2008
p26
aVDEN vs. DAL
p27
aVW
p28
aI36
aI8
aI12
aF0.667
aI0
aI1
aF0.0
aI3
aI4
aF0.75
aI4
aI3
aI7
aI1
aI2
aI2
aI0
aI2
aI19
aI4
aa(lp29
V0020800090
p30
aVNOV 09, 2008
p31
aVDEN vs. MEM
p32
aVW
p33
aI38
aI8
aI10
aF0.8
aI0
aI0
aF0.0
aI2
aI5
aF0.4
aI2
aI10
aI12
aI3
aI1
aI2
aI4
aI2
aI18
aI19
aa(lp34
V0020800098
p35
aVNOV 11, 2008
p36
aVDEN @ CHA
p37
aVW
p38
aI39
aI5
aI7
aF0.714
aI0
aI0
aF0.0
aI2
aI3
aF0.667
aI1
aI7
aI8
aI0
aI2
aI4
aI4
aI2
aI12
aI-1
aa(lp39
V0020800117
p40
aVNOV 13, 2008
p41
aVDEN @ CLE
p42
aVL
p43
aI35
aI3
aI7
aF0.429
aI0
aI0
aF0.0
aI6
aI6
aF1.0
aI0
aI3
aI3
aI0
aI1
aI2
aI2
aI4
aI12
aI-6
aa(lp44
V0020800125
p45
aVNOV 14, 2008
p46
aVDEN @ BOS
p47
aVW
p48
aI35
aI7
aI10
aF0.7
aI0
aI0
aF0.0
aI0
aI2
aF0.0
aI2
aI5
aI7
aI0
aI5
aI0
aI0
aI3
aI14
aI6
aa(lp49
V0020800143
p50
aVNOV 16, 2008
p51
aVDEN vs. MIN
p52
aVW
p53
aI34
aI6
aI11
aF0.545
aI0
aI0
aF0.0
aI0
aI0
aF0.0
aI2
aI2
aI4
aI3
aI1
aI2
aI2
aI5
aI12
aI6
aa(lp54
V0020800156
p55
aVNOV 18, 2008
p56
aVDEN vs. MIL
p57
aVW
p58
aI22
aI6
aI8
aF0.75
aI0
aI0
aF0.0
aI1
aI2
aF0.5
aI1
aI5
aI6
aI0
aI0
aI0
aI2
aI2
aI13
aI8
aa(lp59
V0020800166
p60
aVNOV 19, 2008
p61
aVDEN @ SAS
p62
aVW
p63
aI33
aI5
aI7
aF0.714
aI0
aI0
aF0.0
aI6
aI8
aF0.75
aI2
aI7
aI9
aI1
aI1
aI2
aI1
aI5
aI16
aI9
aa(lp64
V0020800183
p65
aVNOV 21, 2008
p66
aVDEN @ LAL
p67
aVL
p68
aI33
aI7
aI12
aF0.583
aI0
aI0
aF0.0
aI4
aI6
aF0.667
aI1
aI4
aI5
aI2
aI2
aI2
aI2
aI3
aI18
aI-15
aa(lp69
V0020800196
p70
aVNOV 23, 2008
p71
aVDEN vs. CHI
p72
aVW
p73
aI38
aI7
aI13
aF0.538
aI0
aI0
aF0.0
aI7
aI8
aF0.875
aI0
aI6
aI6
aI2
aI2
aI3
aI1
aI3
aI21
aI14
aa(lp74
V0020800222
p75
aVNOV 26, 2008
p76
aVDEN @ LAC
p77
aVW
p78
aI33
aI6
aI8
aF0.75
aI0
aI0
aF0.0
aI5
aI6
aF0.833
aI1
aI8
aI9
aI0
aI1
aI2
aI2
aI6
aI17
aI5
aa(lp79
V0020800224
p80
aVNOV 27, 2008
p81
aVDEN vs. NOH
p82
aVL
p83
aI25
aI2
aI4
aF0.5
aI0
aI1
aF0.0
aI5
aI6
aF0.833
aI1
aI1
aI2
aI1
aI0
aI0
aI2
aI4
aI9
aI1
aa(lp84
V0020800241
p85
aVNOV 29, 2008
p86
aVDEN @ MIN
p87
aVW
p88
aI34
aI4
aI7
aF0.571
aI0
aI0
aF0.0
aI3
aI4
aF0.75
aI2
aI5
aI7
aI3
aI1
aI2
aI3
aI1
aI11
aI14
aa(lp89
V0020800249
p90
aVNOV 30, 2008
p91
aVDEN vs. HOU
p92
aVW
p93
aI35
aI7
aI13
aF0.538
aI0
aI0
aF0.0
aI3
aI3
aF1.0
aI5
aI5
aI10
aI1
aI1
aI0
aI0
aI5
aI17
aI1
aa(lp94
V0020800261
p95
aVDEC 02, 2008
p96
aVDEN vs. TOR
p97
aVW
p98
aI27
aI8
aI9
aF0.889
aI0
aI0
aF0.0
aI3
aI3
aF1.0
aI3
aI8
aI11
aI2
aI0
aI2
aI0
aI2
aI19
aI21
aa(lp99
V0020800275
p100
aVDEC 04, 2008
p101
aVDEN vs. SAS
p102
aVL
p103
aI35
aI6
aI12
aF0.5
aI0
aI0
aF0.0
aI0
aI0
aF0.0
aI2
aI2
aI4
aI0
aI1
aI0
aI0
aI5
aI12
aI-24
aa(lp104
V0020800296
p105
aVDEC 06, 2008
p106
aVDEN @ SAC
p107
aVW
p108
aI24
aI7
aI11
aF0.636
aI0
aI0
aF0.0
aI2
aI5
aF0.4
aI1
aI6
aI7
aI2
aI5
aI3
aI1
aI3
aI16
aI32
aa(lp109
V0020800320
p110
aVDEC 10, 2008
p111
aVDEN vs. MIN
p112
aVW
p113
aI39
aI2
aI5
aF0.4
aI0
aI0
aF0.0
aI1
aI2
aF0.5
aI4
aI5
aI9
aI2
aI1
aI1
aI1
aI3
aI5
aI13
aa(lp114
V0020800343
p115
aVDEC 13, 2008
p116
aVDEN vs. GSW
p117
aVW
p118
aI20
aI5
aI6
aF0.833
aI0
aI0
aF0.0
aI1
aI5
aF0.2
aI0
aI2
aI2
aI0
aI1
aI1
aI1
aI4
aI11
aI5
aa(lp119
V0020800356
p120
aVDEC 15, 2008
p121
aVDEN @ DAL
p122
aVW
p123
aI35
aI4
aI10
aF0.4
aI0
aI0
aF0.0
aI4
aI6
aF0.667
aI1
aI8
aI9
aI2
aI0
aI4
aI1
aI3
aI12
aI6
aa(lp124
V0020800363
p125
aVDEC 16, 2008
p126
aVDEN @ HOU
p127
aVL
p128
aI35
aI5
aI14
aF0.357
aI0
aI0
aF0.0
aI0
aI0
aF0.0
aI6
aI1
aI7
aI1
aI1
aI0
aI1
aI5
aI10
aI-17
aa(lp129
V0020800388
p130
aVDEC 19, 2008
p131
aVDEN vs. CLE
p132
aVL
p133
aI26
aI0
aI2
aF0.0
aI0
aI0
aF0.0
aI1
aI2
aF0.5
aI1
aI2
aI3
aI1
aI1
aI0
aI2
aI4
aI1
aI-13
aa(lp134
V0020800398
p135
aVDEC 20, 2008
p136
aVDEN @ PHX
p137
aVL
p138
aI39
aI9
aI12
aF0.75
aI0
aI0
aF0.0
aI2
aI3
aF0.667
aI6
aI9
aI15
aI0
aI0
aI2
aI3
aI2
aI20
aI-11
aa(lp139
V0020800407
p140
aVDEC 22, 2008
p141
aVDEN vs. POR
p142
aVW
p143
aI39
aI7
aI11
aF0.636
aI0
aI0
aF0.0
aI5
aI6
aF0.833
aI5
aI6
aI11
aI2
aI2
aI1
aI3
aI4
aI19
aI7
aa(lp144
V0020800420
p145
aVDEC 23, 2008
p146
aVDEN @ POR
p147
aVL
p148
aI39
aI5
aI6
aF0.833
aI0
aI0
aF0.0
aI7
aI8
aF0.875
aI7
aI6
aI13
aI2
aI4
aI0
aI2
aI4
aI17
aI5
aa(lp149
V0020800432
p150
aVDEC 26, 2008
p151
aVDEN vs. PHI
p152
aVW
p153
aI33
aI3
aI7
aF0.429
aI0
aI0
aF0.0
aI7
aI8
aF0.875
aI4
aI8
aI12
aI1
aI0
aI3
aI4
aI5
aI13
aI2
aa(lp154
V0020800444
p155
aVDEC 28, 2008
p156
aVDEN @ NYK
p157
aVW
p158
aI35
aI4
aI8
aF0.5
aI0
aI0
aF0.0
aI5
aI8
aF0.625
aI2
aI7
aI9
aI1
aI1
aI1
aI3
aI5
aI13
aI1
aa(lp159
V0020800470
p160
aVDEC 31, 2008
p161
aVDEN @ TOR
p162
aVW
p163
aI39
aI8
aI12
aF0.667
aI1
aI1
aF1.0
aI4
aI5
aF0.8
aI2
aI5
aI7
aI3
aI1
aI1
aI1
aI3
aI21
aI-5
aa(lp164
V0020800482
p165
aVJAN 02, 2009
p166
aVDEN @ OKC
p167
aVW
p168
aI40
aI10
aI11
aF0.909
aI0
aI0
aF0.0
aI7
aI8
aF0.875
aI5
aI9
aI14
aI4
aI0
aI0
aI2
aI5
aI27
aI5
aa(lp169
V0020800494
p170
aVJAN 03, 2009
p171
aVDEN vs. NOH
p172
aVW
p173
aI32
aI5
aI9
aF0.556
aI0
aI0
aF0.0
aI4
aI7
aF0.571
aI2
aI4
aI6
aI3
aI2
aI2
aI1
aI3
aI14
aI11
aa(lp174
V0020800504
p175
aVJAN 05, 2009
p176
aVDEN vs. IND
p177
aVW
p178
aI25
aI7
aI8
aF0.875
aI0
aI0
aF0.0
aI4
aI5
aF0.8
aI0
aI6
aI6
aI2
aI1
aI3
aI2
aI5
aI18
aI27
aa(lp179
V0020800521
p180
aVJAN 07, 2009
p181
aVDEN vs. MIA
p182
aVW
p183
aI39
aI4
aI9
aF0.444
aI0
aI0
aF0.0
aI6
aI7
aF0.857
aI3
aI3
aI6
aI2
aI0
aI1
aI4
aI4
aI14
aI7
aa(lp184
V0020800536
p185
aVJAN 09, 2009
p186
aVDEN vs. DET
p187
aVL
p188
aI36
aI3
aI7
aF0.429
aI0
aI0
aF0.0
aI9
aI12
aF0.75
aI2
aI7
aI9
aI0
aI2
aI1
aI2
aI4
aI15
aI-11
aa(lp189
V0020800563
p190
aVJAN 13, 2009
p191
aVDEN vs. DAL
p192
aVW
p193
aI36
aI7
aI10
aF0.7
aI0
aI0
aF0.0
aI6
aI7
aF0.857
aI0
aI6
aI6
aI1
aI1
aI0
aI1
aI2
aI20
aI-2
aa(lp194
V0020800579
p195
aVJAN 15, 2009
p196
aVDEN vs. PHX
p197
aVW
p198
aI43
aI5
aI9
aF0.556
aI0
aI0
aF0.0
aI7
aI10
aF0.7
aI3
aI11
aI14
aI1
aI2
aI1
aI3
aI5
aI17
aI14
aa(lp199
V0020800597
p200
aVJAN 17, 2009
p201
aVDEN vs. ORL
p202
aVL
p203
aI17
aI2
aI10
aF0.2
aI0
aI1
aF0.0
aI0
aI0
aF0.0
aI3
aI5
aI8
aI0
aI0
aI1
aI3
aI6
aI4
aI-9
aa(lp204
V0020800605
p205
aVJAN 19, 2009
p206
aVDEN @ HOU
p207
aVL
p208
aI38
aI9
aI15
aF0.6
aI0
aI0
aF0.0
aI5
aI8
aF0.625
aI4
aI8
aI12
aI1
aI0
aI0
aI2
aI5
aI23
aI3
aa(lp209
V0020800615
p210
aVJAN 20, 2009
p211
aVDEN vs. SAC
p212
aVW
p213
aI27
aI4
aI9
aF0.444
aI0
aI0
aF0.0
aI5
aI7
aF0.714
aI2
aI10
aI12
aI1
aI0
aI0
aI1
aI2
aI13
aI28
aa(lp214
V0020800653
p215
aVJAN 25, 2009
p216
aVDEN vs. UTA
p217
aVW
p218
aI32
aI12
aI12
aF1.0
aI0
aI0
aF0.0
aI4
aI7
aF0.571
aI5
aI4
aI9
aI1
aI4
aI1
aI1
aI3
aI28
aI14
aa(lp219
V0020800664
p220
aVJAN 27, 2009
p221
aVDEN @ MEM
p222
aVW
p223
aI27
aI2
aI5
aF0.4
aI0
aI0
aF0.0
aI6
aI10
aF0.6
aI1
aI6
aI7
aI1
aI1
aI2
aI8
aI4
aI10
aI12
aa(lp224
V0020800673
p225
aVJAN 28, 2009
p226
aVDEN @ NOH
p227
aVL
p228
aI31
aI5
aI9
aF0.556
aI0
aI0
aF0.0
aI1
aI1
aF1.0
aI1
aI5
aI6
aI1
aI1
aI1
aI1
aI4
aI11
aI-5
aa(lp229
V0020800688
p230
aVJAN 30, 2009
p231
aVDEN vs. CHA
p232
aVW
p233
aI31
aI10
aI11
aF0.909
aI0
aI0
aF0.0
aI2
aI4
aF0.5
aI3
aI9
aI12
aI3
aI2
aI0
aI0
aI3
aI22
aI17
aa(lp234
V0020800719
p235
aVFEB 03, 2009
p236
aVDEN vs. SAS
p237
aVW
p238
aI36
aI7
aI14
aF0.5
aI0
aI0
aF0.0
aI3
aI4
aF0.75
aI5
aI6
aI11
aI1
aI2
aI5
aI1
aI4
aI17
aI14
aa(lp239
V0020800728
p240
aVFEB 04, 2009
p241
aVDEN @ OKC
p242
aVW
p243
aI39
aI10
aI13
aF0.769
aI0
aI0
aF0.0
aI0
aI1
aF0.0
aI2
aI6
aI8
aI2
aI2
aI0
aI2
aI2
aI20
aI9
aa(lp244
V0020800740
p245
aVFEB 06, 2009
p246
aVDEN @ WAS
p247
aVW
p248
aI27
aI1
aI6
aF0.167
aI0
aI0
aF0.0
aI4
aI4
aF1.0
aI5
aI5
aI10
aI4
aI0
aI2
aI1
aI3
aI6
aI16
aa(lp249
V0020800745
p250
aVFEB 07, 2009
p251
aVDEN @ NJN
p252
aVL
p253
aI23
aI3
aI7
aF0.429
aI0
aI0
aF0.0
aI3
aI3
aF1.0
aI2
aI5
aI7
aI1
aI0
aI1
aI3
aI4
aI9
aI-16
aa(lp254
V0020800766
p255
aVFEB 10, 2009
p256
aVDEN @ MIA
p257
aVW
p258
aI24
aI3
aI3
aF1.0
aI0
aI0
aF0.0
aI0
aI0
aF0.0
aI2
aI2
aI4
aI3
aI1
aI0
aI1
aI5
aI6
aI13
aa(lp259
V0020800775
p260
aVFEB 11, 2009
p261
aVDEN @ ORL
p262
aVW
p263
aI31
aI4
aI8
aF0.5
aI0
aI0
aF0.0
aI4
aI6
aF0.667
aI0
aI4
aI4
aI0
aI1
aI2
aI3
aI5
aI12
aI15
aa(lp264
V0020800803
p265
aVFEB 18, 2009
p266
aVDEN @ PHI
p267
aVW
p268
aI33
aI8
aI10
aF0.8
aI0
aI0
aF0.0
aI1
aI3
aF0.333
aI1
aI6
aI7
aI2
aI1
aI0
aI1
aI5
aI17
aI15
aa(lp269
V0020800816
p270
aVFEB 20, 2009
p271
aVDEN @ CHI
p272
aVL
p273
aI37
aI9
aI17
aF0.529
aI0
aI0
aF0.0
aI1
aI3
aF0.333
aI2
aI1
aI3
aI2
aI0
aI2
aI2
aI3
aI19
aI-13
aa(lp274
V0020800831
p275
aVFEB 22, 2009
p276
aVDEN @ MIL
p277
aVL
p278
aI33
aI6
aI11
aF0.545
aI0
aI0
aF0.0
aI5
aI5
aF1.0
aI2
aI5
aI7
aI1
aI0
aI0
aI5
aI4
aI17
aI-4
aa(lp279
V0020800871
p280
aVFEB 27, 2009
p281
aVDEN vs. LAL
p282
aVW
p283
aI20
aI3
aI4
aF0.75
aI0
aI0
aF0.0
aI2
aI2
aF1.0
aI1
aI6
aI7
aI0
aI0
aI0
aI0
aI3
aI8
aI-3
aa(lp284
V0020800887
p285
aVMAR 01, 2009
p286
aVDEN @ IND
p287
aVL
p288
aI34
aI4
aI9
aF0.444
aI0
aI0
aF0.0
aI4
aI6
aF0.667
aI3
aI7
aI10
aI0
aI1
aI4
aI3
aI5
aI12
aI-2
aa(lp289
V0020800899
p290
aVMAR 03, 2009
p291
aVDEN @ DET
p292
aVL
p293
aI42
aI9
aI13
aF0.692
aI0
aI1
aF0.0
aI2
aI4
aF0.5
aI4
aI3
aI7
aI1
aI2
aI1
aI2
aI4
aI20
aI-8
aa(lp294
V0020800916
p295
aVMAR 05, 2009
p296
aVDEN vs. POR
p297
aVW
p298
aI35
aI7
aI11
aF0.636
aI0
aI0
aF0.0
aI2
aI2
aF1.0
aI4
aI2
aI6
aI5
aI0
aI2
aI2
aI3
aI16
aI8
aa(lp299
V0020800926
p300
aVMAR 06, 2009
p301
aVDEN @ UTA
p302
aVL
p303
aI38
aI2
aI7
aF0.286
aI0
aI0
aF0.0
aI6
aI7
aF0.857
aI0
aI4
aI4
aI1
aI1
aI0
aI2
aI3
aI10
aI-5
aa(lp304
V0020800942
p305
aVMAR 08, 2009
p306
aVDEN @ SAC
p307
aVL
p308
aI39
aI5
aI8
aF0.625
aI0
aI0
aF0.0
aI4
aI8
aF0.5
aI5
aI4
aI9
aI2
aI1
aI0
aI1
aI0
aI14
aI-14
aa(lp309
V0020800947
p310
aVMAR 09, 2009
p311
aVDEN vs. HOU
p312
aVL
p313
aI38
aI4
aI15
aF0.267
aI0
aI0
aF0.0
aI2
aI4
aF0.5
aI2
aI6
aI8
aI2
aI2
aI1
aI1
aI6
aI10
aI-11
aa(lp314
V0020800963
p315
aVMAR 11, 2009
p316
aVDEN vs. OKC
p317
aVW
p318
aI39
aI5
aI7
aF0.714
aI0
aI0
aF0.0
aI2
aI4
aF0.5
aI1
aI5
aI6
aI1
aI1
aI1
aI3
aI2
aI12
aI1
aa(lp319
V0020800983
p320
aVMAR 14, 2009
p321
aVDEN vs. LAC
p322
aVW
p323
aI30
aI4
aI7
aF0.571
aI0
aI0
aF0.0
aI9
aI10
aF0.9
aI2
aI8
aI10
aI1
aI5
aI2
aI2
aI1
aI17
aI14
aa(lp324
V0020801000
p325
aVMAR 16, 2009
p326
aVDEN vs. NJN
p327
aVW
p328
aI25
aI8
aI11
aF0.727
aI0
aI0
aF0.0
aI3
aI3
aF1.0
aI2
aI6
aI8
aI0
aI1
aI1
aI0
aI5
aI19
aI11
aa(lp329
V0020801013
p330
aVMAR 18, 2009
p331
aVDEN @ MEM
p332
aVW
p333
aI37
aI6
aI9
aF0.667
aI0
aI0
aF0.0
aI7
aI10
aF0.7
aI3
aI4
aI7
aI0
aI1
aI2
aI1
aI5
aI19
aI-1
aa(lp334
V0020801032
p335
aVMAR 20, 2009
p336
aVDEN vs. WAS
p337
aVW
p338
aI27
aI4
aI5
aF0.8
aI0
aI0
aF0.0
aI3
aI3
aF1.0
aI0
aI4
aI4
aI1
aI1
aI2
aI0
aI3
aI11
aI13
aa(lp339
V0020801053
p340
aVMAR 23, 2009
p341
aVDEN @ PHX
p342
aVL
p343
aI21
aI5
aI9
aF0.556
aI0
aI0
aF0.0
aI0
aI0
aF0.0
aI2
aI2
aI4
aI2
aI1
aI0
aI1
aI5
aI10
aI3
aa(lp344
V0020801088
p345
aVMAR 28, 2009
p346
aVDEN vs. GSW
p347
aVW
p348
aI24
aI4
aI5
aF0.8
aI0
aI0
aF0.0
aI0
aI0
aF0.0
aI2
aI5
aI7
aI1
aI2
aI2
aI3
aI1
aI8
aI6
aa(lp349
V0020801110
p350
aVMAR 31, 2009
p351
aVDEN vs. NYK
p352
aVW
p353
aI33
aI7
aI12
aF0.583
aI0
aI0
aF0.0
aI4
aI7
aF0.571
aI4
aI8
aI12
aI1
aI4
aI3
aI4
aI4
aI18
aI-17
aa(lp354
V0020801124
p355
aVAPR 02, 2009
p356
aVDEN vs. UTA
p357
aVW
p358
aI36
aI5
aI8
aF0.625
aI0
aI0
aF0.0
aI3
aI5
aF0.6
aI1
aI3
aI4
aI1
aI0
aI0
aI3
aI4
aI13
aI3
aa(lp359
V0020801141
p360
aVAPR 04, 2009
p361
aVDEN vs. LAC
p362
aVW
p363
aI26
aI4
aI5
aF0.8
aI0
aI0
aF0.0
aI6
aI8
aF0.75
aI0
aI7
aI7
aI3
aI1
aI0
aI0
aI3
aI14
aI17
aa(lp364
V0020801147
p365
aVAPR 05, 2009
p366
aVDEN @ MIN
p367
aVW
p368
aI30
aI4
aI6
aF0.667
aI0
aI0
aF0.0
aI4
aI5
aF0.8
aI1
aI6
aI7
aI2
aI1
aI0
aI2
aI3
aI12
aI20
aa(lp369
V0020801170
p370
aVAPR 08, 2009
p371
aVDEN vs. OKC
p372
aVW
p373
aI37
aI9
aI12
aF0.75
aI0
aI0
aF0.0
aI5
aI6
aF0.833
aI4
aI6
aI10
aI1
aI1
aI3
aI3
aI5
aI23
aI8
aa(lp374
V0020801175
p375
aVAPR 09, 2009
p376
aVDEN @ LAL
p377
aVL
p378
aI37
aI7
aI14
aF0.5
aI0
aI0
aF0.0
aI3
aI3
aF1.0
aI5
aI5
aI10
aI1
aI0
aI2
aI2
aI3
aI17
aI-9
aa(lp379
V0020801209
p380
aVAPR 13, 2009
p381
aVDEN vs. SAC
p382
aVW
p383
aI33
aI5
aI11
aF0.455
aI0
aI0
aF0.0
aI3
aI6
aF0.5
aI2
aI3
aI5
aI2
aI1
aI1
aI2
aI1
aI13
aI10
aa(lp384
V0020801230
p385
aVAPR 15, 2009
p386
aVDEN @ POR
p387
aVL
p388
aI30
aI5
aI9
aF0.556
aI0
aI0
aF0.0
aI0
aI0
aF0.0
aI2
aI7
aI9
aI1
aI2
aI1
aI1
aI1
aI10
aI-8
aasS'name'
p389
VNene
p390
sS'experience'
p391
I6
s.