(dp0
S'age'
p1
I30
sS'stats'
p2
(lp3
(lp4
V0020800018
p5
aVOCT 30, 2008
p6
aVNOH @ PHX
p7
aVW
p8
aI19
aI2
aI4
aF0.5
aI0
aI0
aF0.0
aI3
aI4
aF0.75
aI0
aI0
aI0
aI0
aI0
aI0
aI2
aI2
aI7
aI1
aa(lp9
V0020800033
p10
aVNOV 01, 2008
p11
aVNOH vs. CLE
p12
aVW
p13
aI17
aI2
aI5
aF0.4
aI0
aI0
aF0.0
aI2
aI2
aF1.0
aI3
aI1
aI4
aI0
aI0
aI1
aI3
aI3
aI6
aI0
aa(lp14
V0020800180
p15
aVNOV 21, 2008
p16
aVNOH @ OKC
p17
aVW
p18
aI6
aI0
aI1
aF0.0
aI0
aI0
aF0.0
aI1
aI2
aF0.5
aI0
aI0
aI0
aI1
aI0
aI0
aI0
aI1
aI1
aI-3
aa(lp19
V0020800224
p20
aVNOV 27, 2008
p21
aVNOH @ DEN
p22
aVW
p23
aI14
aI2
aI8
aF0.25
aI0
aI0
aF0.0
aI4
aI4
aF1.0
aI3
aI1
aI4
aI1
aI0
aI0
aI3
aI1
aI8
aI-2
aa(lp24
V0020800316
p25
aVDEC 10, 2008
p26
aVNOH vs. CHA
p27
aVW
p28
aI5
aI1
aI2
aF0.5
aI0
aI0
aF0.0
aI0
aI0
aF0.0
aI0
aI0
aI0
aI0
aI0
aI1
aI0
aI1
aI2
aI-7
aa(lp29
V0020800329
p30
aVDEC 12, 2008
p31
aVNOH @ BOS
p32
aVL
p33
aI11
aI2
aI3
aF0.667
aI0
aI0
aF0.0
aI0
aI0
aF0.0
aI0
aI2
aI2
aI0
aI0
aI0
aI1
aI2
aI4
aI-10
aa(lp34
V0020800347
p35
aVDEC 14, 2008
p36
aVNOH @ TOR
p37
aVW
p38
aI4
aI0
aI0
aF0.0
aI0
aI0
aF0.0
aI0
aI0
aF0.0
aI0
aI0
aI0
aI0
aI1
aI0
aI0
aI2
aI0
aI4
aa(lp39
V0020800421
p40
aVDEC 25, 2008
p41
aVNOH @ ORL
p42
aVL
p43
aI10
aI1
aI5
aF0.2
aI0
aI0
aF0.0
aI0
aI0
aF0.0
aI1
aI0
aI1
aI1
aI0
aI0
aI0
aI1
aI2
aI5
aa(lp44
V0020800431
p45
aVDEC 26, 2008
p46
aVNOH vs. HOU
p47
aVW
p48
aI16
aI2
aI3
aF0.667
aI0
aI0
aF0.0
aI0
aI0
aF0.0
aI1
aI3
aI4
aI2
aI1
aI0
aI2
aI4
aI4
aI2
aa(lp49
V0020800513
p50
aVJAN 06, 2009
p51
aVNOH @ LAL
p52
aVW
p53
aI6
aI0
aI1
aF0.0
aI0
aI0
aF0.0
aI0
aI0
aF0.0
aI0
aI0
aI0
aI0
aI0
aI0
aI0
aI1
aI0
aI4
aa(lp54
V0020800523
p55
aVJAN 07, 2009
p56
aVNOH @ UTA
p57
aVL
p58
aI13
aI0
aI0
aF0.0
aI0
aI0
aF0.0
aI2
aI4
aF0.5
aI0
aI2
aI2
aI2
aI0
aI0
aI0
aI2
aI2
aI-6
aa(lp59
V0020800532
p60
aVJAN 09, 2009
p61
aVNOH vs. LAC
p62
aVW
p63
aI18
aI1
aI5
aF0.2
aI0
aI0
aF0.0
aI0
aI0
aF0.0
aI1
aI2
aI3
aI0
aI0
aI0
aI2
aI3
aI2
aI15
aa(lp64
V0020800556
p65
aVJAN 12, 2009
p66
aVNOH vs. NYK
p67
aVL
p68
aI6
aI2
aI3
aF0.667
aI0
aI0
aF0.0
aI0
aI0
aF0.0
aI1
aI0
aI1
aI0
aI0
aI0
aI0
aI0
aI4
aI-6
aa(lp69
V0020800573
p70
aVJAN 14, 2009
p71
aVNOH @ DAL
p72
aVW
p73
aI6
aI0
aI0
aF0.0
aI0
aI0
aF0.0
aI0
aI0
aF0.0
aI0
aI1
aI1
aI0
aI0
aI0
aI0
aI0
aI0
aI-2
aa(lp74
V0020800607
p75
aVJAN 19, 2009
p76
aVNOH vs. IND
p77
aVW
p78
aI16
aI0
aI2
aF0.0
aI0
aI0
aF0.0
aI1
aI2
aF0.5
aI0
aI6
aI6
aI1
aI0
aI1
aI1
aI1
aI1
aI-3
aa(lp79
V0020800622
p80
aVJAN 21, 2009
p81
aVNOH vs. NJN
p82
aVW
p83
aI30
aI3
aI12
aF0.25
aI0
aI0
aF0.0
aI0
aI0
aF0.0
aI3
aI1
aI4
aI3
aI0
aI3
aI1
aI3
aI6
aI3
aa(lp84
V0020800635
p85
aVJAN 23, 2009
p86
aVNOH @ MIN
p87
aVL
p88
aI12
aI3
aI4
aF0.75
aI0
aI0
aF0.0
aI0
aI0
aF0.0
aI3
aI1
aI4
aI2
aI0
aI1
aI1
aI4
aI6
aI-1
aa(lp89
V0020800710
p90
aVFEB 02, 2009
p91
aVNOH vs. POR
p92
aVL
p93
aI8
aI2
aI2
aF1.0
aI0
aI0
aF0.0
aI2
aI2
aF1.0
aI0
aI0
aI0
aI1
aI0
aI0
aI0
aI1
aI6
aI-6
aa(lp94
V0020800727
p95
aVFEB 04, 2009
p96
aVNOH vs. CHI
p97
aVL
p98
aI11
aI0
aI7
aF0.0
aI0
aI0
aF0.0
aI0
aI0
aF0.0
aI0
aI1
aI1
aI0
aI0
aI1
aI0
aI1
aI0
aI0
aa(lp99
V0020800762
p100
aVFEB 09, 2009
p101
aVNOH @ MEM
p102
aVL
p103
aI8
aI1
aI1
aF1.0
aI0
aI0
aF0.0
aI1
aI2
aF0.5
aI0
aI1
aI1
aI0
aI0
aI0
aI0
aI1
aI3
aI3
aa(lp104
V0020800802
p105
aVFEB 18, 2009
p106
aVNOH vs. ORL
p107
aVW
p108
aI19
aI3
aI3
aF1.0
aI0
aI0
aF0.0
aI5
aI10
aF0.5
aI3
aI5
aI8
aI0
aI0
aI0
aI0
aI4
aI11
aI12
aa(lp109
V0020800821
p110
aVFEB 20, 2009
p111
aVNOH @ LAL
p112
aVL
p113
aI9
aI1
aI2
aF0.5
aI0
aI0
aF0.0
aI0
aI0
aF0.0
aI0
aI1
aI1
aI0
aI0
aI1
aI0
aI2
aI2
aI12
aa(lp114
V0020800825
p115
aVFEB 21, 2009
p116
aVNOH @ UTA
p117
aVL
p118
aI4
aI0
aI0
aF0.0
aI0
aI0
aF0.0
aI0
aI0
aF0.0
aI0
aI0
aI0
aI0
aI0
aI0
aI1
aI1
aI0
aI-6
aa(lp119
V0020800981
p120
aVMAR 14, 2009
p121
aVNOH @ CHI
p122
aVL
p123
aI3
aI0
aI0
aF0.0
aI0
aI0
aF0.0
aI1
aI2
aF0.5
aI2
aI0
aI2
aI0
aI0
aI0
aI1
aI0
aI1
aI1
aa(lp124
V0020801028
p125
aVMAR 20, 2009
p126
aVNOH vs. MEM
p127
aVW
p128
aI6
aI0
aI0
aF0.0
aI0
aI0
aF0.0
aI0
aI0
aF0.0
aI0
aI0
aI0
aI1
aI0
aI0
aI0
aI1
aI0
aI-3
aa(lp129
V0020801098
p130
aVMAR 29, 2009
p131
aVNOH vs. SAS
p132
aVW
p133
aI2
aI0
aI1
aF0.0
aI0
aI0
aF0.0
aI0
aI0
aF0.0
aI0
aI0
aI0
aI0
aI0
aI0
aI0
aI1
aI0
aI3
aa(lp134
V0020801168
p135
aVAPR 08, 2009
p136
aVNOH vs. PHX
p137
aVL
p138
aI19
aI3
aI5
aF0.6
aI0
aI0
aF0.0
aI0
aI0
aF0.0
aI3
aI1
aI4
aI1
aI0
aI0
aI0
aI4
aI6
aI-3
aa(lp139
V0020801184
p140
aVAPR 10, 2009
p141
aVNOH @ DAL
p142
aVL
p143
aI23
aI2
aI3
aF0.667
aI0
aI0
aF0.0
aI1
aI2
aF0.5
aI2
aI1
aI3
aI1
aI0
aI0
aI0
aI5
aI5
aI-12
aa(lp144
V0020801196
p145
aVAPR 12, 2009
p146
aVNOH vs. DAL
p147
aVW
p148
aI22
aI2
aI4
aF0.5
aI0
aI0
aF0.0
aI0
aI0
aF0.0
aI1
aI2
aI3
aI0
aI0
aI0
aI2
aI1
aI4
aI-2
aa(lp149
V0020801208
p150
aVAPR 13, 2009
p151
aVNOH @ HOU
p152
aVL
p153
aI19
aI2
aI7
aF0.286
aI0
aI0
aF0.0
aI0
aI0
aF0.0
aI3
aI2
aI5
aI0
aI0
aI0
aI3
aI3
aI4
aI-15
aa(lp154
V0020801227
p155
aVAPR 15, 2009
p156
aVNOH @ SAS
p157
aVL
p158
aI11
aI0
aI2
aF0.0
aI0
aI0
aF0.0
aI0
aI0
aF0.0
aI0
aI0
aI0
aI1
aI0
aI0
aI0
aI2
aI0
aI-6
aasS'name'
p159
VMelvin Ely
p160
sS'experience'
p161
I6
s.