(dp0
S'stats'
p1
(lp2
(lp3
V0020800013
p4
aVOCT 29, 2008
p5
aVUTA vs. DEN
p6
aVW
p7
aI36
aI11
aI18
aF0.611
aI0
aI0
aF0.0
aI3
aI4
aF0.75
aI3
aI11
aI14
aI1
aI1
aI1
aI2
aI5
aI25
aI3
aa(lp8
V0020800038
p9
aVNOV 01, 2008
p10
aVUTA vs. LAC
p11
aVW
p12
aI31
aI12
aI18
aF0.667
aI0
aI0
aF0.0
aI1
aI2
aF0.5
aI4
aI6
aI10
aI3
aI0
aI0
aI0
aI2
aI25
aI9
aa(lp13
V0020800047
p14
aVNOV 03, 2008
p15
aVUTA @ LAC
p16
aVW
p17
aI29
aI6
aI10
aF0.6
aI0
aI0
aF0.0
aI1
aI2
aF0.5
aI2
aI6
aI8
aI1
aI0
aI0
aI2
aI1
aI13
aI-3
aa(lp18
V0020800060
p19
aVNOV 05, 2008
p20
aVUTA vs. POR
p21
aVW
p22
aI33
aI8
aI13
aF0.615
aI0
aI0
aF0.0
aI4
aI4
aF1.0
aI2
aI6
aI8
aI3
aI1
aI0
aI2
aI2
aI20
aI3
aa(lp23
V0020800074
p24
aVNOV 07, 2008
p25
aVUTA vs. OKC
p26
aVW
p27
aI38
aI7
aI14
aF0.5
aI0
aI0
aF0.0
aI7
aI8
aF0.875
aI2
aI7
aI9
aI5
aI1
aI1
aI6
aI2
aI21
aI6
aa(lp28
V0020800086
p29
aVNOV 09, 2008
p30
aVUTA @ NYK
p31
aVL
p32
aI32
aI7
aI11
aF0.636
aI0
aI0
aF0.0
aI5
aI6
aF0.833
aI6
aI12
aI18
aI3
aI3
aI0
aI2
aI4
aI19
aI4
aa(lp33
V0020800100
p34
aVNOV 11, 2008
p35
aVUTA @ PHI
p36
aVW
p37
aI35
aI9
aI15
aF0.6
aI0
aI0
aF0.0
aI1
aI3
aF0.333
aI4
aI12
aI16
aI2
aI1
aI0
aI2
aI3
aI19
aI0
aa(lp38
V0020800114
p39
aVNOV 12, 2008
p40
aVUTA @ WAS
p41
aVL
p42
aI33
aI9
aI17
aF0.529
aI0
aI0
aF0.0
aI2
aI4
aF0.5
aI3
aI4
aI7
aI2
aI1
aI0
aI2
aI6
aI20
aI-14
aa(lp43
V0020800120
p44
aVNOV 14, 2008
p45
aVUTA @ CHA
p46
aVL
p47
aI33
aI9
aI17
aF0.529
aI0
aI0
aF0.0
aI8
aI8
aF1.0
aI7
aI8
aI15
aI1
aI1
aI0
aI2
aI5
aI26
aI5
aa(lp48
V0020800135
p49
aVNOV 15, 2008
p50
aVUTA @ CLE
p51
aVL
p52
aI37
aI5
aI12
aF0.417
aI0
aI0
aF0.0
aI7
aI8
aF0.875
aI1
aI8
aI9
aI4
aI0
aI0
aI2
aI2
aI17
aI-20
aa(lp53
V0020800147
p54
aVNOV 17, 2008
p55
aVUTA vs. PHX
p56
aVW
p57
aI35
aI7
aI15
aF0.467
aI0
aI0
aF0.0
aI7
aI11
aF0.636
aI7
aI8
aI15
aI4
aI2
aI0
aI1
aI4
aI21
aI1
aa(lp58
V0020800167
p59
aVNOV 19, 2008
p60
aVUTA vs. MIL
p61
aVW
p62
aI34
aI9
aI17
aF0.529
aI0
aI0
aF0.0
aI2
aI6
aF0.333
aI2
aI9
aI11
aI3
aI0
aI1
aI1
aI4
aI20
aI4
aa(lp63
V0020800839
p64
aVFEB 23, 2009
p65
aVUTA vs. ATL
p66
aVW
p67
aI21
aI1
aI5
aF0.2
aI0
aI0
aF0.0
aI0
aI2
aF0.0
aI2
aI3
aI5
aI2
aI2
aI0
aI2
aI2
aI2
aI1
aa(lp68
V0020800854
p69
aVFEB 25, 2009
p70
aVUTA @ MIN
p71
aVW
p72
aI22
aI6
aI10
aF0.6
aI0
aI0
aF0.0
aI0
aI0
aF0.0
aI1
aI3
aI4
aI2
aI0
aI0
aI3
aI5
aI12
aI-8
aa(lp73
V0020800881
p74
aVFEB 28, 2009
p75
aVUTA vs. SAC
p76
aVW
p77
aI18
aI3
aI5
aF0.6
aI0
aI0
aF0.0
aI0
aI2
aF0.0
aI1
aI4
aI5
aI3
aI0
aI0
aI2
aI1
aI6
aI2
aa(lp78
V0020800891
p79
aVMAR 01, 2009
p80
aVUTA @ GSW
p81
aVW
p82
aI20
aI5
aI14
aF0.357
aI0
aI0
aF0.0
aI0
aI0
aF0.0
aI4
aI5
aI9
aI0
aI2
aI0
aI3
aI5
aI10
aI-1
aa(lp83
V0020800912
p84
aVMAR 04, 2009
p85
aVUTA vs. HOU
p86
aVW
p87
aI34
aI8
aI17
aF0.471
aI0
aI0
aF0.0
aI4
aI4
aF1.0
aI5
aI12
aI17
aI3
aI2
aI1
aI2
aI5
aI20
aI15
aa(lp88
V0020800926
p89
aVMAR 06, 2009
p90
aVUTA vs. DEN
p91
aVW
p92
aI35
aI4
aI12
aF0.333
aI0
aI0
aF0.0
aI1
aI2
aF0.5
aI5
aI11
aI16
aI1
aI2
aI0
aI1
aI4
aI9
aI5
aa(lp93
V0020800949
p94
aVMAR 10, 2009
p95
aVUTA @ IND
p96
aVW
p97
aI28
aI4
aI13
aF0.308
aI0
aI0
aF0.0
aI3
aI4
aF0.75
aI2
aI5
aI7
aI0
aI1
aI0
aI3
aI4
aI11
aI1
aa(lp98
V0020800955
p99
aVMAR 11, 2009
p100
aVUTA @ ATL
p101
aVL
p102
aI32
aI6
aI11
aF0.545
aI0
aI0
aF0.0
aI1
aI2
aF0.5
aI3
aI5
aI8
aI2
aI0
aI0
aI4
aI5
aI13
aI6
aa(lp103
V0020800979
p104
aVMAR 14, 2009
p105
aVUTA @ MIA
p106
aVL
p107
aI46
aI8
aI18
aF0.444
aI0
aI0
aF0.0
aI4
aI5
aF0.8
aI4
aI9
aI13
aI4
aI2
aI1
aI2
aI4
aI20
aI-10
aa(lp108
V0020800992
p109
aVMAR 15, 2009
p110
aVUTA @ ORL
p111
aVL
p112
aI34
aI11
aI20
aF0.55
aI0
aI0
aF0.0
aI1
aI2
aF0.5
aI2
aI11
aI13
aI2
aI1
aI0
aI3
aI4
aI23
aI-17
aa(lp113
V0020801006
p114
aVMAR 17, 2009
p115
aVUTA vs. WAS
p116
aVW
p117
aI34
aI6
aI13
aF0.462
aI0
aI0
aF0.0
aI1
aI1
aF1.0
aI3
aI12
aI15
aI2
aI1
aI0
aI1
aI3
aI13
aI19
aa(lp118
V0020801029
p119
aVMAR 20, 2009
p120
aVUTA @ OKC
p121
aVW
p122
aI42
aI7
aI19
aF0.368
aI0
aI0
aF0.0
aI1
aI4
aF0.25
aI1
aI9
aI10
aI3
aI0
aI0
aI3
aI3
aI15
aI5
aa(lp123
V0020801058
p124
aVMAR 24, 2009
p125
aVUTA vs. HOU
p126
aVW
p127
aI33
aI6
aI15
aF0.4
aI0
aI0
aF0.0
aI1
aI2
aF0.5
aI0
aI8
aI8
aI1
aI1
aI0
aI1
aI5
aI13
aI9
aa(lp128
V0020801069
p129
aVMAR 25, 2009
p130
aVUTA @ PHX
p131
aVL
p132
aI38
aI7
aI17
aF0.412
aI0
aI0
aF0.0
aI0
aI0
aF0.0
aI1
aI11
aI12
aI1
aI1
aI0
aI1
aI3
aI14
aI-3
aa(lp133
V0020801089
p134
aVMAR 28, 2009
p135
aVUTA vs. PHX
p136
aVW
p137
aI28
aI7
aI12
aF0.583
aI0
aI0
aF0.0
aI0
aI0
aF0.0
aI2
aI8
aI10
aI2
aI1
aI0
aI3
aI5
aI14
aI-8
aa(lp138
V0020801102
p139
aVMAR 30, 2009
p140
aVUTA vs. NYK
p141
aVW
p142
aI42
aI8
aI13
aF0.615
aI0
aI0
aF0.0
aI5
aI7
aF0.714
aI4
aI7
aI11
aI2
aI4
aI0
aI3
aI2
aI21
aI9
aa(lp143
V0020801111
p144
aVMAR 31, 2009
p145
aVUTA @ POR
p146
aVL
p147
aI24
aI10
aI12
aF0.833
aI0
aI0
aF0.0
aI0
aI0
aF0.0
aI2
aI1
aI3
aI1
aI0
aI0
aI6
aI3
aI20
aI-21
aa(lp148
V0020801124
p149
aVAPR 02, 2009
p150
aVUTA @ DEN
p151
aVL
p152
aI32
aI7
aI23
aF0.304
aI0
aI0
aF0.0
aI1
aI2
aF0.5
aI8
aI3
aI11
aI4
aI1
aI0
aI3
aI5
aI15
aI4
aa(lp153
V0020801131
p154
aVAPR 03, 2009
p155
aVUTA vs. MIN
p156
aVL
p157
aI30
aI1
aI9
aF0.111
aI0
aI0
aF0.0
aI4
aI4
aF1.0
aI1
aI4
aI5
aI2
aI2
aI0
aI2
aI3
aI6
aI-14
aa(lp158
V0020801148
p159
aVAPR 05, 2009
p160
aVUTA @ NOH
p161
aVW
p162
aI31
aI5
aI10
aF0.5
aI0
aI0
aF0.0
aI0
aI0
aF0.0
aI3
aI7
aI10
aI2
aI2
aI0
aI1
aI2
aI10
aI3
aa(lp163
V0020801171
p164
aVAPR 08, 2009
p165
aVUTA @ DAL
p166
aVL
p167
aI35
aI5
aI11
aF0.455
aI0
aI0
aF0.0
aI0
aI2
aF0.0
aI4
aI7
aI11
aI3
aI3
aI0
aI3
aI3
aI10
aI-24
aa(lp168
V0020801185
p169
aVAPR 10, 2009
p170
aVUTA @ SAS
p171
aVL
p172
aI33
aI4
aI12
aF0.333
aI0
aI0
aF0.0
aI7
aI10
aF0.7
aI1
aI7
aI8
aI1
aI0
aI0
aI1
aI4
aI15
aI-12
aa(lp173
V0020801194
p174
aVAPR 11, 2009
p175
aVUTA vs. GSW
p176
aVL
p177
aI32
aI10
aI18
aF0.556
aI0
aI0
aF0.0
aI5
aI5
aF1.0
aI4
aI8
aI12
aI1
aI0
aI1
aI0
aI3
aI25
aI-4
aa(lp178
V0020801210
p179
aVAPR 13, 2009
p180
aVUTA vs. LAC
p181
aVW
p182
aI32
aI8
aI15
aF0.533
aI0
aI0
aF0.0
aI4
aI4
aF1.0
aI2
aI11
aI13
aI2
aI0
aI0
aI0
aI4
aI20
aI18
aa(lp183
V0020801216
p184
aVAPR 14, 2009
p185
aVUTA @ LAL
p186
aVL
p187
aI36
aI5
aI11
aF0.455
aI0
aI0
aF0.0
aI6
aI9
aF0.667
aI3
aI6
aI9
aI1
aI0
aI1
aI2
aI5
aI16
aI-10
aasS'name'
p188
VCarlos Boozer
p189
sS'weight'
p190
V258
p191
sS'age'
p192
I27
sS'experience'
p193
I6
sS'height'
p194
V6-9
p195
sS'position'
p196
VForward
p197
s.