(dp0
S'age'
p1
I29
sS'stats'
p2
(lp3
(lp4
V0020800014
p5
aVOCT 29, 2008
p6
aVNOH @ GSW
p7
aVW
p8
aI13
aI2
aI4
aF0.5
aI1
aI1
aF1.0
aI2
aI2
aF1.0
aI0
aI2
aI2
aI2
aI0
aI0
aI0
aI0
aI7
aI-6
aa(lp9
V0020800018
p10
aVOCT 30, 2008
p11
aVNOH @ PHX
p12
aVW
p13
aI19
aI2
aI5
aF0.4
aI2
aI3
aF0.667
aI0
aI0
aF0.0
aI0
aI1
aI1
aI0
aI2
aI2
aI0
aI0
aI6
aI2
aa(lp14
V0020800033
p15
aVNOV 01, 2008
p16
aVNOH vs. CLE
p17
aVW
p18
aI37
aI4
aI8
aF0.5
aI3
aI5
aF0.6
aI3
aI4
aF0.75
aI1
aI3
aI4
aI3
aI1
aI0
aI1
aI0
aI14
aI3
aa(lp19
V0020800058
p20
aVNOV 05, 2008
p21
aVNOH vs. ATL
p22
aVL
p23
aI13
aI2
aI4
aF0.5
aI0
aI1
aF0.0
aI0
aI0
aF0.0
aI0
aI2
aI2
aI0
aI0
aI0
aI1
aI0
aI4
aI-13
aa(lp24
V0020800066
p25
aVNOV 07, 2008
p26
aVNOH @ CHA
p27
aVL
p28
aI18
aI3
aI7
aF0.429
aI1
aI3
aF0.333
aI0
aI0
aF0.0
aI0
aI0
aI0
aI0
aI1
aI0
aI2
aI1
aI7
aI-2
aa(lp29
V0020800081
p30
aVNOV 08, 2008
p31
aVNOH vs. MIA
p32
aVW
p33
aI16
aI3
aI8
aF0.375
aI2
aI6
aF0.333
aI0
aI0
aF0.0
aI3
aI0
aI3
aI0
aI1
aI0
aI0
aI0
aI8
aI3
aa(lp34
V0020800112
p35
aVNOV 12, 2008
p36
aVNOH vs. LAL
p37
aVL
p38
aI8
aI2
aI4
aF0.5
aI0
aI1
aF0.0
aI0
aI0
aF0.0
aI0
aI2
aI2
aI0
aI0
aI1
aI1
aI0
aI4
aI-10
aa(lp39
V0020800127
p40
aVNOV 14, 2008
p41
aVNOH vs. POR
p42
aVW
p43
aI14
aI2
aI4
aF0.5
aI1
aI2
aF0.5
aI0
aI0
aF0.0
aI0
aI2
aI2
aI0
aI0
aI0
aI0
aI0
aI5
aI-2
aa(lp44
V0020800138
p45
aVNOV 15, 2008
p46
aVNOH @ HOU
p47
aVL
p48
aI20
aI1
aI7
aF0.143
aI0
aI1
aF0.0
aI0
aI0
aF0.0
aI1
aI3
aI4
aI1
aI0
aI1
aI0
aI1
aI2
aI-7
aa(lp49
V0020800164
p50
aVNOV 19, 2008
p51
aVNOH vs. SAC
p52
aVL
p53
aI28
aI5
aI8
aF0.625
aI0
aI1
aF0.0
aI0
aI0
aF0.0
aI1
aI4
aI5
aI1
aI2
aI0
aI0
aI1
aI10
aI-9
aa(lp54
V0020800180
p55
aVNOV 21, 2008
p56
aVNOH @ OKC
p57
aVW
p58
aI29
aI3
aI12
aF0.25
aI2
aI5
aF0.4
aI0
aI0
aF0.0
aI0
aI3
aI3
aI0
aI0
aI1
aI0
aI2
aI8
aI9
aa(lp59
V0020800191
p60
aVNOV 22, 2008
p61
aVNOH vs. OKC
p62
aVW
p63
aI25
aI2
aI5
aF0.4
aI2
aI4
aF0.5
aI4
aI4
aF1.0
aI0
aI3
aI3
aI0
aI2
aI0
aI0
aI4
aI10
aI-4
aa(lp64
V0020800204
p65
aVNOV 24, 2008
p66
aVNOH @ LAC
p67
aVW
p68
aI27
aI2
aI5
aF0.4
aI1
aI1
aF1.0
aI0
aI0
aF0.0
aI0
aI1
aI1
aI0
aI1
aI0
aI2
aI3
aI5
aI2
aa(lp69
V0020800224
p70
aVNOV 27, 2008
p71
aVNOH @ DEN
p72
aVW
p73
aI33
aI7
aI8
aF0.875
aI4
aI5
aF0.8
aI1
aI2
aF0.5
aI1
aI1
aI2
aI2
aI3
aI0
aI0
aI2
aI19
aI-7
aa(lp74
V0020800234
p75
aVNOV 28, 2008
p76
aVNOH @ POR
p77
aVL
p78
aI25
aI2
aI5
aF0.4
aI2
aI3
aF0.667
aI0
aI0
aF0.0
aI1
aI2
aI3
aI1
aI0
aI0
aI0
aI1
aI6
aI-3
aa(lp79
V0020800271
p80
aVDEC 03, 2008
p81
aVNOH vs. PHX
p82
aVW
p83
aI22
aI1
aI6
aF0.167
aI0
aI2
aF0.0
aI2
aI4
aF0.5
aI2
aI2
aI4
aI0
aI1
aI0
aI1
aI1
aI4
aI4
aa(lp84
V0020800291
p85
aVDEC 06, 2008
p86
aVNOH vs. MEM
p87
aVW
p88
aI22
aI4
aI9
aF0.444
aI2
aI4
aF0.5
aI1
aI1
aF1.0
aI0
aI2
aI2
aI0
aI0
aI1
aI1
aI2
aI11
aI11
aa(lp89
V0020800316
p90
aVDEC 10, 2008
p91
aVNOH vs. CHA
p92
aVW
p93
aI25
aI2
aI10
aF0.2
aI1
aI4
aF0.25
aI1
aI1
aF1.0
aI0
aI3
aI3
aI1
aI1
aI3
aI1
aI1
aI6
aI24
aa(lp94
V0020800329
p95
aVDEC 12, 2008
p96
aVNOH @ BOS
p97
aVL
p98
aI29
aI2
aI7
aF0.286
aI1
aI3
aF0.333
aI0
aI1
aF0.0
aI1
aI1
aI2
aI0
aI0
aI1
aI0
aI4
aI5
aI-19
aa(lp99
V0020800347
p100
aVDEC 14, 2008
p101
aVNOH @ TOR
p102
aVW
p103
aI33
aI6
aI13
aF0.462
aI4
aI9
aF0.444
aI0
aI0
aF0.0
aI1
aI1
aI2
aI4
aI0
aI1
aI1
aI1
aI16
aI8
aa(lp104
V0020800361
p105
aVDEC 16, 2008
p106
aVNOH @ MEM
p107
aVW
p108
aI31
aI3
aI6
aF0.5
aI3
aI5
aF0.6
aI0
aI0
aF0.0
aI0
aI2
aI2
aI0
aI1
aI2
aI0
aI2
aI9
aI3
aa(lp109
V0020800374
p110
aVDEC 17, 2008
p111
aVNOH vs. SAS
p112
aVW
p113
aI35
aI5
aI11
aF0.455
aI2
aI6
aF0.333
aI1
aI2
aF0.5
aI1
aI4
aI5
aI1
aI2
aI1
aI1
aI1
aI13
aI1
aa(lp114
V0020800394
p115
aVDEC 20, 2008
p116
aVNOH vs. SAC
p117
aVW
p118
aI26
aI1
aI7
aF0.143
aI0
aI4
aF0.0
aI2
aI2
aF1.0
aI1
aI2
aI3
aI1
aI0
aI0
aI2
aI2
aI4
aI12
aa(lp119
V0020800417
p120
aVDEC 23, 2008
p121
aVNOH vs. LAL
p122
aVL
p123
aI34
aI7
aI15
aF0.467
aI3
aI7
aF0.429
aI0
aI0
aF0.0
aI1
aI3
aI4
aI1
aI1
aI2
aI1
aI2
aI17
aI-7
aa(lp124
V0020800421
p125
aVDEC 25, 2008
p126
aVNOH @ ORL
p127
aVL
p128
aI25
aI0
aI7
aF0.0
aI0
aI3
aF0.0
aI0
aI0
aF0.0
aI1
aI2
aI3
aI0
aI1
aI0
aI1
aI3
aI0
aI-29
aa(lp129
V0020800431
p130
aVDEC 26, 2008
p131
aVNOH vs. HOU
p132
aVW
p133
aI42
aI6
aI9
aF0.667
aI1
aI2
aF0.5
aI0
aI0
aF0.0
aI1
aI6
aI7
aI2
aI2
aI1
aI0
aI2
aI13
aI9
aa(lp134
V0020800447
p135
aVDEC 28, 2008
p136
aVNOH @ IND
p137
aVW
p138
aI29
aI6
aI11
aF0.545
aI3
aI6
aF0.5
aI0
aI0
aF0.0
aI0
aI2
aI2
aI0
aI2
aI0
aI0
aI2
aI15
aI7
aa(lp139
V0020800462
p140
aVDEC 30, 2008
p141
aVNOH vs. WAS
p142
aVW
p143
aI36
aI8
aI11
aF0.727
aI5
aI8
aF0.625
aI0
aI0
aF0.0
aI0
aI1
aI1
aI0
aI0
aI0
aI0
aI2
aI21
aI11
aa(lp144
V0020800486
p145
aVJAN 02, 2009
p146
aVNOH @ POR
p147
aVW
p148
aI20
aI0
aI2
aF0.0
aI0
aI0
aF0.0
aI0
aI0
aF0.0
aI1
aI0
aI1
aI1
aI0
aI0
aI0
aI4
aI0
aI-4
aa(lp149
V0020800494
p150
aVJAN 03, 2009
p151
aVNOH @ DEN
p152
aVL
p153
aI30
aI0
aI3
aF0.0
aI0
aI2
aF0.0
aI2
aI2
aF1.0
aI0
aI3
aI3
aI0
aI1
aI1
aI2
aI3
aI2
aI-10
aa(lp154
V0020800513
p155
aVJAN 06, 2009
p156
aVNOH @ LAL
p157
aVW
p158
aI37
aI3
aI8
aF0.375
aI2
aI4
aF0.5
aI2
aI2
aF1.0
aI0
aI6
aI6
aI0
aI0
aI0
aI1
aI4
aI10
aI14
aa(lp159
V0020800523
p160
aVJAN 07, 2009
p161
aVNOH @ UTA
p162
aVL
p163
aI25
aI4
aI8
aF0.5
aI1
aI4
aF0.25
aI0
aI0
aF0.0
aI1
aI2
aI3
aI0
aI0
aI0
aI0
aI2
aI9
aI-12
aa(lp164
V0020800532
p165
aVJAN 09, 2009
p166
aVNOH vs. LAC
p167
aVW
p168
aI33
aI8
aI14
aF0.571
aI6
aI10
aF0.6
aI5
aI6
aF0.833
aI0
aI1
aI1
aI1
aI0
aI1
aI0
aI2
aI27
aI15
aa(lp169
V0020800556
p170
aVJAN 12, 2009
p171
aVNOH vs. NYK
p172
aVL
p173
aI34
aI7
aI13
aF0.538
aI2
aI6
aF0.333
aI2
aI2
aF1.0
aI2
aI5
aI7
aI0
aI0
aI1
aI1
aI2
aI18
aI2
aa(lp174
V0020800573
p175
aVJAN 14, 2009
p176
aVNOH @ DAL
p177
aVW
p178
aI21
aI2
aI4
aF0.5
aI1
aI2
aF0.5
aI1
aI1
aF1.0
aI0
aI0
aI0
aI0
aI0
aI0
aI0
aI4
aI6
aI-2
aa(lp179
V0020800583
p180
aVJAN 16, 2009
p181
aVNOH @ CLE
p182
aVL
p183
aI36
aI4
aI8
aF0.5
aI1
aI3
aF0.333
aI1
aI2
aF0.5
aI0
aI3
aI3
aI0
aI0
aI2
aI0
aI1
aI10
aI-10
aa(lp184
V0020800592
p185
aVJAN 17, 2009
p186
aVNOH @ DET
p187
aVW
p188
aI33
aI6
aI12
aF0.5
aI0
aI2
aF0.0
aI0
aI0
aF0.0
aI0
aI0
aI0
aI0
aI0
aI2
aI1
aI3
aI12
aI5
aa(lp189
V0020800607
p190
aVJAN 19, 2009
p191
aVNOH vs. IND
p192
aVW
p193
aI36
aI6
aI16
aF0.375
aI3
aI8
aF0.375
aI2
aI3
aF0.667
aI0
aI5
aI5
aI1
aI0
aI1
aI1
aI3
aI17
aI3
aa(lp194
V0020800622
p195
aVJAN 21, 2009
p196
aVNOH vs. NJN
p197
aVW
p198
aI35
aI5
aI9
aF0.556
aI1
aI3
aF0.333
aI3
aI4
aF0.75
aI0
aI1
aI1
aI1
aI0
aI0
aI0
aI2
aI14
aI11
aa(lp199
V0020800635
p200
aVJAN 23, 2009
p201
aVNOH @ MIN
p202
aVL
p203
aI37
aI5
aI7
aF0.714
aI2
aI2
aF1.0
aI0
aI0
aF0.0
aI1
aI0
aI1
aI3
aI0
aI0
aI0
aI3
aI12
aI-15
aa(lp204
V0020800659
p205
aVJAN 26, 2009
p206
aVNOH vs. PHI
p207
aVW
p208
aI34
aI4
aI9
aF0.444
aI3
aI7
aF0.429
aI2
aI2
aF1.0
aI0
aI1
aI1
aI0
aI0
aI0
aI2
aI1
aI13
aI11
aa(lp209
V0020800673
p210
aVJAN 28, 2009
p211
aVNOH vs. DEN
p212
aVW
p213
aI17
aI1
aI2
aF0.5
aI0
aI1
aF0.0
aI0
aI0
aF0.0
aI0
aI3
aI3
aI1
aI0
aI0
aI1
aI4
aI2
aI0
aa(lp214
V0020800690
p215
aVJAN 30, 2009
p216
aVNOH vs. GSW
p217
aVL
p218
aI37
aI2
aI6
aF0.333
aI1
aI4
aF0.25
aI2
aI4
aF0.5
aI0
aI5
aI5
aI1
aI1
aI1
aI1
aI2
aI7
aI-8
aa(lp219
V0020800699
p220
aVJAN 31, 2009
p221
aVNOH @ SAS
p222
aVL
p223
aI24
aI4
aI8
aF0.5
aI0
aI1
aF0.0
aI0
aI0
aF0.0
aI2
aI2
aI4
aI1
aI0
aI0
aI1
aI1
aI8
aI-6
aa(lp224
V0020800710
p225
aVFEB 02, 2009
p226
aVNOH vs. POR
p227
aVL
p228
aI35
aI5
aI7
aF0.714
aI1
aI1
aF1.0
aI0
aI0
aF0.0
aI0
aI4
aI4
aI2
aI2
aI1
aI0
aI1
aI11
aI-5
aa(lp229
V0020800727
p230
aVFEB 04, 2009
p231
aVNOH vs. CHI
p232
aVL
p233
aI25
aI2
aI9
aF0.222
aI1
aI4
aF0.25
aI0
aI0
aF0.0
aI0
aI0
aI0
aI1
aI0
aI0
aI1
aI2
aI5
aI-21
aa(lp234
V0020800738
p235
aVFEB 06, 2009
p236
aVNOH vs. TOR
p237
aVW
p238
aI42
aI7
aI15
aF0.467
aI3
aI9
aF0.333
aI0
aI0
aF0.0
aI0
aI8
aI8
aI5
aI1
aI1
aI3
aI1
aI17
aI17
aa(lp239
V0020800756
p240
aVFEB 08, 2009
p241
aVNOH vs. MIN
p242
aVW
p243
aI40
aI9
aI15
aF0.6
aI1
aI3
aF0.333
aI4
aI5
aF0.8
aI1
aI7
aI8
aI3
aI1
aI1
aI0
aI1
aI23
aI5
aa(lp244
V0020800762
p245
aVFEB 09, 2009
p246
aVNOH @ MEM
p247
aVL
p248
aI38
aI3
aI17
aF0.176
aI2
aI5
aF0.4
aI0
aI0
aF0.0
aI3
aI3
aI6
aI2
aI0
aI0
aI1
aI4
aI8
aI-8
aa(lp249
V0020800780
p250
aVFEB 11, 2009
p251
aVNOH vs. BOS
p252
aVL
p253
aI27
aI3
aI6
aF0.5
aI1
aI3
aF0.333
aI0
aI0
aF0.0
aI0
aI4
aI4
aI1
aI0
aI1
aI1
aI0
aI7
aI-6
aa(lp254
V0020800793
p255
aVFEB 17, 2009
p256
aVNOH @ OKC
p257
aVW
p258
aI35
aI5
aI11
aF0.455
aI2
aI5
aF0.4
aI0
aI0
aF0.0
aI1
aI7
aI8
aI1
aI1
aI2
aI1
aI3
aI12
aI1
aa(lp259
V0020800802
p260
aVFEB 18, 2009
p261
aVNOH vs. ORL
p262
aVW
p263
aI34
aI6
aI13
aF0.462
aI2
aI5
aF0.4
aI1
aI4
aF0.25
aI1
aI7
aI8
aI0
aI1
aI1
aI0
aI0
aI15
aI23
aa(lp264
V0020800821
p265
aVFEB 20, 2009
p266
aVNOH @ LAL
p267
aVL
p268
aI39
aI11
aI20
aF0.55
aI6
aI8
aF0.75
aI3
aI3
aF1.0
aI0
aI3
aI3
aI2
aI2
aI1
aI0
aI4
aI31
aI-20
aa(lp269
V0020800825
p270
aVFEB 21, 2009
p271
aVNOH @ UTA
p272
aVL
p273
aI39
aI8
aI14
aF0.571
aI4
aI8
aF0.5
aI1
aI1
aF1.0
aI0
aI1
aI1
aI0
aI0
aI2
aI1
aI2
aI21
aI-7
aa(lp274
V0020800840
p275
aVFEB 23, 2009
p276
aVNOH @ SAC
p277
aVW
p278
aI27
aI5
aI9
aF0.556
aI2
aI3
aF0.667
aI0
aI0
aF0.0
aI1
aI1
aI2
aI0
aI1
aI0
aI0
aI3
aI12
aI1
aa(lp279
V0020800855
p280
aVFEB 25, 2009
p281
aVNOH vs. DET
p282
aVW
p283
aI31
aI3
aI10
aF0.3
aI0
aI3
aF0.0
aI1
aI1
aF1.0
aI0
aI2
aI2
aI0
aI0
aI2
aI2
aI3
aI7
aI14
aa(lp284
V0020800863
p285
aVFEB 27, 2009
p286
aVNOH vs. MIL
p287
aVW
p288
aI37
aI8
aI17
aF0.471
aI1
aI5
aF0.2
aI0
aI0
aF0.0
aI1
aI3
aI4
aI1
aI0
aI1
aI1
aI2
aI17
aI-4
aa(lp289
V0020800886
p290
aVMAR 01, 2009
p291
aVNOH @ NJN
p292
aVW
p293
aI34
aI6
aI11
aF0.545
aI3
aI6
aF0.5
aI7
aI8
aF0.875
aI0
aI4
aI4
aI0
aI0
aI1
aI0
aI2
aI22
aI6
aa(lp294
V0020800892
p295
aVMAR 02, 2009
p296
aVNOH @ PHI
p297
aVW
p298
aI42
aI5
aI11
aF0.455
aI3
aI5
aF0.6
aI3
aI4
aF0.75
aI3
aI7
aI10
aI2
aI1
aI1
aI1
aI0
aI16
aI8
aa(lp299
V0020800915
p300
aVMAR 05, 2009
p301
aVNOH vs. DAL
p302
aVW
p303
aI40
aI6
aI13
aF0.462
aI2
aI5
aF0.4
aI4
aI5
aF0.8
aI0
aI5
aI5
aI0
aI2
aI0
aI0
aI2
aI18
aI15
aa(lp304
V0020800931
p305
aVMAR 07, 2009
p306
aVNOH vs. OKC
p307
aVW
p308
aI36
aI8
aI14
aF0.571
aI1
aI4
aF0.25
aI3
aI3
aF1.0
aI0
aI4
aI4
aI2
aI1
aI1
aI0
aI1
aI20
aI19
aa(lp309
V0020800943
p310
aVMAR 09, 2009
p311
aVNOH @ ATL
p312
aVL
p313
aI42
aI7
aI16
aF0.438
aI2
aI4
aF0.5
aI2
aI2
aF1.0
aI0
aI1
aI1
aI3
aI1
aI1
aI0
aI3
aI18
aI-7
aa(lp314
V0020800958
p315
aVMAR 11, 2009
p316
aVNOH @ WAS
p317
aVW
p318
aI35
aI7
aI18
aF0.389
aI6
aI13
aF0.462
aI1
aI2
aF0.5
aI1
aI2
aI3
aI2
aI1
aI1
aI2
aI1
aI21
aI15
aa(lp319
V0020800975
p320
aVMAR 13, 2009
p321
aVNOH @ MIL
p322
aVW
p323
aI42
aI6
aI12
aF0.5
aI4
aI8
aF0.5
aI1
aI2
aF0.5
aI0
aI5
aI5
aI1
aI0
aI1
aI1
aI2
aI17
aI16
aa(lp324
V0020800981
p325
aVMAR 14, 2009
p326
aVNOH @ CHI
p327
aVL
p328
aI34
aI5
aI12
aF0.417
aI0
aI5
aF0.0
aI0
aI0
aF0.0
aI0
aI3
aI3
aI0
aI0
aI1
aI3
aI1
aI10
aI-21
aa(lp329
V0020800998
p330
aVMAR 16, 2009
p331
aVNOH vs. HOU
p332
aVL
p333
aI44
aI5
aI13
aF0.385
aI1
aI5
aF0.2
aI0
aI0
aF0.0
aI1
aI2
aI3
aI3
aI0
aI0
aI3
aI3
aI11
aI-5
aa(lp334
V0020801015
p335
aVMAR 18, 2009
p336
aVNOH vs. MIN
p337
aVW
p338
aI41
aI6
aI11
aF0.545
aI1
aI3
aF0.333
aI1
aI2
aF0.5
aI0
aI7
aI7
aI1
aI0
aI0
aI1
aI3
aI14
aI-4
aa(lp339
V0020801028
p340
aVMAR 20, 2009
p341
aVNOH vs. MEM
p342
aVW
p343
aI37
aI5
aI12
aF0.417
aI1
aI3
aF0.333
aI0
aI0
aF0.0
aI0
aI1
aI1
aI1
aI0
aI1
aI0
aI1
aI11
aI27
aa(lp344
V0020801046
p345
aVMAR 22, 2009
p346
aVNOH vs. GSW
p347
aVW
p348
aI42
aI4
aI13
aF0.308
aI1
aI6
aF0.167
aI4
aI4
aF1.0
aI0
aI0
aI0
aI1
aI0
aI1
aI1
aI3
aI13
aI5
aa(lp349
V0020801066
p350
aVMAR 25, 2009
p351
aVNOH vs. DEN
p352
aVL
p353
aI30
aI4
aI7
aF0.571
aI2
aI4
aF0.5
aI0
aI0
aF0.0
aI0
aI2
aI2
aI1
aI0
aI1
aI1
aI6
aI10
aI-14
aa(lp354
V0020801079
p355
aVMAR 27, 2009
p356
aVNOH @ NYK
p357
aVL
p358
aI40
aI2
aI11
aF0.182
aI1
aI6
aF0.167
aI0
aI0
aF0.0
aI2
aI2
aI4
aI1
aI0
aI2
aI0
aI1
aI5
aI-17
aa(lp359
V0020801098
p360
aVMAR 29, 2009
p361
aVNOH vs. SAS
p362
aVW
p363
aI40
aI1
aI8
aF0.125
aI0
aI5
aF0.0
aI6
aI6
aF1.0
aI0
aI2
aI2
aI1
aI1
aI0
aI1
aI2
aI8
aI-2
aa(lp364
V0020801112
p365
aVMAR 31, 2009
p366
aVNOH @ SAC
p367
aVW
p368
aI44
aI7
aI16
aF0.438
aI4
aI7
aF0.571
aI0
aI0
aF0.0
aI1
aI2
aI3
aI1
aI1
aI1
aI0
aI1
aI18
aI-2
aa(lp369
V0020801121
p370
aVAPR 01, 2009
p371
aVNOH @ LAC
p372
aVW
p373
aI40
aI4
aI9
aF0.444
aI2
aI7
aF0.286
aI2
aI2
aF1.0
aI0
aI3
aI3
aI2
aI3
aI1
aI0
aI1
aI12
aI9
aa(lp374
V0020801133
p375
aVAPR 03, 2009
p376
aVNOH @ GSW
p377
aVL
p378
aI36
aI3
aI14
aF0.214
aI1
aI7
aF0.143
aI0
aI0
aF0.0
aI3
aI1
aI4
aI1
aI1
aI1
aI1
aI3
aI7
aI-12
aa(lp379
V0020801148
p380
aVAPR 05, 2009
p381
aVNOH vs. UTA
p382
aVL
p383
aI42
aI9
aI15
aF0.6
aI2
aI4
aF0.5
aI1
aI2
aF0.5
aI1
aI4
aI5
aI1
aI0
aI1
aI2
aI2
aI21
aI-13
aa(lp384
V0020801155
p385
aVAPR 07, 2009
p386
aVNOH @ MIA
p387
aVW
p388
aI47
aI3
aI9
aF0.333
aI1
aI3
aF0.333
aI0
aI0
aF0.0
aI2
aI4
aI6
aI2
aI1
aI0
aI1
aI3
aI7
aI9
aa(lp389
V0020801168
p390
aVAPR 08, 2009
p391
aVNOH vs. PHX
p392
aVL
p393
aI39
aI4
aI11
aF0.364
aI2
aI5
aF0.4
aI0
aI0
aF0.0
aI0
aI1
aI1
aI1
aI1
aI1
aI1
aI2
aI10
aI6
aa(lp394
V0020801184
p395
aVAPR 10, 2009
p396
aVNOH @ DAL
p397
aVL
p398
aI35
aI2
aI7
aF0.286
aI1
aI4
aF0.25
aI0
aI0
aF0.0
aI1
aI3
aI4
aI0
aI0
aI3
aI0
aI2
aI5
aI4
aa(lp399
V0020801196
p400
aVAPR 12, 2009
p401
aVNOH vs. DAL
p402
aVW
p403
aI38
aI5
aI12
aF0.417
aI2
aI6
aF0.333
aI1
aI1
aF1.0
aI0
aI4
aI4
aI0
aI0
aI0
aI1
aI3
aI13
aI-2
aa(lp404
V0020801208
p405
aVAPR 13, 2009
p406
aVNOH @ HOU
p407
aVL
p408
aI25
aI1
aI9
aF0.111
aI0
aI3
aF0.0
aI0
aI0
aF0.0
aI1
aI2
aI3
aI0
aI1
aI0
aI0
aI2
aI2
aI-21
aa(lp409
V0020801227
p410
aVAPR 15, 2009
p411
aVNOH @ SAS
p412
aVL
p413
aI41
aI4
aI11
aF0.364
aI2
aI5
aF0.4
aI1
aI2
aF0.5
aI1
aI4
aI5
aI0
aI1
aI2
aI1
aI2
aI11
aI-12
aasS'name'
p414
VRasual Butler
p415
sS'experience'
p416
I6
s.