(dp0
S'stats'
p1
(lp2
(lp3
V0020800012
p4
aVOCT 29, 2008
p5
aVHOU vs. MEM
p6
aVW
p7
aI25
aI5
aI11
aF0.455
aI0
aI0
aF0.0
aI2
aI2
aF1.0
aI2
aI11
aI13
aI0
aI1
aI0
aI1
aI2
aI12
aI6
aa(lp8
V0020800017
p9
aVOCT 30, 2008
p10
aVHOU @ DAL
p11
aVW
p12
aI22
aI3
aI5
aF0.6
aI0
aI0
aF0.0
aI1
aI1
aF1.0
aI0
aI4
aI4
aI0
aI0
aI0
aI2
aI4
aI7
aI-13
aa(lp13
V0020800035
p14
aVNOV 01, 2008
p15
aVHOU vs. OKC
p16
aVW
p17
aI21
aI3
aI9
aF0.333
aI0
aI0
aF0.0
aI4
aI4
aF1.0
aI0
aI7
aI7
aI0
aI2
aI0
aI0
aI2
aI10
aI2
aa(lp18
V0020800049
p19
aVNOV 04, 2008
p20
aVHOU vs. BOS
p21
aVL
p22
aI36
aI9
aI15
aF0.6
aI0
aI0
aF0.0
aI3
aI3
aF1.0
aI5
aI4
aI9
aI0
aI1
aI0
aI1
aI3
aI21
aI5
aa(lp23
V0020800065
p24
aVNOV 06, 2008
p25
aVHOU @ POR
p26
aVL
p27
aI23
aI7
aI10
aF0.7
aI0
aI0
aF0.0
aI0
aI0
aF0.0
aI1
aI3
aI4
aI0
aI1
aI0
aI0
aI3
aI14
aI-8
aa(lp28
V0020800078
p29
aVNOV 07, 2008
p30
aVHOU @ LAC
p31
aVW
p32
aI18
aI7
aI10
aF0.7
aI0
aI0
aF0.0
aI0
aI0
aF0.0
aI2
aI5
aI7
aI1
aI1
aI0
aI2
aI5
aI14
aI6
aa(lp33
V0020800092
p34
aVNOV 09, 2008
p35
aVHOU @ LAL
p36
aVL
p37
aI32
aI3
aI9
aF0.333
aI0
aI0
aF0.0
aI6
aI6
aF1.0
aI1
aI8
aI9
aI0
aI3
aI0
aI0
aI1
aI12
aI-16
aa(lp38
V0020800116
p39
aVNOV 12, 2008
p40
aVHOU @ PHX
p41
aVW
p42
aI24
aI1
aI6
aF0.167
aI0
aI0
aF0.0
aI0
aI0
aF0.0
aI0
aI4
aI4
aI1
aI0
aI0
aI3
aI1
aI2
aI10
aa(lp43
V0020800129
p44
aVNOV 14, 2008
p45
aVHOU @ SAS
p46
aVL
p47
aI20
aI2
aI6
aF0.333
aI0
aI0
aF0.0
aI0
aI0
aF0.0
aI0
aI1
aI1
aI1
aI0
aI0
aI1
aI3
aI4
aI1
aa(lp48
V0020800138
p49
aVNOV 15, 2008
p50
aVHOU vs. NOH
p51
aVW
p52
aI33
aI5
aI8
aF0.625
aI0
aI0
aF0.0
aI2
aI2
aF1.0
aI2
aI8
aI10
aI3
aI2
aI0
aI3
aI2
aI12
aI9
aa(lp53
V0020800146
p54
aVNOV 17, 2008
p55
aVHOU @ OKC
p56
aVW
p57
aI34
aI10
aI20
aF0.5
aI0
aI0
aF0.0
aI3
aI3
aF1.0
aI3
aI6
aI9
aI2
aI1
aI0
aI1
aI3
aI23
aI11
aa(lp58
V0020800162
p59
aVNOV 19, 2008
p60
aVHOU vs. DAL
p61
aVL
p62
aI41
aI6
aI12
aF0.5
aI0
aI0
aF0.0
aI3
aI4
aF0.75
aI2
aI5
aI7
aI1
aI2
aI1
aI3
aI4
aI15
aI-13
aa(lp63
V0020800174
p64
aVNOV 21, 2008
p65
aVHOU @ WAS
p66
aVW
p67
aI18
aI3
aI6
aF0.5
aI0
aI0
aF0.0
aI1
aI2
aF0.5
aI2
aI3
aI5
aI1
aI0
aI0
aI1
aI3
aI7
aI-11
aa(lp68
V0020800185
p69
aVNOV 22, 2008
p70
aVHOU @ ORL
p71
aVW
p72
aI18
aI4
aI7
aF0.571
aI0
aI1
aF0.0
aI1
aI2
aF0.5
aI0
aI1
aI1
aI0
aI0
aI0
aI1
aI3
aI9
aI6
aa(lp73
V0020800200
p74
aVNOV 24, 2008
p75
aVHOU @ MIA
p76
aVW
p77
aI30
aI2
aI9
aF0.222
aI0
aI0
aF0.0
aI7
aI9
aF0.778
aI6
aI7
aI13
aI3
aI0
aI0
aI1
aI3
aI11
aI12
aa(lp78
V0020800217
p79
aVNOV 26, 2008
p80
aVHOU vs. IND
p81
aVL
p82
aI35
aI6
aI17
aF0.353
aI0
aI0
aF0.0
aI3
aI4
aF0.75
aI4
aI14
aI18
aI4
aI1
aI0
aI2
aI4
aI15
aI0
aa(lp83
V0020800242
p84
aVNOV 29, 2008
p85
aVHOU vs. SAS
p86
aVW
p87
aI25
aI5
aI7
aF0.714
aI0
aI0
aF0.0
aI1
aI2
aF0.5
aI0
aI3
aI3
aI1
aI1
aI0
aI1
aI2
aI11
aI16
aa(lp88
V0020800249
p89
aVNOV 30, 2008
p90
aVHOU @ DEN
p91
aVL
p92
aI25
aI3
aI5
aF0.6
aI0
aI0
aF0.0
aI1
aI2
aF0.5
aI0
aI5
aI5
aI1
aI0
aI0
aI2
aI2
aI7
aI-14
aa(lp93
V0020800272
p94
aVDEC 03, 2008
p95
aVHOU vs. LAC
p96
aVW
p97
aI22
aI2
aI8
aF0.25
aI0
aI0
aF0.0
aI1
aI2
aF0.5
aI2
aI4
aI6
aI0
aI1
aI0
aI2
aI2
aI5
aI2
aa(lp98
V0020800284
p99
aVDEC 05, 2008
p100
aVHOU vs. GSW
p101
aVW
p102
aI24
aI4
aI8
aF0.5
aI0
aI0
aF0.0
aI0
aI0
aF0.0
aI4
aI6
aI10
aI0
aI1
aI1
aI0
aI2
aI8
aI1
aa(lp103
V0020800302
p104
aVDEC 08, 2008
p105
aVHOU @ MEM
p106
aVL
p107
aI33
aI7
aI13
aF0.538
aI0
aI0
aF0.0
aI2
aI2
aF1.0
aI6
aI9
aI15
aI3
aI0
aI0
aI3
aI3
aI16
aI0
aa(lp108
V0020800310
p109
aVDEC 09, 2008
p110
aVHOU vs. ATL
p111
aVW
p112
aI33
aI6
aI10
aF0.6
aI0
aI0
aF0.0
aI0
aI2
aF0.0
aI4
aI6
aI10
aI2
aI2
aI0
aI1
aI3
aI12
aI-4
aa(lp113
V0020800335
p114
aVDEC 12, 2008
p115
aVHOU @ GSW
p116
aVW
p117
aI24
aI7
aI12
aF0.583
aI0
aI0
aF0.0
aI5
aI6
aF0.833
aI3
aI4
aI7
aI1
aI0
aI1
aI2
aI4
aI19
aI4
aa(lp118
V0020800346
p119
aVDEC 13, 2008
p120
aVHOU @ LAC
p121
aVL
p122
aI33
aI4
aI10
aF0.4
aI0
aI0
aF0.0
aI0
aI0
aF0.0
aI3
aI4
aI7
aI1
aI1
aI0
aI0
aI4
aI8
aI-2
aa(lp123
V0020800363
p124
aVDEC 16, 2008
p125
aVHOU vs. DEN
p126
aVW
p127
aI25
aI2
aI5
aF0.4
aI0
aI0
aF0.0
aI0
aI0
aF0.0
aI2
aI4
aI6
aI1
aI0
aI0
aI0
aI4
aI4
aI15
aa(lp128
V0020800387
p129
aVDEC 19, 2008
p130
aVHOU vs. SAC
p131
aVW
p132
aI30
aI10
aI21
aF0.476
aI0
aI0
aF0.0
aI3
aI5
aF0.6
aI5
aI5
aI10
aI1
aI3
aI0
aI2
aI2
aI23
aI14
aa(lp133
V0020800392
p134
aVDEC 20, 2008
p135
aVHOU @ MIN
p136
aVW
p137
aI14
aI1
aI1
aF1.0
aI0
aI0
aF0.0
aI1
aI2
aF0.5
aI1
aI3
aI4
aI2
aI0
aI0
aI0
aI4
aI3
aI8
aa(lp138
V0020800404
p139
aVDEC 22, 2008
p140
aVHOU @ NJN
p141
aVW
p142
aI28
aI5
aI7
aF0.714
aI0
aI0
aF0.0
aI1
aI6
aF0.167
aI2
aI2
aI4
aI4
aI1
aI1
aI2
aI2
aI11
aI11
aa(lp143
V0020800411
p144
aVDEC 23, 2008
p145
aVHOU @ CLE
p146
aVL
p147
aI32
aI5
aI10
aF0.5
aI0
aI0
aF0.0
aI1
aI2
aF0.5
aI3
aI5
aI8
aI3
aI1
aI0
aI3
aI1
aI11
aI-4
aa(lp148
V0020800431
p149
aVDEC 26, 2008
p150
aVHOU @ NOH
p151
aVL
p152
aI35
aI3
aI9
aF0.333
aI0
aI0
aF0.0
aI4
aI4
aF1.0
aI1
aI7
aI8
aI0
aI2
aI0
aI1
aI5
aI10
aI-10
aa(lp153
V0020800440
p154
aVDEC 27, 2008
p155
aVHOU vs. UTA
p156
aVW
p157
aI47
aI3
aI8
aF0.375
aI0
aI0
aF0.0
aI4
aI5
aF0.8
aI2
aI12
aI14
aI4
aI0
aI0
aI4
aI4
aI10
aI6
aa(lp158
V0020800455
p159
aVDEC 29, 2008
p160
aVHOU vs. WAS
p161
aVL
p162
aI35
aI7
aI8
aF0.875
aI0
aI0
aF0.0
aI2
aI2
aF1.0
aI0
aI5
aI5
aI2
aI0
aI0
aI1
aI5
aI16
aI11
aa(lp163
V0020800469
p164
aVDEC 31, 2008
p165
aVHOU vs. MIL
p166
aVW
p167
aI33
aI4
aI7
aF0.571
aI0
aI0
aF0.0
aI3
aI4
aF0.75
aI1
aI9
aI10
aI2
aI2
aI0
aI2
aI5
aI11
aI5
aa(lp168
V0020800474
p169
aVJAN 02, 2009
p170
aVHOU @ TOR
p171
aVL
p172
aI30
aI4
aI6
aF0.667
aI0
aI0
aF0.0
aI0
aI0
aF0.0
aI3
aI10
aI13
aI2
aI0
aI0
aI1
aI3
aI8
aI-11
aa(lp173
V0020800488
p174
aVJAN 03, 2009
p175
aVHOU @ ATL
p176
aVL
p177
aI39
aI5
aI9
aF0.556
aI0
aI0
aF0.0
aI6
aI8
aF0.75
aI3
aI8
aI11
aI1
aI0
aI0
aI1
aI2
aI16
aI1
aa(lp178
V0020800508
p179
aVJAN 06, 2009
p180
aVHOU @ PHI
p181
aVL
p182
aI36
aI7
aI10
aF0.7
aI0
aI0
aF0.0
aI4
aI8
aF0.5
aI6
aI11
aI17
aI0
aI2
aI0
aI2
aI5
aI18
aI5
aa(lp183
V0020800517
p184
aVJAN 07, 2009
p185
aVHOU @ BOS
p186
aVW
p187
aI15
aI0
aI4
aF0.0
aI0
aI0
aF0.0
aI0
aI0
aF0.0
aI1
aI1
aI2
aI0
aI0
aI0
aI0
aI3
aI0
aI-4
aa(lp188
V0020800533
p189
aVJAN 09, 2009
p190
aVHOU @ OKC
p191
aVW
p192
aI23
aI6
aI7
aF0.857
aI0
aI0
aF0.0
aI2
aI4
aF0.5
aI1
aI5
aI6
aI0
aI1
aI0
aI0
aI4
aI14
aI-13
aa(lp193
V0020800543
p194
aVJAN 10, 2009
p195
aVHOU vs. NYK
p196
aVW
p197
aI28
aI7
aI15
aF0.467
aI0
aI0
aF0.0
aI4
aI4
aF1.0
aI3
aI8
aI11
aI1
aI0
aI0
aI2
aI1
aI18
aI23
aa(lp198
V0020800562
p199
aVJAN 13, 2009
p200
aVHOU vs. LAL
p201
aVL
p202
aI25
aI3
aI4
aF0.75
aI0
aI0
aF0.0
aI0
aI0
aF0.0
aI1
aI0
aI1
aI3
aI0
aI0
aI1
aI5
aI6
aI-3
aa(lp203
V0020800595
p204
aVJAN 17, 2009
p205
aVHOU vs. MIA
p206
aVW
p207
aI27
aI3
aI5
aF0.6
aI0
aI0
aF0.0
aI3
aI5
aF0.6
aI1
aI4
aI5
aI1
aI0
aI0
aI2
aI3
aI9
aI1
aa(lp208
V0020800605
p209
aVJAN 19, 2009
p210
aVHOU vs. DEN
p211
aVW
p212
aI34
aI8
aI14
aF0.571
aI0
aI1
aF0.0
aI0
aI1
aF0.0
aI2
aI6
aI8
aI1
aI0
aI0
aI2
aI2
aI16
aI10
aa(lp213
V0020800623
p214
aVJAN 21, 2009
p215
aVHOU vs. UTA
p216
aVW
p217
aI34
aI6
aI10
aF0.6
aI0
aI0
aF0.0
aI7
aI7
aF1.0
aI2
aI7
aI9
aI0
aI0
aI1
aI2
aI4
aI19
aI2
aa(lp218
V0020800632
p219
aVJAN 23, 2009
p220
aVHOU @ IND
p221
aVL
p222
aI38
aI9
aI16
aF0.563
aI0
aI0
aF0.0
aI7
aI11
aF0.636
aI2
aI5
aI7
aI1
aI0
aI0
aI4
aI6
aI25
aI6
aa(lp223
V0020800650
p224
aVJAN 25, 2009
p225
aVHOU @ DET
p226
aVW
p227
aI33
aI9
aI11
aF0.818
aI0
aI0
aF0.0
aI3
aI6
aF0.5
aI3
aI2
aI5
aI3
aI0
aI0
aI1
aI5
aI21
aI1
aa(lp228
V0020800657
p229
aVJAN 26, 2009
p230
aVHOU @ NYK
p231
aVL
p232
aI28
aI6
aI11
aF0.545
aI0
aI0
aF0.0
aI4
aI4
aF1.0
aI2
aI12
aI14
aI1
aI1
aI0
aI0
aI4
aI16
aI-10
aa(lp233
V0020800675
p234
aVJAN 28, 2009
p235
aVHOU vs. PHI
p236
aVL
p237
aI34
aI9
aI14
aF0.643
aI0
aI0
aF0.0
aI0
aI0
aF0.0
aI2
aI8
aI10
aI0
aI3
aI0
aI1
aI2
aI18
aI2
aa(lp238
V0020800697
p239
aVJAN 31, 2009
p240
aVHOU vs. GSW
p241
aVW
p242
aI30
aI4
aI7
aF0.571
aI0
aI0
aF0.0
aI1
aI2
aF0.5
aI2
aI6
aI8
aI0
aI1
aI0
aI1
aI3
aI9
aI18
aa(lp243
V0020800718
p244
aVFEB 03, 2009
p245
aVHOU vs. CHI
p246
aVW
p247
aI33
aI5
aI13
aF0.385
aI0
aI0
aF0.0
aI3
aI3
aF1.0
aI4
aI14
aI18
aI2
aI1
aI1
aI0
aI3
aI13
aI4
aa(lp248
V0020800725
p249
aVFEB 04, 2009
p250
aVHOU @ MEM
p251
aVL
p252
aI31
aI4
aI9
aF0.444
aI0
aI0
aF0.0
aI1
aI2
aF0.5
aI2
aI2
aI4
aI1
aI0
aI0
aI0
aI4
aI9
aI-12
aa(lp253
V0020800748
p254
aVFEB 07, 2009
p255
aVHOU vs. MIN
p256
aVW
p257
aI19
aI3
aI10
aF0.3
aI0
aI0
aF0.0
aI2
aI2
aF1.0
aI4
aI6
aI10
aI0
aI1
aI0
aI0
aI3
aI8
aI-11
aa(lp258
V0020800763
p259
aVFEB 09, 2009
p260
aVHOU @ MIL
p261
aVL
p262
aI29
aI7
aI8
aF0.875
aI0
aI0
aF0.0
aI6
aI6
aF1.0
aI1
aI3
aI4
aI2
aI1
aI0
aI1
aI4
aI20
aI-13
aa(lp263
V0020800781
p264
aVFEB 11, 2009
p265
aVHOU vs. SAC
p266
aVW
p267
aI31
aI6
aI11
aF0.545
aI0
aI0
aF0.0
aI7
aI9
aF0.778
aI2
aI9
aI11
aI2
aI1
aI0
aI3
aI3
aI19
aI22
aa(lp268
V0020800794
p269
aVFEB 17, 2009
p270
aVHOU vs. NJN
p271
aVW
p272
aI31
aI3
aI9
aF0.333
aI0
aI0
aF0.0
aI4
aI4
aF1.0
aI4
aI7
aI11
aI4
aI0
aI0
aI2
aI4
aI10
aI8
aa(lp273
V0020800817
p274
aVFEB 20, 2009
p275
aVHOU vs. DAL
p276
aVW
p277
aI33
aI5
aI7
aF0.714
aI0
aI0
aF0.0
aI5
aI6
aF0.833
aI5
aI10
aI15
aI3
aI2
aI0
aI2
aI2
aI15
aI20
aa(lp278
V0020800830
p279
aVFEB 22, 2009
p280
aVHOU vs. CHA
p281
aVW
p282
aI32
aI5
aI10
aF0.5
aI0
aI1
aF0.0
aI2
aI2
aF1.0
aI3
aI7
aI10
aI2
aI3
aI0
aI3
aI3
aI12
aI20
aa(lp283
V0020800847
p284
aVFEB 24, 2009
p285
aVHOU vs. POR
p286
aVW
p287
aI36
aI5
aI9
aF0.556
aI0
aI0
aF0.0
aI5
aI6
aF0.833
aI4
aI7
aI11
aI2
aI1
aI1
aI1
aI3
aI15
aI-1
aa(lp288
V0020800861
p289
aVFEB 26, 2009
p290
aVHOU vs. CLE
p291
aVW
p292
aI35
aI5
aI7
aF0.714
aI0
aI0
aF0.0
aI4
aI4
aF1.0
aI2
aI7
aI9
aI2
aI0
aI0
aI1
aI3
aI14
aI17
aa(lp293
V0020800879
p294
aVFEB 28, 2009
p295
aVHOU @ CHI
p296
aVL
p297
aI41
aI7
aI10
aF0.7
aI0
aI0
aF0.0
aI2
aI2
aF1.0
aI3
aI9
aI12
aI2
aI1
aI0
aI5
aI4
aI16
aI4
aa(lp298
V0020800888
p299
aVMAR 01, 2009
p300
aVHOU @ MIN
p301
aVW
p302
aI35
aI6
aI12
aF0.5
aI0
aI0
aF0.0
aI3
aI4
aF0.75
aI1
aI10
aI11
aI4
aI0
aI0
aI3
aI2
aI15
aI21
aa(lp303
V0020800902
p304
aVMAR 03, 2009
p305
aVHOU vs. TOR
p306
aVW
p307
aI33
aI10
aI17
aF0.588
aI0
aI0
aF0.0
aI0
aI0
aF0.0
aI5
aI11
aI16
aI2
aI0
aI1
aI1
aI1
aI20
aI-6
aa(lp308
V0020800912
p309
aVMAR 04, 2009
p310
aVHOU @ UTA
p311
aVL
p312
aI33
aI5
aI9
aF0.556
aI0
aI0
aF0.0
aI3
aI4
aF0.75
aI0
aI5
aI5
aI0
aI0
aI0
aI0
aI0
aI13
aI-10
aa(lp313
V0020800923
p314
aVMAR 06, 2009
p315
aVHOU vs. PHX
p316
aVW
p317
aI31
aI6
aI9
aF0.667
aI0
aI0
aF0.0
aI3
aI6
aF0.5
aI3
aI8
aI11
aI0
aI0
aI1
aI0
aI3
aI15
aI-3
aa(lp318
V0020800940
p319
aVMAR 08, 2009
p320
aVHOU vs. MEM
p321
aVW
p322
aI30
aI6
aI12
aF0.5
aI0
aI0
aF0.0
aI6
aI7
aF0.857
aI5
aI9
aI14
aI0
aI0
aI0
aI3
aI3
aI18
aI7
aa(lp323
V0020800947
p324
aVMAR 09, 2009
p325
aVHOU @ DEN
p326
aVW
p327
aI32
aI2
aI7
aF0.286
aI0
aI0
aF0.0
aI0
aI0
aF0.0
aI4
aI11
aI15
aI3
aI0
aI1
aI5
aI6
aI4
aI-7
aa(lp328
V0020800962
p329
aVMAR 11, 2009
p330
aVHOU vs. LAL
p331
aVL
p332
aI33
aI7
aI9
aF0.778
aI0
aI0
aF0.0
aI1
aI1
aF1.0
aI1
aI8
aI9
aI1
aI0
aI0
aI2
aI3
aI15
aI2
aa(lp333
V0020800968
p334
aVMAR 13, 2009
p335
aVHOU @ CHA
p336
aVW
p337
aI33
aI7
aI10
aF0.7
aI0
aI0
aF0.0
aI1
aI2
aF0.5
aI1
aI5
aI6
aI0
aI0
aI0
aI1
aI4
aI15
aI7
aa(lp338
V0020800982
p339
aVMAR 14, 2009
p340
aVHOU vs. SAS
p341
aVL
p342
aI33
aI4
aI9
aF0.444
aI0
aI0
aF0.0
aI2
aI2
aF1.0
aI1
aI6
aI7
aI3
aI0
aI0
aI0
aI4
aI10
aI-5
aa(lp343
V0020800998
p344
aVMAR 16, 2009
p345
aVHOU @ NOH
p346
aVW
p347
aI34
aI6
aI15
aF0.4
aI0
aI0
aF0.0
aI2
aI2
aF1.0
aI3
aI9
aI12
aI0
aI2
aI0
aI3
aI2
aI14
aI-6
aa(lp348
V0020801017
p349
aVMAR 18, 2009
p350
aVHOU vs. DET
p351
aVW
p352
aI47
aI6
aI14
aF0.429
aI0
aI0
aF0.0
aI2
aI2
aF1.0
aI3
aI3
aI6
aI3
aI0
aI0
aI3
aI2
aI14
aI9
aa(lp353
V0020801030
p354
aVMAR 20, 2009
p355
aVHOU vs. MIN
p356
aVW
p357
aI27
aI4
aI10
aF0.4
aI0
aI0
aF0.0
aI0
aI0
aF0.0
aI2
aI7
aI9
aI2
aI2
aI0
aI2
aI2
aI8
aI19
aa(lp358
V0020801042
p359
aVMAR 22, 2009
p360
aVHOU @ SAS
p361
aVW
p362
aI37
aI8
aI17
aF0.471
aI0
aI0
aF0.0
aI3
aI4
aF0.75
aI3
aI14
aI17
aI4
aI3
aI0
aI1
aI5
aI19
aI14
aa(lp363
V0020801058
p364
aVMAR 24, 2009
p365
aVHOU @ UTA
p366
aVL
p367
aI37
aI4
aI9
aF0.444
aI0
aI0
aF0.0
aI2
aI2
aF1.0
aI5
aI7
aI12
aI3
aI2
aI0
aI1
aI4
aI10
aI-6
aa(lp368
V0020801087
p369
aVMAR 28, 2009
p370
aVHOU vs. LAC
p371
aVW
p372
aI32
aI6
aI9
aF0.667
aI0
aI0
aF0.0
aI1
aI2
aF0.5
aI2
aI4
aI6
aI3
aI1
aI0
aI1
aI4
aI13
aI18
aa(lp373
V0020801119
p374
aVAPR 01, 2009
p375
aVHOU @ PHX
p376
aVL
p377
aI33
aI2
aI5
aF0.4
aI0
aI0
aF0.0
aI0
aI0
aF0.0
aI3
aI6
aI9
aI4
aI0
aI0
aI3
aI5
aI4
aI-11
aa(lp378
V0020801134
p379
aVAPR 03, 2009
p380
aVHOU @ LAL
p381
aVL
p382
aI35
aI7
aI10
aF0.7
aI0
aI0
aF0.0
aI2
aI4
aF0.5
aI2
aI7
aI9
aI1
aI1
aI0
aI2
aI5
aI16
aI-15
aa(lp383
V0020801146
p384
aVAPR 05, 2009
p385
aVHOU vs. POR
p386
aVW
p387
aI26
aI8
aI10
aF0.8
aI0
aI0
aF0.0
aI0
aI0
aF0.0
aI1
aI5
aI6
aI1
aI0
aI0
aI1
aI4
aI16
aI15
aa(lp388
V0020801159
p389
aVAPR 07, 2009
p390
aVHOU vs. ORL
p391
aVW
p392
aI28
aI5
aI9
aF0.556
aI0
aI0
aF0.0
aI2
aI2
aF1.0
aI2
aI7
aI9
aI1
aI1
aI0
aI1
aI2
aI12
aI-1
aa(lp393
V0020801174
p394
aVAPR 09, 2009
p395
aVHOU @ SAC
p396
aVW
p397
aI34
aI5
aI11
aF0.455
aI0
aI0
aF0.0
aI5
aI6
aF0.833
aI6
aI2
aI8
aI2
aI3
aI1
aI2
aI4
aI15
aI-2
aa(lp398
V0020801187
p399
aVAPR 10, 2009
p400
aVHOU @ GSW
p401
aVW
p402
aI38
aI10
aI15
aF0.667
aI0
aI0
aF0.0
aI8
aI10
aF0.8
aI5
aI4
aI9
aI4
aI0
aI0
aI2
aI4
aI28
aI15
aa(lp403
V0020801208
p404
aVAPR 13, 2009
p405
aVHOU vs. NOH
p406
aVW
p407
aI29
aI3
aI8
aF0.375
aI0
aI0
aF0.0
aI2
aI2
aF1.0
aI3
aI12
aI15
aI0
aI2
aI0
aI0
aI1
aI8
aI13
aa(lp408
V0020801220
p409
aVAPR 15, 2009
p410
aVHOU @ DAL
p411
aVL
p412
aI22
aI2
aI8
aF0.25
aI0
aI0
aF0.0
aI1
aI2
aF0.5
aI2
aI2
aI4
aI1
aI2
aI0
aI0
aI3
aI5
aI-9
aasS'name'
p413
VLuis Scola
p414
sS'weight'
p415
V240
p416
sS'age'
p417
I28
sS'experience'
p418
I1
sS'height'
p419
V6-9
p420
sS'position'
p421
VForward
p422
s.