(dp0
S'age'
p1
I25
sS'stats'
p2
(lp3
(lp4
V0020800001
p5
aVOCT 28, 2008
p6
aVCLE @ BOS
p7
aVL
p8
aI13
aI3
aI6
aF0.5
aI0
aI2
aF0.0
aI1
aI2
aF0.5
aI0
aI3
aI3
aI0
aI0
aI0
aI3
aI1
aI7
aI-3
aa(lp9
V0020800016
p10
aVOCT 30, 2008
p11
aVCLE vs. CHA
p12
aVW
p13
aI18
aI0
aI1
aF0.0
aI0
aI0
aF0.0
aI2
aI2
aF1.0
aI1
aI2
aI3
aI1
aI1
aI0
aI1
aI2
aI2
aI7
aa(lp14
V0020800033
p15
aVNOV 01, 2008
p16
aVCLE @ NOH
p17
aVL
p18
aI4
aI0
aI1
aF0.0
aI0
aI0
aF0.0
aI0
aI0
aF0.0
aI0
aI1
aI1
aI0
aI0
aI0
aI0
aI0
aI0
aI-2
aa(lp19
V0020800046
p20
aVNOV 03, 2008
p21
aVCLE @ DAL
p22
aVW
p23
aI3
aI0
aI1
aF0.0
aI0
aI1
aF0.0
aI0
aI0
aF0.0
aI0
aI1
aI1
aI0
aI0
aI0
aI0
aI0
aI0
aI-5
aa(lp24
V0020800055
p25
aVNOV 05, 2008
p26
aVCLE vs. CHI
p27
aVW
p28
aI2
aI0
aI0
aF0.0
aI0
aI0
aF0.0
aI0
aI0
aF0.0
aI0
aI0
aI0
aI0
aI0
aI0
aI0
aI0
aI0
aI-2
aa(lp29
V0020800070
p30
aVNOV 07, 2008
p31
aVCLE vs. IND
p32
aVW
p33
aI5
aI0
aI0
aF0.0
aI0
aI0
aF0.0
aI0
aI0
aF0.0
aI0
aI0
aI0
aI1
aI0
aI2
aI0
aI0
aI0
aI3
aa(lp34
V0020800099
p35
aVNOV 11, 2008
p36
aVCLE vs. MIL
p37
aVW
p38
aI5
aI0
aI0
aF0.0
aI0
aI0
aF0.0
aI2
aI2
aF1.0
aI0
aI0
aI0
aI0
aI0
aI0
aI0
aI1
aI2
aI-1
aa(lp39
V0020800117
p40
aVNOV 13, 2008
p41
aVCLE vs. DEN
p42
aVW
p43
aI11
aI0
aI0
aF0.0
aI0
aI0
aF0.0
aI0
aI0
aF0.0
aI0
aI0
aI0
aI1
aI1
aI0
aI0
aI0
aI0
aI4
aa(lp44
V0020800135
p45
aVNOV 15, 2008
p46
aVCLE vs. UTA
p47
aVW
p48
aI4
aI0
aI1
aF0.0
aI0
aI0
aF0.0
aI0
aI0
aF0.0
aI0
aI0
aI0
aI0
aI1
aI0
aI0
aI0
aI0
aI-13
aa(lp49
V0020800154
p50
aVNOV 18, 2008
p51
aVCLE @ NJN
p52
aVW
p53
aI14
aI2
aI5
aF0.4
aI0
aI1
aF0.0
aI0
aI0
aF0.0
aI1
aI3
aI4
aI1
aI0
aI0
aI0
aI1
aI4
aI8
aa(lp54
V0020800160
p55
aVNOV 19, 2008
p56
aVCLE @ DET
p57
aVL
p58
aI12
aI2
aI4
aF0.5
aI1
aI2
aF0.5
aI0
aI2
aF0.0
aI1
aI0
aI1
aI0
aI0
aI0
aI0
aI1
aI5
aI-6
aa(lp59
V0020800186
p60
aVNOV 22, 2008
p61
aVCLE vs. ATL
p62
aVW
p63
aI2
aI1
aI2
aF0.5
aI0
aI0
aF0.0
aI0
aI0
aF0.0
aI0
aI0
aI0
aI0
aI0
aI0
aI0
aI1
aI2
aI0
aa(lp64
V0020800206
p65
aVNOV 25, 2008
p66
aVCLE @ NYK
p67
aVW
p68
aI6
aI0
aI1
aF0.0
aI0
aI0
aF0.0
aI1
aI2
aF0.5
aI0
aI1
aI1
aI2
aI0
aI0
aI1
aI0
aI1
aI-10
aa(lp69
V0020800211
p70
aVNOV 26, 2008
p71
aVCLE vs. OKC
p72
aVW
p73
aI18
aI1
aI3
aF0.333
aI0
aI0
aF0.0
aI2
aI7
aF0.286
aI0
aI0
aI0
aI1
aI0
aI0
aI2
aI1
aI4
aI0
aa(lp74
V0020800227
p75
aVNOV 28, 2008
p76
aVCLE vs. GSW
p77
aVW
p78
aI17
aI2
aI5
aF0.4
aI1
aI2
aF0.5
aI1
aI2
aF0.5
aI2
aI0
aI2
aI1
aI0
aI0
aI1
aI3
aI6
aI-7
aa(lp79
V0020800243
p80
aVNOV 29, 2008
p81
aVCLE @ MIL
p82
aVW
p83
aI13
aI2
aI2
aF1.0
aI2
aI2
aF1.0
aI0
aI0
aF0.0
aI0
aI0
aI0
aI0
aI0
aI0
aI1
aI2
aI6
aI9
aa(lp84
V0020800265
p85
aVDEC 03, 2008
p86
aVCLE vs. NYK
p87
aVW
p88
aI12
aI3
aI5
aF0.6
aI1
aI2
aF0.5
aI1
aI1
aF1.0
aI0
aI0
aI0
aI3
aI1
aI0
aI0
aI2
aI8
aI10
aa(lp89
V0020800279
p90
aVDEC 05, 2008
p91
aVCLE vs. IND
p92
aVW
p93
aI12
aI0
aI2
aF0.0
aI0
aI1
aF0.0
aI0
aI0
aF0.0
aI1
aI1
aI2
aI1
aI1
aI1
aI1
aI0
aI0
aI-9
aa(lp94
V0020800287
p95
aVDEC 06, 2008
p96
aVCLE @ CHA
p97
aVW
p98
aI17
aI2
aI5
aF0.4
aI1
aI3
aF0.333
aI0
aI0
aF0.0
aI0
aI2
aI2
aI2
aI0
aI0
aI1
aI0
aI5
aI-6
aa(lp99
V0020800305
p100
aVDEC 09, 2008
p101
aVCLE vs. TOR
p102
aVW
p103
aI22
aI4
aI9
aF0.444
aI1
aI2
aF0.5
aI0
aI0
aF0.0
aI1
aI4
aI5
aI2
aI0
aI0
aI1
aI3
aI9
aI-9
aa(lp104
V0020800318
p105
aVDEC 10, 2008
p106
aVCLE @ PHI
p107
aVW
p108
aI20
aI2
aI7
aF0.286
aI0
aI2
aF0.0
aI0
aI0
aF0.0
aI0
aI3
aI3
aI2
aI0
aI0
aI1
aI3
aI4
aI9
aa(lp109
V0020800326
p110
aVDEC 12, 2008
p111
aVCLE vs. PHI
p112
aVW
p113
aI25
aI2
aI4
aF0.5
aI2
aI3
aF0.667
aI0
aI0
aF0.0
aI0
aI2
aI2
aI2
aI1
aI0
aI0
aI1
aI6
aI5
aa(lp114
V0020800337
p115
aVDEC 13, 2008
p116
aVCLE @ ATL
p117
aVL
p118
aI24
aI3
aI5
aF0.6
aI1
aI1
aF1.0
aI0
aI0
aF0.0
aI2
aI3
aI5
aI1
aI0
aI1
aI0
aI4
aI7
aI2
aa(lp119
V0020800372
p120
aVDEC 17, 2008
p121
aVCLE @ MIN
p122
aVW
p123
aI31
aI2
aI6
aF0.333
aI0
aI3
aF0.0
aI0
aI0
aF0.0
aI1
aI3
aI4
aI2
aI0
aI0
aI1
aI2
aI4
aI17
aa(lp124
V0020800388
p125
aVDEC 19, 2008
p126
aVCLE @ DEN
p127
aVW
p128
aI26
aI3
aI11
aF0.273
aI1
aI5
aF0.2
aI0
aI0
aF0.0
aI1
aI2
aI3
aI1
aI2
aI0
aI0
aI1
aI7
aI0
aa(lp129
V0020800402
p130
aVDEC 21, 2008
p131
aVCLE @ OKC
p132
aVW
p133
aI14
aI2
aI3
aF0.667
aI1
aI1
aF1.0
aI0
aI0
aF0.0
aI1
aI1
aI2
aI2
aI1
aI0
aI1
aI1
aI5
aI5
aa(lp134
V0020800411
p135
aVDEC 23, 2008
p136
aVCLE vs. HOU
p137
aVW
p138
aI13
aI1
aI3
aF0.333
aI1
aI3
aF0.333
aI0
aI0
aF0.0
aI3
aI0
aI3
aI1
aI0
aI1
aI2
aI0
aI3
aI10
aa(lp139
V0020800424
p140
aVDEC 25, 2008
p141
aVCLE vs. WAS
p142
aVW
p143
aI2
aI0
aI1
aF0.0
aI0
aI1
aF0.0
aI0
aI0
aF0.0
aI0
aI0
aI0
aI0
aI0
aI0
aI0
aI0
aI0
aI6
aa(lp144
V0020800446
p145
aVDEC 28, 2008
p146
aVCLE vs. MIA
p147
aVW
p148
aI15
aI0
aI2
aF0.0
aI0
aI1
aF0.0
aI0
aI0
aF0.0
aI0
aI1
aI1
aI0
aI0
aI0
aI0
aI0
aI0
aI-12
aa(lp149
V0020800460
p150
aVDEC 30, 2008
p151
aVCLE @ MIA
p152
aVL
p153
aI5
aI1
aI2
aF0.5
aI0
aI0
aF0.0
aI0
aI0
aF0.0
aI0
aI0
aI0
aI0
aI0
aI0
aI1
aI3
aI2
aI-1
aa(lp154
V0020800476
p155
aVJAN 02, 2009
p156
aVCLE vs. CHI
p157
aVW
p158
aI22
aI5
aI8
aF0.625
aI2
aI3
aF0.667
aI1
aI2
aF0.5
aI1
aI4
aI5
aI1
aI0
aI0
aI2
aI3
aI13
aI4
aa(lp159
V0020800496
p160
aVJAN 04, 2009
p161
aVCLE @ WAS
p162
aVL
p163
aI7
aI0
aI1
aF0.0
aI0
aI1
aF0.0
aI0
aI2
aF0.0
aI1
aI0
aI1
aI1
aI0
aI0
aI0
aI1
aI0
aI-3
aa(lp164
V0020800515
p165
aVJAN 07, 2009
p166
aVCLE vs. CHA
p167
aVW
p168
aI6
aI1
aI2
aF0.5
aI0
aI1
aF0.0
aI0
aI0
aF0.0
aI0
aI0
aI0
aI0
aI0
aI0
aI0
aI0
aI2
aI6
aa(lp169
V0020800531
p170
aVJAN 09, 2009
p171
aVCLE vs. BOS
p172
aVW
p173
aI4
aI0
aI0
aF0.0
aI0
aI0
aF0.0
aI0
aI0
aF0.0
aI0
aI0
aI0
aI1
aI0
aI0
aI0
aI0
aI0
aI-1
aa(lp174
V0020800560
p175
aVJAN 13, 2009
p176
aVCLE @ MEM
p177
aVW
p178
aI2
aI1
aI1
aF1.0
aI1
aI1
aF1.0
aI0
aI0
aF0.0
aI0
aI0
aI0
aI0
aI0
aI0
aI0
aI0
aI3
aI-5
aa(lp179
V0020800578
p180
aVJAN 15, 2009
p181
aVCLE @ CHI
p182
aVL
p183
aI18
aI1
aI2
aF0.5
aI1
aI2
aF0.5
aI0
aI0
aF0.0
aI1
aI2
aI3
aI1
aI0
aI0
aI1
aI6
aI3
aI3
aa(lp184
V0020800583
p185
aVJAN 16, 2009
p186
aVCLE vs. NOH
p187
aVW
p188
aI43
aI7
aI10
aF0.7
aI4
aI4
aF1.0
aI1
aI1
aF1.0
aI1
aI5
aI6
aI1
aI2
aI0
aI0
aI1
aI19
aI15
aa(lp189
V0020800612
p190
aVJAN 19, 2009
p191
aVCLE @ LAL
p192
aVL
p193
aI34
aI5
aI12
aF0.417
aI2
aI6
aF0.333
aI0
aI0
aF0.0
aI0
aI0
aI0
aI3
aI1
aI1
aI0
aI4
aI12
aI-9
aa(lp194
V0020800624
p195
aVJAN 21, 2009
p196
aVCLE @ POR
p197
aVW
p198
aI31
aI3
aI6
aF0.5
aI0
aI1
aF0.0
aI0
aI0
aF0.0
aI0
aI4
aI4
aI4
aI1
aI0
aI2
aI5
aI6
aI1
aa(lp199
V0020800638
p200
aVJAN 23, 2009
p201
aVCLE @ GSW
p202
aVW
p203
aI27
aI3
aI7
aF0.429
aI2
aI4
aF0.5
aI0
aI0
aF0.0
aI1
aI8
aI9
aI1
aI1
aI1
aI0
aI4
aI8
aI3
aa(lp204
V0020800644
p205
aVJAN 24, 2009
p206
aVCLE @ UTA
p207
aVW
p208
aI35
aI4
aI7
aF0.571
aI3
aI6
aF0.5
aI2
aI4
aF0.5
aI0
aI3
aI3
aI4
aI0
aI1
aI2
aI2
aI13
aI22
aa(lp209
V0020800662
p210
aVJAN 27, 2009
p211
aVCLE vs. SAC
p212
aVW
p213
aI23
aI5
aI8
aF0.625
aI2
aI4
aF0.5
aI0
aI0
aF0.0
aI1
aI0
aI1
aI3
aI0
aI0
aI1
aI3
aI12
aI4
aa(lp214
V0020800679
p215
aVJAN 29, 2009
p216
aVCLE @ ORL
p217
aVL
p218
aI31
aI3
aI8
aF0.375
aI2
aI3
aF0.667
aI0
aI0
aF0.0
aI0
aI4
aI4
aI2
aI2
aI0
aI2
aI1
aI8
aI-5
aa(lp219
V0020800686
p220
aVJAN 30, 2009
p221
aVCLE vs. LAC
p222
aVW
p223
aI23
aI6
aI8
aF0.75
aI3
aI5
aF0.6
aI0
aI0
aF0.0
aI0
aI2
aI2
aI1
aI0
aI0
aI0
aI5
aI15
aI22
aa(lp224
V0020800704
p225
aVFEB 01, 2009
p226
aVCLE @ DET
p227
aVW
p228
aI30
aI3
aI7
aF0.429
aI1
aI1
aF1.0
aI2
aI2
aF1.0
aI0
aI4
aI4
aI2
aI0
aI2
aI3
aI3
aI9
aI-2
aa(lp229
V0020800751
p230
aVFEB 08, 2009
p231
aVCLE vs. LAL
p232
aVL
p233
aI12
aI2
aI2
aF1.0
aI1
aI1
aF1.0
aI0
aI0
aF0.0
aI0
aI1
aI1
aI0
aI1
aI0
aI1
aI1
aI5
aI2
aa(lp234
V0020800894
p235
aVMAR 02, 2009
p236
aVCLE @ MIA
p237
aVW
p238
aI7
aI0
aI0
aF0.0
aI0
aI0
aF0.0
aI0
aI0
aF0.0
aI0
aI0
aI0
aI0
aI0
aI0
aI1
aI1
aI0
aI3
aa(lp239
V0020800905
p240
aVMAR 04, 2009
p241
aVCLE vs. MIL
p242
aVW
p243
aI14
aI1
aI3
aF0.333
aI0
aI0
aF0.0
aI0
aI0
aF0.0
aI0
aI2
aI2
aI2
aI0
aI0
aI2
aI1
aI2
aI9
aa(lp244
V0020800920
p245
aVMAR 06, 2009
p246
aVCLE @ BOS
p247
aVL
p248
aI4
aI0
aI1
aF0.0
aI0
aI1
aF0.0
aI0
aI0
aF0.0
aI0
aI0
aI0
aI0
aI0
aI0
aI0
aI1
aI0
aI-2
aa(lp249
V0020800954
p250
aVMAR 10, 2009
p251
aVCLE @ LAC
p252
aVW
p253
aI7
aI0
aI0
aF0.0
aI0
aI0
aF0.0
aI0
aI0
aF0.0
aI0
aI2
aI2
aI0
aI0
aI1
aI0
aI2
aI0
aI-7
aa(lp254
V0020800967
p255
aVMAR 12, 2009
p256
aVCLE @ PHX
p257
aVW
p258
aI28
aI6
aI9
aF0.667
aI3
aI5
aF0.6
aI1
aI3
aF0.333
aI1
aI1
aI2
aI2
aI0
aI0
aI0
aI4
aI16
aI16
aa(lp259
V0020800977
p260
aVMAR 13, 2009
p261
aVCLE @ SAC
p262
aVW
p263
aI31
aI3
aI10
aF0.3
aI2
aI6
aF0.333
aI0
aI2
aF0.0
aI1
aI2
aI3
aI1
aI2
aI0
aI1
aI6
aI8
aI12
aa(lp264
V0020800986
p265
aVMAR 15, 2009
p266
aVCLE vs. NYK
p267
aVW
p268
aI26
aI2
aI9
aF0.222
aI1
aI5
aF0.2
aI2
aI2
aF1.0
aI1
aI1
aI2
aI2
aI1
aI3
aI1
aI5
aI7
aI1
aa(lp269
V0020801002
p270
aVMAR 17, 2009
p271
aVCLE vs. ORL
p272
aVW
p273
aI17
aI0
aI2
aF0.0
aI0
aI2
aF0.0
aI0
aI0
aF0.0
aI0
aI1
aI1
aI1
aI1
aI0
aI1
aI1
aI0
aI5
aa(lp274
V0020801021
p275
aVMAR 19, 2009
p276
aVCLE vs. POR
p277
aVW
p278
aI24
aI0
aI3
aF0.0
aI0
aI0
aF0.0
aI1
aI2
aF0.5
aI1
aI1
aI2
aI2
aI0
aI0
aI0
aI6
aI1
aI10
aa(lp279
V0020801034
p280
aVMAR 21, 2009
p281
aVCLE vs. ATL
p282
aVW
p283
aI16
aI1
aI5
aF0.2
aI1
aI3
aF0.333
aI2
aI2
aF1.0
aI1
aI2
aI3
aI2
aI0
aI0
aI2
aI4
aI5
aI-4
aa(lp284
V0020801045
p285
aVMAR 22, 2009
p286
aVCLE @ NJN
p287
aVW
p288
aI19
aI2
aI6
aF0.333
aI1
aI1
aF1.0
aI1
aI2
aF0.5
aI1
aI2
aI3
aI2
aI0
aI0
aI1
aI4
aI6
aI-14
aa(lp289
V0020801060
p290
aVMAR 25, 2009
p291
aVCLE vs. NJN
p292
aVW
p293
aI12
aI0
aI3
aF0.0
aI0
aI1
aF0.0
aI0
aI0
aF0.0
aI1
aI1
aI2
aI1
aI0
aI2
aI0
aI1
aI0
aI-7
aa(lp294
V0020801077
p295
aVMAR 27, 2009
p296
aVCLE vs. MIN
p297
aVW
p298
aI25
aI2
aI4
aF0.5
aI0
aI2
aF0.0
aI0
aI0
aF0.0
aI1
aI4
aI5
aI2
aI0
aI0
aI1
aI3
aI4
aI3
aa(lp299
V0020801091
p300
aVMAR 29, 2009
p301
aVCLE vs. DAL
p302
aVW
p303
aI6
aI0
aI2
aF0.0
aI0
aI1
aF0.0
aI0
aI2
aF0.0
aI0
aI2
aI2
aI0
aI0
aI0
aI0
aI0
aI0
aI4
aa(lp304
V0020801123
p305
aVAPR 02, 2009
p306
aVCLE @ WAS
p307
aVL
p308
aI4
aI0
aI0
aF0.0
aI0
aI0
aF0.0
aI0
aI0
aF0.0
aI0
aI0
aI0
aI0
aI0
aI0
aI0
aI2
aI0
aI0
aa(lp309
V0020801130
p310
aVAPR 03, 2009
p311
aVCLE @ ORL
p312
aVL
p313
aI18
aI1
aI6
aF0.167
aI0
aI0
aF0.0
aI0
aI0
aF0.0
aI0
aI2
aI2
aI1
aI0
aI0
aI0
aI1
aI2
aI-3
aa(lp314
V0020801142
p315
aVAPR 05, 2009
p316
aVCLE vs. SAS
p317
aVW
p318
aI6
aI0
aI2
aF0.0
aI0
aI1
aF0.0
aI0
aI0
aF0.0
aI1
aI0
aI1
aI0
aI0
aI0
aI1
aI1
aI0
aI-1
aa(lp319
V0020801162
p320
aVAPR 08, 2009
p321
aVCLE vs. WAS
p322
aVW
p323
aI5
aI2
aI5
aF0.4
aI1
aI2
aF0.5
aI0
aI2
aF0.0
aI0
aI0
aI0
aI0
aI0
aI0
aI0
aI0
aI5
aI-6
aa(lp324
V0020801197
p325
aVAPR 12, 2009
p326
aVCLE vs. BOS
p327
aVW
p328
aI7
aI0
aI1
aF0.0
aI0
aI1
aF0.0
aI2
aI4
aF0.5
aI0
aI1
aI1
aI0
aI0
aI0
aI0
aI1
aI2
aI-3
aa(lp329
V0020801219
p330
aVAPR 15, 2009
p331
aVCLE vs. PHI
p332
aVL
p333
aI41
aI9
aI18
aF0.5
aI2
aI5
aF0.4
aI0
aI2
aF0.0
aI1
aI2
aI3
aI2
aI1
aI0
aI5
aI6
aI20
aI-7
aasS'name'
p334
VSasha Pavlovic
p335
sS'experience'
p336
I5
s.