(dp0
S'age'
p1
I28
sS'stats'
p2
(lp3
(lp4
V0020800013
p5
aVOCT 29, 2008
p6
aVDEN @ UTA
p7
aVL
p8
aI14
aI1
aI5
aF0.2
aI0
aI0
aF0.0
aI1
aI2
aF0.5
aI0
aI3
aI3
aI0
aI1
aI0
aI0
aI1
aI3
aI-2
aa(lp9
V0020800024
p10
aVOCT 31, 2008
p11
aVDEN @ LAC
p12
aVW
p13
aI19
aI1
aI6
aF0.167
aI0
aI0
aF0.0
aI11
aI12
aF0.917
aI2
aI0
aI2
aI0
aI1
aI1
aI2
aI1
aI13
aI0
aa(lp14
V0020800062
p15
aVNOV 05, 2008
p16
aVDEN @ GSW
p17
aVL
p18
aI21
aI5
aI10
aF0.5
aI0
aI0
aF0.0
aI5
aI5
aF1.0
aI1
aI0
aI1
aI0
aI1
aI0
aI3
aI3
aI15
aI2
aa(lp19
V0020800076
p20
aVNOV 07, 2008
p21
aVDEN vs. DAL
p22
aVW
p23
aI22
aI1
aI5
aF0.2
aI0
aI0
aF0.0
aI2
aI2
aF1.0
aI1
aI3
aI4
aI0
aI0
aI0
aI0
aI3
aI4
aI-8
aa(lp24
V0020800090
p25
aVNOV 09, 2008
p26
aVDEN vs. MEM
p27
aVW
p28
aI23
aI5
aI7
aF0.714
aI0
aI0
aF0.0
aI1
aI1
aF1.0
aI1
aI1
aI2
aI1
aI1
aI1
aI0
aI3
aI11
aI11
aa(lp29
V0020800098
p30
aVNOV 11, 2008
p31
aVDEN @ CHA
p32
aVW
p33
aI16
aI1
aI3
aF0.333
aI0
aI0
aF0.0
aI0
aI1
aF0.0
aI0
aI0
aI0
aI2
aI2
aI0
aI1
aI0
aI2
aI6
aa(lp34
V0020800117
p35
aVNOV 13, 2008
p36
aVDEN @ CLE
p37
aVL
p38
aI15
aI3
aI5
aF0.6
aI0
aI0
aF0.0
aI0
aI1
aF0.0
aI2
aI0
aI2
aI1
aI0
aI0
aI0
aI3
aI6
aI-3
aa(lp39
V0020800125
p40
aVNOV 14, 2008
p41
aVDEN @ BOS
p42
aVW
p43
aI13
aI1
aI3
aF0.333
aI0
aI0
aF0.0
aI0
aI0
aF0.0
aI1
aI1
aI2
aI1
aI2
aI0
aI1
aI1
aI2
aI0
aa(lp44
V0020800143
p45
aVNOV 16, 2008
p46
aVDEN vs. MIN
p47
aVW
p48
aI17
aI1
aI3
aF0.333
aI0
aI0
aF0.0
aI0
aI0
aF0.0
aI0
aI1
aI1
aI1
aI0
aI0
aI1
aI3
aI2
aI-3
aa(lp49
V0020800156
p50
aVNOV 18, 2008
p51
aVDEN vs. MIL
p52
aVW
p53
aI28
aI5
aI7
aF0.714
aI0
aI0
aF0.0
aI5
aI10
aF0.5
aI0
aI4
aI4
aI0
aI1
aI0
aI0
aI3
aI15
aI-8
aa(lp54
V0020800166
p55
aVNOV 19, 2008
p56
aVDEN @ SAS
p57
aVW
p58
aI18
aI0
aI2
aF0.0
aI0
aI0
aF0.0
aI0
aI0
aF0.0
aI0
aI3
aI3
aI0
aI1
aI0
aI1
aI1
aI0
aI-4
aa(lp59
V0020800183
p60
aVNOV 21, 2008
p61
aVDEN @ LAL
p62
aVL
p63
aI18
aI2
aI4
aF0.5
aI0
aI0
aF0.0
aI0
aI2
aF0.0
aI1
aI2
aI3
aI0
aI0
aI0
aI1
aI5
aI4
aI-3
aa(lp64
V0020800196
p65
aVNOV 23, 2008
p66
aVDEN vs. CHI
p67
aVW
p68
aI15
aI0
aI2
aF0.0
aI0
aI0
aF0.0
aI0
aI0
aF0.0
aI0
aI1
aI1
aI1
aI2
aI0
aI1
aI1
aI0
aI-6
aa(lp69
V0020800222
p70
aVNOV 26, 2008
p71
aVDEN @ LAC
p72
aVW
p73
aI23
aI0
aI2
aF0.0
aI0
aI0
aF0.0
aI3
aI4
aF0.75
aI1
aI1
aI2
aI2
aI1
aI0
aI2
aI4
aI3
aI-3
aa(lp74
V0020800224
p75
aVNOV 27, 2008
p76
aVDEN vs. NOH
p77
aVL
p78
aI13
aI2
aI3
aF0.667
aI0
aI0
aF0.0
aI0
aI0
aF0.0
aI0
aI0
aI0
aI0
aI1
aI0
aI1
aI3
aI4
aI-10
aa(lp79
V0020800241
p80
aVNOV 29, 2008
p81
aVDEN @ MIN
p82
aVW
p83
aI22
aI3
aI5
aF0.6
aI0
aI0
aF0.0
aI2
aI4
aF0.5
aI0
aI1
aI1
aI1
aI1
aI0
aI0
aI1
aI8
aI4
aa(lp84
V0020800249
p85
aVNOV 30, 2008
p86
aVDEN vs. HOU
p87
aVW
p88
aI24
aI2
aI4
aF0.5
aI0
aI0
aF0.0
aI4
aI4
aF1.0
aI1
aI1
aI2
aI1
aI1
aI2
aI0
aI3
aI8
aI11
aa(lp89
V0020800261
p90
aVDEC 02, 2008
p91
aVDEN vs. TOR
p92
aVW
p93
aI23
aI3
aI5
aF0.6
aI0
aI0
aF0.0
aI3
aI6
aF0.5
aI0
aI1
aI1
aI5
aI0
aI0
aI0
aI1
aI9
aI22
aa(lp94
V0020800275
p95
aVDEC 04, 2008
p96
aVDEN vs. SAS
p97
aVL
p98
aI14
aI1
aI2
aF0.5
aI0
aI0
aF0.0
aI0
aI0
aF0.0
aI0
aI0
aI0
aI2
aI0
aI0
aI0
aI1
aI2
aI-6
aa(lp99
V0020800296
p100
aVDEC 06, 2008
p101
aVDEN @ SAC
p102
aVW
p103
aI28
aI1
aI8
aF0.125
aI0
aI0
aF0.0
aI4
aI4
aF1.0
aI0
aI5
aI5
aI1
aI1
aI2
aI0
aI2
aI6
aI35
aa(lp104
V0020800320
p105
aVDEC 10, 2008
p106
aVDEN vs. MIN
p107
aVW
p108
aI20
aI2
aI4
aF0.5
aI1
aI1
aF1.0
aI3
aI6
aF0.5
aI1
aI1
aI2
aI1
aI0
aI0
aI2
aI2
aI8
aI12
aa(lp109
V0020800343
p110
aVDEC 13, 2008
p111
aVDEN vs. GSW
p112
aVW
p113
aI23
aI2
aI3
aF0.667
aI0
aI0
aF0.0
aI2
aI2
aF1.0
aI0
aI3
aI3
aI1
aI1
aI0
aI2
aI5
aI6
aI12
aa(lp114
V0020800356
p115
aVDEC 15, 2008
p116
aVDEN @ DAL
p117
aVW
p118
aI16
aI2
aI4
aF0.5
aI0
aI0
aF0.0
aI0
aI0
aF0.0
aI0
aI1
aI1
aI0
aI0
aI1
aI0
aI2
aI4
aI-7
aa(lp119
V0020800363
p120
aVDEC 16, 2008
p121
aVDEN @ HOU
p122
aVL
p123
aI14
aI1
aI3
aF0.333
aI0
aI0
aF0.0
aI0
aI0
aF0.0
aI1
aI1
aI2
aI0
aI0
aI0
aI1
aI3
aI2
aI-11
aa(lp124
V0020800388
p125
aVDEC 19, 2008
p126
aVDEN vs. CLE
p127
aVL
p128
aI19
aI3
aI4
aF0.75
aI0
aI0
aF0.0
aI0
aI2
aF0.0
aI0
aI1
aI1
aI2
aI0
aI0
aI2
aI4
aI6
aI-17
aa(lp129
V0020800398
p130
aVDEC 20, 2008
p131
aVDEN @ PHX
p132
aVL
p133
aI13
aI0
aI1
aF0.0
aI0
aI0
aF0.0
aI2
aI2
aF1.0
aI1
aI2
aI3
aI1
aI0
aI0
aI1
aI2
aI2
aI-15
aa(lp134
V0020800407
p135
aVDEC 22, 2008
p136
aVDEN vs. POR
p137
aVW
p138
aI16
aI2
aI4
aF0.5
aI0
aI0
aF0.0
aI2
aI2
aF1.0
aI0
aI0
aI0
aI0
aI1
aI0
aI1
aI3
aI6
aI-2
aa(lp139
V0020800420
p140
aVDEC 23, 2008
p141
aVDEN @ POR
p142
aVL
p143
aI17
aI0
aI5
aF0.0
aI0
aI0
aF0.0
aI0
aI0
aF0.0
aI1
aI1
aI2
aI0
aI0
aI0
aI2
aI3
aI0
aI9
aa(lp144
V0020800432
p145
aVDEC 26, 2008
p146
aVDEN vs. PHI
p147
aVW
p148
aI19
aI3
aI6
aF0.5
aI2
aI2
aF1.0
aI1
aI1
aF1.0
aI1
aI0
aI1
aI0
aI0
aI1
aI1
aI1
aI9
aI-19
aa(lp149
V0020800444
p150
aVDEC 28, 2008
p151
aVDEN @ NYK
p152
aVW
p153
aI15
aI5
aI7
aF0.714
aI0
aI0
aF0.0
aI2
aI2
aF1.0
aI3
aI0
aI3
aI0
aI0
aI0
aI0
aI2
aI12
aI-6
aa(lp154
V0020800450
p155
aVDEC 29, 2008
p156
aVDEN @ ATL
p157
aVL
p158
aI21
aI4
aI6
aF0.667
aI0
aI0
aF0.0
aI1
aI2
aF0.5
aI1
aI2
aI3
aI2
aI0
aI0
aI1
aI2
aI9
aI-4
aa(lp159
V0020800470
p160
aVDEC 31, 2008
p161
aVDEN @ TOR
p162
aVW
p163
aI16
aI2
aI4
aF0.5
aI0
aI0
aF0.0
aI0
aI0
aF0.0
aI1
aI2
aI3
aI0
aI0
aI0
aI0
aI2
aI4
aI-13
aa(lp164
V0020800482
p165
aVJAN 02, 2009
p166
aVDEN @ OKC
p167
aVW
p168
aI22
aI2
aI5
aF0.4
aI0
aI1
aF0.0
aI5
aI5
aF1.0
aI0
aI0
aI0
aI1
aI1
aI1
aI1
aI1
aI9
aI1
aa(lp169
V0020800494
p170
aVJAN 03, 2009
p171
aVDEN vs. NOH
p172
aVW
p173
aI17
aI4
aI5
aF0.8
aI0
aI0
aF0.0
aI2
aI2
aF1.0
aI0
aI0
aI0
aI0
aI0
aI0
aI0
aI4
aI10
aI3
aa(lp174
V0020800504
p175
aVJAN 05, 2009
p176
aVDEN vs. IND
p177
aVW
p178
aI26
aI4
aI7
aF0.571
aI0
aI0
aF0.0
aI0
aI0
aF0.0
aI0
aI4
aI4
aI0
aI0
aI1
aI1
aI4
aI8
aI14
aa(lp179
V0020800521
p180
aVJAN 07, 2009
p181
aVDEN vs. MIA
p182
aVW
p183
aI23
aI2
aI8
aF0.25
aI0
aI1
aF0.0
aI2
aI2
aF1.0
aI2
aI2
aI4
aI0
aI0
aI0
aI1
aI1
aI6
aI6
aa(lp184
V0020800536
p185
aVJAN 09, 2009
p186
aVDEN vs. DET
p187
aVL
p188
aI29
aI2
aI3
aF0.667
aI0
aI0
aF0.0
aI2
aI2
aF1.0
aI1
aI4
aI5
aI2
aI2
aI0
aI0
aI5
aI6
aI-15
aa(lp189
V0020800563
p190
aVJAN 13, 2009
p191
aVDEN vs. DAL
p192
aVW
p193
aI29
aI4
aI5
aF0.8
aI0
aI0
aF0.0
aI8
aI11
aF0.727
aI0
aI3
aI3
aI3
aI5
aI0
aI0
aI2
aI16
aI3
aa(lp194
V0020800579
p195
aVJAN 15, 2009
p196
aVDEN vs. PHX
p197
aVW
p198
aI23
aI1
aI5
aF0.2
aI0
aI0
aF0.0
aI1
aI2
aF0.5
aI3
aI1
aI4
aI3
aI1
aI0
aI2
aI4
aI3
aI11
aa(lp199
V0020800597
p200
aVJAN 17, 2009
p201
aVDEN vs. ORL
p202
aVL
p203
aI16
aI0
aI2
aF0.0
aI0
aI0
aF0.0
aI3
aI4
aF0.75
aI1
aI2
aI3
aI2
aI0
aI0
aI0
aI4
aI3
aI-12
aa(lp204
V0020800605
p205
aVJAN 19, 2009
p206
aVDEN @ HOU
p207
aVL
p208
aI29
aI4
aI5
aF0.8
aI0
aI0
aF0.0
aI2
aI2
aF1.0
aI1
aI3
aI4
aI3
aI3
aI1
aI2
aI2
aI10
aI3
aa(lp209
V0020800653
p210
aVJAN 25, 2009
p211
aVDEN vs. UTA
p212
aVW
p213
aI15
aI1
aI4
aF0.25
aI0
aI1
aF0.0
aI0
aI2
aF0.0
aI0
aI1
aI1
aI1
aI2
aI0
aI0
aI5
aI2
aI7
aa(lp214
V0020800664
p215
aVJAN 27, 2009
p216
aVDEN @ MEM
p217
aVW
p218
aI21
aI2
aI7
aF0.286
aI0
aI0
aF0.0
aI0
aI0
aF0.0
aI3
aI0
aI3
aI0
aI1
aI0
aI4
aI4
aI4
aI5
aa(lp219
V0020800673
p220
aVJAN 28, 2009
p221
aVDEN @ NOH
p222
aVL
p223
aI27
aI1
aI4
aF0.25
aI0
aI0
aF0.0
aI1
aI1
aF1.0
aI2
aI1
aI3
aI2
aI1
aI1
aI3
aI2
aI3
aI-16
aa(lp224
V0020800688
p225
aVJAN 30, 2009
p226
aVDEN vs. CHA
p227
aVW
p228
aI21
aI3
aI4
aF0.75
aI0
aI0
aF0.0
aI0
aI0
aF0.0
aI1
aI2
aI3
aI1
aI1
aI0
aI3
aI5
aI6
aI1
aa(lp229
V0020800719
p230
aVFEB 03, 2009
p231
aVDEN vs. SAS
p232
aVW
p233
aI13
aI0
aI2
aF0.0
aI0
aI0
aF0.0
aI2
aI2
aF1.0
aI1
aI3
aI4
aI1
aI0
aI0
aI0
aI1
aI2
aI1
aa(lp234
V0020800728
p235
aVFEB 04, 2009
p236
aVDEN @ OKC
p237
aVW
p238
aI23
aI2
aI8
aF0.25
aI0
aI0
aF0.0
aI3
aI3
aF1.0
aI3
aI2
aI5
aI1
aI0
aI0
aI2
aI3
aI7
aI-4
aa(lp239
V0020800740
p240
aVFEB 06, 2009
p241
aVDEN @ WAS
p242
aVW
p243
aI28
aI8
aI10
aF0.8
aI0
aI0
aF0.0
aI2
aI2
aF1.0
aI2
aI4
aI6
aI2
aI1
aI0
aI1
aI2
aI18
aI-2
aa(lp244
V0020800745
p245
aVFEB 07, 2009
p246
aVDEN @ NJN
p247
aVL
p248
aI19
aI3
aI8
aF0.375
aI0
aI0
aF0.0
aI1
aI2
aF0.5
aI0
aI1
aI1
aI2
aI0
aI0
aI0
aI5
aI7
aI-17
aa(lp249
V0020800766
p250
aVFEB 10, 2009
p251
aVDEN @ MIA
p252
aVW
p253
aI16
aI1
aI3
aF0.333
aI0
aI0
aF0.0
aI0
aI0
aF0.0
aI0
aI1
aI1
aI2
aI1
aI0
aI0
aI2
aI2
aI-9
aa(lp254
V0020800775
p255
aVFEB 11, 2009
p256
aVDEN @ ORL
p257
aVW
p258
aI16
aI0
aI2
aF0.0
aI0
aI0
aF0.0
aI0
aI0
aF0.0
aI0
aI2
aI2
aI1
aI1
aI0
aI0
aI2
aI0
aI6
aa(lp259
V0020800803
p260
aVFEB 18, 2009
p261
aVDEN @ PHI
p262
aVW
p263
aI14
aI1
aI2
aF0.5
aI0
aI0
aF0.0
aI0
aI0
aF0.0
aI0
aI1
aI1
aI0
aI0
aI0
aI2
aI5
aI2
aI8
aa(lp264
V0020800816
p265
aVFEB 20, 2009
p266
aVDEN @ CHI
p267
aVL
p268
aI19
aI1
aI4
aF0.25
aI0
aI0
aF0.0
aI1
aI2
aF0.5
aI1
aI0
aI1
aI0
aI0
aI0
aI1
aI2
aI3
aI4
aa(lp269
V0020800831
p270
aVFEB 22, 2009
p271
aVDEN @ MIL
p272
aVL
p273
aI15
aI1
aI2
aF0.5
aI1
aI1
aF1.0
aI0
aI0
aF0.0
aI1
aI4
aI5
aI1
aI0
aI1
aI1
aI4
aI3
aI3
aa(lp274
V0020800838
p275
aVFEB 23, 2009
p276
aVDEN vs. BOS
p277
aVL
p278
aI18
aI0
aI5
aF0.0
aI0
aI0
aF0.0
aI3
aI4
aF0.75
aI1
aI2
aI3
aI0
aI1
aI0
aI2
aI0
aI3
aI-17
aa(lp279
V0020800858
p280
aVFEB 25, 2009
p281
aVDEN vs. ATL
p282
aVW
p283
aI20
aI4
aI6
aF0.667
aI2
aI2
aF1.0
aI0
aI0
aF0.0
aI1
aI0
aI1
aI0
aI0
aI0
aI0
aI1
aI10
aI3
aa(lp284
V0020800871
p285
aVFEB 27, 2009
p286
aVDEN vs. LAL
p287
aVW
p288
aI17
aI1
aI4
aF0.25
aI0
aI2
aF0.0
aI0
aI1
aF0.0
aI0
aI2
aI2
aI1
aI0
aI0
aI0
aI4
aI2
aI-16
aa(lp289
V0020800887
p290
aVMAR 01, 2009
p291
aVDEN @ IND
p292
aVL
p293
aI16
aI4
aI5
aF0.8
aI0
aI0
aF0.0
aI0
aI0
aF0.0
aI0
aI3
aI3
aI1
aI0
aI2
aI0
aI1
aI8
aI-1
aa(lp294
V0020800899
p295
aVMAR 03, 2009
p296
aVDEN @ DET
p297
aVL
p298
aI17
aI2
aI3
aF0.667
aI1
aI1
aF1.0
aI0
aI0
aF0.0
aI0
aI1
aI1
aI0
aI1
aI0
aI0
aI4
aI5
aI-19
aa(lp299
V0020800916
p300
aVMAR 05, 2009
p301
aVDEN vs. POR
p302
aVW
p303
aI16
aI1
aI2
aF0.5
aI0
aI0
aF0.0
aI0
aI0
aF0.0
aI0
aI2
aI2
aI3
aI0
aI1
aI1
aI3
aI2
aI5
aa(lp304
V0020800926
p305
aVMAR 06, 2009
p306
aVDEN @ UTA
p307
aVL
p308
aI8
aI1
aI1
aF1.0
aI0
aI0
aF0.0
aI1
aI1
aF1.0
aI1
aI0
aI1
aI0
aI0
aI1
aI0
aI1
aI3
aI-5
aa(lp309
V0020800942
p310
aVMAR 08, 2009
p311
aVDEN @ SAC
p312
aVL
p313
aI12
aI1
aI3
aF0.333
aI0
aI0
aF0.0
aI0
aI0
aF0.0
aI1
aI1
aI2
aI0
aI0
aI0
aI1
aI1
aI2
aI3
aa(lp314
V0020800947
p315
aVMAR 09, 2009
p316
aVDEN vs. HOU
p317
aVL
p318
aI13
aI1
aI3
aF0.333
aI0
aI1
aF0.0
aI3
aI4
aF0.75
aI1
aI0
aI1
aI1
aI1
aI0
aI1
aI3
aI5
aI2
aa(lp319
V0020800983
p320
aVMAR 14, 2009
p321
aVDEN vs. LAC
p322
aVW
p323
aI17
aI1
aI2
aF0.5
aI0
aI0
aF0.0
aI2
aI3
aF0.667
aI1
aI2
aI3
aI1
aI0
aI0
aI1
aI5
aI4
aI21
aa(lp324
V0020801000
p325
aVMAR 16, 2009
p326
aVDEN vs. NJN
p327
aVW
p328
aI26
aI6
aI10
aF0.6
aI0
aI0
aF0.0
aI3
aI4
aF0.75
aI2
aI0
aI2
aI2
aI1
aI0
aI0
aI2
aI15
aI19
aa(lp329
V0020801013
p330
aVMAR 18, 2009
p331
aVDEN @ MEM
p332
aVW
p333
aI12
aI1
aI2
aF0.5
aI0
aI0
aF0.0
aI1
aI2
aF0.5
aI0
aI1
aI1
aI0
aI0
aI0
aI1
aI2
aI3
aI-14
aa(lp334
V0020801032
p335
aVMAR 20, 2009
p336
aVDEN vs. WAS
p337
aVW
p338
aI2
aI0
aI0
aF0.0
aI0
aI0
aF0.0
aI1
aI2
aF0.5
aI0
aI0
aI0
aI1
aI0
aI0
aI0
aI1
aI1
aI-3
aa(lp339
V0020801053
p340
aVMAR 23, 2009
p341
aVDEN @ PHX
p342
aVL
p343
aI7
aI0
aI2
aF0.0
aI0
aI0
aF0.0
aI0
aI0
aF0.0
aI0
aI0
aI0
aI2
aI1
aI0
aI1
aI1
aI0
aI1
aa(lp344
V0020801066
p345
aVMAR 25, 2009
p346
aVDEN @ NOH
p347
aVW
p348
aI17
aI1
aI2
aF0.5
aI0
aI0
aF0.0
aI0
aI0
aF0.0
aI0
aI1
aI1
aI0
aI0
aI1
aI1
aI4
aI2
aI3
aa(lp349
V0020801080
p350
aVMAR 27, 2009
p351
aVDEN @ DAL
p352
aVW
p353
aI17
aI3
aI4
aF0.75
aI1
aI1
aF1.0
aI2
aI3
aF0.667
aI1
aI1
aI2
aI0
aI1
aI1
aI1
aI2
aI9
aI2
aa(lp354
V0020801088
p355
aVMAR 28, 2009
p356
aVDEN vs. GSW
p357
aVW
p358
aI17
aI4
aI6
aF0.667
aI0
aI0
aF0.0
aI0
aI0
aF0.0
aI0
aI2
aI2
aI2
aI1
aI0
aI1
aI0
aI8
aI1
aa(lp359
V0020801110
p360
aVMAR 31, 2009
p361
aVDEN vs. NYK
p362
aVW
p363
aI13
aI1
aI1
aF1.0
aI0
aI0
aF0.0
aI1
aI2
aF0.5
aI0
aI4
aI4
aI2
aI0
aI0
aI1
aI3
aI3
aI-5
aa(lp364
V0020801124
p365
aVAPR 02, 2009
p366
aVDEN vs. UTA
p367
aVW
p368
aI12
aI0
aI0
aF0.0
aI0
aI0
aF0.0
aI0
aI0
aF0.0
aI0
aI1
aI1
aI1
aI0
aI0
aI1
aI3
aI0
aI-9
aa(lp369
V0020801141
p370
aVAPR 04, 2009
p371
aVDEN vs. LAC
p372
aVW
p373
aI16
aI3
aI5
aF0.6
aI2
aI2
aF1.0
aI0
aI0
aF0.0
aI1
aI1
aI2
aI1
aI0
aI0
aI1
aI1
aI8
aI-8
aa(lp374
V0020801147
p375
aVAPR 05, 2009
p376
aVDEN @ MIN
p377
aVW
p378
aI19
aI2
aI4
aF0.5
aI0
aI0
aF0.0
aI2
aI2
aF1.0
aI1
aI0
aI1
aI2
aI0
aI0
aI1
aI1
aI6
aI2
aa(lp379
V0020801170
p380
aVAPR 08, 2009
p381
aVDEN vs. OKC
p382
aVW
p383
aI14
aI1
aI2
aF0.5
aI0
aI0
aF0.0
aI0
aI0
aF0.0
aI0
aI1
aI1
aI1
aI1
aI0
aI1
aI3
aI2
aI-6
aa(lp384
V0020801175
p385
aVAPR 09, 2009
p386
aVDEN @ LAL
p387
aVL
p388
aI12
aI2
aI4
aF0.5
aI0
aI0
aF0.0
aI2
aI2
aF1.0
aI1
aI1
aI2
aI2
aI0
aI0
aI0
aI4
aI6
aI-6
aa(lp389
V0020801209
p390
aVAPR 13, 2009
p391
aVDEN vs. SAC
p392
aVW
p393
aI14
aI1
aI5
aF0.2
aI1
aI1
aF1.0
aI0
aI0
aF0.0
aI2
aI0
aI2
aI1
aI0
aI0
aI0
aI3
aI3
aI-7
aa(lp394
V0020801230
p395
aVAPR 15, 2009
p396
aVDEN @ POR
p397
aVL
p398
aI20
aI2
aI8
aF0.25
aI0
aI0
aF0.0
aI0
aI0
aF0.0
aI1
aI1
aI2
aI0
aI2
aI0
aI1
aI3
aI4
aI-8
aasS'name'
p399
VDahntay Jones
p400
sS'experience'
p401
I5
s.