(dp0
S'age'
p1
I28
sS'stats'
p2
(lp3
(lp4
V0020800007
p5
aVOCT 29, 2008
p6
aVMIA @ NYK
p7
aVL
p8
aI39
aI10
aI14
aF0.714
aI0
aI0
aF0.0
aI3
aI4
aF0.75
aI6
aI4
aI10
aI1
aI0
aI0
aI1
aI5
aI23
aI-5
aa(lp9
V0020800021
p10
aVOCT 31, 2008
p11
aVMIA vs. SAC
p12
aVW
p13
aI27
aI6
aI11
aF0.545
aI0
aI0
aF0.0
aI2
aI4
aF0.5
aI2
aI4
aI6
aI0
aI0
aI0
aI1
aI3
aI14
aI34
aa(lp14
V0020800027
p15
aVNOV 01, 2008
p16
aVMIA @ CHA
p17
aVL
p18
aI38
aI8
aI9
aF0.889
aI0
aI0
aF0.0
aI0
aI0
aF0.0
aI2
aI5
aI7
aI0
aI1
aI0
aI0
aI4
aI16
aI-6
aa(lp19
V0020800053
p20
aVNOV 05, 2008
p21
aVMIA vs. PHI
p22
aVW
p23
aI31
aI4
aI6
aF0.667
aI0
aI0
aF0.0
aI2
aI3
aF0.667
aI1
aI4
aI5
aI0
aI0
aI0
aI2
aI3
aI10
aI8
aa(lp24
V0020800072
p25
aVNOV 07, 2008
p26
aVMIA @ SAS
p27
aVW
p28
aI38
aI5
aI8
aF0.625
aI0
aI0
aF0.0
aI5
aI6
aF0.833
aI0
aI10
aI10
aI1
aI0
aI0
aI1
aI3
aI15
aI20
aa(lp29
V0020800081
p30
aVNOV 08, 2008
p31
aVMIA @ NOH
p32
aVL
p33
aI42
aI4
aI9
aF0.444
aI0
aI0
aF0.0
aI4
aI5
aF0.8
aI1
aI4
aI5
aI2
aI0
aI0
aI0
aI4
aI12
aI-10
aa(lp34
V0020800096
p35
aVNOV 10, 2008
p36
aVMIA vs. NJN
p37
aVW
p38
aI37
aI3
aI6
aF0.5
aI0
aI0
aF0.0
aI3
aI4
aF0.75
aI2
aI6
aI8
aI1
aI2
aI0
aI0
aI4
aI9
aI3
aa(lp39
V0020800108
p40
aVNOV 12, 2008
p41
aVMIA vs. POR
p42
aVL
p43
aI38
aI4
aI8
aF0.5
aI0
aI0
aF0.0
aI0
aI0
aF0.0
aI2
aI9
aI11
aI1
aI0
aI0
aI1
aI2
aI8
aI-10
aa(lp44
V0020800122
p45
aVNOV 14, 2008
p46
aVMIA vs. WAS
p47
aVW
p48
aI34
aI6
aI9
aF0.667
aI0
aI0
aF0.0
aI1
aI2
aF0.5
aI3
aI10
aI13
aI1
aI0
aI2
aI0
aI0
aI13
aI28
aa(lp49
V0020800140
p50
aVNOV 16, 2008
p51
aVMIA @ TOR
p52
aVL
p53
aI38
aI5
aI8
aF0.625
aI0
aI0
aF0.0
aI0
aI0
aF0.0
aI3
aI7
aI10
aI1
aI1
aI1
aI2
aI4
aI10
aI-8
aa(lp54
V0020800152
p55
aVNOV 18, 2008
p56
aVMIA @ WAS
p57
aVW
p58
aI31
aI5
aI8
aF0.625
aI0
aI0
aF0.0
aI2
aI2
aF1.0
aI2
aI9
aI11
aI2
aI0
aI1
aI1
aI4
aI12
aI5
aa(lp59
V0020800161
p60
aVNOV 19, 2008
p61
aVMIA vs. TOR
p62
aVL
p63
aI33
aI1
aI8
aF0.125
aI0
aI0
aF0.0
aI0
aI0
aF0.0
aI5
aI5
aI10
aI0
aI1
aI0
aI1
aI3
aI2
aI-13
aa(lp64
V0020800187
p65
aVNOV 22, 2008
p66
aVMIA vs. IND
p67
aVW
p68
aI36
aI7
aI13
aF0.538
aI0
aI0
aF0.0
aI2
aI2
aF1.0
aI1
aI7
aI8
aI1
aI1
aI0
aI0
aI1
aI16
aI3
aa(lp69
V0020800200
p70
aVNOV 24, 2008
p71
aVMIA vs. HOU
p72
aVL
p73
aI23
aI1
aI5
aF0.2
aI0
aI0
aF0.0
aI0
aI0
aF0.0
aI1
aI6
aI7
aI2
aI0
aI0
aI0
aI4
aI2
aI-14
aa(lp74
V0020800220
p75
aVNOV 26, 2008
p76
aVMIA @ POR
p77
aVL
p78
aI22
aI2
aI9
aF0.222
aI0
aI0
aF0.0
aI2
aI2
aF1.0
aI4
aI2
aI6
aI1
aI0
aI0
aI0
aI2
aI6
aI-24
aa(lp79
V0020800231
p80
aVNOV 28, 2008
p81
aVMIA @ PHX
p82
aVW
p83
aI35
aI8
aI12
aF0.667
aI0
aI0
aF0.0
aI0
aI0
aF0.0
aI2
aI9
aI11
aI1
aI0
aI0
aI2
aI2
aI16
aI20
aa(lp84
V0020800246
p85
aVNOV 29, 2008
p86
aVMIA @ LAC
p87
aVL
p88
aI42
aI7
aI15
aF0.467
aI0
aI0
aF0.0
aI4
aI4
aF1.0
aI3
aI3
aI6
aI1
aI0
aI3
aI1
aI5
aI18
aI-4
aa(lp89
V0020800254
p90
aVDEC 01, 2008
p91
aVMIA @ GSW
p92
aVW
p93
aI42
aI8
aI11
aF0.727
aI0
aI0
aF0.0
aI5
aI5
aF1.0
aI6
aI7
aI13
aI2
aI0
aI2
aI1
aI3
aI21
aI5
aa(lp94
V0020800273
p95
aVDEC 03, 2008
p96
aVMIA @ UTA
p97
aVW
p98
aI40
aI4
aI13
aF0.308
aI0
aI0
aF0.0
aI3
aI4
aF0.75
aI8
aI5
aI13
aI0
aI1
aI1
aI2
aI1
aI11
aI5
aa(lp99
V0020800288
p100
aVDEC 06, 2008
p101
aVMIA vs. OKC
p102
aVW
p103
aI39
aI7
aI14
aF0.5
aI0
aI0
aF0.0
aI1
aI2
aF0.5
aI1
aI13
aI14
aI4
aI1
aI0
aI2
aI2
aI15
aI21
aa(lp104
V0020800301
p105
aVDEC 08, 2008
p106
aVMIA vs. CHA
p107
aVW
p108
aI37
aI1
aI5
aF0.2
aI0
aI0
aF0.0
aI4
aI6
aF0.667
aI2
aI7
aI9
aI2
aI0
aI1
aI2
aI2
aI6
aI6
aa(lp109
V0020800327
p110
aVDEC 12, 2008
p111
aVMIA vs. ATL
p112
aVL
p113
aI34
aI4
aI9
aF0.444
aI0
aI0
aF0.0
aI0
aI0
aF0.0
aI1
aI7
aI8
aI2
aI0
aI0
aI2
aI2
aI8
aI0
aa(lp114
V0020800355
p115
aVDEC 15, 2008
p116
aVMIA vs. MIL
p117
aVL
p118
aI20
aI1
aI5
aF0.2
aI0
aI0
aF0.0
aI0
aI0
aF0.0
aI0
aI4
aI4
aI2
aI2
aI0
aI1
aI1
aI2
aI-10
aa(lp119
V0020800385
p120
aVDEC 19, 2008
p121
aVMIA vs. LAL
p122
aVW
p123
aI35
aI3
aI8
aF0.375
aI0
aI0
aF0.0
aI0
aI3
aF0.0
aI0
aI5
aI5
aI1
aI3
aI2
aI0
aI1
aI6
aI16
aa(lp124
V0020800393
p125
aVDEC 20, 2008
p126
aVMIA @ NJN
p127
aVW
p128
aI28
aI3
aI5
aF0.6
aI0
aI0
aF0.0
aI0
aI0
aF0.0
aI1
aI6
aI7
aI0
aI0
aI0
aI1
aI3
aI6
aI6
aa(lp129
V0020800414
p130
aVDEC 23, 2008
p131
aVMIA vs. GSW
p132
aVW
p133
aI37
aI8
aI11
aF0.727
aI0
aI0
aF0.0
aI0
aI2
aF0.0
aI3
aI5
aI8
aI2
aI1
aI1
aI3
aI1
aI16
aI22
aa(lp134
V0020800426
p135
aVDEC 26, 2008
p136
aVMIA vs. CHI
p137
aVW
p138
aI32
aI2
aI10
aF0.2
aI0
aI0
aF0.0
aI2
aI2
aF1.0
aI4
aI10
aI14
aI0
aI1
aI0
aI1
aI2
aI6
aI8
aa(lp139
V0020800446
p140
aVDEC 28, 2008
p141
aVMIA @ CLE
p142
aVL
p143
aI37
aI7
aI11
aF0.636
aI0
aI0
aF0.0
aI1
aI1
aF1.0
aI4
aI5
aI9
aI1
aI0
aI1
aI4
aI2
aI15
aI-7
aa(lp144
V0020800460
p145
aVDEC 30, 2008
p146
aVMIA vs. CLE
p147
aVW
p148
aI42
aI5
aI11
aF0.455
aI0
aI0
aF0.0
aI3
aI6
aF0.5
aI2
aI8
aI10
aI3
aI0
aI0
aI0
aI3
aI13
aI10
aa(lp149
V0020800473
p150
aVJAN 02, 2009
p151
aVMIA @ ORL
p152
aVL
p153
aI34
aI5
aI12
aF0.417
aI0
aI0
aF0.0
aI2
aI2
aF1.0
aI2
aI6
aI8
aI0
aI0
aI0
aI1
aI3
aI12
aI-10
aa(lp154
V0020800491
p155
aVJAN 03, 2009
p156
aVMIA vs. NJN
p157
aVW
p158
aI39
aI2
aI7
aF0.286
aI0
aI0
aF0.0
aI1
aI2
aF0.5
aI2
aI11
aI13
aI3
aI1
aI1
aI0
aI4
aI5
aI-1
aa(lp159
V0020800501
p160
aVJAN 05, 2009
p161
aVMIA vs. SAS
p162
aVL
p163
aI39
aI4
aI10
aF0.4
aI0
aI0
aF0.0
aI2
aI2
aF1.0
aI1
aI6
aI7
aI0
aI1
aI0
aI1
aI4
aI10
aI-9
aa(lp164
V0020800521
p165
aVJAN 07, 2009
p166
aVMIA @ DEN
p167
aVL
p168
aI37
aI5
aI10
aF0.5
aI0
aI0
aF0.0
aI0
aI0
aF0.0
aI3
aI3
aI6
aI1
aI1
aI0
aI0
aI3
aI10
aI-11
aa(lp169
V0020800537
p170
aVJAN 09, 2009
p171
aVMIA @ SAC
p172
aVW
p173
aI38
aI4
aI8
aF0.5
aI0
aI0
aF0.0
aI3
aI3
aF1.0
aI4
aI4
aI8
aI0
aI1
aI1
aI3
aI4
aI11
aI-9
aa(lp174
V0020800552
p175
aVJAN 11, 2009
p176
aVMIA @ LAL
p177
aVL
p178
aI34
aI3
aI7
aF0.429
aI0
aI0
aF0.0
aI2
aI4
aF0.5
aI3
aI4
aI7
aI0
aI1
aI0
aI1
aI5
aI8
aI-12
aa(lp179
V0020800561
p180
aVJAN 13, 2009
p181
aVMIA @ MIN
p182
aVW
p183
aI41
aI7
aI11
aF0.636
aI0
aI0
aF0.0
aI3
aI4
aF0.75
aI2
aI8
aI10
aI1
aI1
aI0
aI1
aI2
aI17
aI13
aa(lp184
V0020800571
p185
aVJAN 14, 2009
p186
aVMIA @ MIL
p187
aVW
p188
aI28
aI8
aI13
aF0.615
aI0
aI0
aF0.0
aI2
aI2
aF1.0
aI4
aI4
aI8
aI1
aI0
aI0
aI2
aI4
aI18
aI1
aa(lp189
V0020800595
p190
aVJAN 17, 2009
p191
aVMIA @ HOU
p192
aVL
p193
aI34
aI4
aI10
aF0.4
aI0
aI0
aF0.0
aI1
aI2
aF0.5
aI2
aI4
aI6
aI1
aI0
aI0
aI2
aI0
aI9
aI-9
aa(lp194
V0020800600
p195
aVJAN 18, 2009
p196
aVMIA @ OKC
p197
aVW
p198
aI40
aI5
aI9
aF0.556
aI0
aI0
aF0.0
aI1
aI2
aF0.5
aI4
aI11
aI15
aI3
aI0
aI0
aI2
aI4
aI11
aI11
aa(lp199
V0020800619
p200
aVJAN 21, 2009
p201
aVMIA vs. BOS
p202
aVL
p203
aI35
aI2
aI3
aF0.667
aI0
aI0
aF0.0
aI0
aI0
aF0.0
aI2
aI3
aI5
aI2
aI3
aI0
aI1
aI3
aI4
aI-21
aa(lp204
V0020800641
p205
aVJAN 24, 2009
p206
aVMIA vs. ORL
p207
aVW
p208
aI32
aI5
aI8
aF0.625
aI0
aI0
aF0.0
aI2
aI2
aF1.0
aI0
aI4
aI4
aI0
aI0
aI0
aI1
aI3
aI12
aI0
aa(lp209
V0020800656
p210
aVJAN 26, 2009
p211
aVMIA vs. ATL
p212
aVW
p213
aI43
aI2
aI6
aF0.333
aI0
aI0
aF0.0
aI4
aI4
aF1.0
aI5
aI8
aI13
aI4
aI0
aI2
aI1
aI2
aI8
aI12
aa(lp214
V0020800669
p215
aVJAN 28, 2009
p216
aVMIA vs. WAS
p217
aVW
p218
aI27
aI5
aI8
aF0.625
aI0
aI0
aF0.0
aI4
aI4
aF1.0
aI0
aI3
aI3
aI1
aI1
aI1
aI2
aI4
aI14
aI5
aa(lp219
V0020800682
p220
aVJAN 30, 2009
p221
aVMIA @ IND
p222
aVL
p223
aI9
aI1
aI4
aF0.25
aI0
aI0
aF0.0
aI0
aI0
aF0.0
aI0
aI2
aI2
aI0
aI0
aI0
aI0
aI2
aI2
aI-4
aa(lp224
V0020800694
p225
aVJAN 31, 2009
p226
aVMIA vs. DAL
p227
aVL
p228
aI30
aI3
aI5
aF0.6
aI0
aI0
aF0.0
aI4
aI8
aF0.5
aI1
aI6
aI7
aI0
aI1
aI0
aI1
aI0
aI10
aI-14
aa(lp229
V0020800708
p230
aVFEB 02, 2009
p231
aVMIA vs. LAC
p232
aVW
p233
aI29
aI6
aI11
aF0.545
aI0
aI0
aF0.0
aI1
aI1
aF1.0
aI3
aI4
aI7
aI5
aI0
aI0
aI0
aI2
aI13
aI16
aa(lp234
V0020800723
p235
aVFEB 04, 2009
p236
aVMIA @ DET
p237
aVL
p238
aI41
aI5
aI10
aF0.5
aI0
aI0
aF0.0
aI0
aI1
aF0.0
aI5
aI5
aI10
aI2
aI1
aI0
aI1
aI3
aI10
aI3
aa(lp239
V0020800744
p240
aVFEB 07, 2009
p241
aVMIA @ PHI
p242
aVL
p243
aI40
aI4
aI11
aF0.364
aI0
aI0
aF0.0
aI0
aI0
aF0.0
aI2
aI7
aI9
aI2
aI1
aI0
aI0
aI4
aI8
aI-10
aa(lp244
V0020800752
p245
aVFEB 08, 2009
p246
aVMIA vs. CHA
p247
aVW
p248
aI35
aI6
aI8
aF0.75
aI0
aI0
aF0.0
aI2
aI2
aF1.0
aI1
aI7
aI8
aI1
aI1
aI0
aI1
aI2
aI14
aI11
aa(lp249
V0020800766
p250
aVFEB 10, 2009
p251
aVMIA vs. DEN
p252
aVL
p253
aI33
aI3
aI3
aF1.0
aI0
aI0
aF0.0
aI0
aI0
aF0.0
aI1
aI3
aI4
aI1
aI1
aI0
aI2
aI2
aI6
aI-16
aa(lp254
V0020800785
p255
aVFEB 12, 2009
p256
aVMIA @ CHI
p257
aVW
p258
aI35
aI4
aI6
aF0.667
aI0
aI0
aF0.0
aI2
aI2
aF1.0
aI2
aI5
aI7
aI1
aI3
aI0
aI3
aI4
aI10
aI5
aa(lp259
V0020800800
p260
aVFEB 18, 2009
p261
aVMIA vs. MIN
p262
aVL
p263
aI39
aI7
aI12
aF0.583
aI0
aI0
aF0.0
aI3
aI4
aF0.75
aI1
aI5
aI6
aI1
aI1
aI0
aI1
aI3
aI17
aI-17
aa(lp264
V0020800822
p265
aVFEB 21, 2009
p266
aVMIA vs. PHI
p267
aVW
p268
aI33
aI5
aI7
aF0.714
aI0
aI0
aF0.0
aI3
aI5
aF0.6
aI2
aI8
aI10
aI1
aI0
aI0
aI1
aI1
aI13
aI-1
aa(lp269
V0020800832
p270
aVFEB 22, 2009
p271
aVMIA @ ORL
p272
aVL
p273
aI25
aI1
aI3
aF0.333
aI0
aI0
aF0.0
aI0
aI0
aF0.0
aI3
aI5
aI8
aI3
aI1
aI0
aI0
aI2
aI2
aI-12
aa(lp274
V0020800844
p275
aVFEB 24, 2009
p276
aVMIA vs. DET
p277
aVW
p278
aI38
aI4
aI11
aF0.364
aI0
aI0
aF0.0
aI2
aI2
aF1.0
aI1
aI10
aI11
aI2
aI0
aI0
aI1
aI3
aI10
aI10
aa(lp279
V0020800866
p280
aVFEB 27, 2009
p281
aVMIA @ ATL
p282
aVL
p283
aI33
aI5
aI10
aF0.5
aI0
aI0
aF0.0
aI0
aI0
aF0.0
aI3
aI8
aI11
aI0
aI0
aI0
aI2
aI2
aI10
aI-7
aa(lp284
V0020800877
p285
aVFEB 28, 2009
p286
aVMIA vs. NYK
p287
aVW
p288
aI38
aI3
aI6
aF0.5
aI0
aI0
aF0.0
aI2
aI2
aF1.0
aI5
aI5
aI10
aI0
aI0
aI0
aI1
aI3
aI8
aI5
aa(lp289
V0020800894
p290
aVMAR 02, 2009
p291
aVMIA vs. CLE
p292
aVL
p293
aI31
aI3
aI9
aF0.333
aI0
aI0
aF0.0
aI3
aI3
aF1.0
aI3
aI6
aI9
aI0
aI0
aI0
aI0
aI3
aI9
aI-12
aa(lp294
V0020800906
p295
aVMAR 04, 2009
p296
aVMIA vs. PHX
p297
aVW
p298
aI32
aI4
aI5
aF0.8
aI0
aI0
aF0.0
aI2
aI2
aF1.0
aI2
aI5
aI7
aI1
aI2
aI0
aI2
aI3
aI10
aI9
aa(lp299
V0020800919
p300
aVMAR 06, 2009
p301
aVMIA @ TOR
p302
aVW
p303
aI28
aI4
aI10
aF0.4
aI0
aI0
aF0.0
aI2
aI3
aF0.667
aI2
aI4
aI6
aI1
aI1
aI0
aI0
aI3
aI10
aI9
aa(lp304
V0020800928
p305
aVMAR 07, 2009
p306
aVMIA @ CLE
p307
aVL
p308
aI33
aI5
aI10
aF0.5
aI0
aI0
aF0.0
aI0
aI0
aF0.0
aI2
aI5
aI7
aI1
aI0
aI1
aI0
aI2
aI10
aI-9
aa(lp309
V0020800945
p310
aVMAR 09, 2009
p311
aVMIA vs. CHI
p312
aVW
p313
aI46
aI2
aI8
aF0.25
aI0
aI0
aF0.0
aI6
aI6
aF1.0
aI4
aI4
aI8
aI0
aI0
aI0
aI3
aI4
aI10
aI12
aa(lp314
V0020800960
p315
aVMAR 11, 2009
p316
aVMIA vs. BOS
p317
aVW
p318
aI30
aI5
aI6
aF0.833
aI0
aI0
aF0.0
aI0
aI0
aF0.0
aI1
aI5
aI6
aI0
aI0
aI0
aI0
aI3
aI10
aI14
aa(lp319
V0020800979
p320
aVMAR 14, 2009
p321
aVMIA vs. UTA
p322
aVW
p323
aI53
aI4
aI7
aF0.571
aI0
aI0
aF0.0
aI4
aI4
aF1.0
aI2
aI10
aI12
aI2
aI2
aI2
aI1
aI4
aI12
aI10
aa(lp324
V0020800989
p325
aVMAR 15, 2009
p326
aVMIA @ PHI
p327
aVL
p328
aI37
aI3
aI8
aF0.375
aI0
aI0
aF0.0
aI4
aI8
aF0.5
aI3
aI8
aI11
aI0
aI0
aI0
aI3
aI3
aI10
aI-10
aa(lp329
V0020801009
p330
aVMAR 18, 2009
p331
aVMIA @ BOS
p332
aVL
p333
aI22
aI5
aI9
aF0.556
aI0
aI0
aF0.0
aI1
aI2
aF0.5
aI1
aI3
aI4
aI0
aI0
aI0
aI0
aI1
aI11
aI-11
aa(lp334
V0020801025
p335
aVMAR 20, 2009
p336
aVMIA @ NJN
p337
aVL
p338
aI26
aI1
aI6
aF0.167
aI0
aI0
aF0.0
aI3
aI4
aF0.75
aI4
aI4
aI8
aI0
aI0
aI0
aI0
aI3
aI5
aI-10
aa(lp339
V0020801041
p340
aVMAR 22, 2009
p341
aVMIA @ DET
p342
aVW
p343
aI31
aI6
aI10
aF0.6
aI0
aI0
aF0.0
aI4
aI4
aF1.0
aI1
aI5
aI6
aI1
aI0
aI0
aI0
aI3
aI16
aI4
aa(lp344
V0020801051
p345
aVMAR 23, 2009
p346
aVMIA vs. MEM
p347
aVW
p348
aI33
aI5
aI10
aF0.5
aI0
aI0
aF0.0
aI1
aI1
aF1.0
aI3
aI4
aI7
aI2
aI0
aI0
aI2
aI2
aI11
aI17
aa(lp349
V0020801061
p350
aVMAR 25, 2009
p351
aVMIA @ IND
p352
aVL
p353
aI37
aI9
aI12
aF0.75
aI0
aI0
aF0.0
aI0
aI0
aF0.0
aI2
aI12
aI14
aI1
aI0
aI0
aI1
aI1
aI18
aI-7
aa(lp354
V0020801071
p355
aVMAR 26, 2009
p356
aVMIA @ CHI
p357
aVL
p358
aI36
aI6
aI9
aF0.667
aI0
aI0
aF0.0
aI1
aI2
aF0.5
aI2
aI4
aI6
aI2
aI0
aI1
aI5
aI4
aI13
aI-16
aa(lp359
V0020801086
p360
aVMAR 28, 2009
p361
aVMIA vs. MIL
p362
aVW
p363
aI34
aI8
aI9
aF0.889
aI0
aI0
aF0.0
aI0
aI0
aF0.0
aI0
aI12
aI12
aI2
aI2
aI0
aI0
aI3
aI16
aI11
aa(lp364
V0020801100
p365
aVMAR 30, 2009
p366
aVMIA vs. ORL
p367
aVL
p368
aI32
aI3
aI7
aF0.429
aI0
aI0
aF0.0
aI0
aI0
aF0.0
aI1
aI5
aI6
aI1
aI0
aI1
aI1
aI2
aI6
aI-3
aa(lp369
V0020801118
p370
aVAPR 01, 2009
p371
aVMIA @ DAL
p372
aVL
p373
aI36
aI3
aI6
aF0.5
aI0
aI0
aF0.0
aI0
aI0
aF0.0
aI0
aI7
aI7
aI0
aI1
aI0
aI0
aI5
aI6
aI-2
aa(lp374
V0020801125
p375
aVAPR 03, 2009
p376
aVMIA @ CHA
p377
aVW
p378
aI22
aI0
aI2
aF0.0
aI0
aI0
aF0.0
aI2
aI2
aF1.0
aI0
aI1
aI1
aI0
aI0
aI0
aI0
aI1
aI2
aI-9
aasS'name'
p379
VUdonis Haslem
p380
sS'experience'
p381
I5
s.