(dp0
S'age'
p1
I36
sS'stats'
p2
(lp3
(lp4
V0020800011
p5
aVOCT 29, 2008
p6
aVPHX @ SAS
p7
aVW
p8
aI30
aI5
aI10
aF0.5
aI0
aI0
aF0.0
aI5
aI8
aF0.625
aI2
aI11
aI13
aI1
aI0
aI2
aI1
aI5
aI15
aI14
aa(lp9
V0020800018
p10
aVOCT 30, 2008
p11
aVPHX vs. NOH
p12
aVL
p13
aI22
aI3
aI4
aF0.75
aI0
aI0
aF0.0
aI2
aI5
aF0.4
aI2
aI6
aI8
aI0
aI0
aI1
aI2
aI1
aI8
aI-10
aa(lp14
V0020800039
p15
aVNOV 01, 2008
p16
aVPHX vs. POR
p17
aVW
p18
aI30
aI6
aI8
aF0.75
aI0
aI0
aF0.0
aI4
aI5
aF0.8
aI0
aI8
aI8
aI1
aI1
aI1
aI0
aI3
aI16
aI23
aa(lp19
V0020800048
p20
aVNOV 04, 2008
p21
aVPHX @ NJN
p22
aVW
p23
aI24
aI7
aI8
aF0.875
aI0
aI0
aF0.0
aI4
aI5
aF0.8
aI1
aI5
aI6
aI0
aI1
aI2
aI5
aI3
aI18
aI3
aa(lp24
V0020800051
p25
aVNOV 05, 2008
p26
aVPHX @ IND
p27
aVW
p28
aI12
aI1
aI2
aF0.5
aI0
aI0
aF0.0
aI1
aI4
aF0.25
aI1
aI5
aI6
aI1
aI0
aI0
aI1
aI4
aI3
aI1
aa(lp29
V0020800083
p30
aVNOV 08, 2008
p31
aVPHX @ MIL
p32
aVW
p33
aI35
aI12
aI16
aF0.75
aI0
aI0
aF0.0
aI5
aI9
aF0.556
aI4
aI7
aI11
aI4
aI1
aI0
aI2
aI5
aI29
aI14
aa(lp34
V0020800097
p35
aVNOV 10, 2008
p36
aVPHX vs. MEM
p37
aVW
p38
aI22
aI3
aI8
aF0.375
aI0
aI0
aF0.0
aI3
aI5
aF0.6
aI0
aI5
aI5
aI2
aI0
aI0
aI2
aI6
aI9
aI-2
aa(lp39
V0020800116
p40
aVNOV 12, 2008
p41
aVPHX vs. HOU
p42
aVL
p43
aI32
aI7
aI12
aF0.583
aI0
aI0
aF0.0
aI4
aI4
aF1.0
aI7
aI6
aI13
aI3
aI0
aI4
aI2
aI3
aI18
aI-11
aa(lp44
V0020800130
p45
aVNOV 14, 2008
p46
aVPHX @ SAC
p47
aVW
p48
aI43
aI10
aI15
aF0.667
aI0
aI0
aF0.0
aI9
aI15
aF0.6
aI4
aI9
aI13
aI6
aI1
aI1
aI4
aI3
aI29
aI9
aa(lp49
V0020800144
p50
aVNOV 16, 2008
p51
aVPHX vs. DET
p52
aVW
p53
aI13
aI6
aI12
aF0.5
aI0
aI0
aF0.0
aI0
aI3
aF0.0
aI1
aI1
aI2
aI0
aI0
aI0
aI1
aI3
aI12
aI4
aa(lp54
V0020800147
p55
aVNOV 17, 2008
p56
aVPHX @ UTA
p57
aVL
p58
aI32
aI3
aI11
aF0.273
aI0
aI0
aF0.0
aI3
aI4
aF0.75
aI0
aI1
aI1
aI5
aI0
aI3
aI3
aI4
aI9
aI-27
aa(lp59
V0020800170
p60
aVNOV 20, 2008
p61
aVPHX vs. LAL
p62
aVL
p63
aI27
aI6
aI12
aF0.5
aI0
aI0
aF0.0
aI3
aI6
aF0.5
aI6
aI3
aI9
aI1
aI0
aI0
aI4
aI3
aI15
aI-7
aa(lp64
V0020800192
p65
aVNOV 22, 2008
p66
aVPHX vs. POR
p67
aVW
p68
aI36
aI8
aI12
aF0.667
aI0
aI0
aF0.0
aI3
aI8
aF0.375
aI7
aI10
aI17
aI1
aI0
aI2
aI4
aI3
aI19
aI12
aa(lp69
V0020800216
p70
aVNOV 26, 2008
p71
aVPHX @ MIN
p72
aVW
p73
aI33
aI7
aI13
aF0.538
aI0
aI0
aF0.0
aI4
aI9
aF0.444
aI1
aI9
aI10
aI1
aI1
aI3
aI0
aI3
aI18
aI8
aa(lp74
V0020800231
p75
aVNOV 28, 2008
p76
aVPHX vs. MIA
p77
aVL
p78
aI29
aI6
aI8
aF0.75
aI0
aI0
aF0.0
aI0
aI0
aF0.0
aI4
aI5
aI9
aI0
aI1
aI1
aI1
aI3
aI12
aI-18
aa(lp79
V0020800250
p80
aVNOV 30, 2008
p81
aVPHX vs. NJN
p82
aVL
p83
aI26
aI4
aI6
aF0.667
aI0
aI0
aF0.0
aI1
aI3
aF0.333
aI1
aI4
aI5
aI1
aI1
aI2
aI2
aI3
aI9
aI-2
aa(lp84
V0020800274
p85
aVDEC 04, 2008
p86
aVPHX @ DAL
p87
aVL
p88
aI26
aI1
aI6
aF0.167
aI0
aI0
aF0.0
aI2
aI2
aF1.0
aI1
aI4
aI5
aI2
aI1
aI1
aI0
aI2
aI4
aI-11
aa(lp89
V0020800295
p90
aVDEC 06, 2008
p91
aVPHX vs. UTA
p92
aVW
p93
aI23
aI5
aI7
aF0.714
aI0
aI0
aF0.0
aI5
aI6
aF0.833
aI2
aI8
aI10
aI1
aI0
aI0
aI0
aI5
aI15
aI9
aa(lp94
V0020800311
p95
aVDEC 09, 2008
p96
aVPHX vs. MIL
p97
aVW
p98
aI34
aI14
aI19
aF0.737
aI0
aI0
aF0.0
aI7
aI12
aF0.583
aI3
aI5
aI8
aI1
aI0
aI3
aI1
aI4
aI35
aI23
aa(lp99
V0020800357
p100
aVDEC 15, 2008
p101
aVPHX vs. NYK
p102
aVW
p103
aI35
aI6
aI12
aF0.5
aI0
aI0
aF0.0
aI11
aI18
aF0.611
aI4
aI8
aI12
aI4
aI0
aI0
aI3
aI4
aI23
aI4
aa(lp104
V0020800376
p105
aVDEC 18, 2008
p106
aVPHX @ POR
p107
aVL
p108
aI37
aI7
aI11
aF0.636
aI0
aI0
aF0.0
aI5
aI7
aF0.714
aI3
aI3
aI6
aI2
aI0
aI1
aI3
aI3
aI19
aI2
aa(lp109
V0020800398
p110
aVDEC 20, 2008
p111
aVPHX vs. DEN
p112
aVW
p113
aI33
aI7
aI14
aF0.5
aI0
aI0
aF0.0
aI5
aI8
aF0.625
aI5
aI4
aI9
aI3
aI0
aI1
aI2
aI5
aI19
aI11
aa(lp114
V0020800422
p115
aVDEC 25, 2008
p116
aVPHX vs. SAS
p117
aVL
p118
aI38
aI7
aI15
aF0.467
aI0
aI0
aF0.0
aI9
aI16
aF0.563
aI2
aI10
aI12
aI2
aI1
aI4
aI1
aI3
aI23
aI5
aa(lp119
V0020800454
p120
aVDEC 29, 2008
p121
aVPHX @ OKC
p122
aVW
p123
aI32
aI10
aI12
aF0.833
aI0
aI0
aF0.0
aI8
aI12
aF0.667
aI3
aI9
aI12
aI2
aI0
aI2
aI3
aI2
aI28
aI11
aa(lp124
V0020800461
p125
aVDEC 30, 2008
p126
aVPHX @ MEM
p127
aVW
p128
aI39
aI8
aI13
aF0.615
aI0
aI0
aF0.0
aI8
aI10
aF0.8
aI3
aI10
aI13
aI1
aI1
aI3
aI4
aI3
aI24
aI18
aa(lp129
V0020800485
p130
aVJAN 02, 2009
p131
aVPHX vs. LAC
p132
aVW
p133
aI36
aI6
aI13
aF0.462
aI0
aI0
aF0.0
aI5
aI8
aF0.625
aI1
aI8
aI9
aI1
aI1
aI2
aI2
aI4
aI17
aI4
aa(lp134
V0020800539
p135
aVJAN 09, 2009
p136
aVPHX vs. DAL
p137
aVW
p138
aI27
aI9
aI15
aF0.6
aI0
aI0
aF0.0
aI7
aI7
aF1.0
aI2
aI8
aI10
aI0
aI0
aI2
aI2
aI2
aI25
aI18
aa(lp139
V0020800548
p140
aVJAN 11, 2009
p141
aVPHX @ LAC
p142
aVW
p143
aI38
aI5
aI11
aF0.455
aI0
aI0
aF0.0
aI5
aI5
aF1.0
aI2
aI8
aI10
aI2
aI1
aI2
aI0
aI3
aI15
aI15
aa(lp144
V0020800564
p145
aVJAN 13, 2009
p146
aVPHX vs. ATL
p147
aVW
p148
aI40
aI10
aI17
aF0.588
aI0
aI0
aF0.0
aI6
aI11
aF0.545
aI2
aI8
aI10
aI2
aI0
aI3
aI1
aI3
aI26
aI3
aa(lp149
V0020800586
p150
aVJAN 16, 2009
p151
aVPHX vs. MIN
p152
aVL
p153
aI32
aI9
aI13
aF0.692
aI0
aI0
aF0.0
aI4
aI7
aF0.571
aI2
aI9
aI11
aI4
aI1
aI0
aI1
aI5
aI22
aI10
aa(lp154
V0020800599
p155
aVJAN 18, 2009
p156
aVPHX @ TOR
p157
aVW
p158
aI25
aI6
aI9
aF0.667
aI0
aI0
aF0.0
aI4
aI4
aF1.0
aI2
aI2
aI4
aI2
aI0
aI1
aI5
aI6
aI16
aI-5
aa(lp159
V0020800610
p160
aVJAN 19, 2009
p161
aVPHX @ BOS
p162
aVL
p163
aI30
aI8
aI13
aF0.615
aI0
aI0
aF0.0
aI0
aI0
aF0.0
aI1
aI10
aI11
aI2
aI0
aI2
aI3
aI2
aI16
aI-26
aa(lp164
V0020800620
p165
aVJAN 21, 2009
p166
aVPHX @ NYK
p167
aVL
p168
aI38
aI8
aI16
aF0.5
aI0
aI0
aF0.0
aI5
aI13
aF0.385
aI1
aI11
aI12
aI1
aI0
aI3
aI4
aI4
aI21
aI4
aa(lp169
V0020800630
p170
aVJAN 23, 2009
p171
aVPHX @ CHA
p172
aVL
p173
aI30
aI6
aI10
aF0.6
aI0
aI0
aF0.0
aI8
aI12
aF0.667
aI0
aI7
aI7
aI0
aI1
aI1
aI2
aI3
aI20
aI-23
aa(lp174
V0020800648
p175
aVJAN 25, 2009
p176
aVPHX @ ATL
p177
aVW
p178
aI39
aI7
aI9
aF0.778
aI0
aI0
aF0.0
aI5
aI8
aF0.625
aI0
aI11
aI11
aI1
aI1
aI1
aI4
aI5
aI19
aI20
aa(lp179
V0020800655
p180
aVJAN 26, 2009
p181
aVPHX @ WAS
p182
aVW
p183
aI37
aI10
aI14
aF0.714
aI0
aI0
aF0.0
aI9
aI10
aF0.9
aI2
aI6
aI8
aI2
aI1
aI3
aI3
aI3
aI29
aI24
aa(lp184
V0020800680
p185
aVJAN 29, 2009
p186
aVPHX vs. SAS
p187
aVL
p188
aI35
aI5
aI14
aF0.357
aI0
aI0
aF0.0
aI3
aI5
aF0.6
aI2
aI4
aI6
aI0
aI0
aI1
aI3
aI5
aI13
aI1
aa(lp189
V0020800700
p190
aVJAN 31, 2009
p191
aVPHX vs. CHI
p192
aVL
p193
aI35
aI6
aI11
aF0.545
aI0
aI0
aF0.0
aI6
aI9
aF0.667
aI2
aI6
aI8
aI2
aI0
aI2
aI3
aI6
aI18
aI-13
aa(lp194
V0020800711
p195
aVFEB 02, 2009
p196
aVPHX vs. SAC
p197
aVW
p198
aI23
aI4
aI7
aF0.571
aI0
aI0
aF0.0
aI2
aI6
aF0.333
aI4
aI5
aI9
aI3
aI0
aI2
aI3
aI1
aI10
aI15
aa(lp199
V0020800730
p200
aVFEB 04, 2009
p201
aVPHX @ GSW
p202
aVL
p203
aI28
aI8
aI9
aF0.889
aI0
aI0
aF0.0
aI1
aI2
aF0.5
aI3
aI9
aI12
aI1
aI0
aI1
aI0
aI3
aI17
aI-10
aa(lp204
V0020800742
p205
aVFEB 06, 2009
p206
aVPHX vs. GSW
p207
aVW
p208
aI26
aI4
aI11
aF0.364
aI0
aI0
aF0.0
aI4
aI8
aF0.5
aI4
aI3
aI7
aI1
aI1
aI0
aI3
aI6
aI12
aI-13
aa(lp209
V0020800758
p210
aVFEB 08, 2009
p211
aVPHX @ DET
p212
aVW
p213
aI33
aI7
aI16
aF0.438
aI0
aI0
aF0.0
aI6
aI8
aF0.75
aI5
aI5
aI10
aI0
aI0
aI1
aI2
aI3
aI20
aI2
aa(lp214
V0020800761
p215
aVFEB 09, 2009
p216
aVPHX @ PHI
p217
aVL
p218
aI21
aI3
aI7
aF0.429
aI0
aI0
aF0.0
aI1
aI4
aF0.25
aI4
aI6
aI10
aI1
aI1
aI0
aI3
aI2
aI7
aI-8
aa(lp219
V0020800774
p220
aVFEB 11, 2009
p221
aVPHX @ CLE
p222
aVL
p223
aI34
aI5
aI7
aF0.714
aI0
aI0
aF0.0
aI1
aI1
aF1.0
aI1
aI5
aI6
aI1
aI1
aI2
aI4
aI2
aI11
aI-16
aa(lp224
V0020800795
p225
aVFEB 17, 2009
p226
aVPHX vs. LAC
p227
aVW
p228
aI21
aI6
aI6
aF1.0
aI0
aI0
aF0.0
aI3
aI3
aF1.0
aI0
aI8
aI8
aI1
aI0
aI0
aI3
aI2
aI15
aI26
aa(lp229
V0020800808
p230
aVFEB 18, 2009
p231
aVPHX @ LAC
p232
aVW
p233
aI26
aI8
aI10
aF0.8
aI0
aI0
aF0.0
aI0
aI0
aF0.0
aI1
aI5
aI6
aI3
aI0
aI2
aI2
aI3
aI16
aI12
aa(lp234
V0020800819
p235
aVFEB 20, 2009
p236
aVPHX vs. OKC
p237
aVW
p238
aI31
aI9
aI14
aF0.643
aI0
aI0
aF0.0
aI4
aI7
aF0.571
aI5
aI4
aI9
aI2
aI0
aI1
aI0
aI1
aI22
aI11
aa(lp239
V0020800829
p240
aVFEB 22, 2009
p241
aVPHX vs. BOS
p242
aVL
p243
aI27
aI7
aI11
aF0.636
aI0
aI0
aF0.0
aI3
aI6
aF0.5
aI0
aI6
aI6
aI0
aI0
aI2
aI2
aI5
aI17
aI-17
aa(lp244
V0020800849
p245
aVFEB 24, 2009
p246
aVPHX vs. CHA
p247
aVW
p248
aI30
aI7
aI12
aF0.583
aI0
aI0
aF0.0
aI6
aI7
aF0.857
aI1
aI10
aI11
aI2
aI0
aI3
aI3
aI3
aI20
aI11
aa(lp249
V0020800862
p250
aVFEB 26, 2009
p251
aVPHX @ LAL
p252
aVL
p253
aI21
aI3
aI7
aF0.429
aI0
aI0
aF0.0
aI6
aI7
aF0.857
aI2
aI5
aI7
aI0
aI0
aI2
aI2
aI2
aI12
aI-13
aa(lp254
V0020800872
p255
aVFEB 27, 2009
p256
aVPHX vs. TOR
p257
aVW
p258
aI35
aI20
aI25
aF0.8
aI0
aI0
aF0.0
aI5
aI8
aF0.625
aI3
aI8
aI11
aI2
aI3
aI1
aI3
aI4
aI45
aI17
aa(lp259
V0020800884
p260
aVMAR 01, 2009
p261
aVPHX vs. LAL
p262
aVW
p263
aI35
aI13
aI18
aF0.722
aI0
aI0
aF0.0
aI7
aI12
aF0.583
aI2
aI5
aI7
aI3
aI0
aI0
aI6
aI6
aI33
aI16
aa(lp264
V0020800898
p265
aVMAR 03, 2009
p266
aVPHX @ ORL
p267
aVL
p268
aI35
aI9
aI13
aF0.692
aI0
aI0
aF0.0
aI1
aI3
aF0.333
aI6
aI5
aI11
aI0
aI3
aI2
aI4
aI4
aI19
aI5
aa(lp269
V0020800906
p270
aVMAR 04, 2009
p271
aVPHX @ MIA
p272
aVL
p273
aI30
aI8
aI13
aF0.615
aI0
aI0
aF0.0
aI6
aI9
aF0.667
aI4
aI4
aI8
aI1
aI2
aI2
aI1
aI6
aI22
aI3
aa(lp274
V0020800923
p275
aVMAR 06, 2009
p276
aVPHX @ HOU
p277
aVL
p278
aI37
aI8
aI12
aF0.667
aI0
aI0
aF0.0
aI1
aI2
aF0.5
aI3
aI2
aI5
aI2
aI1
aI2
aI3
aI4
aI17
aI-7
aa(lp279
V0020800938
p280
aVMAR 08, 2009
p281
aVPHX @ SAS
p282
aVL
p283
aI31
aI6
aI16
aF0.375
aI0
aI0
aF0.0
aI2
aI4
aF0.5
aI3
aI2
aI5
aI0
aI1
aI0
aI0
aI4
aI14
aI-11
aa(lp284
V0020800952
p285
aVMAR 10, 2009
p286
aVPHX vs. DAL
p287
aVL
p288
aI33
aI9
aI10
aF0.9
aI0
aI0
aF0.0
aI3
aI7
aF0.429
aI1
aI7
aI8
aI1
aI0
aI1
aI2
aI3
aI21
aI-13
aa(lp289
V0020800967
p290
aVMAR 12, 2009
p291
aVPHX vs. CLE
p292
aVL
p293
aI26
aI5
aI6
aF0.833
aI0
aI0
aF0.0
aI2
aI3
aF0.667
aI3
aI4
aI7
aI0
aI0
aI1
aI4
aI6
aI12
aI-14
aa(lp294
V0020800984
p295
aVMAR 14, 2009
p296
aVPHX vs. OKC
p297
aVW
p298
aI25
aI3
aI7
aF0.429
aI0
aI0
aF0.0
aI6
aI8
aF0.75
aI1
aI3
aI4
aI2
aI2
aI0
aI0
aI4
aI12
aI13
aa(lp299
V0020800994
p300
aVMAR 15, 2009
p301
aVPHX @ GSW
p302
aVW
p303
aI24
aI11
aI13
aF0.846
aI0
aI0
aF0.0
aI4
aI9
aF0.444
aI1
aI3
aI4
aI2
aI0
aI1
aI2
aI2
aI26
aI11
aa(lp304
V0020801018
p305
aVMAR 18, 2009
p306
aVPHX vs. PHI
p307
aVW
p308
aI39
aI12
aI18
aF0.667
aI0
aI0
aF0.0
aI2
aI5
aF0.4
aI6
aI5
aI11
aI3
aI0
aI3
aI2
aI1
aI26
aI11
aa(lp309
V0020801040
p310
aVMAR 21, 2009
p311
aVPHX vs. WAS
p312
aVW
p313
aI23
aI5
aI10
aF0.5
aI0
aI0
aF0.0
aI3
aI7
aF0.429
aI3
aI7
aI10
aI4
aI0
aI1
aI2
aI3
aI13
aI9
aa(lp314
V0020801053
p315
aVMAR 23, 2009
p316
aVPHX vs. DEN
p317
aVW
p318
aI24
aI6
aI8
aF0.75
aI0
aI0
aF0.0
aI7
aI8
aF0.875
aI3
aI4
aI7
aI2
aI1
aI3
aI2
aI5
aI19
aI3
aa(lp319
V0020801069
p320
aVMAR 25, 2009
p321
aVPHX vs. UTA
p322
aVW
p323
aI35
aI4
aI8
aF0.5
aI0
aI0
aF0.0
aI4
aI6
aF0.667
aI2
aI10
aI12
aI5
aI0
aI3
aI1
aI3
aI12
aI-6
aa(lp324
V0020801072
p325
aVMAR 26, 2009
p326
aVPHX @ POR
p327
aVL
p328
aI25
aI9
aI14
aF0.643
aI0
aI0
aF0.0
aI2
aI2
aF1.0
aI5
aI2
aI7
aI4
aI1
aI0
aI3
aI2
aI20
aI-9
aa(lp329
V0020801089
p330
aVMAR 28, 2009
p331
aVPHX @ UTA
p332
aVL
p333
aI33
aI6
aI13
aF0.462
aI0
aI0
aF0.0
aI4
aI5
aF0.8
aI5
aI5
aI10
aI1
aI4
aI0
aI2
aI4
aI16
aI-17
aa(lp334
V0020801099
p335
aVMAR 29, 2009
p336
aVPHX @ SAC
p337
aVL
p338
aI35
aI9
aI13
aF0.692
aI0
aI1
aF0.0
aI6
aI15
aF0.4
aI3
aI6
aI9
aI3
aI0
aI1
aI2
aI3
aI24
aI7
aa(lp339
V0020801119
p340
aVAPR 01, 2009
p341
aVPHX vs. HOU
p342
aVW
p343
aI38
aI8
aI17
aF0.471
aI0
aI0
aF0.0
aI6
aI11
aF0.545
aI3
aI7
aI10
aI1
aI3
aI2
aI3
aI1
aI22
aI1
aa(lp344
V0020801132
p345
aVAPR 03, 2009
p346
aVPHX vs. SAC
p347
aVW
p348
aI24
aI4
aI4
aF1.0
aI0
aI0
aF0.0
aI3
aI7
aF0.429
aI0
aI6
aI6
aI1
aI2
aI3
aI1
aI3
aI11
aI15
aa(lp349
V0020801143
p350
aVAPR 05, 2009
p351
aVPHX @ DAL
p352
aVL
p353
aI27
aI6
aI9
aF0.667
aI0
aI0
aF0.0
aI2
aI5
aF0.4
aI3
aI4
aI7
aI3
aI1
aI0
aI2
aI2
aI14
aI-15
aa(lp354
V0020801168
p355
aVAPR 08, 2009
p356
aVPHX @ NOH
p357
aVW
p358
aI37
aI7
aI10
aF0.7
aI0
aI0
aF0.0
aI3
aI8
aF0.375
aI1
aI10
aI11
aI4
aI0
aI2
aI4
aI1
aI17
aI0
aa(lp359
V0020801181
p360
aVAPR 10, 2009
p361
aVPHX @ MEM
p362
aVL
p363
aI18
aI4
aI9
aF0.444
aI0
aI0
aF0.0
aI1
aI4
aF0.25
aI2
aI1
aI3
aI1
aI2
aI1
aI4
aI3
aI9
aI-15
aa(lp364
V0020801191
p365
aVAPR 11, 2009
p366
aVPHX @ MIN
p367
aVW
p368
aI18
aI2
aI7
aF0.286
aI0
aI0
aF0.0
aI6
aI9
aF0.667
aI4
aI6
aI10
aI1
aI0
aI1
aI1
aI2
aI10
aI3
aa(lp369
V0020801211
p370
aVAPR 13, 2009
p371
aVPHX vs. MEM
p372
aVW
p373
aI30
aI8
aI11
aF0.727
aI0
aI0
aF0.0
aI3
aI9
aF0.333
aI1
aI2
aI3
aI1
aI4
aI1
aI2
aI3
aI19
aI14
aa(lp374
V0020801229
p375
aVAPR 15, 2009
p376
aVPHX vs. GSW
p377
aVW
p378
aI31
aI5
aI9
aF0.556
aI0
aI0
aF0.0
aI5
aI11
aF0.455
aI3
aI3
aI6
aI0
aI0
aI1
aI1
aI4
aI15
aI1
aasS'name'
p379
VShaquille O'Neal
p380
sS'experience'
p381
I16
s.