(dp0
S'age'
p1
I35
sS'stats'
p2
(lp3
(lp4
V0020801227
p5
aVAPR 15, 2009
p6
aVSAS vs. NOH
p7
aVW
p8
aI39
aI7
aI14
aF0.5
aI2
aI4
aF0.5
aI1
aI1
aF1.0
aI1
aI3
aI4
aI2
aI1
aI0
aI2
aI1
aI17
aI19
aa(lp9
V0020801213
p10
aVAPR 13, 2009
p11
aVSAS @ GSW
p12
aVW
p13
aI19
aI0
aI4
aF0.0
aI0
aI1
aF0.0
aI0
aI0
aF0.0
aI0
aI0
aI0
aI4
aI1
aI0
aI1
aI0
aI0
aI12
aa(lp14
V0020801200
p15
aVAPR 12, 2009
p16
aVSAS @ SAC
p17
aVW
p18
aI35
aI3
aI11
aF0.273
aI1
aI6
aF0.167
aI2
aI2
aF1.0
aI0
aI2
aI2
aI2
aI0
aI0
aI1
aI1
aI9
aI2
aa(lp19
V0020801185
p20
aVAPR 10, 2009
p21
aVSAS vs. UTA
p22
aVW
p23
aI27
aI1
aI3
aF0.333
aI0
aI2
aF0.0
aI4
aI4
aF1.0
aI0
aI2
aI2
aI2
aI0
aI1
aI0
aI0
aI6
aI14
aa(lp24
V0020801169
p25
aVAPR 08, 2009
p26
aVSAS vs. POR
p27
aVL
p28
aI32
aI5
aI9
aF0.556
aI1
aI4
aF0.25
aI0
aI0
aF0.0
aI0
aI2
aI2
aI0
aI1
aI0
aI0
aI0
aI11
aI-10
aa(lp29
V0020801157
p30
aVAPR 07, 2009
p31
aVSAS @ OKC
p32
aVW
p33
aI29
aI3
aI5
aF0.6
aI2
aI4
aF0.5
aI1
aI1
aF1.0
aI0
aI0
aI0
aI0
aI0
aI0
aI1
aI1
aI9
aI-3
aa(lp34
V0020801142
p35
aVAPR 05, 2009
p36
aVSAS @ CLE
p37
aVL
p38
aI26
aI2
aI5
aF0.4
aI2
aI4
aF0.5
aI2
aI2
aF1.0
aI0
aI4
aI4
aI1
aI0
aI0
aI3
aI0
aI8
aI-1
aa(lp39
V0020801126
p40
aVAPR 03, 2009
p41
aVSAS @ IND
p42
aVW
p43
aI34
aI7
aI11
aF0.636
aI2
aI5
aF0.4
aI2
aI2
aF1.0
aI1
aI2
aI3
aI2
aI0
aI1
aI1
aI1
aI18
aI-4
aa(lp44
V0020801109
p45
aVMAR 31, 2009
p46
aVSAS vs. OKC
p47
aVL
p48
aI35
aI5
aI16
aF0.313
aI4
aI10
aF0.4
aI0
aI0
aF0.0
aI2
aI3
aI5
aI4
aI0
aI0
aI1
aI0
aI14
aI9
aa(lp49
V0020801098
p50
aVMAR 29, 2009
p51
aVSAS @ NOH
p52
aVL
p53
aI34
aI5
aI12
aF0.417
aI2
aI6
aF0.333
aI0
aI0
aF0.0
aI0
aI2
aI2
aI2
aI1
aI0
aI1
aI1
aI12
aI-4
aa(lp54
V0020801081
p55
aVMAR 27, 2009
p56
aVSAS vs. LAC
p57
aVW
p58
aI20
aI4
aI8
aF0.5
aI3
aI6
aF0.5
aI0
aI0
aF0.0
aI0
aI2
aI2
aI1
aI1
aI0
aI0
aI1
aI11
aI14
aa(lp59
V0020801059
p60
aVMAR 25, 2009
p61
aVSAS @ ATL
p62
aVW
p63
aI38
aI5
aI12
aF0.417
aI3
aI5
aF0.6
aI0
aI0
aF0.0
aI1
aI5
aI6
aI1
aI2
aI0
aI0
aI0
aI13
aI13
aa(lp64
V0020801057
p65
aVMAR 24, 2009
p66
aVSAS vs. GSW
p67
aVW
p68
aI27
aI2
aI6
aF0.333
aI1
aI3
aF0.333
aI0
aI0
aF0.0
aI0
aI1
aI1
aI0
aI1
aI0
aI0
aI0
aI5
aI-2
aa(lp69
V0020801042
p70
aVMAR 22, 2009
p71
aVSAS vs. HOU
p72
aVL
p73
aI25
aI0
aI1
aF0.0
aI0
aI0
aF0.0
aI0
aI0
aF0.0
aI0
aI4
aI4
aI0
aI1
aI0
aI1
aI3
aI0
aI11
aa(lp74
V0020801031
p75
aVMAR 20, 2009
p76
aVSAS vs. BOS
p77
aVL
p78
aI29
aI2
aI9
aF0.222
aI2
aI7
aF0.286
aI1
aI3
aF0.333
aI0
aI2
aI2
aI2
aI0
aI0
aI0
aI0
aI7
aI-5
aa(lp79
V0020801005
p80
aVMAR 17, 2009
p81
aVSAS vs. MIN
p82
aVW
p83
aI32
aI3
aI9
aF0.333
aI1
aI2
aF0.5
aI2
aI2
aF1.0
aI1
aI5
aI6
aI1
aI0
aI0
aI1
aI2
aI9
aI8
aa(lp84
V0020800999
p85
aVMAR 16, 2009
p86
aVSAS @ OKC
p87
aVL
p88
aI39
aI3
aI10
aF0.3
aI1
aI4
aF0.25
aI0
aI0
aF0.0
aI2
aI2
aI4
aI2
aI1
aI0
aI0
aI2
aI7
aI4
aa(lp89
V0020800982
p90
aVMAR 14, 2009
p91
aVSAS @ HOU
p92
aVW
p93
aI37
aI6
aI14
aF0.429
aI5
aI7
aF0.714
aI0
aI0
aF0.0
aI0
aI4
aI4
aI0
aI1
aI1
aI1
aI2
aI17
aI3
aa(lp94
V0020800966
p95
aVMAR 12, 2009
p96
aVSAS vs. LAL
p97
aVL
p98
aI39
aI10
aI17
aF0.588
aI5
aI6
aF0.833
aI0
aI0
aF0.0
aI0
aI3
aI3
aI0
aI1
aI0
aI1
aI3
aI25
aI2
aa(lp99
V0020800951
p100
aVMAR 10, 2009
p101
aVSAS vs. CHA
p102
aVW
p103
aI28
aI4
aI6
aF0.667
aI2
aI4
aF0.5
aI0
aI0
aF0.0
aI0
aI2
aI2
aI2
aI0
aI0
aI1
aI1
aI10
aI-6
aa(lp104
V0020800938
p105
aVMAR 08, 2009
p106
aVSAS vs. PHX
p107
aVW
p108
aI30
aI4
aI7
aF0.571
aI2
aI3
aF0.667
aI1
aI2
aF0.5
aI0
aI3
aI3
aI2
aI0
aI0
aI2
aI1
aI11
aI-8
aa(lp109
V0020800924
p110
aVMAR 06, 2009
p111
aVSAS vs. WAS
p112
aVW
p113
aI20
aI5
aI9
aF0.556
aI2
aI5
aF0.4
aI0
aI0
aF0.0
aI0
aI3
aI3
aI3
aI1
aI0
aI0
aI0
aI12
aI13
aa(lp114
V0020800911
p115
aVMAR 04, 2009
p116
aVSAS @ DAL
p117
aVL
p118
aI37
aI2
aI8
aF0.25
aI0
aI3
aF0.0
aI1
aI2
aF0.5
aI0
aI4
aI4
aI2
aI1
aI0
aI0
aI2
aI5
aI-2
aa(lp119
V0020800896
p120
aVMAR 02, 2009
p121
aVSAS @ LAC
p122
aVW
p123
aI26
aI5
aI11
aF0.455
aI4
aI7
aF0.571
aI0
aI0
aF0.0
aI0
aI2
aI2
aI0
aI0
aI0
aI1
aI1
aI14
aI19
aa(lp124
V0020800889
p125
aVMAR 01, 2009
p126
aVSAS @ POR
p127
aVL
p128
aI15
aI0
aI1
aF0.0
aI0
aI0
aF0.0
aI0
aI0
aF0.0
aI0
aI0
aI0
aI1
aI0
aI0
aI0
aI0
aI0
aI-10
aa(lp129
V0020800873
p130
aVFEB 27, 2009
p131
aVSAS vs. CLE
p132
aVL
p133
aI27
aI5
aI9
aF0.556
aI1
aI2
aF0.5
aI0
aI0
aF0.0
aI2
aI5
aI7
aI1
aI0
aI3
aI0
aI1
aI11
aI-4
aa(lp134
V0020800857
p135
aVFEB 25, 2009
p136
aVSAS vs. POR
p137
aVW
p138
aI37
aI6
aI11
aF0.545
aI1
aI3
aF0.333
aI0
aI0
aF0.0
aI0
aI6
aI6
aI0
aI0
aI0
aI1
aI1
aI13
aI24
aa(lp139
V0020800848
p140
aVFEB 24, 2009
p141
aVSAS vs. DAL
p142
aVW
p143
aI37
aI6
aI9
aF0.667
aI4
aI4
aF1.0
aI0
aI0
aF0.0
aI0
aI5
aI5
aI0
aI1
aI0
aI0
aI1
aI16
aI14
aa(lp144
V0020800823
p145
aVFEB 21, 2009
p146
aVSAS @ WAS
p147
aVW
p148
aI30
aI7
aI13
aF0.538
aI5
aI9
aF0.556
aI0
aI0
aF0.0
aI0
aI4
aI4
aI1
aI3
aI0
aI2
aI2
aI19
aI6
aa(lp149
V0020800809
p150
aVFEB 19, 2009
p151
aVSAS @ DET
p152
aVW
p153
aI27
aI3
aI5
aF0.6
aI2
aI3
aF0.667
aI0
aI0
aF0.0
aI0
aI3
aI3
aI0
aI0
aI0
aI0
aI1
aI8
aI-2
aa(lp154
V0020800792
p155
aVFEB 17, 2009
p156
aVSAS @ NYK
p157
aVL
p158
aI33
aI4
aI13
aF0.308
aI0
aI5
aF0.0
aI1
aI1
aF1.0
aI2
aI2
aI4
aI2
aI0
aI0
aI0
aI3
aI9
aI-7
aa(lp159
V0020800777
p160
aVFEB 11, 2009
p161
aVSAS @ TOR
p162
aVL
p163
aI24
aI1
aI3
aF0.333
aI0
aI1
aF0.0
aI0
aI0
aF0.0
aI0
aI3
aI3
aI0
aI0
aI0
aI1
aI3
aI2
aI0
aa(lp164
V0020800767
p165
aVFEB 10, 2009
p166
aVSAS @ NJN
p167
aVW
p168
aI25
aI1
aI5
aF0.2
aI1
aI4
aF0.25
aI0
aI0
aF0.0
aI0
aI2
aI2
aI2
aI0
aI0
aI1
aI0
aI3
aI13
aa(lp169
V0020800750
p170
aVFEB 08, 2009
p171
aVSAS @ BOS
p172
aVW
p173
aI27
aI1
aI4
aF0.25
aI0
aI1
aF0.0
aI5
aI6
aF0.833
aI0
aI0
aI0
aI2
aI0
aI0
aI1
aI1
aI7
aI-1
aa(lp174
V0020800713
p175
aVFEB 02, 2009
p176
aVSAS @ GSW
p177
aVW
p178
aI36
aI2
aI6
aF0.333
aI1
aI3
aF0.333
aI0
aI0
aF0.0
aI1
aI4
aI5
aI1
aI0
aI0
aI0
aI0
aI5
aI14
aa(lp179
V0020800699
p180
aVJAN 31, 2009
p181
aVSAS vs. NOH
p182
aVW
p183
aI35
aI8
aI10
aF0.8
aI4
aI5
aF0.8
aI0
aI0
aF0.0
aI0
aI6
aI6
aI1
aI0
aI0
aI2
aI1
aI20
aI18
aa(lp184
V0020800680
p185
aVJAN 29, 2009
p186
aVSAS @ PHX
p187
aVW
p188
aI20
aI2
aI5
aF0.4
aI2
aI5
aF0.4
aI0
aI0
aF0.0
aI0
aI3
aI3
aI2
aI0
aI0
aI0
aI2
aI6
aI6
aa(lp189
V0020800665
p190
aVJAN 27, 2009
p191
aVSAS @ UTA
p192
aVW
p193
aI24
aI0
aI4
aF0.0
aI0
aI1
aF0.0
aI0
aI0
aF0.0
aI0
aI0
aI0
aI1
aI0
aI0
aI0
aI0
aI0
aI12
aa(lp194
V0020800647
p195
aVJAN 25, 2009
p196
aVSAS @ LAL
p197
aVL
p198
aI24
aI3
aI8
aF0.375
aI2
aI2
aF1.0
aI0
aI0
aF0.0
aI0
aI2
aI2
aI2
aI0
aI0
aI0
aI2
aI8
aI-10
aa(lp199
V0020800637
p200
aVJAN 23, 2009
p201
aVSAS vs. NJN
p202
aVW
p203
aI28
aI4
aI7
aF0.571
aI1
aI1
aF1.0
aI2
aI2
aF1.0
aI0
aI3
aI3
aI3
aI0
aI0
aI1
aI0
aI11
aI10
aa(lp204
V0020800614
p205
aVJAN 20, 2009
p206
aVSAS vs. IND
p207
aVW
p208
aI19
aI1
aI3
aF0.333
aI1
aI3
aF0.333
aI0
aI0
aF0.0
aI0
aI4
aI4
aI0
aI1
aI0
aI0
aI1
aI3
aI15
aa(lp209
V0020800604
p210
aVJAN 19, 2009
p211
aVSAS @ CHA
p212
aVW
p213
aI25
aI1
aI9
aF0.111
aI0
aI7
aF0.0
aI1
aI1
aF1.0
aI1
aI4
aI5
aI2
aI0
aI0
aI0
aI1
aI3
aI2
aa(lp214
V0020800594
p215
aVJAN 17, 2009
p216
aVSAS @ CHI
p217
aVW
p218
aI34
aI4
aI9
aF0.444
aI3
aI7
aF0.429
aI0
aI0
aF0.0
aI0
aI4
aI4
aI0
aI1
aI1
aI1
aI2
aI11
aI0
aa(lp219
V0020800581
p220
aVJAN 16, 2009
p221
aVSAS @ PHI
p222
aVL
p223
aI22
aI1
aI9
aF0.111
aI0
aI4
aF0.0
aI0
aI0
aF0.0
aI0
aI2
aI2
aI1
aI0
aI0
aI0
aI0
aI2
aI-26
aa(lp224
V0020800574
p225
aVJAN 14, 2009
p226
aVSAS vs. LAL
p227
aVW
p228
aI23
aI1
aI4
aF0.25
aI0
aI1
aF0.0
aI1
aI1
aF1.0
aI0
aI3
aI3
aI1
aI0
aI0
aI0
aI0
aI3
aI3
aa(lp229
V0020800549
p230
aVJAN 11, 2009
p231
aVSAS vs. ORL
p232
aVL
p233
aI31
aI4
aI9
aF0.444
aI0
aI3
aF0.0
aI2
aI2
aF1.0
aI0
aI3
aI3
aI3
aI1
aI0
aI1
aI1
aI10
aI3
aa(lp234
V0020800527
p235
aVJAN 08, 2009
p236
aVSAS vs. LAC
p237
aVW
p238
aI25
aI6
aI11
aF0.545
aI3
aI5
aF0.6
aI0
aI0
aF0.0
aI0
aI4
aI4
aI0
aI0
aI0
aI0
aI1
aI15
aI2
aa(lp239
V0020800501
p240
aVJAN 05, 2009
p241
aVSAS @ MIA
p242
aVW
p243
aI19
aI2
aI6
aF0.333
aI1
aI3
aF0.333
aI2
aI2
aF1.0
aI1
aI2
aI3
aI1
aI1
aI0
aI1
aI0
aI7
aI9
aa(lp244
V0020800493
p245
aVJAN 03, 2009
p246
aVSAS vs. PHI
p247
aVW
p248
aI35
aI5
aI9
aF0.556
aI4
aI6
aF0.667
aI0
aI0
aF0.0
aI0
aI2
aI2
aI1
aI0
aI1
aI1
aI1
aI14
aI-4
aa(lp249
V0020800480
p250
aVJAN 02, 2009
p251
aVSAS @ MEM
p252
aVW
p253
aI27
aI2
aI7
aF0.286
aI1
aI4
aF0.25
aI0
aI0
aF0.0
aI0
aI5
aI5
aI0
aI1
aI0
aI2
aI1
aI5
aI9
aa(lp254
V0020800464
p255
aVDEC 30, 2008
p256
aVSAS vs. MIL
p257
aVL
p258
aI34
aI8
aI10
aF0.8
aI4
aI5
aF0.8
aI0
aI0
aF0.0
aI0
aI5
aI5
aI1
aI0
aI1
aI0
aI1
aI20
aI-14
aa(lp259
V0020800442
p260
aVDEC 27, 2008
p261
aVSAS vs. MEM
p262
aVW
p263
aI40
aI4
aI9
aF0.444
aI2
aI4
aF0.5
aI0
aI0
aF0.0
aI1
aI5
aI6
aI5
aI1
aI1
aI0
aI0
aI10
aI-4
aa(lp264
V0020800422
p265
aVDEC 25, 2008
p266
aVSAS @ PHX
p267
aVW
p268
aI36
aI5
aI10
aF0.5
aI2
aI3
aF0.667
aI0
aI0
aF0.0
aI0
aI4
aI4
aI0
aI0
aI0
aI1
aI2
aI12
aI-6
aa(lp269
V0020800419
p270
aVDEC 23, 2008
p271
aVSAS vs. MIN
p272
aVW
p273
aI30
aI4
aI9
aF0.444
aI1
aI2
aF0.5
aI4
aI5
aF0.8
aI0
aI6
aI6
aI0
aI0
aI0
aI0
aI0
aI13
aI13
aa(lp274
V0020800406
p275
aVDEC 22, 2008
p276
aVSAS vs. SAC
p277
aVW
p278
aI19
aI4
aI5
aF0.8
aI1
aI2
aF0.5
aI0
aI0
aF0.0
aI0
aI5
aI5
aI1
aI0
aI0
aI0
aI0
aI9
aI6
aa(lp279
V0020800397
p280
aVDEC 20, 2008
p281
aVSAS vs. TOR
p282
aVW
p283
aI33
aI5
aI10
aF0.5
aI4
aI8
aF0.5
aI0
aI0
aF0.0
aI0
aI3
aI3
aI2
aI0
aI0
aI0
aI1
aI14
aI9
aa(lp284
V0020800375
p285
aVDEC 18, 2008
p286
aVSAS @ ORL
p287
aVL
p288
aI15
aI1
aI6
aF0.167
aI0
aI3
aF0.0
aI0
aI0
aF0.0
aI0
aI3
aI3
aI0
aI2
aI1
aI1
aI0
aI2
aI-13
aa(lp289
V0020800374
p290
aVDEC 17, 2008
p291
aVSAS @ NOH
p292
aVL
p293
aI27
aI2
aI9
aF0.222
aI1
aI5
aF0.2
aI0
aI0
aF0.0
aI0
aI1
aI1
aI0
aI2
aI0
aI0
aI0
aI5
aI-9
aa(lp294
V0020800349
p295
aVDEC 14, 2008
p296
aVSAS vs. OKC
p297
aVW
p298
aI31
aI3
aI8
aF0.375
aI1
aI4
aF0.25
aI0
aI0
aF0.0
aI2
aI2
aI4
aI4
aI0
aI0
aI0
aI1
aI7
aI-4
aa(lp299
V0020800332
p300
aVDEC 12, 2008
p301
aVSAS @ MIN
p302
aVW
p303
aI28
aI5
aI9
aF0.556
aI2
aI4
aF0.5
aI0
aI0
aF0.0
aI0
aI7
aI7
aI1
aI1
aI0
aI1
aI0
aI12
aI8
aa(lp304
V0020800319
p305
aVDEC 10, 2008
p306
aVSAS vs. ATL
p307
aVW
p308
aI32
aI6
aI11
aF0.545
aI1
aI4
aF0.25
aI2
aI2
aF1.0
aI0
aI2
aI2
aI2
aI0
aI2
aI1
aI1
aI15
aI6
aa(lp309
V0020800309
p310
aVDEC 09, 2008
p311
aVSAS @ DAL
p312
aVW
p313
aI37
aI5
aI15
aF0.333
aI3
aI7
aF0.429
aI0
aI0
aF0.0
aI1
aI4
aI5
aI3
aI0
aI1
aI3
aI2
aI13
aI8
aa(lp314
V0020800294
p315
aVDEC 06, 2008
p316
aVSAS vs. GSW
p317
aVW
p318
aI21
aI7
aI10
aF0.7
aI3
aI4
aF0.75
aI0
aI0
aF0.0
aI0
aI3
aI3
aI1
aI1
aI0
aI0
aI1
aI17
aI34
aa(lp319
V0020800275
p320
aVDEC 04, 2008
p321
aVSAS @ DEN
p322
aVW
p323
aI14
aI2
aI2
aF1.0
aI0
aI0
aF0.0
aI0
aI0
aF0.0
aI0
aI3
aI3
aI1
aI0
aI0
aI1
aI5
aI4
aI6
aa(lp324
V0020800260
p325
aVDEC 02, 2008
p326
aVSAS vs. DET
p327
aVL
p328
aI34
aI2
aI8
aF0.25
aI1
aI6
aF0.167
aI0
aI0
aF0.0
aI0
aI3
aI3
aI2
aI0
aI0
aI0
aI0
aI5
aI-9
aa(lp329
V0020800242
p330
aVNOV 29, 2008
p331
aVSAS @ HOU
p332
aVL
p333
aI22
aI2
aI5
aF0.4
aI1
aI3
aF0.333
aI0
aI0
aF0.0
aI0
aI2
aI2
aI0
aI0
aI0
aI0
aI2
aI5
aI-20
aa(lp334
V0020800232
p335
aVNOV 28, 2008
p336
aVSAS vs. MEM
p337
aVW
p338
aI28
aI5
aI9
aF0.556
aI2
aI4
aF0.5
aI0
aI0
aF0.0
aI1
aI3
aI4
aI2
aI0
aI0
aI1
aI0
aI12
aI-2
aa(lp339
V0020800218
p340
aVNOV 26, 2008
p341
aVSAS vs. CHI
p342
aVW
p343
aI26
aI2
aI9
aF0.222
aI0
aI5
aF0.0
aI2
aI2
aF1.0
aI0
aI3
aI3
aI1
aI0
aI0
aI2
aI0
aI6
aI-7
aa(lp344
V0020800201
p345
aVNOV 24, 2008
p346
aVSAS @ MEM
p347
aVW
p348
aI32
aI3
aI8
aF0.375
aI0
aI3
aF0.0
aI1
aI2
aF0.5
aI1
aI4
aI5
aI3
aI0
aI0
aI1
aI2
aI7
aI12
aa(lp349
V0020800179
p350
aVNOV 21, 2008
p351
aVSAS vs. UTA
p352
aVW
p353
aI27
aI6
aI10
aF0.6
aI1
aI2
aF0.5
aI1
aI2
aF0.5
aI1
aI2
aI3
aI1
aI0
aI0
aI0
aI2
aI14
aI11
aa(lp354
V0020800166
p355
aVNOV 19, 2008
p356
aVSAS vs. DEN
p357
aVL
p358
aI29
aI5
aI11
aF0.455
aI0
aI3
aF0.0
aI3
aI4
aF0.75
aI0
aI2
aI2
aI1
aI2
aI0
aI2
aI0
aI13
aI-12
aa(lp359
V0020800148
p360
aVNOV 17, 2008
p361
aVSAS @ LAC
p362
aVW
p363
aI31
aI7
aI15
aF0.467
aI3
aI5
aF0.6
aI2
aI2
aF1.0
aI0
aI1
aI1
aI2
aI2
aI0
aI2
aI1
aI19
aI-6
aa(lp364
V0020800145
p365
aVNOV 16, 2008
p366
aVSAS @ SAC
p367
aVW
p368
aI35
aI8
aI17
aF0.471
aI3
aI5
aF0.6
aI2
aI2
aF1.0
aI0
aI3
aI3
aI1
aI1
aI1
aI1
aI1
aI21
aI-6
aa(lp369
V0020800129
p370
aVNOV 14, 2008
p371
aVSAS vs. HOU
p372
aVW
p373
aI30
aI2
aI6
aF0.333
aI1
aI2
aF0.5
aI0
aI0
aF0.0
aI1
aI1
aI2
aI2
aI0
aI0
aI2
aI0
aI5
aI6
aa(lp374
V0020800111
p375
aVNOV 12, 2008
p376
aVSAS @ MIL
p377
aVL
p378
aI30
aI8
aI12
aF0.667
aI3
aI6
aF0.5
aI0
aI0
aF0.0
aI0
aI4
aI4
aI3
aI0
aI0
aI0
aI2
aI19
aI1
aa(lp379
V0020800103
p380
aVNOV 11, 2008
p381
aVSAS vs. NYK
p382
aVW
p383
aI20
aI6
aI9
aF0.667
aI2
aI2
aF1.0
aI0
aI0
aF0.0
aI0
aI6
aI6
aI0
aI0
aI1
aI3
aI0
aI14
aI5
aa(lp384
V0020800072
p385
aVNOV 07, 2008
p386
aVSAS vs. MIA
p387
aVL
p388
aI24
aI0
aI8
aF0.0
aI0
aI3
aF0.0
aI0
aI0
aF0.0
aI1
aI3
aI4
aI3
aI0
aI1
aI0
aI1
aI0
aI-24
aa(lp389
V0020800057
p390
aVNOV 05, 2008
p391
aVSAS @ MIN
p392
aVW
p393
aI33
aI1
aI9
aF0.111
aI1
aI5
aF0.2
aI0
aI0
aF0.0
aI0
aI5
aI5
aI1
aI2
aI0
aI2
aI3
aI3
aI12
aa(lp394
V0020800050
p395
aVNOV 04, 2008
p396
aVSAS vs. DAL
p397
aVL
p398
aI27
aI1
aI6
aF0.167
aI1
aI3
aF0.333
aI0
aI2
aF0.0
aI1
aI4
aI5
aI1
aI0
aI0
aI0
aI1
aI3
aI-17
aa(lp399
V0020800025
p400
aVOCT 31, 2008
p401
aVSAS @ POR
p402
aVL
p403
aI34
aI5
aI11
aF0.455
aI3
aI5
aF0.6
aI3
aI3
aF1.0
aI1
aI1
aI2
aI4
aI0
aI0
aI2
aI0
aI16
aI10
aa(lp404
V0020800011
p405
aVOCT 29, 2008
p406
aVSAS vs. PHX
p407
aVL
p408
aI31
aI4
aI7
aF0.571
aI0
aI2
aF0.0
aI0
aI0
aF0.0
aI0
aI1
aI1
aI3
aI0
aI0
aI1
aI4
aI8
aI-18
aasS'name'
p409
VMichael Finley
p410
sS'experience'
p411
I13
s.