(dp0
S'age'
p1
I34
sS'stats'
p2
(lp3
(lp4
V0020800011
p5
aVOCT 29, 2008
p6
aVPHX @ SAS
p7
aVW
p8
aI34
aI5
aI11
aF0.455
aI2
aI4
aF0.5
aI1
aI2
aF0.5
aI0
aI2
aI2
aI13
aI0
aI1
aI3
aI0
aI13
aI17
aa(lp9
V0020800018
p10
aVOCT 30, 2008
p11
aVPHX vs. NOH
p12
aVL
p13
aI36
aI9
aI16
aF0.563
aI2
aI4
aF0.5
aI4
aI5
aF0.8
aI0
aI4
aI4
aI9
aI0
aI0
aI7
aI2
aI24
aI-15
aa(lp14
V0020800039
p15
aVNOV 01, 2008
p16
aVPHX vs. POR
p17
aVW
p18
aI31
aI6
aI10
aF0.6
aI2
aI2
aF1.0
aI6
aI6
aF1.0
aI0
aI3
aI3
aI7
aI1
aI0
aI1
aI0
aI20
aI23
aa(lp19
V0020800048
p20
aVNOV 04, 2008
p21
aVPHX @ NJN
p22
aVW
p23
aI26
aI5
aI7
aF0.714
aI2
aI3
aF0.667
aI0
aI0
aF0.0
aI0
aI2
aI2
aI11
aI1
aI0
aI4
aI2
aI12
aI4
aa(lp24
V0020800051
p25
aVNOV 05, 2008
p26
aVPHX @ IND
p27
aVW
p28
aI33
aI2
aI5
aF0.4
aI1
aI1
aF1.0
aI2
aI3
aF0.667
aI0
aI3
aI3
aI6
aI1
aI0
aI3
aI1
aI7
aI4
aa(lp29
V0020800073
p30
aVNOV 07, 2008
p31
aVPHX @ CHI
p32
aVL
p33
aI24
aI2
aI7
aF0.286
aI0
aI2
aF0.0
aI2
aI2
aF1.0
aI0
aI0
aI0
aI5
aI0
aI0
aI3
aI0
aI6
aI-10
aa(lp34
V0020800083
p35
aVNOV 08, 2008
p36
aVPHX @ MIL
p37
aVW
p38
aI35
aI3
aI9
aF0.333
aI2
aI4
aF0.5
aI8
aI9
aF0.889
aI1
aI4
aI5
aI7
aI1
aI0
aI1
aI1
aI16
aI17
aa(lp39
V0020800097
p40
aVNOV 10, 2008
p41
aVPHX vs. MEM
p42
aVW
p43
aI35
aI3
aI11
aF0.273
aI1
aI3
aF0.333
aI5
aI5
aF1.0
aI0
aI2
aI2
aI6
aI0
aI0
aI6
aI0
aI12
aI13
aa(lp44
V0020800116
p45
aVNOV 12, 2008
p46
aVPHX vs. HOU
p47
aVL
p48
aI33
aI4
aI10
aF0.4
aI1
aI4
aF0.25
aI1
aI1
aF1.0
aI0
aI4
aI4
aI3
aI0
aI0
aI2
aI0
aI10
aI-15
aa(lp49
V0020800144
p50
aVNOV 16, 2008
p51
aVPHX vs. DET
p52
aVW
p53
aI37
aI6
aI10
aF0.6
aI2
aI5
aF0.4
aI3
aI3
aF1.0
aI0
aI3
aI3
aI7
aI0
aI2
aI4
aI1
aI17
aI8
aa(lp54
V0020800147
p55
aVNOV 17, 2008
p56
aVPHX @ UTA
p57
aVL
p58
aI32
aI6
aI10
aF0.6
aI2
aI5
aF0.4
aI0
aI0
aF0.0
aI0
aI3
aI3
aI8
aI0
aI0
aI2
aI5
aI14
aI-2
aa(lp59
V0020800170
p60
aVNOV 20, 2008
p61
aVPHX vs. LAL
p62
aVL
p63
aI35
aI3
aI9
aF0.333
aI0
aI4
aF0.0
aI2
aI2
aF1.0
aI0
aI1
aI1
aI10
aI0
aI0
aI2
aI0
aI8
aI-10
aa(lp64
V0020800192
p65
aVNOV 22, 2008
p66
aVPHX vs. POR
p67
aVW
p68
aI40
aI6
aI7
aF0.857
aI2
aI2
aF1.0
aI2
aI2
aF1.0
aI0
aI3
aI3
aI7
aI0
aI0
aI8
aI0
aI16
aI9
aa(lp69
V0020800207
p70
aVNOV 25, 2008
p71
aVPHX @ OKC
p72
aVW
p73
aI43
aI8
aI14
aF0.571
aI2
aI5
aF0.4
aI2
aI2
aF1.0
aI1
aI7
aI8
aI15
aI0
aI0
aI7
aI0
aI20
aI3
aa(lp74
V0020800216
p75
aVNOV 26, 2008
p76
aVPHX @ MIN
p77
aVW
p78
aI28
aI6
aI10
aF0.6
aI0
aI2
aF0.0
aI8
aI8
aF1.0
aI0
aI3
aI3
aI6
aI2
aI0
aI4
aI1
aI20
aI9
aa(lp79
V0020800250
p80
aVNOV 30, 2008
p81
aVPHX vs. NJN
p82
aVL
p83
aI38
aI11
aI20
aF0.55
aI3
aI5
aF0.6
aI1
aI1
aF1.0
aI0
aI1
aI1
aI9
aI2
aI0
aI3
aI1
aI26
aI-3
aa(lp84
V0020800274
p85
aVDEC 04, 2008
p86
aVPHX @ DAL
p87
aVL
p88
aI30
aI7
aI11
aF0.636
aI3
aI5
aF0.6
aI3
aI4
aF0.75
aI0
aI1
aI1
aI10
aI1
aI0
aI1
aI1
aI20
aI-3
aa(lp89
V0020800295
p90
aVDEC 06, 2008
p91
aVPHX vs. UTA
p92
aVW
p93
aI38
aI4
aI14
aF0.286
aI0
aI6
aF0.0
aI4
aI4
aF1.0
aI0
aI5
aI5
aI9
aI1
aI0
aI4
aI0
aI12
aI6
aa(lp94
V0020800311
p95
aVDEC 09, 2008
p96
aVPHX vs. MIL
p97
aVW
p98
aI31
aI6
aI8
aF0.75
aI1
aI1
aF1.0
aI6
aI6
aF1.0
aI1
aI3
aI4
aI10
aI1
aI0
aI5
aI2
aI19
aI17
aa(lp99
V0020800322
p100
aVDEC 10, 2008
p101
aVPHX @ LAL
p102
aVL
p103
aI35
aI2
aI12
aF0.167
aI2
aI9
aF0.222
aI1
aI1
aF1.0
aI0
aI1
aI1
aI9
aI0
aI0
aI4
aI2
aI7
aI-1
aa(lp104
V0020800333
p105
aVDEC 12, 2008
p106
aVPHX vs. ORL
p107
aVW
p108
aI36
aI8
aI18
aF0.444
aI4
aI5
aF0.8
aI1
aI1
aF1.0
aI1
aI4
aI5
aI10
aI1
aI0
aI4
aI1
aI21
aI15
aa(lp109
V0020800357
p110
aVDEC 15, 2008
p111
aVPHX vs. NYK
p112
aVW
p113
aI39
aI8
aI18
aF0.444
aI2
aI5
aF0.4
aI3
aI3
aF1.0
aI0
aI6
aI6
aI6
aI2
aI0
aI3
aI1
aI21
aI21
aa(lp114
V0020800376
p115
aVDEC 18, 2008
p116
aVPHX @ POR
p117
aVL
p118
aI36
aI5
aI14
aF0.357
aI1
aI3
aF0.333
aI4
aI4
aF1.0
aI0
aI1
aI1
aI11
aI1
aI0
aI6
aI3
aI15
aI-19
aa(lp119
V0020800398
p120
aVDEC 20, 2008
p121
aVPHX vs. DEN
p122
aVW
p123
aI37
aI5
aI11
aF0.455
aI2
aI4
aF0.5
aI4
aI4
aF1.0
aI0
aI2
aI2
aI11
aI2
aI0
aI3
aI1
aI16
aI22
aa(lp124
V0020800422
p125
aVDEC 25, 2008
p126
aVPHX vs. SAS
p127
aVL
p128
aI38
aI5
aI8
aF0.625
aI1
aI1
aF1.0
aI2
aI2
aF1.0
aI0
aI4
aI4
aI8
aI1
aI0
aI6
aI2
aI13
aI3
aa(lp129
V0020800454
p130
aVDEC 29, 2008
p131
aVPHX @ OKC
p132
aVW
p133
aI9
aI0
aI0
aF0.0
aI0
aI0
aF0.0
aI0
aI0
aF0.0
aI0
aI0
aI0
aI2
aI0
aI0
aI1
aI0
aI0
aI-4
aa(lp134
V0020800485
p135
aVJAN 02, 2009
p136
aVPHX vs. LAC
p137
aVW
p138
aI32
aI3
aI7
aF0.429
aI1
aI2
aF0.5
aI2
aI2
aF1.0
aI0
aI1
aI1
aI11
aI1
aI0
aI3
aI1
aI9
aI20
aa(lp139
V0020800522
p140
aVJAN 07, 2009
p141
aVPHX vs. IND
p142
aVL
p143
aI43
aI4
aI9
aF0.444
aI3
aI4
aF0.75
aI5
aI5
aF1.0
aI0
aI4
aI4
aI12
aI0
aI0
aI4
aI1
aI16
aI1
aa(lp144
V0020800539
p145
aVJAN 09, 2009
p146
aVPHX vs. DAL
p147
aVW
p148
aI30
aI4
aI9
aF0.444
aI0
aI2
aF0.0
aI1
aI1
aF1.0
aI0
aI3
aI3
aI12
aI2
aI0
aI0
aI1
aI9
aI22
aa(lp149
V0020800548
p150
aVJAN 11, 2009
p151
aVPHX @ LAC
p152
aVW
p153
aI37
aI5
aI8
aF0.625
aI2
aI5
aF0.4
aI2
aI2
aF1.0
aI1
aI4
aI5
aI12
aI1
aI1
aI4
aI1
aI14
aI22
aa(lp154
V0020800564
p155
aVJAN 13, 2009
p156
aVPHX vs. ATL
p157
aVW
p158
aI36
aI7
aI13
aF0.538
aI4
aI7
aF0.571
aI5
aI5
aF1.0
aI1
aI4
aI5
aI6
aI1
aI1
aI2
aI3
aI23
aI5
aa(lp159
V0020800579
p160
aVJAN 15, 2009
p161
aVPHX @ DEN
p162
aVL
p163
aI46
aI5
aI10
aF0.5
aI4
aI5
aF0.8
aI6
aI6
aF1.0
aI1
aI6
aI7
aI14
aI0
aI1
aI6
aI2
aI20
aI-9
aa(lp164
V0020800586
p165
aVJAN 16, 2009
p166
aVPHX vs. MIN
p167
aVL
p168
aI34
aI3
aI8
aF0.375
aI0
aI3
aF0.0
aI0
aI0
aF0.0
aI0
aI4
aI4
aI6
aI0
aI0
aI3
aI1
aI6
aI0
aa(lp169
V0020800599
p170
aVJAN 18, 2009
p171
aVPHX @ TOR
p172
aVW
p173
aI36
aI2
aI6
aF0.333
aI0
aI3
aF0.0
aI5
aI5
aF1.0
aI1
aI5
aI6
aI18
aI1
aI0
aI2
aI1
aI9
aI2
aa(lp174
V0020800610
p175
aVJAN 19, 2009
p176
aVPHX @ BOS
p177
aVL
p178
aI32
aI5
aI7
aF0.714
aI2
aI2
aF1.0
aI0
aI0
aF0.0
aI0
aI4
aI4
aI8
aI0
aI0
aI5
aI3
aI12
aI-23
aa(lp179
V0020800620
p180
aVJAN 21, 2009
p181
aVPHX @ NYK
p182
aVL
p183
aI39
aI3
aI9
aF0.333
aI2
aI5
aF0.4
aI1
aI1
aF1.0
aI0
aI6
aI6
aI19
aI0
aI0
aI4
aI5
aI9
aI4
aa(lp184
V0020800630
p185
aVJAN 23, 2009
p186
aVPHX @ CHA
p187
aVL
p188
aI21
aI2
aI6
aF0.333
aI0
aI2
aF0.0
aI0
aI1
aF0.0
aI0
aI0
aI0
aI5
aI1
aI0
aI6
aI2
aI4
aI-27
aa(lp189
V0020800648
p190
aVJAN 25, 2009
p191
aVPHX @ ATL
p192
aVW
p193
aI33
aI4
aI7
aF0.571
aI1
aI1
aF1.0
aI5
aI5
aF1.0
aI0
aI3
aI3
aI13
aI1
aI0
aI6
aI3
aI14
aI14
aa(lp194
V0020800655
p195
aVJAN 26, 2009
p196
aVPHX @ WAS
p197
aVW
p198
aI36
aI6
aI13
aF0.462
aI2
aI4
aF0.5
aI0
aI0
aF0.0
aI0
aI5
aI5
aI15
aI0
aI1
aI4
aI1
aI14
aI8
aa(lp199
V0020800680
p200
aVJAN 29, 2009
p201
aVPHX vs. SAS
p202
aVL
p203
aI43
aI5
aI12
aF0.417
aI1
aI1
aF1.0
aI5
aI5
aF1.0
aI0
aI2
aI2
aI18
aI0
aI1
aI3
aI4
aI16
aI-11
aa(lp204
V0020800700
p205
aVJAN 31, 2009
p206
aVPHX vs. CHI
p207
aVL
p208
aI38
aI7
aI14
aF0.5
aI0
aI3
aF0.0
aI1
aI2
aF0.5
aI0
aI2
aI2
aI10
aI0
aI0
aI7
aI4
aI15
aI-2
aa(lp209
V0020800711
p210
aVFEB 02, 2009
p211
aVPHX vs. SAC
p212
aVW
p213
aI21
aI3
aI6
aF0.5
aI1
aI2
aF0.5
aI2
aI2
aF1.0
aI0
aI3
aI3
aI9
aI1
aI0
aI3
aI2
aI9
aI26
aa(lp214
V0020800730
p215
aVFEB 04, 2009
p216
aVPHX @ GSW
p217
aVL
p218
aI31
aI6
aI16
aF0.375
aI0
aI4
aF0.0
aI4
aI4
aF1.0
aI0
aI3
aI3
aI9
aI0
aI0
aI5
aI1
aI16
aI-14
aa(lp219
V0020800742
p220
aVFEB 06, 2009
p221
aVPHX vs. GSW
p222
aVW
p223
aI41
aI9
aI19
aF0.474
aI0
aI1
aF0.0
aI1
aI1
aF1.0
aI0
aI5
aI5
aI8
aI4
aI0
aI5
aI1
aI19
aI10
aa(lp224
V0020800758
p225
aVFEB 08, 2009
p226
aVPHX @ DET
p227
aVW
p228
aI34
aI5
aI12
aF0.417
aI1
aI2
aF0.5
aI4
aI5
aF0.8
aI2
aI1
aI3
aI21
aI1
aI0
aI2
aI2
aI15
aI9
aa(lp229
V0020800761
p230
aVFEB 09, 2009
p231
aVPHX @ PHI
p232
aVL
p233
aI22
aI1
aI8
aF0.125
aI0
aI1
aF0.0
aI0
aI0
aF0.0
aI0
aI2
aI2
aI8
aI0
aI0
aI3
aI0
aI2
aI-11
aa(lp234
V0020800795
p235
aVFEB 17, 2009
p236
aVPHX vs. LAC
p237
aVW
p238
aI25
aI2
aI4
aF0.5
aI0
aI2
aF0.0
aI4
aI4
aF1.0
aI0
aI1
aI1
aI10
aI1
aI0
aI1
aI0
aI8
aI39
aa(lp239
V0020800808
p240
aVFEB 18, 2009
p241
aVPHX @ LAC
p242
aVW
p243
aI27
aI6
aI11
aF0.545
aI3
aI5
aF0.6
aI6
aI6
aF1.0
aI0
aI3
aI3
aI12
aI0
aI0
aI3
aI1
aI21
aI14
aa(lp244
V0020800819
p245
aVFEB 20, 2009
p246
aVPHX vs. OKC
p247
aVW
p248
aI35
aI5
aI9
aF0.556
aI1
aI4
aF0.25
aI2
aI2
aF1.0
aI0
aI3
aI3
aI8
aI1
aI0
aI0
aI2
aI13
aI19
aa(lp249
V0020800829
p250
aVFEB 22, 2009
p251
aVPHX vs. BOS
p252
aVL
p253
aI34
aI8
aI20
aF0.4
aI2
aI5
aF0.4
aI1
aI1
aF1.0
aI0
aI0
aI0
aI11
aI1
aI0
aI2
aI4
aI19
aI-13
aa(lp254
V0020800849
p255
aVFEB 24, 2009
p256
aVPHX vs. CHA
p257
aVW
p258
aI26
aI8
aI10
aF0.8
aI4
aI4
aF1.0
aI2
aI2
aF1.0
aI0
aI2
aI2
aI5
aI0
aI0
aI6
aI3
aI22
aI4
aa(lp259
V0020800898
p260
aVMAR 03, 2009
p261
aVPHX @ ORL
p262
aVL
p263
aI41
aI8
aI14
aF0.571
aI1
aI3
aF0.333
aI3
aI3
aF1.0
aI0
aI7
aI7
aI8
aI4
aI0
aI7
aI1
aI20
aI-12
aa(lp264
V0020800906
p265
aVMAR 04, 2009
p266
aVPHX @ MIA
p267
aVL
p268
aI38
aI12
aI17
aF0.706
aI2
aI3
aF0.667
aI3
aI4
aF0.75
aI0
aI5
aI5
aI10
aI1
aI0
aI3
aI3
aI29
aI4
aa(lp269
V0020800923
p270
aVMAR 06, 2009
p271
aVPHX @ HOU
p272
aVL
p273
aI40
aI14
aI27
aF0.519
aI4
aI6
aF0.667
aI0
aI0
aF0.0
aI1
aI4
aI5
aI13
aI1
aI0
aI1
aI2
aI32
aI-2
aa(lp274
V0020800938
p275
aVMAR 08, 2009
p276
aVPHX @ SAS
p277
aVL
p278
aI38
aI10
aI22
aF0.455
aI1
aI4
aF0.25
aI2
aI2
aF1.0
aI0
aI2
aI2
aI11
aI0
aI0
aI3
aI1
aI23
aI-3
aa(lp279
V0020800952
p280
aVMAR 10, 2009
p281
aVPHX vs. DAL
p282
aVL
p283
aI40
aI10
aI17
aF0.588
aI1
aI3
aF0.333
aI2
aI3
aF0.667
aI0
aI0
aI0
aI13
aI0
aI0
aI4
aI5
aI23
aI-1
aa(lp284
V0020800967
p285
aVMAR 12, 2009
p286
aVPHX vs. CLE
p287
aVL
p288
aI37
aI9
aI15
aF0.6
aI1
aI2
aF0.5
aI1
aI1
aF1.0
aI0
aI2
aI2
aI6
aI0
aI1
aI2
aI0
aI20
aI-2
aa(lp289
V0020800984
p290
aVMAR 14, 2009
p291
aVPHX vs. OKC
p292
aVW
p293
aI36
aI8
aI14
aF0.571
aI2
aI5
aF0.4
aI0
aI0
aF0.0
aI0
aI1
aI1
aI8
aI3
aI0
aI7
aI0
aI18
aI13
aa(lp294
V0020800994
p295
aVMAR 15, 2009
p296
aVPHX @ GSW
p297
aVW
p298
aI23
aI4
aI8
aF0.5
aI1
aI3
aF0.333
aI2
aI2
aF1.0
aI2
aI5
aI7
aI9
aI1
aI0
aI2
aI1
aI11
aI-2
aa(lp299
V0020801018
p300
aVMAR 18, 2009
p301
aVPHX vs. PHI
p302
aVW
p303
aI39
aI10
aI18
aF0.556
aI2
aI4
aF0.5
aI2
aI2
aF1.0
aI0
aI5
aI5
aI10
aI0
aI1
aI2
aI1
aI24
aI0
aa(lp304
V0020801040
p305
aVMAR 21, 2009
p306
aVPHX vs. WAS
p307
aVW
p308
aI29
aI8
aI12
aF0.667
aI1
aI2
aF0.5
aI0
aI0
aF0.0
aI0
aI0
aI0
aI4
aI0
aI0
aI0
aI0
aI17
aI18
aa(lp309
V0020801053
p310
aVMAR 23, 2009
p311
aVPHX vs. DEN
p312
aVW
p313
aI35
aI5
aI10
aF0.5
aI1
aI1
aF1.0
aI4
aI4
aF1.0
aI0
aI3
aI3
aI9
aI1
aI0
aI0
aI2
aI15
aI0
aa(lp314
V0020801069
p315
aVMAR 25, 2009
p316
aVPHX vs. UTA
p317
aVW
p318
aI35
aI4
aI10
aF0.4
aI0
aI2
aF0.0
aI4
aI4
aF1.0
aI0
aI4
aI4
aI14
aI0
aI0
aI3
aI2
aI12
aI1
aa(lp319
V0020801072
p320
aVMAR 26, 2009
p321
aVPHX @ POR
p322
aVL
p323
aI27
aI6
aI13
aF0.462
aI2
aI5
aF0.4
aI1
aI1
aF1.0
aI0
aI2
aI2
aI5
aI0
aI0
aI3
aI0
aI15
aI-10
aa(lp324
V0020801089
p325
aVMAR 28, 2009
p326
aVPHX @ UTA
p327
aVL
p328
aI45
aI7
aI21
aF0.333
aI3
aI10
aF0.3
aI3
aI3
aF1.0
aI0
aI2
aI2
aI6
aI0
aI0
aI2
aI2
aI20
aI-10
aa(lp329
V0020801099
p330
aVMAR 29, 2009
p331
aVPHX @ SAC
p332
aVL
p333
aI42
aI12
aI21
aF0.571
aI5
aI8
aF0.625
aI2
aI2
aF1.0
aI1
aI3
aI4
aI14
aI0
aI0
aI5
aI1
aI31
aI-7
aa(lp334
V0020801119
p335
aVAPR 01, 2009
p336
aVPHX vs. HOU
p337
aVW
p338
aI39
aI9
aI15
aF0.6
aI2
aI2
aF1.0
aI5
aI8
aF0.625
aI1
aI0
aI1
aI17
aI3
aI0
aI1
aI1
aI25
aI18
aa(lp339
V0020801132
p340
aVAPR 03, 2009
p341
aVPHX vs. SAC
p342
aVW
p343
aI31
aI12
aI19
aF0.632
aI3
aI4
aF0.75
aI2
aI2
aF1.0
aI1
aI2
aI3
aI9
aI1
aI0
aI3
aI0
aI29
aI19
aa(lp344
V0020801143
p345
aVAPR 05, 2009
p346
aVPHX @ DAL
p347
aVL
p348
aI27
aI4
aI12
aF0.333
aI1
aI3
aF0.333
aI3
aI3
aF1.0
aI1
aI1
aI2
aI8
aI1
aI0
aI2
aI3
aI12
aI-22
aa(lp349
V0020801168
p350
aVAPR 08, 2009
p351
aVPHX @ NOH
p352
aVW
p353
aI34
aI7
aI9
aF0.778
aI1
aI2
aF0.5
aI9
aI9
aF1.0
aI1
aI1
aI2
aI13
aI1
aI0
aI1
aI1
aI24
aI2
aa(lp354
V0020801181
p355
aVAPR 10, 2009
p356
aVPHX @ MEM
p357
aVL
p358
aI20
aI4
aI4
aF1.0
aI0
aI0
aF0.0
aI1
aI2
aF0.5
aI0
aI3
aI3
aI6
aI2
aI0
aI2
aI0
aI9
aI-10
aa(lp359
V0020801191
p360
aVAPR 11, 2009
p361
aVPHX @ MIN
p362
aVW
p363
aI17
aI1
aI3
aF0.333
aI0
aI0
aF0.0
aI2
aI2
aF1.0
aI0
aI3
aI3
aI7
aI1
aI0
aI2
aI0
aI4
aI17
aa(lp364
V0020801211
p365
aVAPR 13, 2009
p366
aVPHX vs. MEM
p367
aVW
p368
aI32
aI7
aI10
aF0.7
aI0
aI1
aF0.0
aI4
aI4
aF1.0
aI0
aI0
aI0
aI12
aI0
aI0
aI4
aI3
aI18
aI13
aa(lp369
V0020801229
p370
aVAPR 15, 2009
p371
aVPHX vs. GSW
p372
aVW
p373
aI37
aI4
aI7
aF0.571
aI0
aI0
aF0.0
aI2
aI2
aF1.0
aI1
aI1
aI2
aI10
aI0
aI0
aI3
aI3
aI10
aI0
aasS'name'
p374
VSteve Nash
p375
sS'experience'
p376
I12
s.