(dp0
S'stats'
p1
(lp2
(lp3
V0020800003
p4
aVOCT 28, 2008
p5
aVLAL vs. POR
p6
aVW
p7
aI33
aI9
aI17
aF0.529
aI1
aI1
aF1.0
aI4
aI5
aF0.8
aI2
aI9
aI11
aI5
aI1
aI0
aI5
aI3
aI23
aI17
aa(lp8
V0020800015
p9
aVOCT 29, 2008
p10
aVLAL @ LAC
p11
aVW
p12
aI31
aI5
aI12
aF0.417
aI0
aI2
aF0.0
aI6
aI7
aF0.857
aI2
aI6
aI8
aI3
aI2
aI0
aI5
aI2
aI16
aI23
aa(lp13
V0020800037
p14
aVNOV 01, 2008
p15
aVLAL @ DEN
p16
aVW
p17
aI33
aI11
aI24
aF0.458
aI1
aI2
aF0.5
aI10
aI12
aF0.833
aI3
aI1
aI4
aI3
aI2
aI0
aI1
aI4
aI33
aI13
aa(lp18
V0020800063
p19
aVNOV 05, 2008
p20
aVLAL vs. LAC
p21
aVW
p22
aI36
aI8
aI21
aF0.381
aI0
aI2
aF0.0
aI11
aI14
aF0.786
aI1
aI1
aI2
aI3
aI2
aI2
aI2
aI3
aI27
aI15
aa(lp23
V0020800092
p24
aVNOV 09, 2008
p25
aVLAL vs. HOU
p26
aVW
p27
aI33
aI10
aI17
aF0.588
aI1
aI2
aF0.5
aI2
aI4
aF0.5
aI2
aI1
aI3
aI3
aI2
aI2
aI4
aI3
aI23
aI10
aa(lp28
V0020800102
p29
aVNOV 11, 2008
p30
aVLAL @ DAL
p31
aVW
p32
aI36
aI10
aI20
aF0.5
aI0
aI2
aF0.0
aI7
aI8
aF0.875
aI1
aI3
aI4
aI1
aI1
aI0
aI1
aI1
aI27
aI-6
aa(lp33
V0020800112
p34
aVNOV 12, 2008
p35
aVLAL @ NOH
p36
aVW
p37
aI38
aI5
aI15
aF0.333
aI1
aI1
aF1.0
aI9
aI9
aF1.0
aI0
aI4
aI4
aI6
aI0
aI0
aI2
aI4
aI20
aI4
aa(lp38
V0020800131
p39
aVNOV 14, 2008
p40
aVLAL vs. DET
p41
aVL
p42
aI39
aI12
aI30
aF0.4
aI2
aI7
aF0.286
aI3
aI4
aF0.75
aI0
aI5
aI5
aI6
aI4
aI1
aI3
aI5
aI29
aI-1
aa(lp43
V0020800158
p44
aVNOV 18, 2008
p45
aVLAL vs. CHI
p46
aVW
p47
aI31
aI9
aI18
aF0.5
aI3
aI6
aF0.5
aI0
aI0
aF0.0
aI1
aI4
aI5
aI6
aI3
aI2
aI1
aI3
aI21
aI22
aa(lp48
V0020800170
p49
aVNOV 20, 2008
p50
aVLAL @ PHX
p51
aVW
p52
aI33
aI8
aI23
aF0.348
aI1
aI5
aF0.2
aI7
aI9
aF0.778
aI1
aI4
aI5
aI3
aI0
aI1
aI2
aI0
aI24
aI17
aa(lp53
V0020800183
p54
aVNOV 21, 2008
p55
aVLAL vs. DEN
p56
aVW
p57
aI30
aI12
aI18
aF0.667
aI1
aI3
aF0.333
aI4
aI5
aF0.8
aI2
aI2
aI4
aI2
aI2
aI0
aI1
aI3
aI29
aI13
aa(lp58
V0020800197
p59
aVNOV 23, 2008
p60
aVLAL vs. SAC
p61
aVW
p62
aI34
aI10
aI20
aF0.5
aI0
aI1
aF0.0
aI4
aI4
aF1.0
aI1
aI3
aI4
aI6
aI3
aI1
aI3
aI2
aI24
aI21
aa(lp63
V0020800209
p64
aVNOV 25, 2008
p65
aVLAL vs. NJN
p66
aVW
p67
aI28
aI5
aI17
aF0.294
aI0
aI2
aF0.0
aI2
aI2
aF1.0
aI0
aI6
aI6
aI4
aI1
aI0
aI0
aI2
aI12
aI2
aa(lp68
V0020800235
p69
aVNOV 28, 2008
p70
aVLAL vs. DAL
p71
aVW
p72
aI40
aI14
aI26
aF0.538
aI1
aI4
aF0.25
aI6
aI6
aF1.0
aI2
aI4
aI6
aI5
aI1
aI1
aI3
aI2
aI35
aI12
aa(lp73
V0020800251
p74
aVNOV 30, 2008
p75
aVLAL vs. TOR
p76
aVW
p77
aI30
aI9
aI14
aF0.643
aI0
aI2
aF0.0
aI5
aI5
aF1.0
aI1
aI4
aI5
aI7
aI1
aI0
aI3
aI2
aI23
aI7
aa(lp78
V0020800255
p79
aVDEC 02, 2008
p80
aVLAL @ IND
p81
aVL
p82
aI37
aI10
aI21
aF0.476
aI0
aI5
aF0.0
aI8
aI10
aF0.8
aI2
aI5
aI7
aI2
aI1
aI0
aI1
aI2
aI28
aI-3
aa(lp83
V0020800267
p84
aVDEC 03, 2008
p85
aVLAL @ PHI
p86
aVW
p87
aI37
aI12
aI20
aF0.6
aI1
aI3
aF0.333
aI7
aI7
aF1.0
aI0
aI6
aI6
aI4
aI2
aI0
aI4
aI4
aI32
aI10
aa(lp88
V0020800277
p89
aVDEC 05, 2008
p90
aVLAL @ WAS
p91
aVW
p92
aI35
aI5
aI17
aF0.294
aI0
aI1
aF0.0
aI13
aI14
aF0.929
aI2
aI5
aI7
aI7
aI0
aI0
aI2
aI2
aI23
aI16
aa(lp93
V0020800300
p94
aVDEC 07, 2008
p95
aVLAL vs. MIL
p96
aVW
p97
aI31
aI6
aI13
aF0.462
aI0
aI1
aF0.0
aI8
aI9
aF0.889
aI2
aI3
aI5
aI8
aI2
aI0
aI4
aI2
aI20
aI25
aa(lp98
V0020800313
p99
aVDEC 09, 2008
p100
aVLAL @ SAC
p101
aVL
p102
aI38
aI9
aI25
aF0.36
aI3
aI8
aF0.375
aI7
aI7
aF1.0
aI2
aI2
aI4
aI3
aI0
aI0
aI2
aI2
aI28
aI-15
aa(lp103
V0020800322
p104
aVDEC 10, 2008
p105
aVLAL vs. PHX
p106
aVW
p107
aI34
aI6
aI16
aF0.375
aI2
aI5
aF0.4
aI4
aI4
aF1.0
aI0
aI7
aI7
aI3
aI1
aI0
aI5
aI2
aI18
aI-7
aa(lp108
V0020800336
p109
aVDEC 12, 2008
p110
aVLAL vs. SAC
p111
aVW
p112
aI39
aI11
aI21
aF0.524
aI2
aI4
aF0.5
aI8
aI10
aF0.8
aI2
aI5
aI7
aI3
aI0
aI1
aI4
aI2
aI32
aI11
aa(lp113
V0020800350
p114
aVDEC 14, 2008
p115
aVLAL vs. MIN
p116
aVW
p117
aI37
aI9
aI24
aF0.375
aI2
aI6
aF0.333
aI6
aI6
aF1.0
aI0
aI3
aI3
aI5
aI2
aI0
aI2
aI2
aI26
aI14
aa(lp118
V0020800365
p119
aVDEC 16, 2008
p120
aVLAL vs. NYK
p121
aVW
p122
aI41
aI12
aI22
aF0.545
aI1
aI3
aF0.333
aI3
aI4
aF0.75
aI1
aI6
aI7
aI6
aI4
aI0
aI1
aI0
aI28
aI5
aa(lp123
V0020800385
p124
aVDEC 19, 2008
p125
aVLAL @ MIA
p126
aVL
p127
aI35
aI12
aI24
aF0.5
aI1
aI3
aF0.333
aI3
aI4
aF0.75
aI1
aI2
aI3
aI3
aI0
aI0
aI5
aI3
aI28
aI-6
aa(lp128
V0020800390
p129
aVDEC 20, 2008
p130
aVLAL @ ORL
p131
aVL
p132
aI43
aI14
aI31
aF0.452
aI2
aI3
aF0.667
aI11
aI11
aF1.0
aI2
aI6
aI8
aI3
aI0
aI0
aI1
aI3
aI41
aI-9
aa(lp133
V0020800405
p134
aVDEC 22, 2008
p135
aVLAL @ MEM
p136
aVW
p137
aI38
aI14
aI23
aF0.609
aI3
aI6
aF0.5
aI5
aI8
aF0.625
aI0
aI4
aI4
aI3
aI2
aI0
aI5
aI1
aI36
aI9
aa(lp138
V0020800417
p139
aVDEC 23, 2008
p140
aVLAL @ NOH
p141
aVW
p142
aI37
aI7
aI18
aF0.389
aI0
aI1
aF0.0
aI12
aI15
aF0.8
aI0
aI6
aI6
aI4
aI0
aI0
aI0
aI2
aI26
aI14
aa(lp143
V0020800423
p144
aVDEC 25, 2008
p145
aVLAL vs. BOS
p146
aVW
p147
aI43
aI13
aI23
aF0.565
aI1
aI3
aF0.333
aI0
aI0
aF0.0
aI2
aI7
aI9
aI5
aI1
aI0
aI4
aI2
aI27
aI2
aa(lp148
V0020800449
p149
aVDEC 28, 2008
p150
aVLAL vs. GSW
p151
aVW
p152
aI32
aI9
aI15
aF0.6
aI3
aI6
aF0.5
aI10
aI10
aF1.0
aI1
aI2
aI3
aI4
aI4
aI0
aI2
aI2
aI31
aI19
aa(lp153
V0020800487
p154
aVJAN 02, 2009
p155
aVLAL vs. UTA
p156
aVW
p157
aI38
aI13
aI23
aF0.565
aI2
aI3
aF0.667
aI12
aI14
aF0.857
aI3
aI4
aI7
aI4
aI2
aI1
aI2
aI3
aI40
aI19
aa(lp158
V0020800500
p159
aVJAN 04, 2009
p160
aVLAL vs. POR
p161
aVW
p162
aI33
aI11
aI19
aF0.579
aI0
aI2
aF0.0
aI4
aI5
aF0.8
aI0
aI2
aI2
aI3
aI1
aI0
aI4
aI1
aI26
aI17
aa(lp163
V0020800513
p164
aVJAN 06, 2009
p165
aVLAL vs. NOH
p166
aVL
p167
aI42
aI14
aI22
aF0.636
aI6
aI7
aF0.857
aI5
aI6
aF0.833
aI0
aI4
aI4
aI7
aI0
aI1
aI4
aI1
aI39
aI-8
aa(lp168
V0020800525
p169
aVJAN 07, 2009
p170
aVLAL @ GSW
p171
aVW
p172
aI39
aI9
aI20
aF0.45
aI2
aI5
aF0.4
aI1
aI1
aF1.0
aI1
aI4
aI5
aI5
aI2
aI0
aI3
aI3
aI21
aI5
aa(lp173
V0020800538
p174
aVJAN 09, 2009
p175
aVLAL vs. IND
p176
aVW
p177
aI42
aI10
aI20
aF0.5
aI1
aI4
aF0.25
aI15
aI17
aF0.882
aI1
aI6
aI7
aI13
aI1
aI0
aI5
aI3
aI36
aI7
aa(lp178
V0020800552
p179
aVJAN 11, 2009
p180
aVLAL vs. MIA
p181
aVW
p182
aI37
aI5
aI14
aF0.357
aI2
aI4
aF0.5
aI7
aI7
aF1.0
aI0
aI2
aI2
aI7
aI0
aI0
aI4
aI3
aI19
aI11
aa(lp183
V0020800562
p184
aVJAN 13, 2009
p185
aVLAL @ HOU
p186
aVW
p187
aI42
aI13
aI32
aF0.406
aI1
aI4
aF0.25
aI6
aI9
aF0.667
aI1
aI6
aI7
aI4
aI0
aI0
aI2
aI1
aI33
aI-1
aa(lp188
V0020800574
p189
aVJAN 14, 2009
p190
aVLAL @ SAS
p191
aVL
p192
aI42
aI11
aI19
aF0.579
aI2
aI3
aF0.667
aI5
aI6
aF0.833
aI1
aI6
aI7
aI10
aI0
aI1
aI4
aI1
aI29
aI-2
aa(lp193
V0020800589
p194
aVJAN 16, 2009
p195
aVLAL vs. ORL
p196
aVL
p197
aI41
aI10
aI26
aF0.385
aI1
aI5
aF0.2
aI7
aI8
aF0.875
aI2
aI11
aI13
aI11
aI2
aI0
aI6
aI3
aI28
aI-8
aa(lp198
V0020800612
p199
aVJAN 19, 2009
p200
aVLAL vs. CLE
p201
aVW
p202
aI41
aI9
aI22
aF0.409
aI1
aI5
aF0.2
aI1
aI3
aF0.333
aI1
aI5
aI6
aI12
aI1
aI1
aI5
aI1
aI20
aI16
aa(lp203
V0020800627
p204
aVJAN 21, 2009
p205
aVLAL @ LAC
p206
aVW
p207
aI41
aI5
aI15
aF0.333
aI2
aI7
aF0.286
aI6
aI6
aF1.0
aI2
aI8
aI10
aI12
aI1
aI0
aI4
aI3
aI18
aI10
aa(lp208
V0020800629
p209
aVJAN 22, 2009
p210
aVLAL vs. WAS
p211
aVW
p212
aI28
aI4
aI11
aF0.364
aI1
aI3
aF0.333
aI2
aI2
aF1.0
aI0
aI4
aI4
aI5
aI0
aI0
aI0
aI2
aI11
aI24
aa(lp213
V0020800647
p214
aVJAN 25, 2009
p215
aVLAL vs. SAS
p216
aVW
p217
aI32
aI8
aI17
aF0.471
aI2
aI3
aF0.667
aI4
aI4
aF1.0
aI0
aI4
aI4
aI3
aI1
aI1
aI1
aI2
aI22
aI11
aa(lp218
V0020800666
p219
aVJAN 27, 2009
p220
aVLAL vs. CHA
p221
aVL
p222
aI45
aI15
aI28
aF0.536
aI1
aI3
aF0.333
aI7
aI8
aF0.875
aI2
aI6
aI8
aI5
aI1
aI0
aI2
aI6
aI38
aI2
aa(lp223
V0020800687
p224
aVJAN 30, 2009
p225
aVLAL @ MIN
p226
aVW
p227
aI35
aI12
aI23
aF0.522
aI1
aI7
aF0.143
aI5
aI6
aF0.833
aI2
aI6
aI8
aI5
aI0
aI0
aI2
aI3
aI30
aI11
aa(lp228
V0020800695
p229
aVJAN 31, 2009
p230
aVLAL @ MEM
p231
aVW
p232
aI35
aI10
aI20
aF0.5
aI0
aI1
aF0.0
aI5
aI7
aF0.714
aI0
aI1
aI1
aI7
aI3
aI0
aI1
aI1
aI25
aI11
aa(lp233
V0020800709
p234
aVFEB 02, 2009
p235
aVLAL @ NYK
p236
aVW
p237
aI37
aI19
aI31
aF0.613
aI3
aI6
aF0.5
aI20
aI20
aF1.0
aI0
aI0
aI0
aI3
aI0
aI1
aI2
aI1
aI61
aI19
aa(lp238
V0020800721
p239
aVFEB 04, 2009
p240
aVLAL @ TOR
p241
aVW
p242
aI38
aI13
aI28
aF0.464
aI4
aI8
aF0.5
aI6
aI8
aF0.75
aI1
aI8
aI9
aI5
aI2
aI0
aI0
aI0
aI36
aI4
aa(lp243
V0020800732
p244
aVFEB 05, 2009
p245
aVLAL @ BOS
p246
aVW
p247
aI45
aI10
aI29
aF0.345
aI4
aI8
aF0.5
aI2
aI4
aF0.5
aI2
aI8
aI10
aI5
aI1
aI2
aI3
aI2
aI26
aI-3
aa(lp248
V0020800751
p249
aVFEB 08, 2009
p250
aVLAL @ CLE
p251
aVW
p252
aI35
aI8
aI17
aF0.471
aI0
aI2
aF0.0
aI3
aI3
aF1.0
aI0
aI3
aI3
aI2
aI1
aI0
aI2
aI2
aI19
aI4
aa(lp253
V0020800772
p254
aVFEB 10, 2009
p255
aVLAL vs. OKC
p256
aVW
p257
aI36
aI13
aI26
aF0.5
aI0
aI3
aF0.0
aI8
aI8
aF1.0
aI3
aI4
aI7
aI1
aI0
aI0
aI3
aI1
aI34
aI4
aa(lp258
V0020800782
p259
aVFEB 11, 2009
p260
aVLAL @ UTA
p261
aVL
p262
aI36
aI14
aI33
aF0.424
aI1
aI7
aF0.143
aI8
aI8
aF1.0
aI2
aI2
aI4
aI4
aI4
aI0
aI4
aI3
aI37
aI-1
aa(lp263
V0020800797
p264
aVFEB 17, 2009
p265
aVLAL vs. ATL
p266
aVW
p267
aI29
aI4
aI12
aF0.333
aI2
aI4
aF0.5
aI0
aI0
aF0.0
aI2
aI2
aI4
aI2
aI0
aI2
aI4
aI0
aI10
aI18
aa(lp268
V0020800807
p269
aVFEB 18, 2009
p270
aVLAL @ GSW
p271
aVW
p272
aI36
aI9
aI22
aF0.409
aI2
aI3
aF0.667
aI10
aI12
aF0.833
aI1
aI2
aI3
aI9
aI3
aI2
aI2
aI2
aI30
aI12
aa(lp273
V0020800821
p274
aVFEB 20, 2009
p275
aVLAL vs. NOH
p276
aVW
p277
aI45
aI13
aI30
aF0.433
aI1
aI2
aF0.5
aI12
aI12
aF1.0
aI1
aI4
aI5
aI5
aI1
aI1
aI2
aI2
aI39
aI19
aa(lp278
V0020800834
p279
aVFEB 22, 2009
p280
aVLAL @ MIN
p281
aVW
p282
aI37
aI11
aI21
aF0.524
aI0
aI2
aF0.0
aI6
aI7
aF0.857
aI0
aI6
aI6
aI7
aI1
aI0
aI6
aI2
aI28
aI0
aa(lp283
V0020800846
p284
aVFEB 24, 2009
p285
aVLAL @ OKC
p286
aVW
p287
aI34
aI13
aI21
aF0.619
aI0
aI3
aF0.0
aI10
aI13
aF0.769
aI0
aI4
aI4
aI5
aI1
aI0
aI4
aI0
aI36
aI17
aa(lp288
V0020800862
p289
aVFEB 26, 2009
p290
aVLAL vs. PHX
p291
aVW
p292
aI27
aI10
aI13
aF0.769
aI1
aI2
aF0.5
aI1
aI2
aF0.5
aI1
aI3
aI4
aI8
aI3
aI0
aI1
aI3
aI22
aI26
aa(lp293
V0020800871
p294
aVFEB 27, 2009
p295
aVLAL @ DEN
p296
aVL
p297
aI40
aI10
aI31
aF0.323
aI0
aI6
aF0.0
aI9
aI12
aF0.75
aI5
aI3
aI8
aI2
aI0
aI1
aI2
aI3
aI29
aI4
aa(lp298
V0020800884
p299
aVMAR 01, 2009
p300
aVLAL @ PHX
p301
aVL
p302
aI39
aI18
aI38
aF0.474
aI3
aI9
aF0.333
aI10
aI10
aF1.0
aI4
aI7
aI11
aI2
aI1
aI1
aI1
aI5
aI49
aI-11
aa(lp303
V0020800904
p304
aVMAR 03, 2009
p305
aVLAL vs. MEM
p306
aVW
p307
aI30
aI12
aI23
aF0.522
aI1
aI5
aF0.2
aI6
aI6
aF1.0
aI0
aI2
aI2
aI2
aI1
aI0
aI0
aI3
aI31
aI12
aa(lp308
V0020800925
p309
aVMAR 06, 2009
p310
aVLAL vs. MIN
p311
aVW
p312
aI28
aI8
aI17
aF0.471
aI2
aI6
aF0.333
aI5
aI5
aF1.0
aI0
aI2
aI2
aI4
aI1
aI0
aI1
aI1
aI23
aI18
aa(lp313
V0020800948
p314
aVMAR 09, 2009
p315
aVLAL @ POR
p316
aVL
p317
aI39
aI11
aI29
aF0.379
aI2
aI9
aF0.222
aI2
aI2
aF1.0
aI0
aI3
aI3
aI3
aI1
aI1
aI1
aI5
aI26
aI-20
aa(lp318
V0020800962
p319
aVMAR 11, 2009
p320
aVLAL @ HOU
p321
aVW
p322
aI40
aI14
aI23
aF0.609
aI2
aI3
aF0.667
aI7
aI10
aF0.7
aI1
aI4
aI5
aI6
aI4
aI2
aI4
aI2
aI37
aI10
aa(lp323
V0020800966
p324
aVMAR 12, 2009
p325
aVLAL @ SAS
p326
aVW
p327
aI38
aI9
aI21
aF0.429
aI1
aI2
aF0.5
aI4
aI4
aF1.0
aI0
aI4
aI4
aI6
aI0
aI1
aI2
aI3
aI23
aI17
aa(lp328
V0020800991
p329
aVMAR 15, 2009
p330
aVLAL vs. DAL
p331
aVW
p332
aI41
aI11
aI20
aF0.55
aI3
aI6
aF0.5
aI3
aI3
aF1.0
aI0
aI8
aI8
aI5
aI1
aI1
aI1
aI4
aI28
aI22
aa(lp333
V0020801008
p334
aVMAR 17, 2009
p335
aVLAL vs. PHI
p336
aVL
p337
aI33
aI5
aI15
aF0.333
aI1
aI4
aF0.25
aI0
aI0
aF0.0
aI0
aI5
aI5
aI5
aI2
aI0
aI5
aI4
aI11
aI-9
aa(lp338
V0020801022
p339
aVMAR 19, 2009
p340
aVLAL vs. GSW
p341
aVW
p342
aI39
aI9
aI25
aF0.36
aI2
aI6
aF0.333
aI1
aI1
aF1.0
aI3
aI3
aI6
aI2
aI2
aI0
aI5
aI1
aI21
aI-3
aa(lp343
V0020801038
p344
aVMAR 21, 2009
p345
aVLAL @ CHI
p346
aVW
p347
aI37
aI10
aI25
aF0.4
aI2
aI6
aF0.333
aI6
aI10
aF0.6
aI1
aI2
aI3
aI7
aI5
aI1
aI3
aI2
aI28
aI3
aa(lp348
V0020801056
p349
aVMAR 24, 2009
p350
aVLAL @ OKC
p351
aVW
p352
aI29
aI6
aI18
aF0.333
aI1
aI4
aF0.25
aI6
aI6
aF1.0
aI0
aI3
aI3
aI5
aI4
aI2
aI0
aI3
aI19
aI22
aa(lp353
V0020801070
p354
aVMAR 26, 2009
p355
aVLAL @ DET
p356
aVW
p357
aI38
aI10
aI18
aF0.556
aI1
aI3
aF0.333
aI9
aI10
aF0.9
aI2
aI6
aI8
aI7
aI2
aI0
aI1
aI3
aI30
aI27
aa(lp358
V0020801078
p359
aVMAR 27, 2009
p360
aVLAL @ NJN
p361
aVW
p362
aI41
aI5
aI19
aF0.263
aI3
aI6
aF0.5
aI1
aI1
aF1.0
aI1
aI0
aI1
aI9
aI3
aI1
aI3
aI3
aI14
aI20
aa(lp363
V0020801092
p364
aVMAR 29, 2009
p365
aVLAL @ ATL
p366
aVL
p367
aI37
aI7
aI19
aF0.368
aI1
aI6
aF0.167
aI2
aI4
aF0.5
aI2
aI6
aI8
aI4
aI1
aI0
aI4
aI3
aI17
aI-2
aa(lp368
V0020801104
p369
aVMAR 31, 2009
p370
aVLAL @ CHA
p371
aVL
p372
aI36
aI11
aI28
aF0.393
aI2
aI5
aF0.4
aI1
aI3
aF0.333
aI0
aI2
aI2
aI2
aI3
aI0
aI1
aI3
aI25
aI-10
aa(lp373
V0020801117
p374
aVAPR 01, 2009
p375
aVLAL @ MIL
p376
aVW
p377
aI39
aI10
aI19
aF0.526
aI1
aI2
aF0.5
aI9
aI9
aF1.0
aI1
aI7
aI8
aI4
aI3
aI0
aI4
aI1
aI30
aI14
aa(lp378
V0020801134
p379
aVAPR 03, 2009
p380
aVLAL vs. HOU
p381
aVW
p382
aI39
aI7
aI11
aF0.636
aI4
aI6
aF0.667
aI2
aI2
aF1.0
aI0
aI1
aI1
aI7
aI2
aI0
aI3
aI0
aI20
aI16
aa(lp383
V0020801152
p384
aVAPR 05, 2009
p385
aVLAL vs. LAC
p386
aVW
p387
aI34
aI5
aI15
aF0.333
aI3
aI6
aF0.5
aI5
aI8
aF0.625
aI1
aI3
aI4
aI5
aI1
aI1
aI2
aI3
aI18
aI0
aa(lp388
V0020801160
p389
aVAPR 07, 2009
p390
aVLAL @ SAC
p391
aVW
p392
aI31
aI8
aI16
aF0.5
aI1
aI5
aF0.2
aI5
aI8
aF0.625
aI0
aI5
aI5
aI4
aI2
aI0
aI0
aI2
aI22
aI6
aa(lp393
V0020801175
p394
aVAPR 09, 2009
p395
aVLAL vs. DEN
p396
aVW
p397
aI35
aI11
aI19
aF0.579
aI2
aI5
aF0.4
aI9
aI10
aF0.9
aI1
aI2
aI3
aI2
aI1
aI0
aI2
aI0
aI33
aI15
aa(lp398
V0020801186
p399
aVAPR 10, 2009
p400
aVLAL @ POR
p401
aVL
p402
aI36
aI9
aI24
aF0.375
aI3
aI6
aF0.5
aI11
aI12
aF0.917
aI0
aI5
aI5
aI2
aI0
aI0
aI3
aI5
aI32
aI-7
aa(lp403
V0020801201
p404
aVAPR 12, 2009
p405
aVLAL vs. MEM
p406
aVW
p407
aI29
aI7
aI9
aF0.778
aI0
aI2
aF0.0
aI2
aI2
aF1.0
aI2
aI5
aI7
aI4
aI2
aI1
aI1
aI2
aI16
aI7
aa(lp408
V0020801216
p409
aVAPR 14, 2009
p410
aVLAL vs. UTA
p411
aVW
p412
aI26
aI5
aI11
aF0.455
aI1
aI2
aF0.5
aI5
aI7
aF0.714
aI1
aI0
aI1
aI5
aI2
aI0
aI1
aI3
aI16
aI10
aasS'name'
p413
VKobe Bryant
p414
sS'weight'
p415
V212
p416
sS'age'
p417
I30
sS'experience'
p418
I12
sS'height'
p419
V6-6
p420
sS'position'
p421
VForward-Guard
p422
s.