(dp0
Vresource
p1
Vleaguedashplayerstats
p2
sVresultSets
p3
(lp4
(dp5
Vheaders
p6
(lp7
VPLAYER_ID
p8
aVPLAYER_NAME
p9
aVTEAM_ID
p10
aVTEAM_ABBREVIATION
p11
aVAGE
p12
aVGP
p13
aVW
p14
aVL
p15
aVW_PCT
p16
aVMIN
p17
aVFGM
p18
aVFGA
p19
aVFG_PCT
p20
aVFG3M
p21
aVFG3A
p22
aVFG3_PCT
p23
aVFTM
p24
aVFTA
p25
aVFT_PCT
p26
aVOREB
p27
aVDREB
p28
aVREB
p29
aVAST
p30
aVTOV
p31
aVSTL
p32
aVBLK
p33
aVBLKA
p34
aVPF
p35
aVPFD
p36
aVPTS
p37
aVPLUS_MINUS
p38
aVDD2
p39
aVTD3
p40
aVCFID
p41
aVCFPARAMS
p42
asVrowSet
p43
(lp44
(lp45
I201166
aVAaron Brooks
p46
aI1610612745
aVHOU
p47
aF23.0
aI51
aI36
aI15
aF0.706
aF11.9
aF1.8
aF4.4
aF0.413
aF0.7
aF2.1
aF0.33
aF0.8
aF1.0
aF0.857
aF0.3
aF0.8
aF1.1
aF1.7
aF0.9
aF0.3
aF0.1
aF0.2
aF1.4
aF1.0
aF5.2
aF-0.1
aI0
aI0
aI5
aV201166,1610612745
p48
aa(lp49
I201189
aVAaron Gray
p50
aI1610612741
aVCHI
p51
aF23.0
aI61
aI23
aI38
aF0.377
aF10.1
aF1.7
aF3.3
aF0.505
aF0.0
aF0.0
aF0.0
aF0.9
aF1.6
aF0.566
aF1.1
aF1.6
aF2.8
aF0.7
aF0.9
aF0.3
aF0.3
aF0.5
aF1.9
aF1.3
aF4.3
aF-0.4
aI2
aI0
aI5
aV201189,1610612741
p52
aa(lp53
I1425
aVAaron Williams
p54
aI1610612746
aVLAC
p55
aF36.0
aI30
aI9
aI21
aF0.3
aF9.9
aF0.9
aF1.8
aF0.491
aF0.0
aF0.0
aF0.0
aF0.5
aF0.6
aF0.778
aF0.5
aF1.5
aF2.0
aF0.3
aF0.4
aF0.4
aF0.5
aF0.2
aF1.5
aF0.7
aF2.3
aF-3.3
aI0
aI0
aI5
aV1425,1610612746
p56
aa(lp57
I201151
aVAcie Law
p58
aI1610612737
aVATL
p59
aF23.0
aI56
aI25
aI31
aF0.446
aF15.5
aF1.7
aF4.2
aF0.401
aF0.1
aF0.6
aF0.206
aF0.7
aF0.9
aF0.792
aF0.2
aF0.8
aF1.0
aF2.0
aF1.0
aF0.5
aF0.0
aF0.4
aF1.3
aF1.0
aF4.2
aF-2.2
aI0
aI0
aI5
aV201151,1610612737
p60
aa(lp61
I1502
aVAdonal Foyle
p62
aI1610612753
aVORL
p63
aF33.0
aI82
aI52
aI30
aF0.634
aF9.4
aF0.9
aF1.9
aF0.458
aF0.0
aF0.0
aF0.0
aF0.2
aF0.4
aF0.471
aF0.9
aF1.7
aF2.5
aF0.2
aF0.4
aF0.2
aF0.5
aF0.3
aF1.1
aF0.5
aF1.9
aF-0.2
aI0
aI0
aI5
aV1502,1610612753
p64
aa(lp65
I1559
aVAdrian Griffin
p66
aI1610612760
aVSEA
p67
aF33.0
aI35
aI10
aI25
aF0.286
aF8.8
aF0.9
aF2.2
aF0.395
aF0.0
aF0.0
aF0.0
aF0.1
aF0.3
aF0.556
aF0.8
aF0.9
aF1.7
aF0.8
aF0.6
aF0.5
aF0.1
aF0.1
aF0.8
aF0.2
aF1.9
aF0.3
aI0
aI0
aI5
aV1559,1610612760
p68
aa(lp69
I1733
aVAl Harrington
p70
aI1610612744
aVGSW
p71
aF28.0
aI81
aI48
aI33
aF0.593
aF27.0
aF5.0
aF11.4
aF0.434
aF1.9
aF5.0
aF0.375
aF1.8
aF2.3
aF0.774
aF1.3
aF4.1
aF5.4
aF1.6
aF1.1
aF0.9
aF0.2
aF0.5
aF3.3
aF2.2
aF13.6
aF1.9
aI7
aI0
aI5
aV1733,1610612744
p72
aa(lp73
I201143
aVAl Horford
p74
aI1610612737
aVATL
p75
aF22.0
aI81
aI37
aI44
aF0.457
aF31.4
aF4.1
aF8.2
aF0.499
aF0.0
aF0.1
aF0.0
aF1.9
aF2.6
aF0.731
aF3.1
aF6.6
aF9.7
aF1.5
aF1.7
aF0.7
aF0.9
aF0.6
aF3.3
aF2.2
aF10.1
aF-1.4
aI25
aI0
aI5
aV201143,1610612737
p76
aa(lp77
I2744
aVAl Jefferson
p78
aI1610612750
aVMIN
p79
aF23.0
aI82
aI22
aI60
aF0.268
aF35.6
aF8.8
aF17.6
aF0.5
aF0.0
aF0.1
aF0.0
aF3.5
aF4.8
aF0.721
aF3.8
aF7.4
aF11.1
aF1.4
aF2.0
aF0.9
aF1.5
aF1.5
aF2.7
aF3.9
aF21.0
aF-6.7
aI55
aI0
aI5
aV2744,1610612750
p80
aa(lp81
I201154
aVAl Thornton
p82
aI1610612746
aVLAC
p83
aF24.0
aI79
aI23
aI56
aF0.291
aF27.3
aF4.7
aF11.0
aF0.429
aF0.5
aF1.6
aF0.331
aF2.7
aF3.6
aF0.743
aF1.2
aF3.3
aF4.5
aF1.2
aF1.6
aF0.6
aF0.5
aF0.7
aF2.5
aF3.0
aF12.7
aF-5.1
aI7
aI0
aI5
aV201154,1610612746
p84
aa(lp85
I201169
aVAlando Tucker
p86
aI1610612756
aVPHX
p87
aF24.0
aI6
aI6
aI0
aF1.0
aF8.0
aF1.3
aF3.7
aF0.364
aF0.2
aF0.7
aF0.25
aF0.8
aF1.0
aF0.833
aF0.7
aF0.7
aF1.3
aF0.0
aF0.0
aF0.0
aF0.2
aF0.5
aF0.3
aF0.8
aF3.7
aF-1.0
aI0
aI0
aI5
aV201169,1610612756
p88
aa(lp89
I200792
aVAlexander Johnson
p90
aI1610612748
aVMIA
p91
aF25.0
aI43
aI4
aI39
aF0.093
aF12.8
aF1.4
aF2.9
aF0.488
aF0.0
aF0.0
aF0.0
aF1.3
aF1.9
aF0.687
aF0.7
aF1.4
aF2.2
aF0.3
aF1.0
aF0.3
aF0.2
aF0.3
aF1.9
aF1.6
aF4.2
aF-2.9
aI1
aI0
aI5
aV200792,1610612748
p92
aa(lp93
I947
aVAllen Iverson
p94
aI1610612743
aVDEN
p95
aF33.0
aI82
aI50
aI32
aF0.61
aF41.8
aF8.7
aF19.0
aF0.458
aF1.2
aF3.4
aF0.345
aF7.9
aF9.7
aF0.809
aF0.6
aF2.4
aF3.0
aF7.1
aF3.0
aF2.0
aF0.1
aF1.2
aF1.3
aF7.7
aF26.4
aF4.4
aI15
aI0
aI5
aV947,1610612743
p96
aa(lp97
I297
aVAlonzo Mourning
p98
aI1610612748
aVMIA
p99
aF38.0
aI25
aI7
aI18
aF0.28
aF15.6
aF2.1
aF3.8
aF0.547
aF0.0
aF0.0
aF0.0
aF1.8
aF3.0
aF0.592
aF1.4
aF2.4
aF3.7
aF0.3
aF1.0
aF0.2
aF1.7
aF0.4
aF2.2
aF2.4
aF6.0
aF-1.0
aI1
aI0
aI5
aV297,1610612748
p100
aa(lp101
I2405
aVAmar'e Stoudemire
p102
aI1610612756
aVPHX
p103
aF25.0
aI79
aI53
aI26
aF0.671
aF33.9
aF9.0
aF15.3
aF0.59
aF0.1
aF0.4
aF0.161
aF7.0
aF8.7
aF0.805
aF2.3
aF6.8
aF9.1
aF1.5
aF2.2
aF0.8
aF2.1
aF1.0
aF3.7
aF6.2
aF25.2
aF5.3
aI36
aI0
aI5
aV2405,1610612756
p104
aa(lp105
I101161
aVAmir Johnson
p106
aI1610612765
aVDET
p107
aF21.0
aI62
aI49
aI13
aF0.79
aF12.3
aF1.5
aF2.7
aF0.558
aF0.0
aF0.0
aF0.0
aF0.6
aF0.9
aF0.673
aF1.4
aF2.4
aF3.8
aF0.5
aF0.6
aF0.4
aF1.3
aF0.2
aF2.3
aF0.9
aF3.6
aF2.9
aI0
aI0
aI5
aV101161,1610612765
p108
aa(lp109
I2760
aVAnderson Varejao
p110
aI1610612739
aVCLE
p111
aF25.0
aI48
aI28
aI20
aF0.583
aF27.5
aF2.8
aF6.1
aF0.461
aF0.0
aF0.0
aF0.0
aF1.0
aF1.7
aF0.598
aF2.8
aF5.5
aF8.3
aF1.1
aF1.2
aF0.8
aF0.5
aF0.5
aF2.8
aF2.4
aF6.7
aF1.5
aI6
aI0
aI5
aV2760,1610612739
p112
aa(lp113
I101154
aVAndray Blatche
p114
aI1610612764
aVWAS
p115
aF21.0
aI82
aI43
aI39
aF0.524
aF20.4
aF3.1
aF6.5
aF0.474
aF0.0
aF0.2
aF0.231
aF1.3
aF1.9
aF0.695
aF2.0
aF3.2
aF5.2
aF1.1
aF1.4
aF0.6
aF1.4
aF0.7
aF3.1
aF1.7
aF7.5
aF-2.9
aI9
aI0
aI5
aV101154,1610612764
p116
aa(lp117
I2857
aVAndre Barrett
p118
aI1610612746
aVLAC
p119
aF26.0
aI4
aI0
aI4
aF0.0
aF6.3
aF0.5
aF1.3
aF0.4
aF0.3
aF0.8
aF0.333
aF0.3
aF0.5
aF0.5
aF0.0
aF0.3
aF0.3
aF1.8
aF0.3
aF0.0
aF0.0
aF0.0
aF0.3
aF0.3
aF1.5
aF-4.3
aI0
aI0
aI5
aV2857,1610612746
p120
aa(lp121
I2810
aVAndre Brown
p122
aI1610612763
aVMEM
p123
aF27.0
aI33
aI8
aI25
aF0.242
aF8.7
aF1.2
aF2.4
aF0.5
aF0.0
aF0.0
aF0.0
aF0.7
aF1.5
aF0.449
aF1.1
aF1.7
aF2.8
aF0.2
aF0.4
aF0.2
aF0.1
aF0.1
aF1.2
aF1.0
aF3.0
aF-1.8
aI2
aI0
aI5
aV2810,1610612763
p124
aa(lp125
I2738
aVAndre Iguodala
p126
aI1610612755
aVPHI
p127
aF24.0
aI82
aI40
aI42
aF0.488
aF39.5
aF7.1
aF15.6
aF0.456
aF1.2
aF3.7
aF0.329
aF4.5
aF6.2
aF0.721
aF1.0
aF4.4
aF5.4
aF4.8
aF2.6
aF2.1
aF0.6
aF0.3
aF2.3
aF4.3
aF19.9
aF0.1
aI8
aI0
aI5
aV2738,1610612755
p128
aa(lp129
I1889
aVAndre Miller
p130
aI1610612755
aVPHI
p131
aF32.0
aI82
aI40
aI42
aF0.488
aF36.8
aF6.9
aF14.1
aF0.492
aF0.0
aF0.4
aF0.088
aF3.1
aF4.1
aF0.772
aF1.2
aF2.8
aF4.0
aF6.9
aF2.5
aF1.3
aF0.1
aF0.8
aF2.2
aF3.0
aF17.0
aF-0.8
aI14
aI0
aI5
aV1889,1610612755
p132
aa(lp133
I101261
aVAndre Owens
p134
aI1610612754
aVIND
p135
aF27.0
aI31
aI12
aI19
aF0.387
aF12.6
aF1.3
aF3.5
aF0.374
aF0.6
aF1.3
aF0.45
aF0.8
aF1.1
aF0.735
aF0.4
aF1.1
aF1.5
aF1.5
aF0.8
aF0.4
aF0.1
aF0.4
aF1.2
aF1.7
aF4.0
aF-0.5
aI0
aI0
aI5
aV101261,1610612754
p136
aa(lp137
I200745
aVAndrea Bargnani
p138
aI1610612761
aVTOR
p139
aF22.0
aI78
aI39
aI39
aF0.5
aF23.9
aF3.6
aF9.3
aF0.386
aF1.2
aF3.3
aF0.345
aF1.8
aF2.2
aF0.84
aF0.6
aF3.1
aF3.7
aF1.1
aF1.1
aF0.3
aF0.5
aF0.3
aF2.7
aF2.1
aF10.2
aF1.6
aI1
aI0
aI5
aV200745,1610612761
p140
aa(lp141
I1905
aVAndrei Kirilenko
p142
aI1610612762
aVUTA
p143
aF27.0
aI72
aI47
aI25
aF0.653
aF30.8
aF3.8
aF7.6
aF0.506
aF0.6
aF1.6
aF0.379
aF2.8
aF3.6
aF0.77
aF1.7
aF3.0
aF4.7
aF4.0
aF1.9
aF1.2
aF1.5
aF0.3
aF2.3
aF2.8
aF11.0
aF5.5
aI4
aI1
aI5
aV1905,1610612762
p144
aa(lp145
I2804
aVAndres Nocioni
p146
aI1610612741
aVCHI
p147
aF28.0
aI82
aI33
aI49
aF0.402
aF24.6
aF4.6
aF10.7
aF0.432
aF1.5
aF4.2
aF0.364
aF2.4
aF3.0
aF0.807
aF0.6
aF3.6
aF4.2
aF1.2
aF1.6
aF0.3
aF0.5
aF0.6
aF3.0
aF2.6
aF13.2
aF-1.5
aI1
aI0
aI5
aV2804,1610612741
p148
aa(lp149
I101106
aVAndrew Bogut
p150
aI1610612749
aVMIL
p151
aF23.0
aI78
aI26
aI52
aF0.333
aF34.9
aF6.0
aF11.7
aF0.511
aF0.0
aF0.1
aF0.0
aF2.4
aF4.1
aF0.587
aF3.1
aF6.6
aF9.8
aF2.6
aF2.2
aF0.8
aF1.7
aF0.8
aF3.3
aF3.8
aF14.3
aF-4.5
aI38
aI0
aI5
aV101106,1610612749
p152
aa(lp153
I101115
aVAndrew Bynum
p154
aI1610612747
aVLAL
p155
aF20.0
aI35
aI24
aI11
aF0.686
aF28.8
aF5.4
aF8.5
aF0.636
aF0.0
aF0.0
aF0.0
aF2.3
aF3.4
aF0.695
aF3.0
aF7.2
aF10.2
aF1.7
aF1.5
aF0.3
aF2.1
aF0.8
aF2.8
aF2.7
aF13.1
aF6.8
aI18
aI0
aI5
aV101115,1610612747
p156
aa(lp157
I2740
aVAndris Biedrins
p158
aI1610612744
aVGSW
p159
aF22.0
aI76
aI44
aI32
aF0.579
aF27.3
aF4.5
aF7.1
aF0.626
aF0.0
aF0.0
aF0.0
aF1.5
aF2.5
aF0.62
aF3.4
aF6.4
aF9.8
aF1.0
aF1.1
aF0.7
aF1.2
aF0.6
aF3.4
aF2.2
aF10.5
aF2.7
aI27
aI0
aI5
aV2740,1610612744
p160
aa(lp161
I358
aVAnfernee Hardaway
p162
aI1610612748
aVMIA
p163
aF36.0
aI16
aI4
aI12
aF0.25
aF20.3
aF1.4
aF3.8
aF0.367
aF0.5
aF1.2
aF0.421
aF0.5
aF0.6
aF0.889
aF0.2
aF2.0
aF2.2
aF2.2
aF0.8
aF1.2
aF0.1
aF0.1
aF1.5
aF0.6
aF3.8
aF-1.9
aI0
aI0
aI5
aV358,1610612748
p164
aa(lp165
I1712
aVAntawn Jamison
p166
aI1610612764
aVWAS
p167
aF32.0
aI79
aI41
aI38
aF0.519
aF38.7
aF7.8
aF17.9
aF0.436
aF1.5
aF4.5
aF0.339
aF4.2
aF5.5
aF0.76
aF2.7
aF7.5
aF10.2
aF1.5
aF1.4
aF1.3
aF0.4
aF0.7
aF2.5
aF4.5
aF21.4
aF2.5
aI44
aI0
aI5
aV1712,1610612764
p168
aa(lp169
I1853
aVAnthony Carter
p170
aI1610612743
aVDEN
p171
aF33.0
aI70
aI42
aI28
aF0.6
aF28.0
aF3.1
aF6.8
aF0.458
aF0.6
aF1.8
aF0.349
aF0.9
aF1.2
aF0.753
aF0.4
aF2.5
aF2.9
aF5.5
aF1.8
aF1.5
aF0.4
aF0.3
aF2.5
aF1.0
aF7.8
aF0.0
aI4
aI0
aI5
aV1853,1610612743
p172
aa(lp173
I1533
aVAnthony Johnson
p174
aI1610612758
aVSAC
p175
aF33.0
aI69
aI32
aI37
aF0.464
aF22.2
aF2.2
aF5.1
aF0.437
aF0.6
aF1.3
aF0.452
aF0.5
aF0.6
aF0.814
aF0.3
aF1.7
aF2.0
aF3.8
aF1.2
aF0.8
aF0.1
aF0.3
aF1.7
aF0.8
aF5.6
aF-1.4
aI4
aI0
aI5
aV1533,1610612758
p176
aa(lp177
I1515
aVAnthony Parker
p178
aI1610612761
aVTOR
p179
aF33.0
aI82
aI41
aI41
aF0.5
aF32.1
aF4.8
aF10.1
aF0.476
aF1.6
aF3.7
aF0.438
aF1.2
aF1.5
aF0.816
aF0.6
aF3.5
aF4.1
aF2.2
aF1.1
aF1.0
aF0.2
aF0.5
aF1.9
aF1.6
aF12.5
aF2.1
aI0
aI0
aI5
aV1515,1610612761
p180
aa(lp181
I952
aVAntoine Walker
p182
aI1610612750
aVMIN
p183
aF31.0
aI46
aI10
aI36
aF0.217
aF19.4
aF3.0
aF8.2
aF0.363
aF1.3
aF4.1
aF0.324
aF0.8
aF1.4
aF0.53
aF1.2
aF2.4
aF3.7
aF1.0
aF1.0
aF0.7
aF0.2
aF0.5
aF1.7
aF1.2
aF8.0
aF-1.8
aI1
aI0
aI5
aV952,1610612750
p184
aa(lp185
I101120
aVAntoine Wright
p186
aI1610612742
aVDAL
p187
aF24.0
aI56
aI26
aI30
aF0.464
aF22.0
aF2.4
aF5.9
aF0.413
aF0.6
aF2.0
aF0.291
aF0.8
aF1.2
aF0.687
aF0.7
aF1.9
aF2.6
aF1.4
aF0.9
aF0.5
aF0.4
aF0.3
aF2.3
aF1.1
aF6.3
aF-3.1
aI0
aI0
aI5
aV101120,1610612742
p188
aa(lp189
I1498
aVAntonio Daniels
p190
aI1610612764
aVWAS
p191
aF33.0
aI71
aI40
aI31
aF0.563
aF30.4
aF2.9
aF6.3
aF0.459
aF0.2
aF1.0
aF0.23
aF2.4
aF3.1
aF0.776
aF0.3
aF2.5
aF2.9
aF4.8
aF1.3
aF1.0
aF0.0
aF0.3
aF1.1
aF2.7
aF8.4
aF0.2
aI3
aI0
aI5
aV1498,1610612764
p192
aa(lp193
I686
aVAntonio McDyess
p194
aI1610612765
aVDET
p195
aF33.0
aI78
aI57
aI21
aF0.731
aF29.3
aF3.8
aF7.7
aF0.488
aF0.0
aF0.0
aF0.0
aF1.2
aF2.0
aF0.622
aF2.6
aF5.9
aF8.5
aF1.1
aF1.0
aF0.8
aF0.7
aF0.2
aF3.2
aF2.0
aF8.8
aF3.9
aI16
aI0
aI5
aV686,1610612765
p196
aa(lp197
I201167
aVArron Afflalo
p198
aI1610612765
aVDET
p199
aF22.0
aI75
aI55
aI20
aF0.733
aF12.9
aF1.3
aF3.2
aF0.411
aF0.1
aF0.6
aF0.208
aF0.9
aF1.2
aF0.782
aF0.5
aF1.3
aF1.8
aF0.7
aF0.5
aF0.4
aF0.1
aF0.4
aF1.1
aF0.9
aF3.7
aF1.6
aI0
aI0
aI5
aV201167,1610612765
p200
aa(lp201
I1506
aVAustin Croshere
p202
aI1610612744
aVGSW
p203
aF33.0
aI44
aI26
aI18
aF0.591
aF10.4
aF1.4
aF3.1
aF0.445
aF0.5
aF1.4
aF0.361
aF0.7
aF0.7
aF0.906
aF0.8
aF1.6
aF2.4
aF0.7
aF0.5
aF0.2
aF0.1
aF0.2
aF1.4
aF0.8
aF3.9
aF0.1
aI0
aI0
aI5
aV1506,1610612744
p204
aa(lp205
I2852
aVAwvee Storey
p206
aI1610612749
aVMIL
p207
aF31.0
aI26
aI4
aI22
aF0.154
aF9.9
aF1.5
aF3.4
aF0.438
aF0.0
aF0.3
aF0.0
aF0.5
aF1.1
aF0.483
aF1.2
aF0.9
aF2.1
aF0.6
aF0.4
aF0.3
aF0.0
aF0.1
aF1.6
aF0.9
aF3.5
aF-2.2
aI0
aI0
aI5
aV2852,1610612749
p208
aa(lp209
I1884
aVBaron Davis
p210
aI1610612744
aVGSW
p211
aF29.0
aI82
aI48
aI34
aF0.585
aF39.0
aF7.9
aF18.6
aF0.426
aF2.1
aF6.4
aF0.33
aF3.9
aF5.2
aF0.75
aF1.2
aF3.5
aF4.7
aF7.6
aF2.8
aF2.3
aF0.5
aF0.9
aF3.0
aF4.6
aF21.8
aF3.0
aI18
aI3
aI5
aV1884,1610612744
p212
aa(lp213
I2732
aVBen Gordon
p214
aI1610612741
aVCHI
p215
aF25.0
aI72
aI29
aI43
aF0.403
aF31.8
aF6.4
aF14.8
aF0.434
aF2.0
aF4.8
aF0.41
aF3.7
aF4.1
aF0.908
aF0.6
aF2.5
aF3.1
aF3.0
aF2.1
aF0.8
aF0.1
aF0.6
aF2.4
aF3.4
aF18.6
aF-3.2
aI0
aI0
aI5
aV2732,1610612741
p216
aa(lp217
I1112
aVBen Wallace
p218
aI1610612739
aVCLE
p219
aF33.0
aI72
aI31
aI41
aF0.431
aF30.6
aF1.9
aF4.9
aF0.392
aF0.0
aF0.1
aF0.0
aF1.0
aF2.3
aF0.426
aF3.3
aF5.1
aF8.4
aF1.5
aF0.9
aF1.2
aF1.6
aF0.4
aF1.7
aF2.4
aF4.8
aF-1.8
aI4
aI0
aI5
aV1112,1610612739
p220
aa(lp221
I2757
aVBeno Udrih
p222
aI1610612758
aVSAC
p223
aF25.0
aI65
aI31
aI34
aF0.477
aF32.0
aF5.0
aF10.9
aF0.463
aF0.8
aF2.1
aF0.387
aF1.9
aF2.3
aF0.85
aF0.5
aF2.8
aF3.3
aF4.3
aF2.3
aF0.9
aF0.2
aF0.8
aF2.1
aF2.0
aF12.8
aF-0.3
aI3
aI0
aI5
aV2757,1610612758
p224
aa(lp225
I2873
aVBilly Thomas
p226
aI1610612739
aVCLE
p227
aF32.0
aI11
aI7
aI4
aF0.636
aF3.8
aF0.4
aF1.5
aF0.235
aF0.4
aF1.5
aF0.25
aF0.2
aF0.2
aF1.0
aF0.0
aF0.2
aF0.2
aF0.0
aF0.4
aF0.1
aF0.0
aF0.0
aF0.4
aF0.1
aF1.3
aF-0.5
aI0
aI0
aI5
aV2873,1610612739
p228
aa(lp229
I201336
aVBlake Ahearn
p230
aI1610612748
aVMIA
p231
aF24.0
aI12
aI1
aI11
aF0.083
aF14.8
aF1.3
aF4.8
aF0.263
aF0.8
aF2.8
aF0.294
aF2.5
aF2.6
aF0.968
aF0.1
aF1.5
aF1.6
aF1.6
aF1.3
aF0.5
aF0.0
aF0.3
aF1.7
aF2.5
aF5.8
aF-6.3
aI0
aI0
aI5
aV201336,1610612748
p232
aa(lp233
I448
aVBo Outlaw
p234
aI1610612753
aVORL
p235
aF37.0
aI2
aI2
aI0
aF1.0
aF3.3
aF1.0
aF1.5
aF0.667
aF0.0
aF0.0
aF0.0
aF0.0
aF0.0
aF0.0
aF0.0
aF0.0
aF0.0
aF0.0
aF0.5
aF0.0
aF0.0
aF0.0
aF0.5
aF0.5
aF2.0
aF-2.0
aI0
aI0
aI5
aV448,1610612753
p236
aa(lp237
I1517
aVBobby Jackson
p238
aI1610612745
aVHOU
p239
aF35.0
aI72
aI52
aI20
aF0.722
aF19.3
aF2.8
aF7.0
aF0.403
aF1.1
aF3.1
aF0.358
aF0.9
aF1.1
aF0.79
aF0.5
aF2.1
aF2.5
aF1.9
aF0.8
aF0.6
aF0.1
aF0.3
aF1.3
aF1.0
aF7.7
aF2.0
aI0
aI0
aI5
aV1517,1610612745
p240
aa(lp241
I200784
aVBobby Jones
p242
aI1610612743
aVDEN
p243
aF24.0
aI46
aI24
aI22
aF0.522
aF11.5
aF1.3
aF3.0
aF0.429
aF0.4
aF1.2
aF0.34
aF0.9
aF1.1
aF0.784
aF0.6
aF1.4
aF2.0
aF0.6
aF0.6
aF0.3
aF0.1
aF0.3
aF1.8
aF1.0
aF3.9
aF-1.6
aI1
aI0
aI5
aV200784,1610612743
p244
aa(lp245
I2250
aVBobby Simmons
p246
aI1610612749
aVMIL
p247
aF28.0
aI70
aI24
aI46
aF0.343
aF21.7
aF3.0
aF7.1
aF0.421
aF0.9
aF2.4
aF0.351
aF0.8
aF1.0
aF0.757
aF1.0
aF2.3
aF3.2
aF1.1
aF1.1
aF0.7
aF0.1
aF0.2
aF2.0
aF0.9
aF7.6
aF-3.1
aI0
aI0
aI5
aV2250,1610612749
p248
aa(lp249
I1719
aVBonzi Wells
p250
aI1610612740
aVNOH
p251
aF31.0
aI73
aI44
aI29
aF0.603
aF21.4
aF3.5
aF7.8
aF0.443
aF0.2
aF0.7
aF0.24
aF2.0
aF3.1
aF0.643
aF1.2
aF3.4
aF4.5
aF1.3
aF1.4
aF1.0
aF0.4
aF0.4
aF2.2
aF2.4
aF9.1
aF0.3
aI6
aI0
aI5
aV1719,1610612740
p252
aa(lp253
I2564
aVBoris Diaw
p254
aI1610612756
aVPHX
p255
aF26.0
aI82
aI55
aI27
aF0.671
aF28.1
aF3.8
aF7.9
aF0.477
aF0.2
aF0.5
aF0.317
aF1.2
aF1.6
aF0.744
aF1.2
aF3.4
aF4.6
aF3.9
aF1.9
aF0.7
aF0.5
aF0.4
aF2.0
aF2.0
aF8.8
aF2.0
aI4
aI0
aI5
aV2564,1610612756
p256
aa(lp257
I2411
aVBostjan Nachbar
p258
aI1610612751
aVNJN
p259
aF27.0
aI75
aI33
aI42
aF0.44
aF22.1
aF3.3
aF8.1
aF0.402
aF1.3
aF3.5
aF0.359
aF2.1
aF2.6
aF0.786
aF0.7
aF2.7
aF3.5
aF1.2
aF1.1
aF0.6
aF0.3
aF0.7
aF2.4
aF2.1
aF9.8
aF-3.6
aI1
aI0
aI5
aV2411,1610612751
p260
aa(lp261
I1802
aVBrad Miller
p262
aI1610612758
aVSAC
p263
aF32.0
aI72
aI35
aI37
aF0.486
aF34.9
aF4.7
aF10.1
aF0.463
aF0.4
aF1.3
aF0.311
aF3.6
aF4.3
aF0.848
aF2.3
aF7.1
aF9.5
aF3.7
aF2.3
aF1.0
aF1.0
aF0.8
aF3.4
aF3.4
aF13.4
aF1.2
aI29
aI0
aI5
aV1802,1610612758
p264
aa(lp265
I201148
aVBrandan Wright
p266
aI1610612744
aVGSW
p267
aF20.0
aI38
aI22
aI16
aF0.579
aF9.9
aF1.6
aF2.9
aF0.554
aF0.0
aF0.0
aF0.0
aF0.7
aF1.1
aF0.675
aF1.0
aF1.6
aF2.6
aF0.2
aF0.3
aF0.2
aF0.6
aF0.3
aF0.9
aF0.8
aF4.0
aF-0.8
aI0
aI0
aI5
aV201148,1610612744
p268
aa(lp269
I101138
aVBrandon Bass
p270
aI1610612742
aVDAL
p271
aF23.0
aI79
aI48
aI31
aF0.608
aF19.7
aF3.1
aF6.2
aF0.499
aF0.0
aF0.1
aF0.0
aF2.1
aF2.5
aF0.822
aF1.5
aF2.9
aF4.4
aF0.7
aF1.0
aF0.3
aF0.6
aF0.6
aF1.9
aF1.8
aF8.3
aF-0.6
aI3
aI0
aI5
aV101138,1610612742
p272
aa(lp273
I200750
aVBrandon Roy
p274
aI1610612757
aVPOR
p275
aF23.0
aI74
aI40
aI34
aF0.541
aF37.7
aF7.2
aF15.8
aF0.454
aF1.0
aF2.9
aF0.34
aF3.8
aF5.0
aF0.753
aF1.1
aF3.6
aF4.7
aF5.8
aF1.8
aF1.1
aF0.2
aF0.7
aF2.0
aF4.7
aF19.1
aF0.4
aI10
aI1
aI5
aV200750,1610612757
p276
aa(lp277
I2217
aVBrendan Haywood
p278
aI1610612764
aVWAS
p279
aF28.0
aI80
aI41
aI39
aF0.513
aF27.9
aF4.0
aF7.5
aF0.528
aF0.0
aF0.0
aF0.0
aF2.7
aF3.7
aF0.735
aF3.4
aF3.8
aF7.2
aF0.9
aF1.4
aF0.4
aF1.7
aF0.7
aF2.7
aF3.1
aF10.6
aF1.1
aI16
aI0
aI5
aV2217,1610612764
p280
aa(lp281
I699
aVBrent Barry
p282
aI1610612759
aVSAS
p283
aF36.0
aI31
aI22
aI9
aF0.71
aF17.9
aF2.5
aF5.2
aF0.481
aF1.5
aF3.6
aF0.429
aF0.6
aF0.6
aF0.95
aF0.4
aF1.4
aF1.8
aF1.7
aF0.6
aF0.5
aF0.1
aF0.1
aF1.4
aF0.8
aF7.1
aF2.0
aI0
aI0
aI5
aV699,1610612759
p284
aa(lp285
I1510
aVBrevin Knight
p286
aI1610612746
aVLAC
p287
aF32.0
aI74
aI22
aI52
aF0.297
aF22.6
aF1.9
aF4.6
aF0.404
aF0.0
aF0.1
aF0.0
aF0.8
aF1.0
aF0.873
aF0.2
aF1.7
aF1.9
aF4.4
aF1.0
aF1.4
aF0.1
aF0.1
aF2.2
aF1.1
aF4.6
aF-4.5
aI1
aI0
aI5
aV1510,1610612746
p288
aa(lp289
I2073
aVBrian Cardinal
p290
aI1610612763
aVMEM
p291
aF31.0
aI37
aI7
aI30
aF0.189
aF11.9
aF1.2
aF3.4
aF0.341
aF0.7
aF2.2
aF0.309
aF0.4
aF0.5
aF0.684
aF0.7
aF1.9
aF2.6
aF0.6
aF0.6
aF0.3
aF0.1
aF0.1
aF1.7
aF0.7
aF3.4
aF0.3
aI0
aI0
aI5
aV2073,1610612763
p292
aa(lp293
I2567
aVBrian Cook
p294
aI1610612753
aVORL
p295
aF27.0
aI51
aI33
aI18
aF0.647
aF12.3
aF1.7
aF4.6
aF0.376
aF0.8
aF2.3
aF0.374
aF0.4
aF0.4
aF0.905
aF0.5
aF1.6
aF2.1
aF0.5
aF0.8
aF0.3
aF0.2
aF0.2
aF1.8
aF0.5
aF4.7
aF0.2
aI0
aI0
aI5
aV2567,1610612753
p296
aa(lp297
I2243
aVBrian Scalabrine
p298
aI1610612738
aVBOS
p299
aF30.0
aI48
aI40
aI8
aF0.833
aF10.7
aF0.6
aF2.0
aF0.309
aF0.3
aF1.0
aF0.326
aF0.3
aF0.4
aF0.75
aF0.5
aF1.2
aF1.6
aF0.8
aF0.5
aF0.2
aF0.2
aF0.1
aF1.3
aF0.4
aF1.8
aF1.0
aI0
aI0
aI5
aV2243,1610612738
p300
aa(lp301
I1730
aVBrian Skinner
p302
aI1610612756
aVPHX
p303
aF32.0
aI66
aI47
aI19
aF0.712
aF12.8
aF1.4
aF3.0
aF0.465
aF0.0
aF0.0
aF0.667
aF0.5
aF1.0
aF0.524
aF1.0
aF2.7
aF3.6
aF0.2
aF0.6
aF0.3
aF1.2
aF0.2
aF1.7
aF1.0
aF3.3
aF-1.1
aI0
aI0
aI5
aV1730,1610612756
p304
aa(lp305
I1477
aVBruce Bowen
p306
aI1610612759
aVSAS
p307
aF37.0
aI81
aI56
aI25
aF0.691
aF30.2
aF2.1
aF5.3
aF0.407
aF1.1
aF2.7
aF0.419
aF0.6
aF0.9
aF0.652
aF0.4
aF2.5
aF2.9
aF1.1
aF0.6
aF0.7
aF0.3
aF0.2
aF2.2
aF1.1
aF6.0
aF2.5
aI0
aI0
aI5
aV1477,1610612759
p308
aa(lp309
I101139
aVCJ Miles
p310
aI1610612762
aVUTA
p311
aF21.0
aI60
aI38
aI22
aF0.633
aF11.5
aF1.9
aF3.9
aF0.479
aF0.5
aF1.3
aF0.39
aF0.7
aF0.9
aF0.788
aF0.3
aF1.0
aF1.3
aF0.9
aF0.5
aF0.5
aF0.1
aF0.1
aF1.6
aF0.6
aF5.0
aF2.0
aI0
aI0
aI5
aV101139,1610612762
p312
aa(lp313
I201228
aVCJ Watson
p314
aI1610612744
aVGSW
p315
aF24.0
aI32
aI20
aI12
aF0.625
aF11.5
aF1.3
aF3.2
aF0.426
aF0.3
aF0.8
aF0.346
aF0.7
aF0.9
aF0.793
aF0.4
aF0.6
aF1.0
aF1.1
aF0.6
aF0.5
aF0.0
aF0.3
aF0.6
aF0.8
aF3.7
aF0.3
aI0
aI0
aI5
aV201228,1610612744
p316
aa(lp317
I1916
aVCalvin Booth
p318
aI1610612755
aVPHI
p319
aF32.0
aI31
aI13
aI18
aF0.419
aF6.6
aF0.3
aF0.9
aF0.333
aF0.0
aF0.0
aF0.0
aF0.2
aF0.3
aF0.6
aF0.2
aF1.0
aF1.2
aF0.3
aF0.1
aF0.2
aF0.6
aF0.1
aF1.1
aF0.4
aF0.8
aF0.0
aI0
aI0
aI5
aV1916,1610612755
p320
aa(lp321
I201171
aVCarl Landry
p322
aI1610612745
aVHOU
p323
aF24.0
aI42
aI32
aI10
aF0.762
aF16.9
aF3.2
aF5.2
aF0.616
aF0.0
aF0.0
aF0.0
aF1.7
aF2.6
aF0.661
aF2.3
aF2.6
aF4.9
aF0.5
aF0.6
aF0.4
aF0.2
aF0.6
aF2.3
aF2.1
aF8.1
aF2.3
aI1
aI0
aI5
aV201171,1610612745
p324
aa(lp325
I2306
aVCarlos Arroyo
p326
aI1610612753
aVORL
p327
aF28.0
aI62
aI40
aI22
aF0.645
aF20.5
aF2.5
aF5.6
aF0.451
aF0.5
aF1.4
aF0.345
aF1.4
aF1.6
aF0.853
aF0.2
aF1.7
aF1.8
aF3.5
aF1.2
aF0.4
aF0.0
aF0.2
aF1.4
aF1.6
aF6.9
aF2.2
aI0
aI0
aI5
aV2306,1610612753
p328
aa(lp329
I2430
aVCarlos Boozer
p330
aI1610612762
aVUTA
p331
aF26.0
aI81
aI53
aI28
aF0.654
aF34.9
aF8.8
aF16.0
aF0.547
aF0.0
aF0.0
aF0.0
aF3.6
aF4.9
aF0.738
aF2.4
aF8.0
aF10.4
aF2.9
aF2.6
aF1.2
aF0.5
aF1.1
aF3.6
aF3.4
aF21.1
aF5.2
aI51
aI1
aI5
aV2430,1610612762
p332
aa(lp333
I2568
aVCarlos Delfino
p334
aI1610612761
aVTOR
p335
aF25.0
aI82
aI41
aI41
aF0.5
aF23.5
aF3.1
aF7.7
aF0.397
aF1.5
aF3.8
aF0.382
aF1.4
aF1.9
aF0.744
aF0.8
aF3.6
aF4.4
aF1.8
aF0.9
aF0.8
aF0.1
aF0.4
aF2.2
aF1.5
aF9.0
aF0.3
aI1
aI0
aI5
aV2568,1610612761
p336
aa(lp337
I2546
aVCarmelo Anthony
p338
aI1610612743
aVDEN
p339
aF24.0
aI77
aI47
aI30
aF0.61
aF36.4
aF9.5
aF19.2
aF0.492
aF0.8
aF2.1
aF0.354
aF6.0
aF7.7
aF0.786
aF2.3
aF5.1
aF7.4
aF3.4
aF3.3
aF1.3
aF0.5
aF1.2
aF3.3
aF5.4
aF25.7
aF2.1
aI22
aI0
aI5
aV2546,1610612743
p340
aa(lp341
I2406
aVCaron Butler
p342
aI1610612764
aVWAS
p343
aF28.0
aI58
aI33
aI25
aF0.569
aF39.9
aF7.6
aF16.3
aF0.466
aF1.1
aF3.2
aF0.357
aF4.1
aF4.5
aF0.901
aF1.6
aF5.1
aF6.7
aF4.9
aF2.6
aF2.2
aF0.3
aF0.8
aF2.8
aF3.6
aF20.3
aF2.9
aI9
aI3
aI5
aV2406,1610612764
p344
aa(lp345
I2418
aVCasey Jacobsen
p346
aI1610612763
aVMEM
p347
aF27.0
aI53
aI15
aI38
aF0.283
aF10.3
aF0.7
aF2.2
aF0.339
aF0.3
aF1.4
aF0.222
aF0.2
aF0.3
aF0.765
aF0.2
aF1.0
aF1.2
aF0.4
aF0.3
aF0.1
aF0.0
aF0.2
aF0.6
aF0.5
aF2.0
aF0.5
aI0
aI0
aI5
aV2418,1610612763
p348
aa(lp349
I200759
aVCedric Simmons
p350
aI1610612741
aVCHI
p351
aF22.0
aI14
aI7
aI7
aF0.5
aF6.2
aF0.3
aF1.0
aF0.286
aF0.0
aF0.0
aF0.0
aF0.0
aF0.7
aF0.0
aF0.4
aF0.9
aF1.3
aF0.0
aF0.4
aF0.1
aF0.4
aF0.2
aF0.6
aF0.6
aF0.6
aF-2.5
aI0
aI0
aI5
aV200759,1610612741
p352
aa(lp353
I101112
aVChanning Frye
p354
aI1610612757
aVPOR
p355
aF25.0
aI78
aI40
aI38
aF0.513
aF17.2
aF2.8
aF5.8
aF0.488
aF0.0
aF0.1
aF0.3
aF1.1
aF1.4
aF0.78
aF1.4
aF3.2
aF4.5
aF0.7
aF0.7
aF0.4
aF0.3
aF0.2
aF2.7
aF1.3
aF6.8
aF0.6
aI3
aI0
aI5
aV101112,1610612757
p356
aa(lp357
I101236
aVCharles Hayes
p358
aI1610612745
aVHOU
p359
aF25.0
aI79
aI52
aI27
aF0.658
aF19.9
aF1.4
aF2.8
aF0.511
aF0.0
aF0.0
aF0.0
aF0.1
aF0.3
aF0.458
aF1.7
aF3.7
aF5.4
aF1.2
aF0.8
aF1.1
aF0.5
aF0.2
aF2.7
aF0.5
aF3.0
aF2.6
aI0
aI0
aI5
aV101236,1610612745
p360
aa(lp361
I2294
aVCharlie Bell
p362
aI1610612749
aVMIL
p363
aF29.0
aI68
aI24
aI44
aF0.353
aF23.9
aF2.7
aF7.1
aF0.381
aF1.1
aF3.2
aF0.341
aF1.0
aF1.3
aF0.805
aF0.5
aF2.0
aF2.5
aF3.1
aF1.1
aF0.8
aF0.0
aF0.5
aF1.8
aF1.3
aF7.6
aF-3.7
aI0
aI0
aI5
aV2294,1610612749
p364
aa(lp365
I101111
aVCharlie Villanueva
p366
aI1610612749
aVMIL
p367
aF23.0
aI76
aI24
aI52
aF0.316
aF24.1
aF4.7
aF10.7
aF0.435
aF0.7
aF2.4
aF0.297
aF1.6
aF2.1
aF0.783
aF1.9
aF4.2
aF6.1
aF1.0
aF1.4
aF0.4
aF0.5
aF0.5
aF2.3
aF1.6
aF11.7
aF-4.6
aI9
aI0
aI5
aV101111,1610612749
p368
aa(lp369
I1497
aVChauncey Billups
p370
aI1610612765
aVDET
p371
aF31.0
aI78
aI56
aI22
aF0.718
aF32.3
aF5.0
aF11.2
aF0.448
aF1.8
aF4.4
aF0.401
aF5.1
aF5.6
aF0.918
aF0.5
aF2.2
aF2.7
aF6.8
aF2.1
aF1.3
aF0.2
aF0.3
aF1.7
aF4.2
aF17.0
aF6.7
aI13
aI0
aI5
aV1497,1610612765
p372
aa(lp373
I200798
aVCheikh Samb
p374
aI1610612765
aVDET
p375
aF23.0
aI4
aI2
aI2
aF0.5
aF7.8
aF0.8
aF1.0
aF0.75
aF0.0
aF0.0
aF0.0
aF0.3
aF0.5
aF0.5
aF0.8
aF1.0
aF1.8
aF0.0
aF0.3
aF0.3
aF0.5
aF0.0
aF2.0
aF0.3
aF1.8
aF0.8
aI0
aI0
aI5
aV200798,1610612765
p376
aa(lp377
I2365
aVChris Andersen
p378
aI1610612740
aVNOH
p379
aF29.0
aI5
aI4
aI1
aF0.8
aF6.8
aF0.4
aF1.4
aF0.286
aF0.0
aF0.0
aF0.0
aF0.4
aF0.8
aF0.5
aF0.4
aF1.4
aF1.8
aF0.0
aF0.2
aF0.0
aF0.8
aF0.2
aF1.2
aF0.6
aF1.2
aF0.8
aI0
aI0
aI5
aV2365,1610612740
p380
aa(lp381
I2547
aVChris Bosh
p382
aI1610612761
aVTOR
p383
aF24.0
aI67
aI37
aI30
aF0.552
aF36.2
aF7.6
aF15.3
aF0.494
aF0.1
aF0.4
aF0.4
aF7.0
aF8.3
aF0.844
aF2.6
aF6.1
aF8.7
aF2.6
aF2.3
aF0.9
aF1.0
aF1.0
aF2.3
aF6.4
aF22.3
aF5.3
aI28
aI0
aI5
aV2547,1610612761
p384
aa(lp385
I2768
aVChris Duhon
p386
aI1610612741
aVCHI
p387
aF25.0
aI66
aI25
aI41
aF0.379
aF22.6
aF2.0
aF5.2
aF0.387
aF0.8
aF2.3
aF0.348
aF1.0
aF1.2
aF0.813
aF0.3
aF1.5
aF1.8
aF4.0
aF1.1
aF0.7
aF0.0
aF0.4
aF1.4
aF0.9
aF5.8
aF-1.0
aI1
aI0
aI5
aV2768,1610612741
p388
aa(lp389
I2549
aVChris Kaman
p390
aI1610612746
aVLAC
p391
aF26.0
aI56
aI20
aI36
aF0.357
aF37.2
aF6.0
aF12.5
aF0.483
aF0.0
aF0.1
aF0.0
aF3.6
aF4.7
aF0.762
aF3.1
aF9.6
aF12.7
aF1.9
aF2.9
aF0.6
aF2.8
aF1.2
aF3.2
aF3.8
aF15.7
aF-3.3
aI36
aI0
aI5
aV2549,1610612746
p392
aa(lp393
I2036
aVChris Mihm
p394
aI1610612747
aVLAL
p395
aF28.0
aI23
aI14
aI9
aF0.609
aF12.1
aF1.4
aF4.1
aF0.337
aF0.0
aF0.0
aF0.0
aF0.8
aF1.2
aF0.667
aF1.2
aF2.1
aF3.3
aF0.6
aF0.7
aF0.2
aF0.6
aF0.4
aF1.8
aF1.2
aF3.6
aF-0.9
aI1
aI0
aI5
aV2036,1610612747
p396
aa(lp397
I101108
aVChris Paul
p398
aI1610612740
aVNOH
p399
aF23.0
aI80
aI55
aI25
aF0.688
aF37.6
aF7.9
aF16.1
aF0.488
aF1.2
aF3.1
aF0.369
aF4.2
aF4.9
aF0.851
aF0.8
aF3.2
aF4.0
aF11.6
aF2.5
aF2.7
aF0.1
aF0.6
aF2.3
aF5.1
aF21.1
aF6.0
aI56
aI1
aI5
aV101108,1610612740
p400
aa(lp401
I200809
aVChris Quinn
p402
aI1610612748
aVMIA
p403
aF24.0
aI60
aI11
aI49
aF0.183
aF22.3
aF2.6
aF6.2
aF0.424
aF1.1
aF2.7
aF0.403
aF1.4
aF1.6
aF0.867
aF0.2
aF1.8
aF2.0
aF3.0
aF0.9
aF0.8
aF0.1
aF0.3
aF1.5
aF1.6
aF7.8
aF-2.7
aI0
aI0
aI5
aV200809,1610612748
p404
aa(lp405
I201181
aVChris Richard
p406
aI1610612750
aVMIN
p407
aF23.0
aI52
aI14
aI38
aF0.269
aF10.7
aF0.8
aF1.7
aF0.471
aF0.0
aF0.0
aF0.0
aF0.3
aF0.5
aF0.593
aF1.0
aF1.6
aF2.6
aF0.3
aF0.5
aF0.2
aF0.2
aF0.3
aF1.6
aF0.5
aF1.9
aF-0.5
aI0
aI0
aI5
aV201181,1610612750
p408
aa(lp409
I185
aVChris Webber
p410
aI1610612744
aVGSW
p411
aF35.0
aI9
aI6
aI3
aF0.667
aF14.0
aF1.7
aF3.4
aF0.484
aF0.0
aF0.0
aF0.0
aF0.6
aF1.3
aF0.417
aF0.2
aF3.3
aF3.6
aF2.0
aF1.2
aF0.4
aF0.7
aF0.0
aF1.9
aF0.7
aF3.9
aF-2.3
aI0
aI0
aI5
aV185,1610612744
p412
aa(lp413
I2404
aVChris Wilcox
p414
aI1610612760
aVSEA
p415
aF25.0
aI62
aI16
aI46
aF0.258
aF28.0
aF5.4
aF10.3
aF0.524
aF0.0
aF0.0
aF0.0
aF2.6
aF4.0
aF0.645
aF2.0
aF5.0
aF7.0
aF1.2
aF1.7
aF0.7
aF0.6
aF0.8
aF2.8
aF3.3
aF13.4
aF-3.0
aI17
aI0
aI5
aV2404,1610612760
p416
aa(lp417
I1088
aVChucky Atkins
p418
aI1610612743
aVDEN
p419
aF33.0
aI24
aI15
aI9
aF0.625
aF14.7
aF1.8
aF5.1
aF0.344
aF1.0
aF3.3
aF0.316
aF0.2
aF0.4
aF0.444
aF0.1
aF1.2
aF1.3
aF2.0
aF0.4
aF0.4
aF0.0
aF0.1
aF1.1
aF0.5
aF4.7
aF-0.6
aI0
aI0
aI5
aV1088,1610612743
p420
aa(lp421
I201207
aVCoby Karl
p422
aI1610612747
aVLAL
p423
aF25.0
aI17
aI16
aI1
aF0.941
aF4.2
aF0.5
aF1.5
aF0.346
aF0.2
aF0.8
aF0.308
aF0.5
aF0.6
aF0.8
aF0.2
aF0.6
aF0.8
aF0.5
aF0.3
aF0.2
aF0.1
aF0.2
aF0.2
aF0.5
aF1.8
aF0.5
aI0
aI0
aI5
aV201207,1610612747
p424
aa(lp425
I201147
aVCorey Brewer
p426
aI1610612750
aVMIN
p427
aF22.0
aI79
aI21
aI58
aF0.266
aF22.8
aF2.3
aF6.2
aF0.374
aF0.1
aF0.5
aF0.194
aF1.1
aF1.4
aF0.8
aF1.0
aF2.7
aF3.7
aF1.4
aF1.1
aF1.0
aF0.3
aF0.4
aF2.4
aF1.3
aF5.8
aF-4.1
aI0
aI0
aI5
aV201147,1610612750
p428
aa(lp429
I1894
aVCorey Maggette
p430
aI1610612746
aVLAC
p431
aF28.0
aI70
aI21
aI49
aF0.3
aF35.7
aF6.5
aF14.3
aF0.458
aF1.1
aF2.9
aF0.384
aF7.9
aF9.7
aF0.812
aF1.1
aF4.5
aF5.6
aF2.7
aF2.8
aF1.0
aF0.1
aF0.9
aF3.0
aF6.8
aF22.1
aF-3.4
aI6
aI0
aI5
aV1894,1610612746
p432
aa(lp433
I201235
aVCourtney Sims
p434
aI1610612754
aVIND
p435
aF24.0
aI3
aI2
aI1
aF0.667
aF3.7
aF0.0
aF0.3
aF0.0
aF0.0
aF0.0
aF0.0
aF0.0
aF0.0
aF0.0
aF0.3
aF0.3
aF0.7
aF0.3
aF0.0
aF0.0
aF0.0
aF0.0
aF0.7
aF0.0
aF0.0
aF-0.3
aI0
aI0
aI5
aV201235,1610612754
p436
aa(lp437
I200783
aVCraig Smith
p438
aI1610612750
aVMIN
p439
aF24.0
aI77
aI18
aI59
aF0.234
aF20.1
aF3.9
aF6.9
aF0.563
aF0.0
aF0.1
aF0.0
aF1.7
aF2.6
aF0.665
aF1.6
aF3.0
aF4.6
aF0.8
aF1.2
aF0.5
aF0.2
aF0.8
aF2.8
aF2.2
aF9.4
aF-3.0
aI1
aI0
aI5
aV200783,1610612750
p440
aa(lp441
I1749
aVCuttino Mobley
p442
aI1610612746
aVLAC
p443
aF32.0
aI77
aI22
aI55
aF0.286
aF35.1
aF4.9
aF11.3
aF0.433
aF0.9
aF2.5
aF0.349
aF2.1
aF2.6
aF0.819
aF0.6
aF2.9
aF3.6
aF2.6
aF1.6
aF1.0
aF0.4
aF0.5
aF2.0
aF2.3
aF12.8
aF-5.7
aI1
aI0
aI5
aV1749,1610612746
p444
aa(lp445
I2788
aVDJ Mbenga
p446
aI1610612747
aVLAL
p447
aF27.0
aI42
aI32
aI10
aF0.762
aF7.8
aF0.9
aF2.0
aF0.464
aF0.0
aF0.0
aF0.0
aF0.1
aF0.3
aF0.417
aF0.7
aF1.0
aF1.7
aF0.2
aF0.3
aF0.2
aF0.6
aF0.1
aF1.7
aF0.5
aF2.0
aF-0.1
aI0
aI0
aI5
aV2788,1610612747
p448
aa(lp449
I201199
aVDJ Strawberry
p450
aI1610612756
aVPHX
p451
aF23.0
aI33
aI23
aI10
aF0.697
aF8.2
aF0.9
aF2.8
aF0.315
aF0.2
aF0.8
aF0.24
aF0.3
aF0.6
aF0.474
aF0.3
aF0.6
aF0.8
aF0.9
aF0.3
aF0.4
aF0.2
aF0.2
aF1.1
aF0.7
aF2.2
aF-1.2
aI0
aI0
aI5
aV201199,1610612756
p452
aa(lp453
I201161
aVDaequan Cook
p454
aI1610612748
aVMIA
p455
aF21.0
aI59
aI9
aI50
aF0.153
aF24.4
aF3.3
aF8.7
aF0.381
aF1.3
aF4.0
aF0.332
aF0.8
aF1.0
aF0.825
aF0.3
aF2.7
aF3.0
aF1.3
aF1.1
aF0.4
aF0.2
aF0.5
aF2.7
aF0.8
aF8.8
aF-5.2
aI0
aI0
aI5
aV201161,1610612748
p456
aa(lp457
I2563
aVDahntay Jones
p458
aI1610612758
aVSAC
p459
aF27.0
aI25
aI11
aI14
aF0.44
aF8.2
aF0.9
aF2.1
aF0.434
aF0.0
aF0.2
aF0.167
aF1.4
aF2.0
aF0.667
aF0.3
aF1.1
aF1.4
aF0.5
aF0.4
aF0.3
aF0.2
aF0.1
aF1.1
aF1.5
aF3.2
aF-0.4
aI0
aI0
aI5
aV2563,1610612758
p460
aa(lp461
I2863
aVDamien Wilkins
p462
aI1610612760
aVSEA
p463
aF28.0
aI76
aI18
aI58
aF0.237
aF24.3
aF3.6
aF8.9
aF0.403
aF0.7
aF2.0
aF0.323
aF1.4
aF1.9
aF0.736
aF0.9
aF2.3
aF3.2
aF2.0
aF1.2
aF0.8
aF0.3
aF0.5
aF1.7
aF1.6
aF9.2
aF-5.9
aI0
aI0
aI5
aV2863,1610612760
p464
aa(lp465
I1800
aVDamon Jones
p466
aI1610612739
aVCLE
p467
aF31.0
aI67
aI35
aI32
aF0.522
aF19.9
aF2.3
aF5.4
aF0.416
aF1.7
aF4.1
aF0.417
aF0.3
aF0.4
aF0.714
aF0.1
aF1.0
aF1.1
aF1.9
aF0.5
aF0.3
aF0.0
aF0.1
aF1.0
aF0.3
aF6.5
aF0.8
aI0
aI0
aI5
aV1800,1610612739
p468
aa(lp469
I757
aVDamon Stoudamire
p470
aI1610612759
aVSAS
p471
aF34.0
aI60
aI31
aI29
aF0.517
aF17.3
aF2.0
aF5.6
aF0.356
aF0.8
aF2.5
aF0.336
aF0.5
aF0.6
aF0.794
aF0.3
aF1.6
aF2.0
aF2.8
aF1.3
aF0.5
aF0.0
aF0.4
aF1.3
aF0.7
aF5.3
aF-1.5
aI0
aI0
aI5
aV757,1610612759
p472
aa(lp473
I2424
aVDan Dickau
p474
aI1610612746
aVLAC
p475
aF29.0
aI67
aI15
aI52
aF0.224
aF15.5
aF1.9
aF4.4
aF0.419
aF0.5
aF1.6
aF0.333
aF1.0
aF1.2
aF0.829
aF0.2
aF1.3
aF1.4
aF2.6
aF0.8
aF0.5
aF0.0
aF0.1
aF1.6
aF1.1
aF5.3
aF-1.0
aI0
aI0
aI5
aV2424,1610612746
p476
aa(lp477
I2429
aVDan Gadzuric
p478
aI1610612749
aVMIL
p479
aF30.0
aI51
aI16
aI35
aF0.314
aF10.5
aF1.3
aF3.0
aF0.416
aF0.0
aF0.0
aF0.0
aF0.6
aF1.2
aF0.524
aF1.3
aF1.5
aF2.8
aF0.2
aF0.7
aF0.4
aF0.5
aF0.1
aF1.6
aF1.0
aF3.2
aF-1.6
aI0
aI0
aI5
aV2429,1610612749
p480
aa(lp481
I200789
aVDaniel Gibson
p482
aI1610612739
aVCLE
p483
aF22.0
aI58
aI32
aI26
aF0.552
aF30.4
aF3.5
aF8.0
aF0.432
aF2.0
aF4.6
aF0.44
aF1.5
aF1.8
aF0.81
aF0.5
aF1.8
aF2.3
aF2.5
aF1.3
aF0.8
aF0.2
aF0.4
aF2.8
aF1.6
aF10.4
aF1.7
aI0
aI0
aI5
aV200789,1610612739
p484
aa(lp485
I101122
aVDanny Granger
p486
aI1610612754
aVIND
p487
aF25.0
aI80
aI34
aI46
aF0.425
aF36.0
aF6.7
aF15.1
aF0.446
aF2.1
aF5.3
aF0.404
aF4.0
aF4.7
aF0.852
aF1.2
aF4.9
aF6.1
aF2.1
aF2.1
aF1.2
aF1.1
aF0.8
aF3.6
aF3.5
aF19.6
aF-1.9
aI7
aI0
aI5
aV101122,1610612754
p488
aa(lp489
I2443
aVDarius Songaila
p490
aI1610612764
aVWAS
p491
aF30.0
aI80
aI42
aI38
aF0.525
aF19.4
aF2.7
aF5.8
aF0.458
aF0.0
aF0.0
aF0.0
aF0.8
aF0.9
aF0.918
aF1.0
aF2.4
aF3.4
aF1.7
aF1.1
aF0.7
aF0.2
aF0.4
aF2.3
aF1.0
aF6.2
aF0.3
aI0
aI0
aI5
aV2443,1610612764
p492
aa(lp493
I200827
aVDarius Washington
p494
aI1610612759
aVSAS
p495
aF22.0
aI18
aI13
aI5
aF0.722
aF8.1
aF1.2
aF2.7
aF0.438
aF0.2
aF0.7
aF0.333
aF0.4
aF0.7
aF0.538
aF0.2
aF0.9
aF1.1
aF0.8
aF0.8
aF0.3
aF0.0
aF0.2
aF0.9
aF0.7
aF2.9
aF0.0
aI0
aI0
aI5
aV200827,1610612759
p496
aa(lp497
I2545
aVDarko Milicic
p498
aI1610612763
aVMEM
p499
aF23.0
aI70
aI19
aI51
aF0.271
aF23.8
aF3.1
aF7.1
aF0.438
aF0.0
aF0.0
aF0.0
aF1.0
aF1.7
aF0.554
aF1.8
aF4.2
aF6.1
aF0.8
aF1.4
aF0.5
aF1.6
aF0.6
aF2.6
aF1.6
aF7.2
aF-4.2
aI11
aI0
aI5
aV2545,1610612763
p500
aa(lp501
I353
aVDarrell Armstrong
p502
aI1610612751
aVNJN
p503
aF40.0
aI50
aI22
aI28
aF0.44
aF11.0
aF0.8
aF2.2
aF0.364
aF0.5
aF1.4
aF0.333
aF0.4
aF0.6
aF0.667
aF0.3
aF1.0
aF1.3
aF1.5
aF0.8
aF0.6
aF0.0
aF0.1
aF1.1
aF0.8
aF2.5
aF-2.3
aI0
aI0
aI5
aV353,1610612751
p504
aa(lp505
I239
aVDarrick Martin
p506
aI1610612761
aVTOR
p507
aF37.0
aI17
aI10
aI7
aF0.588
aF8.3
aF0.6
aF2.5
aF0.233
aF0.1
aF0.9
aF0.125
aF0.3
aF0.4
aF0.833
aF0.2
aF0.2
aF0.4
aF1.2
aF0.1
aF0.4
aF0.0
aF0.1
aF0.7
aF0.2
aF1.6
aF2.8
aI0
aI0
aI5
aV239,1610612761
p508
aa(lp509
I201208
aVDarryl Watkins
p510
aI1610612758
aVSAC
p511
aF23.0
aI9
aI2
aI7
aF0.222
aF7.9
aF0.6
aF1.7
aF0.333
aF0.0
aF0.0
aF0.0
aF0.2
aF0.6
aF0.4
aF0.6
aF0.8
aF1.3
aF0.0
aF0.8
aF0.2
aF0.2
aF0.1
aF0.9
aF0.6
aF1.3
aF-1.9
aI0
aI0
aI5
aV201208,1610612758
p512
aa(lp513
I2758
aVDavid Harrison
p514
aI1610612754
aVIND
p515
aF25.0
aI55
aI26
aI29
aF0.473
aF12.8
aF1.6
aF3.1
aF0.529
aF0.0
aF0.0
aF0.0
aF0.9
aF1.7
aF0.51
aF0.8
aF1.4
aF2.1
aF0.3
aF1.1
aF0.4
aF1.1
aF0.3
aF3.0
aF1.6
aF4.2
aF-0.2
aI0
aI0
aI5
aV2758,1610612754
p516
aa(lp517
I101135
aVDavid Lee
p518
aI1610612752
aVNYK
p519
aF25.0
aI81
aI22
aI59
aF0.272
aF29.1
aF4.2
aF7.6
aF0.552
aF0.0
aF0.0
aF0.0
aF2.4
aF2.9
aF0.819
aF3.0
aF6.0
aF8.9
aF1.2
aF1.2
aF0.7
aF0.4
aF1.0
aF2.6
aF2.3
aF10.8
aF-3.0
aI23
aI0
aI5
aV101135,1610612752
p520
aa(lp521
I2561
aVDavid West
p522
aI1610612740
aVNOH
p523
aF27.0
aI76
aI52
aI24
aF0.684
aF37.8
aF8.3
aF17.2
aF0.482
aF0.1
aF0.3
aF0.24
aF3.9
aF4.6
aF0.85
aF2.4
aF6.5
aF8.9
aF2.3
aF2.2
aF0.8
aF1.3
aF1.0
aF2.7
aF4.0
aF20.6
aF5.4
aI29
aI0
aI5
aV2561,1610612740
p524
aa(lp525
I2205
aVDeSagana Diop
p526
aI1610612751
aVNJN
p527
aF26.0
aI79
aI44
aI35
aF0.557
aF16.4
aF1.2
aF2.3
aF0.522
aF0.0
aF0.0
aF0.0
aF0.5
aF0.9
aF0.543
aF2.0
aF2.9
aF5.0
aF0.5
aF0.7
aF0.3
aF1.1
aF0.2
aF1.8
aF0.9
aF2.9
aF0.8
aI1
aI0
aI5
aV2205,1610612751
p528
aa(lp529
I2052
aVDeShawn Stevenson
p530
aI1610612764
aVWAS
p531
aF27.0
aI82
aI43
aI39
aF0.524
aF31.3
aF3.7
aF9.5
aF0.386
aF1.9
aF5.0
aF0.383
aF1.9
aF2.4
aF0.797
aF0.5
aF2.4
aF2.9
aF3.1
aF1.2
aF0.8
aF0.2
aF0.4
aF1.3
aF1.9
aF11.2
aF1.4
aI0
aI0
aI5
aV2052,1610612764
p532
aa(lp533
I2753
aVDelonte West
p534
aI1610612739
aVCLE
p535
aF24.0
aI61
aI23
aI38
aF0.377
aF25.1
aF3.2
aF7.8
aF0.413
aF0.8
aF2.2
aF0.356
aF1.1
aF1.5
aF0.736
aF0.5
aF2.7
aF3.2
aF3.8
aF1.9
aF1.0
aF0.5
aF0.5
aF1.7
aF1.1
aF8.3
aF-1.4
aI1
aI0
aI5
aV2753,1610612739
p536
aa(lp537
I201193
aVDemetris Nichols
p538
aI1610612741
aVCHI
p539
aF23.0
aI14
aI5
aI9
aF0.357
aF3.2
aF0.4
aF1.6
aF0.261
aF0.2
aF0.9
aF0.231
aF0.0
aF0.0
aF0.0
aF0.0
aF0.4
aF0.4
aF0.1
aF0.3
aF0.0
aF0.2
aF0.1
aF0.3
aF0.0
aF1.1
aF-1.4
aI0
aI0
aI5
aV201193,1610612741
p540
aa(lp541
I2035
aVDerMarr Johnson
p542
aI1610612759
aVSAS
p543
aF28.0
aI5
aI3
aI2
aF0.6
aF5.5
aF1.4
aF2.8
aF0.5
aF0.6
aF1.8
aF0.333
aF0.0
aF0.4
aF0.0
aF0.0
aF0.2
aF0.2
aF0.2
aF0.0
aF0.2
aF0.0
aF0.0
aF0.8
aF0.2
aF3.4
aF-0.4
aI0
aI0
aI5
aV2035,1610612759
p544
aa(lp545
I1507
aVDerek Anderson
p546
aI1610612766
aVCHA
p547
aF33.0
aI28
aI3
aI25
aF0.107
aF14.1
aF1.7
aF4.5
aF0.376
aF0.7
aF1.9
aF0.365
aF1.0
aF1.4
aF0.737
aF0.3
aF1.5
aF1.9
aF1.6
aF0.9
aF0.4
aF0.0
aF0.1
aF1.8
aF1.1
aF5.0
aF-3.8
aI0
aI0
aI5
aV1507,1610612766
p548
aa(lp549
I965
aVDerek Fisher
p550
aI1610612747
aVLAL
p551
aF33.0
aI82
aI57
aI25
aF0.695
aF27.4
aF4.1
aF9.5
aF0.436
aF1.4
aF3.4
aF0.406
aF2.0
aF2.3
aF0.883
aF0.3
aF1.8
aF2.1
aF2.9
aF1.1
aF1.0
aF0.0
aF0.4
aF2.3
aF2.4
aF11.7
aF3.9
aI0
aI0
aI5
aV965,1610612747
p552
aa(lp553
I101114
aVDeron Williams
p554
aI1610612762
aVUTA
p555
aF24.0
aI82
aI54
aI28
aF0.659
aF37.3
aF6.9
aF13.6
aF0.507
aF1.0
aF2.6
aF0.395
aF4.0
aF5.0
aF0.803
aF0.4
aF2.5
aF3.0
aF10.5
aF3.4
aF1.1
aF0.3
aF1.0
aF2.4
aF4.7
aF18.8
aF5.1
aI52
aI0
aI5
aV101114,1610612762
p556
aa(lp557
I2046
aVDesmond Mason
p558
aI1610612749
aVMIL
p559
aF30.0
aI59
aI18
aI41
aF0.305
aF28.8
aF3.9
aF8.1
aF0.482
aF0.0
aF0.0
aF0.0
aF1.9
aF2.9
aF0.659
aF1.3
aF3.1
aF4.3
aF2.1
aF1.4
aF0.7
aF0.5
aF0.5
aF1.8
aF2.4
aF9.7
aF-2.9
aI2
aI0
aI5
aV2046,1610612749
p560
aa(lp561
I1904
aVDevean George
p562
aI1610612742
aVDAL
p563
aF30.0
aI53
aI30
aI23
aF0.566
aF15.5
aF1.4
aF3.9
aF0.357
aF0.4
aF1.3
aF0.324
aF0.5
aF0.6
aF0.706
aF0.5
aF2.1
aF2.6
aF0.7
aF0.5
aF0.4
aF0.2
aF0.2
aF1.7
aF0.8
aF3.7
aF-0.7
aI0
aI0
aI5
aV1904,1610612742
p564
aa(lp565
I2484
aVDevin Brown
p566
aI1610612739
aVCLE
p567
aF29.0
aI78
aI44
aI34
aF0.564
aF22.6
aF2.8
aF6.8
aF0.409
aF0.6
aF1.9
aF0.308
aF1.4
aF1.8
aF0.754
aF0.8
aF2.5
aF3.4
aF2.2
aF1.3
aF0.7
aF0.1
aF0.5
aF1.8
aF1.5
aF7.5
aF-0.6
aI2
aI0
aI5
aV2484,1610612739
p568
aa(lp569
I2734
aVDevin Harris
p570
aI1610612751
aVNJN
p571
aF25.0
aI64
aI37
aI27
aF0.578
aF31.6
aF5.0
aF10.8
aF0.463
aF0.9
aF2.6
aF0.335
aF3.9
aF4.7
aF0.824
aF0.4
aF2.3
aF2.7
aF5.8
aF2.5
aF1.4
aF0.2
aF0.7
aF3.0
aF4.2
aF14.8
aF3.1
aI4
aI0
aI5
aV2734,1610612751
p572
aa(lp573
I87
aVDikembe Mutombo
p574
aI1610612745
aVHOU
p575
aF42.0
aI39
aI26
aI13
aF0.667
aF15.9
aF1.1
aF2.1
aF0.538
aF0.0
aF0.0
aF0.0
aF0.8
aF1.2
aF0.711
aF1.7
aF3.4
aF5.1
aF0.1
aF0.4
aF0.3
aF1.2
aF0.4
aF1.4
aF1.1
aF3.0
aF1.3
aI1
aI0
aI5
aV87,1610612745
p576
aa(lp577
I1717
aVDirk Nowitzki
p578
aI1610612742
aVDAL
p579
aF30.0
aI77
aI49
aI28
aF0.636
aF36.0
aF8.2
aF17.1
aF0.479
aF1.0
aF2.9
aF0.359
aF6.2
aF7.1
aF0.879
aF1.2
aF7.3
aF8.6
aF3.5
aF2.1
aF0.7
aF0.9
aF0.8
aF2.6
aF5.5
aF23.6
aF6.3
aI25
aI1
aI5
aV1717,1610612742
p580
aa(lp581
I201187
aVDominic McGuire
p582
aI1610612764
aVWAS
p583
aF22.0
aI70
aI35
aI35
aF0.5
aF9.9
aF0.6
aF1.5
aF0.379
aF0.0
aF0.1
aF0.167
aF0.2
aF0.5
aF0.438
aF0.8
aF1.2
aF2.0
aF0.6
aF0.6
aF0.3
aF0.4
aF0.1
aF1.1
aF0.3
aF1.3
aF-2.9
aI0
aI0
aI5
aV201187,1610612764
p584
aa(lp585
I923
aVDonyell Marshall
p586
aI1610612760
aVSEA
p587
aF35.0
aI26
aI6
aI20
aF0.231
aF13.1
aF1.2
aF3.8
aF0.327
aF0.6
aF2.0
aF0.283
aF0.7
aF0.8
aF0.864
aF0.9
aF2.0
aF2.9
aF0.4
aF0.6
aF0.2
aF0.6
aF0.2
aF1.2
aF0.7
aF3.8
aF-4.0
aI0
aI0
aI5
aV923,1610612760
p588
aa(lp589
I2748
aVDorell Wright
p590
aI1610612748
aVMIA
p591
aF22.0
aI44
aI7
aI37
aF0.159
aF25.1
aF3.3
aF6.7
aF0.488
aF0.1
aF0.3
aF0.364
aF1.3
aF1.6
aF0.826
aF1.1
aF3.9
aF5.0
aF1.4
aF0.7
aF0.7
aF0.9
aF0.3
aF1.8
aF1.2
aF7.9
aF-3.5
aI4
aI0
aI5
aV2748,1610612748
p592
aa(lp593
I2400
aVDrew Gooden
p594
aI1610612741
aVCHI
p595
aF26.0
aI69
aI35
aI34
aF0.507
aF30.8
aF4.8
aF10.7
aF0.449
aF0.0
aF0.1
aF0.0
aF2.3
aF3.1
aF0.753
aF2.5
aF6.0
aF8.6
aF1.2
aF1.8
aF0.7
aF0.8
aF0.9
aF2.9
aF2.4
aF12.0
aF-1.6
aI24
aI0
aI5
aV2400,1610612741
p596
aa(lp597
I101204
aVDwayne Jones
p598
aI1610612739
aVCLE
p599
aF25.0
aI56
aI31
aI25
aF0.554
aF8.4
aF0.4
aF0.8
aF0.532
aF0.0
aF0.0
aF0.0
aF0.5
aF1.0
aF0.483
aF1.2
aF1.3
aF2.5
aF0.2
aF0.3
aF0.2
aF0.4
aF0.2
aF1.6
aF0.7
aF1.4
aF-0.8
aI0
aI0
aI5
aV101204,1610612739
p600
aa(lp601
I2730
aVDwight Howard
p602
aI1610612753
aVORL
p603
aF22.0
aI82
aI52
aI30
aF0.634
aF37.7
aF7.1
aF11.9
aF0.599
aF0.0
aF0.0
aF0.0
aF6.5
aF10.9
aF0.59
aF3.4
aF10.8
aF14.2
aF1.3
aF3.2
aF0.9
aF2.1
aF0.9
aF3.3
aF8.6
aF20.7
aF5.9
aI69
aI0
aI5
aV2730,1610612753
p604
aa(lp605
I2548
aVDwyane Wade
p606
aI1610612748
aVMIA
p607
aF26.0
aI51
aI10
aI41
aF0.196
aF38.3
aF8.6
aF18.4
aF0.469
aF0.4
aF1.5
aF0.286
aF6.9
aF9.2
aF0.758
aF0.9
aF3.3
aF4.2
aF6.9
aF4.4
aF1.7
aF0.7
aF0.8
aF2.7
aF6.5
aF24.6
aF-5.0
aI9
aI0
aI5
aV2548,1610612748
p608
aa(lp609
I2853
aVEarl Barron
p610
aI1610612748
aVMIA
p611
aF26.0
aI46
aI8
aI38
aF0.174
aF19.3
aF2.9
aF7.1
aF0.404
aF0.0
aF0.3
aF0.077
aF1.3
aF1.9
aF0.701
aF1.5
aF2.8
aF4.3
aF0.6
aF1.0
aF0.4
aF0.2
aF0.5
aF2.5
aF1.7
aF7.1
aF-4.6
aI0
aI0
aI5
aV2853,1610612748
p612
aa(lp613
I1863
aVEarl Boykins
p614
aI1610612766
aVCHA
p615
aF32.0
aI36
aI14
aI22
aF0.389
aF16.0
aF1.7
aF4.8
aF0.355
aF0.4
aF1.2
aF0.318
aF1.4
aF1.6
aF0.831
aF0.3
aF0.7
aF0.9
aF2.7
aF1.1
aF0.4
aF0.0
aF0.3
aF0.6
aF1.1
aF5.1
aF-2.5
aI0
aI0
aI5
aV1863,1610612766
p616
aa(lp617
I2248
aVEarl Watson
p618
aI1610612760
aVSEA
p619
aF29.0
aI78
aI19
aI59
aF0.244
aF29.1
aF4.3
aF9.6
aF0.454
aF0.6
aF1.7
aF0.371
aF1.4
aF1.9
aF0.766
aF0.6
aF2.3
aF2.9
aF6.8
aF2.2
aF0.9
aF0.1
aF0.5
aF2.0
aF1.9
aF10.7
aF-5.6
aI7
aI1
aI5
aV2248,1610612760
p620
aa(lp621
I2109
aVEddie Gill
p622
aI1610612760
aVSEA
p623
aF29.0
aI14
aI6
aI8
aF0.429
aF10.9
aF0.9
aF2.2
aF0.387
aF0.4
aF1.1
aF0.333
aF0.6
aF0.6
aF1.0
aF0.1
aF1.5
aF1.6
aF1.6
aF0.6
aF0.5
aF0.1
aF0.1
aF1.3
aF0.7
aF2.7
aF-2.5
aI0
aI0
aI5
aV2109,1610612760
p624
aa(lp625
I2067
aVEddie House
p626
aI1610612738
aVBOS
p627
aF30.0
aI78
aI62
aI16
aF0.795
aF19.0
aF2.8
aF6.8
aF0.409
aF1.5
aF3.8
aF0.393
aF0.4
aF0.5
aF0.917
aF0.2
aF1.9
aF2.1
aF1.9
aF1.0
aF0.8
aF0.1
aF0.1
aF1.5
aF0.5
aF7.5
aF3.6
aI0
aI0
aI5
aV2067,1610612738
p628
aa(lp629
I224
aVEddie Jones
p630
aI1610612742
aVDAL
p631
aF36.0
aI47
aI31
aI16
aF0.66
aF19.6
aF1.4
aF3.8
aF0.367
aF0.7
aF2.5
aF0.293
aF0.2
aF0.3
aF0.714
aF0.4
aF2.4
aF2.8
aF1.5
aF0.6
aF0.6
aF0.2
aF0.1
aF1.5
aF0.8
aF3.7
aF2.5
aI0
aI0
aI5
aV224,1610612742
p632
aa(lp633
I2201
aVEddy Curry
p634
aI1610612752
aVNYK
p635
aF25.0
aI59
aI17
aI42
aF0.288
aF25.9
aF5.0
aF9.2
aF0.546
aF0.0
aF0.0
aF0.0
aF3.2
aF5.1
aF0.623
aF1.9
aF2.8
aF4.7
aF0.5
aF2.1
aF0.2
aF0.5
aF0.9
aF2.7
aF3.9
aF13.2
aF-6.9
aI2
aI0
aI5
aV2201,1610612752
p636
aa(lp637
I2059
aVEduardo Najera
p638
aI1610612743
aVDEN
p639
aF31.0
aI78
aI48
aI30
aF0.615
aF21.3
aF2.2
aF4.7
aF0.473
aF0.7
aF1.9
aF0.361
aF0.8
aF1.1
aF0.708
aF1.4
aF2.9
aF4.3
aF1.2
aF0.8
aF0.9
aF0.5
aF0.2
aF2.6
aF1.2
aF5.9
aF4.1
aI0
aI0
aI5
aV2059,1610612743
p640
aa(lp641
I1882
aVElton Brand
p642
aI1610612746
aVLAC
p643
aF29.0
aI8
aI1
aI7
aF0.125
aF34.2
aF6.5
aF14.3
aF0.456
aF0.0
aF0.0
aF0.0
aF4.6
aF5.9
aF0.787
aF2.6
aF5.4
aF8.0
aF2.0
aF2.1
aF0.4
aF1.9
aF1.3
aF2.6
aF5.0
aF17.6
aF-12.1
aI2
aI0
aI5
aV1882,1610612746
p644
aa(lp645
I2731
aVEmeka Okafor
p646
aI1610612766
aVCHA
p647
aF25.0
aI82
aI32
aI50
aF0.39
aF33.2
aF5.6
aF10.5
aF0.535
aF0.0
aF0.0
aF0.0
aF2.6
aF4.6
aF0.57
aF3.1
aF7.6
aF10.7
aF0.9
aF2.0
aF0.8
aF1.7
aF1.2
aF2.9
aF3.5
aF13.8
aF-3.1
aI39
aI0
aI5
aV2731,1610612766
p648
aa(lp649
I15
aVEric Piatkowski
p650
aI1610612756
aVPHX
p651
aF37.0
aI16
aI15
aI1
aF0.938
aF7.0
aF0.8
aF2.1
aF0.364
aF0.7
aF1.6
aF0.423
aF0.3
aF0.3
aF1.0
aF0.1
aF0.7
aF0.8
aF0.6
aF0.4
aF0.0
aF0.1
aF0.0
aF0.7
aF0.2
aF2.4
aF-2.0
aI0
aI0
aI5
aV15,1610612756
p652
aa(lp653
I727
aVEric Snow
p654
aI1610612739
aVCLE
p655
aF35.0
aI22
aI10
aI12
aF0.455
aF13.9
aF0.3
aF1.7
aF0.158
aF0.0
aF0.1
aF0.0
aF0.5
aF1.0
aF0.455
aF0.2
aF0.7
aF0.9
aF1.9
aF0.5
aF0.5
aF0.2
aF0.3
aF1.4
aF1.0
aF1.0
aF-3.3
aI0
aI0
aI5
aV727,1610612739
p656
aa(lp657
I956
aVErick Dampier
p658
aI1610612742
aVDAL
p659
aF32.0
aI72
aI44
aI28
aF0.611
aF24.4
aF2.5
aF3.8
aF0.643
aF0.0
aF0.0
aF0.0
aF1.2
aF2.0
aF0.575
aF2.9
aF4.6
aF7.5
aF0.9
aF1.1
aF0.3
aF1.5
aF0.4
aF3.1
aF1.6
aF6.1
aF2.3
aI6
aI0
aI5
aV956,1610612742
p660
aa(lp661
I101177
aVFabricio Oberto
p662
aI1610612759
aVSAS
p663
aF33.0
aI82
aI56
aI26
aF0.683
aF20.0
aF2.2
aF3.6
aF0.608
aF0.0
aF0.0
aF0.0
aF0.5
aF0.7
aF0.607
aF1.9
aF3.4
aF5.2
aF1.2
aF0.6
aF0.5
aF0.2
aF0.2
aF2.5
aF1.4
aF4.8
aF0.7
aI4
aI0
aI5
aV101177,1610612759
p664
aa(lp665
I1922
aVFrancisco Elson
p666
aI1610612760
aVSEA
p667
aF32.0
aI63
aI35
aI28
aF0.556
aF12.9
aF1.5
aF3.7
aF0.39
aF0.0
aF0.0
aF0.0
aF0.4
aF0.6
aF0.703
aF0.8
aF2.4
aF3.2
aF0.4
aF0.7
aF0.2
aF0.3
aF0.3
aF1.5
aF0.7
aF3.3
aF-1.9
aI1
aI0
aI5
aV1922,1610612760
p668
aa(lp669
I101128
aVFrancisco Garcia
p670
aI1610612758
aVSAC
p671
aF26.0
aI79
aI38
aI41
aF0.481
aF26.5
aF4.4
aF9.5
aF0.463
aF1.4
aF3.7
aF0.391
aF2.1
aF2.6
aF0.779
aF0.7
aF2.7
aF3.3
aF1.6
aF1.6
aF1.2
aF0.6
aF0.5
aF2.9
aF2.6
aF12.3
aF-1.6
aI1
aI0
aI5
aV101128,1610612758
p672
aa(lp673
I2410
aVFred Jones
p674
aI1610612752
aVNYK
p675
aF29.0
aI70
aI18
aI52
aF0.257
aF25.1
aF2.6
aF6.2
aF0.421
aF1.1
aF2.7
aF0.385
aF1.3
aF1.8
aF0.746
aF0.4
aF2.0
aF2.4
aF2.4
aF1.1
aF0.7
aF0.3
aF0.3
aF2.0
aF1.5
aF7.6
aF-3.7
aI0
aI0
aI5
aV2410,1610612752
p676
aa(lp677
I201172
aVGabe Pruitt
p678
aI1610612738
aVBOS
p679
aF22.0
aI15
aI13
aI2
aF0.867
aF6.3
aF0.9
aF2.6
aF0.359
aF0.2
aF0.8
aF0.25
aF0.1
aF0.1
aF0.5
aF0.1
aF0.5
aF0.5
aF0.9
aF0.3
aF0.3
aF0.0
aF0.4
aF0.7
aF0.2
aF2.1
aF-0.9
aI0
aI0
aI5
aV201172,1610612738
p680
aa(lp681
I101123
aVGerald Green
p682
aI1610612745
aVHOU
p683
aF22.0
aI30
aI5
aI25
aF0.167
aF12.0
aF1.7
aF5.0
aF0.344
aF0.5
aF1.3
aF0.385
aF1.1
aF1.4
aF0.829
aF0.4
aF1.7
aF2.1
aF1.0
aF1.1
aF0.3
aF0.1
aF0.2
aF1.5
aF0.8
aF5.1
aF-1.4
aI0
aI0
aI5
aV101123,1610612745
p684
aa(lp685
I2222
aVGerald Wallace
p686
aI1610612766
aVCHA
p687
aF25.0
aI62
aI23
aI39
aF0.371
aF38.3
aF6.6
aF14.6
aF0.449
aF1.1
aF3.6
aF0.321
aF5.0
aF6.9
aF0.731
aF0.9
aF5.1
aF6.0
aF3.5
aF2.9
aF2.1
aF0.9
aF1.4
aF3.0
aF5.7
aF19.4
aF-1.8
aI9
aI0
aI5
aV2222,1610612766
p688
aa(lp689
I2240
aVGilbert Arenas
p690
aI1610612764
aVWAS
p691
aF26.0
aI13
aI6
aI7
aF0.462
aF32.7
aF6.0
aF15.1
aF0.398
aF1.7
aF6.0
aF0.282
aF5.7
aF7.4
aF0.771
aF0.5
aF3.5
aF3.9
aF5.1
aF3.8
aF1.8
aF0.1
aF0.5
aF2.3
aF5.1
aF19.4
aF0.5
aI1
aI0
aI5
aV2240,1610612764
p692
aa(lp693
I201175
aVGlen Davis
p694
aI1610612738
aVBOS
p695
aF22.0
aI69
aI56
aI13
aF0.812
aF13.6
aF1.6
aF3.2
aF0.484
aF0.0
aF0.0
aF0.0
aF1.4
aF2.2
aF0.66
aF1.4
aF1.6
aF3.0
aF0.4
aF0.9
aF0.4
aF0.3
aF0.4
aF2.3
aF1.7
aF4.5
aF1.5
aI0
aI0
aI5
aV201175,1610612738
p696
aa(lp697
I1921
aVGordan Giricek
p698
aI1610612756
aVPHX
p699
aF31.0
aI56
aI32
aI24
aF0.571
aF14.8
aF2.4
aF5.4
aF0.44
aF0.6
aF1.8
aF0.364
aF0.4
aF0.5
aF0.885
aF0.3
aF1.4
aF1.7
aF1.1
aF0.9
aF0.4
aF0.1
aF0.3
aF1.5
aF0.7
aF5.8
aF0.9
aI0
aI0
aI5
aV1921,1610612756
p700
aa(lp701
I255
aVGrant Hill
p702
aI1610612756
aVPHX
p703
aF35.0
aI70
aI46
aI24
aF0.657
aF31.7
aF5.1
aF10.2
aF0.503
aF0.5
aF1.5
aF0.317
aF2.4
aF2.8
aF0.867
aF1.1
aF4.0
aF5.0
aF2.9
aF1.4
aF0.9
aF0.8
aF0.5
aF2.2
aF2.5
aF13.1
aF4.6
aI4
aI0
aI5
aV255,1610612756
p704
aa(lp705
I1761
aVGreg Buckner
p706
aI1610612750
aVMIN
p707
aF31.0
aI31
aI5
aI26
aF0.161
aF16.8
aF1.5
aF3.8
aF0.385
aF0.5
aF1.6
aF0.3
aF0.6
aF0.7
aF0.864
aF0.3
aF1.8
aF2.1
aF1.3
aF0.9
aF0.7
aF0.1
aF0.2
aF2.0
aF1.0
aF4.0
aF-4.5
aI0
aI0
aI5
aV1761,1610612750
p708
aa(lp709
I200799
aVGuillermo Diaz
p710
aI1610612746
aVLAC
p711
aF23.0
aI6
aI2
aI4
aF0.333
aF3.0
aF0.2
aF0.7
aF0.25
aF0.0
aF0.2
aF0.0
aF0.5
aF0.8
aF0.6
aF0.3
aF0.0
aF0.3
aF0.2
aF0.0
aF0.0
aF0.0
aF0.2
aF0.0
aF0.5
aF0.8
aF0.7
aI0
aI0
aI5
aV200799,1610612746
p712
aa(lp713
I101124
aVHakim Warrick
p714
aI1610612763
aVMEM
p715
aF25.0
aI75
aI20
aI55
aF0.267
aF23.4
aF4.4
aF8.7
aF0.502
aF0.2
aF0.6
aF0.271
aF2.4
aF3.5
aF0.704
aF1.6
aF3.1
aF4.7
aF0.7
aF1.1
aF0.5
aF0.4
aF0.5
aF2.1
aF2.7
aF11.4
aF-6.3
aI5
aI0
aI5
aV101124,1610612763
p716
aa(lp717
I2045
aVHedo Turkoglu
p718
aI1610612753
aVORL
p719
aF29.0
aI82
aI52
aI30
aF0.634
aF36.9
aF6.8
aF14.9
aF0.456
aF2.0
aF5.1
aF0.4
aF4.0
aF4.8
aF0.829
aF1.0
aF4.7
aF5.7
aF5.0
aF3.0
aF0.9
aF0.3
aF0.5
aF3.0
aF3.7
aF19.5
aF5.6
aI8
aI2
aI5
aV2045,1610612753
p720
aa(lp721
I200756
aVHilton Armstrong
p722
aI1610612740
aVNOH
p723
aF23.0
aI65
aI43
aI22
aF0.662
aF11.3
aF1.0
aF2.3
aF0.453
aF0.0
aF0.0
aF0.0
aF0.7
aF1.1
aF0.629
aF1.0
aF1.5
aF2.5
aF0.4
aF0.9
aF0.2
aF0.5
aF0.4
aF2.0
aF1.1
aF2.7
aF-0.6
aI0
aI0
aI5
aV200756,1610612740
p724
aa(lp725
I101133
aVIan Mahinmi
p726
aI1610612759
aVSAS
p727
aF21.0
aI6
aI6
aI0
aF1.0
aF3.8
aF1.0
aF2.0
aF0.5
aF0.0
aF0.0
aF0.0
aF1.5
aF1.5
aF1.0
aF0.0
aF0.8
aF0.8
aF0.2
aF0.3
aF0.0
aF0.7
aF0.5
aF0.7
aF1.0
aF3.5
aF-2.3
aI0
aI0
aI5
aV101133,1610612759
p728
aa(lp729
I101113
aVIke Diogu
p730
aI1610612754
aVIND
p731
aF24.0
aI30
aI12
aI18
aF0.4
aF10.2
aF2.1
aF4.5
aF0.478
aF0.0
aF0.0
aF0.0
aF1.3
aF1.6
aF0.851
aF1.3
aF1.6
aF2.8
aF0.3
aF0.7
aF0.2
aF0.1
aF0.6
aF1.4
aF1.2
aF5.6
aF-1.7
aI0
aI0
aI5
aV101113,1610612754
p732
aa(lp733
I2137
aVIme Udoka
p734
aI1610612759
aVSAS
p735
aF30.0
aI73
aI50
aI23
aF0.685
aF18.0
aF2.2
aF5.1
aF0.424
aF0.8
aF2.3
aF0.37
aF0.6
aF0.8
aF0.759
aF0.5
aF2.6
aF3.1
aF0.9
aF0.8
aF0.8
aF0.2
aF0.3
aF1.7
aF0.8
aF5.8
aF2.3
aI1
aI0
aI5
aV2137,1610612759
p736
aa(lp737
I1956
aVIra Newble
p738
aI1610612747
aVLAL
p739
aF33.0
aI49
aI27
aI22
aF0.551
aF14.2
aF1.6
aF3.6
aF0.437
aF0.3
aF1.0
aF0.327
aF0.4
aF0.5
aF0.769
aF1.0
aF1.6
aF2.6
aF0.4
aF0.7
aF0.6
aF0.2
aF0.3
aF1.4
aF0.5
aF3.8
aF-4.0
aI0
aI0
aI5
aV1956,1610612747
p740
aa(lp741
I2747
aVJ.R. Smith
p742
aI1610612743
aVDEN
p743
aF22.0
aI74
aI44
aI30
aF0.595
aF19.2
aF4.2
aF9.1
aF0.461
aF2.1
aF5.3
aF0.403
aF1.7
aF2.4
aF0.719
aF0.6
aF1.5
aF2.1
aF1.7
aF1.5
aF0.8
aF0.2
aF0.4
aF1.9
aF1.9
aF12.3
aF2.8
aI0
aI0
aI5
aV2747,1610612743
p744
aa(lp745
I200755
aVJJ Redick
p746
aI1610612753
aVORL
p747
aF24.0
aI34
aI22
aI12
aF0.647
aF8.1
aF1.4
aF3.2
aF0.444
aF0.5
aF1.3
aF0.395
aF0.8
aF1.0
aF0.794
aF0.0
aF0.6
aF0.7
aF0.5
aF0.4
aF0.1
aF0.0
aF0.2
aF0.9
aF0.6
aF4.1
aF-0.4
aI0
aI0
aI5
aV200755,1610612753
p748
aa(lp749
I1521
aVJacque Vaughn
p750
aI1610612759
aVSAS
p751
aF33.0
aI74
aI49
aI25
aF0.662
aF15.4
aF1.6
aF3.8
aF0.428
aF0.0
aF0.1
aF0.3
aF0.8
aF1.1
aF0.763
aF0.2
aF0.8
aF1.0
aF2.1
aF0.7
aF0.3
aF0.0
aF0.3
aF1.3
aF0.9
aF4.1
aF0.4
aI0
aI0
aI5
aV1521,1610612759
p752
aa(lp753
I2063
aVJake Voskuhl
p754
aI1610612749
aVMIL
p755
aF30.0
aI44
aI9
aI35
aF0.205
aF8.8
aF0.8
aF1.8
aF0.463
aF0.0
aF0.0
aF0.0
aF0.5
aF0.7
aF0.828
aF0.7
aF1.5
aF2.2
aF0.3
aF0.7
aF0.2
aF0.5
aF0.1
aF1.9
aF0.6
aF2.2
aF-1.8
aI0
aI0
aI5
aV2063,1610612749
p756
aa(lp757
I2048
aVJamaal Magloire
p758
aI1610612742
aVDAL
p759
aF30.0
aI31
aI16
aI15
aF0.516
aF9.2
aF0.6
aF1.8
aF0.327
aF0.0
aF0.0
aF0.0
aF0.6
aF1.4
aF0.455
aF0.6
aF2.3
aF2.9
aF0.2
aF1.0
aF0.0
aF0.3
aF0.2
aF1.6
aF1.4
aF1.8
aF-0.3
aI0
aI0
aI5
aV2048,1610612742
p760
aa(lp761
I2224
aVJamaal Tinsley
p762
aI1610612754
aVIND
p763
aF30.0
aI39
aI16
aI23
aF0.41
aF33.2
aF4.5
aF11.9
aF0.38
aF1.0
aF3.6
aF0.284
aF1.8
aF2.6
aF0.72
aF0.6
aF3.0
aF3.6
aF8.4
aF3.3
aF1.7
aF0.3
aF0.8
aF2.5
aF2.1
aF11.9
aF0.2
aI11
aI0
aI5
aV2224,1610612754
p764
aa(lp765
I2037
aVJamal Crawford
p766
aI1610612752
aVNYK
p767
aF28.0
aI80
aI23
aI57
aF0.288
aF39.9
aF7.1
aF17.4
aF0.41
aF2.2
aF6.2
aF0.356
aF4.1
aF4.8
aF0.864
aF0.5
aF2.1
aF2.6
aF5.0
aF2.4
aF1.0
aF0.2
aF0.6
aF1.8
aF3.3
aF20.6
aF-4.3
aI0
aI0
aI5
aV2037,1610612752
p768
aa(lp769
I200081
aVJamario Moon
p770
aI1610612761
aVTOR
p771
aF28.0
aI78
aI39
aI39
aF0.5
aF27.8
aF3.6
aF7.4
aF0.485
aF0.5
aF1.6
aF0.328
aF0.8
aF1.1
aF0.741
aF1.2
aF5.0
aF6.2
aF1.2
aF0.7
aF1.0
aF1.4
aF0.2
aF1.9
aF1.1
aF8.5
aF3.5
aI3
aI0
aI5
aV200081,1610612761
p772
aa(lp773
I2749
aVJameer Nelson
p774
aI1610612753
aVORL
p775
aF26.0
aI69
aI42
aI27
aF0.609
aF28.4
aF4.1
aF8.7
aF0.469
aF0.9
aF2.2
aF0.416
aF1.8
aF2.2
aF0.828
aF0.4
aF3.1
aF3.5
aF5.6
aF2.0
aF0.9
aF0.1
aF0.5
aF2.4
aF2.1
aF10.9
aF3.4
aI3
aI0
aI5
aV2749,1610612753
p776
aa(lp777
I200788
aVJames Augustine
p778
aI1610612753
aVORL
p779
aF24.0
aI25
aI16
aI9
aF0.64
aF6.0
aF0.7
aF1.4
aF0.529
aF0.0
aF0.0
aF0.0
aF0.2
aF0.3
aF0.5
aF0.6
aF0.6
aF1.2
aF0.1
aF0.2
aF0.2
aF0.1
aF0.1
aF0.7
aF0.3
aF1.6
aF0.4
aI0
aI0
aI5
aV200788,1610612753
p780
aa(lp781
I2592
aVJames Jones
p782
aI1610612757
aVPOR
p783
aF27.0
aI58
aI33
aI25
aF0.569
aF22.0
aF2.5
aF5.6
aF0.437
aF1.6
aF3.5
aF0.444
aF1.5
aF1.7
aF0.878
aF0.7
aF2.0
aF2.8
aF0.6
aF0.5
aF0.4
aF0.3
aF0.1
aF1.7
aF1.3
aF8.0
aF0.6
aI0
aI0
aI5
aV2592,1610612757
p784
aa(lp785
I1899
aVJames Posey
p786
aI1610612738
aVBOS
p787
aF31.0
aI74
aI60
aI14
aF0.811
aF24.6
aF2.3
aF5.6
aF0.418
aF1.4
aF3.8
aF0.38
aF1.3
aF1.6
aF0.809
aF0.4
aF3.9
aF4.4
aF1.5
aF0.9
aF1.0
aF0.3
aF0.2
aF2.5
aF1.6
aF7.4
aF2.6
aI1
aI0
aI5
aV1899,1610612738
p788
aa(lp789
I2457
aVJannero Pargo
p790
aI1610612740
aVNOH
p791
aF28.0
aI80
aI54
aI26
aF0.675
aF18.7
aF3.2
aF8.2
aF0.39
aF0.8
aF2.3
aF0.349
aF0.9
aF1.0
aF0.877
aF0.3
aF1.3
aF1.6
aF2.4
aF1.2
aF0.6
aF0.1
aF0.4
aF1.5
aF1.3
aF8.1
aF0.8
aI0
aI0
aI5
aV2457,1610612740
p792
aa(lp793
I201162
aVJared Dudley
p794
aI1610612766
aVCHA
p795
aF22.0
aI73
aI29
aI44
aF0.397
aF19.0
aF2.2
aF4.8
aF0.468
aF0.1
aF0.6
aF0.22
aF1.2
aF1.6
aF0.737
aF1.7
aF2.3
aF3.9
aF1.1
aF0.7
aF0.8
aF0.1
aF0.4
aF1.8
aF1.4
aF5.8
aF-0.6
aI4
aI0
aI5
aV201162,1610612766
p796
aa(lp797
I2407
aVJared Jeffries
p798
aI1610612752
aVNYK
p799
aF26.0
aI73
aI20
aI53
aF0.274
aF18.1
aF1.5
aF3.7
aF0.4
aF0.1
aF0.3
aF0.16
aF0.7
aF1.3
aF0.527
aF1.6
aF1.7
aF3.3
aF0.9
aF0.9
aF0.5
aF0.3
aF0.2
aF1.8
aF1.2
aF3.7
aF-1.0
aI1
aI0
aI5
aV2407,1610612752
p800
aa(lp801
I101127
aVJarrett Jack
p802
aI1610612757
aVPOR
p803
aF24.0
aI82
aI41
aI41
aF0.5
aF27.2
aF3.3
aF7.6
aF0.431
aF0.8
aF2.3
aF0.342
aF2.6
aF3.0
aF0.867
aF0.4
aF2.5
aF2.9
aF3.8
aF2.2
aF0.7
aF0.0
aF0.5
aF1.6
aF2.5
aF9.9
aF-2.0
aI3
aI0
aI5
aV101127,1610612757
p804
aa(lp805
I2260
aVJarron Collins
p806
aI1610612762
aVUTA
p807
aF29.0
aI70
aI46
aI24
aF0.657
aF10.0
aF0.5
aF1.2
aF0.439
aF0.0
aF0.0
aF0.0
aF0.7
aF1.1
aF0.622
aF0.6
aF1.1
aF1.7
aF0.5
aF0.3
aF0.1
aF0.1
aF0.1
aF1.5
aF1.3
aF1.7
aF1.6
aI0
aI0
aI5
aV2260,1610612762
p808
aa(lp809
I2553
aVJarvis Hayes
p810
aI1610612765
aVDET
p811
aF26.0
aI82
aI59
aI23
aF0.72
aF15.7
aF2.6
aF6.1
aF0.431
aF0.9
aF2.4
aF0.376
aF0.5
aF0.7
aF0.75
aF0.4
aF1.7
aF2.2
aF0.8
aF0.6
aF0.6
aF0.1
aF0.2
aF1.7
aF0.5
aF6.7
aF1.2
aI0
aI0
aI5
aV2553,1610612765
p812
aa(lp813
I2215
aVJason Collins
p814
aI1610612763
aVMEM
p815
aF29.0
aI74
aI28
aI46
aF0.378
aF15.8
aF0.7
aF1.5
aF0.469
aF0.0
aF0.0
aF0.0
aF0.5
aF1.0
aF0.459
aF0.9
aF1.5
aF2.4
aF0.3
aF0.6
aF0.3
aF0.3
aF0.1
aF2.6
aF1.3
aF1.9
aF-2.1
aI0
aI0
aI5
aV2215,1610612763
p816
aa(lp817
I2078
aVJason Hart
p818
aI1610612762
aVUTA
p819
aF30.0
aI57
aI36
aI21
aF0.632
aF10.6
aF1.0
aF3.2
aF0.322
aF0.2
aF0.5
aF0.355
aF0.7
aF0.8
aF0.844
aF0.1
aF0.9
aF1.0
aF1.5
aF0.5
aF0.5
aF0.1
aF0.2
aF1.3
aF0.8
aF2.9
aF0.9
aI0
aI0
aI5
aV2078,1610612762
p820
aa(lp821
I2574
aVJason Kapono
p822
aI1610612761
aVTOR
p823
aF27.0
aI81
aI40
aI41
aF0.494
aF18.9
aF3.0
aF6.1
aF0.488
aF0.7
aF1.5
aF0.483
aF0.5
aF0.5
aF0.86
aF0.4
aF1.1
aF1.5
aF0.8
aF0.7
aF0.4
aF0.0
aF0.2
aF1.6
aF0.5
aF7.2
aF0.2
aI0
aI0
aI5
aV2574,1610612761
p824
aa(lp825
I467
aVJason Kidd
p826
aI1610612742
aVDAL
p827
aF35.0
aI80
aI39
aI41
aF0.488
aF36.3
aF3.8
aF9.9
aF0.385
aF1.5
aF3.9
aF0.381
aF1.7
aF2.1
aF0.818
aF1.2
aF6.3
aF7.5
aF10.1
aF3.3
aF1.7
aF0.3
aF0.3
aF2.1
aF1.8
aF10.8
aF0.3
aI35
aI13
aI5
aV467,1610612742
p828
aa(lp829
I101131
aVJason Maxiell
p830
aI1610612765
aVDET
p831
aF25.0
aI82
aI59
aI23
aF0.72
aF21.6
aF2.9
aF5.4
aF0.538
aF0.0
aF0.0
aF0.0
aF2.1
aF3.3
aF0.633
aF2.2
aF3.1
aF5.3
aF0.6
aF0.9
aF0.3
aF1.1
aF0.4
aF2.2
aF2.8
aF7.9
aF2.5
aI4
aI0
aI5
aV101131,1610612765
p832
aa(lp833
I2202
aVJason Richardson
p834
aI1610612766
aVCHA
p835
aF27.0
aI82
aI32
aI50
aF0.39
aF38.4
aF7.9
aF17.9
aF0.441
aF3.0
aF7.3
aF0.406
aF3.0
aF4.0
aF0.752
aF1.0
aF4.4
aF5.4
aF3.1
aF2.0
aF1.4
aF0.7
aF0.8
aF2.9
aF3.3
aF21.8
aF-2.7
aI5
aI0
aI5
aV2202,1610612766
p836
aa(lp837
I201160
aVJason Smith
p838
aI1610612755
aVPHI
p839
aF22.0
aI76
aI38
aI38
aF0.5
aF14.6
aF1.9
aF4.1
aF0.455
aF0.1
aF0.2
aF0.286
aF0.7
aF1.1
aF0.659
aF1.0
aF2.0
aF3.0
aF0.3
aF0.6
aF0.3
aF0.7
aF0.5
aF1.9
aF1.0
aF4.5
aF0.5
aI0
aI0
aI5
aV201160,1610612755
p840
aa(lp841
I1891
aVJason Terry
p842
aI1610612742
aVDAL
p843
aF30.0
aI82
aI51
aI31
aF0.622
aF31.4
aF5.7
aF12.3
aF0.467
aF1.7
aF4.4
aF0.375
aF2.3
aF2.7
aF0.857
aF0.4
aF2.2
aF2.5
aF3.2
aF1.1
aF1.1
aF0.2
aF0.5
aF2.1
aF2.0
aF15.5
aF3.8
aI0
aI0
aI5
aV1891,1610612742
p844
aa(lp845
I1715
aVJason Williams
p846
aI1610612748
aVMIA
p847
aF32.0
aI67
aI12
aI55
aF0.179
aF28.2
aF3.1
aF8.2
aF0.384
aF1.4
aF4.1
aF0.353
aF1.0
aF1.2
aF0.863
aF0.2
aF1.8
aF1.9
aF4.6
aF1.4
aF1.2
aF0.1
aF0.2
aF1.4
aF1.0
aF8.8
aF-6.3
aI2
aI0
aI5
aV1715,1610612748
p848
aa(lp849
I201159
aVJavaris Crittenton
p850
aI1610612763
aVMEM
p851
aF20.0
aI50
aI25
aI25
aF0.5
aF13.6
aF2.0
aF4.7
aF0.421
aF0.2
aF0.7
aF0.27
aF1.4
aF2.1
aF0.692
aF0.5
aF1.7
aF2.2
aF1.0
aF1.1
aF0.4
aF0.0
aF0.4
aF0.9
aF1.5
aF5.6
aF-0.8
aI0
aI0
aI5
aV201159,1610612763
p852
aa(lp853
I1902
aVJeff Foster
p854
aI1610612754
aVIND
p855
aF31.0
aI77
aI34
aI43
aF0.442
aF24.5
aF2.7
aF4.8
aF0.55
aF0.0
aF0.0
aF0.0
aF1.1
aF1.9
aF0.593
aF3.4
aF5.2
aF8.7
aF1.7
aF0.8
aF0.7
aF0.4
aF0.3
aF2.9
aF1.9
aF6.4
aF-0.5
aI10
aI0
aI5
aV1902,1610612754
p856
aa(lp857
I201145
aVJeff Green
p858
aI1610612760
aVSEA
p859
aF21.0
aI80
aI19
aI61
aF0.238
aF28.2
aF4.0
aF9.4
aF0.427
aF0.3
aF1.0
aF0.276
aF2.2
aF3.0
aF0.744
aF1.3
aF3.5
aF4.7
aF1.5
aF2.0
aF0.6
aF0.6
aF0.6
aF2.5
aF2.5
aF10.5
aF-6.4
aI4
aI0
aI5
aV201145,1610612760
p860
aa(lp861
I976
aVJeff McInnis
p862
aI1610612766
aVCHA
p863
aF33.0
aI54
aI19
aI35
aF0.352
aF26.1
aF2.0
aF4.6
aF0.434
aF0.1
aF0.4
aF0.158
aF0.4
aF0.6
aF0.767
aF0.3
aF1.5
aF1.8
aF4.1
aF1.4
aF0.4
aF0.1
aF0.1
aF2.2
aF0.8
aF4.5
aF-4.2
aI0
aI0
aI5
aV976,1610612766
p864
aa(lp865
I1741
aVJelani McCoy
p866
aI1610612743
aVDEN
p867
aF30.0
aI6
aI2
aI4
aF0.333
aF5.5
aF0.2
aF0.2
aF1.0
aF0.0
aF0.0
aF0.0
aF0.2
aF0.3
aF0.5
aF0.2
aF1.0
aF1.2
aF0.0
aF0.7
aF0.0
aF0.8
aF0.0
aF1.2
aF0.2
aF0.5
aF-2.3
aI0
aI0
aI5
aV1741,1610612743
p868
aa(lp869
I200978
aVJeremy Richardson
p870
aI1610612737
aVATL
p871
aF24.0
aI27
aI12
aI15
aF0.444
aF4.9
aF0.6
aF1.6
aF0.364
aF0.3
aF0.7
aF0.368
aF0.1
aF0.1
aF1.0
aF0.0
aF0.3
aF0.3
aF0.1
aF0.2
aF0.1
aF0.0
aF0.0
aF0.5
aF0.0
aF1.5
aF-2.0
aI0
aI0
aI5
aV200978,1610612737
p872
aa(lp873
I979
aVJermaine O'Neal
p874
aI1610612754
aVIND
p875
aF29.0
aI42
aI19
aI23
aF0.452
aF28.7
aF5.4
aF12.2
aF0.439
aF0.0
aF0.1
aF0.0
aF2.9
aF3.9
aF0.742
aF2.0
aF4.8
aF6.7
aF2.2
aF2.5
aF0.5
aF2.1
aF0.9
aF3.1
aF4.4
aF13.6
aF-1.2
aI7
aI0
aI5
aV979,1610612754
p876
aa(lp877
I201176
aVJermareo Davidson
p878
aI1610612766
aVCHA
p879
aF23.0
aI38
aI12
aI26
aF0.316
aF8.5
aF1.3
aF3.3
aF0.408
aF0.0
aF0.0
aF0.0
aF0.5
aF0.7
aF0.643
aF0.6
aF1.1
aF1.6
aF0.3
aF0.4
aF0.2
aF0.4
aF0.1
aF1.2
aF0.6
aF3.2
aF-1.9
aI0
aI0
aI5
aV201176,1610612766
p880
aa(lp881
I1744
aVJerome James
p882
aI1610612752
aVNYK
p883
aF32.0
aI2
aI0
aI2
aF0.0
aF2.3
aF0.5
aF0.5
aF1.0
aF0.0
aF0.0
aF0.0
aF1.0
aF1.0
aF1.0
aF0.0
aF1.5
aF1.5
aF0.0
aF0.0
aF0.0
aF0.0
aF0.0
aF0.0
aF0.5
aF2.0
aF2.5
aI0
aI0
aI5
aV1744,1610612752
p884
aa(lp885
I711
aVJerry Stackhouse
p886
aI1610612742
aVDAL
p887
aF33.0
aI58
aI39
aI19
aF0.672
aF24.4
aF3.7
aF9.1
aF0.405
aF1.0
aF3.2
aF0.326
aF2.3
aF2.6
aF0.892
aF0.6
aF1.7
aF2.3
aF2.5
aF1.5
aF0.5
aF0.2
aF0.4
aF1.4
aF2.0
aF10.7
aF1.1
aI0
aI0
aI5
aV711,1610612742
p888
aa(lp889
I201149
aVJoakim Noah
p890
aI1610612741
aVCHI
p891
aF23.0
aI74
aI31
aI43
aF0.419
aF20.7
aF2.4
aF5.0
aF0.482
aF0.0
aF0.0
aF0.0
aF1.8
aF2.6
aF0.691
aF2.4
aF3.3
aF5.6
aF1.1
aF1.2
aF0.9
aF0.9
aF0.6
aF2.3
aF2.0
aF6.6
aF-0.4
aI8
aI0
aI5
aV201149,1610612741
p892
aa(lp893
I2207
aVJoe Johnson
p894
aI1610612737
aVATL
p895
aF27.0
aI82
aI37
aI45
aF0.451
aF40.8
aF7.9
aF18.3
aF0.432
aF2.1
aF5.4
aF0.381
aF3.9
aF4.6
aF0.834
aF1.0
aF3.5
aF4.5
aF5.8
aF2.7
aF1.0
aF0.2
aF0.7
aF2.0
aF3.7
aF21.7
aF-0.2
aI9
aI0
aI5
aV2207,1610612737
p896
aa(lp897
I693
aVJoe Smith
p898
aI1610612739
aVCLE
p899
aF32.0
aI77
aI34
aI43
aF0.442
aF22.4
aF4.1
aF8.5
aF0.478
aF0.0
aF0.0
aF0.0
aF2.0
aF2.6
aF0.755
aF2.1
aF3.1
aF5.2
aF0.9
aF0.9
aF0.4
aF0.6
aF0.5
aF2.4
aF2.6
aF10.1
aF-0.3
aI6
aI0
aI5
aV693,1610612739
p900
aa(lp901
I201202
aVJoel Anthony
p902
aI1610612748
aVMIA
p903
aF25.0
aI24
aI5
aI19
aF0.208
aF20.8
aF1.2
aF2.5
aF0.467
aF0.0
aF0.0
aF0.0
aF1.2
aF2.0
aF0.592
aF1.6
aF2.3
aF3.9
aF0.1
aF0.7
aF0.4
aF1.3
aF0.4
aF2.3
aF1.9
aF3.5
aF-5.6
aI0
aI0
aI5
aV201202,1610612748
p904
aa(lp905
I2038
aVJoel Przybilla
p906
aI1610612757
aVPOR
p907
aF28.0
aI77
aI38
aI39
aF0.494
aF23.6
aF1.9
aF3.2
aF0.576
aF0.0
aF0.0
aF0.0
aF1.1
aF1.6
aF0.68
aF2.5
aF5.9
aF8.4
aF0.4
aF1.2
aF0.2
aF1.2
aF0.5
aF3.0
aF2.2
aF4.8
aF-1.4
aI4
aI0
aI5
aV2038,1610612757
p908
aa(lp909
I101121
aVJoey Graham
p910
aI1610612761
aVTOR
p911
aF26.0
aI38
aI23
aI15
aF0.605
aF8.7
aF1.3
aF3.0
aF0.434
aF0.1
aF0.1
aF0.667
aF1.0
aF1.2
aF0.844
aF0.5
aF1.3
aF1.8
aF0.4
aF0.6
aF0.1
aF0.0
aF0.3
aF1.2
aF1.0
aF3.6
aF-0.3
aI0
aI0
aI5
aV101121,1610612761
p912
aa(lp913
I101130
aVJohan Petro
p914
aI1610612760
aVSEA
p915
aF22.0
aI72
aI18
aI54
aF0.25
aF18.2
aF2.6
aF6.1
aF0.419
aF0.0
aF0.0
aF0.0
aF0.9
aF1.2
aF0.736
aF1.4
aF3.8
aF5.1
aF0.4
aF1.0
aF0.5
aF0.6
aF0.3
aF2.4
aF1.0
aF6.0
aF-4.0
aI3
aI0
aI5
aV101130,1610612760
p916
aa(lp917
I2422
aVJohn Salmons
p918
aI1610612758
aVSAC
p919
aF28.0
aI81
aI37
aI44
aF0.457
aF31.1
aF4.7
aF9.9
aF0.477
aF0.5
aF1.5
aF0.325
aF2.6
aF3.2
aF0.823
aF0.9
aF3.4
aF4.3
aF2.6
aF2.1
aF1.1
aF0.4
aF1.1
aF2.1
aF2.6
aF12.5
aF-3.5
aI6
aI0
aI5
aV2422,1610612758
p920
aa(lp921
I200770
aVJordan Farmar
p922
aI1610612747
aVLAL
p923
aF21.0
aI82
aI57
aI25
aF0.695
aF20.6
aF3.5
aF7.7
aF0.461
aF1.4
aF3.7
aF0.371
aF0.6
aF1.0
aF0.679
aF0.5
aF1.8
aF2.2
aF2.7
aF1.3
aF0.9
aF0.1
aF0.3
aF1.3
aF1.1
aF9.1
aF3.4
aI0
aI0
aI5
aV200770,1610612747
p924
aa(lp925
I200816
aVJorge Garbajosa
p926
aI1610612761
aVTOR
p927
aF30.0
aI7
aI4
aI3
aF0.571
aF10.5
aF1.1
aF3.6
aF0.32
aF0.9
aF2.3
aF0.375
aF0.0
aF0.0
aF0.0
aF0.3
aF1.9
aF2.1
aF0.4
aF0.1
aF0.4
aF0.0
aF0.1
aF0.3
aF0.4
aF3.1
aF-1.6
aI0
aI0
aI5
aV200816,1610612761
p928
aa(lp929
I101181
aVJose Calderon
p930
aI1610612761
aVTOR
p931
aF26.0
aI82
aI41
aI41
aF0.5
aF30.3
aF4.5
aF8.6
aF0.519
aF1.0
aF2.2
aF0.429
aF1.3
aF1.5
aF0.908
aF0.4
aF2.5
aF2.9
aF8.3
aF1.5
aF1.1
aF0.1
aF0.4
aF1.6
aF1.8
aF11.2
aF2.2
aI25
aI0
aI5
aV101181,1610612761
p932
aa(lp933
I200826
aVJose Juan Barea
p934
aI1610612742
aVDAL
p935
aF24.0
aI44
aI27
aI17
aF0.614
aF10.4
aF1.6
aF3.9
aF0.418
aF0.5
aF1.2
aF0.389
aF0.6
aF0.8
aF0.8
aF0.1
aF1.0
aF1.1
aF1.3
aF0.8
aF0.3
aF0.0
aF0.3
aF1.1
aF1.0
aF4.3
aF1.2
aI0
aI0
aI5
aV200826,1610612742
p936
aa(lp937
I200767
aVJosh Boone
p938
aI1610612751
aVNJN
p939
aF23.0
aI70
aI29
aI41
aF0.414
aF25.3
aF3.4
aF6.2
aF0.548
aF0.0
aF0.0
aF0.0
aF1.4
aF3.1
aF0.456
aF2.7
aF4.5
aF7.3
aF0.8
aF1.0
aF0.5
aF0.9
aF0.7
aF2.2
aF2.2
aF8.2
aF-2.1
aI13
aI0
aI5
aV200767,1610612751
p940
aa(lp941
I2735
aVJosh Childress
p942
aI1610612737
aVATL
p943
aF25.0
aI76
aI33
aI43
aF0.434
aF29.9
aF4.3
aF7.5
aF0.571
aF0.3
aF0.8
aF0.367
aF2.9
aF3.6
aF0.807
aF2.3
aF2.6
aF4.9
aF1.5
aF1.3
aF0.9
aF0.6
aF0.9
aF1.7
aF2.5
aF11.8
aF-1.6
aI3
aI0
aI5
aV2735,1610612737
p944
aa(lp945
I2572
aVJosh Howard
p946
aI1610612742
aVDAL
p947
aF28.0
aI76
aI48
aI28
aF0.632
aF36.3
aF7.5
aF16.4
aF0.455
aF0.9
aF2.8
aF0.319
aF4.1
aF5.1
aF0.813
aF1.6
aF5.4
aF7.0
aF2.2
aF1.5
aF0.8
aF0.4
aF0.6
aF2.7
aF3.9
aF19.9
aF5.5
aI9
aI0
aI5
aV2572,1610612742
p948
aa(lp949
I201177
aVJosh McRoberts
p950
aI1610612757
aVPOR
p951
aF21.0
aI8
aI3
aI5
aF0.375
aF3.5
aF0.8
aF1.3
aF0.6
aF0.0
aF0.1
aF0.0
aF0.0
aF0.0
aF0.0
aF0.3
aF1.0
aF1.3
aF0.3
aF0.3
aF0.1
aF0.0
aF0.3
aF0.1
aF0.0
aF1.5
aF1.9
aI0
aI0
aI5
aV201177,1610612757
p952
aa(lp953
I2694
aVJosh Powell
p954
aI1610612746
aVLAC
p955
aF25.0
aI64
aI16
aI48
aF0.25
aF19.2
aF2.3
aF4.9
aF0.46
aF0.0
aF0.0
aF0.0
aF1.0
aF1.4
aF0.724
aF1.8
aF3.4
aF5.2
aF0.7
aF1.0
aF0.2
aF0.4
aF0.4
aF2.0
aF1.3
aF5.5
aF-5.1
aI6
aI0
aI5
aV2694,1610612746
p956
aa(lp957
I2746
aVJosh Smith
p958
aI1610612737
aVATL
p959
aF22.0
aI81
aI37
aI44
aF0.457
aF35.5
aF6.4
aF14.0
aF0.457
aF0.3
aF1.2
aF0.253
aF4.1
aF5.8
aF0.71
aF2.0
aF6.2
aF8.2
aF3.4
aF3.0
aF1.5
aF2.8
aF0.8
aF3.3
aF4.7
aF17.2
aF-0.5
aI19
aI1
aI5
aV2746,1610612737
p960
aa(lp961
I2434
aVJuan Carlos Navarro
p962
aI1610612763
aVMEM
p963
aF28.0
aI82
aI22
aI60
aF0.268
aF25.8
aF3.8
aF9.3
aF0.402
aF1.9
aF5.3
aF0.361
aF1.5
aF1.8
aF0.849
aF0.4
aF2.1
aF2.6
aF2.2
aF1.6
aF0.6
aF0.0
aF0.3
aF1.1
aF1.9
aF10.9
aF-3.6
aI1
aI0
aI5
aV2434,1610612763
p964
aa(lp965
I2413
aVJuan Dixon
p966
aI1610612765
aVDET
p967
aF29.0
aI53
aI32
aI21
aF0.604
aF12.6
aF2.0
aF4.9
aF0.411
aF0.6
aF1.4
aF0.417
aF0.4
aF0.5
aF0.808
aF0.3
aF1.1
aF1.4
aF1.8
aF1.0
aF0.4
aF0.0
aF0.3
aF1.2
aF0.5
aF5.0
aF1.5
aI0
aI0
aI5
aV2413,1610612765
p968
aa(lp969
I201153
aVJulian Wright
p970
aI1610612740
aVNOH
p971
aF21.0
aI57
aI39
aI18
aF0.684
aF11.2
aF1.6
aF3.0
aF0.533
aF0.2
aF0.4
aF0.417
aF0.6
aF0.9
aF0.635
aF0.6
aF1.5
aF2.1
aF0.7
aF0.6
aF0.5
aF0.2
aF0.1
aF0.8
aF0.7
aF3.9
aF0.3
aI0
aI0
aI5
aV201153,1610612740
p972
aa(lp973
I200818
aVJustin Williams
p974
aI1610612745
aVHOU
p975
aF24.0
aI23
aI11
aI12
aF0.478
aF5.3
aF0.6
aF1.3
aF0.448
aF0.0
aF0.0
aF0.0
aF0.3
aF1.1
aF0.308
aF0.9
aF1.3
aF2.1
aF0.0
aF0.2
aF0.2
aF0.2
aF0.3
aF0.7
aF0.6
aF1.5
aF-0.5
aI0
aI0
aI5
aV200818,1610612745
p976
aa(lp977
I436
aVJuwan Howard
p978
aI1610612742
aVDAL
p979
aF35.0
aI50
aI28
aI22
aF0.56
aF7.0
aF0.5
aF1.3
aF0.359
aF0.0
aF0.0
aF0.0
aF0.2
aF0.3
aF0.786
aF0.4
aF1.2
aF1.6
aF0.3
aF0.3
aF0.1
aF0.0
aF0.2
aF1.2
aF0.4
aF1.1
aF-1.0
aI0
aI0
aI5
aV436,1610612742
p980
aa(lp981
I2079
aVKaniel Dickens
p982
aI1610612739
aVCLE
p983
aF29.0
aI5
aI4
aI1
aF0.8
aF2.4
aF0.2
aF0.6
aF0.333
aF0.0
aF0.0
aF0.0
aF0.0
aF0.0
aF0.0
aF0.0
aF0.2
aF0.2
aF0.2
aF0.0
aF0.0
aF0.2
aF0.2
aF0.2
aF0.0
aF0.4
aF-0.2
aI0
aI0
aI5
aV2079,1610612739
p984
aa(lp985
I2416
aVKareem Rush
p986
aI1610612754
aVIND
p987
aF27.0
aI71
aI30
aI41
aF0.423
aF21.2
aF3.2
aF8.0
aF0.401
aF1.4
aF3.7
aF0.389
aF0.4
aF0.6
aF0.714
aF0.3
aF2.1
aF2.4
aF1.3
aF0.9
aF0.6
aF0.3
aF0.3
aF1.5
aF0.8
aF8.3
aF-1.5
aI1
aI0
aI5
aV2416,1610612754
p988
aa(lp989
I2867
aVKasib Powell
p990
aI1610612748
aVMIA
p991
aF27.0
aI11
aI3
aI8
aF0.273
aF27.6
aF3.2
aF8.6
aF0.368
aF0.7
aF3.0
aF0.242
aF0.5
aF0.8
aF0.667
aF0.7
aF3.3
aF4.0
aF1.6
aF0.5
aF0.8
aF0.2
aF0.8
aF1.6
aF1.0
aF7.6
aF-6.5
aI0
aI0
aI5
aV2867,1610612748
p992
aa(lp993
I2586
aVKeith Bogans
p994
aI1610612753
aVORL
p995
aF28.0
aI82
aI52
aI30
aF0.634
aF26.8
aF2.9
aF7.2
aF0.41
aF1.8
aF5.0
aF0.362
aF1.0
aF1.3
aF0.736
aF0.5
aF2.7
aF3.2
aF1.3
aF0.6
aF0.7
aF0.1
aF0.3
aF2.0
aF1.1
aF8.7
aF3.7
aI2
aI0
aI5
aV2586,1610612753
p996
aa(lp997
I101247
aVKeith Langford
p998
aI1610612759
aVSAS
p999
aF24.0
aI2
aI1
aI1
aF0.5
aF4.8
aF0.5
aF2.0
aF0.25
aF0.0
aF0.0
aF0.0
aF0.0
aF0.0
aF0.0
aF0.0
aF1.0
aF1.0
aF0.0
aF0.0
aF0.0
aF0.0
aF0.0
aF0.5
aF0.0
aF1.0
aF3.5
aI0
aI0
aI5
aV101247,1610612759
p1000
aa(lp1001
I101235
aVKelenna Azubuike
p1002
aI1610612744
aVGSW
p1003
aF24.0
aI81
aI48
aI33
aF0.593
aF21.4
aF3.2
aF7.2
aF0.445
aF0.9
aF2.4
aF0.364
aF1.2
aF1.7
aF0.717
aF1.3
aF2.7
aF4.0
aF0.9
aF0.7
aF0.6
aF0.4
aF0.5
aF2.0
aF1.3
aF8.5
aF-0.1
aI3
aI0
aI5
aV101235,1610612744
p1004
aa(lp1005
I2570
aVKendrick Perkins
p1006
aI1610612738
aVBOS
p1007
aF23.0
aI78
aI62
aI16
aF0.795
aF24.5
aF2.7
aF4.5
aF0.615
aF0.0
aF0.0
aF0.0
aF1.5
aF2.3
aF0.623
aF1.9
aF4.2
aF6.1
aF1.1
aF1.6
aF0.4
aF1.5
aF0.6
aF3.1
aF1.7
aF6.9
aF6.4
aI5
aI0
aI5
aV2570,1610612738
p1008
aa(lp1009
I1903
aVKenny Thomas
p1010
aI1610612758
aVSAC
p1011
aF30.0
aI23
aI8
aI15
aF0.348
aF12.2
aF0.7
aF1.7
aF0.421
aF0.0
aF0.0
aF0.0
aF0.0
aF0.2
aF0.0
aF0.8
aF1.9
aF2.7
aF0.6
aF0.9
aF0.3
aF0.0
aF0.1
aF1.7
aF0.6
aF1.4
aF-3.6
aI0
aI0
aI5
aV1903,1610612758
p1012
aa(lp1013
I2030
aVKenyon Martin
p1014
aI1610612743
aVDEN
p1015
aF30.0
aI71
aI46
aI25
aF0.648
aF30.4
aF5.3
aF9.8
aF0.538
aF0.0
aF0.2
aF0.182
aF1.7
aF3.0
aF0.58
aF1.5
aF5.0
aF6.5
aF1.3
aF1.3
aF1.2
aF1.2
aF0.7
aF3.3
aF2.0
aF12.4
aF1.3
aI10
aI0
aI5
aV2030,1610612743
p1016
aa(lp1017
I201142
aVKevin Durant
p1018
aI1610612760
aVSEA
p1019
aF19.0
aI80
aI19
aI61
aF0.238
aF34.6
aF7.3
aF17.1
aF0.43
aF0.7
aF2.6
aF0.288
aF4.9
aF5.6
aF0.873
aF0.9
aF3.5
aF4.4
aF2.4
aF2.9
aF1.0
aF0.9
aF1.1
aF1.5
aF3.9
aF20.3
aF-8.1
aI1
aI0
aI5
aV201142,1610612760
p1020
aa(lp1021
I708
aVKevin Garnett
p1022
aI1610612738
aVBOS
p1023
aF32.0
aI71
aI57
aI14
aF0.803
aF32.8
aF7.5
aF13.9
aF0.539
aF0.0
aF0.2
aF0.0
aF3.8
aF4.7
aF0.801
aF1.9
aF7.3
aF9.2
aF3.4
aF1.9
aF1.4
aF1.3
aF0.4
aF2.3
aF3.7
aF18.8
aF10.4
aI29
aI0
aI5
aV708,1610612738
p1024
aa(lp1025
I2755
aVKevin Martin
p1026
aI1610612758
aVSAC
p1027
aF25.0
aI61
aI30
aI31
aF0.492
aF36.3
aF6.8
aF15.0
aF0.456
aF1.8
aF4.4
aF0.402
aF8.2
aF9.5
aF0.869
aF0.8
aF3.7
aF4.5
aF2.1
aF2.1
aF1.0
aF0.1
aF0.8
aF2.5
aF6.2
aF23.7
aF-0.4
aI2
aI0
aI5
aV2755,1610612758
p1028
aa(lp1029
I1563
aVKevin Ollie
p1030
aI1610612755
aVPHI
p1031
aF35.0
aI40
aI20
aI20
aF0.5
aF7.5
aF0.7
aF1.7
aF0.42
aF0.0
aF0.0
aF0.0
aF0.3
aF0.4
aF0.8
aF0.1
aF0.4
aF0.5
aF1.0
aF0.1
aF0.3
aF0.0
aF0.1
aF0.7
aF0.4
aF1.8
aF1.2
aI0
aI0
aI5
aV1563,1610612755
p1032
aa(lp1033
I2039
aVKeyon Dooling
p1034
aI1610612753
aVORL
p1035
aF28.0
aI72
aI45
aI27
aF0.625
aF18.5
aF2.8
aF5.9
aF0.468
aF0.3
aF0.9
aF0.338
aF2.3
aF2.7
aF0.845
aF0.1
aF1.3
aF1.4
aF1.8
aF0.8
aF0.5
aF0.1
aF0.4
aF1.8
aF2.2
aF8.1
aF1.6
aI0
aI0
aI5
aV2039,1610612753
p1036
aa(lp1037
I2550
aVKirk Hinrich
p1038
aI1610612741
aVCHI
p1039
aF27.0
aI75
aI31
aI44
aF0.413
aF31.7
aF4.4
aF10.6
aF0.414
aF1.1
aF3.2
aF0.35
aF1.6
aF1.9
aF0.831
aF0.4
aF2.9
aF3.3
aF6.0
aF2.1
aF1.2
aF0.3
aF0.4
aF3.0
aF2.1
aF11.5
aF-1.9
aI7
aI1
aI5
aV2550,1610612741
p1040
aa(lp1041
I2745
aVKirk Snyder
p1042
aI1610612750
aVMIN
p1043
aF25.0
aI36
aI14
aI22
aF0.389
aF21.1
aF2.7
aF5.3
aF0.508
aF0.1
aF0.6
aF0.217
aF1.8
aF2.4
aF0.727
aF0.8
aF2.7
aF3.5
aF1.8
aF1.4
aF0.6
aF0.4
aF0.5
aF1.5
aF1.7
aF7.3
aF-1.3
aI1
aI0
aI5
aV2745,1610612750
p1044
aa(lp1045
I977
aVKobe Bryant
p1046
aI1610612747
aVLAL
p1047
aF29.0
aI82
aI57
aI25
aF0.695
aF38.9
aF9.5
aF20.6
aF0.459
aF1.8
aF5.1
aF0.361
aF7.6
aF9.0
aF0.84
aF1.1
aF5.2
aF6.3
aF5.4
aF3.1
aF1.8
aF0.5
aF0.8
aF2.8
aF6.6
aF28.3
aF7.3
aI20
aI0
aI5
aV977,1610612747
p1048
aa(lp1049
I200785
aVKosta Perovic
p1050
aI1610612744
aVGSW
p1051
aF23.0
aI7
aI4
aI3
aF0.571
aF5.4
aF0.4
aF1.4
aF0.3
aF0.0
aF0.0
aF0.0
aF0.6
aF0.9
aF0.667
aF0.9
aF1.0
aF1.9
aF0.1
aF0.1
aF0.0
aF0.3
aF0.3
aF0.9
aF0.6
aF1.4
aF0.6
aI0
aI0
aI5
aV200785,1610612744
p1052
aa(lp1053
I2743
aVKris Humphries
p1054
aI1610612761
aVTOR
p1055
aF23.0
aI70
aI38
aI32
aF0.543
aF13.2
aF2.3
aF4.8
aF0.483
aF0.0
aF0.0
aF0.0
aF1.1
aF1.8
aF0.605
aF1.3
aF2.4
aF3.7
aF0.4
aF0.7
aF0.4
aF0.4
aF0.5
aF1.5
aF1.6
aF5.7
aF-0.6
aI2
aI0
aI5
aV2743,1610612761
p1056
aa(lp1057
I703
aVKurt Thomas
p1058
aI1610612759
aVSAS
p1059
aF35.0
aI70
aI32
aI38
aF0.457
aF22.6
aF2.8
aF5.7
aF0.492
aF0.0
aF0.0
aF0.0
aF0.8
aF1.1
aF0.663
aF1.9
aF5.4
aF7.2
aF1.0
aF0.7
aF0.8
aF0.8
aF0.3
aF2.7
aF1.5
aF6.3
aF-1.0
aI4
aI0
aI5
aV703,1610612759
p1060
aa(lp1061
I2198
aVKwame Brown
p1062
aI1610612763
aVMEM
p1063
aF26.0
aI38
aI18
aI20
aF0.474
aF18.8
aF1.9
aF3.7
aF0.507
aF0.0
aF0.0
aF0.0
aF1.1
aF2.6
aF0.408
aF1.3
aF3.6
aF4.9
aF1.2
aF1.3
aF0.6
aF0.6
aF0.4
aF2.2
aF2.2
aF4.8
aF-1.8
aI2
aI0
aI5
aV2198,1610612763
p1064
aa(lp1065
I2594
aVKyle Korver
p1066
aI1610612762
aVUTA
p1067
aF27.0
aI75
aI50
aI25
aF0.667
aF23.1
aF3.4
aF7.7
aF0.443
aF1.5
aF3.9
aF0.375
aF1.6
aF1.7
aF0.915
aF0.3
aF2.0
aF2.3
aF1.3
aF1.0
aF0.6
aF0.4
aF0.2
aF2.6
aF1.5
aF9.9
aF3.1
aI1
aI0
aI5
aV2594,1610612762
p1068
aa(lp1069
I200768
aVKyle Lowry
p1070
aI1610612763
aVMEM
p1071
aF22.0
aI82
aI22
aI60
aF0.268
aF25.5
aF3.1
aF7.2
aF0.432
aF0.4
aF1.7
aF0.257
aF3.0
aF4.2
aF0.698
aF0.5
aF2.5
aF3.0
aF3.6
aF1.5
aF1.1
aF0.3
aF0.8
aF2.3
aF3.6
aF9.6
aF-2.4
aI1
aI0
aI5
aV200768,1610612763
p1072
aa(lp1073
I201178
aVKyrylo Fesenko
p1074
aI1610612762
aVUTA
p1075
aF21.0
aI9
aI4
aI5
aF0.444
aF7.8
aF0.7
aF1.8
aF0.375
aF0.0
aF0.0
aF0.0
aF0.2
aF0.4
aF0.5
aF1.6
aF1.2
aF2.8
aF0.2
aF0.9
aF0.0
aF0.3
aF0.2
aF2.1
aF0.6
aF1.6
aF-0.1
aI0
aI0
aI5
aV201178,1610612762
p1076
aa(lp1077
I200746
aVLaMarcus Aldridge
p1078
aI1610612757
aVPOR
p1079
aF22.0
aI76
aI35
aI41
aF0.461
aF34.9
aF7.4
aF15.3
aF0.484
aF0.0
aF0.1
aF0.143
aF3.0
aF3.9
aF0.762
aF2.9
aF4.7
aF7.6
aF1.6
aF1.7
aF0.7
aF1.2
aF0.6
aF3.2
aF3.3
aF17.8
aF-0.2
aI19
aI0
aI5
aV200746,1610612757
p1080
aa(lp1081
I1885
aVLamar Odom
p1082
aI1610612747
aVLAL
p1083
aF28.0
aI77
aI54
aI23
aF0.701
aF37.9
aF5.4
aF10.3
aF0.525
aF0.4
aF1.5
aF0.274
aF3.0
aF4.3
aF0.698
aF2.6
aF8.1
aF10.6
aF3.5
aF2.0
aF1.0
aF0.9
aF0.7
aF2.9
aF3.2
aF14.2
aF6.2
aI44
aI1
aI5
aV1885,1610612747
p1084
aa(lp1085
I200984
aVLance Allred
p1086
aI1610612739
aVCLE
p1087
aF27.0
aI3
aI0
aI3
aF0.0
aF3.4
aF0.3
aF1.3
aF0.25
aF0.0
aF0.0
aF0.0
aF0.3
aF0.7
aF0.5
aF0.0
aF0.3
aF0.3
aF0.0
aF0.0
aF0.0
aF0.0
aF0.0
aF0.3
aF0.3
aF1.0
aF-4.3
aI0
aI0
aI5
aV200984,1610612739
p1088
aa(lp1089
I1716
aVLarry Hughes
p1090
aI1610612741
aVCHI
p1091
aF29.0
aI68
aI34
aI34
aF0.5
aF29.7
aF4.5
aF11.8
aF0.381
aF1.0
aF2.9
aF0.345
aF2.2
aF2.8
aF0.798
aF0.6
aF2.8
aF3.4
aF2.7
aF1.7
aF1.5
aF0.3
aF0.8
aF2.0
aF2.2
aF12.2
aF-2.6
aI0
aI0
aI5
aV1716,1610612741
p1092
aa(lp1093
I2544
aVLeBron James
p1094
aI1610612739
aVCLE
p1095
aF23.0
aI75
aI45
aI30
aF0.6
aF40.4
aF10.6
aF21.9
aF0.484
aF1.5
aF4.8
aF0.315
aF7.3
aF10.3
aF0.712
aF1.8
aF6.1
aF7.9
aF7.2
aF3.4
aF1.8
aF1.1
aF0.8
aF2.2
aF7.9
aF30.0
aF1.9
aI31
aI7
aI5
aV2544,1610612739
p1096
aa(lp1097
I2571
aVLeandro Barbosa
p1098
aI1610612756
aVPHX
p1099
aF25.0
aI82
aI55
aI27
aF0.671
aF29.5
aF5.8
aF12.5
aF0.462
aF2.0
aF5.1
aF0.389
aF2.1
aF2.6
aF0.822
aF0.5
aF2.3
aF2.8
aF2.6
aF1.4
aF0.9
aF0.2
aF0.7
aF2.4
aF2.4
aF15.6
aF1.5
aI0
aI0
aI5
aV2571,1610612756
p1100
aa(lp1101
I200796
aVLeon Powe
p1102
aI1610612738
aVBOS
p1103
aF24.0
aI56
aI46
aI10
aF0.821
aF14.4
aF2.8
aF4.8
aF0.572
aF0.0
aF0.0
aF0.0
aF2.4
aF3.4
aF0.71
aF1.7
aF2.4
aF4.1
aF0.3
aF0.8
aF0.3
aF0.3
aF0.6
aF2.3
aF2.8
aF7.9
aF1.8
aI5
aI0
aI5
aV200796,1610612738
p1104
aa(lp1105
I101132
aVLinas Kleiza
p1106
aI1610612743
aVDEN
p1107
aF23.0
aI79
aI49
aI30
aF0.62
aF23.9
aF3.9
aF8.3
aF0.472
aF1.2
aF3.5
aF0.339
aF2.1
aF2.7
aF0.77
aF1.2
aF3.1
aF4.2
aF1.2
aF1.1
aF0.6
aF0.2
aF0.4
aF2.3
aF1.8
aF11.1
aF3.1
aI1
aI0
aI5
aV101132,1610612743
p1108
aa(lp1109
I283
aVLindsey Hunter
p1110
aI1610612765
aVDET
p1111
aF37.0
aI24
aI21
aI3
aF0.875
aF9.0
aF0.9
aF2.7
aF0.344
aF0.3
aF1.1
aF0.269
aF0.3
aF0.4
aF0.778
aF0.2
aF0.4
aF0.5
aF1.4
aF0.5
aF0.5
aF0.1
aF0.1
aF1.3
aF0.5
aF2.4
aF0.7
aI0
aI0
aI5
aV283,1610612765
p1112
aa(lp1113
I2669
aVLinton Johnson
p1114
aI1610612761
aVTOR
p1115
aF28.0
aI8
aI3
aI5
aF0.375
aF7.9
aF1.1
aF2.4
aF0.474
aF0.1
aF0.4
aF0.333
aF0.3
aF0.3
aF1.0
aF0.6
aF1.1
aF1.8
aF0.5
aF0.6
aF0.0
aF0.1
aF0.0
aF1.4
aF0.4
aF2.6
aF-1.6
aI0
aI0
aI5
aV2669,1610612761
p1116
aa(lp1117
I2254
aVLoren Woods
p1118
aI1610612745
aVHOU
p1119
aF30.0
aI7
aI4
aI3
aF0.571
aF2.4
aF0.4
aF0.7
aF0.6
aF0.0
aF0.0
aF0.0
aF0.0
aF0.0
aF0.0
aF0.0
aF0.1
aF0.1
aF0.3
aF0.0
aF0.0
aF0.0
aF0.0
aF0.3
aF0.0
aF0.9
aF1.3
aI0
aI0
aI5
aV2254,1610612745
p1120
aa(lp1121
I953
aVLorenzen Wright
p1122
aI1610612758
aVSAC
p1123
aF32.0
aI18
aI8
aI10
aF0.444
aF8.9
aF0.3
aF1.2
aF0.286
aF0.0
aF0.0
aF0.0
aF0.2
aF0.3
aF0.5
aF0.4
aF1.7
aF2.1
aF0.2
aF0.2
aF0.2
aF0.2
aF0.1
aF1.7
aF0.3
aF0.8
aF-0.7
aI0
aI0
aI5
aV953,1610612758
p1124
aa(lp1125
I200811
aVLou Amundson
p1126
aI1610612755
aVPHI
p1127
aF25.0
aI16
aI7
aI9
aF0.438
aF4.0
aF0.5
aF1.0
aF0.5
aF0.0
aF0.0
aF0.0
aF0.1
aF0.4
aF0.286
aF0.4
aF0.3
aF0.8
aF0.0
aF0.1
aF0.1
aF0.1
aF0.1
aF0.8
aF0.4
aF1.1
aF0.1
aI0
aI0
aI5
aV200811,1610612755
p1128
aa(lp1129
I101150
aVLou Williams
p1130
aI1610612755
aVPHI
p1131
aF21.0
aI80
aI39
aI41
aF0.488
aF23.3
aF4.0
aF9.4
aF0.424
aF0.7
aF1.9
aF0.359
aF2.8
aF3.6
aF0.783
aF0.5
aF1.6
aF2.1
aF3.2
aF1.6
aF1.0
aF0.2
aF0.7
aF1.6
aF2.9
aF11.5
aF0.0
aI0
aI0
aI5
aV101150,1610612755
p1132
aa(lp1133
I2449
aVLuis Scola
p1134
aI1610612745
aVHOU
p1135
aF28.0
aI82
aI55
aI27
aF0.671
aF24.7
aF4.2
aF8.2
aF0.515
aF0.0
aF0.0
aF0.0
aF1.9
aF2.9
aF0.668
aF2.1
aF4.3
aF6.4
aF1.3
aF1.3
aF0.7
aF0.2
aF0.6
aF2.9
aF2.8
aF10.3
aF2.0
aI10
aI0
aI5
aV2449,1610612745
p1136
aa(lp1137
I2739
aVLuke Jackson
p1138
aI1610612748
aVMIA
p1139
aF26.0
aI14
aI1
aI13
aF0.071
aF16.3
aF1.9
aF5.7
aF0.325
aF0.8
aF2.1
aF0.367
aF1.1
aF1.6
aF0.696
aF0.5
aF1.9
aF2.4
aF1.2
aF0.6
aF0.6
aF0.0
aF0.6
aF1.6
aF1.2
aF5.6
aF-1.3
aI0
aI0
aI5
aV2739,1610612748
p1140
aa(lp1141
I2557
aVLuke Ridnour
p1142
aI1610612760
aVSEA
p1143
aF27.0
aI61
aI14
aI47
aF0.23
aF20.0
aF2.4
aF6.0
aF0.399
aF0.3
aF1.2
aF0.296
aF1.3
aF1.5
aF0.857
aF0.2
aF1.3
aF1.5
aF4.0
aF1.3
aF0.6
aF0.2
aF0.3
aF2.0
aF1.5
aF6.4
aF-2.7
aI1
aI0
aI5
aV2557,1610612760
p1144
aa(lp1145
I2575
aVLuke Walton
p1146
aI1610612747
aVLAL
p1147
aF28.0
aI74
aI51
aI23
aF0.689
aF23.4
aF2.9
aF6.5
aF0.45
aF0.4
aF1.1
aF0.333
aF1.0
aF1.5
aF0.706
aF1.1
aF2.8
aF3.9
aF2.9
aF1.4
aF0.8
aF0.2
aF0.5
aF1.8
aF1.5
aF7.2
aF3.0
aI0
aI0
aI5
aV2575,1610612747
p1148
aa(lp1149
I2736
aVLuol Deng
p1150
aI1610612741
aVCHI
p1151
aF23.0
aI63
aI25
aI38
aF0.397
aF33.8
aF6.8
aF14.2
aF0.479
aF0.1
aF0.3
aF0.364
aF3.2
aF4.2
aF0.77
aF2.2
aF4.1
aF6.3
aF2.5
aF1.9
aF0.9
aF0.5
aF1.0
aF1.9
aF3.4
aF17.0
aF-2.4
aI6
aI0
aI5
aV2736,1610612741
p1152
aa(lp1153
I101129
aVLuther Head
p1154
aI1610612745
aVHOU
p1155
aF25.0
aI73
aI46
aI27
aF0.63
aF18.9
aF2.8
aF6.5
aF0.432
aF1.1
aF3.1
aF0.351
aF0.9
aF1.1
aF0.815
aF0.2
aF1.6
aF1.8
aF1.9
aF1.0
aF0.6
aF0.1
aF0.6
aF1.0
aF0.7
aF7.6
aF1.8
aI0
aI0
aI5
aV101129,1610612745
p1156
aa(lp1157
I1766
aVMaceo Baston
p1158
aI1610612761
aVTOR
p1159
aF32.0
aI15
aI7
aI8
aF0.467
aF6.9
aF1.1
aF1.7
aF0.68
aF0.0
aF0.0
aF0.0
aF0.5
aF0.7
aF0.7
aF0.6
aF1.1
aF1.7
aF0.2
aF0.3
aF0.1
aF0.3
aF0.1
aF1.3
aF0.8
aF2.7
aF-0.2
aI0
aI0
aI5
aV1766,1610612761
p1160
aa(lp1161
I2124
aVMalik Allen
p1162
aI1610612742
aVDAL
p1163
aF30.0
aI73
aI34
aI39
aF0.466
aF15.0
aF2.2
aF4.5
aF0.48
aF0.0
aF0.0
aF0.5
aF0.3
aF0.3
aF0.92
aF0.9
aF1.8
aF2.7
aF0.6
aF0.6
aF0.3
aF0.4
aF0.2
aF2.0
aF0.5
aF4.6
aF-0.5
aI0
aI0
aI5
aV2124,1610612742
p1164
aa(lp1165
I990
aVMalik Rose
p1166
aI1610612752
aVNYK
p1167
aF33.0
aI49
aI11
aI38
aF0.224
aF10.1
aF1.3
aF3.7
aF0.367
aF0.0
aF0.1
aF0.286
aF0.8
aF1.0
aF0.725
aF0.6
aF1.5
aF2.1
aF0.6
aF0.8
aF0.3
aF0.1
aF0.3
aF1.6
aF1.1
aF3.5
aF-1.0
aI0
aI0
aI5
aV990,1610612752
p1168
aa(lp1169
I1938
aVManu Ginobili
p1170
aI1610612759
aVSAS
p1171
aF30.0
aI74
aI51
aI23
aF0.689
aF31.1
aF6.1
aF13.3
aF0.46
aF2.1
aF5.3
aF0.401
aF5.1
aF6.0
aF0.86
aF0.9
aF3.9
aF4.8
aF4.5
aF2.7
aF1.5
aF0.4
aF0.6
aF2.3
aF5.0
aF19.5
aF5.8
aI5
aI0
aI5
aV1938,1610612759
p1172
aa(lp1173
I101162
aVMarcin Gortat
p1174
aI1610612753
aVORL
p1175
aF24.0
aI6
aI6
aI0
aF1.0
aF6.8
aF1.3
aF2.8
aF0.471
aF0.0
aF0.0
aF0.0
aF0.3
aF0.5
aF0.667
aF1.3
aF1.3
aF2.7
aF0.3
aF0.3
aF0.2
aF0.2
aF0.2
aF0.7
aF0.8
aF3.0
aF0.0
aI1
aI0
aI5
aV101162,1610612753
p1176
aa(lp1177
I201158
aVMarco Belinelli
p1178
aI1610612744
aVGSW
p1179
aF22.0
aI33
aI15
aI18
aF0.455
aF7.3
aF1.1
aF2.8
aF0.387
aF0.5
aF1.2
aF0.39
aF0.2
aF0.3
aF0.778
aF0.1
aF0.3
aF0.4
aF0.5
aF0.4
aF0.2
aF0.0
aF0.2
aF0.5
aF0.3
aF2.9
aF-1.2
aI0
aI0
aI5
aV201158,1610612744
p1180
aa(lp1181
I2556
aVMarcus Banks
p1182
aI1610612748
aVMIA
p1183
aF26.0
aI36
aI21
aI15
aF0.583
aF15.8
aF2.4
aF5.3
aF0.45
aF1.1
aF2.8
aF0.392
aF0.8
aF1.0
aF0.771
aF0.1
aF1.1
aF1.3
aF1.7
aF1.0
aF0.4
aF0.4
aF0.2
aF1.8
aF1.3
aF6.6
aF-2.5
aI0
aI0
aI5
aV2556,1610612748
p1184
aa(lp1185
I948
aVMarcus Camby
p1186
aI1610612743
aVDEN
p1187
aF34.0
aI79
aI48
aI31
aF0.608
aF34.9
aF3.6
aF8.0
aF0.45
aF0.1
aF0.3
aF0.3
aF1.8
aF2.6
aF0.708
aF2.9
aF10.2
aF13.1
aF3.3
aF1.5
aF1.1
aF3.6
aF0.2
aF2.7
aF2.4
aF9.1
aF2.9
aI30
aI2
aI5
aV948,1610612743
p1188
aa(lp1189
I200790
aVMarcus Vinicius
p1190
aI1610612740
aVNOH
p1191
aF24.0
aI13
aI12
aI1
aF0.923
aF5.3
aF0.7
aF1.5
aF0.45
aF0.4
aF0.9
aF0.417
aF0.4
aF0.8
aF0.455
aF0.1
aF0.5
aF0.6
aF0.2
aF0.2
aF0.1
aF0.1
aF0.2
aF0.3
aF0.5
aF2.2
aF0.3
aI0
aI0
aI5
aV200790,1610612740
p1192
aa(lp1193
I201173
aVMarcus Williams
p1194
aI1610612746
aVLAC
p1195
aF21.0
aI11
aI3
aI8
aF0.273
aF3.3
aF0.5
aF1.8
aF0.25
aF0.0
aF0.0
aF0.0
aF0.0
aF0.0
aF0.0
aF0.4
aF0.7
aF1.1
aF0.3
aF0.0
aF0.1
aF0.1
aF0.2
aF0.3
aF0.1
aF0.9
aF-0.1
aI0
aI0
aI5
aV201173,1610612746
p1196
aa(lp1197
I200766
aVMarcus Williams
p1198
aI1610612751
aVNJN
p1199
aF22.0
aI53
aI21
aI32
aF0.396
aF16.1
aF2.1
aF5.5
aF0.379
aF1.0
aF2.7
aF0.38
aF0.7
aF0.9
aF0.787
aF0.3
aF1.6
aF1.9
aF2.6
aF1.4
aF0.5
aF0.1
aF0.2
aF1.0
aF0.6
aF5.9
aF-3.4
aI0
aI0
aI5
aV200766,1610612751
p1200
aa(lp1201
I200776
aVMardy Collins
p1202
aI1610612752
aVNYK
p1203
aF23.0
aI46
aI12
aI34
aF0.261
aF13.8
aF1.2
aF3.8
aF0.326
aF0.2
aF0.7
aF0.25
aF0.5
aF0.8
aF0.605
aF0.4
aF1.2
aF1.6
aF1.9
aF1.2
aF0.5
aF0.2
aF0.3
aF1.2
aF0.8
aF3.2
aF-3.0
aI0
aI0
aI5
aV200776,1610612752
p1204
aa(lp1205
I201238
aVMario West
p1206
aI1610612737
aVATL
p1207
aF24.0
aI64
aI31
aI33
aF0.484
aF4.2
aF0.3
aF0.8
aF0.429
aF0.0
aF0.1
aF0.0
aF0.3
aF0.4
aF0.654
aF0.4
aF0.3
aF0.8
aF0.2
aF0.1
aF0.2
aF0.1
aF0.1
aF1.0
aF0.3
aF0.9
aF-0.7
aI0
aI0
aI5
aV201238,1610612737
p1208
aa(lp1209
I1548
aVMark Blount
p1210
aI1610612748
aVMIA
p1211
aF32.0
aI69
aI11
aI58
aF0.159
aF22.3
aF3.4
aF7.5
aF0.462
aF0.2
aF0.6
aF0.386
aF1.3
aF2.0
aF0.638
aF1.0
aF2.8
aF3.8
aF0.6
aF1.0
aF0.5
aF0.5
aF0.4
aF1.9
aF1.8
aF8.4
aF-4.7
aI3
aI0
aI5
aV1548,1610612748
p1212
aa(lp1213
I2058
aVMark Madsen
p1214
aI1610612750
aVMIN
p1215
aF32.0
aI20
aI6
aI14
aF0.3
aF7.6
aF0.2
aF1.0
aF0.158
aF0.0
aF0.0
aF0.0
aF0.2
aF0.6
aF0.25
aF0.9
aF1.0
aF1.9
aF0.2
aF0.5
aF0.2
aF0.1
aF0.2
aF1.3
aF0.6
aF0.5
aF0.1
aI0
aI0
aI5
aV2058,1610612750
p1216
aa(lp1217
I2060
aVMarko Jaric
p1218
aI1610612750
aVMIN
p1219
aF29.0
aI75
aI20
aI55
aF0.267
aF29.2
aF3.0
aF7.0
aF0.43
aF0.6
aF1.7
aF0.362
aF1.6
aF2.2
aF0.742
aF0.5
aF2.5
aF3.0
aF4.1
aF1.7
aF1.3
aF0.4
aF0.4
aF2.4
aF2.0
aF8.3
aF-4.8
aI3
aI0
aI5
aV2060,1610612750
p1220
aa(lp1221
I2605
aVMarquis Daniels
p1222
aI1610612754
aVIND
p1223
aF27.0
aI74
aI36
aI38
aF0.486
aF20.9
aF3.3
aF7.6
aF0.43
aF0.4
aF1.4
aF0.265
aF1.3
aF1.9
aF0.698
aF0.9
aF2.0
aF2.9
aF1.9
aF1.5
aF1.1
aF0.2
aF0.5
aF1.6
aF1.6
aF8.2
aF0.0
aI0
aI0
aI5
aV2605,1610612754
p1224
aa(lp1225
I101110
aVMartell Webster
p1226
aI1610612757
aVPOR
p1227
aF21.0
aI75
aI38
aI37
aF0.507
aF28.4
aF3.7
aF8.7
aF0.422
aF1.6
aF4.2
aF0.388
aF1.6
aF2.2
aF0.735
aF0.7
aF3.2
aF3.9
aF1.2
aF1.1
aF0.6
aF0.4
aF0.3
aF2.1
aF1.7
aF10.7
aF-1.1
aI0
aI0
aI5
aV101110,1610612757
p1228
aa(lp1229
I101107
aVMarvin Williams
p1230
aI1610612737
aVATL
p1231
aF22.0
aI80
aI35
aI45
aF0.438
aF34.6
aF5.3
aF11.5
aF0.462
aF0.0
aF0.1
aF0.1
aF4.2
aF5.1
aF0.822
aF1.5
aF4.2
aF5.7
aF1.7
aF1.6
aF1.0
aF0.4
aF0.9
aF2.8
aF3.6
aF14.8
aF-2.0
aI7
aI0
aI5
aV101107,1610612737
p1232
aa(lp1233
I2440
aVMatt Barnes
p1234
aI1610612744
aVGSW
p1235
aF28.0
aI73
aI42
aI31
aF0.575
aF19.4
aF2.6
aF6.1
aF0.423
aF0.7
aF2.5
aF0.293
aF0.8
aF1.1
aF0.747
aF1.3
aF3.2
aF4.4
aF1.9
aF1.2
aF0.7
aF0.5
aF0.3
aF2.2
aF1.0
aF6.7
aF0.0
aI2
aI0
aI5
aV2440,1610612744
p1236
aa(lp1237
I2588
aVMatt Bonner
p1238
aI1610612759
aVSAS
p1239
aF28.0
aI68
aI45
aI23
aF0.662
aF12.5
aF1.8
aF4.3
aF0.416
aF0.7
aF2.0
aF0.336
aF0.6
aF0.6
aF0.864
aF0.8
aF2.0
aF2.8
aF0.5
aF0.6
aF0.2
aF0.3
aF0.1
aF1.6
aF0.6
aF4.8
aF1.2
aI2
aI0
aI5
aV2588,1610612759
p1240
aa(lp1241
I2679
aVMatt Carroll
p1242
aI1610612766
aVCHA
p1243
aF27.0
aI80
aI32
aI48
aF0.4
aF25.2
aF3.2
aF7.4
aF0.428
aF1.3
aF3.0
aF0.436
aF1.4
aF1.7
aF0.804
aF0.4
aF2.4
aF2.8
aF0.9
aF0.7
aF0.6
aF0.2
aF0.5
aF2.3
aF1.3
aF9.0
aF-1.2
aI0
aI0
aI5
aV2679,1610612766
p1244
aa(lp1245
I1723
aVMatt Harpring
p1246
aI1610612762
aVUTA
p1247
aF32.0
aI76
aI50
aI26
aF0.658
aF18.1
aF3.1
aF6.2
aF0.5
aF0.0
aF0.1
aF0.2
aF1.9
aF2.7
aF0.712
aF1.3
aF1.9
aF3.2
aF1.1
aF1.3
aF0.6
aF0.2
aF0.4
aF2.1
aF2.9
aF8.2
aF0.4
aI0
aI0
aI5
aV1723,1610612762
p1248
aa(lp1249
I200772
aVMaurice Ager
p1250
aI1610612751
aVNJN
p1251
aF24.0
aI26
aI14
aI12
aF0.538
aF6.3
aF0.8
aF2.5
aF0.323
aF0.1
aF0.7
aF0.158
aF0.2
aF0.5
aF0.5
aF0.2
aF0.3
aF0.5
aF0.3
aF0.2
aF0.0
aF0.0
aF0.3
aF0.7
aF0.5
aF2.0
aF-1.5
aI0
aI0
aI5
aV200772,1610612751
p1252
aa(lp1253
I2230
aVMaurice Evans
p1254
aI1610612753
aVORL
p1255
aF29.0
aI75
aI46
aI29
aF0.613
aF22.9
aF3.5
aF7.3
aF0.481
aF1.1
aF2.8
aF0.388
aF0.8
aF1.1
aF0.711
aF1.2
aF1.7
aF2.9
aF1.1
aF0.5
aF0.6
aF0.1
aF0.6
aF1.9
aF0.9
aF8.9
aF1.7
aI0
aI0
aI5
aV2230,1610612753
p1256
aa(lp1257
I2246
aVMehmet Okur
p1258
aI1610612762
aVUTA
p1259
aF29.0
aI72
aI50
aI22
aF0.694
aF33.2
aF5.2
aF11.7
aF0.445
aF1.6
aF4.1
aF0.388
aF2.6
aF3.2
aF0.804
aF1.8
aF5.9
aF7.7
aF2.0
aF1.4
aF0.8
aF0.4
aF0.6
aF3.3
aF2.2
aF14.5
aF4.7
aI23
aI0
aI5
aV2246,1610612762
p1260
aa(lp1261
I2408
aVMelvin Ely
p1262
aI1610612740
aVNOH
p1263
aF30.0
aI52
aI35
aI17
aF0.673
aF11.9
aF1.6
aF3.5
aF0.472
aF0.0
aF0.0
aF0.0
aF0.6
aF1.1
aF0.552
aF0.5
aF2.3
aF2.8
aF0.4
aF0.8
aF0.1
aF0.3
aF0.3
aF1.5
aF1.1
aF3.9
aF1.6
aI1
aI0
aI5
aV2408,1610612740
p1264
aa(lp1265
I1897
aVMetta World Peace
p1266
aI1610612758
aVSAC
p1267
aF28.0
aI57
aI30
aI27
aF0.526
aF38.1
aF7.6
aF16.9
aF0.453
aF1.5
aF3.9
aF0.38
aF3.7
aF5.2
aF0.719
aF1.8
aF4.0
aF5.8
aF3.5
aF2.6
aF2.3
aF0.7
aF1.1
aF2.8
aF4.3
aF20.5
aF1.5
aI6
aI0
aI5
aV1897,1610612758
p1268
aa(lp1269
I1720
aVMichael Doleac
p1270
aI1610612750
aVMIN
p1271
aF31.0
aI24
aI5
aI19
aF0.208
aF10.7
aF1.2
aF2.6
aF0.444
aF0.0
aF0.0
aF0.0
aF0.0
aF0.1
aF0.5
aF0.7
aF1.4
aF2.0
aF0.3
aF0.5
aF0.4
aF0.4
aF0.1
aF1.8
aF0.2
aF2.4
aF-1.3
aI0
aI0
aI5
aV1720,1610612750
p1272
aa(lp1273
I714
aVMichael Finley
p1274
aI1610612759
aVSAS
p1275
aF35.0
aI82
aI56
aI26
aF0.683
aF26.9
aF3.8
aF9.3
aF0.414
aF1.6
aF4.4
aF0.37
aF0.8
aF1.0
aF0.8
aF0.3
aF2.8
aF3.1
aF1.4
aF0.7
aF0.4
aF0.1
aF0.2
aF1.1
aF0.6
aF10.1
aF2.7
aI0
aI0
aI5
aV714,1610612759
p1276
aa(lp1277
I200839
aVMichael Harris
p1278
aI1610612745
aVHOU
p1279
aF25.0
aI17
aI11
aI6
aF0.647
aF9.4
aF1.6
aF3.2
aF0.5
aF0.0
aF0.1
aF0.0
aF0.5
aF0.8
aF0.615
aF1.4
aF1.8
aF3.2
aF0.2
aF0.5
aF0.4
aF0.2
aF0.6
aF0.9
aF0.6
aF3.6
aF0.8
aI0
aI0
aI5
aV200839,1610612745
p1280
aa(lp1281
I2072
aVMichael Redd
p1282
aI1610612749
aVMIL
p1283
aF28.0
aI72
aI21
aI51
aF0.292
aF37.5
aF7.6
aF17.3
aF0.442
aF1.8
aF5.0
aF0.362
aF5.6
aF6.8
aF0.82
aF1.2
aF3.1
aF4.3
aF3.4
aF2.5
aF0.9
aF0.2
aF1.0
aF1.7
aF5.1
aF22.7
aF-5.1
aI2
aI0
aI5
aV2072,1610612749
p1284
aa(lp1285
I1913
aVMichael Ruffin
p1286
aI1610612749
aVMIL
p1287
aF31.0
aI46
aI12
aI34
aF0.261
aF13.7
aF0.7
aF1.3
aF0.532
aF0.0
aF0.0
aF0.0
aF0.5
aF1.4
aF0.397
aF2.0
aF2.1
aF4.0
aF0.5
aF0.4
aF0.7
aF0.4
aF0.1
aF2.0
aF1.1
aF2.0
aF-0.7
aI1
aI0
aI5
aV1913,1610612749
p1288
aa(lp1289
I101153
aVMickael Gelabale
p1290
aI1610612760
aVSEA
p1291
aF25.0
aI39
aI8
aI31
aF0.205
aF11.9
aF1.8
aF4.0
aF0.439
aF0.4
aF0.9
aF0.432
aF0.4
aF0.5
aF0.778
aF0.4
aF1.1
aF1.5
aF0.8
aF0.7
aF0.3
aF0.2
aF0.3
aF0.8
aF0.5
aF4.3
aF-1.0
aI0
aI0
aI5
aV101153,1610612760
p1292
aa(lp1293
I2554
aVMickael Pietrus
p1294
aI1610612744
aVGSW
p1295
aF26.0
aI66
aI40
aI26
aF0.606
aF19.9
aF2.6
aF5.9
aF0.439
aF1.0
aF2.8
aF0.361
aF1.0
aF1.5
aF0.673
aF1.0
aF2.7
aF3.7
aF0.7
aF0.7
aF1.0
aF0.7
aF0.3
aF3.0
aF1.5
aF7.2
aF0.3
aI3
aI0
aI5
aV2554,1610612744
p1296
aa(lp1297
I1710
aVMike Bibby
p1298
aI1610612737
aVATL
p1299
aF30.0
aI48
aI24
aI24
aF0.5
aF32.8
aF5.2
aF12.6
aF0.411
aF1.9
aF5.2
aF0.375
aF1.6
aF2.1
aF0.78
aF0.3
aF3.0
aF3.3
aF6.0
aF2.5
aF1.1
aF0.1
aF0.4
aF2.0
aF2.7
aF13.9
aF-0.5
aI5
aI0
aI5
aV1710,1610612737
p1300
aa(lp1301
I201144
aVMike Conley
p1302
aI1610612763
aVMEM
p1303
aF20.0
aI53
aI14
aI39
aF0.264
aF26.1
aF3.6
aF8.3
aF0.428
aF0.6
aF1.7
aF0.33
aF1.7
aF2.3
aF0.732
aF0.4
aF2.2
aF2.6
aF4.2
aF1.7
aF0.8
aF0.0
aF0.7
aF1.6
aF2.1
aF9.4
aF-5.4
aI2
aI0
aI5
aV201144,1610612763
p1304
aa(lp1305
I2399
aVMike Dunleavy
p1306
aI1610612754
aVIND
p1307
aF27.0
aI82
aI36
aI46
aF0.439
aF36.0
aF6.5
aF13.6
aF0.476
aF2.0
aF4.7
aF0.424
aF4.1
aF4.9
aF0.834
aF0.7
aF4.5
aF5.2
aF3.5
aF2.3
aF1.0
aF0.4
aF0.7
aF2.5
aF4.3
aF19.1
aF0.5
aI5
aI0
aI5
aV2399,1610612754
p1308
aa(lp1309
I2229
aVMike James
p1310
aI1610612740
aVNOH
p1311
aF33.0
aI54
aI28
aI26
aF0.519
aF13.3
aF1.9
aF5.4
aF0.348
aF0.6
aF1.8
aF0.32
aF0.7
aF0.9
aF0.813
aF0.3
aF1.0
aF1.3
aF1.1
aF0.7
aF0.4
aF0.0
aF0.3
aF1.0
aF0.8
aF5.0
aF-0.8
aI0
aI0
aI5
aV2229,1610612740
p1312
aa(lp1313
I2034
aVMike Miller
p1314
aI1610612763
aVMEM
p1315
aF28.0
aI70
aI21
aI49
aF0.3
aF35.3
aF5.9
aF11.8
aF0.502
aF2.2
aF5.1
aF0.432
aF2.3
aF3.0
aF0.774
aF0.7
aF5.9
aF6.7
aF3.4
aF2.6
aF0.5
aF0.2
aF0.6
aF2.1
aF2.4
aF16.4
aF-3.6
aI13
aI0
aI5
aV2034,1610612763
p1316
aa(lp1317
I2366
aVMike Wilks
p1318
aI1610612760
aVSEA
p1319
aF29.0
aI15
aI6
aI9
aF0.4
aF12.5
aF1.1
aF2.4
aF0.472
aF0.2
aF0.5
aF0.375
aF0.3
aF0.3
aF1.0
aF0.3
aF0.9
aF1.3
aF0.9
aF0.6
aF0.6
aF0.0
aF0.3
aF0.9
aF0.4
aF2.7
aF-1.1
aI0
aI0
aI5
aV2366,1610612760
p1320
aa(lp1321
I1630
aVMikki Moore
p1322
aI1610612758
aVSAC
p1323
aF32.0
aI82
aI38
aI44
aF0.463
aF29.1
aF3.4
aF6.0
aF0.577
aF0.0
aF0.0
aF0.0
aF1.6
aF2.2
aF0.736
aF2.0
aF4.1
aF6.0
aF1.0
aF1.3
aF0.4
aF0.6
aF0.3
aF3.8
aF2.6
aF8.5
aF-1.3
aI6
aI0
aI5
aV1630,1610612758
p1324
aa(lp1325
I2590
aVMo Williams
p1326
aI1610612749
aVMIL
p1327
aF25.0
aI66
aI24
aI42
aF0.364
aF36.5
aF6.7
aF13.9
aF0.48
aF1.3
aF3.5
aF0.385
aF2.5
aF2.9
aF0.856
aF0.6
aF2.9
aF3.5
aF6.3
aF2.8
aF1.2
aF0.2
aF0.7
aF2.8
aF3.1
aF17.2
aF-5.1
aI6
aI0
aI5
aV2590,1610612749
p1328
aa(lp1329
I101145
aVMonta Ellis
p1330
aI1610612744
aVGSW
p1331
aF22.0
aI81
aI48
aI33
aF0.593
aF37.9
aF8.0
aF15.1
aF0.531
aF0.1
aF0.6
aF0.231
aF4.0
aF5.1
aF0.767
aF1.6
aF3.3
aF5.0
aF3.9
aF2.1
aF1.5
aF0.3
aF0.8
aF2.4
aF4.3
aF20.2
aF2.6
aI5
aI0
aI5
aV101145,1610612744
p1332
aa(lp1333
I201165
aVMorris Almond
p1334
aI1610612762
aVUTA
p1335
aF23.0
aI9
aI9
aI0
aF1.0
aF4.4
aF0.4
aF1.7
aF0.267
aF0.1
aF0.4
aF0.25
aF0.4
aF0.7
aF0.667
aF0.0
aF0.2
aF0.2
aF0.3
aF0.2
aF0.1
aF0.0
aF0.2
aF0.6
aF0.6
aF1.4
aF-1.4
aI0
aI0
aI5
aV201165,1610612762
p1336
aa(lp1337
I2050
aVMorris Peterson
p1338
aI1610612740
aVNOH
p1339
aF30.0
aI76
aI52
aI24
aF0.684
aF23.6
aF2.8
aF6.8
aF0.417
aF1.5
aF3.8
aF0.394
aF0.9
aF1.1
aF0.765
aF0.5
aF2.2
aF2.7
aF0.9
aF0.5
aF0.6
aF0.1
aF0.2
aF1.6
aF1.0
aF8.0
aF2.8
aI0
aI0
aI5
aV2050,1610612740
p1340
aa(lp1341
I200754
aVMouhamed Sene
p1342
aI1610612760
aVSEA
p1343
aF22.0
aI13
aI1
aI12
aF0.077
aF4.8
aF0.8
aF1.8
aF0.458
aF0.0
aF0.0
aF0.0
aF0.6
aF1.3
aF0.471
aF0.5
aF0.7
aF1.2
aF0.1
aF0.0
aF0.0
aF0.5
aF0.2
aF0.7
aF0.6
aF2.3
aF-0.7
aI0
aI0
aI5
aV200754,1610612760
p1344
aa(lp1345
I101126
aVNate Robinson
p1346
aI1610612752
aVNYK
p1347
aF24.0
aI72
aI20
aI52
aF0.278
aF26.2
aF4.6
aF10.9
aF0.423
aF1.3
aF4.1
aF0.332
aF2.1
aF2.7
aF0.786
aF0.7
aF2.4
aF3.1
aF2.9
aF1.4
aF0.8
aF0.0
aF0.4
aF2.6
aF2.2
aF12.7
aF-2.0
aI0
aI0
aI5
aV101126,1610612752
p1348
aa(lp1349
I1737
aVNazr Mohammed
p1350
aI1610612766
aVCHA
p1351
aF30.0
aI82
aI39
aI43
aF0.476
aF20.1
aF3.3
aF6.4
aF0.515
aF0.0
aF0.0
aF0.0
aF1.2
aF2.0
aF0.583
aF2.4
aF3.7
aF6.0
aF0.9
aF1.2
aF0.5
aF0.7
aF0.5
aF2.8
aF1.5
aF7.8
aF-2.7
aI11
aI0
aI5
aV1737,1610612766
p1352
aa(lp1353
I2420
aVNenad Krstic
p1354
aI1610612751
aVNJN
p1355
aF24.0
aI45
aI17
aI28
aF0.378
aF18.0
aF2.7
aF6.7
aF0.41
aF0.0
aF0.0
aF0.0
aF1.2
aF1.5
aF0.754
aF0.8
aF3.7
aF4.4
aF0.6
aF0.9
aF0.2
aF0.4
aF0.4
aF2.5
aF1.2
aF6.6
aF-1.8
aI3
aI0
aI5
aV2420,1610612751
p1356
aa(lp1357
I2403
aVNene
p1358
aI1610612743
aVDEN
p1359
aF25.0
aI16
aI9
aI7
aF0.563
aF16.6
aF1.8
aF4.4
aF0.408
aF0.0
aF0.1
aF0.0
aF1.7
aF3.1
aF0.551
aF1.9
aF3.6
aF5.4
aF0.9
aF1.3
aF0.6
aF0.9
aF0.4
aF2.9
aF2.5
aF5.3
aF0.3
aI0
aI0
aI5
aV2403,1610612743
p1360
aa(lp1361
I2555
aVNick Collison
p1362
aI1610612760
aVSEA
p1363
aF27.0
aI78
aI19
aI59
aF0.244
aF28.5
aF4.1
aF8.2
aF0.502
aF0.0
aF0.0
aF0.0
aF1.6
aF2.1
aF0.737
aF3.3
aF6.1
aF9.4
aF1.4
aF1.5
aF0.6
aF0.8
aF0.8
aF3.2
aF2.2
aF9.8
aF-4.6
aI23
aI0
aI5
aV2555,1610612760
p1364
aa(lp1365
I201174
aVNick Fazekas
p1366
aI1610612746
aVLAC
p1367
aF23.0
aI26
aI5
aI21
aF0.192
aF10.3
aF1.8
aF3.2
aF0.561
aF0.0
aF0.1
aF0.0
aF0.6
aF0.8
aF0.682
aF1.3
aF2.1
aF3.4
aF0.4
aF0.5
aF0.3
aF0.4
aF0.2
aF1.0
aF0.7
aF4.1
aF0.5
aI0
aI0
aI5
aV201174,1610612746
p1368
aa(lp1369
I201156
aVNick Young
p1370
aI1610612764
aVWAS
p1371
aF23.0
aI75
aI36
aI39
aF0.48
aF15.4
aF2.8
aF6.4
aF0.439
aF0.5
aF1.3
aF0.4
aF1.3
aF1.7
aF0.815
aF0.3
aF1.2
aF1.5
aF0.8
aF1.3
aF0.5
aF0.1
aF0.3
aF1.7
aF1.4
aF7.5
aF-2.4
aI0
aI0
aI5
aV201156,1610612764
p1372
aa(lp1373
I200762
aVOleksiy Pecherov
p1374
aI1610612764
aVWAS
p1375
aF22.0
aI35
aI18
aI17
aF0.514
aF9.1
aF1.3
aF3.6
aF0.352
aF0.5
aF1.7
aF0.283
aF0.6
aF0.9
aF0.645
aF0.6
aF1.3
aF1.9
aF0.2
aF0.5
aF0.2
aF0.1
aF0.2
aF0.9
aF0.6
aF3.6
aF-1.9
aI1
aI0
aI5
aV200762,1610612764
p1376
aa(lp1377
I101158
aVOrien Greene
p1378
aI1610612758
aVSAC
p1379
aF26.0
aI7
aI2
aI5
aF0.286
aF8.7
aF0.4
aF1.6
aF0.273
aF0.0
aF0.1
aF0.0
aF0.0
aF0.0
aF0.0
aF0.0
aF0.9
aF0.9
aF0.4
aF1.0
aF0.4
aF0.1
aF0.1
aF1.3
aF0.3
aF0.9
aF-2.9
aI0
aI0
aI5
aV101158,1610612758
p1380
aa(lp1381
I970
aVOthella Harrington
p1382
aI1610612766
aVCHA
p1383
aF34.0
aI22
aI8
aI14
aF0.364
aF7.6
aF0.8
aF1.9
aF0.429
aF0.0
aF0.0
aF0.0
aF0.5
aF0.7
aF0.625
aF0.5
aF1.4
aF1.9
aF0.2
aF0.5
aF0.0
aF0.2
aF0.2
aF1.5
aF0.8
aF2.1
aF0.8
aI0
aI0
aI5
aV970,1610612766
p1384
aa(lp1385
I136
aVP.J. Brown
p1386
aI1610612738
aVBOS
p1387
aF38.0
aI18
aI16
aI2
aF0.889
aF11.6
aF0.8
aF2.3
aF0.341
aF0.0
aF0.1
aF0.0
aF0.6
aF0.9
aF0.688
aF1.6
aF2.2
aF3.8
aF0.6
aF0.6
aF0.3
aF0.4
aF0.3
aF1.6
aF0.7
aF2.2
aF-0.2
aI0
aI0
aI5
aV136,1610612738
p1388
aa(lp1389
I1727
aVPat Garrity
p1390
aI1610612753
aVORL
p1391
aF31.0
aI31
aI24
aI7
aF0.774
aF9.2
aF0.9
aF2.6
aF0.338
aF0.3
aF1.2
aF0.216
aF0.1
aF0.2
aF0.8
aF0.3
aF1.1
aF1.4
aF0.4
aF0.5
aF0.2
aF0.0
aF0.1
aF1.1
aF0.4
aF2.1
aF0.0
aI0
aI0
aI5
aV1727,1610612753
p1392
aa(lp1393
I200753
aVPatrick O'Bryant
p1394
aI1610612744
aVGSW
p1395
aF22.0
aI24
aI12
aI12
aF0.5
aF4.1
aF0.7
aF1.2
aF0.552
aF0.0
aF0.0
aF0.0
aF0.1
aF0.2
aF0.6
aF0.4
aF0.8
aF1.2
aF0.2
aF0.3
aF0.2
aF0.4
aF0.2
aF1.1
aF0.3
aF1.5
aF-1.2
aI0
aI0
aI5
aV200753,1610612744
p1396
aa(lp1397
I2200
aVPau Gasol
p1398
aI1610612747
aVLAL
p1399
aF27.0
aI66
aI32
aI34
aF0.485
aF35.6
aF7.2
aF13.5
aF0.534
aF0.1
aF0.2
aF0.25
aF4.4
aF5.5
aF0.807
aF2.3
aF6.0
aF8.4
aF3.2
aF1.9
aF0.5
aF1.5
aF0.9
aF2.1
aF4.7
aF18.9
aF3.3
aI26
aI0
aI5
aV2200,1610612747
p1400
aa(lp1401
I200781
aVPaul Davis
p1402
aI1610612746
aVLAC
p1403
aF23.0
aI22
aI8
aI14
aF0.364
aF8.8
aF1.1
aF3.0
aF0.369
aF0.0
aF0.0
aF0.0
aF0.3
aF0.5
aF0.6
aF1.1
aF1.0
aF2.1
aF0.5
aF0.4
aF0.3
aF0.3
aF0.2
aF1.5
aF0.5
aF2.5
aF-3.6
aI0
aI0
aI5
aV200781,1610612746
p1404
aa(lp1405
I200794
aVPaul Millsap
p1406
aI1610612762
aVUTA
p1407
aF23.0
aI82
aI54
aI28
aF0.659
aF20.8
aF3.1
aF6.1
aF0.504
aF0.0
aF0.0
aF0.0
aF1.9
aF2.8
aF0.677
aF2.0
aF3.6
aF5.6
aF1.0
aF1.1
aF0.9
aF0.9
aF0.7
aF3.3
aF2.2
aF8.1
aF2.7
aI4
aI0
aI5
aV200794,1610612762
p1408
aa(lp1409
I1718
aVPaul Pierce
p1410
aI1610612738
aVBOS
p1411
aF30.0
aI80
aI64
aI16
aF0.8
aF35.9
aF6.4
aF13.7
aF0.464
aF1.8
aF4.6
aF0.392
aF5.1
aF6.1
aF0.843
aF0.7
aF4.5
aF5.1
aF4.5
aF2.8
aF1.3
aF0.5
aF0.9
aF2.5
aF5.3
aF19.6
aF9.8
aI7
aI0
aI5
aV1718,1610612738
p1412
aa(lp1413
I978
aVPeja Stojakovic
p1414
aI1610612740
aVNOH
p1415
aF31.0
aI77
aI53
aI24
aF0.688
aF35.2
aF5.9
aF13.3
aF0.44
aF3.0
aF6.8
aF0.441
aF1.7
aF1.8
aF0.929
aF0.8
aF3.5
aF4.3
aF1.2
aF0.8
aF0.7
aF0.1
aF0.4
aF1.6
aF1.2
aF16.4
aF6.0
aI4
aI0
aI5
aV978,1610612740
p1416
aa(lp1417
I2056
aVPrimoz Brezec
p1418
aI1610612761
aVTOR
p1419
aF28.0
aI50
aI28
aI22
aF0.56
aF9.5
aF0.9
aF1.9
aF0.468
aF0.0
aF0.0
aF0.0
aF0.5
aF0.8
aF0.6
aF0.6
aF1.0
aF1.6
aF0.2
aF0.5
aF0.1
aF0.1
aF0.2
aF1.7
aF0.8
aF2.2
aF-1.0
aI0
aI0
aI5
aV2056,1610612761
p1420
aa(lp1421
I2047
aVQuentin Richardson
p1422
aI1610612752
aVNYK
p1423
aF28.0
aI65
aI20
aI45
aF0.308
aF28.3
aF3.1
aF8.5
aF0.359
aF1.1
aF3.3
aF0.322
aF0.9
aF1.4
aF0.682
aF0.9
aF4.0
aF4.8
aF1.8
aF1.1
aF0.7
aF0.2
aF0.5
aF2.4
aF1.2
aF8.1
aF-4.7
aI1
aI0
aI5
aV2047,1610612752
p1424
aa(lp1425
I200763
aVQuincy Douby
p1426
aI1610612758
aVSAC
p1427
aF24.0
aI74
aI32
aI42
aF0.432
aF11.8
aF1.8
aF4.5
aF0.394
aF0.6
aF1.6
aF0.344
aF0.6
aF0.7
aF0.923
aF0.2
aF0.9
aF1.1
aF0.7
aF0.8
aF0.4
aF0.2
aF0.2
aF1.1
aF0.6
aF4.8
aF-1.9
aI0
aI0
aI5
aV200763,1610612758
p1428
aa(lp1429
I2624
aVQuinton Ross
p1430
aI1610612746
aVLAC
p1431
aF27.0
aI76
aI22
aI54
aF0.289
aF19.8
aF1.7
aF4.4
aF0.391
aF0.1
aF0.3
aF0.429
aF0.5
aF0.8
aF0.667
aF0.7
aF1.6
aF2.3
aF1.2
aF0.4
aF0.6
aF0.4
aF0.3
aF1.7
aF0.8
aF4.1
aF-4.3
aI0
aI0
aI5
aV2624,1610612746
p1432
aa(lp1433
I1711
aVRaef LaFrentz
p1434
aI1610612757
aVPOR
p1435
aF32.0
aI39
aI18
aI21
aF0.462
aF7.5
aF0.7
aF1.6
aF0.443
aF0.0
aF0.1
aF0.0
aF0.3
aF0.5
aF0.579
aF0.7
aF1.0
aF1.7
aF0.2
aF0.3
aF0.3
aF0.4
aF0.2
aF1.5
aF0.5
aF1.7
aF-0.7
aI0
aI0
aI5
aV1711,1610612757
p1436
aa(lp1437
I1747
aVRafer Alston
p1438
aI1610612745
aVHOU
p1439
aF31.0
aI74
aI51
aI23
aF0.689
aF34.1
aF4.9
aF12.5
aF0.394
aF1.9
aF5.5
aF0.351
aF1.3
aF1.9
aF0.715
aF0.4
aF3.1
aF3.5
aF5.3
aF2.2
aF1.3
aF0.2
aF0.4
aF1.9
aF1.4
aF13.1
aF4.4
aI4
aI0
aI5
aV1747,1610612745
p1440
aa(lp1441
I1952
aVRaja Bell
p1442
aI1610612756
aVPHX
p1443
aF31.0
aI75
aI48
aI27
aF0.64
aF35.3
aF4.2
aF10.0
aF0.421
aF2.3
aF5.9
aF0.401
aF1.1
aF1.2
aF0.868
aF0.6
aF3.0
aF3.7
aF2.2
aF0.9
aF0.7
aF0.4
aF0.3
aF2.9
aF1.6
aF11.9
aF4.9
aI1
aI0
aI5
aV1952,1610612756
p1444
aa(lp1445
I200765
aVRajon Rondo
p1446
aI1610612738
aVBOS
p1447
aF22.0
aI77
aI62
aI15
aF0.805
aF29.9
aF4.6
aF9.3
aF0.492
aF0.1
aF0.2
aF0.263
aF1.4
aF2.3
aF0.611
aF1.0
aF3.2
aF4.2
aF5.1
aF1.9
aF1.7
aF0.2
aF0.8
aF2.4
aF2.4
aF10.6
aF7.9
aI4
aI0
aI5
aV200765,1610612738
p1448
aa(lp1449
I201196
aVRamon Sessions
p1450
aI1610612749
aVMIL
p1451
aF22.0
aI17
aI2
aI15
aF0.118
aF26.4
aF3.0
aF6.9
aF0.436
aF0.2
aF0.4
aF0.429
aF1.9
aF2.4
aF0.78
aF0.5
aF2.9
aF3.4
aF7.5
aF2.1
aF1.0
aF0.2
aF0.2
aF1.5
aF3.0
aF8.1
aF-2.6
aI3
aI0
aI5
aV201196,1610612749
p1452
aa(lp1453
I201043
aVRandolph Morris
p1454
aI1610612752
aVNYK
p1455
aF22.0
aI18
aI4
aI14
aF0.222
aF10.0
aF1.2
aF3.2
aF0.362
aF0.0
aF0.0
aF0.0
aF0.8
aF1.6
aF0.483
aF0.7
aF1.4
aF2.1
aF0.1
aF0.5
aF0.2
aF0.1
aF0.2
aF2.1
aF1.0
aF3.1
aF-6.6
aI0
aI0
aI5
aV201043,1610612752
p1456
aa(lp1457
I200751
aVRandy Foye
p1458
aI1610612750
aVMIN
p1459
aF24.0
aI39
aI14
aI25
aF0.359
aF32.3
aF5.1
aF11.8
aF0.429
aF1.6
aF3.8
aF0.412
aF1.4
aF1.7
aF0.815
aF0.3
aF2.9
aF3.3
aF4.2
aF2.0
aF0.9
aF0.1
aF0.6
aF2.6
aF1.6
aF13.1
aF-3.7
aI1
aI0
aI5
aV200751,1610612750
p1460
aa(lp1461
I101119
aVRashad McCants
p1462
aI1610612750
aVMIN
p1463
aF23.0
aI75
aI20
aI55
aF0.267
aF26.9
aF5.7
aF12.6
aF0.453
aF1.9
aF4.7
aF0.407
aF1.5
aF2.1
aF0.748
aF0.7
aF2.1
aF2.7
aF2.2
aF2.3
aF0.9
aF0.2
aF0.6
aF3.1
aF1.9
aF14.9
aF-1.6
aI0
aI0
aI5
aV101119,1610612750
p1464
aa(lp1465
I1740
aVRashard Lewis
p1466
aI1610612753
aVORL
p1467
aF28.0
aI81
aI52
aI29
aF0.642
aF38.0
aF6.4
aF14.0
aF0.455
aF2.8
aF6.8
aF0.409
aF2.7
aF3.2
aF0.838
aF1.2
aF4.2
aF5.4
aF2.4
aF1.7
aF1.2
aF0.5
aF0.5
aF2.6
aF2.7
aF18.2
aF5.2
aI1
aI0
aI5
aV1740,1610612753
p1468
aa(lp1469
I739
aVRasheed Wallace
p1470
aI1610612765
aVDET
p1471
aF33.0
aI77
aI55
aI22
aF0.714
aF30.5
aF4.9
aF11.3
aF0.432
aF1.5
aF4.1
aF0.356
aF1.5
aF1.9
aF0.767
aF1.1
aF5.5
aF6.6
aF1.8
aF1.1
aF1.2
aF1.7
aF0.2
aF2.8
aF1.6
aF12.7
aF5.8
aI10
aI0
aI5
aV739,1610612765
p1472
aa(lp1473
I1725
aVRasho Nesterovic
p1474
aI1610612761
aVTOR
p1475
aF32.0
aI71
aI35
aI36
aF0.493
aF20.9
aF3.6
aF6.6
aF0.55
aF0.0
aF0.0
aF0.333
aF0.5
aF0.7
aF0.755
aF1.8
aF3.0
aF4.8
aF1.2
aF0.8
aF0.3
aF0.7
aF0.4
aF1.9
aF0.9
aF7.8
aF0.8
aI5
aI0
aI5
aV1725,1610612761
p1476
aa(lp1477
I2446
aVRasual Butler
p1478
aI1610612740
aVNOH
p1479
aF29.0
aI51
aI37
aI14
aF0.725
aF17.2
aF1.8
aF5.1
aF0.35
aF0.9
aF2.6
aF0.331
aF0.5
aF0.6
aF0.839
aF0.3
aF1.6
aF2.0
aF0.7
aF0.2
aF0.3
aF0.4
aF0.2
aF1.3
aF0.5
aF4.9
aF0.9
aI0
aI0
aI5
aV2446,1610612740
p1480
aa(lp1481
I951
aVRay Allen
p1482
aI1610612738
aVBOS
p1483
aF32.0
aI73
aI58
aI15
aF0.795
aF35.9
aF6.0
aF13.5
aF0.445
aF2.5
aF6.2
aF0.398
aF2.9
aF3.2
aF0.907
aF1.0
aF2.6
aF3.7
aF3.1
aF1.7
aF0.9
aF0.2
aF0.6
aF2.0
aF2.3
aF17.4
aF8.5
aI1
aI0
aI5
aV951,1610612738
p1484
aa(lp1485
I101109
aVRaymond Felton
p1486
aI1610612766
aVCHA
p1487
aF24.0
aI79
aI32
aI47
aF0.405
aF37.6
aF5.2
aF12.6
aF0.413
aF0.7
aF2.5
aF0.28
aF3.3
aF4.1
aF0.8
aF0.5
aF2.5
aF3.0
aF7.4
aF2.7
aF1.2
aF0.2
aF0.8
aF2.3
aF3.2
aF14.4
aF-2.5
aI17
aI0
aI5
aV101109,1610612766
p1488
aa(lp1489
I2501
aVReggie Evans
p1490
aI1610612755
aVPHI
p1491
aF28.0
aI81
aI40
aI41
aF0.494
aF23.2
aF1.9
aF4.3
aF0.439
aF0.0
aF0.0
aF1.0
aF1.5
aF3.2
aF0.467
aF2.8
aF4.8
aF7.5
aF0.8
aF1.3
aF1.1
aF0.1
aF0.7
aF2.6
aF2.8
aF5.2
aF-0.9
aI4
aI0
aI5
aV2501,1610612755
p1492
aa(lp1493
I200764
aVRenaldo Balkman
p1494
aI1610612752
aVNYK
p1495
aF23.0
aI65
aI21
aI44
aF0.323
aF14.6
aF1.4
aF2.9
aF0.489
aF0.0
aF0.2
aF0.083
aF0.6
aF1.5
aF0.432
aF1.3
aF2.0
aF3.3
aF0.6
aF0.6
aF0.7
aF0.5
aF0.3
aF2.0
aF1.1
aF3.4
aF-1.5
aI1
aI0
aI5
aV200764,1610612752
p1496
aa(lp1497
I1888
aVRichard Hamilton
p1498
aI1610612765
aVDET
p1499
aF30.0
aI72
aI52
aI20
aF0.722
aF33.7
aF6.9
aF14.3
aF0.484
aF0.9
aF2.0
aF0.44
aF2.6
aF3.1
aF0.833
aF1.0
aF2.2
aF3.3
aF4.2
aF1.8
aF1.0
aF0.1
aF0.8
aF2.4
aF2.8
aF17.3
aF5.3
aI1
aI0
aI5
aV1888,1610612765
p1500
aa(lp1501
I2210
aVRichard Jefferson
p1502
aI1610612751
aVNJN
p1503
aF28.0
aI82
aI34
aI48
aF0.415
aF39.0
aF7.5
aF16.2
aF0.466
aF0.9
aF2.6
aF0.362
aF6.6
aF8.3
aF0.798
aF1.1
aF3.0
aF4.2
aF3.1
aF2.4
aF0.9
aF0.3
aF0.9
aF2.7
aF6.1
aF22.6
aF-3.7
aI2
aI0
aI5
aV2210,1610612751
p1504
aa(lp1505
I2499
aVRichie Frahm
p1506
aI1610612746
aVLAC
p1507
aF30.0
aI10
aI2
aI8
aF0.2
aF16.3
aF2.0
aF5.4
aF0.37
aF0.7
aF2.5
aF0.28
aF0.0
aF0.2
aF0.0
aF0.4
aF1.0
aF1.4
aF0.8
aF0.6
aF0.2
aF0.0
aF0.3
aF0.7
aF0.6
aF4.7
aF0.3
aI0
aI0
aI5
aV2499,1610612746
p1508
aa(lp1509
I1729
aVRicky Davis
p1510
aI1610612748
aVMIA
p1511
aF28.0
aI82
aI15
aI67
aF0.183
aF36.1
aF5.1
aF11.8
aF0.433
aF1.6
aF4.1
aF0.405
aF1.9
aF2.4
aF0.787
aF0.7
aF3.6
aF4.3
aF3.4
aF2.3
aF1.1
aF0.2
aF0.6
aF2.3
aF2.4
aF13.8
aF-7.2
aI4
aI0
aI5
aV1729,1610612748
p1512
aa(lp1513
I109
aVRobert Horry
p1514
aI1610612759
aVSAS
p1515
aF37.0
aI45
aI26
aI19
aF0.578
aF12.9
aF0.8
aF2.6
aF0.319
aF0.4
aF1.6
aF0.257
aF0.4
aF0.6
aF0.643
aF0.8
aF1.6
aF2.4
aF1.0
aF0.5
aF0.5
aF0.4
aF0.1
aF1.2
aF0.8
aF2.5
aF0.3
aI0
aI0
aI5
aV109,1610612759
p1516
aa(lp1517
I2741
aVRobert Swift
p1518
aI1610612760
aVSEA
p1519
aF22.0
aI8
aI1
aI7
aF0.125
aF12.2
aF0.8
aF2.1
aF0.353
aF0.0
aF0.0
aF0.0
aF0.3
aF0.3
aF1.0
aF0.8
aF1.5
aF2.3
aF0.1
aF1.3
aF0.6
aF0.8
aF0.3
aF2.0
aF0.3
aF1.8
aF-5.3
aI0
aI0
aI5
aV2741,1610612760
p1520
aa(lp1521
I200760
aVRodney Carney
p1522
aI1610612755
aVPHI
p1523
aF24.0
aI70
aI36
aI34
aF0.514
aF14.8
aF2.3
aF5.6
aF0.403
aF0.5
aF1.7
aF0.317
aF0.8
aF1.2
aF0.679
aF0.7
aF1.4
aF2.1
aF0.5
aF0.5
aF0.6
aF0.3
aF0.2
aF1.4
aF0.9
aF5.8
aF0.4
aI0
aI0
aI5
aV200760,1610612755
p1524
aa(lp1525
I201155
aVRodney Stuckey
p1526
aI1610612765
aVDET
p1527
aF22.0
aI57
aI41
aI16
aF0.719
aF19.0
aF2.7
aF6.7
aF0.401
aF0.1
aF0.3
aF0.188
aF2.2
aF2.7
aF0.814
aF0.6
aF1.7
aF2.3
aF2.8
aF1.4
aF0.9
aF0.1
aF0.7
aF2.0
aF2.2
aF7.6
aF1.0
aI0
aI0
aI5
aV201155,1610612765
p1528
aa(lp1529
I2427
aVRoger Mason Jr.
p1530
aI1610612764
aVWAS
p1531
aF27.0
aI80
aI42
aI38
aF0.525
aF21.3
aF3.3
aF7.5
aF0.443
aF1.6
aF4.1
aF0.398
aF0.8
aF0.9
aF0.873
aF0.2
aF1.4
aF1.6
aF1.7
aF0.9
aF0.5
aF0.2
aF0.2
aF1.8
aF0.8
aF9.1
aF-0.5
aI0
aI0
aI5
aV2427,1610612764
p1532
aa(lp1533
I2648
aVRonald Dupree
p1534
aI1610612760
aVSEA
p1535
aF27.0
aI5
aI1
aI4
aF0.2
aF4.2
aF0.2
aF0.6
aF0.333
aF0.0
aF0.0
aF0.0
aF0.4
aF0.4
aF1.0
aF0.2
aF1.4
aF1.6
aF0.2
aF0.0
aF0.2
aF0.0
aF0.0
aF0.0
aF0.2
aF0.8
aF1.2
aI0
aI0
aI5
aV2648,1610612760
p1536
aa(lp1537
I2436
aVRonald Murray
p1538
aI1610612754
aVIND
p1539
aF28.0
aI42
aI26
aI16
aF0.619
aF20.8
aF3.7
aF8.7
aF0.42
aF0.5
aF1.5
aF0.317
aF1.6
aF2.3
aF0.694
aF0.5
aF1.4
aF2.0
aF3.4
aF2.0
aF0.9
aF0.1
aF0.6
aF1.2
aF1.7
aF9.4
aF-0.9
aI2
aI0
aI5
aV2436,1610612754
p1540
aa(lp1541
I200758
aVRonnie Brewer
p1542
aI1610612762
aVUTA
p1543
aF23.0
aI76
aI49
aI27
aF0.645
aF27.5
aF4.7
aF8.3
aF0.558
aF0.1
aF0.7
aF0.22
aF2.6
aF3.4
aF0.759
aF1.3
aF1.6
aF2.9
aF1.8
aF0.9
aF1.7
aF0.3
aF0.7
aF1.4
aF2.1
aF12.0
aF3.7
aI0
aI0
aI5
aV200758,1610612762
p1544
aa(lp1545
I101179
aVRonnie Price
p1546
aI1610612762
aVUTA
p1547
aF25.0
aI61
aI43
aI18
aF0.705
aF9.6
aF1.4
aF3.3
aF0.431
aF0.4
aF1.2
aF0.347
aF0.4
aF0.6
aF0.684
aF0.1
aF0.6
aF0.8
aF1.3
aF0.5
aF0.5
aF0.0
aF0.2
aF1.4
aF0.7
aF3.7
aF2.6
aI0
aI0
aI5
aV101179,1610612762
p1548
aa(lp1549
I101142
aVRonny Turiaf
p1550
aI1610612747
aVLAL
p1551
aF25.0
aI78
aI53
aI25
aF0.679
aF18.7
aF2.4
aF5.1
aF0.474
aF0.0
aF0.0
aF0.0
aF1.8
aF2.4
aF0.753
aF1.2
aF2.7
aF3.9
aF1.6
aF0.9
aF0.4
aF1.4
aF0.4
aF2.6
aF2.0
aF6.6
aF1.7
aI0
aI0
aI5
aV101142,1610612747
p1552
aa(lp1553
I2767
aVRoyal Ivey
p1554
aI1610612749
aVMIL
p1555
aF26.0
aI75
aI22
aI53
aF0.293
aF19.2
aF2.0
aF5.0
aF0.394
aF0.5
aF1.4
aF0.327
aF1.1
aF1.6
aF0.726
aF0.5
aF1.1
aF1.6
aF2.1
aF1.0
aF0.6
aF0.1
aF0.4
aF2.2
aF1.7
aF5.6
aF-3.4
aI0
aI0
aI5
aV2767,1610612749
p1556
aa(lp1557
I1739
aVRuben Patterson
p1558
aI1610612746
aVLAC
p1559
aF32.0
aI20
aI8
aI12
aF0.4
aF16.3
aF2.0
aF4.3
aF0.453
aF0.0
aF0.1
aF0.0
aF1.2
aF2.2
aF0.558
aF1.2
aF2.0
aF3.2
aF0.9
aF1.4
aF1.1
aF0.4
aF0.8
aF1.9
aF1.4
aF5.1
aF-1.7
aI1
aI0
aI5
aV1739,1610612746
p1560
aa(lp1561
I200752
aVRudy Gay
p1562
aI1610612763
aVMEM
p1563
aF21.0
aI81
aI21
aI60
aF0.259
aF37.0
aF7.7
aF16.7
aF0.461
aF1.7
aF4.8
aF0.346
aF3.1
aF3.9
aF0.785
aF1.7
aF4.4
aF6.2
aF2.0
aF2.3
aF1.4
aF1.0
aF0.6
aF2.8
aF3.1
aF20.1
aF-6.1
aI10
aI0
aI5
aV200752,1610612763
p1564
aa(lp1565
I1763
aVRyan Bowen
p1566
aI1610612740
aVNOH
p1567
aF32.0
aI53
aI36
aI17
aF0.679
aF12.4
aF0.9
aF1.9
aF0.49
aF0.0
aF0.0
aF0.0
aF0.3
aF0.5
aF0.552
aF1.0
aF0.8
aF1.9
aF0.5
aF0.3
aF0.6
aF0.2
aF0.1
aF1.5
aF0.5
aF2.2
aF0.5
aI0
aI0
aI5
aV1763,1610612740
p1568
aa(lp1569
I101155
aVRyan Gomes
p1570
aI1610612750
aVMIN
p1571
aF25.0
aI82
aI22
aI60
aF0.268
aF29.7
aF4.8
aF10.5
aF0.457
aF0.7
aF2.2
aF0.33
aF2.3
aF2.8
aF0.83
aF1.6
aF4.2
aF5.8
aF1.8
aF1.2
aF0.8
aF0.1
aF0.6
aF1.9
aF1.9
aF12.6
aF-3.2
aI9
aI0
aI5
aV101155,1610612750
p1572
aa(lp1573
I200797
aVRyan Hollins
p1574
aI1610612766
aVCHA
p1575
aF23.0
aI60
aI23
aI37
aF0.383
aF8.9
aF0.8
aF1.6
aF0.489
aF0.0
aF0.0
aF0.0
aF0.9
aF1.4
aF0.671
aF0.9
aF0.9
aF1.8
aF0.2
aF0.4
aF0.2
aF0.5
aF0.2
aF1.6
aF1.2
aF2.5
aF-0.6
aI0
aI0
aI5
aV200797,1610612766
p1576
aa(lp1577
I101136
aVSalim Stoudamire
p1578
aI1610612737
aVATL
p1579
aF25.0
aI35
aI12
aI23
aF0.343
aF11.5
aF1.9
aF5.1
aF0.361
aF0.8
aF2.4
aF0.341
aF1.2
aF1.4
aF0.82
aF0.1
aF0.6
aF0.7
aF0.8
aF0.6
aF0.2
aF0.1
aF0.3
aF1.0
aF0.9
aF5.7
aF-0.9
aI0
aI0
aI5
aV101136,1610612737
p1580
aa(lp1581
I208
aVSam Cassell
p1582
aI1610612738
aVBOS
p1583
aF38.0
aI55
aI29
aI26
aF0.527
aF23.2
aF4.2
aF9.7
aF0.438
aF0.4
aF1.4
aF0.303
aF2.3
aF2.6
aF0.882
aF0.3
aF2.2
aF2.5
aF3.9
aF1.8
aF0.7
aF0.1
aF0.3
aF1.8
aF2.2
aF11.2
aF-1.3
aI0
aI0
aI5
aV208,1610612738
p1584
aa(lp1585
I2223
aVSamuel Dalembert
p1586
aI1610612755
aVPHI
p1587
aF28.0
aI82
aI40
aI42
aF0.488
aF33.2
aF4.1
aF8.1
aF0.513
aF0.0
aF0.0
aF0.0
aF2.3
aF3.2
aF0.707
aF3.7
aF6.6
aF10.4
aF0.5
aF1.9
aF0.5
aF2.3
aF0.8
aF3.3
aF2.6
aF10.5
aF0.1
aI26
aI0
aI5
aV2223,1610612755
p1588
aa(lp1589
I2562
aVSasha Pavlovic
p1590
aI1610612739
aVCLE
p1591
aF24.0
aI51
aI28
aI23
aF0.549
aF23.3
aF2.9
aF7.9
aF0.362
aF0.7
aF2.2
aF0.298
aF1.0
aF1.5
aF0.688
aF0.7
aF1.8
aF2.5
aF1.6
aF1.1
aF0.6
aF0.1
aF0.6
aF2.3
aF1.3
aF7.4
aF-1.1
aI0
aI0
aI5
aV2562,1610612739
p1592
aa(lp1593
I2756
aVSasha Vujacic
p1594
aI1610612747
aVLAL
p1595
aF24.0
aI72
aI49
aI23
aF0.681
aF17.8
aF3.0
aF6.7
aF0.454
aF1.6
aF3.8
aF0.437
aF1.1
aF1.3
aF0.835
aF0.3
aF1.9
aF2.1
aF1.0
aF0.7
aF0.5
aF0.1
aF0.2
aF1.5
aF0.9
aF8.8
aF1.9
aI0
aI0
aI5
aV2756,1610612747
p1596
aa(lp1597
I1513
aVScot Pollard
p1598
aI1610612738
aVBOS
p1599
aF33.0
aI22
aI17
aI5
aF0.773
aF7.9
aF0.5
aF1.0
aF0.522
aF0.0
aF0.0
aF0.0
aF0.7
aF1.0
aF0.682
aF0.6
aF1.0
aF1.7
aF0.1
aF0.2
aF0.1
aF0.3
aF0.2
aF2.0
aF0.8
aF1.8
aF0.7
aI0
aI0
aI5
aV1513,1610612738
p1600
aa(lp1601
I1752
aVSean Marks
p1602
aI1610612756
aVPHX
p1603
aF32.0
aI19
aI16
aI3
aF0.842
aF6.8
aF1.2
aF2.3
aF0.535
aF0.1
aF0.2
aF0.25
aF0.6
aF1.0
aF0.632
aF0.5
aF1.4
aF1.9
aF0.2
aF0.4
aF0.2
aF0.5
aF0.0
aF1.2
aF0.6
aF3.1
aF-3.4
aI1
aI0
aI5
aV1752,1610612756
p1604
aa(lp1605
I201157
aVSean Williams
p1606
aI1610612751
aVNJN
p1607
aF21.0
aI73
aI28
aI45
aF0.384
aF17.5
aF2.2
aF4.2
aF0.538
aF0.0
aF0.0
aF0.0
aF1.1
aF1.8
aF0.609
aF1.6
aF2.8
aF4.4
aF0.4
aF1.0
aF0.4
aF1.5
aF0.4
aF2.6
aF1.6
aF5.6
aF-2.5
aI2
aI0
aI5
aV201157,1610612751
p1608
aa(lp1609
I2742
aVSebastian Telfair
p1610
aI1610612750
aVMIN
p1611
aF23.0
aI60
aI13
aI47
aF0.217
aF32.2
aF3.7
aF9.3
aF0.401
aF0.5
aF1.9
aF0.281
aF1.3
aF1.8
aF0.743
aF0.3
aF2.0
aF2.3
aF5.9
aF1.9
aF1.0
aF0.2
aF0.5
aF2.9
aF1.8
aF9.3
aF-6.7
aI2
aI0
aI5
aV2742,1610612750
p1612
aa(lp1613
I200771
aVSergio Rodriguez
p1614
aI1610612757
aVPOR
p1615
aF22.0
aI72
aI36
aI36
aF0.5
aF8.7
aF1.0
aF2.7
aF0.352
aF0.2
aF0.8
aF0.293
aF0.3
aF0.5
aF0.658
aF0.2
aF0.6
aF0.8
aF1.7
aF0.7
aF0.3
aF0.0
aF0.2
aF0.8
aF0.5
aF2.5
aF-1.4
aI0
aI0
aI5
aV200771,1610612757
p1616
aa(lp1617
I2203
aVShane Battier
p1618
aI1610612745
aVHOU
p1619
aF29.0
aI80
aI54
aI26
aF0.675
aF36.3
aF3.3
aF7.7
aF0.428
aF1.7
aF4.6
aF0.377
aF0.9
aF1.3
aF0.743
aF1.6
aF3.5
aF5.1
aF1.9
aF1.0
aF1.0
aF1.1
aF0.2
aF2.5
aF1.7
aF9.3
aF4.2
aI1
aI0
aI5
aV2203,1610612745
p1620
aa(lp1621
I200769
aVShannon Brown
p1622
aI1610612741
aVCHI
p1623
aF22.0
aI21
aI5
aI16
aF0.238
aF11.4
aF2.1
aF6.0
aF0.349
aF0.4
aF1.4
aF0.3
aF0.8
aF1.4
aF0.586
aF0.3
aF0.7
aF1.0
aF0.8
aF1.1
aF0.5
aF0.1
aF0.5
aF1.4
aF1.0
aF5.4
aF-3.8
aI0
aI0
aI5
aV200769,1610612741
p1624
aa(lp1625
I406
aVShaquille O'Neal
p1626
aI1610612756
aVPHX
p1627
aF36.0
aI61
aI25
aI36
aF0.41
aF28.7
aF5.4
aF9.1
aF0.593
aF0.0
aF0.0
aF0.0
aF2.8
aF5.5
aF0.503
aF2.7
aF6.4
aF9.1
aF1.5
aF3.0
aF0.5
aF1.4
aF0.4
aF3.7
aF5.4
aF13.6
aF0.1
aI21
aI0
aI5
aV406,1610612756
p1628
aa(lp1629
I949
aVShareef Abdur-Rahim
p1630
aI1610612758
aVSAC
p1631
aF31.0
aI6
aI2
aI4
aF0.333
aF8.4
aF0.5
aF2.3
aF0.214
aF0.0
aF0.0
aF0.0
aF0.7
aF0.7
aF1.0
aF1.0
aF0.7
aF1.7
aF0.7
aF0.2
aF0.2
aF0.0
aF0.5
aF1.5
aF0.7
aF1.7
aF0.0
aI0
aI0
aI5
aV949,1610612758
p1632
aa(lp1633
I101183
aVShavlik Randolph
p1634
aI1610612755
aVPHI
p1635
aF24.0
aI9
aI3
aI6
aF0.333
aF3.1
aF0.4
aF1.6
aF0.286
aF0.0
aF0.0
aF0.0
aF0.0
aF0.0
aF0.0
aF1.0
aF0.2
aF1.2
aF0.3
aF0.2
aF0.1
aF0.3
aF0.1
aF0.6
aF0.1
aF0.9
aF1.6
aI0
aI0
aI5
aV101183,1610612755
p1636
aa(lp1637
I1890
aVShawn Marion
p1638
aI1610612748
aVMIA
p1639
aF30.0
aI63
aI37
aI26
aF0.587
aF36.7
aF6.3
aF12.5
aF0.508
aF1.0
aF3.1
aF0.333
aF1.7
aF2.4
aF0.707
aF2.2
aF8.0
aF10.2
aF2.2
aF1.4
aF2.0
aF1.3
aF0.7
aF2.4
aF1.8
aF15.4
aF3.4
aI32
aI0
aI5
aV1890,1610612748
p1640
aa(lp1641
I200761
aVShawne Williams
p1642
aI1610612754
aVIND
p1643
aF22.0
aI65
aI25
aI40
aF0.385
aF14.9
aF2.4
aF5.7
aF0.427
aF0.7
aF2.1
aF0.314
aF1.2
aF1.6
aF0.717
aF0.8
aF1.9
aF2.7
aF0.9
aF0.9
aF0.4
aF0.4
aF0.4
aF2.0
aF1.3
aF6.7
aF-0.7
aI1
aI0
aI5
aV200761,1610612754
p1644
aa(lp1645
I200749
aVShelden Williams
p1646
aI1610612758
aVSAC
p1647
aF24.0
aI64
aI29
aI35
aF0.453
aF12.1
aF1.4
aF3.3
aF0.434
aF0.0
aF0.0
aF0.0
aF1.1
aF1.6
aF0.676
aF1.1
aF2.1
aF3.2
aF0.3
aF0.5
aF0.3
aF0.3
aF0.4
aF1.7
aF1.4
aF4.0
aF-0.5
aI2
aI0
aI5
aV200749,1610612758
p1648
aa(lp1649
I2470
aVSmush Parker
p1650
aI1610612746
aVLAC
p1651
aF27.0
aI28
aI3
aI25
aF0.107
aF21.2
aF2.3
aF6.6
aF0.348
aF0.6
aF2.8
aF0.231
aF0.7
aF1.0
aF0.679
aF0.1
aF1.7
aF1.8
aF3.0
aF1.6
aF0.9
aF0.2
aF0.2
aF2.1
aF0.9
aF5.9
aF-3.7
aI0
aI0
aI5
aV2470,1610612746
p1652
aa(lp1653
I200780
aVSolomon Jones
p1654
aI1610612737
aVATL
p1655
aF23.0
aI35
aI13
aI22
aF0.371
aF4.1
aF0.3
aF0.9
aF0.4
aF0.0
aF0.1
aF0.0
aF0.3
aF0.6
aF0.55
aF0.5
aF0.7
aF1.2
aF0.0
aF0.3
aF0.1
aF0.1
aF0.2
aF0.8
aF0.4
aF1.0
aF-1.2
aI0
aI0
aI5
aV200780,1610612737
p1656
aa(lp1657
I201150
aVSpencer Hawes
p1658
aI1610612758
aVSAC
p1659
aF20.0
aI71
aI33
aI38
aF0.465
aF13.1
aF2.1
aF4.5
aF0.459
aF0.1
aF0.3
aF0.19
aF0.5
aF0.8
aF0.655
aF1.0
aF2.3
aF3.2
aF0.6
aF0.8
aF0.2
aF0.6
aF0.3
aF1.8
aF0.7
aF4.7
aF-1.4
aI2
aI0
aI5
aV201150,1610612758
p1660
aa(lp1661
I201186
aVStephane Lasme
p1662
aI1610612748
aVMIA
p1663
aF25.0
aI16
aI3
aI13
aF0.188
aF19.0
aF2.0
aF4.4
aF0.451
aF0.0
aF0.0
aF0.0
aF1.2
aF2.0
aF0.594
aF1.6
aF1.7
aF3.3
aF0.2
aF0.9
aF0.8
aF1.4
aF0.8
aF2.2
aF1.2
aF5.2
aF-2.3
aI0
aI0
aI5
aV201186,1610612748
p1664
aa(lp1665
I101211
aVStephen Graham
p1666
aI1610612754
aVIND
p1667
aF26.0
aI22
aI6
aI16
aF0.273
aF5.8
aF1.5
aF2.6
aF0.586
aF0.3
aF0.6
aF0.5
aF0.5
aF0.7
aF0.75
aF0.2
aF0.8
aF1.0
aF0.4
aF0.5
aF0.2
aF0.0
aF0.1
aF0.6
aF0.5
aF4.0
aF0.5
aI0
aI0
aI5
aV101211,1610612754
p1668
aa(lp1669
I1536
aVStephen Jackson
p1670
aI1610612744
aVGSW
p1671
aF30.0
aI73
aI46
aI27
aF0.63
aF39.1
aF6.7
aF16.5
aF0.405
aF2.5
aF6.9
aF0.363
aF4.2
aF5.1
aF0.832
aF0.9
aF3.4
aF4.4
aF4.1
aF2.7
aF1.3
aF0.4
aF0.9
aF2.3
aF3.6
aF20.1
aF2.8
aI1
aI0
aI5
aV1536,1610612744
p1672
aa(lp1673
I950
aVStephon Marbury
p1674
aI1610612752
aVNYK
p1675
aF31.0
aI24
aI6
aI18
aF0.25
aF33.5
aF4.6
aF11.0
aF0.419
aF1.2
aF3.1
aF0.378
aF3.5
aF4.8
aF0.716
aF0.7
aF1.8
aF2.5
aF4.7
aF2.0
aF0.9
aF0.1
aF0.7
aF2.4
aF3.6
aF13.9
aF-6.8
aI0
aI0
aI5
aV950,1610612752
p1676
aa(lp1677
I2581
aVSteve Blake
p1678
aI1610612757
aVPOR
p1679
aF28.0
aI81
aI41
aI40
aF0.506
aF29.9
aF3.2
aF7.9
aF0.408
aF1.5
aF3.7
aF0.406
aF0.6
aF0.8
aF0.766
aF0.4
aF2.0
aF2.4
aF5.1
aF1.4
aF0.7
aF0.0
aF0.1
aF1.6
aF1.1
aF8.5
aF0.8
aI3
aI0
aI5
aV2581,1610612757
p1680
aa(lp1681
I1883
aVSteve Francis
p1682
aI1610612745
aVHOU
p1683
aF31.0
aI10
aI5
aI5
aF0.5
aF20.0
aF1.9
aF5.7
aF0.333
aF0.4
aF1.7
aF0.235
aF1.3
aF2.3
aF0.565
aF0.8
aF1.5
aF2.3
aF3.0
aF1.4
aF0.9
aF0.5
aF0.5
aF2.5
aF1.6
aF5.5
aF-0.5
aI0
aI0
aI5
aV1883,1610612745
p1684
aa(lp1685
I959
aVSteve Nash
p1686
aI1610612756
aVPHX
p1687
aF34.0
aI81
aI55
aI26
aF0.679
aF34.3
aF6.0
aF11.9
aF0.504
aF2.2
aF4.7
aF0.47
aF2.7
aF3.0
aF0.906
aF0.3
aF3.1
aF3.5
aF11.1
aF3.6
aF0.7
aF0.1
aF0.3
aF1.4
aF2.7
aF16.9
aF6.8
aI48
aI0
aI5
aV959,1610612756
p1688
aa(lp1689
I200779
aVSteve Novak
p1690
aI1610612745
aVHOU
p1691
aF25.0
aI35
aI27
aI8
aF0.771
aF7.5
aF1.4
aF2.9
aF0.48
aF1.0
aF2.0
aF0.479
aF0.1
aF0.1
aF0.75
aF0.1
aF0.9
aF1.0
aF0.2
aF0.1
aF0.1
aF0.1
aF0.0
aF0.5
aF0.1
aF3.9
aF-0.7
aI0
aI0
aI5
aV200779,1610612745
p1692
aa(lp1693
I2212
aVSteven Hunter
p1694
aI1610612743
aVDEN
p1695
aF26.0
aI19
aI13
aI6
aF0.684
aF6.3
aF0.8
aF1.5
aF0.536
aF0.0
aF0.0
aF0.0
aF0.5
aF1.1
aF0.45
aF0.5
aF1.0
aF1.5
aF0.0
aF0.4
aF0.0
aF0.3
aF0.2
aF1.1
aF0.9
aF2.1
aF-1.2
aI0
aI0
aI5
aV2212,1610612743
p1696
aa(lp1697
I2031
aVStromile Swift
p1698
aI1610612751
aVNJN
p1699
aF28.0
aI56
aI20
aI36
aF0.357
aF15.1
aF2.4
aF4.7
aF0.509
aF0.0
aF0.0
aF0.0
aF1.3
aF1.9
aF0.67
aF1.1
aF2.4
aF3.6
aF0.5
aF0.9
aF0.3
aF1.0
aF0.4
aF2.0
aF1.7
aF6.1
aF-1.5
aI1
aI0
aI5
aV2031,1610612751
p1700
aa(lp1701
I2551
aVT.J. Ford
p1702
aI1610612761
aVTOR
p1703
aF25.0
aI51
aI22
aI29
aF0.431
aF23.5
aF4.8
aF10.3
aF0.469
aF0.3
aF1.0
aF0.294
aF2.2
aF2.5
aF0.88
aF0.5
aF1.5
aF2.0
aF6.1
aF2.0
aF1.1
aF0.0
aF0.5
aF1.8
aF2.4
aF12.1
aF0.0
aI2
aI0
aI5
aV2551,1610612761
p1704
aa(lp1705
I200814
aVTarence Kinsey
p1706
aI1610612763
aVMEM
p1707
aF24.0
aI11
aI4
aI7
aF0.364
aF8.7
aF1.5
aF3.5
aF0.421
aF0.3
aF0.6
aF0.429
aF0.5
aF0.5
aF0.833
aF0.3
aF0.8
aF1.1
aF0.2
aF0.3
aF0.3
aF0.0
aF0.1
aF1.0
aF0.6
aF3.6
aF0.4
aI0
aI0
aI5
aV200814,1610612763
p1708
aa(lp1709
I201192
aVTaurean Green
p1710
aI1610612743
aVDEN
p1711
aF21.0
aI17
aI8
aI9
aF0.471
aF4.3
aF0.4
aF1.5
aF0.28
aF0.1
aF0.6
aF0.182
aF0.6
aF0.7
aF0.917
aF0.0
aF0.6
aF0.6
aF0.6
aF0.5
aF0.1
aF0.0
aF0.0
aF0.3
aF0.4
aF1.6
aF0.3
aI0
aI0
aI5
aV201192,1610612743
p1712
aa(lp1713
I2419
aVTayshaun Prince
p1714
aI1610612765
aVDET
p1715
aF28.0
aI82
aI59
aI23
aF0.72
aF32.9
aF5.1
aF11.5
aF0.448
aF0.6
aF1.8
aF0.363
aF2.3
aF2.9
aF0.768
aF1.3
aF3.5
aF4.9
aF3.3
aF1.1
aF0.5
aF0.4
aF0.4
aF1.1
aF2.2
aF13.2
aF6.2
aI4
aI0
aI5
aV2419,1610612765
p1716
aa(lp1717
I200757
aVThabo Sefolosha
p1718
aI1610612741
aVCHI
p1719
aF24.0
aI69
aI27
aI42
aF0.391
aF20.8
aF2.6
aF6.1
aF0.428
aF0.4
aF1.3
aF0.33
aF1.1
aF1.5
aF0.721
aF0.7
aF3.0
aF3.7
aF1.9
aF1.3
aF0.9
aF0.4
aF0.3
aF1.9
aF1.2
aF6.7
aF-1.4
aI3
aI0
aI5
aV200757,1610612741
p1720
aa(lp1721
I201152
aVThaddeus Young
p1722
aI1610612755
aVPHI
p1723
aF20.0
aI74
aI38
aI36
aF0.514
aF21.0
aF3.6
aF6.6
aF0.539
aF0.1
aF0.3
aF0.316
aF1.0
aF1.4
aF0.738
aF1.6
aF2.6
aF4.2
aF0.8
aF0.9
aF1.0
aF0.1
aF0.4
aF1.7
aF1.3
aF8.2
aF2.4
aI0
aI0
aI5
aV201152,1610612755
p1724
aa(lp1725
I689
aVTheo Ratliff
p1726
aI1610612765
aVDET
p1727
aF35.0
aI26
aI13
aI13
aF0.5
aF16.8
aF1.6
aF3.3
aF0.482
aF0.0
aF0.0
aF0.0
aF1.1
aF1.7
aF0.674
aF1.2
aF2.2
aF3.4
aF0.5
aF0.8
aF0.3
aF1.4
aF0.2
aF2.3
aF1.2
aF4.3
aF0.1
aI0
aI0
aI5
aV689,1610612765
p1728
aa(lp1729
I201242
aVThomas Gardner
p1730
aI1610612741
aVCHI
p1731
aF23.0
aI4
aI1
aI3
aF0.25
aF11.2
aF2.3
aF5.8
aF0.391
aF0.8
aF3.0
aF0.25
aF0.0
aF0.5
aF0.0
aF0.8
aF0.3
aF1.0
aF0.3
aF1.0
aF0.0
aF0.0
aF0.8
aF1.0
aF0.5
aF5.3
aF-2.3
aI0
aI0
aI5
aV201242,1610612741
p1732
aa(lp1733
I1495
aVTim Duncan
p1734
aI1610612759
aVSAS
p1735
aF32.0
aI78
aI54
aI24
aF0.692
aF34.0
aF7.5
aF15.1
aF0.497
aF0.0
aF0.1
aF0.0
aF4.3
aF5.9
aF0.73
aF3.0
aF8.3
aF11.3
aF2.8
aF2.3
aF0.7
aF1.9
aF1.3
aF2.4
aF5.1
aF19.3
aF5.4
aI53
aI0
aI5
aV1495,1610612759
p1736
aa(lp1737
I1501
aVTim Thomas
p1738
aI1610612746
aVLAC
p1739
aF31.0
aI63
aI18
aI45
aF0.286
aF30.8
aF4.6
aF11.2
aF0.413
aF1.3
aF4.3
aF0.306
aF1.8
aF2.4
aF0.752
aF1.0
aF4.1
aF5.1
aF2.7
aF1.6
aF0.6
aF0.5
aF0.6
aF3.0
aF2.0
aF12.4
aF-3.3
aI3
aI0
aI5
aV1501,1610612746
p1740
aa(lp1741
I2754
aVTony Allen
p1742
aI1610612738
aVBOS
p1743
aF26.0
aI75
aI61
aI14
aF0.813
aF18.3
aF2.3
aF5.2
aF0.434
aF0.2
aF0.8
aF0.316
aF1.8
aF2.4
aF0.762
aF0.5
aF1.8
aF2.2
aF1.5
aF1.5
aF0.8
aF0.3
aF0.4
aF2.2
aF1.9
aF6.6
aF2.9
aI0
aI0
aI5
aV2754,1610612738
p1744
aa(lp1745
I2225
aVTony Parker
p1746
aI1610612759
aVSAS
p1747
aF26.0
aI69
aI48
aI21
aF0.696
aF33.5
aF7.5
aF15.1
aF0.494
aF0.2
aF1.0
aF0.258
aF3.6
aF5.0
aF0.715
aF0.4
aF2.8
aF3.2
aF6.0
aF2.4
aF0.8
aF0.1
aF1.0
aF1.3
aF4.0
aF18.8
aF5.0
aI3
aI0
aI5
aV2225,1610612759
p1748
aa(lp1749
I1503
aVTracy McGrady
p1750
aI1610612745
aVHOU
p1751
aF29.0
aI66
aI46
aI20
aF0.697
aF37.0
aF8.3
aF19.8
aF0.419
aF1.3
aF4.5
aF0.292
aF3.7
aF5.4
aF0.684
aF0.6
aF4.5
aF5.1
aF5.9
aF2.4
aF1.0
aF0.5
aF0.8
aF1.4
aF4.6
aF21.6
aF4.0
aI5
aI1
aI5
aV1503,1610612745
p1752
aa(lp1753
I101143
aVTravis Diener
p1754
aI1610612754
aVIND
p1755
aF26.0
aI66
aI28
aI38
aF0.424
aF20.5
aF2.4
aF6.5
aF0.37
aF1.1
aF3.5
aF0.318
aF1.0
aF1.1
aF0.901
aF0.4
aF1.3
aF1.7
aF3.8
aF0.8
aF0.5
aF0.1
aF0.1
aF1.6
aF1.1
aF6.9
aF-0.8
aI1
aI0
aI5
aV101143,1610612754
p1756
aa(lp1757
I2566
aVTravis Outlaw
p1758
aI1610612757
aVPOR
p1759
aF23.0
aI82
aI41
aI41
aF0.5
aF26.7
aF5.1
aF11.8
aF0.433
aF0.5
aF1.2
aF0.396
aF2.7
aF3.6
aF0.741
aF1.2
aF3.4
aF4.6
aF1.3
aF1.3
aF0.7
aF0.8
aF0.6
aF2.1
aF2.8
aF13.3
aF-1.4
aI4
aI0
aI5
aV2566,1610612757
p1760
aa(lp1761
I2239
aVTrenton Hassell
p1762
aI1610612751
aVNJN
p1763
aF29.0
aI63
aI33
aI30
aF0.524
aF12.3
aF0.9
aF2.1
aF0.422
aF0.0
aF0.1
aF0.222
aF0.1
aF0.2
aF0.7
aF0.3
aF1.0
aF1.3
aF0.7
aF0.3
aF0.2
aF0.0
aF0.1
aF1.4
aF0.3
aF2.0
aF-2.3
aI0
aI0
aI5
aV2239,1610612751
p1764
aa(lp1765
I2772
aVTrevor Ariza
p1766
aI1610612747
aVLAL
p1767
aF23.0
aI35
aI27
aI8
aF0.771
aF15.6
aF2.0
aF3.9
aF0.507
aF0.1
aF0.5
aF0.278
aF1.4
aF2.1
aF0.653
aF0.9
aF2.2
aF3.1
aF1.3
aF0.7
aF0.9
aF0.3
aF0.2
aF1.3
aF1.4
aF5.5
aF0.5
aI1
aI0
aI5
aV2772,1610612747
p1768
aa(lp1769
I1607
aVTroy Hudson
p1770
aI1610612744
aVGSW
p1771
aF32.0
aI9
aI5
aI4
aF0.556
aF10.4
aF1.0
aF3.4
aF0.29
aF0.4
aF1.3
aF0.333
aF0.7
aF0.7
aF1.0
aF0.0
aF0.8
aF0.8
aF1.0
aF0.8
aF0.3
aF0.0
aF0.1
aF0.4
aF0.9
aF3.1
aF-1.3
aI0
aI0
aI5
aV1607,1610612744
p1772
aa(lp1773
I2211
aVTroy Murphy
p1774
aI1610612754
aVIND
p1775
aF28.0
aI75
aI33
aI42
aF0.44
aF28.1
aF4.2
aF9.2
aF0.455
aF1.3
aF3.1
aF0.398
aF2.6
aF3.2
aF0.797
aF1.4
aF5.8
aF7.2
aF2.2
aF1.3
aF0.7
aF0.4
aF0.6
aF2.9
aF2.3
aF12.2
aF-0.8
aI10
aI0
aI5
aV2211,1610612754
p1776
aa(lp1777
I1731
aVTyronn Lue
p1778
aI1610612742
aVDAL
p1779
aF31.0
aI50
aI21
aI29
aF0.42
aF14.7
aF2.3
aF5.1
aF0.447
aF0.8
aF1.7
aF0.453
aF0.5
aF0.6
aF0.781
aF0.2
aF0.9
aF1.1
aF1.5
aF0.5
aF0.2
aF0.0
aF0.2
aF1.3
aF0.9
aF5.8
aF0.0
aI0
aI0
aI5
aV1731,1610612742
p1780
aa(lp1781
I200748
aVTyrus Thomas
p1782
aI1610612741
aVCHI
p1783
aF21.0
aI74
aI27
aI47
aF0.365
aF18.0
aF2.5
aF5.9
aF0.423
aF0.0
aF0.1
aF0.167
aF1.7
aF2.4
aF0.741
aF1.4
aF3.2
aF4.6
aF1.2
aF1.0
aF0.6
aF1.0
aF0.7
aF2.3
aF2.0
aF6.8
aF-0.4
aI6
aI0
aI5
aV200748,1610612741
p1784
aa(lp1785
I2199
aVTyson Chandler
p1786
aI1610612740
aVNOH
p1787
aF25.0
aI79
aI54
aI25
aF0.684
aF35.2
aF4.8
aF7.7
aF0.623
aF0.0
aF0.0
aF0.0
aF2.2
aF3.7
aF0.593
aF4.1
aF7.7
aF11.7
aF1.0
aF1.7
aF0.6
aF1.1
aF0.5
aF3.1
aF3.5
aF11.8
aF5.4
aI38
aI0
aI5
aV2199,1610612740
p1788
aa(lp1789
I2617
aVUdonis Haslem
p1790
aI1610612748
aVMIA
p1791
aF28.0
aI49
aI10
aI39
aF0.204
aF36.8
aF4.8
aF10.3
aF0.467
aF0.0
aF0.0
aF0.0
aF2.3
aF2.9
aF0.81
aF2.2
aF6.9
aF9.0
aF1.4
aF1.4
aF0.8
aF0.4
aF0.6
aF3.0
aF2.8
aF12.0
aF-6.7
aI11
aI0
aI5
aV2617,1610612748
p1792
aa(lp1793
I2751
aVViktor Khryapa
p1794
aI1610612741
aVCHI
p1795
aF25.0
aI9
aI3
aI6
aF0.333
aF11.6
aF1.3
aF3.4
aF0.387
aF0.0
aF0.1
aF0.0
aF0.9
aF1.6
aF0.571
aF0.7
aF1.6
aF2.2
aF0.9
aF0.7
aF0.7
aF0.0
aF0.0
aF1.2
aF1.2
aF3.6
aF1.7
aI0
aI0
aI5
aV2751,1610612741
p1796
aa(lp1797
I1713
aVVince Carter
p1798
aI1610612751
aVNJN
p1799
aF31.0
aI76
aI34
aI42
aF0.447
aF38.9
aF7.7
aF16.9
aF0.456
aF1.3
aF3.6
aF0.359
aF4.6
aF5.6
aF0.816
aF1.5
aF4.5
aF6.0
aF5.1
aF2.4
aF1.2
aF0.4
aF0.7
aF3.2
aF4.8
aF21.3
aF-1.5
aI9
aI0
aI5
aV1713,1610612751
p1800
aa(lp1801
I2209
aVVladimir Radmanovic
p1802
aI1610612747
aVLAL
p1803
aF27.0
aI65
aI45
aI20
aF0.692
aF22.8
aF3.0
aF6.7
aF0.453
aF1.5
aF3.6
aF0.406
aF0.8
aF1.0
aF0.8
aF0.9
aF2.4
aF3.3
aF1.9
aF1.1
aF0.7
aF0.2
aF0.3
aF2.3
aF0.9
aF8.4
aF5.5
aI2
aI0
aI5
aV2209,1610612747
p1804
aa(lp1805
I101144
aVVon Wafer
p1806
aI1610612757
aVPOR
p1807
aF22.0
aI29
aI16
aI13
aF0.552
aF5.3
aF0.6
aF2.1
aF0.279
aF0.1
aF0.9
aF0.154
aF0.3
aF0.4
aF0.667
aF0.0
aF0.6
aF0.7
aF0.2
aF0.4
aF0.1
aF0.1
aF0.1
aF0.2
aF0.3
aF1.6
aF-0.2
aI0
aI0
aI5
aV101144,1610612757
p1808
aa(lp1809
I1887
aVWally Szczerbiak
p1810
aI1610612739
aVCLE
p1811
aF31.0
aI75
aI24
aI51
aF0.32
aF23.1
aF4.1
aF9.6
aF0.431
aF1.2
aF2.9
aF0.413
aF2.0
aF2.3
aF0.851
aF0.5
aF2.4
aF2.9
aF1.4
aF1.0
aF0.3
aF0.2
aF0.4
aF1.4
aF2.1
aF11.5
aF0.0
aI0
aI0
aI5
aV1887,1610612739
p1812
aa(lp1813
I200835
aVWalter Herrmann
p1814
aI1610612765
aVDET
p1815
aF29.0
aI45
aI27
aI18
aF0.6
aF8.3
aF1.2
aF3.2
aF0.389
aF0.4
aF1.4
aF0.313
aF0.5
aF0.6
aF0.84
aF0.5
aF1.1
aF1.6
aF0.4
aF0.3
aF0.2
aF0.0
aF0.2
aF0.5
aF0.6
aF3.4
aF-0.4
aI0
aI0
aI5
aV200835,1610612765
p1816
aa(lp1817
I2584
aVWillie Green
p1818
aI1610612755
aVPHI
p1819
aF26.0
aI74
aI34
aI40
aF0.459
aF26.6
aF5.1
aF11.8
aF0.436
aF0.7
aF2.4
aF0.285
aF1.5
aF2.0
aF0.757
aF0.4
aF2.0
aF2.5
aF2.0
aF1.5
aF0.7
aF0.3
aF0.6
aF1.6
aF1.7
aF12.4
aF0.0
aI0
aI0
aI5
aV2584,1610612755
p1820
aa(lp1821
I201163
aVWilson Chandler
p1822
aI1610612752
aVNYK
p1823
aF21.0
aI35
aI8
aI27
aF0.229
aF19.6
aF3.0
aF6.9
aF0.438
aF0.3
aF0.9
aF0.3
aF1.0
aF1.5
aF0.63
aF1.1
aF2.5
aF3.6
aF0.9
aF0.8
aF0.4
aF0.5
aF0.2
aF2.4
aF1.0
aF7.3
aF-2.7
aI1
aI0
aI5
aV201163,1610612752
p1824
aa(lp1825
I200821
aVYakhouba Diawara
p1826
aI1610612743
aVDEN
p1827
aF25.0
aI54
aI34
aI20
aF0.63
aF10.0
aF1.0
aF2.5
aF0.41
aF0.4
aF1.2
aF0.318
aF0.4
aF0.6
aF0.71
aF0.4
aF0.7
aF1.1
aF0.7
aF0.3
aF0.1
aF0.1
aF0.1
aF1.1
aF0.5
aF2.8
aF0.2
aI0
aI0
aI5
aV200821,1610612743
p1828
aa(lp1829
I2397
aVYao Ming
p1830
aI1610612745
aVHOU
p1831
aF27.0
aI55
aI36
aI19
aF0.655
aF37.2
aF7.9
aF15.5
aF0.507
aF0.0
aF0.0
aF0.0
aF6.3
aF7.4
aF0.85
aF3.1
aF7.7
aF10.8
aF2.3
aF3.3
aF0.5
aF2.0
aF1.1
aF3.1
aF6.1
aF22.0
aF3.5
aI33
aI0
aI5
aV2397,1610612745
p1832
aa(lp1833
I201146
aVYi Jianlian
p1834
aI1610612749
aVMIL
p1835
aF20.0
aI66
aI24
aI42
aF0.364
aF24.9
aF3.3
aF7.9
aF0.421
aF0.1
aF0.3
aF0.286
aF1.8
aF2.2
aF0.841
aF1.6
aF3.6
aF5.2
aF0.8
aF1.4
aF0.5
aF0.8
aF0.8
aF2.3
aF1.8
aF8.6
aF-3.6
aI1
aI0
aI5
aV201146,1610612749
p1836
aa(lp1837
I2216
aVZach Randolph
p1838
aI1610612752
aVNYK
p1839
aF26.0
aI69
aI23
aI46
aF0.333
aF32.5
aF7.0
aF15.3
aF0.459
aF0.3
aF1.2
aF0.275
aF3.2
aF4.2
aF0.772
aF2.7
aF7.6
aF10.3
aF2.0
aF2.7
aF0.9
aF0.2
aF1.1
aF2.8
aF3.8
aF17.6
aF-3.9
aI40
aI0
aI5
aV2216,1610612752
p1840
aa(lp1841
I2585
aVZaza Pachulia
p1842
aI1610612737
aVATL
p1843
aF24.0
aI62
aI28
aI34
aF0.452
aF15.2
aF1.7
aF4.0
aF0.437
aF0.0
aF0.0
aF0.0
aF1.7
aF2.5
aF0.706
aF1.4
aF2.6
aF4.0
aF0.6
aF1.1
aF0.4
aF0.2
aF0.4
aF2.3
aF2.0
aF5.2
aF-0.8
aI2
aI0
aI5
aV2585,1610612737
p1844
aa(lp1845
I980
aVZydrunas Ilgauskas
p1846
aI1610612739
aVCLE
p1847
aF33.0
aI73
aI41
aI32
aF0.562
aF30.4
aF5.7
aF12.0
aF0.474
aF0.0
aF0.0
aF0.0
aF2.7
aF3.3
aF0.802
aF3.6
aF5.7
aF9.3
aF1.4
aF1.8
aF0.5
aF1.6
aF0.6
aF3.4
aF2.2
aF14.1
aF0.8
aI29
aI0
aI5
aV980,1610612739
p1848
aasVname
p1849
VLeagueDashPlayerStats
p1850
sasVparameters
p1851
(dp1852
VConference
p1853
NsVPlusMinus
p1854
VN
p1855
sVGameScope
p1856
NsVTeamID
p1857
I0
sVHeight
p1858
NsVLocation
p1859
NsVStarterBench
p1860
NsVShotClockRange
p1861
NsVSeasonType
p1862
VRegular Season
p1863
sVDivision
p1864
NsVSeason
p1865
V2007-08
p1866
sVPaceAdjust
p1867
VN
p1868
sVDraftYear
p1869
NsVDateFrom
p1870
NsVPlayerPosition
p1871
NsVCountry
p1872
NsVVsConference
p1873
NsVOpponentTeamID
p1874
I0
sVDateTo
p1875
NsVGameSegment
p1876
NsVDraftPick
p1877
NsVLastNGames
p1878
I0
sVPlayerExperience
p1879
NsVVsDivision
p1880
NsVLeagueID
p1881
V00
p1882
sVOutcome
p1883
NsVMeasureType
p1884
VBase
p1885
sVWeight
p1886
NsVPORound
p1887
I0
sVPerMode
p1888
VPerGame
p1889
sVSeasonSegment
p1890
NsVPeriod
p1891
I0
sVRank
p1892
VN
p1893
sVMonth
p1894
I0
sVCollege
p1895
Nss.