(dp0
S'age'
p1
I27
sS'stats'
p2
(lp3
(lp4
V0021200430
p5
aVDEC 28, 2012
p6
aVTOR @ NOH
p7
aVW
p8
aI5
aI0
aI1
aF0.0
aI0
aI0
aF0.0
aI0
aI0
aF0.0
aI1
aI2
aI3
aI0
aI0
aI0
aI0
aI0
aI0
aI5
aa(lp9
V0021200418
p10
aVDEC 26, 2012
p11
aVTOR @ SAS
p12
aVL
p13
aI16
aI1
aI8
aF0.125
aI1
aI3
aF0.333
aI2
aI2
aF1.0
aI0
aI2
aI2
aI0
aI0
aI0
aI1
aI3
aI5
aI-9
aa(lp14
V0021200380
p15
aVDEC 21, 2012
p16
aVTOR vs. ORL
p17
aVW
p18
aI13
aI3
aI9
aF0.333
aI1
aI4
aF0.25
aI2
aI2
aF1.0
aI1
aI2
aI3
aI1
aI0
aI0
aI0
aI4
aI9
aI1
aa(lp19
V0021200366
p20
aVDEC 19, 2012
p21
aVTOR vs. DET
p22
aVW
p23
aI20
aI1
aI6
aF0.167
aI1
aI6
aF0.167
aI2
aI2
aF1.0
aI1
aI0
aI1
aI1
aI0
aI0
aI0
aI4
aI5
aI-1
aa(lp24
V0021200357
p25
aVDEC 18, 2012
p26
aVTOR @ CLE
p27
aVW
p28
aI21
aI2
aI6
aF0.333
aI0
aI3
aF0.0
aI6
aI7
aF0.857
aI0
aI1
aI1
aI0
aI1
aI0
aI1
aI3
aI10
aI5
aa(lp29
V0021200346
p30
aVDEC 16, 2012
p31
aVTOR vs. HOU
p32
aVW
p33
aI19
aI1
aI6
aF0.167
aI0
aI4
aF0.0
aI0
aI0
aF0.0
aI0
aI3
aI3
aI3
aI0
aI0
aI0
aI2
aI2
aI-8
aa(lp34
V0021200325
p35
aVDEC 14, 2012
p36
aVTOR vs. DAL
p37
aVW
p38
aI30
aI7
aI13
aF0.538
aI5
aI11
aF0.455
aI1
aI2
aF0.5
aI0
aI5
aI5
aI0
aI0
aI0
aI0
aI3
aI20
aI22
aa(lp39
V0021200292
p40
aVDEC 09, 2012
p41
aVTOR @ LAC
p42
aVL
p43
aI30
aI5
aI11
aF0.455
aI5
aI6
aF0.833
aI2
aI3
aF0.667
aI0
aI3
aI3
aI2
aI1
aI1
aI1
aI4
aI17
aI-6
aa(lp44
V0021200279
p45
aVDEC 07, 2012
p46
aVTOR @ UTA
p47
aVL
p48
aI6
aI1
aI5
aF0.2
aI1
aI3
aF0.333
aI0
aI0
aF0.0
aI0
aI1
aI1
aI1
aI0
aI0
aI0
aI1
aI3
aI-2
aa(lp49
V0021200222
p50
aVNOV 30, 2012
p51
aVTOR vs. PHX
p52
aVW
p53
aI15
aI2
aI5
aF0.4
aI1
aI2
aF0.5
aI0
aI0
aF0.0
aI0
aI1
aI1
aI1
aI1
aI0
aI3
aI3
aI5
aI-3
aa(lp54
V0021200216
p55
aVNOV 28, 2012
p56
aVTOR @ MEM
p57
aVL
p58
aI25
aI5
aI15
aF0.333
aI0
aI0
aF0.0
aI1
aI1
aF1.0
aI1
aI2
aI3
aI1
aI0
aI0
aI0
aI2
aI11
aI-13
aa(lp59
V0021200206
p60
aVNOV 27, 2012
p61
aVTOR @ HOU
p62
aVL
p63
aI5
aI0
aI1
aF0.0
aI0
aI0
aF0.0
aI0
aI0
aF0.0
aI0
aI0
aI0
aI0
aI0
aI0
aI1
aI2
aI0
aI1
aa(lp64
V0021200175
p65
aVNOV 23, 2012
p66
aVTOR @ DET
p67
aVL
p68
aI24
aI2
aI8
aF0.25
aI0
aI3
aF0.0
aI0
aI0
aF0.0
aI1
aI2
aI3
aI3
aI0
aI1
aI0
aI1
aI4
aI-2
aa(lp69
V0021200157
p70
aVNOV 21, 2012
p71
aVTOR @ CHA
p72
aVL
p73
aI12
aI0
aI3
aF0.0
aI0
aI3
aF0.0
aI0
aI0
aF0.0
aI0
aI1
aI1
aI0
aI0
aI0
aI2
aI0
aI0
aI-7
aa(lp74
V0021200154
p75
aVNOV 20, 2012
p76
aVTOR @ PHI
p77
aVL
p78
aI17
aI1
aI3
aF0.333
aI0
aI2
aF0.0
aI3
aI3
aF1.0
aI1
aI2
aI3
aI0
aI0
aI0
aI0
aI0
aI5
aI-6
aa(lp79
V0021200140
p80
aVNOV 18, 2012
p81
aVTOR vs. ORL
p82
aVW
p83
aI26
aI5
aI9
aF0.556
aI2
aI5
aF0.4
aI0
aI0
aF0.0
aI1
aI4
aI5
aI0
aI0
aI0
aI2
aI3
aI12
aI7
aa(lp84
V0021200131
p85
aVNOV 17, 2012
p86
aVTOR @ BOS
p87
aVL
p88
aI24
aI3
aI9
aF0.333
aI0
aI2
aF0.0
aI4
aI7
aF0.571
aI0
aI1
aI1
aI2
aI0
aI0
aI1
aI2
aI10
aI-9
aa(lp89
V0021200105
p90
aVNOV 13, 2012
p91
aVTOR @ IND
p92
aVW
p93
aI25
aI2
aI9
aF0.222
aI0
aI1
aF0.0
aI6
aI6
aF1.0
aI0
aI4
aI4
aI0
aI0
aI0
aI2
aI2
aI10
aI-2
aa(lp94
V0021200095
p95
aVNOV 12, 2012
p96
aVTOR vs. UTA
p97
aVL
p98
aI30
aI7
aI16
aF0.438
aI3
aI7
aF0.429
aI3
aI3
aF1.0
aI2
aI5
aI7
aI1
aI1
aI0
aI0
aI6
aI20
aI0
aa(lp99
V0021200081
p100
aVNOV 10, 2012
p101
aVTOR vs. PHI
p102
aVL
p103
aI12
aI0
aI1
aF0.0
aI0
aI1
aF0.0
aI0
aI0
aF0.0
aI1
aI1
aI2
aI0
aI0
aI0
aI0
aI0
aI0
aI-20
aasS'name'
p104
VLinas Kleiza
p105
sS'experience'
p106
I7
s.