(dp0
S'stats'
p1
(lp2
(lp3
V0021200010
p4
aVOCT 31, 2012
p5
aVGSW @ PHX
p6
aVW
p7
aI39
aI2
aI16
aF0.125
aI0
aI0
aF0.0
aI2
aI2
aF1.0
aI3
aI6
aI9
aI3
aI0
aI1
aI1
aI4
aI6
aI3
aa(lp8
V0021200026
p9
aVNOV 02, 2012
p10
aVGSW vs. MEM
p11
aVL
p12
aI35
aI8
aI13
aF0.615
aI0
aI0
aF0.0
aI0
aI0
aF0.0
aI0
aI7
aI7
aI0
aI0
aI0
aI4
aI5
aI16
aI-1
aa(lp13
V0021200036
p14
aVNOV 03, 2012
p15
aVGSW @ LAC
p16
aVW
p17
aI29
aI4
aI8
aF0.5
aI0
aI0
aF0.0
aI0
aI0
aF0.0
aI1
aI11
aI12
aI4
aI0
aI0
aI1
aI4
aI8
aI3
aa(lp18
V0021200048
p19
aVNOV 05, 2012
p20
aVGSW @ SAC
p21
aVL
p22
aI41
aI6
aI13
aF0.462
aI0
aI0
aF0.0
aI8
aI8
aF1.0
aI1
aI5
aI6
aI4
aI1
aI0
aI3
aI4
aI20
aI2
aa(lp23
V0021200065
p24
aVNOV 07, 2012
p25
aVGSW vs. CLE
p26
aVW
p27
aI38
aI10
aI16
aF0.625
aI0
aI0
aF0.0
aI2
aI2
aF1.0
aI2
aI12
aI14
aI6
aI3
aI0
aI1
aI4
aI22
aI7
aa(lp28
V0021200080
p29
aVNOV 09, 2012
p30
aVGSW @ LAL
p31
aVL
p32
aI31
aI3
aI10
aF0.3
aI0
aI0
aF0.0
aI4
aI6
aF0.667
aI1
aI11
aI12
aI1
aI0
aI0
aI4
aI2
aI10
aI-20
aa(lp33
V0021200089
p34
aVNOV 10, 2012
p35
aVGSW vs. DEN
p36
aVL
p37
aI48
aI7
aI19
aF0.368
aI0
aI0
aF0.0
aI4
aI6
aF0.667
aI5
aI4
aI9
aI5
aI4
aI1
aI2
aI4
aI18
aI12
aa(lp38
V0021200118
p39
aVNOV 14, 2012
p40
aVGSW vs. ATL
p41
aVW
p42
aI37
aI8
aI17
aF0.471
aI0
aI1
aF0.0
aI2
aI3
aF0.667
aI4
aI6
aI10
aI5
aI0
aI0
aI5
aI3
aI18
aI-1
aa(lp43
V0021200126
p44
aVNOV 16, 2012
p45
aVGSW @ MIN
p46
aVW
p47
aI34
aI8
aI15
aF0.533
aI0
aI0
aF0.0
aI2
aI3
aF0.667
aI6
aI7
aI13
aI3
aI1
aI0
aI1
aI2
aI18
aI18
aa(lp48
V0021200143
p49
aVNOV 18, 2012
p50
aVGSW @ OKC
p51
aVL
p52
aI35
aI8
aI16
aF0.5
aI0
aI0
aF0.0
aI3
aI3
aF1.0
aI2
aI8
aI10
aI5
aI2
aI0
aI2
aI4
aI19
aI-10
aa(lp53
V0021200151
p54
aVNOV 19, 2012
p55
aVGSW @ DAL
p56
aVW
p57
aI43
aI7
aI17
aF0.412
aI0
aI0
aF0.0
aI3
aI6
aF0.5
aI4
aI15
aI19
aI3
aI1
aI0
aI3
aI4
aI17
aI4
aa(lp58
V0021200170
p59
aVNOV 21, 2012
p60
aVGSW vs. BKN
p61
aVW
p62
aI43
aI10
aI15
aF0.667
aI0
aI0
aF0.0
aI0
aI0
aF0.0
aI4
aI9
aI13
aI6
aI0
aI0
aI4
aI1
aI20
aI16
aa(lp63
V0021200179
p64
aVNOV 23, 2012
p65
aVGSW @ DEN
p66
aVL
p67
aI35
aI9
aI19
aF0.474
aI0
aI0
aF0.0
aI3
aI4
aF0.75
aI1
aI9
aI10
aI3
aI3
aI0
aI2
aI5
aI21
aI-17
aa(lp68
V0021200190
p69
aVNOV 24, 2012
p70
aVGSW vs. MIN
p71
aVW
p72
aI36
aI7
aI14
aF0.5
aI0
aI0
aF0.0
aI3
aI4
aF0.75
aI3
aI5
aI8
aI4
aI0
aI0
aI2
aI4
aI17
aI5
aa(lp73
V0021200221
p74
aVNOV 29, 2012
p75
aVGSW vs. DEN
p76
aVW
p77
aI35
aI13
aI15
aF0.867
aI0
aI0
aF0.0
aI5
aI7
aF0.714
aI4
aI5
aI9
aI6
aI1
aI1
aI4
aI3
aI31
aI-6
aa(lp78
V0021200242
p79
aVDEC 01, 2012
p80
aVGSW vs. IND
p81
aVW
p82
aI38
aI4
aI12
aF0.333
aI0
aI0
aF0.0
aI5
aI5
aF1.0
aI4
aI8
aI12
aI4
aI2
aI0
aI2
aI4
aI13
aI13
aa(lp83
V0021200250
p84
aVDEC 03, 2012
p85
aVGSW vs. ORL
p86
aVL
p87
aI39
aI9
aI16
aF0.563
aI0
aI0
aF0.0
aI4
aI6
aF0.667
aI1
aI8
aI9
aI2
aI1
aI2
aI3
aI5
aI22
aI1
aa(lp88
V0021200261
p89
aVDEC 05, 2012
p90
aVGSW @ DET
p91
aVW
p92
aI38
aI7
aI12
aF0.583
aI0
aI0
aF0.0
aI6
aI8
aF0.75
aI2
aI9
aI11
aI4
aI0
aI0
aI4
aI1
aI20
aI12
aa(lp93
V0021200272
p94
aVDEC 07, 2012
p95
aVGSW @ BKN
p96
aVW
p97
aI41
aI14
aI22
aF0.636
aI0
aI0
aF0.0
aI2
aI4
aF0.5
aI7
aI8
aI15
aI2
aI0
aI0
aI2
aI1
aI30
aI16
aa(lp98
V0021200283
p99
aVDEC 08, 2012
p100
aVGSW @ WAS
p101
aVW
p102
aI35
aI8
aI16
aF0.5
aI0
aI0
aF0.0
aI8
aI8
aF1.0
aI3
aI14
aI17
aI0
aI1
aI0
aI4
aI2
aI24
aI-1
aa(lp103
V0021200299
p104
aVDEC 10, 2012
p105
aVGSW @ CHA
p106
aVW
p107
aI35
aI10
aI14
aF0.714
aI0
aI0
aF0.0
aI5
aI5
aF1.0
aI5
aI6
aI11
aI4
aI1
aI0
aI3
aI4
aI25
aI4
aa(lp108
V0021200314
p109
aVDEC 12, 2012
p110
aVGSW @ MIA
p111
aVW
p112
aI38
aI9
aI18
aF0.5
aI0
aI0
aF0.0
aI4
aI4
aF1.0
aI6
aI8
aI14
aI2
aI0
aI0
aI2
aI3
aI22
aI11
aa(lp113
V0021200330
p114
aVDEC 14, 2012
p115
aVGSW @ ORL
p116
aVL
p117
aI41
aI11
aI20
aF0.55
aI0
aI0
aF0.0
aI2
aI2
aF1.0
aI4
aI11
aI15
aI1
aI0
aI0
aI3
aI4
aI24
aI-9
aa(lp118
V0021200337
p119
aVDEC 15, 2012
p120
aVGSW @ ATL
p121
aVW
p122
aI33
aI10
aI14
aF0.714
aI0
aI0
aF0.0
aI0
aI0
aF0.0
aI2
aI9
aI11
aI4
aI3
aI0
aI3
aI3
aI20
aI16
aa(lp123
V0021200365
p124
aVDEC 18, 2012
p125
aVGSW vs. NOH
p126
aVW
p127
aI38
aI10
aI16
aF0.625
aI0
aI0
aF0.0
aI6
aI7
aF0.857
aI3
aI6
aI9
aI4
aI1
aI1
aI2
aI4
aI26
aI2
aa(lp128
V0021200375
p129
aVDEC 19, 2012
p130
aVGSW @ SAC
p131
aVL
p132
aI44
aI12
aI17
aF0.706
aI0
aI0
aF0.0
aI5
aI6
aF0.833
aI4
aI4
aI8
aI5
aI1
aI0
aI2
aI4
aI29
aI0
aa(lp133
V0021200389
p134
aVDEC 21, 2012
p135
aVGSW vs. CHA
p136
aVW
p137
aI34
aI11
aI16
aF0.688
aI0
aI0
aF0.0
aI1
aI1
aF1.0
aI6
aI5
aI11
aI11
aI0
aI0
aI2
aI3
aI23
aI9
aa(lp138
V0021200398
p139
aVDEC 22, 2012
p140
aVGSW vs. LAL
p141
aVL
p142
aI45
aI9
aI18
aF0.5
aI0
aI0
aF0.0
aI2
aI2
aF1.0
aI2
aI9
aI11
aI4
aI0
aI0
aI2
aI3
aI20
aI-1
aa(lp143
V0021200420
p144
aVDEC 26, 2012
p145
aVGSW @ UTA
p146
aVW
p147
aI35
aI7
aI16
aF0.438
aI0
aI1
aF0.0
aI4
aI4
aF1.0
aI3
aI6
aI9
aI2
aI1
aI1
aI0
aI4
aI18
aI12
aa(lp148
V0021200436
p149
aVDEC 28, 2012
p150
aVGSW vs. PHI
p151
aVW
p152
aI38
aI9
aI19
aF0.474
aI0
aI0
aF0.0
aI7
aI9
aF0.778
aI1
aI11
aI12
aI1
aI0
aI0
aI4
aI1
aI25
aI8
aa(lp153
V0021200447
p154
aVDEC 29, 2012
p155
aVGSW vs. BOS
p156
aVW
p157
aI32
aI10
aI15
aF0.667
aI0
aI0
aF0.0
aI0
aI0
aF0.0
aI0
aI5
aI5
aI4
aI1
aI0
aI3
aI2
aI20
aI18
aa(lp158
V0021200475
p159
aVJAN 02, 2013
p160
aVGSW vs. LAC
p161
aVW
p162
aI40
aI9
aI16
aF0.563
aI0
aI0
aF0.0
aI6
aI6
aF1.0
aI3
aI10
aI13
aI7
aI2
aI0
aI2
aI5
aI24
aI24
aa(lp163
V0021200498
p164
aVJAN 05, 2013
p165
aVGSW @ LAC
p166
aVL
p167
aI29
aI3
aI10
aF0.3
aI0
aI0
aF0.0
aI4
aI4
aF1.0
aI2
aI3
aI5
aI2
aI0
aI0
aI4
aI1
aI10
aI-23
aa(lp168
V0021200526
p169
aVJAN 09, 2013
p170
aVGSW vs. MEM
p171
aVL
p172
aI41
aI6
aI14
aF0.429
aI0
aI0
aF0.0
aI2
aI6
aF0.333
aI1
aI9
aI10
aI4
aI1
aI0
aI4
aI4
aI14
aI-10
aa(lp173
V0021200540
p174
aVJAN 11, 2013
p175
aVGSW vs. POR
p176
aVW
p177
aI36
aI11
aI20
aF0.55
aI0
aI0
aF0.0
aI2
aI4
aF0.5
aI1
aI9
aI10
aI1
aI2
aI0
aI1
aI2
aI24
aI4
aa(lp178
V0021200553
p179
aVJAN 13, 2013
p180
aVGSW @ DEN
p181
aVL
p182
aI42
aI11
aI18
aF0.611
aI0
aI0
aF0.0
aI1
aI2
aF0.5
aI3
aI10
aI13
aI6
aI1
aI1
aI4
aI5
aI23
aI-9
aa(lp183
V0021200579
p184
aVJAN 16, 2013
p185
aVGSW vs. MIA
p186
aVL
p187
aI32
aI4
aI13
aF0.308
aI0
aI1
aF0.0
aI4
aI4
aF1.0
aI1
aI10
aI11
aI1
aI0
aI0
aI3
aI1
aI12
aI-25
aa(lp188
V0021200590
p189
aVJAN 18, 2013
p190
aVGSW @ SAS
p191
aVL
p192
aI38
aI9
aI18
aF0.5
aI0
aI0
aF0.0
aI4
aI6
aF0.667
aI2
aI4
aI6
aI7
aI0
aI0
aI2
aI4
aI22
aI-10
aa(lp193
V0021200610
p194
aVJAN 21, 2013
p195
aVGSW vs. LAC
p196
aVW
p197
aI39
aI5
aI16
aF0.313
aI0
aI0
aF0.0
aI2
aI2
aF1.0
aI2
aI9
aI11
aI6
aI0
aI0
aI5
aI5
aI12
aI14
aa(lp198
V0021200628
p199
aVJAN 23, 2013
p200
aVGSW vs. OKC
p201
aVW
p202
aI42
aI9
aI18
aF0.5
aI0
aI0
aF0.0
aI4
aI5
aF0.8
aI4
aI8
aI12
aI1
aI0
aI0
aI3
aI3
aI22
aI6
aa(lp203
V0021200636
p204
aVJAN 25, 2013
p205
aVGSW @ CHI
p206
aVL
p207
aI36
aI6
aI15
aF0.4
aI0
aI0
aF0.0
aI11
aI12
aF0.917
aI2
aI4
aI6
aI1
aI1
aI0
aI2
aI2
aI23
aI-13
aa(lp208
V0021200647
p209
aVJAN 26, 2013
p210
aVGSW @ MIL
p211
aVL
p212
aI38
aI6
aI18
aF0.333
aI0
aI0
aF0.0
aI0
aI0
aF0.0
aI2
aI13
aI15
aI5
aI1
aI0
aI2
aI3
aI12
aI-2
aa(lp213
V0021200659
p214
aVJAN 28, 2013
p215
aVGSW @ TOR
p216
aVW
p217
aI44
aI10
aI17
aF0.588
aI0
aI0
aF0.0
aI1
aI2
aF0.5
aI2
aI10
aI12
aI7
aI0
aI0
aI3
aI2
aI21
aI15
aa(lp218
V0021200666
p219
aVJAN 29, 2013
p220
aVGSW @ CLE
p221
aVW
p222
aI39
aI8
aI12
aF0.667
aI0
aI0
aF0.0
aI4
aI4
aF1.0
aI2
aI11
aI13
aI8
aI2
aI0
aI1
aI3
aI20
aI20
aa(lp223
V0021200683
p224
aVJAN 31, 2013
p225
aVGSW vs. DAL
p226
aVW
p227
aI42
aI6
aI13
aF0.462
aI0
aI0
aF0.0
aI3
aI5
aF0.6
aI7
aI13
aI20
aI9
aI1
aI0
aI2
aI2
aI15
aI0
aa(lp228
V0021200704
p229
aVFEB 02, 2013
p230
aVGSW vs. PHX
p231
aVW
p232
aI37
aI6
aI16
aF0.375
aI0
aI0
aF0.0
aI4
aI5
aF0.8
aI4
aI8
aI12
aI7
aI1
aI0
aI5
aI2
aI16
aI16
aa(lp233
V0021200718
p234
aVFEB 05, 2013
p235
aVGSW @ HOU
p236
aVL
p237
aI26
aI8
aI10
aF0.8
aI0
aI0
aF0.0
aI2
aI2
aF1.0
aI4
aI3
aI7
aI2
aI0
aI0
aI2
aI3
aI18
aI-30
aa(lp238
V0021200729
p239
aVFEB 06, 2013
p240
aVGSW @ OKC
p241
aVL
p242
aI33
aI5
aI13
aF0.385
aI0
aI0
aF0.0
aI2
aI4
aF0.5
aI5
aI6
aI11
aI6
aI2
aI1
aI4
aI1
aI12
aI-14
aa(lp243
V0021200742
p244
aVFEB 08, 2013
p245
aVGSW @ MEM
p246
aVL
p247
aI41
aI10
aI16
aF0.625
aI0
aI0
aF0.0
aI6
aI6
aF1.0
aI2
aI4
aI6
aI0
aI1
aI0
aI2
aI4
aI26
aI-6
aa(lp248
V0021200750
p249
aVFEB 09, 2013
p250
aVGSW @ DAL
p251
aVL
p252
aI21
aI4
aI9
aF0.444
aI0
aI0
aF0.0
aI2
aI2
aF1.0
aI0
aI6
aI6
aI0
aI0
aI0
aI3
aI4
aI10
aI-13
aa(lp253
V0021200774
p254
aVFEB 12, 2013
p255
aVGSW vs. HOU
p256
aVL
p257
aI35
aI3
aI10
aF0.3
aI0
aI0
aF0.0
aI6
aI8
aF0.75
aI2
aI10
aI12
aI4
aI0
aI1
aI2
aI6
aI12
aI-16
aa(lp258
V0021200795
p259
aVFEB 19, 2013
p260
aVGSW @ UTA
p261
aVL
p262
aI31
aI9
aI13
aF0.692
aI0
aI0
aF0.0
aI0
aI0
aF0.0
aI2
aI7
aI9
aI1
aI1
aI1
aI0
aI5
aI18
aI-12
aa(lp263
V0021200808
p264
aVFEB 20, 2013
p265
aVGSW vs. PHX
p266
aVW
p267
aI36
aI7
aI13
aF0.538
aI0
aI0
aF0.0
aI5
aI6
aF0.833
aI2
aI9
aI11
aI5
aI0
aI0
aI4
aI4
aI19
aI11
aa(lp268
V0021200822
p269
aVFEB 22, 2013
p270
aVGSW vs. SAS
p271
aVW
p272
aI42
aI10
aI20
aF0.5
aI0
aI0
aF0.0
aI5
aI6
aF0.833
aI5
aI17
aI22
aI1
aI1
aI0
aI3
aI4
aI25
aI-2
aa(lp273
V0021200832
p274
aVFEB 24, 2013
p275
aVGSW @ MIN
p276
aVW
p277
aI41
aI8
aI15
aF0.533
aI0
aI0
aF0.0
aI6
aI6
aF1.0
aI5
aI8
aI13
aI3
aI1
aI1
aI5
aI3
aI22
aI9
aa(lp278
V0021200844
p279
aVFEB 26, 2013
p280
aVGSW @ IND
p281
aVL
p282
aI36
aI5
aI12
aF0.417
aI0
aI0
aF0.0
aI2
aI4
aF0.5
aI2
aI10
aI12
aI1
aI4
aI2
aI5
aI3
aI12
aI-14
aa(lp283
V0021200867
p284
aVMAR 01, 2013
p285
aVGSW @ BOS
p286
aVL
p287
aI39
aI4
aI13
aF0.308
aI0
aI0
aF0.0
aI2
aI4
aF0.5
aI5
aI14
aI19
aI4
aI1
aI0
aI0
aI3
aI10
aI-2
aa(lp288
V0021200876
p289
aVMAR 02, 2013
p290
aVGSW @ PHI
p291
aVL
p292
aI40
aI6
aI14
aF0.429
aI0
aI0
aF0.0
aI1
aI2
aF0.5
aI5
aI11
aI16
aI7
aI0
aI1
aI3
aI1
aI13
aI0
aa(lp293
V0021200895
p294
aVMAR 04, 2013
p295
aVGSW vs. TOR
p296
aVW
p297
aI36
aI12
aI21
aF0.571
aI0
aI0
aF0.0
aI5
aI5
aF1.0
aI2
aI9
aI11
aI5
aI0
aI0
aI2
aI4
aI29
aI7
aa(lp298
V0021200912
p299
aVMAR 06, 2013
p300
aVGSW vs. SAC
p301
aVW
p302
aI40
aI8
aI14
aF0.571
aI0
aI0
aF0.0
aI1
aI1
aF1.0
aI0
aI10
aI10
aI3
aI1
aI0
aI2
aI0
aI17
aI10
aa(lp303
V0021200926
p304
aVMAR 08, 2013
p305
aVGSW vs. HOU
p306
aVL
p307
aI25
aI7
aI12
aF0.583
aI0
aI0
aF0.0
aI2
aI2
aF1.0
aI2
aI3
aI5
aI0
aI0
aI0
aI3
aI5
aI16
aI-2
aa(lp308
V0021200947
p309
aVMAR 11, 2013
p310
aVGSW vs. NYK
p311
aVW
p312
aI38
aI7
aI15
aF0.467
aI0
aI0
aF0.0
aI7
aI8
aF0.875
aI3
aI7
aI10
aI8
aI0
aI0
aI4
aI5
aI21
aI31
aa(lp313
V0021200966
p314
aVMAR 13, 2013
p315
aVGSW vs. DET
p316
aVW
p317
aI37
aI9
aI13
aF0.692
aI0
aI0
aF0.0
aI2
aI5
aF0.4
aI4
aI11
aI15
aI5
aI0
aI0
aI1
aI1
aI20
aI23
aa(lp318
V0021200978
p319
aVMAR 15, 2013
p320
aVGSW vs. CHI
p321
aVL
p322
aI24
aI7
aI12
aF0.583
aI0
aI0
aF0.0
aI1
aI2
aF0.5
aI2
aI6
aI8
aI1
aI2
aI1
aI2
aI2
aI15
aI-30
aa(lp323
V0021200988
p324
aVMAR 17, 2013
p325
aVGSW @ HOU
p326
aVW
p327
aI35
aI4
aI13
aF0.308
aI0
aI0
aF0.0
aI2
aI3
aF0.667
aI1
aI9
aI10
aI4
aI1
aI0
aI2
aI2
aI10
aI23
aa(lp328
V0021201001
p329
aVMAR 18, 2013
p330
aVGSW @ NOH
p331
aVW
p332
aI30
aI7
aI9
aF0.778
aI0
aI0
aF0.0
aI6
aI6
aF1.0
aI4
aI7
aI11
aI4
aI0
aI1
aI3
aI3
aI20
aI25
aa(lp333
V0021201016
p334
aVMAR 20, 2013
p335
aVGSW @ SAS
p336
aVL
p337
aI38
aI4
aI17
aF0.235
aI0
aI0
aF0.0
aI2
aI2
aF1.0
aI4
aI8
aI12
aI1
aI2
aI1
aI2
aI3
aI10
aI-12
aa(lp338
V0021201039
p339
aVMAR 23, 2013
p340
aVGSW vs. WAS
p341
aVW
p342
aI35
aI4
aI9
aF0.444
aI0
aI0
aF0.0
aI3
aI4
aF0.75
aI2
aI13
aI15
aI4
aI1
aI0
aI3
aI4
aI11
aI19
aa(lp343
V0021201053
p344
aVMAR 25, 2013
p345
aVGSW vs. LAL
p346
aVW
p347
aI38
aI9
aI15
aF0.6
aI0
aI0
aF0.0
aI5
aI5
aF1.0
aI3
aI9
aI12
aI2
aI0
aI0
aI4
aI3
aI23
aI-4
aa(lp348
V0021201069
p349
aVMAR 27, 2013
p350
aVGSW vs. SAC
p351
aVL
p352
aI43
aI10
aI13
aF0.769
aI0
aI0
aF0.0
aI0
aI0
aF0.0
aI0
aI10
aI10
aI4
aI1
aI0
aI6
aI4
aI20
aI-9
aa(lp353
V0021201094
p354
aVMAR 30, 2013
p355
aVGSW vs. POR
p356
aVW
p357
aI25
aI5
aI12
aF0.417
aI0
aI0
aF0.0
aI3
aI4
aF0.75
aI2
aI6
aI8
aI3
aI0
aI0
aI1
aI4
aI13
aI8
aa(lp358
V0021201122
p359
aVAPR 03, 2013
p360
aVGSW vs. NOH
p361
aVW
p362
aI38
aI9
aI15
aF0.6
aI0
aI0
aF0.0
aI5
aI6
aF0.833
aI3
aI13
aI16
aI4
aI1
aI1
aI3
aI3
aI23
aI18
aa(lp363
V0021201134
p364
aVAPR 05, 2013
p365
aVGSW @ PHX
p366
aVW
p367
aI44
aI10
aI18
aF0.556
aI0
aI0
aF0.0
aI2
aI2
aF1.0
aI4
aI10
aI14
aI2
aI0
aI0
aI1
aI3
aI22
aI11
aa(lp368
V0021201151
p369
aVAPR 07, 2013
p370
aVGSW vs. UTA
p371
aVL
p372
aI45
aI8
aI17
aF0.471
aI0
aI0
aF0.0
aI5
aI7
aF0.714
aI2
aI11
aI13
aI1
aI1
aI0
aI2
aI1
aI21
aI-9
aa(lp373
V0021201163
p374
aVAPR 09, 2013
p375
aVGSW vs. MIN
p376
aVW
p377
aI33
aI6
aI12
aF0.5
aI0
aI1
aF0.0
aI3
aI4
aF0.75
aI3
aI9
aI12
aI5
aI1
aI1
aI4
aI0
aI15
aI16
aa(lp378
V0021201175
p379
aVAPR 11, 2013
p380
aVGSW vs. OKC
p381
aVL
p382
aI32
aI6
aI13
aF0.462
aI0
aI0
aF0.0
aI1
aI1
aF1.0
aI2
aI9
aI11
aI0
aI1
aI1
aI3
aI3
aI13
aI-18
aa(lp383
V0021201189
p384
aVAPR 12, 2013
p385
aVGSW @ LAL
p386
aVL
p387
aI43
aI8
aI12
aF0.667
aI0
aI0
aF0.0
aI3
aI4
aF0.75
aI2
aI6
aI8
aI2
aI1
aI1
aI0
aI4
aI19
aI-6
aa(lp388
V0021201212
p389
aVAPR 15, 2013
p390
aVGSW vs. SAS
p391
aVW
p392
aI36
aI5
aI10
aF0.5
aI0
aI0
aF0.0
aI2
aI4
aF0.5
aI2
aI9
aI11
aI2
aI0
aI0
aI2
aI4
aI12
aI18
aa(lp393
V0021201230
p394
aVAPR 17, 2013
p395
aVGSW @ POR
p396
aVW
p397
aI32
aI9
aI12
aF0.75
aI0
aI0
aF0.0
aI2
aI3
aF0.667
aI0
aI10
aI10
aI1
aI3
aI0
aI1
aI2
aI20
aI15
aasS'name'
p398
VDavid Lee
p399
sS'weight'
p400
V245
p401
sS'age'
p402
I29
sS'experience'
p403
I7
sS'height'
p404
V6-9
p405
sS'position'
p406
VForward-Center
p407
s.