(dp0
S'stats'
p1
(lp2
(lp3
V0021201141
p4
aVAPR 06, 2013
p5
aVDET @ MIN
p6
aVL
p7
aI27
aI3
aI5
aF0.6
aI0
aI0
aF0.0
aI0
aI0
aF0.0
aI1
aI1
aI2
aI4
aI3
aI0
aI3
aI1
aI6
aI-16
aI1
aa(lp8
V0021201100
p9
aVAPR 01, 2013
p10
aVDET @ TOR
p11
aVW
p12
aI43
aI8
aI12
aF0.667
aI1
aI2
aF0.5
aI2
aI3
aF0.667
aI0
aI1
aI1
aI9
aI1
aI0
aI1
aI2
aI19
aI11
aI1
aa(lp13
V0021201097
p14
aVMAR 31, 2013
p15
aVDET @ CHI
p16
aVL
p17
aI34
aI4
aI8
aF0.5
aI1
aI2
aF0.5
aI2
aI2
aF1.0
aI0
aI0
aI0
aI5
aI0
aI0
aI1
aI0
aI11
aI0
aI1
aa(lp18
V0021201077
p19
aVMAR 29, 2013
p20
aVDET vs. TOR
p21
aVL
p22
aI31
aI3
aI7
aF0.429
aI2
aI4
aF0.5
aI0
aI0
aF0.0
aI0
aI1
aI1
aI7
aI0
aI0
aI3
aI2
aI8
aI-16
aI1
aa(lp23
V0021201055
p24
aVMAR 26, 2013
p25
aVDET vs. MIN
p26
aVL
p27
aI32
aI5
aI9
aF0.556
aI2
aI2
aF1.0
aI2
aI2
aF1.0
aI0
aI1
aI1
aI1
aI0
aI0
aI1
aI1
aI14
aI-26
aI1
aa(lp28
V0021201033
p29
aVMAR 23, 2013
p30
aVDET @ CHA
p31
aVW
p32
aI30
aI4
aI8
aF0.5
aI3
aI5
aF0.6
aI0
aI0
aF0.0
aI0
aI1
aI1
aI6
aI0
aI0
aI1
aI0
aI11
aI-8
aI1
aa(lp33
V0021201026
p34
aVMAR 22, 2013
p35
aVDET @ MIA
p36
aVL
p37
aI43
aI7
aI11
aF0.636
aI3
aI6
aF0.5
aI1
aI1
aF1.0
aI1
aI2
aI3
aI7
aI2
aI0
aI7
aI3
aI18
aI-12
aI1
aa(lp38
V0021200997
p39
aVMAR 18, 2013
p40
aVDET vs. BKN
p41
aVL
p42
aI8
aI1
aI3
aF0.333
aI0
aI1
aF0.0
aI0
aI0
aF0.0
aI0
aI0
aI0
aI2
aI0
aI0
aI0
aI2
aI2
aI-11
aI1
aa(lp43
V0021200984
p44
aVMAR 16, 2013
p45
aVDET @ POR
p46
aVL
p47
aI24
aI5
aI8
aF0.625
aI3
aI5
aF0.6
aI0
aI0
aF0.0
aI0
aI4
aI4
aI5
aI2
aI0
aI1
aI3
aI13
aI-1
aI1
aa(lp48
V0021200966
p49
aVMAR 13, 2013
p50
aVDET @ GSW
p51
aVL
p52
aI30
aI2
aI5
aF0.4
aI2
aI4
aF0.5
aI0
aI0
aF0.0
aI0
aI1
aI1
aI6
aI1
aI0
aI1
aI1
aI6
aI-8
aI0
aa(lp53
V0021200945
p54
aVMAR 11, 2013
p55
aVDET @ UTA
p56
aVL
p57
aI37
aI6
aI8
aF0.75
aI1
aI2
aF0.5
aI1
aI1
aF1.0
aI0
aI2
aI2
aI7
aI2
aI1
aI2
aI0
aI14
aI-2
aI1
aa(lp58
V0021200942
p59
aVMAR 10, 2013
p60
aVDET @ LAC
p61
aVL
p62
aI29
aI6
aI8
aF0.75
aI4
aI5
aF0.8
aI2
aI3
aF0.667
aI0
aI2
aI2
aI4
aI1
aI0
aI3
aI1
aI18
aI-18
aI1
aa(lp63
V0021200919
p64
aVMAR 08, 2013
p65
aVDET vs. DAL
p66
aVL
p67
aI35
aI3
aI8
aF0.375
aI1
aI5
aF0.2
aI0
aI0
aF0.0
aI1
aI5
aI6
aI7
aI0
aI0
aI0
aI2
aI7
aI5
aI1
aa(lp68
V0021200904
p69
aVMAR 06, 2013
p70
aVDET vs. NYK
p71
aVL
p72
aI40
aI4
aI10
aF0.4
aI1
aI4
aF0.25
aI1
aI1
aF1.0
aI0
aI3
aI3
aI16
aI2
aI0
aI3
aI0
aI10
aI-3
aI1
aa(lp73
V0021200886
p74
aVMAR 03, 2013
p75
aVDET @ SAS
p76
aVL
p77
aI28
aI6
aI10
aF0.6
aI2
aI3
aF0.667
aI0
aI0
aF0.0
aI0
aI3
aI3
aI2
aI0
aI0
aI0
aI2
aI14
aI-30
aI1
aa(lp78
V0021200871
p79
aVMAR 01, 2013
p80
aVDET @ NOH
p81
aVL
p82
aI34
aI2
aI5
aF0.4
aI2
aI3
aF0.667
aI1
aI1
aF1.0
aI0
aI4
aI4
aI11
aI0
aI0
aI2
aI2
aI7
aI4
aI1
aa(lp83
V0021200854
p84
aVFEB 27, 2013
p85
aVDET @ WAS
p86
aVW
p87
aI36
aI2
aI6
aF0.333
aI0
aI1
aF0.0
aI2
aI2
aF1.0
aI0
aI4
aI4
aI18
aI1
aI0
aI2
aI1
aI6
aI8
aI1
aa(lp88
V0021200840
p89
aVFEB 25, 2013
p90
aVDET vs. ATL
p91
aVL
p92
aI33
aI3
aI11
aF0.273
aI1
aI5
aF0.2
aI0
aI0
aF0.0
aI0
aI5
aI5
aI9
aI0
aI0
aI4
aI2
aI7
aI-10
aI1
aa(lp93
V0021200827
p94
aVFEB 23, 2013
p95
aVDET vs. IND
p96
aVL
p97
aI33
aI5
aI7
aF0.714
aI0
aI0
aF0.0
aI3
aI3
aF1.0
aI0
aI5
aI5
aI5
aI1
aI0
aI2
aI0
aI13
aI-8
aI1
aa(lp98
V0021200814
p99
aVFEB 22, 2013
p100
aVDET @ IND
p101
aVL
p102
aI26
aI1
aI6
aF0.167
aI0
aI3
aF0.0
aI3
aI3
aF1.0
aI0
aI1
aI1
aI3
aI3
aI0
aI0
aI2
aI5
aI-35
aI1
aa(lp103
V0021200799
p104
aVFEB 20, 2013
p105
aVDET @ CHA
p106
aVW
p107
aI29
aI4
aI8
aF0.5
aI4
aI4
aF1.0
aI5
aI6
aF0.833
aI1
aI1
aI2
aI2
aI0
aI0
aI0
aI1
aI17
aI13
aI1
aa(lp108
V0021200792
p109
aVFEB 19, 2013
p110
aVDET vs. MEM
p111
aVL
p112
aI30
aI4
aI9
aF0.444
aI2
aI3
aF0.667
aI0
aI0
aF0.0
aI0
aI1
aI1
aI7
aI1
aI0
aI3
aI1
aI10
aI-10
aI1
aa(lp113
V0021200781
p114
aVFEB 13, 2013
p115
aVDET vs. WAS
p116
aVW
p117
aI37
aI9
aI17
aF0.529
aI6
aI9
aF0.667
aI0
aI0
aF0.0
aI0
aI5
aI5
aI3
aI1
aI1
aI4
aI3
aI24
aI8
aI1
aa(lp118
V0021200765
p119
aVFEB 11, 2013
p120
aVDET vs. NOH
p121
aVL
p122
aI34
aI5
aI10
aF0.5
aI3
aI6
aF0.5
aI0
aI0
aF0.0
aI1
aI3
aI4
aI9
aI4
aI0
aI1
aI3
aI13
aI-17
aI1
aa(lp123
V0021200749
p124
aVFEB 09, 2013
p125
aVDET @ MIL
p126
aVW
p127
aI35
aI10
aI13
aF0.769
aI3
aI4
aF0.75
aI0
aI0
aF0.0
aI1
aI4
aI5
aI10
aI3
aI0
aI3
aI4
aI23
aI15
aI1
aa(lp128
V0021200739
p129
aVFEB 08, 2013
p130
aVDET vs. SAS
p131
aVW
p132
aI31
aI3
aI6
aF0.5
aI1
aI3
aF0.333
aI0
aI0
aF0.0
aI0
aI2
aI2
aI8
aI1
aI0
aI0
aI2
aI7
aI13
aI1
aa(lp133
V0021200727
p134
aVFEB 06, 2013
p135
aVDET vs. BKN
p136
aVL
p137
aI31
aI3
aI7
aF0.429
aI2
aI3
aF0.667
aI0
aI0
aF0.0
aI0
aI1
aI1
aI9
aI1
aI0
aI3
aI0
aI8
aI-7
aI1
aa(lp138
V0021200710
p139
aVFEB 04, 2013
p140
aVDET @ NYK
p141
aVL
p142
aI27
aI7
aI12
aF0.583
aI1
aI4
aF0.25
aI0
aI0
aF0.0
aI0
aI1
aI1
aI3
aI0
aI0
aI0
aI0
aI15
aI-9
aI1
aa(lp143
V0021200659
p144
aVJAN 28, 2013
p145
aVTOR vs. GSW
p146
aVL
p147
aI35
aI4
aI13
aF0.308
aI3
aI9
aF0.333
aI0
aI0
aF0.0
aI0
aI4
aI4
aI7
aI0
aI0
aI3
aI2
aI11
aI-4
aI1
aa(lp148
V0021200642
p149
aVJAN 26, 2013
p150
aVTOR vs. CLE
p151
aVL
p152
aI26
aI4
aI9
aF0.444
aI2
aI6
aF0.333
aI0
aI0
aF0.0
aI0
aI1
aI1
aI5
aI1
aI0
aI3
aI2
aI10
aI7
aI1
aa(lp153
V0021200629
p154
aVJAN 24, 2013
p155
aVTOR @ ORL
p156
aVW
p157
aI27
aI4
aI7
aF0.571
aI1
aI4
aF0.25
aI1
aI1
aF1.0
aI0
aI1
aI1
aI6
aI0
aI0
aI1
aI2
aI10
aI2
aI1
aa(lp158
V0021200619
p159
aVJAN 23, 2013
p160
aVTOR @ MIA
p161
aVL
p162
aI31
aI6
aI9
aF0.667
aI5
aI6
aF0.833
aI0
aI0
aF0.0
aI0
aI0
aI0
aI3
aI1
aI0
aI0
aI0
aI17
aI-15
aI1
aa(lp163
V0021200601
p164
aVJAN 20, 2013
p165
aVTOR vs. LAL
p166
aVW
p167
aI30
aI9
aI15
aF0.6
aI1
aI4
aF0.25
aI3
aI3
aF1.0
aI0
aI2
aI2
aI9
aI0
aI0
aI3
aI4
aI22
aI7
aI1
aa(lp168
V0021200585
p169
aVJAN 18, 2013
p170
aVTOR @ PHI
p171
aVL
p172
aI20
aI5
aI7
aF0.714
aI3
aI5
aF0.6
aI0
aI0
aF0.0
aI0
aI1
aI1
aI4
aI0
aI0
aI2
aI2
aI13
aI-4
aI1
aa(lp173
V0021200570
p174
aVJAN 16, 2013
p175
aVTOR vs. CHI
p176
aVL
p177
aI21
aI3
aI10
aF0.3
aI0
aI3
aF0.0
aI3
aI3
aF1.0
aI0
aI2
aI2
aI6
aI0
aI0
aI1
aI0
aI9
aI-13
aI1
aa(lp178
V0021200566
p179
aVJAN 15, 2013
p180
aVTOR @ BKN
p181
aVL
p182
aI29
aI6
aI11
aF0.545
aI3
aI4
aF0.75
aI0
aI0
aF0.0
aI0
aI3
aI3
aI5
aI0
aI0
aI0
aI1
aI15
aI-15
aI1
aa(lp183
V0021200550
p184
aVJAN 13, 2013
p185
aVTOR vs. MIL
p186
aVL
p187
aI31
aI9
aI15
aF0.6
aI3
aI4
aF0.75
aI0
aI0
aF0.0
aI0
aI2
aI2
aI8
aI1
aI0
aI0
aI1
aI21
aI2
aI1
aa(lp188
V0021200530
p189
aVJAN 11, 2013
p190
aVTOR vs. CHA
p191
aVW
p192
aI23
aI6
aI9
aF0.667
aI3
aI5
aF0.6
aI0
aI0
aF0.0
aI0
aI0
aI0
aI6
aI1
aI0
aI0
aI2
aI15
aI16
aI1
aa(lp193
V0021200516
p194
aVJAN 09, 2013
p195
aVTOR vs. PHI
p196
aVW
p197
aI31
aI7
aI12
aF0.583
aI0
aI3
aF0.0
aI0
aI0
aF0.0
aI1
aI1
aI2
aI11
aI1
aI0
aI0
aI1
aI14
aI20
aI1
aa(lp198
V0021200499
p199
aVJAN 06, 2013
p200
aVTOR vs. OKC
p201
aVL
p202
aI31
aI4
aI8
aF0.5
aI1
aI4
aF0.25
aI1
aI1
aF1.0
aI0
aI2
aI2
aI11
aI2
aI0
aI1
aI2
aI10
aI-12
aI1
aa(lp203
V0021200478
p204
aVJAN 04, 2013
p205
aVTOR vs. SAC
p206
aVL
p207
aI27
aI5
aI11
aF0.455
aI3
aI7
aF0.429
aI0
aI0
aF0.0
aI1
aI0
aI1
aI3
aI0
aI0
aI2
aI2
aI13
aI-21
aI1
aa(lp208
V0021200464
p209
aVJAN 02, 2013
p210
aVTOR vs. POR
p211
aVW
p212
aI23
aI0
aI1
aF0.0
aI0
aI1
aF0.0
aI0
aI0
aF0.0
aI0
aI1
aI1
aI13
aI0
aI0
aI0
aI0
aI0
aI15
aI1
aa(lp213
V0021200439
p214
aVDEC 29, 2012
p215
aVTOR @ ORL
p216
aVW
p217
aI24
aI6
aI10
aF0.6
aI2
aI5
aF0.4
aI1
aI1
aF1.0
aI0
aI3
aI3
aI10
aI0
aI0
aI1
aI0
aI15
aI9
aI1
aa(lp218
V0021200430
p219
aVDEC 28, 2012
p220
aVTOR @ NOH
p221
aVW
p222
aI30
aI1
aI6
aF0.167
aI0
aI3
aF0.0
aI0
aI0
aF0.0
aI0
aI5
aI5
aI6
aI0
aI0
aI1
aI0
aI2
aI-8
aI1
aa(lp223
V0021200418
p224
aVDEC 26, 2012
p225
aVTOR @ SAS
p226
aVL
p227
aI27
aI3
aI9
aF0.333
aI1
aI3
aF0.333
aI0
aI0
aF0.0
aI1
aI3
aI4
aI10
aI1
aI0
aI3
aI0
aI7
aI-7
aI1
aa(lp228
V0021200380
p229
aVDEC 21, 2012
p230
aVTOR vs. ORL
p231
aVW
p232
aI34
aI6
aI9
aF0.667
aI1
aI2
aF0.5
aI0
aI1
aF0.0
aI1
aI3
aI4
aI9
aI2
aI0
aI2
aI2
aI13
aI1
aI1
aa(lp233
V0021200366
p234
aVDEC 19, 2012
p235
aVTOR vs. DET
p236
aVW
p237
aI36
aI2
aI8
aF0.25
aI2
aI5
aF0.4
aI1
aI1
aF1.0
aI0
aI2
aI2
aI17
aI0
aI0
aI2
aI1
aI7
aI7
aI1
aa(lp238
V0021200357
p239
aVDEC 18, 2012
p240
aVTOR @ CLE
p241
aVW
p242
aI33
aI10
aI15
aF0.667
aI3
aI6
aF0.5
aI0
aI0
aF0.0
aI2
aI3
aI5
aI6
aI2
aI0
aI4
aI2
aI23
aI9
aI1
aa(lp243
V0021200346
p244
aVDEC 16, 2012
p245
aVTOR vs. HOU
p246
aVW
p247
aI37
aI6
aI12
aF0.5
aI1
aI5
aF0.2
aI5
aI6
aF0.833
aI0
aI10
aI10
aI14
aI1
aI1
aI0
aI1
aI18
aI0
aI1
aa(lp248
V0021200325
p249
aVDEC 14, 2012
p250
aVTOR vs. DAL
p251
aVW
p252
aI28
aI5
aI9
aF0.556
aI2
aI4
aF0.5
aI2
aI3
aF0.667
aI1
aI3
aI4
aI3
aI1
aI2
aI1
aI1
aI14
aI5
aI1
aa(lp253
V0021200309
p254
aVDEC 12, 2012
p255
aVTOR vs. BKN
p256
aVL
p257
aI40
aI4
aI13
aF0.308
aI2
aI5
aF0.4
aI0
aI0
aF0.0
aI0
aI3
aI3
aI15
aI1
aI0
aI3
aI3
aI10
aI6
aI1
aa(lp258
V0021200303
p259
aVDEC 10, 2012
p260
aVTOR @ POR
p261
aVL
p262
aI32
aI4
aI7
aF0.571
aI2
aI4
aF0.5
aI2
aI2
aF1.0
aI0
aI2
aI2
aI6
aI0
aI0
aI1
aI2
aI12
aI-20
aI1
aa(lp263
V0021200292
p264
aVDEC 09, 2012
p265
aVTOR @ LAC
p266
aVL
p267
aI16
aI1
aI5
aF0.2
aI1
aI3
aF0.333
aI2
aI2
aF1.0
aI0
aI3
aI3
aI2
aI0
aI0
aI2
aI0
aI5
aI-6
aI1
aa(lp268
V0021200279
p269
aVDEC 07, 2012
p270
aVTOR @ UTA
p271
aVL
p272
aI24
aI1
aI4
aF0.25
aI0
aI2
aF0.0
aI5
aI6
aF0.833
aI1
aI3
aI4
aI3
aI1
aI0
aI1
aI2
aI7
aI-22
aI1
aa(lp273
V0021200266
p274
aVDEC 05, 2012
p275
aVTOR @ SAC
p276
aVL
p277
aI14
aI1
aI3
aF0.333
aI0
aI1
aF0.0
aI1
aI1
aF1.0
aI0
aI1
aI1
aI4
aI0
aI0
aI1
aI0
aI3
aI-3
aI1
aa(lp278
V0021200248
p279
aVDEC 03, 2012
p280
aVTOR @ DEN
p281
aVL
p282
aI16
aI1
aI4
aF0.25
aI1
aI3
aF0.333
aI1
aI1
aF1.0
aI0
aI0
aI0
aI5
aI0
aI0
aI3
aI2
aI4
aI-7
aI1
aa(lp283
V0021200222
p284
aVNOV 30, 2012
p285
aVTOR vs. PHX
p286
aVW
p287
aI24
aI5
aI7
aF0.714
aI3
aI3
aF1.0
aI0
aI0
aF0.0
aI0
aI0
aI0
aI9
aI0
aI0
aI2
aI1
aI13
aI11
aI1
aa(lp288
V0021200216
p289
aVNOV 28, 2012
p290
aVTOR @ MEM
p291
aVL
p292
aI18
aI4
aI6
aF0.667
aI1
aI2
aF0.5
aI3
aI3
aF1.0
aI0
aI2
aI2
aI0
aI0
aI0
aI2
aI0
aI12
aI-11
aI1
aa(lp293
V0021200206
p294
aVNOV 27, 2012
p295
aVTOR @ HOU
p296
aVL
p297
aI24
aI4
aI9
aF0.444
aI4
aI8
aF0.5
aI0
aI0
aF0.0
aI0
aI0
aI0
aI7
aI0
aI0
aI0
aI0
aI12
aI-4
aI1
aa(lp298
V0021200191
p299
aVNOV 25, 2012
p300
aVTOR vs. SAS
p301
aVL
p302
aI41
aI3
aI14
aF0.214
aI1
aI5
aF0.2
aI2
aI2
aF1.0
aI1
aI1
aI2
aI9
aI0
aI0
aI2
aI3
aI9
aI-7
aI1
aa(lp303
V0021200175
p304
aVNOV 23, 2012
p305
aVTOR @ DET
p306
aVL
p307
aI16
aI1
aI2
aF0.5
aI1
aI1
aF1.0
aI2
aI2
aF1.0
aI0
aI1
aI1
aI3
aI0
aI0
aI1
aI0
aI5
aI5
aI1
aa(lp308
V0021200157
p309
aVNOV 21, 2012
p310
aVTOR @ CHA
p311
aVL
p312
aI24
aI2
aI8
aF0.25
aI2
aI6
aF0.333
aI1
aI1
aF1.0
aI1
aI2
aI3
aI4
aI1
aI1
aI2
aI1
aI7
aI4
aI1
aa(lp313
V0021200154
p314
aVNOV 20, 2012
p315
aVTOR @ PHI
p316
aVL
p317
aI37
aI5
aI10
aF0.5
aI1
aI3
aF0.333
aI2
aI2
aF1.0
aI0
aI5
aI5
aI12
aI0
aI0
aI2
aI1
aI13
aI-10
aI1
aa(lp318
V0021200140
p319
aVNOV 18, 2012
p320
aVTOR vs. ORL
p321
aVW
p322
aI43
aI3
aI8
aF0.375
aI2
aI5
aF0.4
aI1
aI1
aF1.0
aI0
aI2
aI2
aI18
aI1
aI1
aI2
aI2
aI9
aI15
aI1
aa(lp323
V0021200131
p324
aVNOV 17, 2012
p325
aVTOR @ BOS
p326
aVL
p327
aI28
aI3
aI7
aF0.429
aI2
aI3
aF0.667
aI2
aI3
aF0.667
aI0
aI2
aI2
aI9
aI1
aI0
aI3
aI1
aI10
aI-15
aI1
aa(lp328
V0021200105
p329
aVNOV 13, 2012
p330
aVTOR @ IND
p331
aVW
p332
aI39
aI5
aI10
aF0.5
aI2
aI2
aF1.0
aI1
aI1
aF1.0
aI1
aI9
aI10
aI10
aI0
aI0
aI4
aI1
aI13
aI5
aI1
aa(lp333
V0021200095
p334
aVNOV 12, 2012
p335
aVTOR vs. UTA
p336
aVL
p337
aI50
aI8
aI16
aF0.5
aI2
aI4
aF0.5
aI2
aI2
aF1.0
aI1
aI1
aI2
aI17
aI3
aI0
aI5
aI2
aI20
aI-8
aI1
aa(lp338
V0021200081
p339
aVNOV 10, 2012
p340
aVTOR vs. PHI
p341
aVL
p342
aI38
aI5
aI11
aF0.455
aI4
aI7
aF0.571
aI0
aI0
aF0.0
aI1
aI2
aI3
aI11
aI0
aI1
aI4
aI3
aI14
aI3
aI1
aa(lp343
V0021200061
p344
aVNOV 07, 2012
p345
aVTOR @ DAL
p346
aVL
p347
aI33
aI4
aI10
aF0.4
aI3
aI5
aF0.6
aI0
aI0
aF0.0
aI0
aI0
aI0
aI6
aI1
aI0
aI0
aI2
aI11
aI-1
aI1
aa(lp348
V0021200051
p349
aVNOV 06, 2012
p350
aVTOR @ OKC
p351
aVL
p352
aI20
aI2
aI7
aF0.286
aI1
aI4
aF0.25
aI3
aI3
aF1.0
aI0
aI0
aI0
aI2
aI4
aI0
aI3
aI0
aI8
aI-8
aI1
aa(lp353
V0021200038
p354
aVNOV 04, 2012
p355
aVTOR vs. MIN
p356
aVW
p357
aI14
aI3
aI5
aF0.6
aI1
aI2
aF0.5
aI0
aI0
aF0.0
aI1
aI0
aI1
aI3
aI0
aI0
aI0
aI1
aI7
aI8
aI1
aa(lp358
V0021200029
p359
aVNOV 03, 2012
p360
aVTOR @ BKN
p361
aVL
p362
aI21
aI1
aI5
aF0.2
aI0
aI2
aF0.0
aI0
aI0
aF0.0
aI0
aI0
aI0
aI3
aI0
aI0
aI1
aI2
aI2
aI-7
aI1
aa(lp363
V0021200004
p364
aVOCT 31, 2012
p365
aVTOR vs. IND
p366
aVL
p367
aI26
aI6
aI12
aF0.5
aI3
aI6
aF0.5
aI0
aI0
aF0.0
aI0
aI1
aI1
aI3
aI1
aI0
aI1
aI1
aI15
aI-8
aI1
aasS'name'
p368
VJose Calderon
p369
s.