(dp0
S'age'
p1
I29
sS'stats'
p2
(lp3
(lp4
V0021200783
p5
aVFEB 13, 2013
p6
aVPOR @ NOH
p7
aVL
p8
aI13
aI0
aI2
aF0.0
aI0
aI1
aF0.0
aI0
aI0
aF0.0
aI0
aI1
aI1
aI3
aI0
aI0
aI2
aI0
aI0
aI-14
aa(lp9
V0021200770
p10
aVFEB 12, 2013
p11
aVPOR @ MIA
p12
aVL
p13
aI10
aI0
aI1
aF0.0
aI0
aI1
aF0.0
aI0
aI0
aF0.0
aI1
aI1
aI2
aI2
aI1
aI0
aI1
aI0
aI0
aI8
aa(lp14
V0021200693
p15
aVFEB 01, 2013
p16
aVPOR @ UTA
p17
aVL
p18
aI15
aI1
aI4
aF0.25
aI0
aI1
aF0.0
aI0
aI0
aF0.0
aI1
aI0
aI1
aI2
aI0
aI0
aI0
aI1
aI2
aI-1
aa(lp19
V0021200668
p20
aVJAN 29, 2013
p21
aVPOR vs. DAL
p22
aVW
p23
aI10
aI2
aI4
aF0.5
aI1
aI2
aF0.5
aI0
aI0
aF0.0
aI1
aI1
aI2
aI0
aI0
aI0
aI0
aI1
aI5
aI1
aa(lp24
V0021200658
p25
aVJAN 27, 2013
p26
aVPOR @ LAC
p27
aVL
p28
aI12
aI1
aI3
aF0.333
aI0
aI1
aF0.0
aI1
aI2
aF0.5
aI0
aI0
aI0
aI1
aI0
aI0
aI1
aI1
aI3
aI-3
aa(lp29
V0021200651
p30
aVJAN 26, 2013
p31
aVPOR vs. LAC
p32
aVW
p33
aI11
aI1
aI3
aF0.333
aI1
aI2
aF0.5
aI0
aI0
aF0.0
aI0
aI0
aI0
aI1
aI1
aI0
aI0
aI3
aI3
aI2
aa(lp34
V0021200627
p35
aVJAN 23, 2013
p36
aVPOR vs. IND
p37
aVW
p38
aI8
aI0
aI0
aF0.0
aI0
aI0
aF0.0
aI0
aI0
aF0.0
aI0
aI1
aI1
aI2
aI1
aI0
aI0
aI0
aI0
aI7
aa(lp39
V0021200613
p40
aVJAN 21, 2013
p41
aVPOR vs. WAS
p42
aVL
p43
aI10
aI1
aI2
aF0.5
aI1
aI2
aF0.5
aI0
aI0
aF0.0
aI0
aI1
aI1
aI4
aI0
aI0
aI1
aI0
aI3
aI7
aa(lp44
V0021200599
p45
aVJAN 19, 2013
p46
aVPOR vs. MIL
p47
aVL
p48
aI11
aI0
aI0
aF0.0
aI0
aI0
aF0.0
aI2
aI2
aF1.0
aI0
aI2
aI2
aI1
aI0
aI0
aI1
aI2
aI2
aI3
aa(lp49
V0021200568
p50
aVJAN 15, 2013
p51
aVPOR @ DEN
p52
aVL
p53
aI11
aI1
aI3
aF0.333
aI0
aI1
aF0.0
aI0
aI0
aF0.0
aI0
aI1
aI1
aI2
aI0
aI0
aI3
aI2
aI2
aI1
aa(lp54
V0021200554
p55
aVJAN 13, 2013
p56
aVPOR vs. OKC
p57
aVL
p58
aI7
aI1
aI4
aF0.25
aI0
aI0
aF0.0
aI0
aI0
aF0.0
aI1
aI0
aI1
aI0
aI0
aI0
aI0
aI2
aI2
aI-2
aa(lp59
V0021200540
p60
aVJAN 11, 2013
p61
aVPOR @ GSW
p62
aVL
p63
aI5
aI0
aI2
aF0.0
aI0
aI0
aF0.0
aI0
aI0
aF0.0
aI0
aI0
aI0
aI0
aI0
aI0
aI1
aI0
aI0
aI-12
aa(lp64
V0021200529
p65
aVJAN 10, 2013
p66
aVPOR vs. MIA
p67
aVW
p68
aI11
aI1
aI1
aF1.0
aI0
aI0
aF0.0
aI3
aI4
aF0.75
aI0
aI0
aI0
aI0
aI2
aI0
aI1
aI0
aI5
aI-6
aa(lp69
V0021200510
p70
aVJAN 07, 2013
p71
aVPOR vs. ORL
p72
aVW
p73
aI14
aI3
aI7
aF0.429
aI0
aI1
aF0.0
aI2
aI2
aF1.0
aI0
aI2
aI2
aI3
aI1
aI0
aI0
aI0
aI8
aI-9
aa(lp74
V0021200494
p75
aVJAN 05, 2013
p76
aVPOR @ MIN
p77
aVW
p78
aI20
aI1
aI8
aF0.125
aI0
aI1
aF0.0
aI1
aI2
aF0.5
aI0
aI2
aI2
aI2
aI0
aI0
aI1
aI2
aI3
aI-4
aa(lp79
V0021200484
p80
aVJAN 04, 2013
p81
aVPOR @ MEM
p82
aVW
p83
aI10
aI0
aI0
aF0.0
aI0
aI0
aF0.0
aI0
aI0
aF0.0
aI1
aI0
aI1
aI1
aI0
aI0
aI1
aI2
aI0
aI3
aa(lp84
V0021200464
p85
aVJAN 02, 2013
p86
aVPOR @ TOR
p87
aVL
p88
aI8
aI1
aI2
aF0.5
aI0
aI0
aF0.0
aI0
aI0
aF0.0
aI0
aI0
aI0
aI0
aI0
aI0
aI0
aI0
aI2
aI-3
aa(lp89
V0021200459
p90
aVJAN 01, 2013
p91
aVPOR @ NYK
p92
aVW
p93
aI19
aI2
aI3
aF0.667
aI1
aI2
aF0.5
aI0
aI0
aF0.0
aI0
aI1
aI1
aI2
aI0
aI0
aI1
aI1
aI5
aI3
aa(lp94
V0021200446
p95
aVDEC 29, 2012
p96
aVPOR vs. PHI
p97
aVW
p98
aI20
aI0
aI2
aF0.0
aI0
aI0
aF0.0
aI1
aI2
aF0.5
aI0
aI1
aI1
aI4
aI3
aI0
aI1
aI2
aI1
aI2
aa(lp99
V0021200435
p100
aVDEC 28, 2012
p101
aVPOR @ LAL
p102
aVL
p103
aI7
aI2
aI3
aF0.667
aI0
aI1
aF0.0
aI0
aI0
aF0.0
aI0
aI0
aI0
aI3
aI2
aI0
aI0
aI1
aI4
aI-3
aa(lp104
V0021200422
p105
aVDEC 26, 2012
p106
aVPOR vs. SAC
p107
aVW
p108
aI13
aI2
aI3
aF0.667
aI1
aI2
aF0.5
aI0
aI0
aF0.0
aI0
aI1
aI1
aI4
aI2
aI0
aI0
aI3
aI5
aI-7
aa(lp109
V0021200404
p110
aVDEC 23, 2012
p111
aVPOR @ SAC
p112
aVL
p113
aI17
aI0
aI5
aF0.0
aI0
aI3
aF0.0
aI0
aI0
aF0.0
aI0
aI0
aI0
aI3
aI2
aI0
aI3
aI3
aI0
aI-18
aa(lp114
V0021200397
p115
aVDEC 22, 2012
p116
aVPOR vs. PHX
p117
aVW
p118
aI12
aI2
aI4
aF0.5
aI0
aI0
aF0.0
aI1
aI2
aF0.5
aI1
aI1
aI2
aI1
aI1
aI1
aI2
aI1
aI5
aI-1
aa(lp119
V0021200379
p120
aVDEC 20, 2012
p121
aVPOR vs. DEN
p122
aVW
p123
aI13
aI1
aI6
aF0.167
aI0
aI2
aF0.0
aI2
aI2
aF1.0
aI0
aI1
aI1
aI3
aI1
aI1
aI2
aI0
aI4
aI3
aa(lp124
V0021200349
p125
aVDEC 16, 2012
p126
aVPOR vs. NOH
p127
aVW
p128
aI20
aI1
aI2
aF0.5
aI0
aI0
aF0.0
aI0
aI0
aF0.0
aI0
aI1
aI1
aI3
aI1
aI0
aI0
aI0
aI2
aI1
aa(lp129
V0021200291
p130
aVDEC 08, 2012
p131
aVPOR vs. SAC
p132
aVL
p133
aI17
aI0
aI3
aF0.0
aI0
aI2
aF0.0
aI0
aI0
aF0.0
aI2
aI0
aI2
aI1
aI0
aI1
aI0
aI2
aI0
aI3
aa(lp134
V0021200209
p135
aVNOV 28, 2012
p136
aVPOR @ WAS
p137
aVL
p138
aI5
aI0
aI1
aF0.0
aI0
aI1
aF0.0
aI0
aI0
aF0.0
aI0
aI0
aI0
aI1
aI1
aI0
aI0
aI2
aI0
aI-4
aa(lp139
V0021200198
p140
aVNOV 26, 2012
p141
aVPOR @ DET
p142
aVL
p143
aI11
aI1
aI2
aF0.5
aI0
aI0
aF0.0
aI0
aI0
aF0.0
aI2
aI1
aI3
aI6
aI0
aI0
aI2
aI2
aI2
aI-4
aa(lp144
V0021200193
p145
aVNOV 25, 2012
p146
aVPOR @ BKN
p147
aVL
p148
aI17
aI0
aI4
aF0.0
aI0
aI0
aF0.0
aI0
aI0
aF0.0
aI0
aI0
aI0
aI3
aI0
aI0
aI1
aI2
aI0
aI-3
aa(lp149
V0021200182
p150
aVNOV 23, 2012
p151
aVPOR vs. MIN
p152
aVW
p153
aI18
aI1
aI3
aF0.333
aI1
aI1
aF1.0
aI0
aI0
aF0.0
aI0
aI1
aI1
aI1
aI1
aI0
aI0
aI0
aI3
aI-1
aa(lp154
V0021200168
p155
aVNOV 21, 2012
p156
aVPOR @ PHX
p157
aVL
p158
aI17
aI1
aI4
aF0.25
aI1
aI2
aF0.5
aI0
aI0
aF0.0
aI0
aI0
aI0
aI2
aI1
aI0
aI3
aI2
aI3
aI-11
aa(lp159
V0021200145
p160
aVNOV 18, 2012
p161
aVPOR vs. CHI
p162
aVW
p163
aI20
aI4
aI8
aF0.5
aI1
aI3
aF0.333
aI1
aI1
aF1.0
aI0
aI1
aI1
aI5
aI1
aI0
aI0
aI2
aI10
aI18
aa(lp164
V0021200129
p165
aVNOV 16, 2012
p166
aVPOR vs. HOU
p167
aVW
p168
aI11
aI1
aI4
aF0.25
aI0
aI0
aF0.0
aI0
aI0
aF0.0
aI0
aI0
aI0
aI1
aI0
aI0
aI0
aI4
aI2
aI-8
aa(lp169
V0021200107
p170
aVNOV 13, 2012
p171
aVPOR @ SAC
p172
aVW
p173
aI20
aI3
aI5
aF0.6
aI2
aI3
aF0.667
aI0
aI0
aF0.0
aI1
aI5
aI6
aI2
aI2
aI0
aI2
aI2
aI8
aI-5
aa(lp174
V0021200102
p175
aVNOV 12, 2012
p176
aVPOR vs. ATL
p177
aVL
p178
aI18
aI1
aI3
aF0.333
aI0
aI1
aF0.0
aI0
aI0
aF0.0
aI1
aI3
aI4
aI2
aI1
aI0
aI1
aI4
aI2
aI5
aa(lp179
V0021200088
p180
aVNOV 10, 2012
p181
aVPOR vs. SAS
p182
aVL
p183
aI10
aI0
aI3
aF0.0
aI0
aI1
aF0.0
aI0
aI0
aF0.0
aI0
aI0
aI0
aI0
aI1
aI0
aI1
aI1
aI0
aI-4
aa(lp184
V0021200067
p185
aVNOV 08, 2012
p186
aVPOR vs. LAC
p187
aVL
p188
aI15
aI1
aI1
aF1.0
aI0
aI0
aF0.0
aI3
aI5
aF0.6
aI0
aI1
aI1
aI0
aI0
aI0
aI1
aI6
aI5
aI-11
aa(lp189
V0021200046
p190
aVNOV 05, 2012
p191
aVPOR @ DAL
p192
aVL
p193
aI18
aI2
aI4
aF0.5
aI0
aI1
aF0.0
aI0
aI0
aF0.0
aI1
aI1
aI2
aI1
aI0
aI0
aI1
aI5
aI4
aI-4
aa(lp194
V0021200032
p195
aVNOV 03, 2012
p196
aVPOR @ HOU
p197
aVW
p198
aI6
aI0
aI1
aF0.0
aI0
aI1
aF0.0
aI0
aI0
aF0.0
aI0
aI0
aI0
aI1
aI0
aI0
aI0
aI0
aI0
aI-3
aasS'name'
p199
VRonnie Price
p200
sS'experience'
p201
I7
s.