(dp0
S'stats'
p1
(lp2
(lp3
V0021201217
p4
aVAPR 17, 2013
p5
aVBKN vs. DET
p6
aVW
p7
aI21
aI6
aI9
aF0.667
aI1
aI1
aF1.0
aI2
aI2
aF1.0
aI0
aI2
aI2
aI3
aI3
aI0
aI3
aI3
aI15
aI-12
aI1
aa(lp8
V0021201205
p9
aVAPR 15, 2013
p10
aVBKN vs. WAS
p11
aVW
p12
aI38
aI9
aI21
aF0.429
aI0
aI2
aF0.0
aI2
aI7
aF0.286
aI4
aI8
aI12
aI2
aI1
aI0
aI2
aI2
aI20
aI4
aI1
aa(lp13
V0021201195
p14
aVAPR 14, 2013
p15
aVBKN @ TOR
p16
aVL
p17
aI26
aI6
aI9
aF0.667
aI0
aI0
aF0.0
aI3
aI6
aF0.5
aI2
aI6
aI8
aI0
aI0
aI2
aI1
aI0
aI15
aI10
aI1
aa(lp18
V0021201178
p19
aVAPR 12, 2013
p20
aVBKN @ IND
p21
aVW
p22
aI20
aI3
aI6
aF0.5
aI0
aI0
aF0.0
aI0
aI0
aF0.0
aI3
aI3
aI6
aI0
aI1
aI0
aI0
aI2
aI6
aI0
aI1
aa(lp23
V0021201168
p24
aVAPR 10, 2013
p25
aVBKN @ BOS
p26
aVW
p27
aI17
aI2
aI7
aF0.286
aI0
aI0
aF0.0
aI2
aI2
aF1.0
aI2
aI0
aI2
aI0
aI2
aI0
aI1
aI3
aI6
aI-17
aI1
aa(lp28
V0021201155
p29
aVAPR 09, 2013
p30
aVBKN vs. PHI
p31
aVW
p32
aI17
aI0
aI4
aF0.0
aI0
aI2
aF0.0
aI2
aI2
aF1.0
aI1
aI4
aI5
aI1
aI0
aI0
aI0
aI2
aI2
aI-4
aI1
aa(lp33
V0021201139
p34
aVAPR 06, 2013
p35
aVBKN vs. CHA
p36
aVW
p37
aI18
aI7
aI13
aF0.538
aI0
aI0
aF0.0
aI2
aI4
aF0.5
aI4
aI3
aI7
aI0
aI0
aI1
aI0
aI2
aI16
aI-3
aI1
aa(lp38
V0021201123
p39
aVAPR 04, 2013
p40
aVBKN vs. CHI
p41
aVL
p42
aI11
aI3
aI6
aF0.5
aI0
aI0
aF0.0
aI2
aI3
aF0.667
aI0
aI0
aI0
aI0
aI1
aI0
aI4
aI0
aI8
aI-6
aI1
aa(lp43
V0021201114
p44
aVAPR 03, 2013
p45
aVBKN @ CLE
p46
aVW
p47
aI19
aI5
aI7
aF0.714
aI0
aI0
aF0.0
aI1
aI2
aF0.5
aI1
aI2
aI3
aI0
aI1
aI0
aI3
aI4
aI11
aI-7
aI1
aa(lp48
V0021201091
p49
aVMAR 30, 2013
p50
aVBKN @ UTA
p51
aVL
p52
aI19
aI5
aI8
aF0.625
aI0
aI0
aF0.0
aI0
aI0
aF0.0
aI0
aI4
aI4
aI1
aI0
aI4
aI2
aI2
aI10
aI1
aI1
aa(lp53
V0021201083
p54
aVMAR 29, 2013
p55
aVBKN @ DEN
p56
aVL
p57
aI22
aI8
aI11
aF0.727
aI0
aI0
aF0.0
aI0
aI2
aF0.0
aI3
aI2
aI5
aI0
aI2
aI3
aI4
aI2
aI16
aI-3
aI1
aa(lp58
V0021201070
p59
aVMAR 27, 2013
p60
aVBKN @ POR
p61
aVW
p62
aI17
aI5
aI6
aF0.833
aI0
aI0
aF0.0
aI2
aI5
aF0.4
aI1
aI1
aI2
aI0
aI1
aI1
aI3
aI4
aI12
aI-5
aI0
aa(lp63
V0021201046
p64
aVMAR 24, 2013
p65
aVBKN @ PHX
p66
aVW
p67
aI11
aI4
aI8
aF0.5
aI0
aI0
aF0.0
aI0
aI0
aF0.0
aI1
aI2
aI3
aI1
aI0
aI0
aI1
aI0
aI8
aI9
aI1
aa(lp68
V0021201038
p69
aVMAR 23, 2013
p70
aVBKN @ LAC
p71
aVL
p72
aI15
aI0
aI3
aF0.0
aI0
aI0
aF0.0
aI3
aI4
aF0.75
aI1
aI1
aI2
aI2
aI0
aI0
aI2
aI1
aI3
aI-5
aI1
aa(lp73
V0021201015
p74
aVMAR 20, 2013
p75
aVBKN @ DAL
p76
aVW
p77
aI20
aI6
aI7
aF0.857
aI0
aI0
aF0.0
aI2
aI2
aF1.0
aI1
aI3
aI4
aI1
aI0
aI0
aI0
aI2
aI14
aI9
aI1
aa(lp78
V0021200997
p79
aVMAR 18, 2013
p80
aVBKN @ DET
p81
aVW
p82
aI22
aI7
aI12
aF0.583
aI0
aI0
aF0.0
aI1
aI1
aF1.0
aI1
aI7
aI8
aI4
aI1
aI2
aI2
aI2
aI15
aI13
aI1
aa(lp83
V0021200991
p84
aVMAR 17, 2013
p85
aVBKN vs. ATL
p86
aVL
p87
aI13
aI3
aI6
aF0.5
aI0
aI0
aF0.0
aI3
aI4
aF0.75
aI3
aI2
aI5
aI0
aI1
aI1
aI2
aI3
aI9
aI-7
aI1
aa(lp88
V0021200951
p89
aVMAR 12, 2013
p90
aVBKN vs. NOH
p91
aVW
p92
aI29
aI9
aI15
aF0.6
aI0
aI0
aF0.0
aI0
aI0
aF0.0
aI4
aI1
aI5
aI3
aI0
aI1
aI0
aI1
aI18
aI7
aI1
aa(lp93
V0021200943
p94
aVMAR 11, 2013
p95
aVBKN @ PHI
p96
aVL
p97
aI15
aI4
aI7
aF0.571
aI0
aI0
aF0.0
aI1
aI2
aF0.5
aI1
aI2
aI3
aI1
aI0
aI1
aI3
aI1
aI9
aI0
aI1
aa(lp98
V0021200927
p99
aVMAR 09, 2013
p100
aVBKN @ ATL
p101
aVW
p102
aI20
aI9
aI11
aF0.818
aI0
aI1
aF0.0
aI0
aI1
aF0.0
aI1
aI3
aI4
aI2
aI4
aI1
aI4
aI2
aI18
aI7
aI1
aa(lp103
V0021200918
p104
aVMAR 08, 2013
p105
aVBKN vs. WAS
p106
aVW
p107
aI13
aI1
aI2
aF0.5
aI0
aI0
aF0.0
aI1
aI1
aF1.0
aI0
aI5
aI5
aI0
aI1
aI0
aI2
aI4
aI3
aI-1
aI1
aa(lp108
V0021200899
p109
aVMAR 06, 2013
p110
aVBKN @ CHA
p111
aVW
p112
aI15
aI3
aI5
aF0.6
aI0
aI0
aF0.0
aI2
aI3
aF0.667
aI0
aI5
aI5
aI0
aI0
aI0
aI3
aI1
aI8
aI3
aI1
aa(lp113
V0021200877
p114
aVMAR 02, 2013
p115
aVBKN @ CHI
p116
aVL
p117
aI23
aI4
aI10
aF0.4
aI0
aI1
aF0.0
aI5
aI6
aF0.833
aI1
aI3
aI4
aI2
aI4
aI0
aI1
aI0
aI13
aI1
aI1
aa(lp118
V0021200870
p119
aVMAR 01, 2013
p120
aVBKN vs. DAL
p121
aVL
p122
aI14
aI4
aI7
aF0.571
aI0
aI0
aF0.0
aI0
aI0
aF0.0
aI0
aI1
aI1
aI3
aI1
aI0
aI1
aI1
aI8
aI-16
aI1
aa(lp123
V0021200847
p124
aVFEB 26, 2013
p125
aVBKN @ NOH
p126
aVW
p127
aI16
aI4
aI9
aF0.444
aI0
aI0
aF0.0
aI0
aI1
aF0.0
aI1
aI3
aI4
aI2
aI1
aI2
aI0
aI1
aI8
aI5
aI1
aa(lp128
V0021200831
p129
aVFEB 24, 2013
p130
aVBKN vs. MEM
p131
aVL
p132
aI22
aI5
aI12
aF0.417
aI0
aI1
aF0.0
aI0
aI0
aF0.0
aI5
aI2
aI7
aI1
aI1
aI1
aI1
aI3
aI10
aI4
aI1
aa(lp133
V0021200815
p134
aVFEB 22, 2013
p135
aVBKN vs. HOU
p136
aVL
p137
aI13
aI2
aI4
aF0.5
aI0
aI0
aF0.0
aI0
aI0
aF0.0
aI1
aI0
aI1
aI1
aI2
aI0
aI2
aI1
aI4
aI-6
aI1
aa(lp138
V0021200803
p139
aVFEB 20, 2013
p140
aVBKN @ MIL
p141
aVW
p142
aI25
aI5
aI9
aF0.556
aI0
aI0
aF0.0
aI2
aI4
aF0.5
aI3
aI9
aI12
aI1
aI1
aI2
aI0
aI2
aI12
aI14
aI1
aa(lp143
V0021200791
p144
aVFEB 19, 2013
p145
aVBKN vs. MIL
p146
aVW
p147
aI19
aI6
aI8
aF0.75
aI0
aI0
aF0.0
aI2
aI4
aF0.5
aI1
aI5
aI6
aI1
aI0
aI0
aI1
aI1
aI14
aI-1
aI1
aa(lp148
V0021200779
p149
aVFEB 13, 2013
p150
aVBKN vs. DEN
p151
aVW
p152
aI9
aI2
aI3
aF0.667
aI0
aI0
aF0.0
aI1
aI1
aF1.0
aI1
aI1
aI2
aI2
aI0
aI0
aI2
aI0
aI5
aI-7
aI1
aa(lp153
V0021200764
p154
aVFEB 11, 2013
p155
aVBKN @ IND
p156
aVW
p157
aI11
aI2
aI4
aF0.5
aI0
aI0
aF0.0
aI2
aI4
aF0.5
aI0
aI2
aI2
aI0
aI1
aI0
aI0
aI2
aI6
aI2
aI1
aa(lp158
V0021200758
p159
aVFEB 10, 2013
p160
aVBKN vs. SAS
p161
aVL
p162
aI14
aI1
aI2
aF0.5
aI0
aI0
aF0.0
aI4
aI4
aF1.0
aI3
aI1
aI4
aI0
aI0
aI0
aI2
aI5
aI6
aI-10
aI1
aa(lp163
V0021200735
p164
aVFEB 08, 2013
p165
aVBKN @ WAS
p166
aVL
p167
aI16
aI2
aI9
aF0.222
aI0
aI1
aF0.0
aI1
aI6
aF0.167
aI2
aI2
aI4
aI1
aI3
aI0
aI1
aI2
aI5
aI-4
aI1
aa(lp168
V0021200727
p169
aVFEB 06, 2013
p170
aVBKN @ DET
p171
aVW
p172
aI17
aI3
aI9
aF0.333
aI0
aI0
aF0.0
aI1
aI2
aF0.5
aI2
aI5
aI7
aI2
aI2
aI0
aI2
aI3
aI7
aI6
aI1
aa(lp173
V0021200716
p174
aVFEB 05, 2013
p175
aVBKN vs. LAL
p176
aVL
p177
aI5
aI1
aI4
aF0.25
aI0
aI0
aF0.0
aI0
aI0
aF0.0
aI1
aI1
aI2
aI0
aI0
aI0
aI1
aI1
aI2
aI-4
aI1
aa(lp178
V0021200687
p179
aVFEB 01, 2013
p180
aVBKN vs. CHI
p181
aVW
p182
aI16
aI5
aI7
aF0.714
aI0
aI0
aF0.0
aI1
aI2
aF0.5
aI0
aI3
aI3
aI3
aI1
aI1
aI0
aI4
aI11
aI3
aI1
aa(lp183
V0021200675
p184
aVJAN 30, 2013
p185
aVBKN vs. MIA
p186
aVL
p187
aI24
aI5
aI5
aF1.0
aI0
aI0
aF0.0
aI2
aI3
aF0.667
aI1
aI5
aI6
aI0
aI1
aI1
aI2
aI3
aI12
aI-6
aI1
aa(lp188
V0021200662
p189
aVJAN 28, 2013
p190
aVBKN vs. ORL
p191
aVW
p192
aI20
aI3
aI11
aF0.273
aI0
aI1
aF0.0
aI2
aI3
aF0.667
aI1
aI3
aI4
aI0
aI1
aI1
aI2
aI2
aI8
aI2
aI1
aa(lp193
V0021200646
p194
aVJAN 26, 2013
p195
aVBKN @ HOU
p196
aVL
p197
aI6
aI0
aI1
aF0.0
aI0
aI0
aF0.0
aI0
aI0
aF0.0
aI0
aI0
aI0
aI1
aI0
aI0
aI1
aI0
aI0
aI-6
aI1
aa(lp198
V0021200637
p199
aVJAN 25, 2013
p200
aVBKN @ MEM
p201
aVL
p202
aI13
aI3
aI5
aF0.6
aI0
aI0
aF0.0
aI2
aI2
aF1.0
aI0
aI1
aI1
aI0
aI2
aI0
aI2
aI1
aI8
aI-4
aI1
aa(lp203
V0021200623
p204
aVJAN 23, 2013
p205
aVBKN @ MIN
p206
aVW
p207
aI21
aI3
aI11
aF0.273
aI0
aI0
aF0.0
aI3
aI4
aF0.75
aI2
aI3
aI5
aI0
aI2
aI1
aI1
aI0
aI9
aI-1
aI1
aa(lp208
V0021200609
p209
aVJAN 21, 2013
p210
aVBKN @ NYK
p211
aVW
p212
aI13
aI0
aI2
aF0.0
aI0
aI1
aF0.0
aI0
aI0
aF0.0
aI0
aI2
aI2
aI2
aI2
aI0
aI2
aI2
aI0
aI10
aI1
aa(lp213
V0021200588
p214
aVJAN 18, 2013
p215
aVBKN vs. ATL
p216
aVW
p217
aI16
aI4
aI5
aF0.8
aI0
aI0
aF0.0
aI3
aI5
aF0.6
aI3
aI5
aI8
aI0
aI0
aI0
aI1
aI4
aI11
aI5
aI1
aa(lp218
V0021200572
p219
aVJAN 16, 2013
p220
aVBKN @ ATL
p221
aVL
p222
aI21
aI6
aI7
aF0.857
aI0
aI0
aF0.0
aI0
aI0
aF0.0
aI1
aI3
aI4
aI2
aI2
aI1
aI1
aI2
aI12
aI-2
aI1
aa(lp223
V0021200566
p224
aVJAN 15, 2013
p225
aVBKN vs. TOR
p226
aVW
p227
aI19
aI7
aI10
aF0.7
aI0
aI0
aF0.0
aI0
aI0
aF0.0
aI1
aI1
aI2
aI0
aI0
aI1
aI1
aI2
aI14
aI-6
aI1
aa(lp228
V0021200551
p229
aVJAN 13, 2013
p230
aVBKN vs. IND
p231
aVW
p232
aI19
aI1
aI8
aF0.125
aI0
aI0
aF0.0
aI3
aI4
aF0.75
aI2
aI2
aI4
aI2
aI1
aI0
aI1
aI1
aI5
aI-1
aI1
aa(lp233
V0021200532
p234
aVJAN 11, 2013
p235
aVBKN vs. PHX
p236
aVW
p237
aI24
aI6
aI14
aF0.429
aI0
aI0
aF0.0
aI3
aI3
aF1.0
aI4
aI4
aI8
aI0
aI1
aI0
aI2
aI2
aI15
aI11
aI1
aa(lp238
V0021200511
p239
aVJAN 08, 2013
p240
aVBKN @ PHI
p241
aVW
p242
aI22
aI8
aI15
aF0.533
aI0
aI0
aF0.0
aI4
aI4
aF1.0
aI1
aI6
aI7
aI2
aI0
aI0
aI0
aI0
aI20
aI-6
aI1
aa(lp243
V0021200492
p244
aVJAN 05, 2013
p245
aVBKN vs. SAC
p246
aVW
p247
aI27
aI7
aI11
aF0.636
aI0
aI0
aF0.0
aI1
aI1
aF1.0
aI5
aI6
aI11
aI2
aI1
aI2
aI1
aI2
aI15
aI13
aI1
aa(lp248
V0021200479
p249
aVJAN 04, 2013
p250
aVBKN @ WAS
p251
aVW
p252
aI19
aI6
aI11
aF0.545
aI0
aI0
aF0.0
aI1
aI1
aF1.0
aI6
aI6
aI12
aI1
aI4
aI0
aI2
aI4
aI13
aI5
aI1
aa(lp253
V0021200472
p254
aVJAN 02, 2013
p255
aVBKN @ OKC
p256
aVW
p257
aI18
aI4
aI7
aF0.571
aI0
aI0
aF0.0
aI2
aI2
aF1.0
aI1
aI4
aI5
aI1
aI0
aI1
aI1
aI0
aI10
aI9
aI1
aa(lp258
V0021200457
p259
aVDEC 31, 2012
p260
aVBKN @ SAS
p261
aVL
p262
aI21
aI1
aI6
aF0.167
aI0
aI1
aF0.0
aI3
aI4
aF0.75
aI1
aI7
aI8
aI2
aI1
aI1
aI2
aI1
aI5
aI-12
aI1
aa(lp263
V0021200440
p264
aVDEC 29, 2012
p265
aVBKN vs. CLE
p266
aVW
p267
aI12
aI2
aI5
aF0.4
aI1
aI1
aF1.0
aI2
aI4
aF0.5
aI1
aI0
aI1
aI0
aI0
aI1
aI2
aI1
aI7
aI-10
aI1
aa(lp268
V0021200427
p269
aVDEC 28, 2012
p270
aVBKN vs. CHA
p271
aVW
p272
aI14
aI1
aI2
aF0.5
aI0
aI0
aF0.0
aI4
aI4
aF1.0
aI2
aI0
aI2
aI0
aI0
aI1
aI2
aI4
aI6
aI-6
aI1
aa(lp273
V0021200415
p274
aVDEC 26, 2012
p275
aVBKN @ MIL
p276
aVL
p277
aI18
aI5
aI10
aF0.5
aI0
aI1
aF0.0
aI4
aI5
aF0.8
aI2
aI3
aI5
aI0
aI3
aI3
aI3
aI2
aI14
aI-2
aI1
aa(lp278
V0021200405
p279
aVDEC 25, 2012
p280
aVBKN vs. BOS
p281
aVL
p282
aI23
aI3
aI9
aF0.333
aI0
aI0
aF0.0
aI0
aI0
aF0.0
aI6
aI1
aI7
aI1
aI1
aI2
aI3
aI3
aI6
aI-10
aI1
aa(lp283
V0021200399
p284
aVDEC 23, 2012
p285
aVBKN vs. PHI
p286
aVW
p287
aI21
aI4
aI7
aF0.571
aI0
aI1
aF0.0
aI2
aI2
aF1.0
aI1
aI3
aI4
aI0
aI2
aI1
aI0
aI1
aI10
aI-1
aI1
aa(lp288
V0021200367
p289
aVDEC 19, 2012
p290
aVBKN @ NYK
p291
aVL
p292
aI16
aI3
aI5
aF0.6
aI0
aI1
aF0.0
aI1
aI2
aF0.5
aI0
aI2
aI2
aI0
aI1
aI1
aI1
aI1
aI7
aI-4
aI1
aa(lp293
V0021200358
p294
aVDEC 18, 2012
p295
aVBKN vs. UTA
p296
aVL
p297
aI16
aI4
aI7
aF0.571
aI0
aI0
aF0.0
aI0
aI0
aF0.0
aI1
aI3
aI4
aI2
aI0
aI0
aI3
aI4
aI8
aI-1
aI1
aa(lp298
V0021200341
p299
aVDEC 15, 2012
p300
aVBKN @ CHI
p301
aVL
p302
aI23
aI4
aI11
aF0.364
aI0
aI1
aF0.0
aI1
aI2
aF0.5
aI3
aI3
aI6
aI1
aI3
aI1
aI2
aI1
aI9
aI-4
aI1
aa(lp303
V0021200328
p304
aVDEC 14, 2012
p305
aVBKN vs. DET
p306
aVW
p307
aI24
aI7
aI12
aF0.583
aI0
aI0
aF0.0
aI2
aI4
aF0.5
aI1
aI1
aI2
aI1
aI2
aI1
aI0
aI6
aI16
aI3
aI1
aa(lp308
V0021200309
p309
aVDEC 12, 2012
p310
aVBKN @ TOR
p311
aVW
p312
aI33
aI7
aI14
aF0.5
aI0
aI0
aF0.0
aI0
aI0
aF0.0
aI3
aI6
aI9
aI3
aI1
aI0
aI2
aI5
aI14
aI-2
aI1
aa(lp313
V0021200304
p314
aVDEC 11, 2012
p315
aVBKN vs. NYK
p316
aVL
p317
aI29
aI9
aI13
aF0.692
aI0
aI1
aF0.0
aI5
aI6
aF0.833
aI0
aI4
aI4
aI0
aI2
aI0
aI2
aI4
aI23
aI9
aI1
aa(lp318
V0021200293
p319
aVDEC 09, 2012
p320
aVBKN vs. MIL
p321
aVL
p322
aI21
aI3
aI7
aF0.429
aI0
aI0
aF0.0
aI5
aI6
aF0.833
aI2
aI4
aI6
aI1
aI2
aI1
aI2
aI1
aI11
aI-16
aI1
aa(lp323
V0021200272
p324
aVDEC 07, 2012
p325
aVBKN vs. GSW
p326
aVL
p327
aI35
aI8
aI13
aF0.615
aI1
aI1
aF1.0
aI5
aI9
aF0.556
aI7
aI8
aI15
aI2
aI4
aI0
aI2
aI2
aI22
aI1
aI1
aa(lp328
V0021200253
p329
aVDEC 04, 2012
p330
aVBKN vs. OKC
p331
aVL
p332
aI26
aI7
aI15
aF0.467
aI0
aI0
aF0.0
aI5
aI5
aF1.0
aI8
aI3
aI11
aI1
aI3
aI0
aI1
aI5
aI19
aI-8
aI1
aa(lp333
V0021200233
p334
aVDEC 01, 2012
p335
aVBKN @ MIA
p336
aVL
p337
aI34
aI8
aI12
aF0.667
aI0
aI0
aF0.0
aI4
aI7
aF0.571
aI4
aI4
aI8
aI0
aI1
aI0
aI1
aI1
aI20
aI1
aI1
aa(lp338
V0021200224
p339
aVNOV 30, 2012
p340
aVBKN @ ORL
p341
aVW
p342
aI28
aI6
aI14
aF0.429
aI0
aI0
aF0.0
aI2
aI2
aF1.0
aI2
aI7
aI9
aI3
aI0
aI1
aI1
aI3
aI14
aI19
aI1
aa(lp343
V0021200211
p344
aVNOV 28, 2012
p345
aVBKN @ BOS
p346
aVW
p347
aI29
aI7
aI14
aF0.5
aI0
aI0
aF0.0
aI3
aI4
aF0.75
aI8
aI5
aI13
aI1
aI2
aI0
aI3
aI5
aI17
aI9
aI1
aa(lp348
V0021200013
p349
aVNOV 26, 2012
p350
aVBKN vs. NYK
p351
aVW
p352
aI7
aI1
aI2
aF0.5
aI0
aI0
aF0.0
aI0
aI0
aF0.0
aI0
aI1
aI1
aI1
aI0
aI0
aI0
aI0
aI2
aI7
aI1
aa(lp353
V0021200193
p354
aVNOV 25, 2012
p355
aVBKN vs. POR
p356
aVW
p357
aI20
aI3
aI11
aF0.273
aI0
aI1
aF0.0
aI7
aI8
aF0.875
aI6
aI2
aI8
aI1
aI0
aI2
aI0
aI0
aI13
aI-8
aI1
aa(lp358
V0021200174
p359
aVNOV 23, 2012
p360
aVBKN vs. LAC
p361
aVW
p362
aI15
aI3
aI6
aF0.5
aI0
aI0
aF0.0
aI0
aI0
aF0.0
aI0
aI1
aI1
aI0
aI1
aI0
aI3
aI3
aI6
aI2
aI1
aa(lp363
V0021200170
p364
aVNOV 21, 2012
p365
aVBKN @ GSW
p366
aVL
p367
aI19
aI4
aI10
aF0.4
aI0
aI1
aF0.0
aI3
aI3
aF1.0
aI3
aI4
aI7
aI4
aI2
aI0
aI2
aI2
aI11
aI-4
aI1
aa(lp368
V0021200156
p369
aVNOV 20, 2012
p370
aVBKN @ LAL
p371
aVL
p372
aI11
aI2
aI3
aF0.667
aI0
aI0
aF0.0
aI0
aI0
aF0.0
aI0
aI3
aI3
aI0
aI0
aI0
aI1
aI2
aI4
aI0
aI1
aa(lp373
V0021200142
p374
aVNOV 18, 2012
p375
aVBKN @ SAC
p376
aVW
p377
aI19
aI11
aI12
aF0.917
aI0
aI0
aF0.0
aI0
aI1
aF0.0
aI2
aI0
aI2
aI1
aI0
aI0
aI0
aI0
aI22
aI2
aI1
aa(lp378
V0021200119
p379
aVNOV 15, 2012
p380
aVBKN vs. BOS
p381
aVW
p382
aI12
aI3
aI9
aF0.333
aI0
aI0
aF0.0
aI1
aI1
aF1.0
aI4
aI1
aI5
aI1
aI0
aI1
aI1
aI2
aI7
aI-11
aI1
aa(lp383
V0021200106
p384
aVNOV 13, 2012
p385
aVBKN vs. CLE
p386
aVW
p387
aI19
aI4
aI7
aF0.571
aI0
aI0
aF0.0
aI5
aI6
aF0.833
aI1
aI4
aI5
aI1
aI0
aI3
aI2
aI2
aI13
aI15
aI1
aa(lp388
V0021200090
p389
aVNOV 11, 2012
p390
aVBKN vs. ORL
p391
aVW
p392
aI12
aI1
aI6
aF0.167
aI0
aI0
aF0.0
aI0
aI0
aF0.0
aI1
aI6
aI7
aI0
aI0
aI1
aI2
aI2
aI2
aI4
aI1
aa(lp393
V0021200069
p394
aVNOV 09, 2012
p395
aVBKN @ ORL
p396
aVW
p397
aI24
aI5
aI13
aF0.385
aI0
aI0
aF0.0
aI5
aI8
aF0.625
aI4
aI5
aI9
aI4
aI1
aI1
aI1
aI0
aI15
aI21
aI1
aa(lp398
V0021200056
p399
aVNOV 07, 2012
p400
aVBKN @ MIA
p401
aVL
p402
aI21
aI2
aI8
aF0.25
aI0
aI0
aF0.0
aI0
aI0
aF0.0
aI2
aI6
aI8
aI0
aI1
aI0
aI2
aI2
aI4
aI-19
aI0
aa(lp403
V0021200043
p404
aVNOV 05, 2012
p405
aVBKN vs. MIN
p406
aVL
p407
aI15
aI1
aI2
aF0.5
aI0
aI0
aF0.0
aI2
aI2
aF1.0
aI2
aI3
aI5
aI1
aI0
aI1
aI0
aI1
aI4
aI-5
aI1
aa(lp408
V0021200029
p409
aVNOV 03, 2012
p410
aVBKN vs. TOR
p411
aVW
p412
aI15
aI3
aI8
aF0.375
aI0
aI1
aF0.0
aI1
aI2
aF0.5
aI1
aI1
aI2
aI0
aI0
aI0
aI1
aI3
aI7
aI2
aI1
aasS'name'
p413
VAndray Blatche
p414
s.