(dp0
S'stats'
p1
(lp2
(lp3
V0021201148
p4
aVAPR 07, 2013
p5
aVCLE vs. ORL
p6
aVW
p7
aI6
aI3
aI5
aF0.6
aI2
aI4
aF0.5
aI0
aI0
aF0.0
aI0
aI0
aI0
aI0
aI1
aI0
aI1
aI0
aI8
aI10
aI1
aa(lp8
V0021201127
p9
aVAPR 05, 2013
p10
aVCLE @ BOS
p11
aVW
p12
aI15
aI2
aI7
aF0.286
aI0
aI3
aF0.0
aI5
aI6
aF0.833
aI1
aI3
aI4
aI0
aI1
aI0
aI2
aI3
aI9
aI-7
aI1
aa(lp13
V0021201114
p14
aVAPR 03, 2013
p15
aVCLE vs. BKN
p16
aVL
p17
aI13
aI3
aI4
aF0.75
aI1
aI1
aF1.0
aI4
aI4
aF1.0
aI0
aI3
aI3
aI0
aI1
aI0
aI0
aI2
aI11
aI0
aI1
aa(lp18
V0021201096
p19
aVMAR 31, 2013
p20
aVCLE @ NOH
p21
aVL
p22
aI19
aI1
aI9
aF0.111
aI1
aI4
aF0.25
aI0
aI0
aF0.0
aI1
aI0
aI1
aI1
aI0
aI0
aI1
aI2
aI3
aI-9
aI1
aa(lp23
V0021201078
p24
aVMAR 29, 2013
p25
aVCLE vs. PHI
p26
aVL
p27
aI28
aI7
aI11
aF0.636
aI2
aI4
aF0.5
aI3
aI4
aF0.75
aI0
aI5
aI5
aI3
aI0
aI1
aI4
aI1
aI19
aI9
aI1
aa(lp28
V0021201060
p29
aVMAR 27, 2013
p30
aVCLE vs. BOS
p31
aVL
p32
aI28
aI4
aI13
aF0.308
aI3
aI8
aF0.375
aI2
aI2
aF1.0
aI0
aI4
aI4
aI6
aI1
aI1
aI1
aI4
aI13
aI-2
aI1
aa(lp33
V0021201028
p34
aVMAR 22, 2013
p35
aVCLE @ HOU
p36
aVL
p37
aI16
aI3
aI8
aF0.375
aI1
aI3
aF0.333
aI2
aI2
aF1.0
aI0
aI0
aI0
aI2
aI1
aI0
aI0
aI2
aI9
aI-7
aI1
aa(lp38
V0021201009
p39
aVMAR 20, 2013
p40
aVCLE vs. MIA
p41
aVL
p42
aI24
aI3
aI10
aF0.3
aI2
aI6
aF0.333
aI2
aI2
aF1.0
aI2
aI1
aI3
aI5
aI0
aI0
aI0
aI1
aI10
aI1
aI1
aa(lp43
V0021200995
p44
aVMAR 18, 2013
p45
aVCLE vs. IND
p46
aVL
p47
aI27
aI8
aI16
aF0.5
aI4
aI8
aF0.5
aI1
aI2
aF0.5
aI1
aI1
aI2
aI1
aI0
aI0
aI1
aI0
aI21
aI-10
aI1
aa(lp48
V0021200982
p49
aVMAR 16, 2013
p50
aVCLE @ SAS
p51
aVL
p52
aI18
aI2
aI7
aF0.286
aI1
aI4
aF0.25
aI3
aI4
aF0.75
aI1
aI1
aI2
aI1
aI1
aI0
aI0
aI2
aI8
aI7
aI1
aa(lp53
V0021200976
p54
aVMAR 15, 2013
p55
aVCLE @ DAL
p56
aVL
p57
aI18
aI2
aI6
aF0.333
aI2
aI5
aF0.4
aI2
aI3
aF0.667
aI0
aI5
aI5
aI1
aI0
aI1
aI0
aI1
aI8
aI-16
aI1
aa(lp58
V0021200950
p59
aVMAR 12, 2013
p60
aVCLE vs. WAS
p61
aVW
p62
aI22
aI4
aI10
aF0.4
aI2
aI5
aF0.4
aI0
aI0
aF0.0
aI0
aI3
aI3
aI0
aI2
aI0
aI2
aI1
aI10
aI-8
aI1
aa(lp63
V0021200936
p64
aVMAR 10, 2013
p65
aVCLE @ TOR
p66
aVL
p67
aI26
aI5
aI11
aF0.455
aI4
aI8
aF0.5
aI1
aI2
aF0.5
aI0
aI5
aI5
aI0
aI1
aI0
aI3
aI5
aI15
aI8
aI1
aa(lp68
V0021200920
p69
aVMAR 08, 2013
p70
aVCLE vs. MEM
p71
aVL
p72
aI20
aI5
aI10
aF0.5
aI1
aI3
aF0.333
aI2
aI2
aF1.0
aI0
aI1
aI1
aI0
aI3
aI1
aI0
aI0
aI13
aI6
aI1
aa(lp73
V0021200900
p74
aVMAR 06, 2013
p75
aVCLE vs. UTA
p76
aVW
p77
aI18
aI4
aI7
aF0.571
aI2
aI3
aF0.667
aI2
aI2
aF1.0
aI0
aI4
aI4
aI2
aI0
aI2
aI0
aI3
aI12
aI5
aI1
aa(lp78
V0021200889
p79
aVMAR 04, 2013
p80
aVCLE vs. NYK
p81
aVL
p82
aI22
aI3
aI7
aF0.429
aI2
aI6
aF0.333
aI3
aI4
aF0.75
aI0
aI2
aI2
aI1
aI2
aI0
aI1
aI0
aI11
aI2
aI1
aa(lp83
V0021200869
p84
aVMAR 01, 2013
p85
aVCLE vs. LAC
p86
aVL
p87
aI27
aI5
aI10
aF0.5
aI3
aI7
aF0.429
aI3
aI6
aF0.5
aI1
aI5
aI6
aI0
aI3
aI0
aI1
aI1
aI16
aI-13
aI1
aa(lp88
V0021200852
p89
aVFEB 27, 2013
p90
aVCLE vs. TOR
p91
aVW
p92
aI15
aI3
aI8
aF0.375
aI2
aI5
aF0.4
aI2
aI2
aF1.0
aI0
aI2
aI2
aI0
aI0
aI1
aI1
aI3
aI10
aI11
aI1
aa(lp93
V0021200846
p94
aVFEB 26, 2013
p95
aVCLE @ CHI
p96
aVW
p97
aI17
aI2
aI6
aF0.333
aI1
aI4
aF0.25
aI2
aI2
aF1.0
aI1
aI1
aI2
aI2
aI3
aI1
aI1
aI1
aI7
aI-2
aI1
aa(lp98
V0021200833
p99
aVFEB 24, 2013
p100
aVCLE @ MIA
p101
aVL
p102
aI21
aI6
aI11
aF0.545
aI5
aI9
aF0.556
aI2
aI2
aF1.0
aI0
aI2
aI2
aI1
aI1
aI0
aI0
aI3
aI19
aI8
aI1
aa(lp103
V0021200825
p104
aVFEB 23, 2013
p105
aVCLE @ ORL
p106
aVW
p107
aI20
aI5
aI10
aF0.5
aI4
aI7
aF0.571
aI2
aI2
aF1.0
aI1
aI5
aI6
aI0
aI1
aI0
aI1
aI2
aI16
aI15
aI1
aa(lp108
V0021200800
p109
aVFEB 20, 2013
p110
aVCLE vs. NOH
p111
aVW
p112
aI18
aI5
aI7
aF0.714
aI0
aI2
aF0.0
aI1
aI1
aF1.0
aI1
aI1
aI2
aI0
aI1
aI1
aI0
aI2
aI11
aI1
aI1
aa(lp113
V0021200776
p114
aVFEB 13, 2013
p115
aVCLE vs. SAS
p116
aVL
p117
aI21
aI4
aI11
aF0.364
aI2
aI5
aF0.4
aI0
aI0
aF0.0
aI0
aI5
aI5
aI0
aI0
aI0
aI0
aI0
aI10
aI8
aI1
aa(lp118
V0021200763
p119
aVFEB 11, 2013
p120
aVCLE vs. MIN
p121
aVL
p122
aI21
aI4
aI9
aF0.444
aI1
aI5
aF0.2
aI0
aI0
aF0.0
aI0
aI0
aI0
aI2
aI2
aI1
aI1
aI3
aI9
aI-2
aI1
aa(lp123
V0021200747
p124
aVFEB 09, 2013
p125
aVCLE vs. DEN
p126
aVL
p127
aI16
aI3
aI7
aF0.429
aI1
aI5
aF0.2
aI0
aI0
aF0.0
aI0
aI0
aI0
aI4
aI1
aI1
aI1
aI2
aI7
aI5
aI1
aa(lp128
V0021200740
p129
aVFEB 08, 2013
p130
aVCLE vs. ORL
p131
aVW
p132
aI14
aI3
aI4
aF0.75
aI2
aI3
aF0.667
aI0
aI0
aF0.0
aI0
aI1
aI1
aI0
aI0
aI0
aI0
aI0
aI8
aI2
aI1
aa(lp133
V0021200724
p134
aVFEB 06, 2013
p135
aVCLE vs. CHA
p136
aVW
p137
aI16
aI3
aI7
aF0.429
aI0
aI2
aF0.0
aI0
aI0
aF0.0
aI0
aI2
aI2
aI2
aI0
aI0
aI0
aI2
aI6
aI3
aI1
aa(lp138
V0021200698
p139
aVFEB 02, 2013
p140
aVCLE vs. OKC
p141
aVW
p142
aI15
aI5
aI7
aF0.714
aI4
aI6
aF0.667
aI2
aI2
aF1.0
aI0
aI2
aI2
aI2
aI0
aI0
aI0
aI1
aI16
aI2
aI1
aa(lp143
V0021200690
p144
aVFEB 01, 2013
p145
aVCLE @ DET
p146
aVL
p147
aI21
aI4
aI10
aF0.4
aI1
aI4
aF0.25
aI3
aI3
aF1.0
aI1
aI3
aI4
aI3
aI2
aI1
aI0
aI2
aI12
aI5
aI1
aa(lp148
V0021200666
p149
aVJAN 29, 2013
p150
aVCLE vs. GSW
p151
aVL
p152
aI16
aI4
aI11
aF0.364
aI2
aI8
aF0.25
aI0
aI0
aF0.0
aI1
aI3
aI4
aI1
aI1
aI0
aI0
aI1
aI10
aI4
aI1
aa(lp153
V0021200598
p154
aVJAN 19, 2013
p155
aVCLE @ UTA
p156
aVL
p157
aI36
aI4
aI11
aF0.364
aI1
aI6
aF0.167
aI3
aI3
aF1.0
aI0
aI1
aI1
aI2
aI0
aI0
aI1
aI2
aI12
aI-7
aI1
aa(lp158
V0021200578
p159
aVJAN 16, 2013
p160
aVCLE @ POR
p161
aVW
p162
aI32
aI3
aI11
aF0.273
aI2
aI5
aF0.4
aI0
aI0
aF0.0
aI0
aI2
aI2
aI0
aI1
aI0
aI0
aI0
aI8
aI-3
aI1
aa(lp163
V0021200563
p164
aVJAN 14, 2013
p165
aVCLE @ SAC
p166
aVL
p167
aI21
aI7
aI14
aF0.5
aI3
aI6
aF0.5
aI0
aI0
aF0.0
aI1
aI0
aI1
aI0
aI1
aI0
aI0
aI3
aI17
aI-7
aI1
aa(lp168
V0021200555
p169
aVJAN 13, 2013
p170
aVCLE @ LAL
p171
aVL
p172
aI17
aI1
aI9
aF0.111
aI0
aI5
aF0.0
aI3
aI3
aF1.0
aI0
aI1
aI1
aI0
aI0
aI0
aI2
aI0
aI5
aI-10
aI1
aa(lp173
V0021200538
p174
aVJAN 11, 2013
p175
aVCLE @ DEN
p176
aVL
p177
aI33
aI4
aI10
aF0.4
aI1
aI7
aF0.143
aI2
aI3
aF0.667
aI0
aI7
aI7
aI0
aI0
aI0
aI3
aI5
aI11
aI-6
aI1
aa(lp178
V0021200506
p179
aVJAN 07, 2013
p180
aVCLE @ CHI
p181
aVL
p182
aI24
aI5
aI11
aF0.455
aI4
aI7
aF0.571
aI1
aI1
aF1.0
aI0
aI3
aI3
aI0
aI2
aI0
aI1
aI5
aI15
aI-3
aI0
aa(lp183
V0021200493
p184
aVJAN 05, 2013
p185
aVCLE vs. HOU
p186
aVL
p187
aI26
aI4
aI14
aF0.286
aI1
aI6
aF0.167
aI0
aI0
aF0.0
aI1
aI2
aI3
aI1
aI1
aI0
aI0
aI4
aI9
aI0
aI1
aa(lp188
V0021200480
p189
aVJAN 04, 2013
p190
aVCLE @ CHA
p191
aVW
p192
aI39
aI7
aI14
aF0.5
aI4
aI9
aF0.444
aI0
aI0
aF0.0
aI0
aI3
aI3
aI0
aI2
aI1
aI0
aI4
aI18
aI11
aI1
aa(lp193
V0021200466
p194
aVJAN 02, 2013
p195
aVCLE vs. SAC
p196
aVL
p197
aI29
aI4
aI13
aF0.308
aI1
aI7
aF0.143
aI3
aI3
aF1.0
aI0
aI2
aI2
aI0
aI0
aI0
aI2
aI2
aI12
aI-5
aI1
aa(lp198
V0021200440
p199
aVDEC 29, 2012
p200
aVCLE @ BKN
p201
aVL
p202
aI34
aI11
aI15
aF0.733
aI8
aI10
aF0.8
aI3
aI3
aF1.0
aI0
aI2
aI2
aI0
aI0
aI0
aI1
aI5
aI33
aI7
aI1
aa(lp203
V0021200429
p204
aVDEC 28, 2012
p205
aVCLE vs. ATL
p206
aVL
p207
aI22
aI3
aI7
aF0.429
aI2
aI4
aF0.5
aI2
aI2
aF1.0
aI1
aI2
aI3
aI0
aI0
aI0
aI1
aI1
aI10
aI-21
aI1
aa(lp208
V0021200410
p209
aVDEC 26, 2012
p210
aVCLE @ WAS
p211
aVW
p212
aI14
aI1
aI6
aF0.167
aI1
aI5
aF0.2
aI0
aI0
aF0.0
aI0
aI0
aI0
aI2
aI0
aI0
aI1
aI2
aI3
aI0
aI1
aa(lp213
V0021200395
p214
aVDEC 22, 2012
p215
aVCLE @ MIL
p216
aVW
p217
aI21
aI5
aI9
aF0.556
aI3
aI6
aF0.5
aI3
aI3
aF1.0
aI0
aI2
aI2
aI1
aI0
aI0
aI2
aI3
aI16
aI10
aI1
aa(lp218
V0021200385
p219
aVDEC 21, 2012
p220
aVCLE vs. IND
p221
aVL
p222
aI15
aI4
aI11
aF0.364
aI2
aI4
aF0.5
aI0
aI1
aF0.0
aI1
aI4
aI5
aI1
aI1
aI1
aI0
aI1
aI10
aI-5
aI1
aa(lp223
V0021200370
p224
aVDEC 19, 2012
p225
aVCLE @ BOS
p226
aVL
p227
aI17
aI1
aI5
aF0.2
aI1
aI4
aF0.25
aI0
aI0
aF0.0
aI1
aI3
aI4
aI2
aI0
aI0
aI0
aI3
aI3
aI7
aI1
aa(lp228
V0021200357
p229
aVDEC 18, 2012
p230
aVCLE vs. TOR
p231
aVL
p232
aI30
aI4
aI7
aF0.571
aI2
aI4
aF0.5
aI3
aI3
aF1.0
aI0
aI4
aI4
aI1
aI0
aI0
aI2
aI6
aI13
aI-18
aI1
aa(lp233
V0021200338
p234
aVDEC 15, 2012
p235
aVCLE @ NYK
p236
aVL
p237
aI41
aI7
aI18
aF0.389
aI3
aI9
aF0.333
aI0
aI0
aF0.0
aI2
aI6
aI8
aI1
aI1
aI0
aI1
aI3
aI17
aI0
aI1
aa(lp238
V0021200329
p239
aVDEC 14, 2012
p240
aVCLE vs. MIL
p241
aVL
p242
aI32
aI6
aI14
aF0.429
aI3
aI5
aF0.6
aI2
aI2
aF1.0
aI1
aI3
aI4
aI2
aI2
aI0
aI4
aI5
aI17
aI-7
aI1
aa(lp243
V0021200311
p244
aVDEC 12, 2012
p245
aVCLE @ IND
p246
aVL
p247
aI28
aI8
aI18
aF0.444
aI6
aI9
aF0.667
aI6
aI6
aF1.0
aI0
aI2
aI2
aI0
aI1
aI1
aI2
aI2
aI28
aI-8
aI1
aa(lp248
V0021200305
p249
aVDEC 11, 2012
p250
aVCLE vs. LAL
p251
aVW
p252
aI37
aI10
aI18
aF0.556
aI5
aI10
aF0.5
aI3
aI4
aF0.75
aI0
aI5
aI5
aI0
aI1
aI1
aI1
aI5
aI28
aI9
aI1
aa(lp253
V0021200287
p254
aVDEC 08, 2012
p255
aVCLE vs. DET
p256
aVL
p257
aI15
aI5
aI11
aF0.455
aI1
aI4
aF0.25
aI4
aI4
aF1.0
aI1
aI1
aI2
aI1
aI0
aI0
aI3
aI3
aI15
aI-6
aI1
aa(lp258
V0021200276
p259
aVDEC 07, 2012
p260
aVCLE @ MIN
p261
aVL
p262
aI23
aI5
aI12
aF0.417
aI2
aI5
aF0.4
aI1
aI2
aF0.5
aI0
aI1
aI1
aI0
aI1
aI0
aI5
aI1
aI13
aI-3
aI1
aa(lp263
V0021200262
p264
aVDEC 05, 2012
p265
aVCLE vs. CHI
p266
aVL
p267
aI15
aI4
aI8
aF0.5
aI1
aI1
aF1.0
aI1
aI1
aF1.0
aI0
aI2
aI2
aI1
aI1
aI0
aI0
aI2
aI10
aI2
aI1
aa(lp268
V0021200246
p269
aVDEC 03, 2012
p270
aVCLE @ DET
p271
aVL
p272
aI9
aI3
aI6
aF0.5
aI0
aI2
aF0.0
aI2
aI2
aF1.0
aI0
aI3
aI3
aI0
aI0
aI0
aI0
aI2
aI8
aI-9
aI1
aa(lp273
V0021200205
p274
aVNOV 27, 2012
p275
aVCLE vs. PHX
p276
aVL
p277
aI19
aI3
aI11
aF0.273
aI0
aI5
aF0.0
aI2
aI2
aF1.0
aI1
aI3
aI4
aI1
aI1
aI0
aI1
aI2
aI8
aI-5
aI1
aa(lp278
V0021200186
p279
aVNOV 24, 2012
p280
aVCLE @ MIA
p281
aVL
p282
aI18
aI4
aI7
aF0.571
aI2
aI4
aF0.5
aI0
aI0
aF0.0
aI0
aI1
aI1
aI1
aI0
aI0
aI0
aI2
aI10
aI4
aI1
aa(lp283
V0021200172
p284
aVNOV 23, 2012
p285
aVCLE @ ORL
p286
aVL
p287
aI3
aI0
aI1
aF0.0
aI0
aI1
aF0.0
aI0
aI0
aF0.0
aI0
aI0
aI0
aI0
aI0
aI0
aI0
aI1
aI0
aI-4
aI1
aa(lp288
V0021200159
p289
aVNOV 21, 2012
p290
aVCLE vs. PHI
p291
aVW
p292
aI27
aI5
aI9
aF0.556
aI3
aI4
aF0.75
aI0
aI0
aF0.0
aI1
aI2
aI3
aI0
aI0
aI1
aI3
aI1
aI13
aI8
aI1
aa(lp293
V0021200141
p294
aVNOV 18, 2012
p295
aVCLE @ PHI
p296
aVL
p297
aI14
aI1
aI8
aF0.125
aI1
aI4
aF0.25
aI0
aI0
aF0.0
aI1
aI1
aI2
aI1
aI0
aI0
aI1
aI1
aI3
aI-3
aI1
aa(lp298
V0021200077
p299
aVNOV 09, 2012
p300
aVCLE @ PHX
p301
aVL
p302
aI12
aI0
aI7
aF0.0
aI0
aI4
aF0.0
aI0
aI0
aF0.0
aI0
aI5
aI5
aI1
aI0
aI0
aI1
aI1
aI0
aI-10
aI1
aa(lp303
V0021200065
p304
aVNOV 07, 2012
p305
aVCLE @ GSW
p306
aVL
p307
aI17
aI3
aI11
aF0.273
aI1
aI7
aF0.143
aI0
aI0
aF0.0
aI0
aI1
aI1
aI0
aI1
aI0
aI1
aI5
aI7
aI-15
aI1
aa(lp308
V0021200049
p309
aVNOV 05, 2012
p310
aVCLE @ LAC
p311
aVW
p312
aI14
aI4
aI7
aF0.571
aI2
aI3
aF0.667
aI0
aI0
aF0.0
aI0
aI0
aI0
aI0
aI2
aI0
aI1
aI1
aI10
aI-1
aI1
aa(lp313
V0021200033
p314
aVNOV 03, 2012
p315
aVCLE @ MIL
p316
aVL
p317
aI15
aI0
aI6
aF0.0
aI0
aI3
aF0.0
aI0
aI0
aF0.0
aI0
aI1
aI1
aI1
aI0
aI0
aI3
aI4
aI0
aI-16
aI1
aa(lp318
V0021200019
p319
aVNOV 02, 2012
p320
aVCLE vs. CHI
p321
aVL
p322
aI18
aI3
aI11
aF0.273
aI2
aI5
aF0.4
aI0
aI0
aF0.0
aI0
aI1
aI1
aI2
aI1
aI0
aI1
aI1
aI8
aI-11
aI1
aa(lp323
V0021200001
p324
aVOCT 30, 2012
p325
aVCLE vs. WAS
p326
aVW
p327
aI18
aI1
aI5
aF0.2
aI0
aI1
aF0.0
aI0
aI0
aF0.0
aI0
aI4
aI4
aI1
aI0
aI0
aI3
aI0
aI2
aI2
aI1
aasS'name'
p328
VCJ Miles
p329
s.