(dp0
S'stats'
p1
(lp2
(lp3
V0021200008
p4
aVOCT 31, 2012
p5
aVSAS @ NOH
p6
aVW
p7
aI34
aI10
aI15
aF0.667
aI0
aI0
aF0.0
aI4
aI5
aF0.8
aI2
aI9
aI11
aI3
aI0
aI3
aI5
aI3
aI24
aI13
aa(lp8
V0021200014
p9
aVNOV 01, 2012
p10
aVSAS vs. OKC
p11
aVW
p12
aI34
aI8
aI19
aF0.421
aI0
aI0
aF0.0
aI4
aI6
aF0.667
aI0
aI8
aI8
aI1
aI0
aI3
aI0
aI2
aI20
aI-5
aa(lp13
V0021200035
p14
aVNOV 03, 2012
p15
aVSAS vs. UTA
p16
aVW
p17
aI32
aI7
aI14
aF0.5
aI0
aI0
aF0.0
aI5
aI6
aF0.833
aI1
aI10
aI11
aI1
aI2
aI3
aI1
aI3
aI19
aI17
aa(lp18
V0021200047
p19
aVNOV 05, 2012
p20
aVSAS vs. IND
p21
aVW
p22
aI26
aI7
aI16
aF0.438
aI0
aI0
aF0.0
aI0
aI0
aF0.0
aI1
aI10
aI11
aI3
aI3
aI1
aI0
aI0
aI14
aI6
aa(lp23
V0021200064
p24
aVNOV 07, 2012
p25
aVSAS @ LAC
p26
aVL
p27
aI23
aI3
aI8
aF0.375
aI0
aI0
aF0.0
aI4
aI6
aF0.667
aI2
aI4
aI6
aI3
aI1
aI0
aI1
aI1
aI10
aI-13
aa(lp28
V0021200078
p29
aVNOV 09, 2012
p30
aVSAS @ SAC
p31
aVW
p32
aI31
aI9
aI12
aF0.75
aI0
aI0
aF0.0
aI5
aI6
aF0.833
aI0
aI12
aI12
aI4
aI3
aI5
aI2
aI2
aI23
aI4
aa(lp33
V0021200088
p34
aVNOV 10, 2012
p35
aVSAS @ POR
p36
aVW
p37
aI32
aI7
aI12
aF0.583
aI0
aI0
aF0.0
aI8
aI9
aF0.889
aI2
aI7
aI9
aI1
aI1
aI3
aI1
aI2
aI22
aI-12
aa(lp38
V0021200108
p39
aVNOV 13, 2012
p40
aVSAS @ LAL
p41
aVW
p42
aI37
aI9
aI19
aF0.474
aI0
aI0
aF0.0
aI0
aI2
aF0.0
aI1
aI8
aI9
aI4
aI0
aI4
aI0
aI4
aI18
aI9
aa(lp43
V0021200120
p44
aVNOV 15, 2012
p45
aVSAS vs. NYK
p46
aVL
p47
aI31
aI6
aI10
aF0.6
aI0
aI1
aF0.0
aI2
aI4
aF0.5
aI4
aI10
aI14
aI2
aI0
aI3
aI1
aI0
aI14
aI7
aa(lp48
V0021200137
p49
aVNOV 17, 2012
p50
aVSAS vs. DEN
p51
aVW
p52
aI23
aI4
aI8
aF0.5
aI1
aI1
aF1.0
aI5
aI6
aF0.833
aI0
aI5
aI5
aI3
aI1
aI3
aI2
aI1
aI14
aI23
aa(lp53
V0021200152
p54
aVNOV 19, 2012
p55
aVSAS vs. LAC
p56
aVL
p57
aI34
aI6
aI16
aF0.375
aI0
aI0
aF0.0
aI8
aI10
aF0.8
aI5
aI9
aI14
aI1
aI0
aI2
aI2
aI2
aI20
aI1
aa(lp58
V0021200161
p59
aVNOV 21, 2012
p60
aVSAS @ BOS
p61
aVW
p62
aI33
aI7
aI12
aF0.583
aI0
aI0
aF0.0
aI6
aI9
aF0.667
aI3
aI12
aI15
aI4
aI0
aI0
aI4
aI2
aI20
aI-3
aa(lp63
V0021200176
p64
aVNOV 23, 2012
p65
aVSAS @ IND
p66
aVW
p67
aI31
aI10
aI19
aF0.526
aI0
aI0
aF0.0
aI2
aI2
aF1.0
aI3
aI14
aI17
aI1
aI1
aI0
aI0
aI4
aI22
aI15
aa(lp68
V0021200191
p69
aVNOV 25, 2012
p70
aVSAS @ TOR
p71
aVW
p72
aI41
aI11
aI21
aF0.524
aI0
aI0
aF0.0
aI4
aI4
aF1.0
aI1
aI4
aI5
aI6
aI0
aI3
aI2
aI2
aI26
aI9
aa(lp73
V0021200197
p74
aVNOV 26, 2012
p75
aVSAS @ WAS
p76
aVW
p77
aI23
aI7
aI11
aF0.636
aI0
aI0
aF0.0
aI0
aI0
aF0.0
aI1
aI4
aI5
aI4
aI0
aI2
aI0
aI1
aI14
aI5
aa(lp78
V0021200210
p79
aVNOV 28, 2012
p80
aVSAS @ ORL
p81
aVW
p82
aI27
aI7
aI11
aF0.636
aI1
aI1
aF1.0
aI0
aI0
aF0.0
aI0
aI4
aI4
aI0
aI2
aI5
aI1
aI1
aI15
aI13
aa(lp83
V0021200239
p84
aVDEC 01, 2012
p85
aVSAS vs. MEM
p86
aVW
p87
aI41
aI11
aI17
aF0.647
aI0
aI0
aF0.0
aI5
aI5
aF1.0
aI6
aI9
aI15
aI4
aI1
aI1
aI4
aI3
aI27
aI0
aa(lp88
V0021200264
p89
aVDEC 05, 2012
p90
aVSAS vs. MIL
p91
aVW
p92
aI27
aI7
aI15
aF0.467
aI0
aI0
aF0.0
aI3
aI3
aF1.0
aI1
aI9
aI10
aI1
aI0
aI2
aI2
aI1
aI17
aI5
aa(lp93
V0021200278
p94
aVDEC 07, 2012
p95
aVSAS vs. HOU
p96
aVW
p97
aI23
aI6
aI13
aF0.462
aI0
aI0
aF0.0
aI0
aI0
aF0.0
aI2
aI10
aI12
aI3
aI0
aI2
aI1
aI1
aI12
aI12
aa(lp98
V0021200284
p99
aVDEC 08, 2012
p100
aVSAS @ CHA
p101
aVW
p102
aI24
aI5
aI9
aF0.556
aI0
aI0
aF0.0
aI1
aI2
aF0.5
aI0
aI2
aI2
aI2
aI1
aI3
aI2
aI1
aI11
aI13
aa(lp103
V0021200301
p104
aVDEC 10, 2012
p105
aVSAS @ HOU
p106
aVW
p107
aI32
aI1
aI9
aF0.111
aI0
aI0
aF0.0
aI8
aI8
aF1.0
aI2
aI11
aI13
aI3
aI0
aI3
aI1
aI4
aI10
aI17
aa(lp108
V0021200321
p109
aVDEC 12, 2012
p110
aVSAS @ UTA
p111
aVL
p112
aI33
aI8
aI17
aF0.471
aI0
aI1
aF0.0
aI6
aI9
aF0.667
aI3
aI18
aI21
aI1
aI1
aI6
aI1
aI1
aI22
aI-7
aa(lp113
V0021200324
p114
aVDEC 13, 2012
p115
aVSAS @ POR
p116
aVL
p117
aI30
aI6
aI13
aF0.462
aI0
aI0
aF0.0
aI4
aI4
aF1.0
aI2
aI4
aI6
aI1
aI2
aI2
aI3
aI1
aI16
aI0
aa(lp118
V0021200344
p119
aVDEC 15, 2012
p120
aVSAS vs. BOS
p121
aVW
p122
aI31
aI2
aI13
aF0.154
aI0
aI0
aF0.0
aI1
aI2
aF0.5
aI3
aI9
aI12
aI2
aI1
aI2
aI2
aI0
aI5
aI18
aa(lp123
V0021200354
p124
aVDEC 17, 2012
p125
aVSAS @ OKC
p126
aVL
p127
aI24
aI5
aI10
aF0.5
aI0
aI0
aF0.0
aI2
aI2
aF1.0
aI0
aI5
aI5
aI1
aI1
aI1
aI1
aI2
aI12
aI-15
aa(lp128
V0021200363
p129
aVDEC 18, 2012
p130
aVSAS @ DEN
p131
aVL
p132
aI40
aI11
aI25
aF0.44
aI0
aI0
aF0.0
aI9
aI10
aF0.9
aI4
aI14
aI18
aI6
aI2
aI5
aI2
aI3
aI31
aI0
aa(lp133
V0021200387
p134
aVDEC 21, 2012
p135
aVSAS vs. NOH
p136
aVW
p137
aI32
aI7
aI11
aF0.636
aI0
aI0
aF0.0
aI1
aI1
aF1.0
aI1
aI9
aI10
aI5
aI2
aI2
aI2
aI1
aI15
aI13
aa(lp138
V0021200402
p139
aVDEC 23, 2012
p140
aVSAS vs. DAL
p141
aVW
p142
aI23
aI7
aI15
aF0.467
aI0
aI0
aF0.0
aI1
aI2
aF0.5
aI0
aI5
aI5
aI4
aI1
aI2
aI1
aI1
aI15
aI25
aa(lp143
V0021200418
p144
aVDEC 26, 2012
p145
aVSAS vs. TOR
p146
aVW
p147
aI27
aI6
aI11
aF0.545
aI0
aI0
aF0.0
aI3
aI4
aF0.75
aI1
aI5
aI6
aI2
aI0
aI2
aI3
aI0
aI15
aI16
aa(lp148
V0021200432
p149
aVDEC 28, 2012
p150
aVSAS vs. HOU
p151
aVW
p152
aI34
aI13
aI20
aF0.65
aI0
aI0
aF0.0
aI4
aI4
aF1.0
aI0
aI5
aI5
aI0
aI1
aI2
aI4
aI2
aI30
aI3
aa(lp153
V0021200449
p154
aVDEC 30, 2012
p155
aVSAS @ DAL
p156
aVW
p157
aI29
aI7
aI14
aF0.5
aI0
aI0
aF0.0
aI4
aI4
aF1.0
aI2
aI8
aI10
aI2
aI0
aI3
aI1
aI2
aI18
aI24
aa(lp158
V0021200457
p159
aVDEC 31, 2012
p160
aVSAS vs. BKN
p161
aVW
p162
aI25
aI7
aI12
aF0.583
aI0
aI0
aF0.0
aI1
aI1
aF1.0
aI0
aI4
aI4
aI3
aI0
aI2
aI2
aI2
aI15
aI24
aa(lp163
V0021200470
p164
aVJAN 02, 2013
p165
aVSAS @ MIL
p166
aVW
p167
aI34
aI11
aI20
aF0.55
aI0
aI0
aF0.0
aI6
aI7
aF0.857
aI3
aI10
aI13
aI6
aI1
aI3
aI1
aI3
aI28
aI18
aa(lp168
V0021200476
p169
aVJAN 03, 2013
p170
aVSAS @ NYK
p171
aVL
p172
aI24
aI4
aI8
aF0.5
aI0
aI0
aF0.0
aI3
aI4
aF0.75
aI2
aI4
aI6
aI0
aI1
aI2
aI3
aI1
aI11
aI-2
aa(lp173
V0021200496
p174
aVJAN 05, 2013
p175
aVSAS vs. PHI
p176
aVW
p177
aI26
aI7
aI10
aF0.7
aI0
aI0
aF0.0
aI2
aI2
aF1.0
aI1
aI7
aI8
aI3
aI1
aI4
aI2
aI1
aI16
aI11
aa(lp178
V0021200507
p179
aVJAN 07, 2013
p180
aVSAS @ NOH
p181
aVL
p182
aI26
aI5
aI14
aF0.357
aI0
aI0
aF0.0
aI3
aI3
aF1.0
aI4
aI4
aI8
aI1
aI0
aI3
aI5
aI2
aI13
aI-13
aa(lp183
V0021200522
p184
aVJAN 09, 2013
p185
aVSAS vs. LAL
p186
aVW
p187
aI29
aI4
aI13
aF0.308
aI0
aI0
aF0.0
aI0
aI0
aF0.0
aI0
aI7
aI7
aI5
aI0
aI4
aI3
aI0
aI8
aI8
aa(lp188
V0021200535
p189
aVJAN 11, 2013
p190
aVSAS @ MEM
p191
aVL
p192
aI39
aI5
aI14
aF0.357
aI0
aI1
aF0.0
aI3
aI4
aF0.75
aI4
aI11
aI15
aI4
aI0
aI3
aI6
aI3
aI13
aI-12
aa(lp193
V0021200552
p194
aVJAN 13, 2013
p195
aVSAS vs. MIN
p196
aVW
p197
aI29
aI4
aI8
aF0.5
aI0
aI0
aF0.0
aI4
aI5
aF0.8
aI1
aI8
aI9
aI5
aI3
aI7
aI3
aI2
aI12
aI2
aa(lp198
V0021200576
p199
aVJAN 16, 2013
p200
aVSAS vs. MEM
p201
aVW
p202
aI31
aI9
aI17
aF0.529
aI0
aI0
aF0.0
aI1
aI1
aF1.0
aI1
aI7
aI8
aI4
aI0
aI5
aI1
aI3
aI19
aI18
aa(lp203
V0021200590
p204
aVJAN 18, 2013
p205
aVSAS vs. GSW
p206
aVW
p207
aI32
aI9
aI16
aF0.563
aI0
aI0
aF0.0
aI6
aI6
aF1.0
aI1
aI9
aI10
aI2
aI0
aI3
aI4
aI3
aI24
aI-1
aa(lp208
V0021200611
p209
aVJAN 21, 2013
p210
aVSAS @ PHI
p211
aVW
p212
aI34
aI10
aI17
aF0.588
aI0
aI0
aF0.0
aI4
aI4
aF1.0
aI4
aI13
aI17
aI5
aI2
aI1
aI2
aI2
aI24
aI17
aa(lp213
V0021200702
p214
aVFEB 02, 2013
p215
aVSAS vs. WAS
p216
aVW
p217
aI14
aI3
aI6
aF0.5
aI0
aI0
aF0.0
aI2
aI2
aF1.0
aI2
aI3
aI5
aI2
aI0
aI1
aI0
aI1
aI8
aI13
aa(lp218
V0021200776
p219
aVFEB 13, 2013
p220
aVSAS @ CLE
p221
aVW
p222
aI25
aI6
aI15
aF0.4
aI0
aI0
aF0.0
aI1
aI2
aF0.5
aI2
aI4
aI6
aI3
aI0
aI5
aI1
aI0
aI13
aI15
aa(lp223
V0021200796
p224
aVFEB 19, 2013
p225
aVSAS @ SAC
p226
aVW
p227
aI28
aI3
aI8
aF0.375
aI0
aI1
aF0.0
aI3
aI4
aF0.75
aI2
aI12
aI14
aI2
aI2
aI4
aI2
aI2
aI9
aI4
aa(lp228
V0021200810
p229
aVFEB 21, 2013
p230
aVSAS @ LAC
p231
aVW
p232
aI16
aI4
aI8
aF0.5
aI0
aI0
aF0.0
aI1
aI4
aF0.25
aI0
aI5
aI5
aI0
aI0
aI0
aI1
aI0
aI9
aI20
aa(lp233
V0021200822
p234
aVFEB 22, 2013
p235
aVSAS @ GSW
p236
aVL
p237
aI39
aI6
aI16
aF0.375
aI0
aI0
aF0.0
aI7
aI10
aF0.7
aI2
aI11
aI13
aI3
aI1
aI4
aI3
aI5
aI19
aI-1
aa(lp238
V0021200836
p239
aVFEB 24, 2013
p240
aVSAS @ PHX
p241
aVW
p242
aI28
aI5
aI12
aF0.417
aI0
aI0
aF0.0
aI0
aI0
aF0.0
aI2
aI6
aI8
aI3
aI0
aI0
aI3
aI3
aI10
aI1
aa(lp243
V0021200858
p244
aVFEB 27, 2013
p245
aVSAS vs. PHX
p246
aVL
p247
aI35
aI6
aI15
aF0.4
aI0
aI1
aF0.0
aI7
aI8
aF0.875
aI0
aI11
aI11
aI0
aI1
aI1
aI3
aI2
aI19
aI-9
aa(lp248
V0021200872
p249
aVMAR 01, 2013
p250
aVSAS vs. SAC
p251
aVW
p252
aI25
aI5
aI8
aF0.625
aI0
aI0
aF0.0
aI3
aI5
aF0.6
aI1
aI9
aI10
aI3
aI3
aI3
aI2
aI2
aI13
aI25
aa(lp253
V0021200886
p254
aVMAR 03, 2013
p255
aVSAS vs. DET
p256
aVW
p257
aI26
aI7
aI14
aF0.5
aI0
aI0
aF0.0
aI2
aI2
aF1.0
aI4
aI7
aI11
aI6
aI0
aI5
aI0
aI2
aI16
aI24
aa(lp258
V0021200909
p259
aVMAR 06, 2013
p260
aVSAS vs. CHI
p261
aVW
p262
aI33
aI7
aI13
aF0.538
aI0
aI0
aF0.0
aI4
aI6
aF0.667
aI2
aI8
aI10
aI1
aI1
aI5
aI2
aI0
aI18
aI3
aa(lp263
V0021200923
p264
aVMAR 08, 2013
p265
aVSAS vs. POR
p266
aVL
p267
aI23
aI8
aI14
aF0.571
aI0
aI0
aF0.0
aI2
aI2
aF1.0
aI2
aI6
aI8
aI3
aI0
aI0
aI3
aI3
aI18
aI-13
aa(lp268
V0021200944
p269
aVMAR 11, 2013
p270
aVSAS vs. OKC
p271
aVW
p272
aI35
aI6
aI14
aF0.429
aI0
aI0
aF0.0
aI1
aI1
aF1.0
aI2
aI6
aI8
aI1
aI0
aI0
aI1
aI1
aI13
aI-2
aa(lp273
V0021200967
p274
aVMAR 14, 2013
p275
aVSAS vs. DAL
p276
aVW
p277
aI36
aI12
aI20
aF0.6
aI0
aI0
aF0.0
aI4
aI5
aF0.8
aI5
aI14
aI19
aI2
aI0
aI1
aI2
aI1
aI28
aI10
aa(lp278
V0021200982
p279
aVMAR 16, 2013
p280
aVSAS vs. CLE
p281
aVW
p282
aI35
aI13
aI19
aF0.684
aI0
aI0
aF0.0
aI4
aI4
aF1.0
aI2
aI10
aI12
aI4
aI0
aI5
aI5
aI2
aI30
aI21
aa(lp283
V0021201016
p284
aVMAR 20, 2013
p285
aVSAS vs. GSW
p286
aVW
p287
aI31
aI11
aI17
aF0.647
aI0
aI0
aF0.0
aI3
aI3
aF1.0
aI2
aI11
aI13
aI6
aI1
aI4
aI3
aI0
aI25
aI6
aa(lp288
V0021201030
p289
aVMAR 22, 2013
p290
aVSAS vs. UTA
p291
aVW
p292
aI37
aI4
aI13
aF0.308
aI0
aI0
aF0.0
aI11
aI13
aF0.846
aI1
aI15
aI16
aI5
aI0
aI2
aI2
aI2
aI19
aI20
aa(lp293
V0021201042
p294
aVMAR 24, 2013
p295
aVSAS @ HOU
p296
aVL
p297
aI35
aI7
aI18
aF0.389
aI0
aI0
aF0.0
aI3
aI5
aF0.6
aI1
aI6
aI7
aI2
aI1
aI2
aI5
aI2
aI17
aI-3
aa(lp298
V0021201067
p299
aVMAR 27, 2013
p300
aVSAS vs. DEN
p301
aVW
p302
aI36
aI9
aI18
aF0.5
aI0
aI0
aF0.0
aI5
aI6
aF0.833
aI5
aI9
aI14
aI0
aI1
aI5
aI3
aI3
aI23
aI14
aa(lp303
V0021201082
p304
aVMAR 29, 2013
p305
aVSAS vs. LAC
p306
aVW
p307
aI32
aI12
aI19
aF0.632
aI0
aI0
aF0.0
aI10
aI10
aF1.0
aI3
aI8
aI11
aI3
aI0
aI2
aI3
aI3
aI34
aI8
aa(lp308
V0021201098
p309
aVMAR 31, 2013
p310
aVSAS vs. MIA
p311
aVL
p312
aI35
aI8
aI15
aF0.533
aI0
aI0
aF0.0
aI1
aI3
aF0.333
aI3
aI9
aI12
aI4
aI1
aI2
aI2
aI0
aI17
aI-3
aa(lp313
V0021201117
p314
aVAPR 03, 2013
p315
aVSAS vs. ORL
p316
aVW
p317
aI14
aI2
aI5
aF0.4
aI0
aI0
aF0.0
aI1
aI2
aF0.5
aI0
aI4
aI4
aI0
aI0
aI0
aI2
aI0
aI5
aI0
aa(lp318
V0021201125
p319
aVAPR 04, 2013
p320
aVSAS @ OKC
p321
aVL
p322
aI35
aI9
aI19
aF0.474
aI0
aI0
aF0.0
aI6
aI6
aF1.0
aI2
aI9
aI11
aI1
aI0
aI3
aI1
aI1
aI24
aI2
aa(lp323
V0021201143
p324
aVAPR 06, 2013
p325
aVSAS vs. ATL
p326
aVW
p327
aI33
aI12
aI21
aF0.571
aI0
aI0
aF0.0
aI7
aI8
aF0.875
aI0
aI14
aI14
aI3
aI0
aI4
aI3
aI2
aI31
aI15
aa(lp328
V0021201172
p329
aVAPR 10, 2013
p330
aVSAS @ DEN
p331
aVL
p332
aI27
aI7
aI14
aF0.5
aI0
aI0
aF0.0
aI3
aI4
aF0.75
aI0
aI3
aI3
aI2
aI0
aI1
aI1
aI0
aI17
aI4
aa(lp333
V0021201186
p334
aVAPR 12, 2013
p335
aVSAS vs. SAC
p336
aVW
p337
aI34
aI7
aI18
aF0.389
aI0
aI0
aF0.0
aI4
aI5
aF0.8
aI0
aI6
aI6
aI2
aI2
aI5
aI3
aI1
aI18
aI8
aa(lp338
V0021201201
p339
aVAPR 14, 2013
p340
aVSAS @ LAL
p341
aVL
p342
aI34
aI11
aI22
aF0.5
aI0
aI0
aF0.0
aI1
aI1
aF1.0
aI3
aI7
aI10
aI4
aI1
aI3
aI2
aI3
aI23
aI-3
aa(lp343
V0021201225
p344
aVAPR 17, 2013
p345
aVSAS vs. MIN
p346
aVL
p347
aI27
aI5
aI11
aF0.455
aI0
aI0
aF0.0
aI7
aI7
aF1.0
aI2
aI12
aI14
aI3
aI0
aI1
aI5
aI1
aI17
aI-5
aasS'name'
p348
VTim Duncan
p349
sS'weight'
p350
V250
p351
sS'age'
p352
I36
sS'experience'
p353
I15
sS'height'
p354
V6-11
p355
sS'position'
p356
VCenter-Forward
p357
s.