(dp0
S'age'
p1
I36
sS'stats'
p2
(lp3
(lp4
V0021200008
p5
aVOCT 31, 2012
p6
aVSAS @ NOH
p7
aVW
p8
aI34
aI10
aI15
aF0.667
aI0
aI0
aF0.0
aI4
aI5
aF0.8
aI2
aI9
aI11
aI3
aI0
aI3
aI5
aI3
aI24
aI13
aa(lp9
V0021200014
p10
aVNOV 01, 2012
p11
aVSAS vs. OKC
p12
aVW
p13
aI34
aI8
aI19
aF0.421
aI0
aI0
aF0.0
aI4
aI6
aF0.667
aI0
aI8
aI8
aI1
aI0
aI3
aI0
aI2
aI20
aI-5
aa(lp14
V0021200035
p15
aVNOV 03, 2012
p16
aVSAS vs. UTA
p17
aVW
p18
aI32
aI7
aI14
aF0.5
aI0
aI0
aF0.0
aI5
aI6
aF0.833
aI1
aI10
aI11
aI1
aI2
aI3
aI1
aI3
aI19
aI17
aa(lp19
V0021200047
p20
aVNOV 05, 2012
p21
aVSAS vs. IND
p22
aVW
p23
aI26
aI7
aI16
aF0.438
aI0
aI0
aF0.0
aI0
aI0
aF0.0
aI1
aI10
aI11
aI3
aI3
aI1
aI0
aI0
aI14
aI6
aa(lp24
V0021200064
p25
aVNOV 07, 2012
p26
aVSAS @ LAC
p27
aVL
p28
aI23
aI3
aI8
aF0.375
aI0
aI0
aF0.0
aI4
aI6
aF0.667
aI2
aI4
aI6
aI3
aI1
aI0
aI1
aI1
aI10
aI-13
aa(lp29
V0021200078
p30
aVNOV 09, 2012
p31
aVSAS @ SAC
p32
aVW
p33
aI31
aI9
aI12
aF0.75
aI0
aI0
aF0.0
aI5
aI6
aF0.833
aI0
aI12
aI12
aI4
aI3
aI5
aI2
aI2
aI23
aI4
aa(lp34
V0021200088
p35
aVNOV 10, 2012
p36
aVSAS @ POR
p37
aVW
p38
aI32
aI7
aI12
aF0.583
aI0
aI0
aF0.0
aI8
aI9
aF0.889
aI2
aI7
aI9
aI1
aI1
aI3
aI1
aI2
aI22
aI-12
aa(lp39
V0021200108
p40
aVNOV 13, 2012
p41
aVSAS @ LAL
p42
aVW
p43
aI37
aI9
aI19
aF0.474
aI0
aI0
aF0.0
aI0
aI2
aF0.0
aI1
aI8
aI9
aI4
aI0
aI4
aI0
aI4
aI18
aI9
aa(lp44
V0021200120
p45
aVNOV 15, 2012
p46
aVSAS vs. NYK
p47
aVL
p48
aI31
aI6
aI10
aF0.6
aI0
aI1
aF0.0
aI2
aI4
aF0.5
aI4
aI10
aI14
aI2
aI0
aI3
aI1
aI0
aI14
aI7
aa(lp49
V0021200137
p50
aVNOV 17, 2012
p51
aVSAS vs. DEN
p52
aVW
p53
aI23
aI4
aI8
aF0.5
aI1
aI1
aF1.0
aI5
aI6
aF0.833
aI0
aI5
aI5
aI3
aI1
aI3
aI2
aI1
aI14
aI23
aa(lp54
V0021200152
p55
aVNOV 19, 2012
p56
aVSAS vs. LAC
p57
aVL
p58
aI34
aI6
aI16
aF0.375
aI0
aI0
aF0.0
aI8
aI10
aF0.8
aI5
aI9
aI14
aI1
aI0
aI2
aI2
aI2
aI20
aI1
aa(lp59
V0021200161
p60
aVNOV 21, 2012
p61
aVSAS @ BOS
p62
aVW
p63
aI33
aI7
aI12
aF0.583
aI0
aI0
aF0.0
aI6
aI9
aF0.667
aI3
aI12
aI15
aI4
aI0
aI0
aI4
aI2
aI20
aI-3
aa(lp64
V0021200176
p65
aVNOV 23, 2012
p66
aVSAS @ IND
p67
aVW
p68
aI31
aI10
aI19
aF0.526
aI0
aI0
aF0.0
aI2
aI2
aF1.0
aI3
aI14
aI17
aI1
aI1
aI0
aI0
aI4
aI22
aI15
aa(lp69
V0021200191
p70
aVNOV 25, 2012
p71
aVSAS @ TOR
p72
aVW
p73
aI41
aI11
aI21
aF0.524
aI0
aI0
aF0.0
aI4
aI4
aF1.0
aI1
aI4
aI5
aI6
aI0
aI3
aI2
aI2
aI26
aI9
aa(lp74
V0021200197
p75
aVNOV 26, 2012
p76
aVSAS @ WAS
p77
aVW
p78
aI23
aI7
aI11
aF0.636
aI0
aI0
aF0.0
aI0
aI0
aF0.0
aI1
aI4
aI5
aI4
aI0
aI2
aI0
aI1
aI14
aI5
aa(lp79
V0021200210
p80
aVNOV 28, 2012
p81
aVSAS @ ORL
p82
aVW
p83
aI27
aI7
aI11
aF0.636
aI1
aI1
aF1.0
aI0
aI0
aF0.0
aI0
aI4
aI4
aI0
aI2
aI5
aI1
aI1
aI15
aI13
aa(lp84
V0021200239
p85
aVDEC 01, 2012
p86
aVSAS vs. MEM
p87
aVW
p88
aI41
aI11
aI17
aF0.647
aI0
aI0
aF0.0
aI5
aI5
aF1.0
aI6
aI9
aI15
aI4
aI1
aI1
aI4
aI3
aI27
aI0
aa(lp89
V0021200264
p90
aVDEC 05, 2012
p91
aVSAS vs. MIL
p92
aVW
p93
aI27
aI7
aI15
aF0.467
aI0
aI0
aF0.0
aI3
aI3
aF1.0
aI1
aI9
aI10
aI1
aI0
aI2
aI2
aI1
aI17
aI5
aa(lp94
V0021200278
p95
aVDEC 07, 2012
p96
aVSAS vs. HOU
p97
aVW
p98
aI23
aI6
aI13
aF0.462
aI0
aI0
aF0.0
aI0
aI0
aF0.0
aI2
aI10
aI12
aI3
aI0
aI2
aI1
aI1
aI12
aI12
aa(lp99
V0021200284
p100
aVDEC 08, 2012
p101
aVSAS @ CHA
p102
aVW
p103
aI24
aI5
aI9
aF0.556
aI0
aI0
aF0.0
aI1
aI2
aF0.5
aI0
aI2
aI2
aI2
aI1
aI3
aI2
aI1
aI11
aI13
aa(lp104
V0021200301
p105
aVDEC 10, 2012
p106
aVSAS @ HOU
p107
aVW
p108
aI32
aI1
aI9
aF0.111
aI0
aI0
aF0.0
aI8
aI8
aF1.0
aI2
aI11
aI13
aI3
aI0
aI3
aI1
aI4
aI10
aI17
aa(lp109
V0021200321
p110
aVDEC 12, 2012
p111
aVSAS @ UTA
p112
aVL
p113
aI33
aI8
aI17
aF0.471
aI0
aI1
aF0.0
aI6
aI9
aF0.667
aI3
aI18
aI21
aI1
aI1
aI6
aI1
aI1
aI22
aI-7
aa(lp114
V0021200324
p115
aVDEC 13, 2012
p116
aVSAS @ POR
p117
aVL
p118
aI30
aI6
aI13
aF0.462
aI0
aI0
aF0.0
aI4
aI4
aF1.0
aI2
aI4
aI6
aI1
aI2
aI2
aI3
aI1
aI16
aI0
aa(lp119
V0021200344
p120
aVDEC 15, 2012
p121
aVSAS vs. BOS
p122
aVW
p123
aI31
aI2
aI13
aF0.154
aI0
aI0
aF0.0
aI1
aI2
aF0.5
aI3
aI9
aI12
aI2
aI1
aI2
aI2
aI0
aI5
aI18
aa(lp124
V0021200354
p125
aVDEC 17, 2012
p126
aVSAS @ OKC
p127
aVL
p128
aI24
aI5
aI10
aF0.5
aI0
aI0
aF0.0
aI2
aI2
aF1.0
aI0
aI5
aI5
aI1
aI1
aI1
aI1
aI2
aI12
aI-15
aa(lp129
V0021200363
p130
aVDEC 18, 2012
p131
aVSAS @ DEN
p132
aVL
p133
aI40
aI11
aI25
aF0.44
aI0
aI0
aF0.0
aI9
aI10
aF0.9
aI4
aI14
aI18
aI6
aI2
aI5
aI2
aI3
aI31
aI0
aa(lp134
V0021200387
p135
aVDEC 21, 2012
p136
aVSAS vs. NOH
p137
aVW
p138
aI32
aI7
aI11
aF0.636
aI0
aI0
aF0.0
aI1
aI1
aF1.0
aI1
aI9
aI10
aI5
aI2
aI2
aI2
aI1
aI15
aI13
aa(lp139
V0021200402
p140
aVDEC 23, 2012
p141
aVSAS vs. DAL
p142
aVW
p143
aI23
aI7
aI15
aF0.467
aI0
aI0
aF0.0
aI1
aI2
aF0.5
aI0
aI5
aI5
aI4
aI1
aI2
aI1
aI1
aI15
aI25
aa(lp144
V0021200418
p145
aVDEC 26, 2012
p146
aVSAS vs. TOR
p147
aVW
p148
aI27
aI6
aI11
aF0.545
aI0
aI0
aF0.0
aI3
aI4
aF0.75
aI1
aI5
aI6
aI2
aI0
aI2
aI3
aI0
aI15
aI16
aa(lp149
V0021200432
p150
aVDEC 28, 2012
p151
aVSAS vs. HOU
p152
aVW
p153
aI34
aI13
aI20
aF0.65
aI0
aI0
aF0.0
aI4
aI4
aF1.0
aI0
aI5
aI5
aI0
aI1
aI2
aI4
aI2
aI30
aI3
aa(lp154
V0021200449
p155
aVDEC 30, 2012
p156
aVSAS @ DAL
p157
aVW
p158
aI29
aI7
aI14
aF0.5
aI0
aI0
aF0.0
aI4
aI4
aF1.0
aI2
aI8
aI10
aI2
aI0
aI3
aI1
aI2
aI18
aI24
aa(lp159
V0021200457
p160
aVDEC 31, 2012
p161
aVSAS vs. BKN
p162
aVW
p163
aI25
aI7
aI12
aF0.583
aI0
aI0
aF0.0
aI1
aI1
aF1.0
aI0
aI4
aI4
aI3
aI0
aI2
aI2
aI2
aI15
aI24
aa(lp164
V0021200470
p165
aVJAN 02, 2013
p166
aVSAS @ MIL
p167
aVW
p168
aI34
aI11
aI20
aF0.55
aI0
aI0
aF0.0
aI6
aI7
aF0.857
aI3
aI10
aI13
aI6
aI1
aI3
aI1
aI3
aI28
aI18
aa(lp169
V0021200476
p170
aVJAN 03, 2013
p171
aVSAS @ NYK
p172
aVL
p173
aI24
aI4
aI8
aF0.5
aI0
aI0
aF0.0
aI3
aI4
aF0.75
aI2
aI4
aI6
aI0
aI1
aI2
aI3
aI1
aI11
aI-2
aa(lp174
V0021200496
p175
aVJAN 05, 2013
p176
aVSAS vs. PHI
p177
aVW
p178
aI26
aI7
aI10
aF0.7
aI0
aI0
aF0.0
aI2
aI2
aF1.0
aI1
aI7
aI8
aI3
aI1
aI4
aI2
aI1
aI16
aI11
aa(lp179
V0021200507
p180
aVJAN 07, 2013
p181
aVSAS @ NOH
p182
aVL
p183
aI26
aI5
aI14
aF0.357
aI0
aI0
aF0.0
aI3
aI3
aF1.0
aI4
aI4
aI8
aI1
aI0
aI3
aI5
aI2
aI13
aI-13
aa(lp184
V0021200522
p185
aVJAN 09, 2013
p186
aVSAS vs. LAL
p187
aVW
p188
aI29
aI4
aI13
aF0.308
aI0
aI0
aF0.0
aI0
aI0
aF0.0
aI0
aI7
aI7
aI5
aI0
aI4
aI3
aI0
aI8
aI8
aa(lp189
V0021200535
p190
aVJAN 11, 2013
p191
aVSAS @ MEM
p192
aVL
p193
aI39
aI5
aI14
aF0.357
aI0
aI1
aF0.0
aI3
aI4
aF0.75
aI4
aI11
aI15
aI4
aI0
aI3
aI6
aI3
aI13
aI-12
aa(lp194
V0021200552
p195
aVJAN 13, 2013
p196
aVSAS vs. MIN
p197
aVW
p198
aI29
aI4
aI8
aF0.5
aI0
aI0
aF0.0
aI4
aI5
aF0.8
aI1
aI8
aI9
aI5
aI3
aI7
aI3
aI2
aI12
aI2
aa(lp199
V0021200576
p200
aVJAN 16, 2013
p201
aVSAS vs. MEM
p202
aVW
p203
aI31
aI9
aI17
aF0.529
aI0
aI0
aF0.0
aI1
aI1
aF1.0
aI1
aI7
aI8
aI4
aI0
aI5
aI1
aI3
aI19
aI18
aa(lp204
V0021200590
p205
aVJAN 18, 2013
p206
aVSAS vs. GSW
p207
aVW
p208
aI32
aI9
aI16
aF0.563
aI0
aI0
aF0.0
aI6
aI6
aF1.0
aI1
aI9
aI10
aI2
aI0
aI3
aI4
aI3
aI24
aI-1
aa(lp209
V0021200611
p210
aVJAN 21, 2013
p211
aVSAS @ PHI
p212
aVW
p213
aI34
aI10
aI17
aF0.588
aI0
aI0
aF0.0
aI4
aI4
aF1.0
aI4
aI13
aI17
aI5
aI2
aI1
aI2
aI2
aI24
aI17
aa(lp214
V0021200702
p215
aVFEB 02, 2013
p216
aVSAS vs. WAS
p217
aVW
p218
aI14
aI3
aI6
aF0.5
aI0
aI0
aF0.0
aI2
aI2
aF1.0
aI2
aI3
aI5
aI2
aI0
aI1
aI0
aI1
aI8
aI13
aa(lp219
V0021200776
p220
aVFEB 13, 2013
p221
aVSAS @ CLE
p222
aVW
p223
aI25
aI6
aI15
aF0.4
aI0
aI0
aF0.0
aI1
aI2
aF0.5
aI2
aI4
aI6
aI3
aI0
aI5
aI1
aI0
aI13
aI15
aa(lp224
V0021200796
p225
aVFEB 19, 2013
p226
aVSAS @ SAC
p227
aVW
p228
aI28
aI3
aI8
aF0.375
aI0
aI1
aF0.0
aI3
aI4
aF0.75
aI2
aI12
aI14
aI2
aI2
aI4
aI2
aI2
aI9
aI4
aa(lp229
V0021200810
p230
aVFEB 21, 2013
p231
aVSAS @ LAC
p232
aVW
p233
aI16
aI4
aI8
aF0.5
aI0
aI0
aF0.0
aI1
aI4
aF0.25
aI0
aI5
aI5
aI0
aI0
aI0
aI1
aI0
aI9
aI20
aa(lp234
V0021200822
p235
aVFEB 22, 2013
p236
aVSAS @ GSW
p237
aVL
p238
aI39
aI6
aI16
aF0.375
aI0
aI0
aF0.0
aI7
aI10
aF0.7
aI2
aI11
aI13
aI3
aI1
aI4
aI3
aI5
aI19
aI-1
aa(lp239
V0021200836
p240
aVFEB 24, 2013
p241
aVSAS @ PHX
p242
aVW
p243
aI28
aI5
aI12
aF0.417
aI0
aI0
aF0.0
aI0
aI0
aF0.0
aI2
aI6
aI8
aI3
aI0
aI0
aI3
aI3
aI10
aI1
aa(lp244
V0021200858
p245
aVFEB 27, 2013
p246
aVSAS vs. PHX
p247
aVL
p248
aI35
aI6
aI15
aF0.4
aI0
aI1
aF0.0
aI7
aI8
aF0.875
aI0
aI11
aI11
aI0
aI1
aI1
aI3
aI2
aI19
aI-9
aa(lp249
V0021200872
p250
aVMAR 01, 2013
p251
aVSAS vs. SAC
p252
aVW
p253
aI25
aI5
aI8
aF0.625
aI0
aI0
aF0.0
aI3
aI5
aF0.6
aI1
aI9
aI10
aI3
aI3
aI3
aI2
aI2
aI13
aI25
aa(lp254
V0021200886
p255
aVMAR 03, 2013
p256
aVSAS vs. DET
p257
aVW
p258
aI26
aI7
aI14
aF0.5
aI0
aI0
aF0.0
aI2
aI2
aF1.0
aI4
aI7
aI11
aI6
aI0
aI5
aI0
aI2
aI16
aI24
aa(lp259
V0021200909
p260
aVMAR 06, 2013
p261
aVSAS vs. CHI
p262
aVW
p263
aI33
aI7
aI13
aF0.538
aI0
aI0
aF0.0
aI4
aI6
aF0.667
aI2
aI8
aI10
aI1
aI1
aI5
aI2
aI0
aI18
aI3
aa(lp264
V0021200923
p265
aVMAR 08, 2013
p266
aVSAS vs. POR
p267
aVL
p268
aI23
aI8
aI14
aF0.571
aI0
aI0
aF0.0
aI2
aI2
aF1.0
aI2
aI6
aI8
aI3
aI0
aI0
aI3
aI3
aI18
aI-13
aa(lp269
V0021200944
p270
aVMAR 11, 2013
p271
aVSAS vs. OKC
p272
aVW
p273
aI35
aI6
aI14
aF0.429
aI0
aI0
aF0.0
aI1
aI1
aF1.0
aI2
aI6
aI8
aI1
aI0
aI0
aI1
aI1
aI13
aI-2
aa(lp274
V0021200967
p275
aVMAR 14, 2013
p276
aVSAS vs. DAL
p277
aVW
p278
aI36
aI12
aI20
aF0.6
aI0
aI0
aF0.0
aI4
aI5
aF0.8
aI5
aI14
aI19
aI2
aI0
aI1
aI2
aI1
aI28
aI10
aa(lp279
V0021200982
p280
aVMAR 16, 2013
p281
aVSAS vs. CLE
p282
aVW
p283
aI35
aI13
aI19
aF0.684
aI0
aI0
aF0.0
aI4
aI4
aF1.0
aI2
aI10
aI12
aI4
aI0
aI5
aI5
aI2
aI30
aI21
aa(lp284
V0021201016
p285
aVMAR 20, 2013
p286
aVSAS vs. GSW
p287
aVW
p288
aI31
aI11
aI17
aF0.647
aI0
aI0
aF0.0
aI3
aI3
aF1.0
aI2
aI11
aI13
aI6
aI1
aI4
aI3
aI0
aI25
aI6
aa(lp289
V0021201030
p290
aVMAR 22, 2013
p291
aVSAS vs. UTA
p292
aVW
p293
aI37
aI4
aI13
aF0.308
aI0
aI0
aF0.0
aI11
aI13
aF0.846
aI1
aI15
aI16
aI5
aI0
aI2
aI2
aI2
aI19
aI20
aa(lp294
V0021201042
p295
aVMAR 24, 2013
p296
aVSAS @ HOU
p297
aVL
p298
aI35
aI7
aI18
aF0.389
aI0
aI0
aF0.0
aI3
aI5
aF0.6
aI1
aI6
aI7
aI2
aI1
aI2
aI5
aI2
aI17
aI-3
aa(lp299
V0021201067
p300
aVMAR 27, 2013
p301
aVSAS vs. DEN
p302
aVW
p303
aI36
aI9
aI18
aF0.5
aI0
aI0
aF0.0
aI5
aI6
aF0.833
aI5
aI9
aI14
aI0
aI1
aI5
aI3
aI3
aI23
aI14
aa(lp304
V0021201082
p305
aVMAR 29, 2013
p306
aVSAS vs. LAC
p307
aVW
p308
aI32
aI12
aI19
aF0.632
aI0
aI0
aF0.0
aI10
aI10
aF1.0
aI3
aI8
aI11
aI3
aI0
aI2
aI3
aI3
aI34
aI8
aa(lp309
V0021201098
p310
aVMAR 31, 2013
p311
aVSAS vs. MIA
p312
aVL
p313
aI35
aI8
aI15
aF0.533
aI0
aI0
aF0.0
aI1
aI3
aF0.333
aI3
aI9
aI12
aI4
aI1
aI2
aI2
aI0
aI17
aI-3
aa(lp314
V0021201117
p315
aVAPR 03, 2013
p316
aVSAS vs. ORL
p317
aVW
p318
aI14
aI2
aI5
aF0.4
aI0
aI0
aF0.0
aI1
aI2
aF0.5
aI0
aI4
aI4
aI0
aI0
aI0
aI2
aI0
aI5
aI0
aa(lp319
V0021201125
p320
aVAPR 04, 2013
p321
aVSAS @ OKC
p322
aVL
p323
aI35
aI9
aI19
aF0.474
aI0
aI0
aF0.0
aI6
aI6
aF1.0
aI2
aI9
aI11
aI1
aI0
aI3
aI1
aI1
aI24
aI2
aa(lp324
V0021201143
p325
aVAPR 06, 2013
p326
aVSAS vs. ATL
p327
aVW
p328
aI33
aI12
aI21
aF0.571
aI0
aI0
aF0.0
aI7
aI8
aF0.875
aI0
aI14
aI14
aI3
aI0
aI4
aI3
aI2
aI31
aI15
aa(lp329
V0021201172
p330
aVAPR 10, 2013
p331
aVSAS @ DEN
p332
aVL
p333
aI27
aI7
aI14
aF0.5
aI0
aI0
aF0.0
aI3
aI4
aF0.75
aI0
aI3
aI3
aI2
aI0
aI1
aI1
aI0
aI17
aI4
aa(lp334
V0021201186
p335
aVAPR 12, 2013
p336
aVSAS vs. SAC
p337
aVW
p338
aI34
aI7
aI18
aF0.389
aI0
aI0
aF0.0
aI4
aI5
aF0.8
aI0
aI6
aI6
aI2
aI2
aI5
aI3
aI1
aI18
aI8
aa(lp339
V0021201201
p340
aVAPR 14, 2013
p341
aVSAS @ LAL
p342
aVL
p343
aI34
aI11
aI22
aF0.5
aI0
aI0
aF0.0
aI1
aI1
aF1.0
aI3
aI7
aI10
aI4
aI1
aI3
aI2
aI3
aI23
aI-3
aa(lp344
V0021201225
p345
aVAPR 17, 2013
p346
aVSAS vs. MIN
p347
aVL
p348
aI27
aI5
aI11
aF0.455
aI0
aI0
aF0.0
aI7
aI7
aF1.0
aI2
aI12
aI14
aI3
aI0
aI1
aI5
aI1
aI17
aI-5
aasS'name'
p349
VTim Duncan
p350
sS'experience'
p351
I15
s.