(dp0
S'age'
p1
I31
sS'stats'
p2
(lp3
(lp4
V0021200023
p5
aVNOV 02, 2012
p6
aVMIN vs. SAC
p7
aVW
p8
aI31
aI4
aI7
aF0.571
aI0
aI0
aF0.0
aI2
aI3
aF0.667
aI2
aI5
aI7
aI5
aI0
aI1
aI2
aI0
aI10
aI7
aa(lp9
V0021200038
p10
aVNOV 04, 2012
p11
aVMIN @ TOR
p12
aVL
p13
aI29
aI6
aI7
aF0.857
aI1
aI1
aF1.0
aI4
aI5
aF0.8
aI1
aI5
aI6
aI3
aI1
aI3
aI2
aI1
aI17
aI-10
aa(lp14
V0021200043
p15
aVNOV 05, 2012
p16
aVMIN @ BKN
p17
aVW
p18
aI33
aI7
aI11
aF0.636
aI1
aI2
aF0.5
aI1
aI2
aF0.5
aI3
aI7
aI10
aI6
aI1
aI4
aI2
aI0
aI16
aI4
aa(lp19
V0021200060
p20
aVNOV 07, 2012
p21
aVMIN vs. ORL
p22
aVW
p23
aI31
aI3
aI5
aF0.6
aI0
aI1
aF0.0
aI1
aI2
aF0.5
aI2
aI3
aI5
aI0
aI3
aI2
aI3
aI1
aI7
aI19
aa(lp24
V0021200076
p25
aVNOV 09, 2012
p26
aVMIN vs. IND
p27
aVW
p28
aI33
aI2
aI5
aF0.4
aI0
aI0
aF0.0
aI2
aI3
aF0.667
aI1
aI5
aI6
aI4
aI3
aI1
aI2
aI0
aI6
aI0
aa(lp29
V0021200084
p30
aVNOV 10, 2012
p31
aVMIN @ CHI
p32
aVL
p33
aI42
aI3
aI9
aF0.333
aI0
aI3
aF0.0
aI5
aI6
aF0.833
aI4
aI8
aI12
aI6
aI2
aI1
aI3
aI1
aI11
aI-8
aa(lp34
V0021200100
p35
aVNOV 12, 2012
p36
aVMIN @ DAL
p37
aVW
p38
aI44
aI7
aI12
aF0.583
aI1
aI2
aF0.5
aI1
aI2
aF0.5
aI2
aI9
aI11
aI2
aI2
aI2
aI4
aI2
aI16
aI12
aa(lp39
V0021200114
p40
aVNOV 14, 2012
p41
aVMIN vs. CHA
p42
aVL
p43
aI44
aI9
aI12
aF0.75
aI3
aI3
aF1.0
aI5
aI9
aF0.556
aI3
aI9
aI12
aI2
aI1
aI2
aI5
aI1
aI26
aI8
aa(lp44
V0021200126
p45
aVNOV 16, 2012
p46
aVMIN vs. GSW
p47
aVL
p48
aI39
aI5
aI9
aF0.556
aI2
aI3
aF0.667
aI6
aI8
aF0.75
aI3
aI3
aI6
aI0
aI0
aI4
aI3
aI2
aI18
aI-12
aa(lp49
V0021200166
p50
aVNOV 21, 2012
p51
aVMIN vs. DEN
p52
aVL
p53
aI35
aI2
aI7
aF0.286
aI0
aI1
aF0.0
aI3
aI4
aF0.75
aI3
aI5
aI8
aI2
aI3
aI1
aI2
aI2
aI7
aI-1
aa(lp54
V0021200182
p55
aVNOV 23, 2012
p56
aVMIN @ POR
p57
aVL
p58
aI36
aI3
aI9
aF0.333
aI1
aI2
aF0.5
aI3
aI4
aF0.75
aI2
aI4
aI6
aI5
aI1
aI0
aI1
aI2
aI10
aI0
aa(lp59
V0021200190
p60
aVNOV 24, 2012
p61
aVMIN @ GSW
p62
aVL
p63
aI35
aI4
aI13
aF0.308
aI0
aI5
aF0.0
aI3
aI4
aF0.75
aI1
aI5
aI6
aI3
aI3
aI0
aI1
aI1
aI11
aI-7
aa(lp64
V0021200207
p65
aVNOV 27, 2012
p66
aVMIN @ SAC
p67
aVW
p68
aI41
aI5
aI12
aF0.417
aI0
aI1
aF0.0
aI4
aI4
aF1.0
aI1
aI5
aI6
aI5
aI0
aI3
aI4
aI2
aI14
aI8
aa(lp69
V0021200276
p70
aVDEC 07, 2012
p71
aVMIN vs. CLE
p72
aVW
p73
aI31
aI4
aI5
aF0.8
aI0
aI1
aF0.0
aI0
aI0
aF0.0
aI3
aI4
aI7
aI6
aI4
aI3
aI3
aI1
aI8
aI23
aa(lp74
V0021200319
p75
aVDEC 12, 2012
p76
aVMIN vs. DEN
p77
aVW
p78
aI35
aI6
aI12
aF0.5
aI0
aI2
aF0.0
aI6
aI6
aF1.0
aI1
aI3
aI4
aI2
aI4
aI1
aI3
aI3
aI18
aI-5
aa(lp79
V0021200331
p80
aVDEC 14, 2012
p81
aVMIN @ NOH
p82
aVW
p83
aI39
aI10
aI16
aF0.625
aI0
aI2
aF0.0
aI1
aI1
aF1.0
aI2
aI9
aI11
aI2
aI1
aI1
aI1
aI0
aI21
aI13
aa(lp84
V0021200342
p85
aVDEC 15, 2012
p86
aVMIN vs. DAL
p87
aVW
p88
aI41
aI4
aI10
aF0.4
aI0
aI3
aF0.0
aI6
aI7
aF0.857
aI3
aI7
aI10
aI3
aI2
aI2
aI2
aI1
aI14
aI0
aa(lp89
V0021200350
p90
aVDEC 17, 2012
p91
aVMIN @ ORL
p92
aVL
p93
aI35
aI5
aI13
aF0.385
aI0
aI3
aF0.0
aI3
aI4
aF0.75
aI2
aI2
aI4
aI6
aI2
aI0
aI2
aI1
aI13
aI-6
aa(lp94
V0021200359
p95
aVDEC 18, 2012
p96
aVMIN @ MIA
p97
aVL
p98
aI30
aI10
aI16
aF0.625
aI2
aI3
aF0.667
aI0
aI0
aF0.0
aI1
aI3
aI4
aI2
aI1
aI0
aI0
aI0
aI22
aI-7
aa(lp99
V0021200377
p100
aVDEC 20, 2012
p101
aVMIN vs. OKC
p102
aVW
p103
aI40
aI3
aI10
aF0.3
aI0
aI1
aF0.0
aI3
aI4
aF0.75
aI3
aI1
aI4
aI2
aI0
aI0
aI5
aI6
aI9
aI9
aa(lp104
V0021200400
p105
aVDEC 23, 2012
p106
aVMIN @ NYK
p107
aVL
p108
aI20
aI2
aI6
aF0.333
aI0
aI1
aF0.0
aI0
aI0
aF0.0
aI1
aI2
aI3
aI2
aI2
aI0
aI1
aI6
aI4
aI-2
aa(lp109
V0021200417
p110
aVDEC 26, 2012
p111
aVMIN vs. HOU
p112
aVL
p113
aI29
aI2
aI6
aF0.333
aI0
aI1
aF0.0
aI4
aI6
aF0.667
aI2
aI3
aI5
aI1
aI2
aI1
aI2
aI0
aI8
aI-2
aa(lp114
V0021200444
p115
aVDEC 29, 2012
p116
aVMIN vs. PHX
p117
aVW
p118
aI34
aI10
aI13
aF0.769
aI0
aI0
aF0.0
aI0
aI0
aF0.0
aI2
aI3
aI5
aI4
aI0
aI0
aI1
aI2
aI20
aI9
aa(lp119
V0021200473
p120
aVJAN 02, 2013
p121
aVMIN @ UTA
p122
aVL
p123
aI30
aI4
aI7
aF0.571
aI0
aI1
aF0.0
aI4
aI4
aF1.0
aI3
aI4
aI7
aI2
aI0
aI2
aI0
aI1
aI12
aI-2
aa(lp124
V0021200477
p125
aVJAN 03, 2013
p126
aVMIN @ DEN
p127
aVW
p128
aI33
aI4
aI9
aF0.444
aI1
aI2
aF0.5
aI5
aI8
aF0.625
aI0
aI4
aI4
aI3
aI0
aI3
aI1
aI1
aI14
aI-1
aa(lp129
V0021200494
p130
aVJAN 05, 2013
p131
aVMIN vs. POR
p132
aVL
p133
aI42
aI7
aI13
aF0.538
aI1
aI1
aF1.0
aI0
aI0
aF0.0
aI3
aI4
aI7
aI2
aI1
aI0
aI2
aI0
aI15
aI4
aa(lp134
V0021200515
p135
aVJAN 08, 2013
p136
aVMIN vs. ATL
p137
aVW
p138
aI34
aI7
aI11
aF0.636
aI2
aI2
aF1.0
aI5
aI5
aF1.0
aI1
aI5
aI6
aI5
aI0
aI0
aI0
aI0
aI21
aI7
aa(lp139
V0021200523
p140
aVJAN 09, 2013
p141
aVMIN @ OKC
p142
aVL
p143
aI30
aI3
aI9
aF0.333
aI1
aI4
aF0.25
aI3
aI4
aF0.75
aI2
aI3
aI5
aI4
aI0
aI2
aI3
aI2
aI10
aI-2
aa(lp144
V0021200536
p145
aVJAN 11, 2013
p146
aVMIN @ NOH
p147
aVL
p148
aI37
aI4
aI8
aF0.5
aI1
aI4
aF0.25
aI8
aI10
aF0.8
aI0
aI5
aI5
aI2
aI2
aI1
aI3
aI1
aI17
aI-9
aa(lp149
V0021200552
p150
aVJAN 13, 2013
p151
aVMIN @ SAS
p152
aVL
p153
aI33
aI4
aI8
aF0.5
aI1
aI2
aF0.5
aI0
aI0
aF0.0
aI4
aI7
aI11
aI2
aI3
aI1
aI0
aI1
aI9
aI-13
aa(lp154
V0021200560
p155
aVJAN 14, 2013
p156
aVMIN @ DAL
p157
aVL
p158
aI32
aI3
aI9
aF0.333
aI0
aI3
aF0.0
aI4
aI4
aF1.0
aI6
aI3
aI9
aI3
aI1
aI1
aI1
aI0
aI10
aI-22
aa(lp159
V0021200581
p160
aVJAN 17, 2013
p161
aVMIN vs. LAC
p162
aVL
p163
aI36
aI7
aI12
aF0.583
aI1
aI5
aF0.2
aI0
aI2
aF0.0
aI1
aI4
aI5
aI2
aI4
aI0
aI3
aI2
aI15
aI-7
aa(lp164
V0021200597
p165
aVJAN 19, 2013
p166
aVMIN vs. HOU
p167
aVW
p168
aI42
aI8
aI11
aF0.727
aI0
aI2
aF0.0
aI5
aI8
aF0.625
aI5
aI6
aI11
aI2
aI3
aI0
aI3
aI0
aI21
aI19
aa(lp169
V0021200608
p170
aVJAN 21, 2013
p171
aVMIN @ ATL
p172
aVL
p173
aI35
aI3
aI8
aF0.375
aI1
aI3
aF0.333
aI6
aI6
aF1.0
aI2
aI4
aI6
aI5
aI2
aI0
aI6
aI1
aI13
aI-6
aa(lp174
V0021200623
p175
aVJAN 23, 2013
p176
aVMIN vs. BKN
p177
aVL
p178
aI41
aI6
aI10
aF0.6
aI1
aI3
aF0.333
aI2
aI3
aF0.667
aI1
aI5
aI6
aI4
aI1
aI0
aI2
aI1
aI15
aI-8
aa(lp179
V0021200632
p180
aVJAN 25, 2013
p181
aVMIN @ WAS
p182
aVL
p183
aI29
aI5
aI9
aF0.556
aI1
aI3
aF0.333
aI6
aI8
aF0.75
aI2
aI2
aI4
aI2
aI0
aI1
aI3
aI3
aI17
aI-13
aa(lp184
V0021200645
p185
aVJAN 26, 2013
p186
aVMIN @ CHA
p187
aVL
p188
aI33
aI2
aI6
aF0.333
aI0
aI1
aF0.0
aI6
aI6
aF1.0
aI1
aI2
aI3
aI2
aI2
aI1
aI1
aI4
aI10
aI-7
aa(lp189
V0021200677
p190
aVJAN 30, 2013
p191
aVMIN vs. LAC
p192
aVL
p193
aI32
aI3
aI10
aF0.3
aI1
aI4
aF0.25
aI7
aI8
aF0.875
aI0
aI4
aI4
aI4
aI2
aI1
aI1
aI0
aI14
aI-10
aa(lp194
V0021200695
p195
aVFEB 01, 2013
p196
aVMIN vs. LAL
p197
aVL
p198
aI32
aI5
aI8
aF0.625
aI1
aI2
aF0.5
aI1
aI2
aF0.5
aI0
aI0
aI0
aI3
aI1
aI1
aI0
aI1
aI12
aI1
aa(lp199
V0021200700
p200
aVFEB 02, 2013
p201
aVMIN vs. NOH
p202
aVW
p203
aI27
aI4
aI7
aF0.571
aI1
aI2
aF0.5
aI3
aI6
aF0.5
aI1
aI5
aI6
aI3
aI2
aI0
aI3
aI1
aI12
aI15
aa(lp204
V0021200713
p205
aVFEB 04, 2013
p206
aVMIN vs. POR
p207
aVL
p208
aI14
aI1
aI4
aF0.25
aI0
aI0
aF0.0
aI0
aI0
aF0.0
aI0
aI0
aI0
aI0
aI1
aI0
aI1
aI1
aI2
aI-9
aa(lp209
V0021200805
p210
aVFEB 20, 2013
p211
aVMIN vs. PHI
p212
aVW
p213
aI37
aI4
aI8
aF0.5
aI1
aI1
aF1.0
aI6
aI6
aF1.0
aI0
aI5
aI5
aI5
aI2
aI3
aI2
aI4
aI15
aI0
aa(lp214
V0021200819
p215
aVFEB 22, 2013
p216
aVMIN @ OKC
p217
aVL
p218
aI24
aI5
aI9
aF0.556
aI2
aI3
aF0.667
aI3
aI4
aF0.75
aI2
aI1
aI3
aI0
aI1
aI0
aI1
aI2
aI15
aI-20
aa(lp219
V0021200832
p220
aVFEB 24, 2013
p221
aVMIN vs. GSW
p222
aVL
p223
aI41
aI5
aI10
aF0.5
aI0
aI2
aF0.0
aI4
aI5
aF0.8
aI1
aI4
aI5
aI3
aI3
aI0
aI1
aI2
aI14
aI2
aa(lp224
V0021200849
p225
aVFEB 26, 2013
p226
aVMIN @ PHX
p227
aVL
p228
aI10
aI0
aI0
aF0.0
aI0
aI0
aF0.0
aI0
aI0
aF0.0
aI0
aI2
aI2
aI1
aI1
aI0
aI1
aI1
aI0
aI-2
aa(lp229
V0021200989
p230
aVMAR 17, 2013
p231
aVMIN vs. NOH
p232
aVW
p233
aI25
aI3
aI6
aF0.5
aI0
aI2
aF0.0
aI2
aI3
aF0.667
aI0
aI5
aI5
aI1
aI1
aI2
aI3
aI0
aI8
aI-11
aa(lp234
V0021201000
p235
aVMAR 18, 2013
p236
aVMIN @ MEM
p237
aVL
p238
aI16
aI4
aI6
aF0.667
aI0
aI1
aF0.0
aI0
aI1
aF0.0
aI0
aI1
aI1
aI0
aI0
aI0
aI1
aI0
aI8
aI-12
aa(lp239
V0021201021
p240
aVMAR 21, 2013
p241
aVMIN @ SAC
p242
aVL
p243
aI27
aI3
aI9
aF0.333
aI0
aI2
aF0.0
aI0
aI0
aF0.0
aI1
aI3
aI4
aI3
aI0
aI0
aI1
aI4
aI6
aI-3
aa(lp244
V0021201031
p245
aVMAR 22, 2013
p246
aVMIN @ PHX
p247
aVW
p248
aI25
aI6
aI10
aF0.6
aI0
aI2
aF0.0
aI8
aI10
aF0.8
aI1
aI6
aI7
aI1
aI0
aI1
aI1
aI1
aI20
aI12
aa(lp249
V0021201044
p250
aVMAR 24, 2013
p251
aVMIN vs. CHI
p252
aVL
p253
aI26
aI2
aI6
aF0.333
aI0
aI0
aF0.0
aI0
aI0
aF0.0
aI1
aI2
aI3
aI1
aI1
aI0
aI3
aI0
aI4
aI-3
aa(lp254
V0021201055
p255
aVMAR 26, 2013
p256
aVMIN @ DET
p257
aVW
p258
aI24
aI4
aI9
aF0.444
aI1
aI2
aF0.5
aI0
aI0
aF0.0
aI0
aI1
aI1
aI2
aI1
aI0
aI0
aI0
aI9
aI23
aa(lp259
V0021201066
p260
aVMAR 27, 2013
p261
aVMIN vs. LAL
p262
aVL
p263
aI27
aI3
aI8
aF0.375
aI0
aI1
aF0.0
aI5
aI7
aF0.714
aI0
aI2
aI2
aI3
aI3
aI0
aI1
aI1
aI11
aI-10
aa(lp264
V0021201081
p265
aVMAR 29, 2013
p266
aVMIN vs. OKC
p267
aVW
p268
aI32
aI5
aI11
aF0.455
aI1
aI3
aF0.333
aI1
aI2
aF0.5
aI3
aI1
aI4
aI3
aI2
aI1
aI1
aI2
aI12
aI1
aa(lp269
V0021201089
p270
aVMAR 30, 2013
p271
aVMIN vs. MEM
p272
aVL
p273
aI28
aI1
aI3
aF0.333
aI0
aI1
aF0.0
aI3
aI6
aF0.5
aI0
aI4
aI4
aI1
aI0
aI0
aI2
aI1
aI5
aI2
aa(lp274
V0021201105
p275
aVAPR 01, 2013
p276
aVMIN vs. BOS
p277
aVW
p278
aI27
aI6
aI7
aF0.857
aI1
aI1
aF1.0
aI4
aI4
aF1.0
aI2
aI7
aI9
aI5
aI2
aI0
aI2
aI2
aI17
aI2
aa(lp279
V0021201116
p280
aVAPR 03, 2013
p281
aVMIN @ MIL
p282
aVW
p283
aI34
aI5
aI9
aF0.556
aI1
aI1
aF1.0
aI1
aI4
aF0.25
aI1
aI3
aI4
aI4
aI0
aI0
aI1
aI0
aI12
aI15
aa(lp284
V0021201132
p285
aVAPR 05, 2013
p286
aVMIN vs. TOR
p287
aVL
p288
aI35
aI8
aI10
aF0.8
aI1
aI3
aF0.333
aI3
aI6
aF0.5
aI0
aI6
aI6
aI1
aI3
aI1
aI1
aI1
aI20
aI2
aa(lp289
V0021201141
p290
aVAPR 06, 2013
p291
aVMIN vs. DET
p292
aVW
p293
aI43
aI4
aI10
aF0.4
aI1
aI2
aF0.5
aI4
aI4
aF1.0
aI2
aI4
aI6
aI3
aI7
aI2
aI2
aI0
aI13
aI8
aa(lp294
V0021201163
p295
aVAPR 09, 2013
p296
aVMIN @ GSW
p297
aVL
p298
aI21
aI4
aI7
aF0.571
aI1
aI1
aF1.0
aI6
aI6
aF1.0
aI0
aI4
aI4
aI2
aI0
aI2
aI1
aI2
aI15
aI-17
aa(lp299
V0021201173
p300
aVAPR 10, 2013
p301
aVMIN @ LAC
p302
aVL
p303
aI30
aI3
aI10
aF0.3
aI0
aI2
aF0.0
aI2
aI4
aF0.5
aI3
aI4
aI7
aI3
aI1
aI2
aI1
aI1
aI8
aI-9
aa(lp304
V0021201187
p305
aVAPR 12, 2013
p306
aVMIN @ UTA
p307
aVL
p308
aI24
aI3
aI6
aF0.5
aI0
aI1
aF0.0
aI2
aI2
aF1.0
aI1
aI2
aI3
aI3
aI0
aI0
aI0
aI2
aI8
aI-6
aa(lp309
V0021201193
p310
aVAPR 13, 2013
p311
aVMIN vs. PHX
p312
aVW
p313
aI38
aI6
aI9
aF0.667
aI0
aI2
aF0.0
aI2
aI3
aF0.667
aI0
aI7
aI7
aI1
aI2
aI1
aI4
aI0
aI14
aI5
aa(lp314
V0021201210
p315
aVAPR 15, 2013
p316
aVMIN vs. UTA
p317
aVL
p318
aI23
aI2
aI7
aF0.286
aI0
aI2
aF0.0
aI3
aI4
aF0.75
aI1
aI6
aI7
aI4
aI1
aI1
aI2
aI1
aI7
aI-9
aa(lp319
V0021201225
p320
aVAPR 17, 2013
p321
aVMIN @ SAS
p322
aVW
p323
aI20
aI2
aI6
aF0.333
aI0
aI0
aF0.0
aI1
aI1
aF1.0
aI3
aI3
aI6
aI4
aI2
aI0
aI0
aI0
aI5
aI13
aasS'name'
p324
VAndrei Kirilenko
p325
sS'experience'
p326
I11
s.