(dp0
S'stats'
p1
(lp2
(lp3
V0021201225
p4
aVAPR 17, 2013
p5
aVMIN @ SAS
p6
aVW
p7
aI20
aI2
aI6
aF0.333
aI0
aI0
aF0.0
aI1
aI1
aF1.0
aI3
aI3
aI6
aI4
aI2
aI0
aI0
aI0
aI5
aI13
aI1
aa(lp8
V0021201210
p9
aVAPR 15, 2013
p10
aVMIN vs. UTA
p11
aVL
p12
aI23
aI2
aI7
aF0.286
aI0
aI2
aF0.0
aI3
aI4
aF0.75
aI1
aI6
aI7
aI4
aI1
aI1
aI2
aI1
aI7
aI-9
aI1
aa(lp13
V0021201193
p14
aVAPR 13, 2013
p15
aVMIN vs. PHX
p16
aVW
p17
aI38
aI6
aI9
aF0.667
aI0
aI2
aF0.0
aI2
aI3
aF0.667
aI0
aI7
aI7
aI1
aI2
aI1
aI4
aI0
aI14
aI5
aI1
aa(lp18
V0021201187
p19
aVAPR 12, 2013
p20
aVMIN @ UTA
p21
aVL
p22
aI24
aI3
aI6
aF0.5
aI0
aI1
aF0.0
aI2
aI2
aF1.0
aI1
aI2
aI3
aI3
aI0
aI0
aI0
aI2
aI8
aI-6
aI1
aa(lp23
V0021201173
p24
aVAPR 10, 2013
p25
aVMIN @ LAC
p26
aVL
p27
aI30
aI3
aI10
aF0.3
aI0
aI2
aF0.0
aI2
aI4
aF0.5
aI3
aI4
aI7
aI3
aI1
aI2
aI1
aI1
aI8
aI-9
aI1
aa(lp28
V0021201163
p29
aVAPR 09, 2013
p30
aVMIN @ GSW
p31
aVL
p32
aI21
aI4
aI7
aF0.571
aI1
aI1
aF1.0
aI6
aI6
aF1.0
aI0
aI4
aI4
aI2
aI0
aI2
aI1
aI2
aI15
aI-17
aI1
aa(lp33
V0021201141
p34
aVAPR 06, 2013
p35
aVMIN vs. DET
p36
aVW
p37
aI43
aI4
aI10
aF0.4
aI1
aI2
aF0.5
aI4
aI4
aF1.0
aI2
aI4
aI6
aI3
aI7
aI2
aI2
aI0
aI13
aI8
aI1
aa(lp38
V0021201132
p39
aVAPR 05, 2013
p40
aVMIN vs. TOR
p41
aVL
p42
aI35
aI8
aI10
aF0.8
aI1
aI3
aF0.333
aI3
aI6
aF0.5
aI0
aI6
aI6
aI1
aI3
aI1
aI1
aI1
aI20
aI2
aI1
aa(lp43
V0021201116
p44
aVAPR 03, 2013
p45
aVMIN @ MIL
p46
aVW
p47
aI34
aI5
aI9
aF0.556
aI1
aI1
aF1.0
aI1
aI4
aF0.25
aI1
aI3
aI4
aI4
aI0
aI0
aI1
aI0
aI12
aI15
aI1
aa(lp48
V0021201105
p49
aVAPR 01, 2013
p50
aVMIN vs. BOS
p51
aVW
p52
aI27
aI6
aI7
aF0.857
aI1
aI1
aF1.0
aI4
aI4
aF1.0
aI2
aI7
aI9
aI5
aI2
aI0
aI2
aI2
aI17
aI2
aI0
aa(lp53
V0021201089
p54
aVMAR 30, 2013
p55
aVMIN vs. MEM
p56
aVL
p57
aI28
aI1
aI3
aF0.333
aI0
aI1
aF0.0
aI3
aI6
aF0.5
aI0
aI4
aI4
aI1
aI0
aI0
aI2
aI1
aI5
aI2
aI1
aa(lp58
V0021201081
p59
aVMAR 29, 2013
p60
aVMIN vs. OKC
p61
aVW
p62
aI32
aI5
aI11
aF0.455
aI1
aI3
aF0.333
aI1
aI2
aF0.5
aI3
aI1
aI4
aI3
aI2
aI1
aI1
aI2
aI12
aI1
aI1
aa(lp63
V0021201066
p64
aVMAR 27, 2013
p65
aVMIN vs. LAL
p66
aVL
p67
aI27
aI3
aI8
aF0.375
aI0
aI1
aF0.0
aI5
aI7
aF0.714
aI0
aI2
aI2
aI3
aI3
aI0
aI1
aI1
aI11
aI-10
aI1
aa(lp68
V0021201055
p69
aVMAR 26, 2013
p70
aVMIN @ DET
p71
aVW
p72
aI24
aI4
aI9
aF0.444
aI1
aI2
aF0.5
aI0
aI0
aF0.0
aI0
aI1
aI1
aI2
aI1
aI0
aI0
aI0
aI9
aI23
aI1
aa(lp73
V0021201044
p74
aVMAR 24, 2013
p75
aVMIN vs. CHI
p76
aVL
p77
aI26
aI2
aI6
aF0.333
aI0
aI0
aF0.0
aI0
aI0
aF0.0
aI1
aI2
aI3
aI1
aI1
aI0
aI3
aI0
aI4
aI-3
aI1
aa(lp78
V0021201031
p79
aVMAR 22, 2013
p80
aVMIN @ PHX
p81
aVW
p82
aI25
aI6
aI10
aF0.6
aI0
aI2
aF0.0
aI8
aI10
aF0.8
aI1
aI6
aI7
aI1
aI0
aI1
aI1
aI1
aI20
aI12
aI1
aa(lp83
V0021201021
p84
aVMAR 21, 2013
p85
aVMIN @ SAC
p86
aVL
p87
aI27
aI3
aI9
aF0.333
aI0
aI2
aF0.0
aI0
aI0
aF0.0
aI1
aI3
aI4
aI3
aI0
aI0
aI1
aI4
aI6
aI-3
aI1
aa(lp88
V0021201000
p89
aVMAR 18, 2013
p90
aVMIN @ MEM
p91
aVL
p92
aI16
aI4
aI6
aF0.667
aI0
aI1
aF0.0
aI0
aI1
aF0.0
aI0
aI1
aI1
aI0
aI0
aI0
aI1
aI0
aI8
aI-12
aI1
aa(lp93
V0021200989
p94
aVMAR 17, 2013
p95
aVMIN vs. NOH
p96
aVW
p97
aI25
aI3
aI6
aF0.5
aI0
aI2
aF0.0
aI2
aI3
aF0.667
aI0
aI5
aI5
aI1
aI1
aI2
aI3
aI0
aI8
aI-11
aI1
aa(lp98
V0021200849
p99
aVFEB 26, 2013
p100
aVMIN @ PHX
p101
aVL
p102
aI10
aI0
aI0
aF0.0
aI0
aI0
aF0.0
aI0
aI0
aF0.0
aI0
aI2
aI2
aI1
aI1
aI0
aI1
aI1
aI0
aI-2
aI1
aa(lp103
V0021200832
p104
aVFEB 24, 2013
p105
aVMIN vs. GSW
p106
aVL
p107
aI41
aI5
aI10
aF0.5
aI0
aI2
aF0.0
aI4
aI5
aF0.8
aI1
aI4
aI5
aI3
aI3
aI0
aI1
aI2
aI14
aI2
aI1
aa(lp108
V0021200819
p109
aVFEB 22, 2013
p110
aVMIN @ OKC
p111
aVL
p112
aI24
aI5
aI9
aF0.556
aI2
aI3
aF0.667
aI3
aI4
aF0.75
aI2
aI1
aI3
aI0
aI1
aI0
aI1
aI2
aI15
aI-20
aI1
aa(lp113
V0021200805
p114
aVFEB 20, 2013
p115
aVMIN vs. PHI
p116
aVW
p117
aI37
aI4
aI8
aF0.5
aI1
aI1
aF1.0
aI6
aI6
aF1.0
aI0
aI5
aI5
aI5
aI2
aI3
aI2
aI4
aI15
aI0
aI1
aa(lp118
V0021200713
p119
aVFEB 04, 2013
p120
aVMIN vs. POR
p121
aVL
p122
aI14
aI1
aI4
aF0.25
aI0
aI0
aF0.0
aI0
aI0
aF0.0
aI0
aI0
aI0
aI0
aI1
aI0
aI1
aI1
aI2
aI-9
aI1
aa(lp123
V0021200700
p124
aVFEB 02, 2013
p125
aVMIN vs. NOH
p126
aVW
p127
aI27
aI4
aI7
aF0.571
aI1
aI2
aF0.5
aI3
aI6
aF0.5
aI1
aI5
aI6
aI3
aI2
aI0
aI3
aI1
aI12
aI15
aI1
aa(lp128
V0021200695
p129
aVFEB 01, 2013
p130
aVMIN vs. LAL
p131
aVL
p132
aI32
aI5
aI8
aF0.625
aI1
aI2
aF0.5
aI1
aI2
aF0.5
aI0
aI0
aI0
aI3
aI1
aI1
aI0
aI1
aI12
aI1
aI1
aa(lp133
V0021200677
p134
aVJAN 30, 2013
p135
aVMIN vs. LAC
p136
aVL
p137
aI32
aI3
aI10
aF0.3
aI1
aI4
aF0.25
aI7
aI8
aF0.875
aI0
aI4
aI4
aI4
aI2
aI1
aI1
aI0
aI14
aI-10
aI1
aa(lp138
V0021200645
p139
aVJAN 26, 2013
p140
aVMIN @ CHA
p141
aVL
p142
aI33
aI2
aI6
aF0.333
aI0
aI1
aF0.0
aI6
aI6
aF1.0
aI1
aI2
aI3
aI2
aI2
aI1
aI1
aI4
aI10
aI-7
aI1
aa(lp143
V0021200632
p144
aVJAN 25, 2013
p145
aVMIN @ WAS
p146
aVL
p147
aI29
aI5
aI9
aF0.556
aI1
aI3
aF0.333
aI6
aI8
aF0.75
aI2
aI2
aI4
aI2
aI0
aI1
aI3
aI3
aI17
aI-13
aI1
aa(lp148
V0021200623
p149
aVJAN 23, 2013
p150
aVMIN vs. BKN
p151
aVL
p152
aI41
aI6
aI10
aF0.6
aI1
aI3
aF0.333
aI2
aI3
aF0.667
aI1
aI5
aI6
aI4
aI1
aI0
aI2
aI1
aI15
aI-8
aI1
aa(lp153
V0021200608
p154
aVJAN 21, 2013
p155
aVMIN @ ATL
p156
aVL
p157
aI35
aI3
aI8
aF0.375
aI1
aI3
aF0.333
aI6
aI6
aF1.0
aI2
aI4
aI6
aI5
aI2
aI0
aI6
aI1
aI13
aI-6
aI1
aa(lp158
V0021200597
p159
aVJAN 19, 2013
p160
aVMIN vs. HOU
p161
aVW
p162
aI42
aI8
aI11
aF0.727
aI0
aI2
aF0.0
aI5
aI8
aF0.625
aI5
aI6
aI11
aI2
aI3
aI0
aI3
aI0
aI21
aI19
aI1
aa(lp163
V0021200581
p164
aVJAN 17, 2013
p165
aVMIN vs. LAC
p166
aVL
p167
aI36
aI7
aI12
aF0.583
aI1
aI5
aF0.2
aI0
aI2
aF0.0
aI1
aI4
aI5
aI2
aI4
aI0
aI3
aI2
aI15
aI-7
aI1
aa(lp168
V0021200560
p169
aVJAN 14, 2013
p170
aVMIN @ DAL
p171
aVL
p172
aI32
aI3
aI9
aF0.333
aI0
aI3
aF0.0
aI4
aI4
aF1.0
aI6
aI3
aI9
aI3
aI1
aI1
aI1
aI0
aI10
aI-22
aI1
aa(lp173
V0021200552
p174
aVJAN 13, 2013
p175
aVMIN @ SAS
p176
aVL
p177
aI33
aI4
aI8
aF0.5
aI1
aI2
aF0.5
aI0
aI0
aF0.0
aI4
aI7
aI11
aI2
aI3
aI1
aI0
aI1
aI9
aI-13
aI1
aa(lp178
V0021200536
p179
aVJAN 11, 2013
p180
aVMIN @ NOH
p181
aVL
p182
aI37
aI4
aI8
aF0.5
aI1
aI4
aF0.25
aI8
aI10
aF0.8
aI0
aI5
aI5
aI2
aI2
aI1
aI3
aI1
aI17
aI-9
aI1
aa(lp183
V0021200523
p184
aVJAN 09, 2013
p185
aVMIN @ OKC
p186
aVL
p187
aI30
aI3
aI9
aF0.333
aI1
aI4
aF0.25
aI3
aI4
aF0.75
aI2
aI3
aI5
aI4
aI0
aI2
aI3
aI2
aI10
aI-2
aI1
aa(lp188
V0021200515
p189
aVJAN 08, 2013
p190
aVMIN vs. ATL
p191
aVW
p192
aI34
aI7
aI11
aF0.636
aI2
aI2
aF1.0
aI5
aI5
aF1.0
aI1
aI5
aI6
aI5
aI0
aI0
aI0
aI0
aI21
aI7
aI1
aa(lp193
V0021200494
p194
aVJAN 05, 2013
p195
aVMIN vs. POR
p196
aVL
p197
aI42
aI7
aI13
aF0.538
aI1
aI1
aF1.0
aI0
aI0
aF0.0
aI3
aI4
aI7
aI2
aI1
aI0
aI2
aI0
aI15
aI4
aI1
aa(lp198
V0021200477
p199
aVJAN 03, 2013
p200
aVMIN @ DEN
p201
aVW
p202
aI33
aI4
aI9
aF0.444
aI1
aI2
aF0.5
aI5
aI8
aF0.625
aI0
aI4
aI4
aI3
aI0
aI3
aI1
aI1
aI14
aI-1
aI1
aa(lp203
V0021200473
p204
aVJAN 02, 2013
p205
aVMIN @ UTA
p206
aVL
p207
aI30
aI4
aI7
aF0.571
aI0
aI1
aF0.0
aI4
aI4
aF1.0
aI3
aI4
aI7
aI2
aI0
aI2
aI0
aI1
aI12
aI-2
aI1
aa(lp208
V0021200444
p209
aVDEC 29, 2012
p210
aVMIN vs. PHX
p211
aVW
p212
aI34
aI10
aI13
aF0.769
aI0
aI0
aF0.0
aI0
aI0
aF0.0
aI2
aI3
aI5
aI4
aI0
aI0
aI1
aI2
aI20
aI9
aI0
aa(lp213
V0021200417
p214
aVDEC 26, 2012
p215
aVMIN vs. HOU
p216
aVL
p217
aI29
aI2
aI6
aF0.333
aI0
aI1
aF0.0
aI4
aI6
aF0.667
aI2
aI3
aI5
aI1
aI2
aI1
aI2
aI0
aI8
aI-2
aI1
aa(lp218
V0021200400
p219
aVDEC 23, 2012
p220
aVMIN @ NYK
p221
aVL
p222
aI20
aI2
aI6
aF0.333
aI0
aI1
aF0.0
aI0
aI0
aF0.0
aI1
aI2
aI3
aI2
aI2
aI0
aI1
aI6
aI4
aI-2
aI1
aa(lp223
V0021200377
p224
aVDEC 20, 2012
p225
aVMIN vs. OKC
p226
aVW
p227
aI40
aI3
aI10
aF0.3
aI0
aI1
aF0.0
aI3
aI4
aF0.75
aI3
aI1
aI4
aI2
aI0
aI0
aI5
aI6
aI9
aI9
aI1
aa(lp228
V0021200359
p229
aVDEC 18, 2012
p230
aVMIN @ MIA
p231
aVL
p232
aI30
aI10
aI16
aF0.625
aI2
aI3
aF0.667
aI0
aI0
aF0.0
aI1
aI3
aI4
aI2
aI1
aI0
aI0
aI0
aI22
aI-7
aI1
aa(lp233
V0021200350
p234
aVDEC 17, 2012
p235
aVMIN @ ORL
p236
aVL
p237
aI35
aI5
aI13
aF0.385
aI0
aI3
aF0.0
aI3
aI4
aF0.75
aI2
aI2
aI4
aI6
aI2
aI0
aI2
aI1
aI13
aI-6
aI1
aa(lp238
V0021200342
p239
aVDEC 15, 2012
p240
aVMIN vs. DAL
p241
aVW
p242
aI41
aI4
aI10
aF0.4
aI0
aI3
aF0.0
aI6
aI7
aF0.857
aI3
aI7
aI10
aI3
aI2
aI2
aI2
aI1
aI14
aI0
aI1
aa(lp243
V0021200331
p244
aVDEC 14, 2012
p245
aVMIN @ NOH
p246
aVW
p247
aI39
aI10
aI16
aF0.625
aI0
aI2
aF0.0
aI1
aI1
aF1.0
aI2
aI9
aI11
aI2
aI1
aI1
aI1
aI0
aI21
aI13
aI1
aa(lp248
V0021200319
p249
aVDEC 12, 2012
p250
aVMIN vs. DEN
p251
aVW
p252
aI35
aI6
aI12
aF0.5
aI0
aI2
aF0.0
aI6
aI6
aF1.0
aI1
aI3
aI4
aI2
aI4
aI1
aI3
aI3
aI18
aI-5
aI1
aa(lp253
V0021200276
p254
aVDEC 07, 2012
p255
aVMIN vs. CLE
p256
aVW
p257
aI31
aI4
aI5
aF0.8
aI0
aI1
aF0.0
aI0
aI0
aF0.0
aI3
aI4
aI7
aI6
aI4
aI3
aI3
aI1
aI8
aI23
aI1
aa(lp258
V0021200207
p259
aVNOV 27, 2012
p260
aVMIN @ SAC
p261
aVW
p262
aI41
aI5
aI12
aF0.417
aI0
aI1
aF0.0
aI4
aI4
aF1.0
aI1
aI5
aI6
aI5
aI0
aI3
aI4
aI2
aI14
aI8
aI1
aa(lp263
V0021200190
p264
aVNOV 24, 2012
p265
aVMIN @ GSW
p266
aVL
p267
aI35
aI4
aI13
aF0.308
aI0
aI5
aF0.0
aI3
aI4
aF0.75
aI1
aI5
aI6
aI3
aI3
aI0
aI1
aI1
aI11
aI-7
aI1
aa(lp268
V0021200182
p269
aVNOV 23, 2012
p270
aVMIN @ POR
p271
aVL
p272
aI36
aI3
aI9
aF0.333
aI1
aI2
aF0.5
aI3
aI4
aF0.75
aI2
aI4
aI6
aI5
aI1
aI0
aI1
aI2
aI10
aI0
aI1
aa(lp273
V0021200166
p274
aVNOV 21, 2012
p275
aVMIN vs. DEN
p276
aVL
p277
aI35
aI2
aI7
aF0.286
aI0
aI1
aF0.0
aI3
aI4
aF0.75
aI3
aI5
aI8
aI2
aI3
aI1
aI2
aI2
aI7
aI-1
aI1
aa(lp278
V0021200126
p279
aVNOV 16, 2012
p280
aVMIN vs. GSW
p281
aVL
p282
aI39
aI5
aI9
aF0.556
aI2
aI3
aF0.667
aI6
aI8
aF0.75
aI3
aI3
aI6
aI0
aI0
aI4
aI3
aI2
aI18
aI-12
aI1
aa(lp283
V0021200114
p284
aVNOV 14, 2012
p285
aVMIN vs. CHA
p286
aVL
p287
aI44
aI9
aI12
aF0.75
aI3
aI3
aF1.0
aI5
aI9
aF0.556
aI3
aI9
aI12
aI2
aI1
aI2
aI5
aI1
aI26
aI8
aI1
aa(lp288
V0021200100
p289
aVNOV 12, 2012
p290
aVMIN @ DAL
p291
aVW
p292
aI44
aI7
aI12
aF0.583
aI1
aI2
aF0.5
aI1
aI2
aF0.5
aI2
aI9
aI11
aI2
aI2
aI2
aI4
aI2
aI16
aI12
aI1
aa(lp293
V0021200084
p294
aVNOV 10, 2012
p295
aVMIN @ CHI
p296
aVL
p297
aI42
aI3
aI9
aF0.333
aI0
aI3
aF0.0
aI5
aI6
aF0.833
aI4
aI8
aI12
aI6
aI2
aI1
aI3
aI1
aI11
aI-8
aI1
aa(lp298
V0021200076
p299
aVNOV 09, 2012
p300
aVMIN vs. IND
p301
aVW
p302
aI33
aI2
aI5
aF0.4
aI0
aI0
aF0.0
aI2
aI3
aF0.667
aI1
aI5
aI6
aI4
aI3
aI1
aI2
aI0
aI6
aI0
aI0
aa(lp303
V0021200060
p304
aVNOV 07, 2012
p305
aVMIN vs. ORL
p306
aVW
p307
aI31
aI3
aI5
aF0.6
aI0
aI1
aF0.0
aI1
aI2
aF0.5
aI2
aI3
aI5
aI0
aI3
aI2
aI3
aI1
aI7
aI19
aI1
aa(lp308
V0021200043
p309
aVNOV 05, 2012
p310
aVMIN @ BKN
p311
aVW
p312
aI33
aI7
aI11
aF0.636
aI1
aI2
aF0.5
aI1
aI2
aF0.5
aI3
aI7
aI10
aI6
aI1
aI4
aI2
aI0
aI16
aI4
aI1
aa(lp313
V0021200038
p314
aVNOV 04, 2012
p315
aVMIN @ TOR
p316
aVL
p317
aI29
aI6
aI7
aF0.857
aI1
aI1
aF1.0
aI4
aI5
aF0.8
aI1
aI5
aI6
aI3
aI1
aI3
aI2
aI1
aI17
aI-10
aI1
aa(lp318
V0021200023
p319
aVNOV 02, 2012
p320
aVMIN vs. SAC
p321
aVW
p322
aI31
aI4
aI7
aF0.571
aI0
aI0
aF0.0
aI2
aI3
aF0.667
aI2
aI5
aI7
aI5
aI0
aI1
aI2
aI0
aI10
aI7
aI1
aasS'name'
p323
VAndrei Kirilenko
p324
s.