(dp0
S'stats'
p1
(lp2
(lp3
V0021201230
p4
aVAPR 17, 2013
p5
aVPOR vs. GSW
p6
aVL
p7
aI16
aI3
aI7
aF0.429
aI0
aI0
aF0.0
aI1
aI2
aF0.5
aI0
aI2
aI2
aI1
aI0
aI0
aI2
aI3
aI7
aI-12
aI1
aa(lp8
V0021201215
p9
aVAPR 16, 2013
p10
aVPOR @ LAC
p11
aVL
p12
aI28
aI5
aI10
aF0.5
aI0
aI0
aF0.0
aI3
aI4
aF0.75
aI0
aI6
aI6
aI0
aI2
aI0
aI0
aI1
aI13
aI-3
aI1
aa(lp13
V0021201198
p14
aVAPR 14, 2013
p15
aVPOR @ DEN
p16
aVL
p17
aI7
aI0
aI2
aF0.0
aI0
aI0
aF0.0
aI0
aI0
aF0.0
aI1
aI0
aI1
aI1
aI0
aI1
aI0
aI0
aI0
aI7
aI1
aa(lp18
V0021201188
p19
aVAPR 12, 2013
p20
aVPOR vs. OKC
p21
aVL
p22
aI15
aI2
aI5
aF0.4
aI0
aI0
aF0.0
aI1
aI2
aF0.5
aI2
aI4
aI6
aI0
aI0
aI0
aI0
aI2
aI5
aI2
aI1
aa(lp23
V0021201136
p24
aVAPR 05, 2013
p25
aVPOR vs. HOU
p26
aVL
p27
aI5
aI0
aI2
aF0.0
aI0
aI0
aF0.0
aI0
aI0
aF0.0
aI1
aI1
aI2
aI1
aI0
aI0
aI0
aI0
aI0
aI1
aI1
aa(lp28
V0021201120
p29
aVAPR 03, 2013
p30
aVPOR vs. MEM
p31
aVL
p32
aI17
aI3
aI4
aF0.75
aI0
aI0
aF0.0
aI1
aI2
aF0.5
aI0
aI3
aI3
aI0
aI2
aI0
aI0
aI4
aI7
aI-9
aI1
aa(lp33
V0021201106
p34
aVAPR 01, 2013
p35
aVPOR @ UTA
p36
aVL
p37
aI16
aI1
aI3
aF0.333
aI0
aI0
aF0.0
aI0
aI0
aF0.0
aI1
aI3
aI4
aI1
aI0
aI0
aI0
aI3
aI2
aI3
aI1
aa(lp38
V0021201094
p39
aVMAR 30, 2013
p40
aVPOR @ GSW
p41
aVL
p42
aI10
aI0
aI5
aF0.0
aI0
aI0
aF0.0
aI0
aI0
aF0.0
aI0
aI2
aI2
aI0
aI0
aI0
aI1
aI2
aI0
aI-17
aI1
aa(lp43
V0021201084
p44
aVMAR 29, 2013
p45
aVPOR vs. UTA
p46
aVL
p47
aI14
aI0
aI2
aF0.0
aI0
aI0
aF0.0
aI0
aI0
aF0.0
aI2
aI2
aI4
aI0
aI0
aI0
aI1
aI0
aI0
aI-10
aI1
aa(lp48
V0021201070
p49
aVMAR 27, 2013
p50
aVPOR vs. BKN
p51
aVL
p52
aI12
aI1
aI5
aF0.2
aI0
aI0
aF0.0
aI0
aI0
aF0.0
aI2
aI2
aI4
aI0
aI0
aI2
aI0
aI2
aI2
aI8
aI0
aa(lp53
V0021201043
p54
aVMAR 24, 2013
p55
aVPOR @ OKC
p56
aVL
p57
aI2
aI0
aI0
aF0.0
aI0
aI0
aF0.0
aI0
aI0
aF0.0
aI0
aI0
aI0
aI0
aI0
aI0
aI0
aI0
aI0
aI-2
aI1
aa(lp58
V0021201019
p59
aVMAR 21, 2013
p60
aVPOR @ CHI
p61
aVW
p62
aI1
aI0
aI0
aF0.0
aI0
aI0
aF0.0
aI0
aI0
aF0.0
aI0
aI0
aI0
aI0
aI0
aI0
aI0
aI0
aI0
aI-7
aI1
aa(lp63
V0021201005
p64
aVMAR 19, 2013
p65
aVPOR @ MIL
p66
aVL
p67
aI5
aI1
aI1
aF1.0
aI0
aI0
aF0.0
aI0
aI0
aF0.0
aI0
aI1
aI1
aI0
aI0
aI0
aI0
aI0
aI2
aI-10
aI1
aa(lp68
V0021200993
p69
aVMAR 18, 2013
p70
aVPOR @ PHI
p71
aVL
p72
aI12
aI2
aI4
aF0.5
aI0
aI0
aF0.0
aI2
aI2
aF1.0
aI1
aI3
aI4
aI0
aI1
aI0
aI1
aI2
aI6
aI3
aI1
aa(lp73
V0021200984
p74
aVMAR 16, 2013
p75
aVPOR vs. DET
p76
aVW
p77
aI10
aI4
aI6
aF0.667
aI0
aI0
aF0.0
aI0
aI0
aF0.0
aI1
aI3
aI4
aI1
aI0
aI0
aI0
aI1
aI8
aI0
aI1
aa(lp78
V0021200955
p79
aVMAR 12, 2013
p80
aVPOR vs. MEM
p81
aVL
p82
aI6
aI1
aI1
aF1.0
aI0
aI0
aF0.0
aI0
aI0
aF0.0
aI0
aI0
aI0
aI0
aI0
aI0
aI0
aI1
aI2
aI-5
aI1
aa(lp83
V0021200923
p84
aVMAR 08, 2013
p85
aVPOR @ SAS
p86
aVW
p87
aI3
aI3
aI3
aF1.0
aI0
aI0
aF0.0
aI0
aI0
aF0.0
aI1
aI2
aI3
aI0
aI0
aI0
aI0
aI0
aI6
aI8
aI1
aa(lp88
V0021200894
p89
aVMAR 04, 2013
p90
aVPOR vs. CHA
p91
aVW
p92
aI4
aI0
aI0
aF0.0
aI0
aI0
aF0.0
aI0
aI0
aF0.0
aI0
aI1
aI1
aI0
aI0
aI1
aI0
aI0
aI0
aI5
aI1
aa(lp93
V0021200879
p94
aVMAR 02, 2013
p95
aVPOR vs. MIN
p96
aVW
p97
aI4
aI0
aI2
aF0.0
aI0
aI0
aF0.0
aI0
aI0
aF0.0
aI2
aI1
aI3
aI0
aI0
aI1
aI1
aI1
aI0
aI-3
aI1
aa(lp98
V0021200837
p99
aVFEB 24, 2013
p100
aVPOR vs. BOS
p101
aVW
p102
aI4
aI0
aI1
aF0.0
aI0
aI0
aF0.0
aI0
aI0
aF0.0
aI0
aI1
aI1
aI0
aI0
aI0
aI0
aI2
aI0
aI-6
aI1
aa(lp103
V0021200783
p104
aVFEB 13, 2013
p105
aVPOR @ NOH
p106
aVL
p107
aI17
aI3
aI5
aF0.6
aI0
aI0
aF0.0
aI0
aI0
aF0.0
aI1
aI1
aI2
aI0
aI0
aI0
aI2
aI0
aI6
aI-17
aI1
aa(lp108
V0021200770
p109
aVFEB 12, 2013
p110
aVPOR @ MIA
p111
aVL
p112
aI2
aI1
aI1
aF1.0
aI0
aI0
aF0.0
aI0
aI0
aF0.0
aI0
aI1
aI1
aI0
aI0
aI0
aI0
aI1
aI2
aI0
aI1
aa(lp113
V0021200756
p114
aVFEB 10, 2013
p115
aVPOR @ ORL
p116
aVL
p117
aI10
aI3
aI4
aF0.75
aI0
aI0
aF0.0
aI0
aI1
aF0.0
aI1
aI5
aI6
aI2
aI1
aI0
aI1
aI0
aI6
aI11
aI1
aa(lp118
V0021200743
p119
aVFEB 08, 2013
p120
aVPOR @ HOU
p121
aVL
p122
aI4
aI0
aI0
aF0.0
aI0
aI0
aF0.0
aI0
aI0
aF0.0
aI0
aI0
aI0
aI0
aI0
aI0
aI0
aI0
aI0
aI4
aI1
aa(lp123
V0021200658
p124
aVJAN 27, 2013
p125
aVPOR @ LAC
p126
aVL
p127
aI7
aI0
aI1
aF0.0
aI0
aI0
aF0.0
aI0
aI0
aF0.0
aI0
aI2
aI2
aI0
aI0
aI0
aI0
aI1
aI0
aI3
aI1
aa(lp128
V0021200599
p129
aVJAN 19, 2013
p130
aVPOR vs. MIL
p131
aVL
p132
aI3
aI0
aI0
aF0.0
aI0
aI0
aF0.0
aI0
aI0
aF0.0
aI0
aI0
aI0
aI0
aI0
aI0
aI0
aI1
aI0
aI-17
aI1
aa(lp133
V0021200578
p134
aVJAN 16, 2013
p135
aVPOR vs. CLE
p136
aVL
p137
aI12
aI1
aI3
aF0.333
aI0
aI0
aF0.0
aI1
aI2
aF0.5
aI0
aI3
aI3
aI0
aI0
aI1
aI0
aI2
aI3
aI7
aI1
aa(lp138
V0021200568
p139
aVJAN 15, 2013
p140
aVPOR @ DEN
p141
aVL
p142
aI3
aI0
aI1
aF0.0
aI0
aI0
aF0.0
aI0
aI0
aF0.0
aI0
aI0
aI0
aI0
aI0
aI0
aI1
aI0
aI0
aI-2
aI1
aa(lp143
V0021200554
p144
aVJAN 13, 2013
p145
aVPOR vs. OKC
p146
aVL
p147
aI9
aI0
aI1
aF0.0
aI0
aI0
aF0.0
aI0
aI0
aF0.0
aI1
aI2
aI3
aI0
aI0
aI0
aI0
aI1
aI0
aI3
aI1
aa(lp148
V0021200540
p149
aVJAN 11, 2013
p150
aVPOR @ GSW
p151
aVL
p152
aI5
aI1
aI2
aF0.5
aI0
aI0
aF0.0
aI0
aI1
aF0.0
aI2
aI0
aI2
aI0
aI0
aI0
aI0
aI0
aI2
aI-3
aI1
aa(lp153
V0021200529
p154
aVJAN 10, 2013
p155
aVPOR vs. MIA
p156
aVW
p157
aI7
aI0
aI0
aF0.0
aI0
aI0
aF0.0
aI0
aI0
aF0.0
aI2
aI1
aI3
aI0
aI0
aI0
aI0
aI2
aI0
aI-6
aI1
aa(lp158
V0021200510
p159
aVJAN 07, 2013
p160
aVPOR vs. ORL
p161
aVW
p162
aI7
aI1
aI1
aF1.0
aI0
aI0
aF0.0
aI0
aI0
aF0.0
aI3
aI2
aI5
aI0
aI0
aI0
aI0
aI2
aI2
aI-1
aI1
aa(lp163
V0021200494
p164
aVJAN 05, 2013
p165
aVPOR @ MIN
p166
aVW
p167
aI12
aI0
aI1
aF0.0
aI0
aI0
aF0.0
aI0
aI0
aF0.0
aI0
aI3
aI3
aI0
aI0
aI1
aI0
aI4
aI0
aI2
aI1
aa(lp168
V0021200484
p169
aVJAN 04, 2013
p170
aVPOR @ MEM
p171
aVW
p172
aI8
aI0
aI4
aF0.0
aI0
aI0
aF0.0
aI0
aI0
aF0.0
aI3
aI1
aI4
aI0
aI1
aI0
aI1
aI2
aI0
aI-8
aI1
aa(lp173
V0021200464
p174
aVJAN 02, 2013
p175
aVPOR @ TOR
p176
aVL
p177
aI21
aI4
aI6
aF0.667
aI0
aI0
aF0.0
aI3
aI3
aF1.0
aI1
aI3
aI4
aI1
aI1
aI0
aI0
aI3
aI11
aI-5
aI1
aa(lp178
V0021200435
p179
aVDEC 28, 2012
p180
aVPOR @ LAL
p181
aVL
p182
aI12
aI3
aI4
aF0.75
aI0
aI0
aF0.0
aI0
aI0
aF0.0
aI1
aI0
aI1
aI0
aI0
aI0
aI1
aI0
aI6
aI5
aI1
aa(lp183
V0021200422
p184
aVDEC 26, 2012
p185
aVPOR vs. SAC
p186
aVW
p187
aI7
aI1
aI3
aF0.333
aI0
aI0
aF0.0
aI0
aI0
aF0.0
aI0
aI3
aI3
aI0
aI0
aI0
aI1
aI2
aI2
aI-7
aI1
aa(lp188
V0021200404
p189
aVDEC 23, 2012
p190
aVPOR @ SAC
p191
aVL
p192
aI3
aI3
aI4
aF0.75
aI0
aI0
aF0.0
aI0
aI0
aF0.0
aI0
aI1
aI1
aI0
aI0
aI0
aI0
aI0
aI6
aI5
aI1
aa(lp193
V0021200379
p194
aVDEC 20, 2012
p195
aVPOR vs. DEN
p196
aVW
p197
aI15
aI1
aI4
aF0.25
aI0
aI0
aF0.0
aI0
aI0
aF0.0
aI1
aI2
aI3
aI0
aI0
aI0
aI0
aI1
aI2
aI15
aI1
aa(lp198
V0021200291
p199
aVDEC 08, 2012
p200
aVPOR vs. SAC
p201
aVL
p202
aI9
aI1
aI1
aF1.0
aI0
aI0
aF0.0
aI0
aI0
aF0.0
aI0
aI1
aI1
aI1
aI0
aI0
aI1
aI3
aI2
aI-1
aI1
aa(lp203
V0021200258
p204
aVDEC 05, 2012
p205
aVPOR @ IND
p206
aVL
p207
aI13
aI0
aI4
aF0.0
aI0
aI0
aF0.0
aI0
aI0
aF0.0
aI1
aI0
aI1
aI2
aI1
aI1
aI0
aI3
aI0
aI3
aI1
aa(lp208
V0021200245
p209
aVDEC 03, 2012
p210
aVPOR @ CHA
p211
aVW
p212
aI13
aI3
aI4
aF0.75
aI0
aI0
aF0.0
aI0
aI0
aF0.0
aI2
aI0
aI2
aI0
aI1
aI0
aI0
aI1
aI6
aI-5
aI1
aa(lp213
V0021200234
p214
aVDEC 01, 2012
p215
aVPOR @ CLE
p216
aVW
p217
aI12
aI3
aI4
aF0.75
aI0
aI0
aF0.0
aI2
aI2
aF1.0
aI0
aI2
aI2
aI0
aI0
aI1
aI0
aI3
aI8
aI0
aI1
aa(lp218
V0021200225
p219
aVNOV 30, 2012
p220
aVPOR @ BOS
p221
aVL
p222
aI12
aI2
aI3
aF0.667
aI0
aI0
aF0.0
aI0
aI0
aF0.0
aI0
aI2
aI2
aI1
aI2
aI1
aI1
aI2
aI4
aI-2
aI1
aa(lp223
V0021200193
p224
aVNOV 25, 2012
p225
aVPOR @ BKN
p226
aVL
p227
aI13
aI0
aI2
aF0.0
aI0
aI0
aF0.0
aI0
aI0
aF0.0
aI0
aI1
aI1
aI0
aI1
aI0
aI2
aI2
aI0
aI1
aI1
aa(lp228
V0021200168
p229
aVNOV 21, 2012
p230
aVPOR @ PHX
p231
aVL
p232
aI16
aI0
aI4
aF0.0
aI0
aI0
aF0.0
aI0
aI2
aF0.0
aI2
aI1
aI3
aI0
aI0
aI0
aI0
aI4
aI0
aI-6
aI1
aa(lp233
V0021200107
p234
aVNOV 13, 2012
p235
aVPOR @ SAC
p236
aVW
p237
aI5
aI0
aI2
aF0.0
aI0
aI0
aF0.0
aI0
aI0
aF0.0
aI0
aI1
aI1
aI0
aI0
aI0
aI1
aI1
aI0
aI-7
aI1
aa(lp238
V0021200102
p239
aVNOV 12, 2012
p240
aVPOR vs. ATL
p241
aVL
p242
aI12
aI0
aI5
aF0.0
aI0
aI0
aF0.0
aI0
aI0
aF0.0
aI1
aI0
aI1
aI1
aI0
aI1
aI0
aI0
aI0
aI-4
aI1
aa(lp243
V0021200067
p244
aVNOV 08, 2012
p245
aVPOR vs. LAC
p246
aVL
p247
aI2
aI0
aI1
aF0.0
aI0
aI0
aF0.0
aI2
aI2
aF1.0
aI0
aI1
aI1
aI0
aI0
aI0
aI0
aI0
aI2
aI1
aI1
aa(lp248
V0021200046
p249
aVNOV 05, 2012
p250
aVPOR @ DAL
p251
aVL
p252
aI9
aI1
aI2
aF0.5
aI0
aI0
aF0.0
aI0
aI0
aF0.0
aI3
aI1
aI4
aI0
aI0
aI0
aI1
aI2
aI2
aI-12
aI1
aa(lp253
V0021200022
p254
aVNOV 02, 2012
p255
aVPOR @ OKC
p256
aVL
p257
aI6
aI0
aI2
aF0.0
aI0
aI0
aF0.0
aI2
aI2
aF1.0
aI1
aI2
aI3
aI0
aI0
aI0
aI0
aI0
aI2
aI-3
aI1
aasS'name'
p258
VJoel Freeland
p259
s.