(dp0
S'age'
p1
I27
sS'stats'
p2
(lp3
(lp4
V0021201227
p5
aVAPR 17, 2013
p6
aVPHX @ DEN
p7
aVL
p8
aI18
aI6
aI8
aF0.75
aI1
aI1
aF1.0
aI0
aI0
aF0.0
aI1
aI0
aI1
aI0
aI1
aI0
aI0
aI3
aI13
aI9
aa(lp9
V0021201134
p10
aVAPR 05, 2013
p11
aVPHX vs. GSW
p12
aVL
p13
aI5
aI0
aI1
aF0.0
aI0
aI0
aF0.0
aI0
aI0
aF0.0
aI0
aI0
aI0
aI0
aI0
aI0
aI1
aI0
aI0
aI-6
aa(lp14
V0021201068
p15
aVMAR 27, 2013
p16
aVPHX @ UTA
p17
aVL
p18
aI8
aI1
aI2
aF0.5
aI0
aI0
aF0.0
aI0
aI0
aF0.0
aI0
aI2
aI2
aI0
aI0
aI0
aI1
aI0
aI2
aI0
aa(lp19
V0021201031
p20
aVMAR 22, 2013
p21
aVPHX vs. MIN
p22
aVL
p23
aI21
aI2
aI8
aF0.25
aI0
aI0
aF0.0
aI0
aI0
aF0.0
aI1
aI1
aI2
aI1
aI1
aI1
aI1
aI3
aI4
aI-18
aa(lp24
V0021201017
p25
aVMAR 20, 2013
p26
aVPHX vs. WAS
p27
aVL
p28
aI9
aI2
aI4
aF0.5
aI0
aI0
aF0.0
aI0
aI0
aF0.0
aI0
aI0
aI0
aI0
aI1
aI0
aI0
aI0
aI4
aI5
aa(lp29
V0021200946
p30
aVMAR 11, 2013
p31
aVPHX vs. DEN
p32
aVL
p33
aI8
aI1
aI3
aF0.333
aI0
aI1
aF0.0
aI0
aI0
aF0.0
aI1
aI0
aI1
aI0
aI0
aI0
aI0
aI0
aI2
aI-4
aa(lp34
V0021200773
p35
aVFEB 12, 2013
p36
aVPHX @ LAL
p37
aVL
p38
aI5
aI1
aI3
aF0.333
aI0
aI1
aF0.0
aI0
aI1
aF0.0
aI0
aI0
aI0
aI0
aI0
aI0
aI0
aI0
aI2
aI-1
aa(lp39
V0021200759
p40
aVFEB 10, 2013
p41
aVPHX vs. OKC
p42
aVL
p43
aI19
aI2
aI8
aF0.25
aI0
aI2
aF0.0
aI0
aI0
aF0.0
aI1
aI2
aI3
aI1
aI1
aI1
aI1
aI0
aI4
aI-6
aa(lp44
V0021200744
p45
aVFEB 08, 2013
p46
aVPHX @ OKC
p47
aVL
p48
aI20
aI2
aI7
aF0.286
aI0
aI0
aF0.0
aI1
aI4
aF0.25
aI1
aI4
aI5
aI1
aI0
aI0
aI1
aI1
aI5
aI-3
aa(lp49
V0021200728
p50
aVFEB 06, 2013
p51
aVPHX @ NOH
p52
aVL
p53
aI16
aI3
aI9
aF0.333
aI0
aI3
aF0.0
aI0
aI0
aF0.0
aI0
aI4
aI4
aI1
aI0
aI0
aI1
aI2
aI6
aI-4
aa(lp54
V0021200717
p55
aVFEB 05, 2013
p56
aVPHX @ MEM
p57
aVW
p58
aI20
aI2
aI4
aF0.5
aI0
aI0
aF0.0
aI1
aI2
aF0.5
aI1
aI0
aI1
aI0
aI2
aI0
aI2
aI1
aI5
aI1
aa(lp59
V0021200704
p60
aVFEB 02, 2013
p61
aVPHX @ GSW
p62
aVL
p63
aI18
aI2
aI6
aF0.333
aI0
aI0
aF0.0
aI1
aI4
aF0.25
aI1
aI3
aI4
aI2
aI0
aI0
aI1
aI1
aI5
aI-6
aa(lp64
V0021200694
p65
aVFEB 01, 2013
p66
aVPHX vs. DAL
p67
aVL
p68
aI23
aI7
aI11
aF0.636
aI1
aI3
aF0.333
aI5
aI6
aF0.833
aI1
aI1
aI2
aI2
aI1
aI1
aI1
aI1
aI20
aI-13
aa(lp69
V0021200681
p70
aVJAN 30, 2013
p71
aVPHX vs. LAL
p72
aVW
p73
aI21
aI3
aI8
aF0.375
aI0
aI0
aF0.0
aI2
aI2
aF1.0
aI1
aI1
aI2
aI3
aI1
aI1
aI1
aI1
aI8
aI-1
aa(lp74
V0021200657
p75
aVJAN 27, 2013
p76
aVPHX @ DAL
p77
aVL
p78
aI15
aI2
aI6
aF0.333
aI0
aI2
aF0.0
aI2
aI4
aF0.5
aI2
aI1
aI3
aI1
aI0
aI0
aI2
aI2
aI6
aI-10
aa(lp79
V0021200648
p80
aVJAN 26, 2013
p81
aVPHX @ SAS
p82
aVL
p83
aI14
aI2
aI3
aF0.667
aI0
aI0
aF0.0
aI0
aI0
aF0.0
aI0
aI2
aI2
aI1
aI0
aI0
aI0
aI3
aI4
aI-7
aa(lp84
V0021200631
p85
aVJAN 24, 2013
p86
aVPHX vs. LAC
p87
aVW
p88
aI19
aI3
aI8
aF0.375
aI0
aI1
aF0.0
aI3
aI4
aF0.75
aI2
aI0
aI2
aI0
aI2
aI0
aI1
aI4
aI9
aI3
aa(lp89
V0021200626
p90
aVJAN 23, 2013
p91
aVPHX @ SAC
p92
aVW
p93
aI29
aI4
aI9
aF0.444
aI1
aI1
aF1.0
aI3
aI3
aF1.0
aI1
aI1
aI2
aI3
aI4
aI0
aI0
aI2
aI12
aI12
aa(lp94
V0021200582
p95
aVJAN 17, 2013
p96
aVPHX vs. MIL
p97
aVL
p98
aI29
aI8
aI18
aF0.444
aI0
aI2
aF0.0
aI4
aI4
aF1.0
aI1
aI4
aI5
aI2
aI4
aI0
aI1
aI3
aI20
aI1
aa(lp99
V0021200562
p100
aVJAN 14, 2013
p101
aVPHX vs. OKC
p102
aVL
p103
aI43
aI9
aI15
aF0.6
aI2
aI6
aF0.333
aI1
aI1
aF1.0
aI1
aI2
aI3
aI3
aI1
aI2
aI3
aI2
aI21
aI-10
aa(lp104
V0021200546
p105
aVJAN 12, 2013
p106
aVPHX @ CHI
p107
aVW
p108
aI25
aI4
aI6
aF0.667
aI1
aI1
aF1.0
aI2
aI4
aF0.5
aI2
aI2
aI4
aI1
aI2
aI1
aI2
aI0
aI11
aI11
aa(lp109
V0021200532
p110
aVJAN 11, 2013
p111
aVPHX @ BKN
p112
aVL
p113
aI28
aI5
aI15
aF0.333
aI0
aI2
aF0.0
aI5
aI5
aF1.0
aI1
aI0
aI1
aI4
aI3
aI0
aI0
aI1
aI15
aI-16
aa(lp114
V0021200519
p115
aVJAN 09, 2013
p116
aVPHX @ BOS
p117
aVL
p118
aI13
aI2
aI6
aF0.333
aI0
aI0
aF0.0
aI0
aI1
aF0.0
aI0
aI1
aI1
aI1
aI0
aI0
aI0
aI0
aI4
aI-15
aa(lp119
V0021200513
p120
aVJAN 08, 2013
p121
aVPHX @ MIL
p122
aVL
p123
aI19
aI2
aI8
aF0.25
aI0
aI1
aF0.0
aI4
aI4
aF1.0
aI2
aI2
aI4
aI1
aI0
aI0
aI1
aI2
aI8
aI-9
aa(lp124
V0021200502
p125
aVJAN 06, 2013
p126
aVPHX vs. MEM
p127
aVL
p128
aI26
aI3
aI9
aF0.333
aI0
aI1
aF0.0
aI1
aI2
aF0.5
aI0
aI3
aI3
aI2
aI2
aI0
aI3
aI5
aI7
aI-2
aa(lp129
V0021200487
p130
aVJAN 04, 2013
p131
aVPHX vs. UTA
p132
aVL
p133
aI21
aI0
aI4
aF0.0
aI0
aI0
aF0.0
aI0
aI0
aF0.0
aI1
aI1
aI2
aI1
aI1
aI1
aI0
aI1
aI0
aI-11
aa(lp134
V0021200474
p135
aVJAN 02, 2013
p136
aVPHX vs. PHI
p137
aVW
p138
aI25
aI6
aI12
aF0.5
aI0
aI2
aF0.0
aI0
aI0
aF0.0
aI2
aI1
aI3
aI2
aI1
aI0
aI3
aI0
aI12
aI-10
aa(lp139
V0021200456
p140
aVDEC 31, 2012
p141
aVPHX @ OKC
p142
aVL
p143
aI17
aI0
aI3
aF0.0
aI0
aI2
aF0.0
aI0
aI0
aF0.0
aI0
aI0
aI0
aI4
aI1
aI0
aI1
aI1
aI0
aI9
aa(lp144
V0021200444
p145
aVDEC 29, 2012
p146
aVPHX @ MIN
p147
aVL
p148
aI36
aI9
aI17
aF0.529
aI1
aI3
aF0.333
aI2
aI2
aF1.0
aI2
aI4
aI6
aI3
aI0
aI0
aI0
aI4
aI21
aI-9
aa(lp149
V0021200426
p150
aVDEC 28, 2012
p151
aVPHX @ IND
p152
aVL
p153
aI29
aI6
aI10
aF0.6
aI0
aI2
aF0.0
aI0
aI0
aF0.0
aI3
aI2
aI5
aI3
aI0
aI0
aI2
aI1
aI12
aI0
aa(lp154
V0021200421
p155
aVDEC 26, 2012
p156
aVPHX vs. NYK
p157
aVL
p158
aI40
aI5
aI13
aF0.385
aI0
aI4
aF0.0
aI1
aI1
aF1.0
aI0
aI4
aI4
aI4
aI1
aI1
aI0
aI0
aI11
aI2
aa(lp159
V0021200403
p160
aVDEC 23, 2012
p161
aVPHX vs. LAC
p162
aVL
p163
aI34
aI3
aI13
aF0.231
aI0
aI3
aF0.0
aI1
aI1
aF1.0
aI0
aI2
aI2
aI6
aI1
aI0
aI3
aI2
aI7
aI-15
aa(lp164
V0021200397
p165
aVDEC 22, 2012
p166
aVPHX @ POR
p167
aVL
p168
aI36
aI7
aI17
aF0.412
aI1
aI4
aF0.25
aI0
aI0
aF0.0
aI1
aI2
aI3
aI2
aI4
aI0
aI4
aI1
aI15
aI-14
aa(lp169
V0021200373
p170
aVDEC 19, 2012
p171
aVPHX vs. CHA
p172
aVW
p173
aI34
aI10
aI16
aF0.625
aI5
aI7
aF0.714
aI1
aI1
aF1.0
aI0
aI4
aI4
aI2
aI1
aI1
aI0
aI1
aI26
aI8
aa(lp174
V0021200355
p175
aVDEC 17, 2012
p176
aVPHX vs. SAC
p177
aVW
p178
aI29
aI10
aI13
aF0.769
aI2
aI4
aF0.5
aI0
aI0
aF0.0
aI0
aI5
aI5
aI1
aI1
aI0
aI1
aI4
aI22
aI14
aa(lp179
V0021200334
p180
aVDEC 14, 2012
p181
aVPHX vs. UTA
p182
aVW
p183
aI33
aI2
aI5
aF0.4
aI0
aI1
aF0.0
aI2
aI2
aF1.0
aI0
aI1
aI1
aI3
aI1
aI0
aI1
aI1
aI6
aI9
aa(lp184
V0021200320
p185
aVDEC 12, 2012
p186
aVPHX vs. MEM
p187
aVW
p188
aI39
aI5
aI19
aF0.263
aI1
aI5
aF0.2
aI4
aI4
aF1.0
aI1
aI6
aI7
aI1
aI1
aI0
aI3
aI2
aI15
aI1
aa(lp189
V0021200296
p190
aVDEC 09, 2012
p191
aVPHX vs. ORL
p192
aVL
p193
aI39
aI6
aI16
aF0.375
aI2
aI8
aF0.25
aI3
aI3
aF1.0
aI1
aI1
aI2
aI3
aI1
aI0
aI2
aI3
aI17
aI0
aa(lp194
V0021200282
p195
aVDEC 08, 2012
p196
aVPHX @ LAC
p197
aVL
p198
aI40
aI6
aI16
aF0.375
aI2
aI6
aF0.333
aI5
aI6
aF0.833
aI0
aI0
aI0
aI4
aI1
aI0
aI2
aI1
aI19
aI-11
aa(lp199
V0021200269
p200
aVDEC 06, 2012
p201
aVPHX vs. DAL
p202
aVL
p203
aI28
aI4
aI9
aF0.444
aI1
aI3
aF0.333
aI2
aI2
aF1.0
aI0
aI2
aI2
aI1
aI4
aI0
aI1
aI4
aI11
aI0
aa(lp204
V0021200255
p205
aVDEC 04, 2012
p206
aVPHX @ MEM
p207
aVL
p208
aI22
aI5
aI11
aF0.455
aI0
aI2
aF0.0
aI0
aI0
aF0.0
aI0
aI0
aI0
aI0
aI2
aI1
aI4
aI1
aI10
aI-7
aa(lp209
V0021200243
p210
aVDEC 02, 2012
p211
aVPHX @ NYK
p212
aVL
p213
aI35
aI6
aI16
aF0.375
aI1
aI6
aF0.167
aI4
aI5
aF0.8
aI3
aI4
aI7
aI3
aI1
aI0
aI1
aI3
aI17
aI-8
aa(lp214
V0021200222
p215
aVNOV 30, 2012
p216
aVPHX @ TOR
p217
aVL
p218
aI29
aI5
aI13
aF0.385
aI1
aI3
aF0.333
aI3
aI3
aF1.0
aI0
aI3
aI3
aI2
aI2
aI0
aI1
aI3
aI14
aI4
aa(lp219
V0021200213
p220
aVNOV 28, 2012
p221
aVPHX @ DET
p222
aVL
p223
aI22
aI2
aI4
aF0.5
aI0
aI0
aF0.0
aI1
aI3
aF0.333
aI2
aI2
aI4
aI0
aI1
aI0
aI0
aI1
aI5
aI-12
aa(lp224
V0021200205
p225
aVNOV 27, 2012
p226
aVPHX @ CLE
p227
aVW
p228
aI24
aI4
aI9
aF0.444
aI1
aI3
aF0.333
aI0
aI0
aF0.0
aI1
aI1
aI2
aI3
aI1
aI1
aI1
aI3
aI9
aI-7
aa(lp229
V0021200194
p230
aVNOV 25, 2012
p231
aVPHX @ PHI
p232
aVL
p233
aI23
aI1
aI7
aF0.143
aI1
aI2
aF0.5
aI1
aI1
aF1.0
aI1
aI1
aI2
aI7
aI0
aI0
aI2
aI1
aI4
aI-6
aa(lp234
V0021200181
p235
aVNOV 23, 2012
p236
aVPHX vs. NOH
p237
aVW
p238
aI27
aI5
aI11
aF0.455
aI0
aI4
aF0.0
aI0
aI1
aF0.0
aI1
aI1
aI2
aI1
aI1
aI1
aI2
aI3
aI10
aI-14
aa(lp239
V0021200168
p240
aVNOV 21, 2012
p241
aVPHX vs. POR
p242
aVW
p243
aI26
aI2
aI4
aF0.5
aI2
aI4
aF0.5
aI4
aI4
aF1.0
aI0
aI1
aI1
aI2
aI1
aI0
aI0
aI1
aI10
aI6
aa(lp244
V0021200138
p245
aVNOV 17, 2012
p246
aVPHX vs. MIA
p247
aVL
p248
aI24
aI6
aI14
aF0.429
aI0
aI5
aF0.0
aI2
aI3
aF0.667
aI0
aI4
aI4
aI2
aI0
aI0
aI2
aI2
aI14
aI2
aa(lp249
V0021200130
p250
aVNOV 16, 2012
p251
aVPHX @ LAL
p252
aVL
p253
aI15
aI3
aI6
aF0.5
aI0
aI0
aF0.0
aI1
aI1
aF1.0
aI0
aI1
aI1
aI0
aI0
aI0
aI1
aI0
aI7
aI-9
aa(lp254
V0021200116
p255
aVNOV 14, 2012
p256
aVPHX vs. CHI
p257
aVL
p258
aI28
aI4
aI15
aF0.267
aI0
aI3
aF0.0
aI3
aI3
aF1.0
aI0
aI2
aI2
aI2
aI0
aI1
aI0
aI3
aI11
aI3
aa(lp259
V0021200101
p260
aVNOV 12, 2012
p261
aVPHX vs. DEN
p262
aVW
p263
aI29
aI7
aI16
aF0.438
aI0
aI0
aF0.0
aI5
aI5
aF1.0
aI0
aI2
aI2
aI4
aI0
aI0
aI0
aI1
aI19
aI7
aa(lp264
V0021200087
p265
aVNOV 10, 2012
p266
aVPHX @ UTA
p267
aVL
p268
aI17
aI1
aI9
aF0.111
aI1
aI3
aF0.333
aI1
aI2
aF0.5
aI0
aI1
aI1
aI1
aI1
aI0
aI1
aI1
aI4
aI-4
aa(lp269
V0021200077
p270
aVNOV 09, 2012
p271
aVPHX vs. CLE
p272
aVW
p273
aI26
aI8
aI13
aF0.615
aI2
aI4
aF0.5
aI4
aI4
aF1.0
aI2
aI2
aI4
aI1
aI1
aI0
aI4
aI1
aI22
aI7
aa(lp274
V0021200053
p275
aVNOV 07, 2012
p276
aVPHX @ CHA
p277
aVW
p278
aI24
aI7
aI12
aF0.583
aI6
aI8
aF0.75
aI4
aI5
aF0.8
aI1
aI1
aI2
aI2
aI1
aI0
aI1
aI1
aI24
aI0
aa(lp279
V0021200044
p280
aVNOV 05, 2012
p281
aVPHX @ MIA
p282
aVL
p283
aI21
aI5
aI12
aF0.417
aI3
aI6
aF0.5
aI5
aI7
aF0.714
aI1
aI2
aI3
aI2
aI1
aI1
aI0
aI0
aI18
aI-12
aa(lp284
V0021200039
p285
aVNOV 04, 2012
p286
aVPHX @ ORL
p287
aVL
p288
aI20
aI3
aI9
aF0.333
aI0
aI2
aF0.0
aI0
aI0
aF0.0
aI0
aI2
aI2
aI3
aI0
aI0
aI3
aI2
aI6
aI-9
aa(lp289
V0021200024
p290
aVNOV 02, 2012
p291
aVPHX vs. DET
p292
aVW
p293
aI25
aI7
aI14
aF0.5
aI0
aI2
aF0.0
aI0
aI1
aF0.0
aI0
aI4
aI4
aI2
aI0
aI0
aI1
aI0
aI14
aI-5
aa(lp294
V0021200010
p295
aVOCT 31, 2012
p296
aVPHX vs. GSW
p297
aVL
p298
aI16
aI2
aI8
aF0.25
aI0
aI2
aF0.0
aI4
aI4
aF1.0
aI0
aI0
aI0
aI1
aI1
aI0
aI3
aI2
aI8
aI-15
aasS'name'
p299
VShannon Brown
p300
sS'experience'
p301
I6
s.