(dp0
S'stats'
p1
(lp2
(lp3
V0021201226
p4
aVAPR 17, 2013
p5
aVOKC vs. MIL
p6
aVL
p7
aI7
aI2
aI3
aF0.667
aI2
aI2
aF1.0
aI0
aI0
aF0.0
aI0
aI1
aI1
aI2
aI1
aI0
aI0
aI0
aI6
aI9
aI1
aa(lp8
V0021201209
p9
aVAPR 15, 2013
p10
aVOKC vs. SAC
p11
aVW
p12
aI24
aI2
aI6
aF0.333
aI0
aI4
aF0.0
aI2
aI2
aF1.0
aI0
aI0
aI0
aI2
aI1
aI2
aI1
aI2
aI6
aI8
aI1
aa(lp13
V0021201188
p14
aVAPR 12, 2013
p15
aVOKC @ POR
p16
aVW
p17
aI23
aI4
aI7
aF0.571
aI3
aI6
aF0.5
aI0
aI0
aF0.0
aI1
aI4
aI5
aI1
aI1
aI0
aI1
aI2
aI11
aI10
aI1
aa(lp18
V0021201175
p19
aVAPR 11, 2013
p20
aVOKC @ GSW
p21
aVW
p22
aI22
aI3
aI8
aF0.375
aI3
aI6
aF0.5
aI1
aI2
aF0.5
aI0
aI7
aI7
aI0
aI1
aI0
aI0
aI1
aI10
aI18
aI0
aa(lp23
V0021201161
p24
aVAPR 09, 2013
p25
aVOKC @ UTA
p26
aVW
p27
aI27
aI4
aI8
aF0.5
aI4
aI8
aF0.5
aI0
aI0
aF0.0
aI0
aI7
aI7
aI2
aI1
aI0
aI0
aI3
aI12
aI11
aI1
aa(lp28
V0021201145
p29
aVAPR 07, 2013
p30
aVOKC vs. NYK
p31
aVL
p32
aI30
aI3
aI6
aF0.5
aI2
aI4
aF0.5
aI0
aI0
aF0.0
aI0
aI3
aI3
aI1
aI3
aI0
aI2
aI5
aI8
aI0
aI1
aa(lp33
V0021201130
p34
aVAPR 05, 2013
p35
aVOKC @ IND
p36
aVW
p37
aI23
aI1
aI3
aF0.333
aI1
aI3
aF0.333
aI0
aI0
aF0.0
aI1
aI5
aI6
aI2
aI1
aI0
aI0
aI2
aI3
aI3
aI1
aa(lp38
V0021201125
p39
aVAPR 04, 2013
p40
aVOKC vs. SAS
p41
aVW
p42
aI27
aI5
aI8
aF0.625
aI1
aI2
aF0.5
aI0
aI0
aF0.0
aI3
aI2
aI5
aI1
aI1
aI0
aI0
aI0
aI11
aI5
aI0
aa(lp43
V0021201090
p44
aVMAR 30, 2013
p45
aVOKC @ MIL
p46
aVW
p47
aI17
aI1
aI3
aF0.333
aI1
aI2
aF0.5
aI0
aI0
aF0.0
aI0
aI1
aI1
aI3
aI0
aI0
aI1
aI1
aI3
aI3
aI1
aa(lp48
V0021201081
p49
aVMAR 29, 2013
p50
aVOKC @ MIN
p51
aVL
p52
aI28
aI4
aI5
aF0.8
aI2
aI2
aF1.0
aI0
aI0
aF0.0
aI0
aI3
aI3
aI0
aI0
aI1
aI2
aI3
aI10
aI-2
aI1
aa(lp53
V0021201065
p54
aVMAR 27, 2013
p55
aVOKC vs. WAS
p56
aVW
p57
aI19
aI2
aI5
aF0.4
aI2
aI3
aF0.667
aI2
aI2
aF1.0
aI0
aI3
aI3
aI0
aI1
aI1
aI0
aI2
aI8
aI9
aI1
aa(lp58
V0021201043
p59
aVMAR 24, 2013
p60
aVOKC vs. POR
p61
aVW
p62
aI19
aI1
aI2
aF0.5
aI0
aI1
aF0.0
aI2
aI2
aF1.0
aI0
aI3
aI3
aI2
aI1
aI0
aI0
aI2
aI4
aI0
aI1
aa(lp63
V0021201023
p64
aVMAR 22, 2013
p65
aVOKC @ ORL
p66
aVW
p67
aI27
aI2
aI9
aF0.222
aI0
aI4
aF0.0
aI1
aI2
aF0.5
aI0
aI5
aI5
aI1
aI1
aI0
aI1
aI3
aI5
aI-1
aI1
aa(lp68
V0021201012
p69
aVMAR 20, 2013
p70
aVOKC @ MEM
p71
aVL
p72
aI20
aI0
aI1
aF0.0
aI0
aI1
aF0.0
aI5
aI6
aF0.833
aI1
aI0
aI1
aI0
aI0
aI1
aI1
aI5
aI5
aI-15
aI1
aa(lp73
V0021201006
p74
aVMAR 19, 2013
p75
aVOKC vs. DEN
p76
aVL
p77
aI28
aI3
aI8
aF0.375
aI2
aI4
aF0.5
aI0
aI0
aF0.0
aI2
aI4
aI6
aI2
aI2
aI0
aI0
aI3
aI8
aI-15
aI1
aa(lp78
V0021200990
p79
aVMAR 17, 2013
p80
aVOKC @ DAL
p81
aVW
p82
aI28
aI2
aI6
aF0.333
aI0
aI2
aF0.0
aI0
aI0
aF0.0
aI0
aI4
aI4
aI2
aI0
aI1
aI0
aI0
aI4
aI0
aI0
aa(lp83
V0021200974
p84
aVMAR 15, 2013
p85
aVOKC vs. ORL
p86
aVW
p87
aI30
aI2
aI4
aF0.5
aI0
aI1
aF0.0
aI1
aI2
aF0.5
aI1
aI1
aI2
aI3
aI0
aI0
aI1
aI1
aI5
aI6
aI1
aa(lp88
V0021200962
p89
aVMAR 13, 2013
p90
aVOKC vs. UTA
p91
aVW
p92
aI26
aI2
aI4
aF0.5
aI1
aI2
aF0.5
aI2
aI2
aF1.0
aI1
aI3
aI4
aI1
aI1
aI1
aI0
aI2
aI7
aI12
aI1
aa(lp93
V0021200944
p94
aVMAR 11, 2013
p95
aVOKC @ SAS
p96
aVL
p97
aI31
aI2
aI5
aF0.4
aI1
aI3
aF0.333
aI2
aI2
aF1.0
aI2
aI3
aI5
aI1
aI1
aI1
aI2
aI2
aI7
aI10
aI1
aa(lp98
V0021200934
p99
aVMAR 10, 2013
p100
aVOKC vs. BOS
p101
aVW
p102
aI24
aI3
aI4
aF0.75
aI1
aI1
aF1.0
aI1
aI2
aF0.5
aI0
aI3
aI3
aI1
aI3
aI0
aI2
aI3
aI8
aI4
aI1
aa(lp103
V0021200915
p104
aVMAR 08, 2013
p105
aVOKC @ CHA
p106
aVW
p107
aI25
aI5
aI6
aF0.833
aI3
aI3
aF1.0
aI0
aI0
aF0.0
aI0
aI4
aI4
aI1
aI0
aI1
aI2
aI3
aI13
aI8
aI1
aa(lp108
V0021200913
p109
aVMAR 07, 2013
p110
aVOKC @ NYK
p111
aVW
p112
aI31
aI1
aI2
aF0.5
aI0
aI1
aF0.0
aI0
aI0
aF0.0
aI1
aI0
aI1
aI0
aI2
aI1
aI1
aI1
aI2
aI2
aI1
aa(lp113
V0021200897
p114
aVMAR 05, 2013
p115
aVOKC vs. LAL
p116
aVW
p117
aI28
aI2
aI4
aF0.5
aI1
aI3
aF0.333
aI0
aI0
aF0.0
aI1
aI0
aI1
aI1
aI2
aI0
aI0
aI5
aI5
aI8
aI1
aa(lp118
V0021200881
p119
aVMAR 03, 2013
p120
aVOKC @ LAC
p121
aVW
p122
aI39
aI4
aI7
aF0.571
aI1
aI4
aF0.25
aI0
aI0
aF0.0
aI3
aI2
aI5
aI1
aI2
aI0
aI1
aI4
aI9
aI0
aI1
aa(lp123
V0021200875
p124
aVMAR 01, 2013
p125
aVOKC @ DEN
p126
aVL
p127
aI37
aI3
aI10
aF0.3
aI2
aI5
aF0.4
aI0
aI0
aF0.0
aI3
aI9
aI12
aI5
aI2
aI3
aI1
aI5
aI8
aI14
aI0
aa(lp128
V0021200857
p129
aVFEB 27, 2013
p130
aVOKC vs. NOH
p131
aVW
p132
aI25
aI2
aI4
aF0.5
aI0
aI0
aF0.0
aI4
aI4
aF1.0
aI2
aI2
aI4
aI0
aI2
aI0
aI0
aI1
aI8
aI33
aI1
aa(lp133
V0021200838
p134
aVFEB 24, 2013
p135
aVOKC vs. CHI
p136
aVW
p137
aI23
aI3
aI5
aF0.6
aI1
aI2
aF0.5
aI4
aI4
aF1.0
aI1
aI0
aI1
aI1
aI1
aI0
aI1
aI3
aI11
aI19
aI1
aa(lp138
V0021200819
p139
aVFEB 22, 2013
p140
aVOKC vs. MIN
p141
aVW
p142
aI34
aI3
aI6
aF0.5
aI1
aI2
aF0.5
aI0
aI0
aF0.0
aI1
aI5
aI6
aI2
aI2
aI0
aI1
aI2
aI7
aI8
aI1
aa(lp143
V0021200804
p144
aVFEB 20, 2013
p145
aVOKC @ HOU
p146
aVL
p147
aI39
aI11
aI16
aF0.688
aI6
aI10
aF0.6
aI0
aI0
aF0.0
aI1
aI4
aI5
aI3
aI0
aI2
aI1
aI4
aI28
aI-10
aI1
aa(lp148
V0021200787
p149
aVFEB 14, 2013
p150
aVOKC vs. MIA
p151
aVL
p152
aI24
aI2
aI4
aF0.5
aI0
aI2
aF0.0
aI0
aI0
aF0.0
aI1
aI3
aI4
aI2
aI2
aI0
aI1
aI2
aI4
aI-5
aI1
aa(lp153
V0021200772
p154
aVFEB 12, 2013
p155
aVOKC @ UTA
p156
aVL
p157
aI23
aI0
aI2
aF0.0
aI0
aI2
aF0.0
aI0
aI0
aF0.0
aI0
aI2
aI2
aI0
aI1
aI1
aI0
aI0
aI0
aI-6
aI1
aa(lp158
V0021200759
p159
aVFEB 10, 2013
p160
aVOKC @ PHX
p161
aVW
p162
aI34
aI7
aI11
aF0.636
aI5
aI7
aF0.714
aI1
aI2
aF0.5
aI0
aI3
aI3
aI3
aI3
aI0
aI1
aI0
aI20
aI38
aI1
aa(lp163
V0021200744
p164
aVFEB 08, 2013
p165
aVOKC vs. PHX
p166
aVW
p167
aI26
aI7
aI11
aF0.636
aI4
aI6
aF0.667
aI0
aI0
aF0.0
aI0
aI2
aI2
aI1
aI1
aI2
aI2
aI4
aI18
aI35
aI1
aa(lp168
V0021200729
p169
aVFEB 06, 2013
p170
aVOKC vs. GSW
p171
aVW
p172
aI30
aI2
aI8
aF0.25
aI2
aI6
aF0.333
aI0
aI0
aF0.0
aI1
aI6
aI7
aI2
aI1
aI2
aI1
aI2
aI6
aI22
aI1
aa(lp173
V0021200712
p174
aVFEB 04, 2013
p175
aVOKC vs. DAL
p176
aVW
p177
aI25
aI3
aI9
aF0.333
aI1
aI6
aF0.167
aI0
aI0
aF0.0
aI1
aI2
aI3
aI0
aI2
aI2
aI1
aI2
aI7
aI9
aI1
aa(lp178
V0021200698
p179
aVFEB 02, 2013
p180
aVOKC @ CLE
p181
aVL
p182
aI24
aI0
aI2
aF0.0
aI0
aI1
aF0.0
aI0
aI0
aF0.0
aI0
aI3
aI3
aI0
aI3
aI0
aI1
aI1
aI0
aI0
aI1
aa(lp183
V0021200682
p184
aVJAN 31, 2013
p185
aVOKC vs. MEM
p186
aVW
p187
aI23
aI3
aI5
aF0.6
aI1
aI2
aF0.5
aI0
aI0
aF0.0
aI0
aI2
aI2
aI3
aI2
aI0
aI3
aI1
aI7
aI9
aI1
aa(lp188
V0021200653
p189
aVJAN 27, 2013
p190
aVOKC @ LAL
p191
aVL
p192
aI34
aI2
aI4
aF0.5
aI1
aI3
aF0.333
aI2
aI4
aF0.5
aI0
aI5
aI5
aI1
aI3
aI1
aI0
aI3
aI7
aI2
aI0
aa(lp193
V0021200640
p194
aVJAN 25, 2013
p195
aVOKC @ SAC
p196
aVW
p197
aI19
aI5
aI8
aF0.625
aI0
aI3
aF0.0
aI0
aI1
aF0.0
aI2
aI2
aI4
aI0
aI2
aI0
aI0
aI0
aI10
aI0
aI1
aa(lp198
V0021200628
p199
aVJAN 23, 2013
p200
aVOKC @ GSW
p201
aVL
p202
aI32
aI1
aI7
aF0.143
aI1
aI5
aF0.2
aI2
aI2
aF1.0
aI1
aI4
aI5
aI2
aI2
aI0
aI0
aI3
aI5
aI-12
aI1
aa(lp203
V0021200617
p204
aVJAN 22, 2013
p205
aVOKC @ LAC
p206
aVW
p207
aI23
aI3
aI5
aF0.6
aI3
aI5
aF0.6
aI0
aI0
aF0.0
aI0
aI2
aI2
aI1
aI1
aI0
aI1
aI1
aI9
aI-1
aI0
aa(lp208
V0021200604
p209
aVJAN 20, 2013
p210
aVOKC @ DEN
p211
aVL
p212
aI30
aI2
aI3
aF0.667
aI0
aI0
aF0.0
aI0
aI0
aF0.0
aI3
aI4
aI7
aI2
aI3
aI0
aI1
aI4
aI4
aI-13
aI1
aa(lp213
V0021200592
p214
aVJAN 18, 2013
p215
aVOKC @ DAL
p216
aVW
p217
aI25
aI0
aI4
aF0.0
aI0
aI2
aF0.0
aI0
aI0
aF0.0
aI1
aI4
aI5
aI3
aI2
aI0
aI1
aI2
aI0
aI11
aI0
aa(lp218
V0021200574
p219
aVJAN 16, 2013
p220
aVOKC vs. DEN
p221
aVW
p222
aI22
aI3
aI7
aF0.429
aI3
aI5
aF0.6
aI0
aI0
aF0.0
aI1
aI1
aI2
aI1
aI0
aI0
aI0
aI3
aI9
aI11
aI1
aa(lp223
V0021200562
p224
aVJAN 14, 2013
p225
aVOKC @ PHX
p226
aVW
p227
aI28
aI2
aI2
aF1.0
aI0
aI0
aF0.0
aI0
aI0
aF0.0
aI2
aI1
aI3
aI2
aI1
aI1
aI1
aI0
aI4
aI20
aI1
aa(lp228
V0021200539
p229
aVJAN 11, 2013
p230
aVOKC @ LAL
p231
aVW
p232
aI31
aI4
aI6
aF0.667
aI1
aI3
aF0.333
aI0
aI0
aF0.0
aI1
aI4
aI5
aI3
aI2
aI0
aI3
aI4
aI9
aI25
aI0
aa(lp233
V0021200523
p234
aVJAN 09, 2013
p235
aVOKC vs. MIN
p236
aVW
p237
aI33
aI4
aI6
aF0.667
aI2
aI2
aF1.0
aI0
aI0
aF0.0
aI0
aI3
aI3
aI3
aI3
aI0
aI2
aI4
aI10
aI12
aI1
aa(lp238
V0021200504
p239
aVJAN 07, 2013
p240
aVOKC @ WAS
p241
aVL
p242
aI29
aI5
aI7
aF0.714
aI2
aI3
aF0.667
aI2
aI2
aF1.0
aI1
aI1
aI2
aI1
aI0
aI1
aI0
aI2
aI14
aI-5
aI1
aa(lp243
V0021200499
p244
aVJAN 06, 2013
p245
aVOKC @ TOR
p246
aVW
p247
aI24
aI1
aI5
aF0.2
aI1
aI5
aF0.2
aI0
aI0
aF0.0
aI0
aI2
aI2
aI2
aI1
aI0
aI0
aI5
aI3
aI2
aI1
aa(lp248
V0021200485
p249
aVJAN 04, 2013
p250
aVOKC vs. PHI
p251
aVW
p252
aI30
aI2
aI4
aF0.5
aI1
aI2
aF0.5
aI2
aI2
aF1.0
aI0
aI3
aI3
aI3
aI1
aI0
aI0
aI1
aI7
aI17
aI1
aa(lp253
V0021200472
p254
aVJAN 02, 2013
p255
aVOKC vs. BKN
p256
aVL
p257
aI34
aI2
aI5
aF0.4
aI1
aI3
aF0.333
aI0
aI0
aF0.0
aI0
aI4
aI4
aI4
aI0
aI1
aI0
aI5
aI5
aI-2
aI1
aa(lp258
V0021200456
p259
aVDEC 31, 2012
p260
aVOKC vs. PHX
p261
aVW
p262
aI32
aI6
aI9
aF0.667
aI2
aI3
aF0.667
aI0
aI0
aF0.0
aI0
aI2
aI2
aI0
aI0
aI1
aI1
aI1
aI14
aI19
aI1
aa(lp263
V0021200443
p264
aVDEC 29, 2012
p265
aVOKC @ HOU
p266
aVW
p267
aI30
aI6
aI10
aF0.6
aI1
aI4
aF0.25
aI2
aI2
aF1.0
aI0
aI4
aI4
aI1
aI3
aI2
aI0
aI2
aI15
aI39
aI1
aa(lp268
V0021200423
p269
aVDEC 27, 2012
p270
aVOKC vs. DAL
p271
aVW
p272
aI34
aI3
aI7
aF0.429
aI2
aI6
aF0.333
aI0
aI0
aF0.0
aI0
aI2
aI2
aI2
aI3
aI1
aI2
aI2
aI8
aI9
aI1
aa(lp273
V0021200407
p274
aVDEC 25, 2012
p275
aVOKC @ MIA
p276
aVL
p277
aI28
aI0
aI1
aF0.0
aI0
aI1
aF0.0
aI0
aI0
aF0.0
aI0
aI3
aI3
aI2
aI2
aI0
aI0
aI3
aI0
aI2
aI0
aa(lp278
V0021200377
p279
aVDEC 20, 2012
p280
aVOKC @ MIN
p281
aVL
p282
aI44
aI3
aI9
aF0.333
aI1
aI5
aF0.2
aI2
aI3
aF0.667
aI1
aI4
aI5
aI1
aI4
aI0
aI0
aI4
aI9
aI-6
aI1
aa(lp283
V0021200371
p284
aVDEC 19, 2012
p285
aVOKC @ ATL
p286
aVW
p287
aI30
aI3
aI8
aF0.375
aI3
aI5
aF0.6
aI0
aI0
aF0.0
aI2
aI5
aI7
aI1
aI1
aI2
aI0
aI1
aI9
aI0
aI1
aa(lp288
V0021200354
p289
aVDEC 17, 2012
p290
aVOKC vs. SAS
p291
aVW
p292
aI24
aI1
aI8
aF0.125
aI0
aI5
aF0.0
aI0
aI0
aF0.0
aI0
aI3
aI3
aI1
aI2
aI1
aI0
aI2
aI2
aI12
aI1
aa(lp293
V0021200333
p294
aVDEC 14, 2012
p295
aVOKC vs. SAC
p296
aVW
p297
aI28
aI5
aI9
aF0.556
aI3
aI5
aF0.6
aI2
aI2
aF1.0
aI0
aI3
aI3
aI0
aI1
aI1
aI0
aI2
aI15
aI4
aI1
aa(lp298
V0021200318
p299
aVDEC 12, 2012
p300
aVOKC vs. NOH
p301
aVW
p302
aI24
aI0
aI4
aF0.0
aI0
aI3
aF0.0
aI2
aI2
aF1.0
aI0
aI6
aI6
aI0
aI0
aI2
aI0
aI1
aI2
aI-5
aI1
aa(lp303
V0021200294
p304
aVDEC 09, 2012
p305
aVOKC vs. IND
p306
aVW
p307
aI25
aI1
aI4
aF0.25
aI0
aI2
aF0.0
aI0
aI0
aF0.0
aI1
aI1
aI2
aI0
aI1
aI0
aI0
aI2
aI2
aI11
aI1
aa(lp308
V0021200280
p309
aVDEC 07, 2012
p310
aVOKC vs. LAL
p311
aVW
p312
aI34
aI2
aI4
aF0.5
aI1
aI1
aF1.0
aI0
aI0
aF0.0
aI2
aI3
aI5
aI2
aI3
aI0
aI1
aI3
aI5
aI-5
aI0
aa(lp313
V0021200253
p314
aVDEC 04, 2012
p315
aVOKC @ BKN
p316
aVW
p317
aI37
aI6
aI8
aF0.75
aI2
aI3
aF0.667
aI0
aI0
aF0.0
aI1
aI4
aI5
aI1
aI0
aI1
aI0
aI1
aI14
aI1
aI1
aa(lp318
V0021200236
p319
aVDEC 01, 2012
p320
aVOKC @ NOH
p321
aVW
p322
aI28
aI3
aI5
aF0.6
aI1
aI2
aF0.5
aI1
aI2
aF0.5
aI0
aI5
aI5
aI1
aI1
aI1
aI0
aI1
aI8
aI15
aI1
aa(lp323
V0021200229
p324
aVNOV 30, 2012
p325
aVOKC vs. UTA
p326
aVW
p327
aI27
aI3
aI6
aF0.5
aI0
aI1
aF0.0
aI0
aI0
aF0.0
aI0
aI3
aI3
aI2
aI1
aI0
aI0
aI0
aI6
aI4
aI1
aa(lp328
V0021200218
p329
aVNOV 28, 2012
p330
aVOKC vs. HOU
p331
aVW
p332
aI33
aI3
aI6
aF0.5
aI1
aI3
aF0.333
aI2
aI2
aF1.0
aI1
aI6
aI7
aI1
aI1
aI0
aI1
aI4
aI9
aI9
aI1
aa(lp333
V0021200201
p334
aVNOV 26, 2012
p335
aVOKC vs. CHA
p336
aVW
p337
aI21
aI4
aI9
aF0.444
aI4
aI8
aF0.5
aI2
aI2
aF1.0
aI1
aI3
aI4
aI3
aI1
aI0
aI0
aI0
aI14
aI45
aI1
aa(lp338
V0021200183
p339
aVNOV 24, 2012
p340
aVOKC @ PHI
p341
aVW
p342
aI38
aI2
aI7
aF0.286
aI1
aI5
aF0.2
aI1
aI2
aF0.5
aI2
aI3
aI5
aI3
aI1
aI1
aI4
aI2
aI6
aI2
aI1
aa(lp343
V0021200173
p344
aVNOV 23, 2012
p345
aVOKC @ BOS
p346
aVL
p347
aI33
aI4
aI6
aF0.667
aI1
aI3
aF0.333
aI1
aI1
aF1.0
aI0
aI2
aI2
aI4
aI0
aI0
aI0
aI5
aI10
aI-9
aI1
aa(lp348
V0021200164
p349
aVNOV 21, 2012
p350
aVOKC vs. LAC
p351
aVW
p352
aI30
aI2
aI6
aF0.333
aI2
aI5
aF0.4
aI0
aI0
aF0.0
aI1
aI5
aI6
aI0
aI2
aI0
aI0
aI2
aI6
aI-4
aI1
aa(lp353
V0021200143
p354
aVNOV 18, 2012
p355
aVOKC vs. GSW
p356
aVW
p357
aI25
aI2
aI4
aF0.5
aI1
aI3
aF0.333
aI0
aI0
aF0.0
aI0
aI2
aI2
aI3
aI0
aI0
aI0
aI1
aI5
aI1
aI1
aa(lp358
V0021200125
p359
aVNOV 16, 2012
p360
aVOKC @ NOH
p361
aVW
p362
aI21
aI3
aI6
aF0.5
aI3
aI6
aF0.5
aI2
aI2
aF1.0
aI1
aI2
aI3
aI2
aI1
aI0
aI1
aI2
aI11
aI12
aI1
aa(lp363
V0021200113
p364
aVNOV 14, 2012
p365
aVOKC vs. MEM
p366
aVL
p367
aI21
aI3
aI4
aF0.75
aI2
aI2
aF1.0
aI0
aI0
aF0.0
aI1
aI2
aI3
aI0
aI0
aI0
aI3
aI0
aI8
aI-7
aI1
aa(lp368
V0021200097
p369
aVNOV 12, 2012
p370
aVOKC @ DET
p371
aVW
p372
aI34
aI0
aI2
aF0.0
aI0
aI1
aF0.0
aI2
aI2
aF1.0
aI0
aI8
aI8
aI2
aI2
aI0
aI3
aI4
aI2
aI10
aI1
aa(lp373
V0021200093
p374
aVNOV 11, 2012
p375
aVOKC vs. CLE
p376
aVW
p377
aI29
aI3
aI6
aF0.5
aI1
aI2
aF0.5
aI0
aI0
aF0.0
aI1
aI2
aI3
aI1
aI1
aI1
aI2
aI2
aI7
aI-6
aI1
aa(lp378
V0021200075
p379
aVNOV 09, 2012
p380
aVOKC vs. DET
p381
aVW
p382
aI25
aI2
aI3
aF0.667
aI0
aI1
aF0.0
aI0
aI0
aF0.0
aI0
aI4
aI4
aI1
aI0
aI0
aI2
aI5
aI4
aI10
aI0
aa(lp383
V0021200066
p384
aVNOV 08, 2012
p385
aVOKC @ CHI
p386
aVW
p387
aI39
aI3
aI6
aF0.5
aI1
aI1
aF1.0
aI0
aI0
aF0.0
aI0
aI7
aI7
aI3
aI2
aI0
aI1
aI1
aI7
aI13
aI1
aa(lp388
V0021200051
p389
aVNOV 06, 2012
p390
aVOKC vs. TOR
p391
aVW
p392
aI25
aI4
aI6
aF0.667
aI3
aI5
aF0.6
aI0
aI0
aF0.0
aI0
aI5
aI5
aI2
aI1
aI2
aI1
aI0
aI11
aI16
aI1
aa(lp393
V0021200040
p394
aVNOV 04, 2012
p395
aVOKC vs. ATL
p396
aVL
p397
aI25
aI2
aI3
aF0.667
aI0
aI0
aF0.0
aI0
aI0
aF0.0
aI2
aI4
aI6
aI5
aI0
aI1
aI0
aI2
aI4
aI-9
aI1
aa(lp398
V0021200022
p399
aVNOV 02, 2012
p400
aVOKC vs. POR
p401
aVW
p402
aI18
aI1
aI3
aF0.333
aI0
aI0
aF0.0
aI0
aI0
aF0.0
aI1
aI2
aI3
aI0
aI0
aI1
aI0
aI2
aI2
aI0
aI1
aa(lp403
V0021200014
p404
aVNOV 01, 2012
p405
aVOKC @ SAS
p406
aVL
p407
aI27
aI2
aI7
aF0.286
aI2
aI3
aF0.667
aI2
aI2
aF1.0
aI0
aI3
aI3
aI1
aI0
aI0
aI1
aI1
aI8
aI-4
aI1
aasS'name'
p408
VThabo Sefolosha
p409
s.