(dp0
S'stats'
p1
(lp2
(lp3
V0021201225
p4
aVAPR 17, 2013
p5
aVMIN @ SAS
p6
aVW
p7
aI26
aI4
aI13
aF0.308
aI1
aI7
aF0.143
aI1
aI1
aF1.0
aI0
aI4
aI4
aI5
aI0
aI0
aI1
aI1
aI10
aI1
aI1
aa(lp8
V0021201210
p9
aVAPR 15, 2013
p10
aVMIN vs. UTA
p11
aVL
p12
aI23
aI4
aI11
aF0.364
aI2
aI6
aF0.333
aI1
aI2
aF0.5
aI0
aI0
aI0
aI5
aI0
aI0
aI3
aI2
aI11
aI-10
aI1
aa(lp13
V0021201193
p14
aVAPR 13, 2013
p15
aVMIN vs. PHX
p16
aVW
p17
aI23
aI7
aI9
aF0.778
aI2
aI3
aF0.667
aI0
aI0
aF0.0
aI2
aI0
aI2
aI2
aI0
aI0
aI3
aI1
aI16
aI12
aI1
aa(lp18
V0021201187
p19
aVAPR 12, 2013
p20
aVMIN @ UTA
p21
aVL
p22
aI27
aI6
aI14
aF0.429
aI2
aI6
aF0.333
aI9
aI10
aF0.9
aI0
aI4
aI4
aI3
aI0
aI0
aI2
aI2
aI23
aI-8
aI1
aa(lp23
V0021201173
p24
aVAPR 10, 2013
p25
aVMIN @ LAC
p26
aVL
p27
aI19
aI5
aI12
aF0.417
aI2
aI6
aF0.333
aI0
aI0
aF0.0
aI1
aI2
aI3
aI2
aI0
aI0
aI3
aI2
aI12
aI-12
aI1
aa(lp28
V0021201163
p29
aVAPR 09, 2013
p30
aVMIN @ GSW
p31
aVL
p32
aI20
aI4
aI10
aF0.4
aI3
aI7
aF0.429
aI2
aI3
aF0.667
aI0
aI3
aI3
aI4
aI1
aI0
aI2
aI1
aI13
aI3
aI1
aa(lp33
V0021201141
p34
aVAPR 06, 2013
p35
aVMIN vs. DET
p36
aVW
p37
aI21
aI9
aI13
aF0.692
aI2
aI3
aF0.667
aI0
aI3
aF0.0
aI0
aI1
aI1
aI6
aI1
aI0
aI4
aI2
aI20
aI-6
aI1
aa(lp38
V0021201132
p39
aVAPR 05, 2013
p40
aVMIN vs. TOR
p41
aVL
p42
aI15
aI0
aI5
aF0.0
aI0
aI2
aF0.0
aI0
aI0
aF0.0
aI1
aI2
aI3
aI2
aI0
aI0
aI1
aI0
aI0
aI-7
aI1
aa(lp43
V0021201116
p44
aVAPR 03, 2013
p45
aVMIN @ MIL
p46
aVW
p47
aI15
aI2
aI4
aF0.5
aI0
aI1
aF0.0
aI0
aI0
aF0.0
aI0
aI1
aI1
aI3
aI0
aI0
aI3
aI1
aI4
aI-3
aI1
aa(lp48
V0021201105
p49
aVAPR 01, 2013
p50
aVMIN vs. BOS
p51
aVW
p52
aI30
aI5
aI10
aF0.5
aI1
aI4
aF0.25
aI0
aI0
aF0.0
aI0
aI4
aI4
aI7
aI0
aI0
aI1
aI0
aI11
aI4
aI0
aa(lp53
V0021201089
p54
aVMAR 30, 2013
p55
aVMIN vs. MEM
p56
aVL
p57
aI17
aI2
aI5
aF0.4
aI1
aI2
aF0.5
aI0
aI0
aF0.0
aI0
aI0
aI0
aI1
aI0
aI0
aI0
aI2
aI5
aI-10
aI1
aa(lp58
V0021201081
p59
aVMAR 29, 2013
p60
aVMIN vs. OKC
p61
aVW
p62
aI23
aI3
aI9
aF0.333
aI0
aI3
aF0.0
aI0
aI0
aF0.0
aI0
aI1
aI1
aI2
aI0
aI0
aI0
aI0
aI6
aI8
aI1
aa(lp63
V0021201066
p64
aVMAR 27, 2013
p65
aVMIN vs. LAL
p66
aVL
p67
aI23
aI4
aI9
aF0.444
aI0
aI3
aF0.0
aI3
aI4
aF0.75
aI1
aI1
aI2
aI7
aI1
aI0
aI1
aI2
aI11
aI1
aI1
aa(lp68
V0021201055
p69
aVMAR 26, 2013
p70
aVMIN @ DET
p71
aVW
p72
aI21
aI8
aI11
aF0.727
aI5
aI7
aF0.714
aI0
aI0
aF0.0
aI1
aI1
aI2
aI1
aI0
aI0
aI3
aI1
aI21
aI-3
aI1
aa(lp73
V0021201044
p74
aVMAR 24, 2013
p75
aVMIN vs. CHI
p76
aVL
p77
aI17
aI4
aI9
aF0.444
aI1
aI2
aF0.5
aI0
aI0
aF0.0
aI0
aI4
aI4
aI4
aI0
aI0
aI0
aI3
aI9
aI-5
aI1
aa(lp78
V0021201031
p79
aVMAR 22, 2013
p80
aVMIN @ PHX
p81
aVW
p82
aI23
aI2
aI7
aF0.286
aI1
aI3
aF0.333
aI0
aI0
aF0.0
aI0
aI1
aI1
aI4
aI0
aI0
aI3
aI0
aI5
aI13
aI1
aa(lp83
V0021201021
p84
aVMAR 21, 2013
p85
aVMIN @ SAC
p86
aVL
p87
aI21
aI5
aI11
aF0.455
aI0
aI2
aF0.0
aI1
aI2
aF0.5
aI1
aI3
aI4
aI6
aI0
aI0
aI2
aI3
aI11
aI1
aI1
aa(lp88
V0021201000
p89
aVMAR 18, 2013
p90
aVMIN @ MEM
p91
aVL
p92
aI27
aI3
aI13
aF0.231
aI2
aI9
aF0.222
aI3
aI5
aF0.6
aI0
aI3
aI3
aI2
aI0
aI0
aI3
aI2
aI11
aI0
aI1
aa(lp93
V0021200989
p94
aVMAR 17, 2013
p95
aVMIN vs. NOH
p96
aVW
p97
aI15
aI1
aI3
aF0.333
aI0
aI1
aF0.0
aI4
aI4
aF1.0
aI0
aI1
aI1
aI1
aI0
aI0
aI1
aI0
aI6
aI-3
aI1
aa(lp98
V0021200973
p99
aVMAR 15, 2013
p100
aVMIN @ HOU
p101
aVL
p102
aI27
aI8
aI12
aF0.667
aI2
aI5
aF0.4
aI1
aI1
aF1.0
aI1
aI1
aI2
aI3
aI2
aI0
aI1
aI2
aI19
aI0
aI1
aa(lp103
V0021200958
p104
aVMAR 13, 2013
p105
aVMIN @ IND
p106
aVL
p107
aI26
aI2
aI9
aF0.222
aI1
aI5
aF0.2
aI0
aI0
aF0.0
aI0
aI2
aI2
aI6
aI0
aI0
aI3
aI2
aI5
aI-6
aI1
aa(lp108
V0021200954
p109
aVMAR 12, 2013
p110
aVMIN vs. SAS
p111
aVW
p112
aI26
aI6
aI14
aF0.429
aI5
aI7
aF0.714
aI0
aI0
aF0.0
aI0
aI5
aI5
aI5
aI0
aI0
aI0
aI3
aI17
aI21
aI1
aa(lp113
V0021200940
p114
aVMAR 10, 2013
p115
aVMIN vs. DAL
p116
aVL
p117
aI32
aI6
aI15
aF0.4
aI0
aI3
aF0.0
aI4
aI4
aF1.0
aI0
aI4
aI4
aI4
aI0
aI0
aI0
aI2
aI16
aI-26
aI1
aa(lp118
V0021200931
p119
aVMAR 09, 2013
p120
aVMIN @ DEN
p121
aVL
p122
aI27
aI6
aI14
aF0.429
aI3
aI6
aF0.5
aI0
aI0
aF0.0
aI0
aI2
aI2
aI4
aI3
aI0
aI3
aI5
aI15
aI-17
aI1
aa(lp123
V0021200907
p124
aVMAR 06, 2013
p125
aVMIN vs. WAS
p126
aVW
p127
aI23
aI5
aI12
aF0.417
aI2
aI4
aF0.5
aI0
aI0
aF0.0
aI0
aI2
aI2
aI0
aI0
aI0
aI1
aI0
aI12
aI5
aI1
aa(lp128
V0021200892
p129
aVMAR 04, 2013
p130
aVMIN vs. MIA
p131
aVL
p132
aI22
aI1
aI11
aF0.091
aI1
aI4
aF0.25
aI1
aI2
aF0.5
aI1
aI3
aI4
aI4
aI0
aI0
aI0
aI1
aI4
aI0
aI0
aa(lp133
V0021200879
p134
aVMAR 02, 2013
p135
aVMIN @ POR
p136
aVL
p137
aI27
aI5
aI14
aF0.357
aI1
aI3
aF0.333
aI3
aI4
aF0.75
aI0
aI5
aI5
aI2
aI2
aI0
aI0
aI0
aI14
aI0
aI1
aa(lp138
V0021200863
p139
aVFEB 28, 2013
p140
aVMIN @ LAL
p141
aVL
p142
aI25
aI8
aI14
aF0.571
aI2
aI3
aF0.667
aI2
aI2
aF1.0
aI1
aI3
aI4
aI5
aI0
aI0
aI2
aI1
aI20
aI-18
aI1
aa(lp143
V0021200849
p144
aVFEB 26, 2013
p145
aVMIN @ PHX
p146
aVL
p147
aI28
aI7
aI17
aF0.412
aI2
aI7
aF0.286
aI0
aI0
aF0.0
aI1
aI1
aI2
aI3
aI0
aI0
aI2
aI2
aI16
aI-5
aI1
aa(lp148
V0021200832
p149
aVFEB 24, 2013
p150
aVMIN vs. GSW
p151
aVL
p152
aI16
aI2
aI7
aF0.286
aI0
aI2
aF0.0
aI0
aI0
aF0.0
aI1
aI2
aI3
aI2
aI0
aI0
aI3
aI0
aI4
aI-9
aI1
aa(lp153
V0021200819
p154
aVFEB 22, 2013
p155
aVMIN @ OKC
p156
aVL
p157
aI25
aI6
aI10
aF0.6
aI2
aI4
aF0.5
aI0
aI1
aF0.0
aI0
aI3
aI3
aI4
aI0
aI0
aI1
aI6
aI14
aI-2
aI1
aa(lp158
V0021200805
p159
aVFEB 20, 2013
p160
aVMIN vs. PHI
p161
aVW
p162
aI20
aI2
aI7
aF0.286
aI0
aI2
aF0.0
aI2
aI2
aF1.0
aI0
aI3
aI3
aI2
aI0
aI0
aI1
aI1
aI6
aI-2
aI1
aa(lp163
V0021200784
p164
aVFEB 13, 2013
p165
aVMIN vs. UTA
p166
aVL
p167
aI24
aI2
aI10
aF0.2
aI1
aI5
aF0.2
aI1
aI2
aF0.5
aI0
aI1
aI1
aI6
aI1
aI0
aI2
aI0
aI6
aI-3
aI1
aa(lp168
V0021200763
p169
aVFEB 11, 2013
p170
aVMIN @ CLE
p171
aVW
p172
aI15
aI2
aI4
aF0.5
aI1
aI3
aF0.333
aI0
aI0
aF0.0
aI0
aI0
aI0
aI3
aI1
aI0
aI3
aI0
aI5
aI-6
aI1
aa(lp173
V0021200745
p174
aVFEB 08, 2013
p175
aVMIN vs. NYK
p176
aVL
p177
aI22
aI2
aI6
aF0.333
aI0
aI2
aF0.0
aI1
aI1
aF1.0
aI0
aI3
aI3
aI1
aI0
aI0
aI3
aI3
aI5
aI-9
aI1
aa(lp178
V0021200731
p179
aVFEB 06, 2013
p180
aVMIN vs. SAS
p181
aVL
p182
aI25
aI6
aI15
aF0.4
aI3
aI5
aF0.6
aI0
aI0
aF0.0
aI0
aI4
aI4
aI2
aI1
aI0
aI1
aI3
aI15
aI-10
aI0
aa(lp183
V0021200713
p184
aVFEB 04, 2013
p185
aVMIN vs. POR
p186
aVL
p187
aI27
aI7
aI13
aF0.538
aI1
aI4
aF0.25
aI2
aI2
aF1.0
aI1
aI2
aI3
aI3
aI1
aI0
aI1
aI3
aI17
aI6
aI1
aa(lp188
V0021200700
p189
aVFEB 02, 2013
p190
aVMIN vs. NOH
p191
aVW
p192
aI24
aI2
aI7
aF0.286
aI1
aI2
aF0.5
aI0
aI0
aF0.0
aI0
aI4
aI4
aI6
aI0
aI0
aI3
aI1
aI5
aI21
aI1
aa(lp193
V0021200695
p194
aVFEB 01, 2013
p195
aVMIN vs. LAL
p196
aVL
p197
aI23
aI6
aI10
aF0.6
aI2
aI4
aF0.5
aI0
aI1
aF0.0
aI0
aI1
aI1
aI3
aI0
aI0
aI4
aI4
aI14
aI-6
aI1
aa(lp198
V0021200677
p199
aVJAN 30, 2013
p200
aVMIN vs. LAC
p201
aVL
p202
aI24
aI4
aI8
aF0.5
aI1
aI3
aF0.333
aI5
aI7
aF0.714
aI0
aI1
aI1
aI4
aI1
aI0
aI1
aI3
aI14
aI5
aI1
aa(lp203
V0021200645
p204
aVJAN 26, 2013
p205
aVMIN @ CHA
p206
aVL
p207
aI32
aI7
aI18
aF0.389
aI4
aI7
aF0.571
aI1
aI1
aF1.0
aI0
aI5
aI5
aI4
aI0
aI0
aI2
aI4
aI19
aI-18
aI1
aa(lp208
V0021200632
p209
aVJAN 25, 2013
p210
aVMIN @ WAS
p211
aVL
p212
aI21
aI6
aI13
aF0.462
aI1
aI4
aF0.25
aI0
aI1
aF0.0
aI1
aI2
aI3
aI5
aI0
aI0
aI2
aI1
aI13
aI-1
aI1
aa(lp213
V0021200623
p214
aVJAN 23, 2013
p215
aVMIN vs. BKN
p216
aVL
p217
aI24
aI5
aI11
aF0.455
aI1
aI4
aF0.25
aI0
aI0
aF0.0
aI1
aI3
aI4
aI8
aI1
aI0
aI3
aI5
aI11
aI0
aI1
aa(lp218
V0021200608
p219
aVJAN 21, 2013
p220
aVMIN @ ATL
p221
aVL
p222
aI23
aI6
aI11
aF0.545
aI2
aI5
aF0.4
aI0
aI0
aF0.0
aI2
aI1
aI3
aI7
aI2
aI0
aI3
aI1
aI14
aI6
aI1
aa(lp223
V0021200597
p224
aVJAN 19, 2013
p225
aVMIN vs. HOU
p226
aVW
p227
aI25
aI5
aI13
aF0.385
aI1
aI3
aF0.333
aI0
aI0
aF0.0
aI0
aI0
aI0
aI3
aI0
aI0
aI3
aI2
aI11
aI-4
aI1
aa(lp228
V0021200581
p229
aVJAN 17, 2013
p230
aVMIN vs. LAC
p231
aVL
p232
aI19
aI2
aI10
aF0.2
aI0
aI3
aF0.0
aI0
aI0
aF0.0
aI0
aI1
aI1
aI2
aI0
aI0
aI2
aI4
aI4
aI-6
aI1
aa(lp233
V0021200560
p234
aVJAN 14, 2013
p235
aVMIN @ DAL
p236
aVL
p237
aI26
aI6
aI13
aF0.462
aI4
aI7
aF0.571
aI5
aI5
aF1.0
aI0
aI3
aI3
aI5
aI0
aI0
aI3
aI2
aI21
aI3
aI1
aa(lp238
V0021200552
p239
aVJAN 13, 2013
p240
aVMIN @ SAS
p241
aVL
p242
aI20
aI4
aI11
aF0.364
aI1
aI5
aF0.2
aI6
aI6
aF1.0
aI0
aI2
aI2
aI6
aI0
aI0
aI5
aI0
aI15
aI-12
aI1
aa(lp243
V0021200515
p244
aVJAN 08, 2013
p245
aVMIN vs. ATL
p246
aVW
p247
aI19
aI2
aI10
aF0.2
aI1
aI3
aF0.333
aI0
aI0
aF0.0
aI1
aI1
aI2
aI1
aI0
aI0
aI1
aI0
aI5
aI2
aI1
aa(lp248
V0021200494
p249
aVJAN 05, 2013
p250
aVMIN vs. POR
p251
aVL
p252
aI26
aI5
aI13
aF0.385
aI2
aI5
aF0.4
aI2
aI2
aF1.0
aI0
aI3
aI3
aI7
aI0
aI0
aI2
aI4
aI14
aI7
aI1
aa(lp253
V0021200477
p254
aVJAN 03, 2013
p255
aVMIN @ DEN
p256
aVW
p257
aI25
aI6
aI10
aF0.6
aI2
aI3
aF0.667
aI3
aI4
aF0.75
aI0
aI4
aI4
aI5
aI0
aI0
aI3
aI2
aI17
aI20
aI1
aa(lp258
V0021200473
p259
aVJAN 02, 2013
p260
aVMIN @ UTA
p261
aVL
p262
aI20
aI1
aI8
aF0.125
aI0
aI1
aF0.0
aI2
aI2
aF1.0
aI0
aI1
aI1
aI4
aI0
aI0
aI1
aI0
aI4
aI-15
aI1
aa(lp263
V0021200444
p264
aVDEC 29, 2012
p265
aVMIN vs. PHX
p266
aVW
p267
aI27
aI5
aI13
aF0.385
aI0
aI3
aF0.0
aI0
aI2
aF0.0
aI0
aI1
aI1
aI5
aI0
aI0
aI2
aI2
aI10
aI2
aI0
aa(lp268
V0021200417
p269
aVDEC 26, 2012
p270
aVMIN vs. HOU
p271
aVL
p272
aI28
aI7
aI14
aF0.5
aI2
aI6
aF0.333
aI2
aI2
aF1.0
aI1
aI6
aI7
aI3
aI1
aI0
aI4
aI2
aI18
aI0
aI1
aa(lp273
V0021200400
p274
aVDEC 23, 2012
p275
aVMIN @ NYK
p276
aVL
p277
aI38
aI4
aI14
aF0.286
aI1
aI5
aF0.2
aI3
aI3
aF1.0
aI1
aI4
aI5
aI4
aI0
aI0
aI2
aI2
aI12
aI1
aI1
aa(lp278
V0021200377
p279
aVDEC 20, 2012
p280
aVMIN vs. OKC
p281
aVW
p282
aI23
aI7
aI13
aF0.538
aI3
aI4
aF0.75
aI1
aI3
aF0.333
aI2
aI2
aI4
aI2
aI1
aI0
aI2
aI3
aI18
aI-3
aI1
aa(lp283
V0021200359
p284
aVDEC 18, 2012
p285
aVMIN @ MIA
p286
aVL
p287
aI25
aI3
aI9
aF0.333
aI1
aI3
aF0.333
aI3
aI3
aF1.0
aI0
aI4
aI4
aI3
aI0
aI0
aI3
aI2
aI10
aI-3
aI1
aa(lp288
V0021200350
p289
aVDEC 17, 2012
p290
aVMIN @ ORL
p291
aVL
p292
aI22
aI4
aI13
aF0.308
aI2
aI5
aF0.4
aI0
aI0
aF0.0
aI0
aI0
aI0
aI6
aI0
aI0
aI0
aI1
aI10
aI-18
aI1
aa(lp293
V0021200342
p294
aVDEC 15, 2012
p295
aVMIN vs. DAL
p296
aVW
p297
aI24
aI5
aI12
aF0.417
aI2
aI3
aF0.667
aI2
aI2
aF1.0
aI1
aI4
aI5
aI3
aI2
aI0
aI3
aI3
aI14
aI15
aI1
aa(lp298
V0021200331
p299
aVDEC 14, 2012
p300
aVMIN @ NOH
p301
aVW
p302
aI23
aI6
aI12
aF0.5
aI0
aI2
aF0.0
aI0
aI0
aF0.0
aI1
aI4
aI5
aI5
aI1
aI0
aI1
aI0
aI12
aI2
aI1
aa(lp303
V0021200319
p304
aVDEC 12, 2012
p305
aVMIN vs. DEN
p306
aVW
p307
aI27
aI6
aI12
aF0.5
aI0
aI2
aF0.0
aI5
aI7
aF0.714
aI0
aI5
aI5
aI8
aI2
aI0
aI1
aI2
aI17
aI-1
aI1
aa(lp308
V0021200276
p309
aVDEC 07, 2012
p310
aVMIN vs. CLE
p311
aVW
p312
aI20
aI3
aI5
aF0.6
aI2
aI3
aF0.667
aI2
aI2
aF1.0
aI0
aI3
aI3
aI2
aI1
aI0
aI2
aI1
aI10
aI9
aI1
aa(lp313
V0021200259
p314
aVDEC 05, 2012
p315
aVMIN @ BOS
p316
aVL
p317
aI23
aI4
aI8
aF0.5
aI0
aI2
aF0.0
aI2
aI4
aF0.5
aI0
aI2
aI2
aI3
aI0
aI0
aI4
aI3
aI10
aI-5
aI1
aa(lp318
V0021200251
p319
aVDEC 04, 2012
p320
aVMIN @ PHI
p321
aVW
p322
aI27
aI5
aI10
aF0.5
aI1
aI3
aF0.333
aI0
aI0
aF0.0
aI0
aI2
aI2
aI10
aI1
aI0
aI2
aI1
aI11
aI12
aI1
aa(lp323
V0021200230
p324
aVNOV 30, 2012
p325
aVMIN vs. MIL
p326
aVW
p327
aI31
aI6
aI10
aF0.6
aI1
aI1
aF1.0
aI2
aI2
aF1.0
aI1
aI0
aI1
aI5
aI0
aI0
aI3
aI0
aI15
aI1
aI1
aa(lp328
V0021200219
p329
aVNOV 28, 2012
p330
aVMIN @ LAC
p331
aVL
p332
aI17
aI2
aI8
aF0.25
aI0
aI4
aF0.0
aI4
aI5
aF0.8
aI2
aI4
aI6
aI2
aI1
aI0
aI0
aI1
aI8
aI3
aI1
aa(lp333
V0021200207
p334
aVNOV 27, 2012
p335
aVMIN @ SAC
p336
aVW
p337
aI18
aI1
aI5
aF0.2
aI0
aI2
aF0.0
aI0
aI0
aF0.0
aI1
aI3
aI4
aI6
aI0
aI0
aI1
aI2
aI2
aI5
aI1
aa(lp338
V0021200190
p339
aVNOV 24, 2012
p340
aVMIN @ GSW
p341
aVL
p342
aI31
aI2
aI6
aF0.333
aI1
aI3
aF0.333
aI3
aI3
aF1.0
aI0
aI5
aI5
aI10
aI0
aI0
aI2
aI5
aI8
aI-11
aI1
aa(lp343
V0021200182
p344
aVNOV 23, 2012
p345
aVMIN @ POR
p346
aVL
p347
aI18
aI2
aI7
aF0.286
aI0
aI4
aF0.0
aI0
aI0
aF0.0
aI0
aI2
aI2
aI1
aI1
aI0
aI3
aI0
aI4
aI-10
aI1
aa(lp348
V0021200166
p349
aVNOV 21, 2012
p350
aVMIN vs. DEN
p351
aVL
p352
aI20
aI4
aI12
aF0.333
aI4
aI7
aF0.571
aI0
aI0
aF0.0
aI2
aI2
aI4
aI3
aI1
aI0
aI3
aI3
aI12
aI-11
aI1
aa(lp353
V0021200060
p354
aVNOV 07, 2012
p355
aVMIN vs. ORL
p356
aVW
p357
aI12
aI0
aI3
aF0.0
aI0
aI1
aF0.0
aI1
aI2
aF0.5
aI2
aI0
aI2
aI5
aI1
aI0
aI3
aI1
aI1
aI9
aI1
aa(lp358
V0021200043
p359
aVNOV 05, 2012
p360
aVMIN @ BKN
p361
aVW
p362
aI30
aI3
aI8
aF0.375
aI0
aI2
aF0.0
aI0
aI0
aF0.0
aI1
aI2
aI3
aI6
aI0
aI0
aI2
aI4
aI6
aI17
aI1
aa(lp363
V0021200038
p364
aVNOV 04, 2012
p365
aVMIN @ TOR
p366
aVL
p367
aI8
aI3
aI5
aF0.6
aI1
aI3
aF0.333
aI2
aI2
aF1.0
aI0
aI1
aI1
aI1
aI0
aI0
aI0
aI0
aI9
aI-1
aI1
aa(lp368
V0021200023
p369
aVNOV 02, 2012
p370
aVMIN vs. SAC
p371
aVW
p372
aI28
aI6
aI11
aF0.545
aI1
aI2
aF0.5
aI8
aI8
aF1.0
aI1
aI3
aI4
aI5
aI1
aI0
aI1
aI1
aI21
aI26
aI1
aasS'name'
p373
VJose Juan Barea
p374
s.