(dp0
S'age'
p1
I27
sS'stats'
p2
(lp3
(lp4
V0021200565
p5
aVJAN 15, 2013
p6
aVIND @ CHA
p7
aVW
p8
aI6
aI0
aI0
aF0.0
aI0
aI0
aF0.0
aI0
aI0
aF0.0
aI0
aI0
aI0
aI1
aI0
aI0
aI0
aI0
aI0
aI-1
aa(lp9
V0021200543
p10
aVJAN 12, 2013
p11
aVIND vs. CHA
p12
aVW
p13
aI7
aI0
aI3
aF0.0
aI0
aI0
aF0.0
aI0
aI2
aF0.0
aI1
aI1
aI2
aI0
aI0
aI0
aI0
aI0
aI0
aI-3
aa(lp14
V0021200471
p15
aVJAN 02, 2013
p16
aVNOH @ HOU
p17
aVL
p18
aI16
aI1
aI3
aF0.333
aI0
aI0
aF0.0
aI0
aI0
aF0.0
aI2
aI3
aI5
aI0
aI2
aI0
aI0
aI2
aI2
aI-6
aa(lp19
V0021200437
p20
aVDEC 29, 2012
p21
aVNOH @ CHA
p22
aVW
p23
aI14
aI1
aI2
aF0.5
aI0
aI0
aF0.0
aI0
aI0
aF0.0
aI0
aI1
aI1
aI0
aI2
aI0
aI1
aI2
aI2
aI-5
aa(lp24
V0021200430
p25
aVDEC 28, 2012
p26
aVNOH vs. TOR
p27
aVL
p28
aI12
aI0
aI0
aF0.0
aI0
aI0
aF0.0
aI0
aI0
aF0.0
aI0
aI2
aI2
aI2
aI0
aI0
aI1
aI0
aI0
aI-18
aa(lp29
V0021200412
p30
aVDEC 26, 2012
p31
aVNOH @ ORL
p32
aVW
p33
aI26
aI3
aI3
aF1.0
aI0
aI0
aF0.0
aI0
aI0
aF0.0
aI0
aI4
aI4
aI0
aI0
aI1
aI1
aI3
aI6
aI-10
aa(lp34
V0021200393
p35
aVDEC 22, 2012
p36
aVNOH vs. IND
p37
aVL
p38
aI7
aI0
aI0
aF0.0
aI0
aI0
aF0.0
aI0
aI0
aF0.0
aI0
aI1
aI1
aI2
aI1
aI0
aI0
aI1
aI0
aI6
aa(lp39
V0021200387
p40
aVDEC 21, 2012
p41
aVNOH @ SAS
p42
aVL
p43
aI14
aI1
aI2
aF0.5
aI0
aI0
aF0.0
aI0
aI0
aF0.0
aI0
aI2
aI2
aI1
aI1
aI0
aI0
aI2
aI2
aI-7
aa(lp44
V0021200376
p45
aVDEC 19, 2012
p46
aVNOH @ LAC
p47
aVL
p48
aI19
aI0
aI3
aF0.0
aI0
aI0
aF0.0
aI0
aI0
aF0.0
aI1
aI2
aI3
aI1
aI1
aI1
aI1
aI1
aI0
aI-8
aa(lp49
V0021200365
p50
aVDEC 18, 2012
p51
aVNOH @ GSW
p52
aVL
p53
aI26
aI2
aI3
aF0.667
aI0
aI0
aF0.0
aI0
aI0
aF0.0
aI2
aI4
aI6
aI3
aI0
aI1
aI0
aI2
aI4
aI-4
aa(lp54
V0021200349
p55
aVDEC 16, 2012
p56
aVNOH @ POR
p57
aVL
p58
aI11
aI1
aI5
aF0.2
aI0
aI0
aF0.0
aI1
aI2
aF0.5
aI2
aI2
aI4
aI0
aI1
aI0
aI1
aI0
aI3
aI-3
aa(lp59
V0021200216
p60
aVNOV 28, 2012
p61
aVTOR @ MEM
p62
aVL
p63
aI3
aI0
aI1
aF0.0
aI0
aI0
aF0.0
aI0
aI0
aF0.0
aI1
aI1
aI2
aI0
aI0
aI1
aI0
aI0
aI0
aI3
aa(lp64
V0021200206
p65
aVNOV 27, 2012
p66
aVTOR @ HOU
p67
aVL
p68
aI10
aI0
aI1
aF0.0
aI0
aI0
aF0.0
aI0
aI0
aF0.0
aI0
aI1
aI1
aI0
aI0
aI0
aI0
aI0
aI0
aI-11
aa(lp69
V0021200191
p70
aVNOV 25, 2012
p71
aVTOR vs. SAS
p72
aVL
p73
aI16
aI0
aI0
aF0.0
aI0
aI0
aF0.0
aI0
aI0
aF0.0
aI0
aI7
aI7
aI0
aI1
aI1
aI1
aI2
aI0
aI-1
aa(lp74
V0021200175
p75
aVNOV 23, 2012
p76
aVTOR @ DET
p77
aVL
p78
aI21
aI0
aI2
aF0.0
aI0
aI0
aF0.0
aI0
aI0
aF0.0
aI1
aI3
aI4
aI1
aI1
aI0
aI1
aI1
aI0
aI-6
aa(lp79
V0021200157
p80
aVNOV 21, 2012
p81
aVTOR @ CHA
p82
aVL
p83
aI25
aI0
aI1
aF0.0
aI0
aI0
aF0.0
aI0
aI2
aF0.0
aI3
aI5
aI8
aI5
aI0
aI1
aI0
aI2
aI0
aI-4
aa(lp84
V0021200154
p85
aVNOV 20, 2012
p86
aVTOR @ PHI
p87
aVL
p88
aI20
aI2
aI3
aF0.667
aI0
aI0
aF0.0
aI0
aI0
aF0.0
aI0
aI4
aI4
aI2
aI0
aI1
aI1
aI4
aI4
aI5
aa(lp89
V0021200140
p90
aVNOV 18, 2012
p91
aVTOR vs. ORL
p92
aVW
p93
aI22
aI5
aI9
aF0.556
aI0
aI0
aF0.0
aI1
aI2
aF0.5
aI1
aI2
aI3
aI0
aI1
aI1
aI0
aI4
aI11
aI4
aa(lp94
V0021200131
p95
aVNOV 17, 2012
p96
aVTOR @ BOS
p97
aVL
p98
aI17
aI1
aI4
aF0.25
aI0
aI0
aF0.0
aI0
aI0
aF0.0
aI1
aI3
aI4
aI0
aI0
aI0
aI0
aI1
aI2
aI-8
aa(lp99
V0021200105
p100
aVNOV 13, 2012
p101
aVTOR @ IND
p102
aVW
p103
aI18
aI1
aI1
aF1.0
aI0
aI0
aF0.0
aI0
aI0
aF0.0
aI2
aI2
aI4
aI0
aI0
aI0
aI0
aI0
aI2
aI3
aa(lp104
V0021200095
p105
aVNOV 12, 2012
p106
aVTOR vs. UTA
p107
aVL
p108
aI33
aI2
aI3
aF0.667
aI0
aI0
aF0.0
aI1
aI2
aF0.5
aI0
aI3
aI3
aI1
aI0
aI1
aI1
aI4
aI5
aI-10
aa(lp109
V0021200081
p110
aVNOV 10, 2012
p111
aVTOR vs. PHI
p112
aVL
p113
aI6
aI0
aI2
aF0.0
aI0
aI0
aF0.0
aI0
aI0
aF0.0
aI0
aI0
aI0
aI1
aI0
aI0
aI0
aI0
aI0
aI-6
aa(lp114
V0021200061
p115
aVNOV 07, 2012
p116
aVTOR @ DAL
p117
aVL
p118
aI13
aI1
aI1
aF1.0
aI0
aI0
aF0.0
aI0
aI0
aF0.0
aI0
aI2
aI2
aI0
aI1
aI0
aI1
aI4
aI2
aI3
aa(lp119
V0021200051
p120
aVNOV 06, 2012
p121
aVTOR @ OKC
p122
aVL
p123
aI15
aI3
aI4
aF0.75
aI0
aI0
aF0.0
aI0
aI0
aF0.0
aI1
aI3
aI4
aI0
aI1
aI0
aI2
aI1
aI6
aI-4
aa(lp124
V0021200038
p125
aVNOV 04, 2012
p126
aVTOR vs. MIN
p127
aVW
p128
aI2
aI0
aI0
aF0.0
aI0
aI0
aF0.0
aI0
aI0
aF0.0
aI0
aI0
aI0
aI0
aI0
aI1
aI0
aI1
aI0
aI1
aa(lp129
V0021200029
p130
aVNOV 03, 2012
p131
aVTOR @ BKN
p132
aVL
p133
aI9
aI0
aI0
aF0.0
aI0
aI0
aF0.0
aI0
aI0
aF0.0
aI1
aI1
aI2
aI0
aI0
aI1
aI0
aI2
aI0
aI-8
aasS'name'
p134
VDominic McGuire
p135
sS'experience'
p136
I5
s.