(dp0
S'age'
p1
I26
sS'stats'
p2
(lp3
(lp4
V0021200015
p5
aVNOV 02, 2012
p6
aVCHA vs. IND
p7
aVW
p8
aI21
aI3
aI8
aF0.375
aI1
aI1
aF1.0
aI4
aI4
aF1.0
aI0
aI2
aI2
aI4
aI1
aI0
aI2
aI3
aI11
aI-12
aa(lp9
V0021200034
p10
aVNOV 03, 2012
p11
aVCHA @ DAL
p12
aVL
p13
aI28
aI8
aI13
aF0.615
aI1
aI3
aF0.333
aI5
aI5
aF1.0
aI0
aI4
aI4
aI5
aI0
aI0
aI1
aI0
aI22
aI-16
aa(lp14
V0021200053
p15
aVNOV 07, 2012
p16
aVCHA vs. PHX
p17
aVL
p18
aI35
aI2
aI10
aF0.2
aI1
aI3
aF0.333
aI12
aI14
aF0.857
aI1
aI2
aI3
aI9
aI0
aI0
aI3
aI0
aI17
aI-8
aa(lp19
V0021200074
p20
aVNOV 09, 2012
p21
aVCHA @ NOH
p22
aVL
p23
aI24
aI4
aI8
aF0.5
aI0
aI2
aF0.0
aI5
aI6
aF0.833
aI0
aI1
aI1
aI4
aI0
aI0
aI1
aI2
aI13
aI-9
aa(lp24
V0021200083
p25
aVNOV 10, 2012
p26
aVCHA vs. DAL
p27
aVW
p28
aI22
aI5
aI15
aF0.333
aI0
aI3
aF0.0
aI2
aI4
aF0.5
aI2
aI1
aI3
aI4
aI0
aI0
aI4
aI1
aI12
aI0
aa(lp29
V0021200103
p30
aVNOV 13, 2012
p31
aVCHA vs. WAS
p32
aVW
p33
aI30
aI7
aI18
aF0.389
aI1
aI2
aF0.5
aI6
aI8
aF0.75
aI1
aI4
aI5
aI2
aI0
aI0
aI2
aI1
aI21
aI11
aa(lp34
V0021200114
p35
aVNOV 14, 2012
p36
aVCHA @ MIN
p37
aVW
p38
aI32
aI8
aI20
aF0.4
aI0
aI5
aF0.0
aI2
aI5
aF0.4
aI1
aI5
aI6
aI4
aI2
aI0
aI0
aI0
aI18
aI2
aa(lp39
V0021200134
p40
aVNOV 17, 2012
p41
aVCHA vs. MEM
p42
aVL
p43
aI25
aI6
aI11
aF0.545
aI0
aI2
aF0.0
aI0
aI0
aF0.0
aI0
aI4
aI4
aI2
aI1
aI0
aI2
aI1
aI12
aI0
aa(lp44
V0021200148
p45
aVNOV 19, 2012
p46
aVCHA vs. MIL
p47
aVW
p48
aI32
aI6
aI13
aF0.462
aI1
aI2
aF0.5
aI10
aI10
aF1.0
aI0
aI4
aI4
aI4
aI1
aI0
aI5
aI3
aI23
aI6
aa(lp49
V0021200157
p50
aVNOV 21, 2012
p51
aVCHA vs. TOR
p52
aVW
p53
aI33
aI5
aI19
aF0.263
aI0
aI3
aF0.0
aI4
aI4
aF1.0
aI0
aI4
aI4
aI6
aI1
aI0
aI2
aI1
aI14
aI9
aa(lp54
V0021200171
p55
aVNOV 23, 2012
p56
aVCHA vs. ATL
p57
aVL
p58
aI29
aI6
aI15
aF0.4
aI2
aI4
aF0.5
aI8
aI11
aF0.727
aI0
aI4
aI4
aI4
aI2
aI0
aI0
aI2
aI22
aI5
aa(lp59
V0021200184
p60
aVNOV 24, 2012
p61
aVCHA @ WAS
p62
aVW
p63
aI41
aI6
aI14
aF0.429
aI0
aI2
aF0.0
aI9
aI11
aF0.818
aI1
aI4
aI5
aI3
aI4
aI0
aI2
aI2
aI21
aI-13
aa(lp64
V0021200201
p65
aVNOV 26, 2012
p66
aVCHA @ OKC
p67
aVL
p68
aI19
aI1
aI9
aF0.111
aI0
aI0
aF0.0
aI5
aI6
aF0.833
aI1
aI4
aI5
aI1
aI0
aI0
aI2
aI3
aI7
aI-14
aa(lp69
V0021200212
p70
aVNOV 28, 2012
p71
aVCHA @ ATL
p72
aVL
p73
aI34
aI7
aI17
aF0.412
aI0
aI2
aF0.0
aI4
aI5
aF0.8
aI0
aI2
aI2
aI8
aI2
aI0
aI3
aI1
aI18
aI1
aa(lp74
V0021200223
p75
aVNOV 30, 2012
p76
aVCHA vs. PHI
p77
aVL
p78
aI28
aI3
aI9
aF0.333
aI0
aI0
aF0.0
aI2
aI2
aF1.0
aI2
aI3
aI5
aI6
aI1
aI0
aI1
aI1
aI8
aI3
aa(lp79
V0021200245
p80
aVDEC 03, 2012
p81
aVCHA vs. POR
p82
aVL
p83
aI30
aI2
aI9
aF0.222
aI0
aI1
aF0.0
aI7
aI9
aF0.778
aI1
aI3
aI4
aI9
aI0
aI0
aI4
aI1
aI11
aI-1
aa(lp84
V0021200257
p85
aVDEC 05, 2012
p86
aVCHA vs. NYK
p87
aVL
p88
aI14
aI3
aI7
aF0.429
aI0
aI1
aF0.0
aI2
aI2
aF1.0
aI1
aI4
aI5
aI1
aI0
aI0
aI2
aI0
aI8
aI9
aa(lp89
V0021200277
p90
aVDEC 07, 2012
p91
aVCHA @ MIL
p92
aVL
p93
aI21
aI2
aI6
aF0.333
aI0
aI0
aF0.0
aI4
aI4
aF1.0
aI1
aI4
aI5
aI2
aI2
aI0
aI2
aI2
aI8
aI-18
aa(lp94
V0021200284
p95
aVDEC 08, 2012
p96
aVCHA vs. SAS
p97
aVL
p98
aI24
aI4
aI12
aF0.333
aI0
aI0
aF0.0
aI4
aI4
aF1.0
aI0
aI0
aI0
aI4
aI1
aI0
aI0
aI0
aI12
aI-22
aa(lp99
V0021200299
p100
aVDEC 10, 2012
p101
aVCHA vs. GSW
p102
aVL
p103
aI23
aI3
aI8
aF0.375
aI2
aI2
aF1.0
aI4
aI4
aF1.0
aI1
aI0
aI1
aI6
aI0
aI1
aI0
aI1
aI12
aI2
aa(lp104
V0021200313
p105
aVDEC 12, 2012
p106
aVCHA vs. LAC
p107
aVL
p108
aI22
aI3
aI10
aF0.3
aI1
aI2
aF0.5
aI4
aI5
aF0.8
aI2
aI0
aI2
aI3
aI1
aI0
aI1
aI1
aI11
aI-7
aa(lp109
V0021200322
p110
aVDEC 13, 2012
p111
aVCHA @ ATL
p112
aVL
p113
aI22
aI5
aI8
aF0.625
aI2
aI3
aF0.667
aI4
aI4
aF1.0
aI1
aI2
aI3
aI4
aI0
aI0
aI3
aI4
aI16
aI-8
aa(lp114
V0021200336
p115
aVDEC 15, 2012
p116
aVCHA vs. ORL
p117
aVL
p118
aI25
aI5
aI10
aF0.5
aI0
aI1
aF0.0
aI4
aI6
aF0.667
aI0
aI1
aI1
aI2
aI0
aI0
aI1
aI1
aI14
aI-6
aa(lp119
V0021200364
p120
aVDEC 18, 2012
p121
aVCHA @ LAL
p122
aVL
p123
aI29
aI7
aI13
aF0.538
aI2
aI3
aF0.667
aI4
aI4
aF1.0
aI1
aI3
aI4
aI6
aI0
aI0
aI1
aI1
aI20
aI-5
aa(lp124
V0021200373
p125
aVDEC 19, 2012
p126
aVCHA @ PHX
p127
aVL
p128
aI18
aI1
aI4
aF0.25
aI0
aI0
aF0.0
aI0
aI0
aF0.0
aI0
aI1
aI1
aI4
aI1
aI0
aI3
aI0
aI2
aI-22
aa(lp129
V0021200389
p130
aVDEC 21, 2012
p131
aVCHA @ GSW
p132
aVL
p133
aI23
aI4
aI10
aF0.4
aI3
aI4
aF0.75
aI6
aI6
aF1.0
aI0
aI1
aI1
aI1
aI0
aI0
aI1
aI3
aI17
aI-13
aa(lp134
V0021200396
p135
aVDEC 22, 2012
p136
aVCHA @ DEN
p137
aVL
p138
aI29
aI8
aI13
aF0.615
aI0
aI1
aF0.0
aI7
aI9
aF0.778
aI0
aI1
aI1
aI1
aI2
aI0
aI1
aI4
aI23
aI-12
aa(lp139
V0021200411
p140
aVDEC 26, 2012
p141
aVCHA vs. MIA
p142
aVL
p143
aI36
aI7
aI12
aF0.583
aI1
aI3
aF0.333
aI4
aI6
aF0.667
aI0
aI1
aI1
aI5
aI0
aI0
aI1
aI4
aI19
aI-13
aa(lp144
V0021200427
p145
aVDEC 28, 2012
p146
aVCHA @ BKN
p147
aVL
p148
aI26
aI6
aI15
aF0.4
aI0
aI2
aF0.0
aI0
aI2
aF0.0
aI1
aI1
aI2
aI2
aI1
aI0
aI2
aI0
aI12
aI-14
aa(lp149
V0021200437
p150
aVDEC 29, 2012
p151
aVCHA vs. NOH
p152
aVL
p153
aI30
aI1
aI9
aF0.111
aI0
aI2
aF0.0
aI1
aI2
aF0.5
aI0
aI1
aI1
aI5
aI1
aI0
aI1
aI0
aI3
aI-8
aa(lp154
V0021200453
p155
aVDEC 31, 2012
p156
aVCHA @ CHI
p157
aVW
p158
aI25
aI5
aI9
aF0.556
aI1
aI2
aF0.5
aI4
aI4
aF1.0
aI0
aI2
aI2
aI2
aI1
aI0
aI1
aI1
aI15
aI-11
aa(lp159
V0021200480
p160
aVJAN 04, 2013
p161
aVCHA vs. CLE
p162
aVL
p163
aI35
aI4
aI11
aF0.364
aI0
aI2
aF0.0
aI12
aI12
aF1.0
aI0
aI5
aI5
aI6
aI1
aI0
aI0
aI3
aI20
aI1
aa(lp164
V0021200501
p165
aVJAN 06, 2013
p166
aVCHA @ DET
p167
aVW
p168
aI23
aI5
aI11
aF0.455
aI1
aI2
aF0.5
aI4
aI4
aF1.0
aI1
aI1
aI2
aI1
aI2
aI0
aI2
aI2
aI15
aI4
aa(lp169
V0021200517
p170
aVJAN 09, 2013
p171
aVCHA vs. UTA
p172
aVL
p173
aI19
aI5
aI10
aF0.5
aI0
aI0
aF0.0
aI4
aI5
aF0.8
aI0
aI0
aI0
aI4
aI0
aI1
aI1
aI2
aI14
aI-6
aa(lp174
V0021200530
p175
aVJAN 11, 2013
p176
aVCHA @ TOR
p177
aVL
p178
aI29
aI3
aI11
aF0.273
aI0
aI1
aF0.0
aI5
aI6
aF0.833
aI0
aI1
aI1
aI3
aI0
aI0
aI0
aI2
aI11
aI-13
aa(lp179
V0021200543
p180
aVJAN 12, 2013
p181
aVCHA @ IND
p182
aVL
p183
aI22
aI2
aI11
aF0.182
aI0
aI1
aF0.0
aI3
aI3
aF1.0
aI0
aI2
aI2
aI6
aI1
aI0
aI0
aI0
aI7
aI-24
aa(lp184
V0021200557
p185
aVJAN 14, 2013
p186
aVCHA @ BOS
p187
aVL
p188
aI24
aI5
aI11
aF0.455
aI1
aI2
aF0.5
aI5
aI6
aF0.833
aI1
aI3
aI4
aI3
aI0
aI1
aI1
aI2
aI16
aI7
aa(lp189
V0021200565
p190
aVJAN 15, 2013
p191
aVCHA vs. IND
p192
aVL
p193
aI28
aI3
aI10
aF0.3
aI0
aI1
aF0.0
aI7
aI8
aF0.875
aI0
aI2
aI2
aI1
aI1
aI0
aI1
aI1
aI13
aI-8
aa(lp194
V0021200586
p195
aVJAN 18, 2013
p196
aVCHA @ ORL
p197
aVW
p198
aI30
aI4
aI13
aF0.308
aI1
aI2
aF0.5
aI6
aI8
aF0.75
aI0
aI4
aI4
aI7
aI0
aI1
aI1
aI4
aI15
aI4
aa(lp199
V0021200593
p200
aVJAN 19, 2013
p201
aVCHA vs. SAC
p202
aVL
p203
aI29
aI5
aI10
aF0.5
aI1
aI1
aF1.0
aI5
aI7
aF0.714
aI0
aI5
aI5
aI4
aI1
aI1
aI2
aI1
aI16
aI-1
aa(lp204
V0021200607
p205
aVJAN 21, 2013
p206
aVCHA vs. HOU
p207
aVL
p208
aI29
aI6
aI15
aF0.4
aI0
aI3
aF0.0
aI7
aI8
aF0.875
aI0
aI8
aI8
aI5
aI0
aI0
aI1
aI1
aI19
aI-16
aa(lp209
V0021200618
p210
aVJAN 23, 2013
p211
aVCHA vs. ATL
p212
aVL
p213
aI30
aI10
aI16
aF0.625
aI1
aI2
aF0.5
aI6
aI6
aF1.0
aI0
aI3
aI3
aI5
aI2
aI0
aI1
aI2
aI27
aI-1
aa(lp214
V0021200645
p215
aVJAN 26, 2013
p216
aVCHA vs. MIN
p217
aVW
p218
aI34
aI7
aI11
aF0.636
aI0
aI1
aF0.0
aI9
aI10
aF0.9
aI1
aI2
aI3
aI4
aI0
aI0
aI6
aI2
aI23
aI12
aa(lp219
V0021200663
p220
aVJAN 28, 2013
p221
aVCHA @ CHI
p222
aVL
p223
aI26
aI2
aI9
aF0.222
aI0
aI0
aF0.0
aI3
aI3
aF1.0
aI0
aI2
aI2
aI4
aI1
aI0
aI1
aI3
aI7
aI-15
aa(lp224
V0021200678
p225
aVJAN 30, 2013
p226
aVCHA @ SAS
p227
aVL
p228
aI37
aI8
aI19
aF0.421
aI0
aI2
aF0.0
aI4
aI4
aF1.0
aI1
aI2
aI3
aI1
aI3
aI0
aI3
aI1
aI20
aI-14
aa(lp229
V0021200699
p230
aVFEB 02, 2013
p231
aVCHA @ HOU
p232
aVL
p233
aI29
aI5
aI9
aF0.556
aI1
aI2
aF0.5
aI9
aI11
aF0.818
aI0
aI2
aI2
aI6
aI0
aI0
aI3
aI1
aI20
aI3
aa(lp234
V0021200711
p235
aVFEB 04, 2013
p236
aVCHA @ MIA
p237
aVL
p238
aI36
aI4
aI9
aF0.444
aI0
aI1
aF0.0
aI10
aI10
aF1.0
aI0
aI3
aI3
aI2
aI1
aI1
aI2
aI2
aI18
aI-4
aa(lp239
V0021200724
p240
aVFEB 06, 2013
p241
aVCHA @ CLE
p242
aVL
p243
aI27
aI5
aI10
aF0.5
aI0
aI0
aF0.0
aI4
aI4
aF1.0
aI0
aI3
aI3
aI3
aI1
aI0
aI5
aI0
aI14
aI-9
aa(lp244
V0021200736
p245
aVFEB 08, 2013
p246
aVCHA vs. LAL
p247
aVL
p248
aI29
aI5
aI12
aF0.417
aI1
aI2
aF0.5
aI1
aI2
aF0.5
aI0
aI2
aI2
aI7
aI0
aI0
aI0
aI1
aI12
aI-19
aa(lp249
V0021200748
p250
aVFEB 09, 2013
p251
aVCHA @ PHI
p252
aVL
p253
aI34
aI6
aI16
aF0.375
aI1
aI2
aF0.5
aI7
aI7
aF1.0
aI0
aI3
aI3
aI4
aI1
aI1
aI1
aI3
aI20
aI2
aa(lp254
V0021200762
p255
aVFEB 11, 2013
p256
aVCHA vs. BOS
p257
aVW
p258
aI31
aI6
aI11
aF0.545
aI1
aI2
aF0.5
aI6
aI8
aF0.75
aI0
aI2
aI2
aI1
aI1
aI0
aI1
aI3
aI19
aI-10
aa(lp259
V0021200777
p260
aVFEB 13, 2013
p261
aVCHA @ IND
p262
aVL
p263
aI25
aI3
aI9
aF0.333
aI1
aI2
aF0.5
aI6
aI6
aF1.0
aI1
aI2
aI3
aI1
aI2
aI0
aI3
aI1
aI13
aI-13
aa(lp264
V0021200790
p265
aVFEB 19, 2013
p266
aVCHA @ ORL
p267
aVW
p268
aI29
aI2
aI9
aF0.222
aI1
aI3
aF0.333
aI5
aI8
aF0.625
aI1
aI3
aI4
aI4
aI0
aI0
aI3
aI2
aI10
aI2
aa(lp269
V0021200799
p270
aVFEB 20, 2013
p271
aVCHA vs. DET
p272
aVL
p273
aI32
aI6
aI11
aF0.545
aI2
aI3
aF0.667
aI4
aI6
aF0.667
aI1
aI5
aI6
aI8
aI2
aI0
aI1
aI2
aI18
aI4
aa(lp274
V0021200813
p275
aVFEB 22, 2013
p276
aVCHA vs. CHI
p277
aVL
p278
aI23
aI0
aI9
aF0.0
aI0
aI1
aF0.0
aI5
aI8
aF0.625
aI1
aI1
aI2
aI2
aI0
aI0
aI1
aI0
aI5
aI-11
aa(lp279
V0021200824
p280
aVFEB 23, 2013
p281
aVCHA vs. DEN
p282
aVL
p283
aI22
aI4
aI8
aF0.5
aI0
aI1
aF0.0
aI1
aI2
aF0.5
aI0
aI1
aI1
aI4
aI0
aI0
aI1
aI2
aI9
aI-14
aa(lp284
V0021200850
p285
aVFEB 26, 2013
p286
aVCHA @ LAC
p287
aVL
p288
aI26
aI3
aI7
aF0.429
aI0
aI0
aF0.0
aI5
aI6
aF0.833
aI0
aI0
aI0
aI3
aI0
aI0
aI2
aI1
aI11
aI-11
aa(lp289
V0021200873
p290
aVMAR 01, 2013
p291
aVCHA @ UTA
p292
aVL
p293
aI18
aI4
aI8
aF0.5
aI0
aI2
aF0.0
aI3
aI4
aF0.75
aI0
aI0
aI0
aI1
aI1
aI0
aI5
aI1
aI11
aI-13
aa(lp294
V0021200884
p295
aVMAR 03, 2013
p296
aVCHA @ SAC
p297
aVL
p298
aI17
aI0
aI5
aF0.0
aI0
aI1
aF0.0
aI4
aI4
aF1.0
aI0
aI0
aI0
aI2
aI0
aI0
aI0
aI1
aI4
aI-27
aa(lp299
V0021200894
p300
aVMAR 04, 2013
p301
aVCHA @ POR
p302
aVL
p303
aI27
aI8
aI11
aF0.727
aI0
aI1
aF0.0
aI2
aI3
aF0.667
aI0
aI0
aI0
aI3
aI1
aI0
aI1
aI1
aI18
aI-9
aa(lp304
V0021200899
p305
aVMAR 06, 2013
p306
aVCHA vs. BKN
p307
aVL
p308
aI20
aI3
aI10
aF0.3
aI1
aI3
aF0.333
aI2
aI2
aF1.0
aI1
aI2
aI3
aI2
aI1
aI0
aI1
aI0
aI9
aI4
aasS'name'
p309
VRamon Sessions
p310
sS'experience'
p311
I5
s.