(dp0
S'stats'
p1
(lp2
(lp3
V0021200005
p4
aVOCT 31, 2012
p5
aVPHI vs. DEN
p6
aVW
p7
aI31
aI6
aI11
aF0.545
aI2
aI3
aF0.667
aI2
aI2
aF1.0
aI3
aI9
aI12
aI2
aI2
aI5
aI3
aI1
aI16
aI10
aa(lp8
V0021200037
p9
aVNOV 04, 2012
p10
aVPHI @ NYK
p11
aVL
p12
aI15
aI4
aI6
aF0.667
aI0
aI0
aF0.0
aI0
aI0
aF0.0
aI0
aI5
aI5
aI2
aI0
aI0
aI0
aI4
aI8
aI-8
aa(lp13
V0021200042
p14
aVNOV 05, 2012
p15
aVPHI vs. NYK
p16
aVL
p17
aI21
aI1
aI4
aF0.25
aI0
aI0
aF0.0
aI0
aI2
aF0.0
aI3
aI4
aI7
aI2
aI0
aI0
aI1
aI2
aI2
aI-20
aa(lp18
V0021200058
p19
aVNOV 07, 2012
p20
aVPHI @ NOH
p21
aVW
p22
aI23
aI5
aI13
aF0.385
aI1
aI2
aF0.5
aI0
aI0
aF0.0
aI1
aI5
aI6
aI0
aI0
aI3
aI0
aI4
aI11
aI2
aa(lp23
V0021200070
p24
aVNOV 09, 2012
p25
aVPHI @ BOS
p26
aVW
p27
aI22
aI4
aI7
aF0.571
aI0
aI0
aF0.0
aI0
aI0
aF0.0
aI2
aI4
aI6
aI1
aI0
aI0
aI1
aI5
aI8
aI14
aa(lp28
V0021200081
p29
aVNOV 10, 2012
p30
aVPHI @ TOR
p31
aVW
p32
aI23
aI5
aI10
aF0.5
aI0
aI0
aF0.0
aI2
aI4
aF0.5
aI2
aI9
aI11
aI3
aI0
aI1
aI1
aI1
aI12
aI14
aa(lp33
V0021200096
p34
aVNOV 12, 2012
p35
aVPHI vs. MIL
p36
aVL
p37
aI26
aI3
aI11
aF0.273
aI0
aI1
aF0.0
aI0
aI0
aF0.0
aI1
aI4
aI5
aI1
aI0
aI0
aI1
aI3
aI6
aI1
aa(lp38
V0021200109
p39
aVNOV 14, 2012
p40
aVPHI vs. DET
p41
aVL
p42
aI15
aI1
aI5
aF0.2
aI0
aI1
aF0.0
aI3
aI4
aF0.75
aI1
aI1
aI2
aI1
aI0
aI0
aI1
aI1
aI5
aI-11
aa(lp43
V0021200122
p44
aVNOV 16, 2012
p45
aVPHI vs. UTA
p46
aVW
p47
aI13
aI2
aI5
aF0.4
aI0
aI0
aF0.0
aI0
aI0
aF0.0
aI1
aI2
aI3
aI1
aI0
aI2
aI2
aI4
aI4
aI-20
aa(lp48
V0021200141
p49
aVNOV 18, 2012
p50
aVPHI vs. CLE
p51
aVW
p52
aI28
aI5
aI13
aF0.385
aI1
aI2
aF0.5
aI3
aI4
aF0.75
aI3
aI6
aI9
aI1
aI1
aI4
aI1
aI3
aI14
aI9
aa(lp53
V0021200154
p54
aVNOV 20, 2012
p55
aVPHI vs. TOR
p56
aVW
p57
aI16
aI2
aI4
aF0.5
aI0
aI0
aF0.0
aI2
aI2
aF1.0
aI0
aI3
aI3
aI2
aI0
aI2
aI1
aI2
aI6
aI-3
aa(lp58
V0021200159
p59
aVNOV 21, 2012
p60
aVPHI @ CLE
p61
aVL
p62
aI19
aI2
aI5
aF0.4
aI0
aI1
aF0.0
aI0
aI1
aF0.0
aI3
aI2
aI5
aI2
aI1
aI2
aI0
aI0
aI4
aI-4
aa(lp63
V0021200183
p64
aVNOV 24, 2012
p65
aVPHI vs. OKC
p66
aVL
p67
aI19
aI3
aI6
aF0.5
aI0
aI0
aF0.0
aI1
aI3
aF0.333
aI0
aI3
aI3
aI2
aI0
aI0
aI1
aI3
aI7
aI-3
aa(lp68
V0021200194
p69
aVNOV 25, 2012
p70
aVPHI vs. PHX
p71
aVW
p72
aI20
aI3
aI5
aF0.6
aI0
aI0
aF0.0
aI0
aI0
aF0.0
aI1
aI1
aI2
aI2
aI0
aI1
aI2
aI3
aI6
aI-3
aa(lp73
V0021200204
p74
aVNOV 27, 2012
p75
aVPHI vs. DAL
p76
aVW
p77
aI13
aI3
aI5
aF0.6
aI0
aI0
aF0.0
aI0
aI0
aF0.0
aI0
aI2
aI2
aI0
aI1
aI0
aI0
aI2
aI6
aI-7
aa(lp78
V0021200223
p79
aVNOV 30, 2012
p80
aVPHI @ CHA
p81
aVW
p82
aI14
aI1
aI2
aF0.5
aI0
aI0
aF0.0
aI0
aI0
aF0.0
aI0
aI2
aI2
aI1
aI0
aI0
aI1
aI2
aI2
aI0
aa(lp83
V0021200235
p84
aVDEC 01, 2012
p85
aVPHI @ CHI
p86
aVL
p87
aI22
aI2
aI7
aF0.286
aI0
aI0
aF0.0
aI2
aI2
aF1.0
aI3
aI3
aI6
aI0
aI0
aI0
aI3
aI3
aI6
aI-5
aa(lp88
V0021200251
p89
aVDEC 04, 2012
p90
aVPHI vs. MIN
p91
aVL
p92
aI22
aI2
aI6
aF0.333
aI1
aI2
aF0.5
aI1
aI2
aF0.5
aI2
aI2
aI4
aI2
aI0
aI0
aI1
aI0
aI6
aI-16
aa(lp93
V0021200270
p94
aVDEC 07, 2012
p95
aVPHI vs. BOS
p96
aVW
p97
aI22
aI5
aI10
aF0.5
aI0
aI0
aF0.0
aI0
aI0
aF0.0
aI3
aI3
aI6
aI1
aI1
aI1
aI2
aI2
aI10
aI-1
aa(lp98
V0021200285
p99
aVDEC 08, 2012
p100
aVPHI @ BOS
p101
aVL
p102
aI29
aI3
aI7
aF0.429
aI0
aI1
aF0.0
aI0
aI0
aF0.0
aI2
aI6
aI8
aI1
aI0
aI2
aI0
aI5
aI6
aI-11
aa(lp103
V0021200298
p104
aVDEC 10, 2012
p105
aVPHI vs. DET
p106
aVW
p107
aI32
aI7
aI14
aF0.5
aI0
aI1
aF0.0
aI1
aI2
aF0.5
aI4
aI4
aI8
aI2
aI0
aI3
aI1
aI4
aI15
aI-8
aa(lp108
V0021200312
p109
aVDEC 12, 2012
p110
aVPHI vs. CHI
p111
aVL
p112
aI29
aI5
aI12
aF0.417
aI0
aI2
aF0.0
aI0
aI0
aF0.0
aI6
aI4
aI10
aI0
aI0
aI1
aI1
aI5
aI10
aI-6
aa(lp113
V0021200327
p114
aVDEC 14, 2012
p115
aVPHI @ IND
p116
aVL
p117
aI24
aI8
aI15
aF0.533
aI0
aI0
aF0.0
aI2
aI2
aF1.0
aI2
aI1
aI3
aI1
aI0
aI0
aI2
aI4
aI18
aI5
aa(lp118
V0021200347
p119
aVDEC 16, 2012
p120
aVPHI vs. LAL
p121
aVL
p122
aI24
aI7
aI12
aF0.583
aI2
aI3
aF0.667
aI0
aI0
aF0.0
aI3
aI3
aI6
aI1
aI0
aI0
aI3
aI5
aI16
aI-10
aa(lp123
V0021200362
p124
aVDEC 18, 2012
p125
aVPHI @ DAL
p126
aVL
p127
aI27
aI5
aI7
aF0.714
aI0
aI0
aF0.0
aI8
aI8
aF1.0
aI4
aI3
aI7
aI0
aI0
aI1
aI2
aI2
aI18
aI4
aa(lp128
V0021200372
p129
aVDEC 19, 2012
p130
aVPHI @ HOU
p131
aVL
p132
aI24
aI4
aI11
aF0.364
aI0
aI1
aF0.0
aI6
aI7
aF0.857
aI5
aI1
aI6
aI0
aI0
aI0
aI4
aI5
aI14
aI-8
aa(lp133
V0021200381
p134
aVDEC 21, 2012
p135
aVPHI vs. ATL
p136
aVW
p137
aI20
aI5
aI10
aF0.5
aI1
aI1
aF1.0
aI1
aI1
aF1.0
aI3
aI5
aI8
aI2
aI0
aI2
aI1
aI3
aI12
aI5
aa(lp138
V0021200399
p139
aVDEC 23, 2012
p140
aVPHI @ BKN
p141
aVL
p142
aI20
aI2
aI9
aF0.222
aI0
aI0
aF0.0
aI1
aI2
aF0.5
aI2
aI2
aI4
aI3
aI0
aI0
aI0
aI1
aI5
aI-4
aa(lp143
V0021200416
p144
aVDEC 26, 2012
p145
aVPHI @ MEM
p146
aVW
p147
aI31
aI9
aI14
aF0.643
aI0
aI1
aF0.0
aI2
aI4
aF0.5
aI3
aI6
aI9
aI1
aI3
aI5
aI3
aI4
aI20
aI24
aa(lp148
V0021200436
p149
aVDEC 28, 2012
p150
aVPHI @ GSW
p151
aVL
p152
aI9
aI1
aI3
aF0.333
aI0
aI1
aF0.0
aI0
aI0
aF0.0
aI0
aI1
aI1
aI1
aI0
aI0
aI2
aI5
aI2
aI-7
aa(lp153
V0021200446
p154
aVDEC 29, 2012
p155
aVPHI @ POR
p156
aVL
p157
aI25
aI2
aI10
aF0.2
aI0
aI2
aF0.0
aI6
aI6
aF1.0
aI4
aI7
aI11
aI1
aI0
aI0
aI1
aI2
aI10
aI-2
aa(lp158
V0021200463
p159
aVJAN 01, 2013
p160
aVPHI @ LAL
p161
aVW
p162
aI27
aI5
aI9
aF0.556
aI0
aI1
aF0.0
aI3
aI4
aF0.75
aI1
aI4
aI5
aI6
aI0
aI4
aI1
aI2
aI13
aI0
aa(lp163
V0021200474
p164
aVJAN 02, 2013
p165
aVPHI @ PHX
p166
aVL
p167
aI24
aI3
aI11
aF0.273
aI0
aI1
aF0.0
aI0
aI0
aF0.0
aI2
aI5
aI7
aI3
aI0
aI1
aI3
aI2
aI6
aI-8
aa(lp168
V0021200485
p169
aVJAN 04, 2013
p170
aVPHI @ OKC
p171
aVL
p172
aI31
aI3
aI11
aF0.273
aI0
aI1
aF0.0
aI0
aI0
aF0.0
aI5
aI8
aI13
aI0
aI0
aI2
aI3
aI3
aI6
aI-14
aa(lp173
V0021200496
p174
aVJAN 05, 2013
p175
aVPHI @ SAS
p176
aVL
p177
aI28
aI10
aI13
aF0.769
aI0
aI0
aF0.0
aI2
aI2
aF1.0
aI0
aI6
aI6
aI1
aI1
aI0
aI2
aI2
aI22
aI-4
aa(lp178
V0021200511
p179
aVJAN 08, 2013
p180
aVPHI vs. BKN
p181
aVL
p182
aI24
aI6
aI9
aF0.667
aI2
aI2
aF1.0
aI0
aI2
aF0.0
aI0
aI1
aI1
aI4
aI0
aI2
aI1
aI4
aI14
aI-5
aa(lp183
V0021200516
p184
aVJAN 09, 2013
p185
aVPHI @ TOR
p186
aVL
p187
aI28
aI2
aI8
aF0.25
aI0
aI0
aF0.0
aI2
aI2
aF1.0
aI2
aI7
aI9
aI2
aI0
aI2
aI2
aI4
aI6
aI-15
aa(lp188
V0021200544
p189
aVJAN 12, 2013
p190
aVPHI vs. HOU
p191
aVW
p192
aI26
aI5
aI9
aF0.556
aI0
aI1
aF0.0
aI0
aI0
aF0.0
aI0
aI8
aI8
aI3
aI1
aI3
aI1
aI4
aI10
aI14
aa(lp193
V0021200564
p194
aVJAN 15, 2013
p195
aVPHI vs. NOH
p196
aVL
p197
aI21
aI2
aI6
aF0.333
aI1
aI2
aF0.5
aI0
aI0
aF0.0
aI0
aI2
aI2
aI2
aI0
aI0
aI2
aI1
aI5
aI-9
aa(lp198
V0021200585
p199
aVJAN 18, 2013
p200
aVPHI vs. TOR
p201
aVW
p202
aI27
aI5
aI8
aF0.625
aI0
aI2
aF0.0
aI2
aI2
aF1.0
aI4
aI1
aI5
aI3
aI0
aI1
aI2
aI1
aI12
aI4
aa(lp203
V0021200611
p204
aVJAN 21, 2013
p205
aVPHI vs. SAS
p206
aVL
p207
aI35
aI7
aI12
aF0.583
aI1
aI2
aF0.5
aI1
aI2
aF0.5
aI1
aI5
aI6
aI4
aI1
aI3
aI1
aI1
aI16
aI14
aa(lp208
V0021200616
p209
aVJAN 22, 2013
p210
aVPHI @ MIL
p211
aVL
p212
aI36
aI10
aI16
aF0.625
aI0
aI1
aF0.0
aI1
aI1
aF1.0
aI6
aI6
aI12
aI2
aI0
aI0
aI1
aI4
aI21
aI-7
aa(lp213
V0021200643
p214
aVJAN 26, 2013
p215
aVPHI vs. NYK
p216
aVW
p217
aI29
aI2
aI4
aF0.5
aI0
aI1
aF0.0
aI0
aI2
aF0.0
aI1
aI4
aI5
aI1
aI0
aI4
aI2
aI3
aI4
aI16
aa(lp218
V0021200660
p219
aVJAN 28, 2013
p220
aVPHI vs. MEM
p221
aVL
p222
aI36
aI4
aI7
aF0.571
aI0
aI1
aF0.0
aI0
aI0
aF0.0
aI0
aI4
aI4
aI1
aI0
aI1
aI2
aI3
aI8
aI-5
aa(lp223
V0021200670
p224
aVJAN 30, 2013
p225
aVPHI vs. WAS
p226
aVW
p227
aI38
aI4
aI13
aF0.308
aI1
aI1
aF1.0
aI3
aI4
aF0.75
aI2
aI9
aI11
aI4
aI0
aI4
aI0
aI1
aI12
aI-2
aa(lp228
V0021200689
p229
aVFEB 01, 2013
p230
aVPHI vs. SAC
p231
aVW
p232
aI26
aI4
aI13
aF0.308
aI0
aI1
aF0.0
aI2
aI2
aF1.0
aI0
aI1
aI1
aI1
aI0
aI0
aI3
aI2
aI10
aI-9
aa(lp233
V0021200708
p234
aVFEB 04, 2013
p235
aVPHI vs. ORL
p236
aVW
p237
aI37
aI9
aI17
aF0.529
aI1
aI3
aF0.333
aI2
aI3
aF0.667
aI1
aI13
aI14
aI3
aI0
aI1
aI2
aI3
aI21
aI20
aa(lp238
V0021200721
p239
aVFEB 06, 2013
p240
aVPHI vs. IND
p241
aVL
p242
aI34
aI3
aI13
aF0.231
aI0
aI0
aF0.0
aI0
aI0
aF0.0
aI6
aI4
aI10
aI3
aI0
aI2
aI0
aI3
aI6
aI-11
aa(lp243
V0021200748
p244
aVFEB 09, 2013
p245
aVPHI vs. CHA
p246
aVW
p247
aI40
aI8
aI15
aF0.533
aI1
aI3
aF0.333
aI0
aI0
aF0.0
aI2
aI7
aI9
aI3
aI1
aI0
aI2
aI2
aI17
aI5
aa(lp248
V0021200761
p249
aVFEB 11, 2013
p250
aVPHI vs. LAC
p251
aVL
p252
aI29
aI2
aI7
aF0.286
aI0
aI0
aF0.0
aI1
aI2
aF0.5
aI4
aI6
aI10
aI3
aI0
aI0
aI4
aI3
aI5
aI-20
aa(lp253
V0021200782
p254
aVFEB 13, 2013
p255
aVPHI @ MIL
p256
aVL
p257
aI41
aI7
aI14
aF0.5
aI0
aI1
aF0.0
aI5
aI6
aF0.833
aI2
aI7
aI9
aI2
aI0
aI1
aI1
aI3
aI19
aI-4
aa(lp258
V0021200805
p259
aVFEB 20, 2013
p260
aVPHI @ MIN
p261
aVL
p262
aI32
aI3
aI9
aF0.333
aI0
aI1
aF0.0
aI3
aI4
aF0.75
aI2
aI6
aI8
aI3
aI0
aI1
aI2
aI4
aI9
aI-8
aa(lp263
V0021200826
p264
aVFEB 23, 2013
p265
aVPHI vs. MIA
p266
aVL
p267
aI25
aI1
aI5
aF0.2
aI0
aI0
aF0.0
aI0
aI0
aF0.0
aI0
aI2
aI2
aI3
aI0
aI1
aI2
aI2
aI2
aI-15
aa(lp268
V0021200835
p269
aVFEB 24, 2013
p270
aVPHI @ NYK
p271
aVL
p272
aI29
aI3
aI11
aF0.273
aI0
aI0
aF0.0
aI4
aI4
aF1.0
aI5
aI4
aI9
aI1
aI0
aI1
aI2
aI2
aI10
aI-7
aa(lp273
V0021200843
p274
aVFEB 26, 2013
p275
aVPHI vs. ORL
p276
aVL
p277
aI21
aI2
aI6
aF0.333
aI0
aI1
aF0.0
aI2
aI2
aF1.0
aI0
aI1
aI1
aI1
aI0
aI1
aI2
aI1
aI6
aI-17
aa(lp278
V0021200862
p279
aVFEB 28, 2013
p280
aVPHI @ CHI
p281
aVL
p282
aI37
aI7
aI18
aF0.389
aI0
aI1
aF0.0
aI6
aI6
aF1.0
aI5
aI10
aI15
aI1
aI0
aI2
aI0
aI5
aI20
aI-6
aa(lp283
V0021200876
p284
aVMAR 02, 2013
p285
aVPHI vs. GSW
p286
aVW
p287
aI20
aI0
aI9
aF0.0
aI0
aI0
aF0.0
aI0
aI0
aF0.0
aI1
aI3
aI4
aI2
aI0
aI1
aI3
aI3
aI0
aI-8
aa(lp288
V0021200882
p289
aVMAR 03, 2013
p290
aVPHI @ WAS
p291
aVL
p292
aI39
aI6
aI11
aF0.545
aI1
aI2
aF0.5
aI1
aI2
aF0.5
aI2
aI9
aI11
aI3
aI0
aI1
aI1
aI4
aI14
aI-8
aa(lp293
V0021200896
p294
aVMAR 05, 2013
p295
aVPHI vs. BOS
p296
aVL
p297
aI28
aI7
aI12
aF0.583
aI0
aI0
aF0.0
aI0
aI0
aF0.0
aI4
aI2
aI6
aI1
aI0
aI2
aI2
aI2
aI14
aI8
aa(lp298
V0021200902
p299
aVMAR 06, 2013
p300
aVPHI @ ATL
p301
aVL
p302
aI21
aI3
aI7
aF0.429
aI0
aI0
aF0.0
aI2
aI2
aF1.0
aI1
aI10
aI11
aI3
aI0
aI0
aI2
aI4
aI8
aI-6
aa(lp303
V0021200921
p304
aVMAR 08, 2013
p305
aVPHI @ MIA
p306
aVL
p307
aI30
aI4
aI10
aF0.4
aI0
aI1
aF0.0
aI5
aI5
aF1.0
aI0
aI10
aI10
aI1
aI0
aI2
aI3
aI5
aI13
aI-10
aa(lp308
V0021200937
p309
aVMAR 10, 2013
p310
aVPHI @ ORL
p311
aVL
p312
aI32
aI6
aI12
aF0.5
aI1
aI1
aF1.0
aI2
aI2
aF1.0
aI1
aI6
aI7
aI4
aI0
aI0
aI0
aI2
aI15
aI4
aa(lp313
V0021200943
p314
aVMAR 11, 2013
p315
aVPHI vs. BKN
p316
aVW
p317
aI34
aI10
aI15
aF0.667
aI0
aI0
aF0.0
aI4
aI6
aF0.667
aI4
aI6
aI10
aI7
aI0
aI2
aI1
aI3
aI24
aI5
aa(lp318
V0021200956
p319
aVMAR 13, 2013
p320
aVPHI vs. MIA
p321
aVL
p322
aI23
aI2
aI5
aF0.4
aI0
aI0
aF0.0
aI2
aI2
aF1.0
aI1
aI4
aI5
aI2
aI0
aI0
aI2
aI5
aI6
aI-1
aa(lp323
V0021200981
p324
aVMAR 16, 2013
p325
aVPHI vs. IND
p326
aVW
p327
aI34
aI7
aI14
aF0.5
aI1
aI1
aF1.0
aI3
aI4
aF0.75
aI2
aI14
aI16
aI8
aI0
aI7
aI3
aI4
aI18
aI12
aa(lp328
V0021200993
p329
aVMAR 18, 2013
p330
aVPHI vs. POR
p331
aVW
p332
aI40
aI9
aI14
aF0.643
aI0
aI1
aF0.0
aI0
aI0
aF0.0
aI1
aI12
aI13
aI4
aI0
aI2
aI4
aI3
aI18
aI8
aa(lp333
V0021201018
p334
aVMAR 20, 2013
p335
aVPHI @ LAC
p336
aVL
p337
aI32
aI5
aI13
aF0.385
aI1
aI3
aF0.333
aI5
aI6
aF0.833
aI1
aI6
aI7
aI7
aI2
aI4
aI4
aI3
aI16
aI-13
aa(lp338
V0021201020
p339
aVMAR 21, 2013
p340
aVPHI @ DEN
p341
aVL
p342
aI38
aI8
aI11
aF0.727
aI1
aI2
aF0.5
aI0
aI0
aF0.0
aI2
aI10
aI12
aI5
aI0
aI4
aI3
aI6
aI17
aI22
aa(lp343
V0021201047
p344
aVMAR 24, 2013
p345
aVPHI @ SAC
p346
aVW
p347
aI31
aI7
aI13
aF0.538
aI0
aI1
aF0.0
aI0
aI0
aF0.0
aI4
aI6
aI10
aI3
aI1
aI1
aI2
aI3
aI14
aI17
aa(lp348
V0021201052
p349
aVMAR 25, 2013
p350
aVPHI @ UTA
p351
aVL
p352
aI29
aI4
aI7
aF0.571
aI0
aI0
aF0.0
aI6
aI7
aF0.857
aI2
aI6
aI8
aI0
aI0
aI3
aI1
aI4
aI14
aI-21
aa(lp353
V0021201058
p354
aVMAR 27, 2013
p355
aVPHI vs. MIL
p356
aVW
p357
aI35
aI7
aI14
aF0.5
aI1
aI1
aF1.0
aI0
aI0
aF0.0
aI5
aI12
aI17
aI4
aI0
aI0
aI0
aI2
aI15
aI3
aa(lp358
V0021201078
p359
aVMAR 29, 2013
p360
aVPHI @ CLE
p361
aVW
p362
aI36
aI7
aI17
aF0.412
aI2
aI3
aF0.667
aI0
aI0
aF0.0
aI3
aI8
aI11
aI5
aI0
aI2
aI1
aI1
aI16
aI15
aa(lp363
V0021201087
p364
aVMAR 30, 2013
p365
aVPHI vs. CHA
p366
aVW
p367
aI34
aI8
aI12
aF0.667
aI1
aI2
aF0.5
aI2
aI2
aF1.0
aI4
aI2
aI6
aI6
aI0
aI1
aI2
aI4
aI19
aI15
aa(lp368
V0021201112
p369
aVAPR 03, 2013
p370
aVPHI @ CHA
p371
aVL
p372
aI33
aI5
aI9
aF0.556
aI0
aI1
aF0.0
aI2
aI2
aF1.0
aI2
aI5
aI7
aI1
aI1
aI1
aI0
aI2
aI12
aI-6
aa(lp373
V0021201129
p374
aVAPR 05, 2013
p375
aVPHI @ ATL
p376
aVW
p377
aI38
aI8
aI17
aF0.471
aI1
aI1
aF1.0
aI2
aI2
aF1.0
aI4
aI8
aI12
aI3
aI1
aI0
aI0
aI1
aI19
aI11
aa(lp378
V0021201140
p379
aVAPR 06, 2013
p380
aVPHI @ MIA
p381
aVL
p382
aI28
aI4
aI9
aF0.444
aI2
aI3
aF0.667
aI1
aI2
aF0.5
aI3
aI8
aI11
aI0
aI1
aI0
aI1
aI1
aI11
aI-16
aa(lp383
V0021201155
p384
aVAPR 09, 2013
p385
aVPHI @ BKN
p386
aVL
p387
aI23
aI3
aI9
aF0.333
aI0
aI1
aF0.0
aI1
aI2
aF0.5
aI1
aI5
aI6
aI0
aI1
aI0
aI3
aI3
aI7
aI-25
aa(lp388
V0021201164
p389
aVAPR 10, 2013
p390
aVPHI vs. ATL
p391
aVL
p392
aI25
aI2
aI6
aF0.333
aI1
aI2
aF0.5
aI0
aI0
aF0.0
aI1
aI5
aI6
aI2
aI0
aI0
aI0
aI2
aI5
aI-10
aa(lp393
V0021201177
p394
aVAPR 12, 2013
p395
aVPHI @ WAS
p396
aVW
p397
aI36
aI7
aI16
aF0.438
aI1
aI4
aF0.25
aI0
aI0
aF0.0
aI3
aI5
aI8
aI4
aI1
aI2
aI3
aI2
aI15
aI6
aa(lp398
V0021201197
p399
aVAPR 14, 2013
p400
aVPHI vs. CLE
p401
aVW
p402
aI36
aI6
aI11
aF0.545
aI1
aI2
aF0.5
aI1
aI2
aF0.5
aI0
aI5
aI5
aI6
aI2
aI4
aI2
aI4
aI14
aI20
aa(lp403
V0021201206
p404
aVAPR 15, 2013
p405
aVPHI @ DET
p406
aVL
p407
aI31
aI6
aI13
aF0.462
aI0
aI1
aF0.0
aI1
aI1
aF1.0
aI3
aI6
aI9
aI3
aI1
aI1
aI3
aI3
aI13
aI-8
aa(lp408
V0021201221
p409
aVAPR 17, 2013
p410
aVPHI @ IND
p411
aVW
p412
aI4
aI1
aI2
aF0.5
aI1
aI2
aF0.5
aI0
aI0
aF0.0
aI0
aI0
aI0
aI0
aI0
aI1
aI0
aI2
aI3
aI9
aasS'name'
p413
VSpencer Hawes
p414
sS'weight'
p415
V245
p416
sS'age'
p417
I24
sS'experience'
p418
I5
sS'height'
p419
V7-1
p420
sS'position'
p421
VForward-Center
p422
s.