(dp0
S'age'
p1
I25
sS'stats'
p2
(lp3
(lp4
V0021201222
p5
aVAPR 17, 2013
p6
aVCHI vs. WAS
p7
aVW
p8
aI0
aI0
aI0
aF0.0
aI0
aI0
aF0.0
aI0
aI0
aF0.0
aI0
aI0
aI0
aI0
aI0
aI0
aI0
aI0
aI0
aI0
aa(lp9
V0021201203
p10
aVAPR 15, 2013
p11
aVCHI @ ORL
p12
aVW
p13
aI3
aI0
aI1
aF0.0
aI0
aI0
aF0.0
aI0
aI0
aF0.0
aI0
aI0
aI0
aI0
aI0
aI0
aI0
aI0
aI0
aI-3
aa(lp14
V0021201194
p15
aVAPR 14, 2013
p16
aVCHI @ MIA
p17
aVL
p18
aI27
aI4
aI6
aF0.667
aI2
aI4
aF0.5
aI0
aI0
aF0.0
aI0
aI5
aI5
aI1
aI0
aI1
aI2
aI4
aI10
aI2
aa(lp19
V0021201174
p20
aVAPR 11, 2013
p21
aVCHI vs. NYK
p22
aVW
p23
aI0
aI0
aI0
aF0.0
aI0
aI0
aF0.0
aI0
aI0
aF0.0
aI0
aI0
aI0
aI0
aI0
aI0
aI0
aI0
aI0
aI-2
aa(lp24
V0021201150
p25
aVAPR 07, 2013
p26
aVCHI @ DET
p27
aVL
p28
aI6
aI1
aI4
aF0.25
aI0
aI1
aF0.0
aI0
aI0
aF0.0
aI0
aI0
aI0
aI0
aI0
aI1
aI1
aI0
aI2
aI-2
aa(lp29
V0021201123
p30
aVAPR 04, 2013
p31
aVCHI @ BKN
p32
aVW
p33
aI6
aI0
aI1
aF0.0
aI0
aI0
aF0.0
aI1
aI2
aF0.5
aI0
aI1
aI1
aI0
aI0
aI0
aI0
aI1
aI1
aI1
aa(lp34
V0021201108
p35
aVAPR 02, 2013
p36
aVCHI @ WAS
p37
aVL
p38
aI17
aI0
aI4
aF0.0
aI0
aI2
aF0.0
aI0
aI0
aF0.0
aI0
aI4
aI4
aI0
aI0
aI0
aI0
aI1
aI0
aI-4
aa(lp39
V0021201097
p40
aVMAR 31, 2013
p41
aVCHI vs. DET
p42
aVW
p43
aI25
aI3
aI7
aF0.429
aI2
aI5
aF0.4
aI2
aI3
aF0.667
aI0
aI6
aI6
aI4
aI0
aI0
aI0
aI0
aI10
aI11
aa(lp44
V0021201085
p45
aVMAR 30, 2013
p46
aVCHI @ DAL
p47
aVL
p48
aI8
aI0
aI4
aF0.0
aI0
aI2
aF0.0
aI0
aI0
aF0.0
aI0
aI0
aI0
aI0
aI0
aI0
aI1
aI1
aI0
aI-5
aa(lp49
V0021201062
p50
aVMAR 27, 2013
p51
aVCHI vs. MIA
p52
aVW
p53
aI12
aI1
aI5
aF0.2
aI0
aI3
aF0.0
aI0
aI0
aF0.0
aI0
aI1
aI1
aI0
aI0
aI1
aI0
aI0
aI2
aI5
aa(lp54
V0021201044
p55
aVMAR 24, 2013
p56
aVCHI @ MIN
p57
aVW
p58
aI15
aI1
aI5
aF0.2
aI0
aI3
aF0.0
aI0
aI0
aF0.0
aI0
aI0
aI0
aI0
aI0
aI0
aI0
aI0
aI2
aI3
aa(lp59
V0021201035
p60
aVMAR 23, 2013
p61
aVCHI vs. IND
p62
aVW
p63
aI17
aI4
aI12
aF0.333
aI1
aI4
aF0.25
aI0
aI0
aF0.0
aI0
aI5
aI5
aI2
aI1
aI0
aI0
aI1
aI9
aI3
aa(lp64
V0021200978
p65
aVMAR 15, 2013
p66
aVCHI @ GSW
p67
aVW
p68
aI6
aI1
aI3
aF0.333
aI1
aI2
aF0.5
aI0
aI0
aF0.0
aI0
aI1
aI1
aI0
aI0
aI0
aI0
aI1
aI3
aI-10
aa(lp69
V0021200963
p70
aVMAR 13, 2013
p71
aVCHI @ SAC
p72
aVL
p73
aI21
aI4
aI12
aF0.333
aI1
aI6
aF0.167
aI0
aI0
aF0.0
aI0
aI5
aI5
aI1
aI0
aI1
aI3
aI2
aI9
aI-18
aa(lp74
V0021200909
p75
aVMAR 06, 2013
p76
aVCHI @ SAS
p77
aVL
p78
aI7
aI0
aI3
aF0.0
aI0
aI0
aF0.0
aI0
aI0
aF0.0
aI0
aI0
aI0
aI0
aI0
aI0
aI0
aI0
aI0
aI-4
aa(lp79
V0021200887
p80
aVMAR 03, 2013
p81
aVCHI @ IND
p82
aVL
p83
aI3
aI0
aI0
aF0.0
aI0
aI0
aF0.0
aI0
aI0
aF0.0
aI0
aI0
aI0
aI0
aI1
aI0
aI0
aI0
aI0
aI3
aa(lp84
V0021200877
p85
aVMAR 02, 2013
p86
aVCHI vs. BKN
p87
aVW
p88
aI8
aI1
aI3
aF0.333
aI1
aI1
aF1.0
aI0
aI0
aF0.0
aI0
aI2
aI2
aI0
aI0
aI0
aI0
aI1
aI3
aI0
aa(lp89
V0021200862
p90
aVFEB 28, 2013
p91
aVCHI vs. PHI
p92
aVW
p93
aI7
aI0
aI1
aF0.0
aI0
aI0
aF0.0
aI0
aI0
aF0.0
aI0
aI0
aI0
aI0
aI0
aI0
aI0
aI0
aI0
aI-1
aa(lp94
V0021200838
p95
aVFEB 24, 2013
p96
aVCHI @ OKC
p97
aVL
p98
aI7
aI0
aI1
aF0.0
aI0
aI1
aF0.0
aI0
aI0
aF0.0
aI0
aI0
aI0
aI0
aI0
aI0
aI0
aI1
aI0
aI0
aa(lp99
V0021200813
p100
aVFEB 22, 2013
p101
aVCHI @ CHA
p102
aVW
p103
aI3
aI0
aI0
aF0.0
aI0
aI0
aF0.0
aI0
aI0
aF0.0
aI0
aI1
aI1
aI1
aI0
aI0
aI0
aI0
aI0
aI2
aa(lp104
V0021200809
p105
aVFEB 21, 2013
p106
aVCHI vs. MIA
p107
aVL
p108
aI4
aI0
aI1
aF0.0
aI0
aI0
aF0.0
aI0
aI0
aF0.0
aI0
aI0
aI0
aI0
aI0
aI0
aI0
aI0
aI0
aI1
aa(lp109
V0021200778
p110
aVFEB 13, 2013
p111
aVCHI @ BOS
p112
aVL
p113
aI0
aI0
aI0
aF0.0
aI0
aI0
aF0.0
aI0
aI0
aF0.0
aI0
aI0
aI0
aI0
aI0
aI0
aI0
aI0
aI0
aI1
aa(lp114
V0021200766
p115
aVFEB 11, 2013
p116
aVCHI vs. SAS
p117
aVL
p118
aI1
aI0
aI1
aF0.0
aI0
aI0
aF0.0
aI0
aI0
aF0.0
aI0
aI0
aI0
aI0
aI0
aI0
aI0
aI0
aI0
aI1
aa(lp119
V0021200734
p120
aVFEB 07, 2013
p121
aVCHI @ DEN
p122
aVL
p123
aI27
aI6
aI16
aF0.375
aI4
aI12
aF0.333
aI3
aI3
aF1.0
aI1
aI3
aI4
aI0
aI0
aI1
aI0
aI0
aI19
aI-8
aa(lp124
V0021200413
p125
aVFEB 04, 2013
p126
aVCHI @ IND
p127
aVL
p128
aI11
aI1
aI2
aF0.5
aI0
aI1
aF0.0
aI1
aI1
aF1.0
aI0
aI2
aI2
aI0
aI0
aI0
aI0
aI0
aI3
aI5
aa(lp129
V0021200644
p130
aVJAN 26, 2013
p131
aVCHI @ WAS
p132
aVL
p133
aI11
aI0
aI4
aF0.0
aI0
aI3
aF0.0
aI0
aI0
aF0.0
aI0
aI3
aI3
aI0
aI0
aI0
aI0
aI0
aI0
aI7
aa(lp134
V0021200636
p135
aVJAN 25, 2013
p136
aVCHI vs. GSW
p137
aVW
p138
aI3
aI1
aI3
aF0.333
aI1
aI3
aF0.333
aI0
aI0
aF0.0
aI0
aI1
aI1
aI0
aI0
aI0
aI1
aI0
aI3
aI-4
aa(lp139
V0021200612
p140
aVJAN 21, 2013
p141
aVCHI vs. LAL
p142
aVW
p143
aI5
aI0
aI3
aF0.0
aI0
aI2
aF0.0
aI0
aI0
aF0.0
aI1
aI0
aI1
aI0
aI0
aI0
aI0
aI0
aI0
aI-5
aa(lp144
V0021200595
p145
aVJAN 19, 2013
p146
aVCHI vs. MEM
p147
aVL
p148
aI5
aI0
aI0
aF0.0
aI0
aI0
aF0.0
aI0
aI0
aF0.0
aI0
aI0
aI0
aI0
aI0
aI0
aI0
aI0
aI0
aI-1
aa(lp149
V0021200570
p150
aVJAN 16, 2013
p151
aVCHI @ TOR
p152
aVW
p153
aI0
aI0
aI0
aF0.0
aI0
aI0
aF0.0
aI0
aI0
aF0.0
aI0
aI0
aI0
aI0
aI0
aI0
aI0
aI0
aI0
aI0
aa(lp154
V0021200558
p155
aVJAN 14, 2013
p156
aVCHI vs. ATL
p157
aVW
p158
aI4
aI2
aI3
aF0.667
aI2
aI3
aF0.667
aI0
aI0
aF0.0
aI0
aI1
aI1
aI0
aI0
aI0
aI0
aI0
aI6
aI4
aa(lp159
V0021200546
p160
aVJAN 12, 2013
p161
aVCHI vs. PHX
p162
aVL
p163
aI3
aI0
aI2
aF0.0
aI0
aI2
aF0.0
aI0
aI0
aF0.0
aI0
aI0
aI0
aI0
aI0
aI0
aI0
aI0
aI0
aI2
aa(lp164
V0021200506
p165
aVJAN 07, 2013
p166
aVCHI vs. CLE
p167
aVW
p168
aI2
aI0
aI1
aF0.0
aI0
aI1
aF0.0
aI0
aI0
aF0.0
aI0
aI0
aI0
aI0
aI0
aI0
aI1
aI0
aI0
aI-2
aa(lp169
V0021200443
p170
aVDEC 29, 2012
p171
aVHOU vs. OKC
p172
aVL
p173
aI12
aI0
aI3
aF0.0
aI0
aI1
aF0.0
aI0
aI0
aF0.0
aI0
aI1
aI1
aI0
aI0
aI0
aI2
aI0
aI0
aI-11
aa(lp174
V0021200432
p175
aVDEC 28, 2012
p176
aVHOU @ SAS
p177
aVL
p178
aI13
aI1
aI2
aF0.5
aI0
aI1
aF0.0
aI1
aI1
aF1.0
aI0
aI1
aI1
aI0
aI1
aI0
aI0
aI0
aI3
aI-3
aa(lp179
V0021200408
p180
aVDEC 25, 2012
p181
aVHOU @ CHI
p182
aVW
p183
aI4
aI0
aI0
aF0.0
aI0
aI0
aF0.0
aI0
aI0
aF0.0
aI0
aI0
aI0
aI0
aI0
aI0
aI0
aI0
aI0
aI0
aa(lp184
V0021200394
p185
aVDEC 22, 2012
p186
aVHOU vs. MEM
p187
aVW
p188
aI4
aI1
aI1
aF1.0
aI0
aI0
aF0.0
aI0
aI0
aF0.0
aI0
aI0
aI0
aI0
aI0
aI0
aI1
aI1
aI2
aI1
aa(lp189
V0021200372
p190
aVDEC 19, 2012
p191
aVHOU vs. PHI
p192
aVW
p193
aI3
aI0
aI0
aF0.0
aI0
aI0
aF0.0
aI0
aI0
aF0.0
aI0
aI1
aI1
aI0
aI0
aI0
aI0
aI0
aI0
aI0
aa(lp194
V0021200351
p195
aVDEC 17, 2012
p196
aVHOU @ NYK
p197
aVW
p198
aI3
aI0
aI0
aF0.0
aI0
aI0
aF0.0
aI0
aI0
aF0.0
aI0
aI0
aI0
aI1
aI0
aI0
aI0
aI0
aI0
aI-6
aa(lp199
V0021200301
p200
aVDEC 10, 2012
p201
aVHOU vs. SAS
p202
aVL
p203
aI4
aI0
aI2
aF0.0
aI0
aI0
aF0.0
aI0
aI0
aF0.0
aI0
aI0
aI0
aI1
aI0
aI0
aI0
aI1
aI0
aI1
aa(lp204
V0021200278
p205
aVDEC 07, 2012
p206
aVHOU @ SAS
p207
aVL
p208
aI11
aI3
aI9
aF0.333
aI2
aI5
aF0.4
aI0
aI0
aF0.0
aI1
aI1
aI2
aI0
aI1
aI0
aI0
aI0
aI8
aI-3
aa(lp209
V0021200218
p210
aVNOV 28, 2012
p211
aVHOU @ OKC
p212
aVL
p213
aI38
aI7
aI17
aF0.412
aI3
aI8
aF0.375
aI1
aI2
aF0.5
aI4
aI3
aI7
aI4
aI1
aI1
aI3
aI4
aI18
aI-6
aa(lp214
V0021200206
p215
aVNOV 27, 2012
p216
aVHOU vs. TOR
p217
aVW
p218
aI10
aI2
aI4
aF0.5
aI1
aI2
aF0.5
aI0
aI0
aF0.0
aI0
aI1
aI1
aI0
aI0
aI0
aI0
aI1
aI5
aI-6
aa(lp219
V0021200178
p220
aVNOV 23, 2012
p221
aVHOU vs. NYK
p222
aVW
p223
aI26
aI3
aI9
aF0.333
aI3
aI6
aF0.5
aI0
aI0
aF0.0
aI0
aI2
aI2
aI0
aI1
aI1
aI0
aI1
aI9
aI18
aa(lp224
V0021200153
p225
aVNOV 19, 2012
p226
aVHOU @ UTA
p227
aVL
p228
aI14
aI2
aI5
aF0.4
aI1
aI3
aF0.333
aI0
aI0
aF0.0
aI0
aI0
aI0
aI1
aI1
aI0
aI0
aI3
aI5
aI-1
aa(lp229
V0021200146
p230
aVNOV 18, 2012
p231
aVHOU @ LAL
p232
aVL
p233
aI5
aI0
aI2
aF0.0
aI0
aI1
aF0.0
aI0
aI0
aF0.0
aI0
aI0
aI0
aI0
aI1
aI0
aI0
aI0
aI0
aI6
aa(lp234
V0021200085
p235
aVNOV 10, 2012
p236
aVHOU vs. DET
p237
aVW
p238
aI6
aI2
aI2
aF1.0
aI1
aI1
aF1.0
aI0
aI0
aF0.0
aI0
aI1
aI1
aI3
aI0
aI0
aI0
aI1
aI5
aI-9
aa(lp239
V0021200073
p240
aVNOV 09, 2012
p241
aVHOU @ MEM
p242
aVL
p243
aI7
aI0
aI1
aF0.0
aI0
aI1
aF0.0
aI0
aI0
aF0.0
aI0
aI2
aI2
aI0
aI0
aI0
aI0
aI0
aI0
aI-2
aa(lp244
V0021200006
p245
aVOCT 31, 2012
p246
aVHOU @ DET
p247
aVW
p248
aI6
aI0
aI2
aF0.0
aI0
aI1
aF0.0
aI0
aI0
aF0.0
aI0
aI0
aI0
aI0
aI0
aI0
aI0
aI1
aI0
aI-3
aasS'name'
p249
VDaequan Cook
p250
sS'experience'
p251
I5
s.