(dp0
S'stats'
p1
(lp2
(lp3
V0021200014
p4
aVNOV 01, 2012
p5
aVOKC @ SAS
p6
aVL
p7
aI37
aI6
aI21
aF0.286
aI0
aI3
aF0.0
aI6
aI8
aF0.75
aI3
aI5
aI8
aI5
aI0
aI0
aI6
aI3
aI18
aI2
aa(lp8
V0021200022
p9
aVNOV 02, 2012
p10
aVOKC vs. POR
p11
aVW
p12
aI35
aI13
aI24
aF0.542
aI0
aI2
aF0.0
aI6
aI8
aF0.75
aI1
aI4
aI5
aI6
aI0
aI0
aI1
aI1
aI32
aI6
aa(lp13
V0021200040
p14
aVNOV 04, 2012
p15
aVOKC vs. ATL
p16
aVL
p17
aI36
aI5
aI18
aF0.278
aI2
aI6
aF0.333
aI2
aI2
aF1.0
aI1
aI4
aI5
aI9
aI0
aI0
aI3
aI4
aI14
aI-5
aa(lp18
V0021200051
p19
aVNOV 06, 2012
p20
aVOKC vs. TOR
p21
aVW
p22
aI29
aI5
aI12
aF0.417
aI2
aI4
aF0.5
aI7
aI8
aF0.875
aI0
aI1
aI1
aI8
aI1
aI1
aI1
aI2
aI19
aI21
aa(lp23
V0021200066
p24
aVNOV 08, 2012
p25
aVOKC @ CHI
p26
aVW
p27
aI36
aI7
aI22
aF0.318
aI1
aI7
aF0.143
aI1
aI1
aF1.0
aI1
aI1
aI2
aI12
aI1
aI0
aI2
aI4
aI16
aI-4
aa(lp28
V0021200075
p29
aVNOV 09, 2012
p30
aVOKC vs. DET
p31
aVW
p32
aI31
aI3
aI10
aF0.3
aI1
aI2
aF0.5
aI3
aI4
aF0.75
aI2
aI2
aI4
aI6
aI1
aI0
aI3
aI2
aI10
aI-4
aa(lp33
V0021200093
p34
aVNOV 11, 2012
p35
aVOKC vs. CLE
p36
aVW
p37
aI40
aI10
aI16
aF0.625
aI4
aI6
aF0.667
aI3
aI4
aF0.75
aI1
aI5
aI6
aI10
aI4
aI0
aI8
aI5
aI27
aI11
aa(lp38
V0021200097
p39
aVNOV 12, 2012
p40
aVOKC @ DET
p41
aVW
p42
aI44
aI11
aI25
aF0.44
aI0
aI3
aF0.0
aI11
aI15
aF0.733
aI4
aI6
aI10
aI4
aI3
aI0
aI2
aI1
aI33
aI9
aa(lp43
V0021200113
p44
aVNOV 14, 2012
p45
aVOKC vs. MEM
p46
aVL
p47
aI43
aI6
aI19
aF0.316
aI2
aI6
aF0.333
aI3
aI5
aF0.6
aI2
aI4
aI6
aI13
aI2
aI0
aI2
aI3
aI17
aI-7
aa(lp48
V0021200125
p49
aVNOV 16, 2012
p50
aVOKC @ NOH
p51
aVW
p52
aI28
aI3
aI11
aF0.273
aI0
aI4
aF0.0
aI4
aI6
aF0.667
aI1
aI1
aI2
aI12
aI1
aI0
aI2
aI4
aI10
aI18
aa(lp53
V0021200143
p54
aVNOV 18, 2012
p55
aVOKC vs. GSW
p56
aVW
p57
aI36
aI12
aI22
aF0.545
aI2
aI2
aF1.0
aI4
aI5
aF0.8
aI1
aI1
aI2
aI7
aI5
aI0
aI1
aI0
aI30
aI20
aa(lp58
V0021200164
p59
aVNOV 21, 2012
p60
aVOKC vs. LAC
p61
aVW
p62
aI42
aI8
aI20
aF0.4
aI3
aI5
aF0.6
aI4
aI6
aF0.667
aI1
aI2
aI3
aI9
aI0
aI0
aI3
aI3
aI23
aI8
aa(lp63
V0021200173
p64
aVNOV 23, 2012
p65
aVOKC @ BOS
p66
aVL
p67
aI38
aI10
aI21
aF0.476
aI2
aI7
aF0.286
aI4
aI4
aF1.0
aI0
aI7
aI7
aI8
aI2
aI1
aI5
aI4
aI26
aI7
aa(lp68
V0021200183
p69
aVNOV 24, 2012
p70
aVOKC @ PHI
p71
aVW
p72
aI42
aI11
aI23
aF0.478
aI2
aI5
aF0.4
aI6
aI6
aF1.0
aI1
aI4
aI5
aI9
aI2
aI1
aI3
aI2
aI30
aI8
aa(lp73
V0021200201
p74
aVNOV 26, 2012
p75
aVOKC vs. CHA
p76
aVW
p77
aI22
aI4
aI8
aF0.5
aI0
aI2
aF0.0
aI4
aI4
aF1.0
aI0
aI2
aI2
aI11
aI2
aI0
aI2
aI2
aI12
aI41
aa(lp78
V0021200218
p79
aVNOV 28, 2012
p80
aVOKC vs. HOU
p81
aVW
p82
aI36
aI6
aI15
aF0.4
aI0
aI3
aF0.0
aI2
aI5
aF0.4
aI1
aI4
aI5
aI9
aI3
aI1
aI5
aI2
aI14
aI7
aa(lp83
V0021200229
p84
aVNOV 30, 2012
p85
aVOKC vs. UTA
p86
aVW
p87
aI39
aI6
aI18
aF0.333
aI3
aI5
aF0.6
aI8
aI10
aF0.8
aI3
aI10
aI13
aI8
aI7
aI0
aI8
aI3
aI23
aI27
aa(lp88
V0021200236
p89
aVDEC 01, 2012
p90
aVOKC @ NOH
p91
aVW
p92
aI30
aI8
aI18
aF0.444
aI2
aI3
aF0.667
aI0
aI0
aF0.0
aI2
aI3
aI5
aI10
aI3
aI1
aI5
aI3
aI18
aI16
aa(lp93
V0021200253
p94
aVDEC 04, 2012
p95
aVOKC @ BKN
p96
aVW
p97
aI34
aI9
aI17
aF0.529
aI1
aI5
aF0.2
aI6
aI8
aF0.75
aI0
aI2
aI2
aI9
aI3
aI0
aI5
aI5
aI25
aI4
aa(lp98
V0021200280
p99
aVDEC 07, 2012
p100
aVOKC vs. LAL
p101
aVW
p102
aI40
aI12
aI26
aF0.462
aI5
aI8
aF0.625
aI4
aI6
aF0.667
aI0
aI1
aI1
aI8
aI1
aI0
aI2
aI3
aI33
aI6
aa(lp103
V0021200294
p104
aVDEC 09, 2012
p105
aVOKC vs. IND
p106
aVW
p107
aI34
aI7
aI17
aF0.412
aI1
aI3
aF0.333
aI6
aI7
aF0.857
aI2
aI5
aI7
aI6
aI2
aI2
aI2
aI0
aI21
aI6
aa(lp108
V0021200318
p109
aVDEC 12, 2012
p110
aVOKC vs. NOH
p111
aVW
p112
aI37
aI4
aI14
aF0.286
aI1
aI1
aF1.0
aI5
aI8
aF0.625
aI3
aI1
aI4
aI9
aI0
aI0
aI2
aI4
aI14
aI-10
aa(lp113
V0021200333
p114
aVDEC 14, 2012
p115
aVOKC vs. SAC
p116
aVW
p117
aI32
aI4
aI13
aF0.308
aI1
aI4
aF0.25
aI4
aI4
aF1.0
aI0
aI2
aI2
aI13
aI3
aI1
aI3
aI1
aI13
aI5
aa(lp118
V0021200354
p119
aVDEC 17, 2012
p120
aVOKC vs. SAS
p121
aVW
p122
aI37
aI6
aI18
aF0.333
aI1
aI2
aF0.5
aI9
aI11
aF0.818
aI1
aI5
aI6
aI9
aI3
aI0
aI1
aI2
aI22
aI15
aa(lp123
V0021200371
p124
aVDEC 19, 2012
p125
aVOKC @ ATL
p126
aVW
p127
aI39
aI9
aI21
aF0.429
aI1
aI4
aF0.25
aI8
aI8
aF1.0
aI1
aI2
aI3
aI11
aI2
aI1
aI3
aI2
aI27
aI4
aa(lp128
V0021200377
p129
aVDEC 20, 2012
p130
aVOKC @ MIN
p131
aVL
p132
aI44
aI9
aI28
aF0.321
aI1
aI6
aF0.167
aI11
aI13
aF0.846
aI4
aI7
aI11
aI9
aI3
aI0
aI8
aI3
aI30
aI-6
aa(lp133
V0021200407
p134
aVDEC 25, 2012
p135
aVOKC @ MIA
p136
aVL
p137
aI43
aI5
aI19
aF0.263
aI1
aI4
aF0.25
aI10
aI12
aF0.833
aI6
aI5
aI11
aI3
aI2
aI0
aI5
aI4
aI21
aI-9
aa(lp138
V0021200423
p139
aVDEC 27, 2012
p140
aVOKC vs. DAL
p141
aVW
p142
aI42
aI7
aI20
aF0.35
aI0
aI3
aF0.0
aI2
aI3
aF0.667
aI1
aI5
aI6
aI10
aI3
aI1
aI2
aI5
aI16
aI7
aa(lp143
V0021200443
p144
aVDEC 29, 2012
p145
aVOKC @ HOU
p146
aVW
p147
aI30
aI11
aI22
aF0.5
aI2
aI5
aF0.4
aI4
aI5
aF0.8
aI2
aI6
aI8
aI8
aI3
aI0
aI5
aI0
aI28
aI20
aa(lp148
V0021200456
p149
aVDEC 31, 2012
p150
aVOKC vs. PHX
p151
aVW
p152
aI33
aI7
aI16
aF0.438
aI1
aI2
aF0.5
aI9
aI11
aF0.818
aI3
aI4
aI7
aI9
aI1
aI0
aI1
aI2
aI24
aI6
aa(lp153
V0021200472
p154
aVJAN 02, 2013
p155
aVOKC vs. BKN
p156
aVL
p157
aI42
aI11
aI19
aF0.579
aI1
aI2
aF0.5
aI3
aI4
aF0.75
aI0
aI2
aI2
aI10
aI3
aI0
aI6
aI4
aI26
aI-12
aa(lp158
V0021200485
p159
aVJAN 04, 2013
p160
aVOKC vs. PHI
p161
aVW
p162
aI34
aI10
aI17
aF0.588
aI4
aI4
aF1.0
aI3
aI4
aF0.75
aI0
aI3
aI3
aI5
aI1
aI0
aI6
aI0
aI27
aI12
aa(lp163
V0021200499
p164
aVJAN 06, 2013
p165
aVOKC @ TOR
p166
aVW
p167
aI35
aI8
aI17
aF0.471
aI1
aI3
aF0.333
aI6
aI6
aF1.0
aI0
aI4
aI4
aI7
aI3
aI0
aI5
aI1
aI23
aI15
aa(lp168
V0021200504
p169
aVJAN 07, 2013
p170
aVOKC @ WAS
p171
aVL
p172
aI40
aI4
aI17
aF0.235
aI1
aI6
aF0.167
aI8
aI10
aF0.8
aI2
aI2
aI4
aI8
aI3
aI0
aI2
aI1
aI17
aI0
aa(lp173
V0021200523
p174
aVJAN 09, 2013
p175
aVOKC vs. MIN
p176
aVW
p177
aI30
aI7
aI14
aF0.5
aI3
aI4
aF0.75
aI6
aI7
aF0.857
aI1
aI7
aI8
aI7
aI1
aI0
aI1
aI1
aI23
aI22
aa(lp178
V0021200539
p179
aVJAN 11, 2013
p180
aVOKC @ LAL
p181
aVW
p182
aI35
aI10
aI21
aF0.476
aI1
aI5
aF0.2
aI6
aI8
aF0.75
aI2
aI5
aI7
aI10
aI2
aI1
aI3
aI3
aI27
aI28
aa(lp183
V0021200554
p184
aVJAN 13, 2013
p185
aVOKC @ POR
p186
aVW
p187
aI34
aI5
aI21
aF0.238
aI1
aI5
aF0.2
aI7
aI9
aF0.778
aI2
aI6
aI8
aI9
aI0
aI0
aI3
aI1
aI18
aI9
aa(lp188
V0021200562
p189
aVJAN 14, 2013
p190
aVOKC @ PHX
p191
aVW
p192
aI36
aI14
aI24
aF0.583
aI1
aI3
aF0.333
aI7
aI9
aF0.778
aI2
aI6
aI8
aI5
aI2
aI0
aI1
aI2
aI36
aI14
aa(lp193
V0021200574
p194
aVJAN 16, 2013
p195
aVOKC vs. DEN
p196
aVW
p197
aI28
aI12
aI20
aF0.6
aI0
aI1
aF0.0
aI8
aI9
aF0.889
aI2
aI0
aI2
aI4
aI1
aI0
aI0
aI0
aI32
aI17
aa(lp198
V0021200592
p199
aVJAN 18, 2013
p200
aVOKC @ DAL
p201
aVW
p202
aI45
aI12
aI26
aF0.462
aI0
aI3
aF0.0
aI7
aI9
aF0.778
aI4
aI2
aI6
aI6
aI1
aI0
aI4
aI1
aI31
aI5
aa(lp203
V0021200604
p204
aVJAN 20, 2013
p205
aVOKC @ DEN
p206
aVL
p207
aI48
aI10
aI26
aF0.385
aI1
aI7
aF0.143
aI15
aI17
aF0.882
aI2
aI6
aI8
aI9
aI0
aI0
aI7
aI4
aI36
aI-1
aa(lp208
V0021200617
p209
aVJAN 22, 2013
p210
aVOKC @ LAC
p211
aVW
p212
aI38
aI9
aI19
aF0.474
aI3
aI6
aF0.5
aI5
aI5
aF1.0
aI0
aI4
aI4
aI6
aI1
aI0
aI5
aI3
aI26
aI0
aa(lp213
V0021200628
p214
aVJAN 23, 2013
p215
aVOKC @ GSW
p216
aVL
p217
aI36
aI3
aI16
aF0.188
aI0
aI5
aF0.0
aI4
aI6
aF0.667
aI0
aI5
aI5
aI4
aI1
aI0
aI6
aI2
aI10
aI-12
aa(lp218
V0021200640
p219
aVJAN 25, 2013
p220
aVOKC @ SAC
p221
aVW
p222
aI32
aI7
aI18
aF0.389
aI1
aI4
aF0.25
aI3
aI4
aF0.75
aI0
aI4
aI4
aI14
aI1
aI0
aI4
aI3
aI18
aI15
aa(lp223
V0021200653
p224
aVJAN 27, 2013
p225
aVOKC @ LAL
p226
aVL
p227
aI39
aI6
aI22
aF0.273
aI1
aI5
aF0.2
aI4
aI6
aF0.667
aI4
aI5
aI9
aI13
aI2
aI0
aI4
aI5
aI17
aI-11
aa(lp228
V0021200682
p229
aVJAN 31, 2013
p230
aVOKC vs. MEM
p231
aVW
p232
aI31
aI9
aI17
aF0.529
aI1
aI4
aF0.25
aI2
aI2
aF1.0
aI1
aI8
aI9
aI6
aI1
aI0
aI5
aI0
aI21
aI20
aa(lp233
V0021200698
p234
aVFEB 02, 2013
p235
aVOKC @ CLE
p236
aVL
p237
aI35
aI12
aI22
aF0.545
aI0
aI2
aF0.0
aI4
aI5
aF0.8
aI0
aI2
aI2
aI5
aI3
aI0
aI1
aI4
aI28
aI6
aa(lp238
V0021200712
p239
aVFEB 04, 2013
p240
aVOKC vs. DAL
p241
aVW
p242
aI29
aI8
aI16
aF0.5
aI0
aI1
aF0.0
aI8
aI9
aF0.889
aI0
aI3
aI3
aI7
aI3
aI0
aI3
aI2
aI24
aI16
aa(lp243
V0021200729
p244
aVFEB 06, 2013
p245
aVOKC vs. GSW
p246
aVW
p247
aI30
aI8
aI19
aF0.421
aI0
aI3
aF0.0
aI6
aI8
aF0.75
aI0
aI3
aI3
aI5
aI4
aI1
aI2
aI0
aI22
aI4
aa(lp248
V0021200744
p249
aVFEB 08, 2013
p250
aVOKC vs. PHX
p251
aVW
p252
aI25
aI8
aI14
aF0.571
aI1
aI2
aF0.5
aI0
aI2
aF0.0
aI2
aI3
aI5
aI6
aI2
aI1
aI3
aI3
aI17
aI23
aa(lp253
V0021200759
p254
aVFEB 10, 2013
p255
aVOKC @ PHX
p256
aVW
p257
aI28
aI8
aI15
aF0.533
aI2
aI3
aF0.667
aI6
aI8
aF0.75
aI0
aI1
aI1
aI6
aI4
aI0
aI4
aI0
aI24
aI24
aa(lp258
V0021200772
p259
aVFEB 12, 2013
p260
aVOKC @ UTA
p261
aVL
p262
aI32
aI8
aI14
aF0.571
aI2
aI3
aF0.667
aI4
aI8
aF0.5
aI2
aI1
aI3
aI5
aI0
aI0
aI7
aI1
aI22
aI-13
aa(lp263
V0021200787
p264
aVFEB 14, 2013
p265
aVOKC vs. MIA
p266
aVL
p267
aI44
aI7
aI19
aF0.368
aI0
aI1
aF0.0
aI12
aI13
aF0.923
aI0
aI5
aI5
aI10
aI1
aI1
aI6
aI5
aI26
aI-8
aa(lp268
V0021200804
p269
aVFEB 20, 2013
p270
aVOKC @ HOU
p271
aVL
p272
aI42
aI8
aI20
aF0.4
aI3
aI5
aF0.6
aI9
aI10
aF0.9
aI3
aI7
aI10
aI8
aI1
aI0
aI7
aI3
aI28
aI-7
aa(lp273
V0021200819
p274
aVFEB 22, 2013
p275
aVOKC vs. MIN
p276
aVW
p277
aI35
aI13
aI22
aF0.591
aI2
aI2
aF1.0
aI9
aI9
aF1.0
aI0
aI7
aI7
aI9
aI1
aI1
aI5
aI2
aI37
aI14
aa(lp278
V0021200838
p279
aVFEB 24, 2013
p280
aVOKC vs. CHI
p281
aVW
p282
aI32
aI10
aI17
aF0.588
aI1
aI2
aF0.5
aI2
aI2
aF1.0
aI0
aI1
aI1
aI3
aI1
aI0
aI3
aI2
aI23
aI27
aa(lp283
V0021200857
p284
aVFEB 27, 2013
p285
aVOKC vs. NOH
p286
aVW
p287
aI26
aI8
aI17
aF0.471
aI1
aI3
aF0.333
aI12
aI12
aF1.0
aI1
aI2
aI3
aI3
aI0
aI0
aI0
aI0
aI29
aI32
aa(lp288
V0021200875
p289
aVMAR 01, 2013
p290
aVOKC @ DEN
p291
aVL
p292
aI38
aI12
aI23
aF0.522
aI2
aI4
aF0.5
aI12
aI17
aF0.706
aI0
aI6
aI6
aI5
aI2
aI0
aI3
aI2
aI38
aI6
aa(lp293
V0021200881
p294
aVMAR 03, 2013
p295
aVOKC @ LAC
p296
aVW
p297
aI40
aI11
aI20
aF0.55
aI0
aI2
aF0.0
aI7
aI10
aF0.7
aI1
aI5
aI6
aI10
aI1
aI0
aI3
aI2
aI29
aI13
aa(lp298
V0021200897
p299
aVMAR 05, 2013
p300
aVOKC vs. LAL
p301
aVW
p302
aI36
aI15
aI29
aF0.517
aI0
aI2
aF0.0
aI7
aI8
aF0.875
aI4
aI6
aI10
aI5
aI2
aI0
aI1
aI1
aI37
aI11
aa(lp303
V0021200913
p304
aVMAR 07, 2013
p305
aVOKC @ NYK
p306
aVW
p307
aI36
aI8
aI22
aF0.364
aI1
aI4
aF0.25
aI4
aI6
aF0.667
aI1
aI5
aI6
aI5
aI2
aI0
aI5
aI3
aI21
aI-7
aa(lp308
V0021200915
p309
aVMAR 08, 2013
p310
aVOKC @ CHA
p311
aVW
p312
aI25
aI5
aI11
aF0.455
aI1
aI3
aF0.333
aI0
aI0
aF0.0
aI1
aI2
aI3
aI5
aI1
aI0
aI1
aI1
aI11
aI7
aa(lp313
V0021200934
p314
aVMAR 10, 2013
p315
aVOKC vs. BOS
p316
aVW
p317
aI34
aI5
aI11
aF0.455
aI1
aI2
aF0.5
aI4
aI6
aF0.667
aI0
aI1
aI1
aI2
aI2
aI1
aI3
aI4
aI15
aI5
aa(lp318
V0021200944
p319
aVMAR 11, 2013
p320
aVOKC @ SAS
p321
aVL
p322
aI38
aI11
aI27
aF0.407
aI1
aI3
aF0.333
aI2
aI3
aF0.667
aI4
aI2
aI6
aI6
aI2
aI0
aI4
aI3
aI25
aI6
aa(lp323
V0021200962
p324
aVMAR 13, 2013
p325
aVOKC vs. UTA
p326
aVW
p327
aI28
aI6
aI11
aF0.545
aI0
aI1
aF0.0
aI7
aI9
aF0.778
aI1
aI6
aI7
aI9
aI1
aI1
aI5
aI0
aI19
aI17
aa(lp328
V0021200974
p329
aVMAR 15, 2013
p330
aVOKC vs. ORL
p331
aVW
p332
aI37
aI8
aI19
aF0.421
aI3
aI6
aF0.5
aI4
aI5
aF0.8
aI1
aI5
aI6
aI6
aI0
aI0
aI0
aI0
aI23
aI-2
aa(lp333
V0021200990
p334
aVMAR 17, 2013
p335
aVOKC @ DAL
p336
aVW
p337
aI37
aI13
aI23
aF0.565
aI0
aI4
aF0.0
aI9
aI9
aF1.0
aI3
aI3
aI6
aI6
aI2
aI1
aI5
aI3
aI35
aI8
aa(lp338
V0021201006
p339
aVMAR 19, 2013
p340
aVOKC vs. DEN
p341
aVL
p342
aI37
aI10
aI21
aF0.476
aI0
aI4
aF0.0
aI5
aI7
aF0.714
aI0
aI4
aI4
aI6
aI1
aI0
aI1
aI5
aI25
aI-8
aa(lp343
V0021201012
p344
aVMAR 20, 2013
p345
aVOKC @ MEM
p346
aVL
p347
aI41
aI7
aI25
aF0.28
aI0
aI6
aF0.0
aI6
aI8
aF0.75
aI2
aI2
aI4
aI3
aI3
aI0
aI2
aI4
aI20
aI-12
aa(lp348
V0021201023
p349
aVMAR 22, 2013
p350
aVOKC @ ORL
p351
aVW
p352
aI35
aI7
aI17
aF0.412
aI0
aI2
aF0.0
aI5
aI7
aF0.714
aI0
aI6
aI6
aI9
aI2
aI2
aI3
aI3
aI19
aI7
aa(lp353
V0021201043
p354
aVMAR 24, 2013
p355
aVOKC vs. POR
p356
aVW
p357
aI34
aI9
aI18
aF0.5
aI0
aI2
aF0.0
aI3
aI5
aF0.6
aI0
aI4
aI4
aI9
aI1
aI0
aI2
aI2
aI21
aI17
aa(lp358
V0021201065
p359
aVMAR 27, 2013
p360
aVOKC vs. WAS
p361
aVW
p362
aI25
aI5
aI8
aF0.625
aI1
aI1
aF1.0
aI10
aI11
aF0.909
aI0
aI4
aI4
aI4
aI0
aI0
aI4
aI2
aI21
aI10
aa(lp363
V0021201081
p364
aVMAR 29, 2013
p365
aVOKC @ MIN
p366
aVL
p367
aI32
aI7
aI17
aF0.412
aI1
aI2
aF0.5
aI3
aI5
aF0.6
aI1
aI3
aI4
aI9
aI0
aI0
aI2
aI5
aI18
aI-3
aa(lp368
V0021201090
p369
aVMAR 30, 2013
p370
aVOKC @ MIL
p371
aVW
p372
aI37
aI6
aI18
aF0.333
aI1
aI4
aF0.25
aI10
aI14
aF0.714
aI2
aI11
aI13
aI10
aI3
aI1
aI5
aI4
aI23
aI7
aa(lp373
V0021201125
p374
aVAPR 04, 2013
p375
aVOKC vs. SAS
p376
aVW
p377
aI35
aI9
aI21
aF0.429
aI2
aI6
aF0.333
aI7
aI7
aF1.0
aI2
aI5
aI7
aI7
aI3
aI0
aI3
aI0
aI27
aI-2
aa(lp378
V0021201130
p379
aVAPR 05, 2013
p380
aVOKC @ IND
p381
aVW
p382
aI34
aI10
aI24
aF0.417
aI0
aI3
aF0.0
aI4
aI6
aF0.667
aI2
aI5
aI7
aI9
aI1
aI0
aI2
aI4
aI24
aI16
aa(lp383
V0021201145
p384
aVAPR 07, 2013
p385
aVOKC vs. NYK
p386
aVL
p387
aI34
aI15
aI27
aF0.556
aI2
aI4
aF0.5
aI5
aI6
aF0.833
aI4
aI7
aI11
aI8
aI1
aI0
aI1
aI1
aI37
aI-5
aa(lp388
V0021201161
p389
aVAPR 09, 2013
p390
aVOKC @ UTA
p391
aVW
p392
aI37
aI8
aI21
aF0.381
aI2
aI5
aF0.4
aI7
aI8
aF0.875
aI1
aI4
aI5
aI2
aI3
aI0
aI1
aI2
aI25
aI8
aa(lp393
V0021201175
p394
aVAPR 11, 2013
p395
aVOKC @ GSW
p396
aVW
p397
aI30
aI7
aI17
aF0.412
aI1
aI5
aF0.2
aI3
aI4
aF0.75
aI2
aI1
aI3
aI9
aI0
aI2
aI6
aI1
aI18
aI12
aa(lp398
V0021201188
p399
aVAPR 12, 2013
p400
aVOKC @ POR
p401
aVW
p402
aI31
aI10
aI18
aF0.556
aI2
aI4
aF0.5
aI11
aI12
aF0.917
aI0
aI1
aI1
aI2
aI3
aI1
aI3
aI3
aI33
aI26
aa(lp403
V0021201209
p404
aVAPR 15, 2013
p405
aVOKC vs. SAC
p406
aVW
p407
aI36
aI8
aI19
aF0.421
aI2
aI5
aF0.4
aI3
aI4
aF0.75
aI1
aI4
aI5
aI8
aI3
aI0
aI4
aI2
aI21
aI16
aa(lp408
V0021201226
p409
aVAPR 17, 2013
p410
aVOKC vs. MIL
p411
aVL
p412
aI7
aI2
aI5
aF0.4
aI0
aI0
aF0.0
aI0
aI0
aF0.0
aI0
aI0
aI0
aI3
aI0
aI0
aI0
aI0
aI4
aI10
aasS'name'
p413
VRussell Westbrook
p414
sS'weight'
p415
V200
p416
sS'age'
p417
I24
sS'experience'
p418
I4
sS'height'
p419
V6-3
p420
sS'position'
p421
VGuard
p422
s.