(dp0
S'age'
p1
I25
sS'stats'
p2
(lp3
(lp4
V0021200003
p5
aVOCT 30, 2012
p6
aVDAL @ LAL
p7
aVW
p8
aI31
aI4
aI13
aF0.308
aI2
aI4
aF0.5
aI2
aI2
aF1.0
aI1
aI0
aI1
aI3
aI1
aI0
aI2
aI0
aI12
aI-1
aa(lp9
V0021200009
p10
aVOCT 31, 2012
p11
aVDAL @ UTA
p12
aVL
p13
aI31
aI3
aI9
aF0.333
aI3
aI5
aF0.6
aI3
aI4
aF0.75
aI0
aI4
aI4
aI3
aI0
aI0
aI2
aI4
aI12
aI-1
aa(lp14
V0021200034
p15
aVNOV 03, 2012
p16
aVDAL vs. CHA
p17
aVW
p18
aI32
aI10
aI17
aF0.588
aI7
aI10
aF0.7
aI3
aI3
aF1.0
aI1
aI5
aI6
aI3
aI0
aI0
aI2
aI2
aI30
aI27
aa(lp19
V0021200046
p20
aVNOV 05, 2012
p21
aVDAL vs. POR
p22
aVW
p23
aI39
aI12
aI18
aF0.667
aI6
aI8
aF0.75
aI2
aI2
aF1.0
aI0
aI2
aI2
aI1
aI2
aI1
aI3
aI1
aI32
aI21
aa(lp24
V0021200061
p25
aVNOV 07, 2012
p26
aVDAL vs. TOR
p27
aVW
p28
aI38
aI8
aI17
aF0.471
aI3
aI6
aF0.5
aI3
aI6
aF0.5
aI0
aI5
aI5
aI6
aI1
aI0
aI0
aI1
aI22
aI10
aa(lp29
V0021200071
p30
aVNOV 09, 2012
p31
aVDAL @ NYK
p32
aVL
p33
aI28
aI7
aI16
aF0.438
aI5
aI10
aF0.5
aI4
aI4
aF1.0
aI1
aI6
aI7
aI3
aI0
aI0
aI8
aI5
aI23
aI-5
aa(lp34
V0021200083
p35
aVNOV 10, 2012
p36
aVDAL @ CHA
p37
aVL
p38
aI43
aI6
aI12
aF0.5
aI2
aI3
aF0.667
aI8
aI8
aF1.0
aI0
aI1
aI1
aI2
aI1
aI0
aI2
aI5
aI22
aI-12
aa(lp39
V0021200100
p40
aVNOV 12, 2012
p41
aVDAL vs. MIN
p42
aVL
p43
aI34
aI7
aI18
aF0.389
aI2
aI4
aF0.5
aI2
aI2
aF1.0
aI2
aI3
aI5
aI1
aI0
aI0
aI2
aI3
aI18
aI-14
aa(lp44
V0021200115
p45
aVNOV 14, 2012
p46
aVDAL vs. WAS
p47
aVW
p48
aI38
aI9
aI15
aF0.6
aI1
aI3
aF0.333
aI6
aI8
aF0.75
aI2
aI0
aI2
aI4
aI0
aI1
aI2
aI1
aI25
aI0
aa(lp49
V0021200124
p50
aVNOV 16, 2012
p51
aVDAL @ IND
p52
aVL
p53
aI32
aI6
aI13
aF0.462
aI2
aI3
aF0.667
aI5
aI6
aF0.833
aI1
aI2
aI3
aI3
aI0
aI0
aI3
aI2
aI19
aI-14
aa(lp54
V0021200135
p55
aVNOV 17, 2012
p56
aVDAL @ CLE
p57
aVW
p58
aI33
aI5
aI9
aF0.556
aI3
aI5
aF0.6
aI6
aI6
aF1.0
aI0
aI1
aI1
aI3
aI1
aI0
aI4
aI2
aI19
aI1
aa(lp59
V0021200151
p60
aVNOV 19, 2012
p61
aVDAL vs. GSW
p62
aVL
p63
aI41
aI11
aI21
aF0.524
aI3
aI6
aF0.5
aI2
aI2
aF1.0
aI0
aI5
aI5
aI4
aI2
aI0
aI1
aI2
aI27
aI-11
aa(lp64
V0021200167
p65
aVNOV 21, 2012
p66
aVDAL vs. NYK
p67
aVW
p68
aI36
aI10
aI17
aF0.588
aI3
aI7
aF0.429
aI4
aI5
aF0.8
aI0
aI0
aI0
aI2
aI1
aI0
aI1
aI1
aI27
aI-2
aa(lp69
V0021200187
p70
aVNOV 24, 2012
p71
aVDAL vs. LAL
p72
aVL
p73
aI29
aI5
aI15
aF0.333
aI0
aI5
aF0.0
aI3
aI3
aF1.0
aI1
aI2
aI3
aI1
aI0
aI1
aI2
aI4
aI13
aI-30
aa(lp74
V0021200204
p75
aVNOV 27, 2012
p76
aVDAL @ PHI
p77
aVL
p78
aI35
aI4
aI10
aF0.4
aI1
aI3
aF0.333
aI2
aI4
aF0.5
aI1
aI4
aI5
aI7
aI0
aI0
aI3
aI1
aI11
aI-4
aa(lp79
V0021200214
p80
aVNOV 28, 2012
p81
aVDAL @ CHI
p82
aVL
p83
aI35
aI2
aI9
aF0.222
aI0
aI2
aF0.0
aI0
aI0
aF0.0
aI0
aI5
aI5
aI4
aI3
aI1
aI2
aI3
aI4
aI-16
aa(lp84
V0021200240
p85
aVDEC 01, 2012
p86
aVDAL vs. DET
p87
aVW
p88
aI35
aI10
aI21
aF0.476
aI6
aI9
aF0.667
aI1
aI1
aF1.0
aI2
aI3
aI5
aI4
aI0
aI0
aI1
aI2
aI27
aI13
aa(lp89
V0021200267
p90
aVDEC 05, 2012
p91
aVDAL @ LAC
p92
aVL
p93
aI34
aI4
aI12
aF0.333
aI0
aI4
aF0.0
aI3
aI5
aF0.6
aI0
aI4
aI4
aI7
aI3
aI1
aI4
aI1
aI11
aI-17
aa(lp94
V0021200269
p95
aVDEC 06, 2012
p96
aVDAL @ PHX
p97
aVW
p98
aI40
aI9
aI17
aF0.529
aI3
aI5
aF0.6
aI2
aI2
aF1.0
aI0
aI5
aI5
aI5
aI0
aI0
aI6
aI5
aI23
aI4
aa(lp99
V0021200290
p100
aVDEC 08, 2012
p101
aVDAL @ HOU
p102
aVW
p103
aI42
aI15
aI26
aF0.577
aI6
aI9
aF0.667
aI4
aI4
aF1.0
aI1
aI7
aI8
aI3
aI2
aI0
aI2
aI2
aI40
aI20
aa(lp104
V0021200302
p105
aVDEC 10, 2012
p106
aVDAL vs. SAC
p107
aVW
p108
aI28
aI6
aI9
aF0.667
aI3
aI4
aF0.75
aI4
aI5
aF0.8
aI1
aI6
aI7
aI4
aI1
aI0
aI2
aI0
aI19
aI8
aa(lp109
V0021200315
p110
aVDEC 12, 2012
p111
aVDAL @ BOS
p112
aVL
p113
aI52
aI10
aI19
aF0.526
aI3
aI7
aF0.429
aI1
aI2
aF0.5
aI0
aI6
aI6
aI3
aI2
aI0
aI9
aI4
aI24
aI4
aa(lp114
V0021200325
p115
aVDEC 14, 2012
p116
aVDAL @ TOR
p117
aVL
p118
aI29
aI2
aI8
aF0.25
aI0
aI4
aF0.0
aI6
aI6
aF1.0
aI0
aI2
aI2
aI3
aI1
aI0
aI6
aI3
aI10
aI-9
aa(lp119
V0021200342
p120
aVDEC 15, 2012
p121
aVDAL @ MIN
p122
aVL
p123
aI44
aI7
aI16
aF0.438
aI2
aI3
aF0.667
aI4
aI4
aF1.0
aI2
aI3
aI5
aI6
aI1
aI0
aI2
aI3
aI20
aI-7
aa(lp124
V0021200362
p125
aVDEC 18, 2012
p126
aVDAL vs. PHI
p127
aVW
p128
aI36
aI8
aI12
aF0.667
aI2
aI2
aF1.0
aI8
aI9
aF0.889
aI0
aI3
aI3
aI8
aI3
aI0
aI2
aI2
aI26
aI6
aa(lp129
V0021200378
p130
aVDEC 20, 2012
p131
aVDAL vs. MIA
p132
aVL
p133
aI30
aI3
aI14
aF0.214
aI0
aI5
aF0.0
aI2
aI2
aF1.0
aI0
aI5
aI5
aI2
aI2
aI2
aI1
aI2
aI8
aI-24
aa(lp134
V0021200386
p135
aVDEC 21, 2012
p136
aVDAL @ MEM
p137
aVL
p138
aI35
aI3
aI11
aF0.273
aI1
aI4
aF0.25
aI3
aI4
aF0.75
aI2
aI1
aI3
aI4
aI1
aI1
aI5
aI1
aI10
aI-18
aa(lp139
V0021200402
p140
aVDEC 23, 2012
p141
aVDAL @ SAS
p142
aVL
p143
aI28
aI3
aI8
aF0.375
aI0
aI2
aF0.0
aI1
aI2
aF0.5
aI1
aI1
aI2
aI6
aI2
aI0
aI6
aI2
aI7
aI-31
aa(lp144
V0021200423
p145
aVDEC 27, 2012
p146
aVDAL @ OKC
p147
aVL
p148
aI36
aI1
aI7
aF0.143
aI1
aI5
aF0.2
aI1
aI3
aF0.333
aI0
aI3
aI3
aI5
aI1
aI1
aI6
aI4
aI4
aI-7
aa(lp149
V0021200431
p150
aVDEC 28, 2012
p151
aVDAL vs. DEN
p152
aVL
p153
aI38
aI6
aI13
aF0.462
aI1
aI5
aF0.2
aI2
aI2
aF1.0
aI1
aI1
aI2
aI3
aI5
aI0
aI6
aI1
aI15
aI-7
aa(lp154
V0021200449
p155
aVDEC 30, 2012
p156
aVDAL vs. SAS
p157
aVL
p158
aI31
aI4
aI14
aF0.286
aI0
aI4
aF0.0
aI0
aI0
aF0.0
aI0
aI1
aI1
aI2
aI2
aI0
aI2
aI3
aI8
aI-12
aa(lp159
V0021200458
p160
aVJAN 01, 2013
p161
aVDAL @ WAS
p162
aVW
p163
aI36
aI6
aI10
aF0.6
aI3
aI4
aF0.75
aI0
aI0
aF0.0
aI1
aI0
aI1
aI5
aI2
aI0
aI0
aI3
aI15
aI21
aa(lp164
V0021200469
p165
aVJAN 02, 2013
p166
aVDAL @ MIA
p167
aVL
p168
aI46
aI12
aI21
aF0.571
aI4
aI10
aF0.4
aI2
aI2
aF1.0
aI0
aI3
aI3
aI6
aI2
aI0
aI6
aI3
aI30
aI-19
aa(lp169
V0021200495
p170
aVJAN 05, 2013
p171
aVDAL vs. NOH
p172
aVL
p173
aI35
aI5
aI17
aF0.294
aI1
aI7
aF0.143
aI3
aI3
aF1.0
aI1
aI3
aI4
aI0
aI2
aI1
aI1
aI5
aI14
aI-2
aa(lp174
V0021200508
p175
aVJAN 07, 2013
p176
aVDAL @ UTA
p177
aVL
p178
aI38
aI5
aI14
aF0.357
aI1
aI8
aF0.125
aI2
aI2
aF1.0
aI0
aI1
aI1
aI5
aI0
aI1
aI1
aI4
aI13
aI-1
aa(lp179
V0021200525
p180
aVJAN 09, 2013
p181
aVDAL @ LAC
p182
aVL
p183
aI38
aI6
aI15
aF0.4
aI1
aI6
aF0.167
aI4
aI4
aF1.0
aI0
aI1
aI1
aI3
aI3
aI0
aI1
aI4
aI17
aI6
aa(lp184
V0021200528
p185
aVJAN 10, 2013
p186
aVDAL @ SAC
p187
aVW
p188
aI41
aI8
aI15
aF0.533
aI1
aI4
aF0.25
aI7
aI8
aF0.875
aI0
aI10
aI10
aI5
aI1
aI0
aI1
aI1
aI24
aI6
aa(lp189
V0021200547
p190
aVJAN 12, 2013
p191
aVDAL vs. MEM
p192
aVW
p193
aI29
aI4
aI7
aF0.571
aI2
aI2
aF1.0
aI1
aI1
aF1.0
aI1
aI2
aI3
aI4
aI1
aI1
aI1
aI2
aI11
aI21
aa(lp194
V0021200560
p195
aVJAN 14, 2013
p196
aVDAL vs. MIN
p197
aVW
p198
aI38
aI8
aI11
aF0.727
aI3
aI4
aF0.75
aI1
aI1
aF1.0
aI0
aI7
aI7
aI9
aI2
aI0
aI1
aI2
aI20
aI30
aa(lp199
V0021200575
p200
aVJAN 16, 2013
p201
aVDAL vs. HOU
p202
aVW
p203
aI33
aI3
aI14
aF0.214
aI0
aI3
aF0.0
aI12
aI13
aF0.923
aI2
aI4
aI6
aI8
aI2
aI1
aI2
aI4
aI18
aI-5
aa(lp204
V0021200592
p205
aVJAN 18, 2013
p206
aVDAL vs. OKC
p207
aVL
p208
aI45
aI6
aI16
aF0.375
aI1
aI3
aF0.333
aI5
aI6
aF0.833
aI1
aI2
aI3
aI7
aI2
aI0
aI3
aI2
aI18
aI-5
aa(lp209
V0021200602
p210
aVJAN 20, 2013
p211
aVDAL @ ORL
p212
aVW
p213
aI35
aI6
aI10
aF0.6
aI1
aI2
aF0.5
aI2
aI2
aF1.0
aI0
aI3
aI3
aI4
aI0
aI0
aI2
aI2
aI15
aI4
aa(lp214
V0021200639
p215
aVJAN 25, 2013
p216
aVDAL vs. SAS
p217
aVL
p218
aI33
aI7
aI15
aF0.467
aI0
aI4
aF0.0
aI0
aI0
aF0.0
aI0
aI2
aI2
aI7
aI0
aI0
aI2
aI1
aI14
aI-22
aa(lp219
V0021200657
p220
aVJAN 27, 2013
p221
aVDAL vs. PHX
p222
aVW
p223
aI35
aI4
aI9
aF0.444
aI0
aI0
aF0.0
aI0
aI0
aF0.0
aI0
aI3
aI3
aI6
aI2
aI0
aI0
aI3
aI8
aI-4
aa(lp224
V0021200668
p225
aVJAN 29, 2013
p226
aVDAL @ POR
p227
aVL
p228
aI38
aI5
aI9
aF0.556
aI2
aI4
aF0.5
aI3
aI5
aF0.6
aI0
aI7
aI7
aI9
aI0
aI0
aI5
aI4
aI15
aI-10
aa(lp229
V0021200683
p230
aVJAN 31, 2013
p231
aVDAL @ GSW
p232
aVL
p233
aI40
aI8
aI13
aF0.615
aI3
aI5
aF0.6
aI6
aI8
aF0.75
aI1
aI4
aI5
aI6
aI1
aI0
aI2
aI3
aI25
aI4
aa(lp234
V0021200694
p235
aVFEB 01, 2013
p236
aVDAL @ PHX
p237
aVW
p238
aI37
aI7
aI19
aF0.368
aI2
aI3
aF0.667
aI4
aI5
aF0.8
aI2
aI3
aI5
aI4
aI3
aI0
aI3
aI2
aI20
aI6
aa(lp239
V0021200712
p240
aVFEB 04, 2013
p241
aVDAL @ OKC
p242
aVL
p243
aI33
aI4
aI10
aF0.4
aI0
aI4
aF0.0
aI0
aI0
aF0.0
aI0
aI4
aI4
aI6
aI0
aI0
aI5
aI2
aI8
aI-20
aa(lp244
V0021200730
p245
aVFEB 06, 2013
p246
aVDAL vs. POR
p247
aVW
p248
aI40
aI11
aI14
aF0.786
aI3
aI4
aF0.75
aI3
aI3
aF1.0
aI0
aI4
aI4
aI5
aI1
aI0
aI4
aI1
aI28
aI15
aa(lp249
V0021200750
p250
aVFEB 09, 2013
p251
aVDAL vs. GSW
p252
aVW
p253
aI36
aI6
aI13
aF0.462
aI2
aI4
aF0.5
aI5
aI5
aF1.0
aI0
aI3
aI3
aI9
aI2
aI1
aI2
aI2
aI19
aI24
aa(lp254
V0021200768
p255
aVFEB 11, 2013
p256
aVDAL vs. ATL
p257
aVL
p258
aI38
aI9
aI20
aF0.45
aI1
aI3
aF0.333
aI0
aI0
aF0.0
aI0
aI2
aI2
aI1
aI0
aI0
aI4
aI4
aI19
aI-8
aa(lp259
V0021200785
p260
aVFEB 13, 2013
p261
aVDAL vs. SAC
p262
aVW
p263
aI29
aI3
aI11
aF0.273
aI0
aI7
aF0.0
aI4
aI4
aF1.0
aI0
aI2
aI2
aI1
aI3
aI0
aI3
aI3
aI10
aI14
aa(lp264
V0021200806
p265
aVFEB 20, 2013
p266
aVDAL vs. ORL
p267
aVW
p268
aI37
aI5
aI11
aF0.455
aI3
aI7
aF0.429
aI0
aI0
aF0.0
aI0
aI4
aI4
aI4
aI0
aI2
aI0
aI2
aI13
aI10
aa(lp269
V0021200818
p270
aVFEB 22, 2013
p271
aVDAL @ NOH
p272
aVW
p273
aI37
aI4
aI11
aF0.364
aI0
aI3
aF0.0
aI2
aI5
aF0.4
aI0
aI3
aI3
aI9
aI1
aI2
aI1
aI2
aI10
aI14
aa(lp274
V0021200830
p275
aVFEB 24, 2013
p276
aVDAL vs. LAL
p277
aVL
p278
aI35
aI2
aI9
aF0.222
aI1
aI3
aF0.333
aI3
aI6
aF0.5
aI0
aI3
aI3
aI2
aI2
aI0
aI3
aI5
aI8
aI-17
aa(lp279
V0021200848
p280
aVFEB 26, 2013
p281
aVDAL vs. MIL
p282
aVL
p283
aI37
aI7
aI14
aF0.5
aI0
aI3
aF0.0
aI4
aI4
aF1.0
aI2
aI1
aI3
aI4
aI1
aI0
aI5
aI1
aI18
aI-2
aa(lp284
V0021200855
p285
aVFEB 27, 2013
p286
aVDAL @ MEM
p287
aVL
p288
aI40
aI5
aI13
aF0.385
aI0
aI0
aF0.0
aI1
aI2
aF0.5
aI0
aI2
aI2
aI2
aI0
aI1
aI5
aI2
aI11
aI-17
aa(lp289
V0021200870
p290
aVMAR 01, 2013
p291
aVDAL @ BKN
p292
aVW
p293
aI37
aI6
aI12
aF0.5
aI3
aI4
aF0.75
aI2
aI3
aF0.667
aI0
aI3
aI3
aI3
aI1
aI0
aI2
aI3
aI17
aI4
aa(lp294
V0021200885
p295
aVMAR 03, 2013
p296
aVDAL @ HOU
p297
aVL
p298
aI26
aI6
aI9
aF0.667
aI3
aI3
aF1.0
aI3
aI4
aF0.75
aI0
aI1
aI1
aI4
aI1
aI0
aI0
aI5
aI18
aI-21
aa(lp299
V0021200908
p300
aVMAR 06, 2013
p301
aVDAL vs. HOU
p302
aVW
p303
aI33
aI5
aI10
aF0.5
aI3
aI4
aF0.75
aI0
aI0
aF0.0
aI0
aI6
aI6
aI12
aI0
aI0
aI0
aI2
aI13
aI3
aa(lp304
V0021200919
p305
aVMAR 08, 2013
p306
aVDAL @ DET
p307
aVW
p308
aI35
aI7
aI15
aF0.467
aI5
aI9
aF0.556
aI3
aI4
aF0.75
aI1
aI4
aI5
aI3
aI1
aI0
aI0
aI0
aI22
aI-5
aa(lp309
V0021200940
p310
aVMAR 10, 2013
p311
aVDAL @ MIN
p312
aVW
p313
aI34
aI4
aI9
aF0.444
aI0
aI3
aF0.0
aI0
aI0
aF0.0
aI0
aI8
aI8
aI7
aI0
aI0
aI2
aI2
aI8
aI-2
aa(lp314
V0021200953
p315
aVMAR 12, 2013
p316
aVDAL @ MIL
p317
aVW
p318
aI37
aI6
aI12
aF0.5
aI2
aI5
aF0.4
aI0
aI0
aF0.0
aI0
aI1
aI1
aI3
aI1
aI0
aI1
aI1
aI14
aI9
aa(lp319
V0021200967
p320
aVMAR 14, 2013
p321
aVDAL @ SAS
p322
aVL
p323
aI34
aI4
aI11
aF0.364
aI0
aI1
aF0.0
aI2
aI2
aF1.0
aI0
aI2
aI2
aI2
aI1
aI0
aI1
aI3
aI10
aI-5
aa(lp324
V0021200976
p325
aVMAR 15, 2013
p326
aVDAL vs. CLE
p327
aVW
p328
aI29
aI5
aI10
aF0.5
aI0
aI1
aF0.0
aI0
aI2
aF0.0
aI0
aI3
aI3
aI4
aI0
aI2
aI2
aI1
aI10
aI-3
aa(lp329
V0021200990
p330
aVMAR 17, 2013
p331
aVDAL vs. OKC
p332
aVL
p333
aI34
aI4
aI10
aF0.4
aI0
aI2
aF0.0
aI1
aI1
aF1.0
aI0
aI1
aI1
aI3
aI1
aI0
aI2
aI0
aI9
aI-1
aa(lp334
V0021200996
p335
aVMAR 18, 2013
p336
aVDAL @ ATL
p337
aVW
p338
aI31
aI7
aI11
aF0.636
aI3
aI4
aF0.75
aI0
aI0
aF0.0
aI0
aI3
aI3
aI4
aI0
aI0
aI1
aI2
aI17
aI3
aa(lp339
V0021201015
p340
aVMAR 20, 2013
p341
aVDAL vs. BKN
p342
aVL
p343
aI38
aI4
aI9
aF0.444
aI0
aI0
aF0.0
aI1
aI2
aF0.5
aI1
aI4
aI5
aI6
aI0
aI0
aI4
aI3
aI9
aI-16
aa(lp344
V0021201029
p345
aVMAR 22, 2013
p346
aVDAL vs. BOS
p347
aVW
p348
aI39
aI4
aI8
aF0.5
aI2
aI3
aF0.667
aI0
aI0
aF0.0
aI0
aI4
aI4
aI9
aI2
aI0
aI2
aI3
aI10
aI17
aa(lp349
V0021201045
p350
aVMAR 24, 2013
p351
aVDAL vs. UTA
p352
aVW
p353
aI36
aI4
aI7
aF0.571
aI2
aI4
aF0.5
aI0
aI0
aF0.0
aI0
aI1
aI1
aI3
aI1
aI0
aI2
aI1
aI10
aI2
aa(lp354
V0021201056
p355
aVMAR 26, 2013
p356
aVDAL vs. LAC
p357
aVW
p358
aI44
aI5
aI15
aF0.333
aI0
aI4
aF0.0
aI1
aI2
aF0.5
aI0
aI5
aI5
aI4
aI3
aI0
aI1
aI4
aI11
aI7
aa(lp359
V0021201072
p360
aVMAR 28, 2013
p361
aVDAL vs. IND
p362
aVL
p363
aI35
aI3
aI10
aF0.3
aI1
aI5
aF0.2
aI0
aI0
aF0.0
aI0
aI3
aI3
aI1
aI0
aI0
aI2
aI1
aI7
aI-21
aa(lp364
V0021201085
p365
aVMAR 30, 2013
p366
aVDAL vs. CHI
p367
aVW
p368
aI42
aI1
aI13
aF0.077
aI0
aI3
aF0.0
aI2
aI2
aF1.0
aI0
aI2
aI2
aI4
aI1
aI0
aI2
aI1
aI4
aI7
aa(lp369
V0021201110
p370
aVAPR 02, 2013
p371
aVDAL @ LAL
p372
aVL
p373
aI34
aI5
aI10
aF0.5
aI2
aI4
aF0.5
aI0
aI0
aF0.0
aI0
aI5
aI5
aI4
aI1
aI0
aI3
aI3
aI12
aI-15
aa(lp374
V0021201124
p375
aVAPR 04, 2013
p376
aVDAL @ DEN
p377
aVL
p378
aI23
aI2
aI6
aF0.333
aI0
aI2
aF0.0
aI0
aI0
aF0.0
aI0
aI1
aI1
aI6
aI1
aI0
aI1
aI6
aI4
aI-6
aa(lp379
V0021201135
p380
aVAPR 05, 2013
p381
aVDAL @ SAC
p382
aVW
p383
aI35
aI5
aI9
aF0.556
aI1
aI3
aF0.333
aI2
aI2
aF1.0
aI1
aI3
aI4
aI6
aI2
aI0
aI2
aI2
aI13
aI18
aa(lp384
V0021201153
p385
aVAPR 07, 2013
p386
aVDAL @ POR
p387
aVW
p388
aI36
aI3
aI12
aF0.25
aI1
aI3
aF0.333
aI0
aI0
aF0.0
aI0
aI3
aI3
aI7
aI2
aI1
aI3
aI2
aI7
aI2
aa(lp389
V0021201169
p390
aVAPR 10, 2013
p391
aVDAL vs. PHX
p392
aVL
p393
aI38
aI2
aI10
aF0.2
aI0
aI2
aF0.0
aI2
aI2
aF1.0
aI2
aI3
aI5
aI6
aI0
aI0
aI5
aI2
aI6
aI-12
aa(lp394
V0021201185
p395
aVAPR 12, 2013
p396
aVDAL vs. DEN
p397
aVW
p398
aI42
aI7
aI13
aF0.538
aI5
aI7
aF0.714
aI1
aI2
aF0.5
aI0
aI3
aI3
aI6
aI2
aI1
aI2
aI2
aI20
aI6
aa(lp399
V0021201199
p400
aVAPR 14, 2013
p401
aVDAL @ NOH
p402
aVW
p403
aI35
aI3
aI6
aF0.5
aI2
aI3
aF0.667
aI0
aI0
aF0.0
aI0
aI2
aI2
aI4
aI1
aI0
aI1
aI0
aI8
aI14
aa(lp404
V0021201208
p405
aVAPR 15, 2013
p406
aVDAL vs. MEM
p407
aVL
p408
aI28
aI1
aI6
aF0.167
aI0
aI4
aF0.0
aI0
aI0
aF0.0
aI0
aI3
aI3
aI1
aI0
aI0
aI4
aI3
aI2
aI-8
aa(lp409
V0021201224
p410
aVAPR 17, 2013
p411
aVDAL vs. NOH
p412
aVW
p413
aI30
aI2
aI6
aF0.333
aI1
aI3
aF0.333
aI0
aI0
aF0.0
aI0
aI2
aI2
aI3
aI0
aI0
aI3
aI2
aI5
aI5
aasS'name'
p414
VO.J. Mayo
p415
sS'experience'
p416
I4
s.