(dp0
S'stats'
p1
(lp2
(lp3
V0021200008
p4
aVOCT 31, 2012
p5
aVNOH vs. SAS
p6
aVL
p7
aI29
aI3
aI10
aF0.3
aI1
aI5
aF0.2
aI4
aI4
aF1.0
aI0
aI5
aI5
aI0
aI0
aI0
aI0
aI2
aI11
aI16
aa(lp8
V0021200021
p9
aVNOV 02, 2012
p10
aVNOH vs. UTA
p11
aVW
p12
aI31
aI7
aI15
aF0.467
aI5
aI9
aF0.556
aI0
aI0
aF0.0
aI2
aI4
aI6
aI3
aI0
aI0
aI1
aI5
aI19
aI5
aa(lp13
V0021200031
p14
aVNOV 03, 2012
p15
aVNOH @ CHI
p16
aVW
p17
aI42
aI5
aI13
aF0.385
aI1
aI7
aF0.143
aI1
aI1
aF1.0
aI3
aI10
aI13
aI1
aI0
aI0
aI3
aI4
aI12
aI8
aa(lp18
V0021200058
p19
aVNOV 07, 2012
p20
aVNOH vs. PHI
p21
aVL
p22
aI34
aI3
aI10
aF0.3
aI1
aI6
aF0.167
aI2
aI2
aF1.0
aI2
aI8
aI10
aI2
aI1
aI0
aI2
aI2
aI9
aI-11
aa(lp23
V0021200074
p24
aVNOV 09, 2012
p25
aVNOH vs. CHA
p26
aVW
p27
aI28
aI10
aI16
aF0.625
aI5
aI10
aF0.5
aI0
aI0
aF0.0
aI4
aI3
aI7
aI2
aI0
aI0
aI0
aI0
aI25
aI0
aa(lp28
V0021200112
p29
aVNOV 14, 2012
p30
aVNOH @ HOU
p31
aVL
p32
aI29
aI9
aI19
aF0.474
aI2
aI10
aF0.2
aI0
aI0
aF0.0
aI6
aI6
aI12
aI1
aI0
aI1
aI0
aI1
aI20
aI-12
aa(lp33
V0021200125
p34
aVNOV 16, 2012
p35
aVNOH vs. OKC
p36
aVL
p37
aI21
aI6
aI11
aF0.545
aI3
aI3
aF1.0
aI0
aI0
aF0.0
aI4
aI3
aI7
aI1
aI1
aI0
aI0
aI1
aI15
aI-16
aa(lp38
V0021200136
p39
aVNOV 17, 2012
p40
aVNOH @ MIL
p41
aVL
p42
aI29
aI8
aI16
aF0.5
aI4
aI9
aF0.444
aI0
aI0
aF0.0
aI2
aI2
aI4
aI2
aI0
aI0
aI3
aI4
aI20
aI-1
aa(lp43
V0021200155
p44
aVNOV 20, 2012
p45
aVNOH vs. NYK
p46
aVL
p47
aI31
aI6
aI14
aF0.429
aI3
aI8
aF0.375
aI0
aI0
aF0.0
aI0
aI8
aI8
aI1
aI0
aI0
aI0
aI5
aI15
aI-17
aa(lp48
V0021200160
p49
aVNOV 21, 2012
p50
aVNOH @ IND
p51
aVL
p52
aI41
aI6
aI11
aF0.545
aI5
aI5
aF1.0
aI0
aI0
aF0.0
aI1
aI6
aI7
aI2
aI0
aI2
aI0
aI6
aI17
aI-4
aa(lp53
V0021200181
p54
aVNOV 23, 2012
p55
aVNOH @ PHX
p56
aVL
p57
aI47
aI13
aI23
aF0.565
aI8
aI13
aF0.615
aI0
aI0
aF0.0
aI2
aI9
aI11
aI1
aI2
aI1
aI2
aI2
aI34
aI-1
aa(lp58
V0021200196
p59
aVNOV 25, 2012
p60
aVNOH @ DEN
p61
aVL
p62
aI31
aI6
aI13
aF0.462
aI3
aI6
aF0.5
aI1
aI2
aF0.5
aI2
aI2
aI4
aI1
aI0
aI0
aI0
aI1
aI16
aI-21
aa(lp63
V0021200203
p64
aVNOV 26, 2012
p65
aVNOH @ LAC
p66
aVW
p67
aI35
aI6
aI14
aF0.429
aI5
aI9
aF0.556
aI0
aI0
aF0.0
aI2
aI6
aI8
aI1
aI0
aI1
aI1
aI2
aI17
aI-10
aa(lp68
V0021200217
p69
aVNOV 28, 2012
p70
aVNOH vs. UTA
p71
aVL
p72
aI30
aI2
aI8
aF0.25
aI1
aI6
aF0.167
aI2
aI2
aF1.0
aI0
aI8
aI8
aI2
aI1
aI0
aI1
aI4
aI7
aI-10
aa(lp73
V0021200236
p74
aVDEC 01, 2012
p75
aVNOH vs. OKC
p76
aVL
p77
aI34
aI6
aI17
aF0.353
aI3
aI11
aF0.273
aI6
aI8
aF0.75
aI5
aI5
aI10
aI2
aI1
aI0
aI3
aI0
aI21
aI-6
aa(lp78
V0021200247
p79
aVDEC 03, 2012
p80
aVNOH vs. MIL
p81
aVW
p82
aI33
aI9
aI14
aF0.643
aI2
aI6
aF0.333
aI2
aI2
aF1.0
aI2
aI5
aI7
aI1
aI0
aI0
aI1
aI3
aI22
aI9
aa(lp83
V0021200263
p84
aVDEC 05, 2012
p85
aVNOH vs. LAL
p86
aVL
p87
aI35
aI12
aI21
aF0.571
aI5
aI8
aF0.625
aI2
aI2
aF1.0
aI5
aI4
aI9
aI1
aI0
aI1
aI0
aI3
aI31
aI-4
aa(lp88
V0021200275
p89
aVDEC 07, 2012
p90
aVNOH vs. MEM
p91
aVL
p92
aI34
aI5
aI13
aF0.385
aI3
aI7
aF0.429
aI2
aI2
aF1.0
aI2
aI0
aI2
aI0
aI0
aI0
aI0
aI1
aI15
aI-15
aa(lp93
V0021200286
p94
aVDEC 08, 2012
p95
aVNOH @ MIA
p96
aVL
p97
aI30
aI10
aI19
aF0.526
aI4
aI6
aF0.667
aI0
aI0
aF0.0
aI2
aI3
aI5
aI1
aI0
aI0
aI2
aI4
aI24
aI6
aa(lp98
V0021200307
p99
aVDEC 11, 2012
p100
aVNOH vs. WAS
p101
aVL
p102
aI38
aI7
aI21
aF0.333
aI3
aI12
aF0.25
aI0
aI0
aF0.0
aI4
aI7
aI11
aI0
aI1
aI0
aI1
aI3
aI17
aI-4
aa(lp103
V0021200318
p104
aVDEC 12, 2012
p105
aVNOH @ OKC
p106
aVL
p107
aI32
aI6
aI14
aF0.429
aI2
aI7
aF0.286
aI0
aI0
aF0.0
aI2
aI5
aI7
aI5
aI1
aI1
aI1
aI3
aI14
aI10
aa(lp108
V0021200331
p109
aVDEC 14, 2012
p110
aVNOH vs. MIN
p111
aVL
p112
aI39
aI8
aI17
aF0.471
aI4
aI11
aF0.364
aI0
aI0
aF0.0
aI3
aI4
aI7
aI1
aI2
aI0
aI1
aI4
aI20
aI-13
aa(lp113
V0021200349
p114
aVDEC 16, 2012
p115
aVNOH @ POR
p116
aVL
p117
aI34
aI9
aI16
aF0.563
aI7
aI10
aF0.7
aI1
aI2
aF0.5
aI5
aI1
aI6
aI2
aI2
aI0
aI1
aI3
aI26
aI-6
aa(lp118
V0021200365
p119
aVDEC 18, 2012
p120
aVNOH @ GSW
p121
aVL
p122
aI41
aI8
aI22
aF0.364
aI4
aI14
aF0.286
aI8
aI8
aF1.0
aI0
aI0
aI0
aI0
aI1
aI0
aI1
aI3
aI28
aI3
aa(lp123
V0021200376
p124
aVDEC 19, 2012
p125
aVNOH @ LAC
p126
aVL
p127
aI27
aI2
aI13
aF0.154
aI0
aI8
aF0.0
aI3
aI3
aF1.0
aI1
aI4
aI5
aI0
aI0
aI0
aI1
aI0
aI7
aI-19
aa(lp128
V0021200387
p129
aVDEC 21, 2012
p130
aVNOH @ SAS
p131
aVL
p132
aI33
aI5
aI15
aF0.333
aI2
aI7
aF0.286
aI0
aI0
aF0.0
aI2
aI4
aI6
aI1
aI2
aI1
aI2
aI3
aI12
aI1
aa(lp133
V0021200393
p134
aVDEC 22, 2012
p135
aVNOH vs. IND
p136
aVL
p137
aI26
aI2
aI9
aF0.222
aI2
aI5
aF0.4
aI0
aI0
aF0.0
aI0
aI1
aI1
aI1
aI2
aI1
aI1
aI4
aI6
aI-4
aa(lp138
V0021200412
p139
aVDEC 26, 2012
p140
aVNOH @ ORL
p141
aVW
p142
aI30
aI4
aI11
aF0.364
aI1
aI5
aF0.2
aI6
aI6
aF1.0
aI3
aI2
aI5
aI2
aI0
aI1
aI2
aI2
aI15
aI-6
aa(lp143
V0021200430
p144
aVDEC 28, 2012
p145
aVNOH vs. TOR
p146
aVL
p147
aI31
aI7
aI15
aF0.467
aI3
aI6
aF0.5
aI0
aI0
aF0.0
aI4
aI8
aI12
aI0
aI0
aI1
aI1
aI0
aI17
aI-9
aa(lp148
V0021200437
p149
aVDEC 29, 2012
p150
aVNOH @ CHA
p151
aVW
p152
aI28
aI6
aI14
aF0.429
aI3
aI6
aF0.5
aI4
aI6
aF0.667
aI3
aI5
aI8
aI1
aI0
aI0
aI0
aI3
aI19
aI-5
aa(lp153
V0021200461
p154
aVJAN 01, 2013
p155
aVNOH vs. ATL
p156
aVL
p157
aI32
aI9
aI15
aF0.6
aI5
aI10
aF0.5
aI0
aI0
aF0.0
aI3
aI3
aI6
aI0
aI0
aI0
aI0
aI2
aI23
aI-8
aa(lp158
V0021200471
p159
aVJAN 02, 2013
p160
aVNOH @ HOU
p161
aVL
p162
aI29
aI6
aI15
aF0.4
aI2
aI8
aF0.25
aI4
aI4
aF1.0
aI1
aI6
aI7
aI1
aI1
aI1
aI0
aI2
aI18
aI-5
aa(lp163
V0021200495
p164
aVJAN 05, 2013
p165
aVNOH @ DAL
p166
aVW
p167
aI38
aI6
aI15
aF0.4
aI4
aI7
aF0.571
aI0
aI0
aF0.0
aI1
aI6
aI7
aI2
aI0
aI0
aI1
aI0
aI16
aI4
aa(lp168
V0021200507
p169
aVJAN 07, 2013
p170
aVNOH vs. SAS
p171
aVW
p172
aI32
aI4
aI13
aF0.308
aI3
aI6
aF0.5
aI2
aI2
aF1.0
aI2
aI3
aI5
aI1
aI2
aI0
aI0
aI4
aI13
aI7
aa(lp173
V0021200521
p174
aVJAN 09, 2013
p175
aVNOH vs. HOU
p176
aVW
p177
aI27
aI0
aI7
aF0.0
aI0
aI4
aF0.0
aI0
aI0
aF0.0
aI1
aI4
aI5
aI0
aI0
aI0
aI0
aI0
aI0
aI9
aa(lp178
V0021200536
p179
aVJAN 11, 2013
p180
aVNOH vs. MIN
p181
aVW
p182
aI26
aI6
aI13
aF0.462
aI3
aI7
aF0.429
aI0
aI0
aF0.0
aI3
aI4
aI7
aI1
aI1
aI0
aI0
aI3
aI15
aI10
aa(lp183
V0021200549
p184
aVJAN 13, 2013
p185
aVNOH @ NYK
p186
aVL
p187
aI21
aI3
aI12
aF0.25
aI1
aI8
aF0.125
aI0
aI0
aF0.0
aI1
aI4
aI5
aI0
aI0
aI0
aI2
aI1
aI7
aI-11
aa(lp188
V0021200564
p189
aVJAN 15, 2013
p190
aVNOH @ PHI
p191
aVW
p192
aI29
aI5
aI11
aF0.455
aI2
aI6
aF0.333
aI2
aI2
aF1.0
aI2
aI7
aI9
aI0
aI1
aI0
aI1
aI0
aI14
aI6
aa(lp193
V0021200573
p194
aVJAN 16, 2013
p195
aVNOH @ BOS
p196
aVW
p197
aI25
aI3
aI11
aF0.273
aI1
aI5
aF0.2
aI3
aI3
aF1.0
aI2
aI4
aI6
aI2
aI1
aI0
aI2
aI3
aI10
aI8
aa(lp198
V0021200596
p199
aVJAN 19, 2013
p200
aVNOH vs. GSW
p201
aVL
p202
aI28
aI8
aI14
aF0.571
aI2
aI7
aF0.286
aI1
aI2
aF0.5
aI1
aI4
aI5
aI3
aI0
aI0
aI0
aI1
aI19
aI-6
aa(lp203
V0021200606
p204
aVJAN 21, 2013
p205
aVNOH vs. SAC
p206
aVW
p207
aI34
aI10
aI22
aF0.455
aI7
aI14
aF0.5
aI0
aI0
aF0.0
aI4
aI2
aI6
aI2
aI0
aI0
aI0
aI4
aI27
aI3
aa(lp208
V0021200624
p209
aVJAN 23, 2013
p210
aVNOH @ SAS
p211
aVL
p212
aI31
aI5
aI10
aF0.5
aI2
aI4
aF0.5
aI4
aI4
aF1.0
aI1
aI5
aI6
aI3
aI0
aI0
aI1
aI3
aI16
aI-11
aa(lp213
V0021200638
p214
aVJAN 25, 2013
p215
aVNOH vs. HOU
p216
aVL
p217
aI33
aI6
aI13
aF0.462
aI0
aI5
aF0.0
aI7
aI7
aF1.0
aI3
aI1
aI4
aI1
aI1
aI2
aI1
aI2
aI19
aI-7
aa(lp218
V0021200655
p219
aVJAN 27, 2013
p220
aVNOH @ MEM
p221
aVW
p222
aI28
aI7
aI13
aF0.538
aI7
aI13
aF0.538
aI1
aI2
aF0.5
aI1
aI4
aI5
aI0
aI0
aI0
aI1
aI4
aI22
aI6
aa(lp223
V0021200669
p224
aVJAN 29, 2013
p225
aVNOH @ LAL
p226
aVL
p227
aI28
aI6
aI15
aF0.4
aI3
aI7
aF0.429
aI1
aI1
aF1.0
aI0
aI6
aI6
aI0
aI1
aI0
aI1
aI2
aI16
aI-1
aa(lp228
V0021200680
p229
aVJAN 30, 2013
p230
aVNOH @ UTA
p231
aVL
p232
aI26
aI5
aI11
aF0.455
aI3
aI6
aF0.5
aI3
aI5
aF0.6
aI1
aI5
aI6
aI1
aI0
aI0
aI2
aI6
aI16
aI-15
aa(lp233
V0021200692
p234
aVFEB 01, 2013
p235
aVNOH @ DEN
p236
aVL
p237
aI36
aI7
aI15
aF0.467
aI3
aI7
aF0.429
aI4
aI4
aF1.0
aI1
aI1
aI2
aI0
aI1
aI1
aI3
aI0
aI21
aI-14
aa(lp238
V0021200700
p239
aVFEB 02, 2013
p240
aVNOH @ MIN
p241
aVL
p242
aI20
aI2
aI8
aF0.25
aI1
aI5
aF0.2
aI3
aI4
aF0.75
aI1
aI1
aI2
aI1
aI0
aI0
aI2
aI2
aI8
aI-24
aa(lp243
V0021200728
p244
aVFEB 06, 2013
p245
aVNOH vs. PHX
p246
aVW
p247
aI31
aI4
aI10
aF0.4
aI3
aI6
aF0.5
aI3
aI3
aF1.0
aI1
aI3
aI4
aI3
aI0
aI0
aI3
aI2
aI14
aI8
aa(lp248
V0021200738
p249
aVFEB 08, 2013
p250
aVNOH @ ATL
p251
aVW
p252
aI29
aI7
aI11
aF0.636
aI4
aI7
aF0.571
aI1
aI2
aF0.5
aI3
aI5
aI8
aI1
aI0
aI0
aI3
aI3
aI19
aI4
aa(lp253
V0021200755
p254
aVFEB 10, 2013
p255
aVNOH @ TOR
p256
aVL
p257
aI33
aI5
aI11
aF0.455
aI1
aI5
aF0.2
aI4
aI4
aF1.0
aI2
aI4
aI6
aI1
aI0
aI1
aI2
aI0
aI15
aI-2
aa(lp258
V0021200765
p259
aVFEB 11, 2013
p260
aVNOH @ DET
p261
aVW
p262
aI31
aI13
aI21
aF0.619
aI5
aI9
aF0.556
aI0
aI0
aF0.0
aI3
aI1
aI4
aI1
aI0
aI2
aI1
aI3
aI31
aI8
aa(lp263
V0021200783
p264
aVFEB 13, 2013
p265
aVNOH vs. POR
p266
aVW
p267
aI25
aI6
aI14
aF0.429
aI2
aI5
aF0.4
aI0
aI0
aF0.0
aI3
aI4
aI7
aI2
aI2
aI1
aI0
aI0
aI14
aI28
aa(lp268
V0021200793
p269
aVFEB 19, 2013
p270
aVNOH vs. CHI
p271
aVL
p272
aI28
aI2
aI11
aF0.182
aI0
aI4
aF0.0
aI6
aI9
aF0.667
aI5
aI1
aI6
aI1
aI0
aI1
aI1
aI2
aI10
aI-4
aa(lp273
V0021200800
p274
aVFEB 20, 2013
p275
aVNOH @ CLE
p276
aVL
p277
aI28
aI3
aI11
aF0.273
aI1
aI4
aF0.25
aI0
aI0
aF0.0
aI0
aI3
aI3
aI1
aI0
aI0
aI3
aI1
aI7
aI9
aa(lp278
V0021200818
p279
aVFEB 22, 2013
p280
aVNOH vs. DAL
p281
aVL
p282
aI33
aI7
aI11
aF0.636
aI2
aI5
aF0.4
aI4
aI4
aF1.0
aI4
aI8
aI12
aI0
aI1
aI0
aI1
aI5
aI20
aI6
aa(lp283
V0021200834
p284
aVFEB 24, 2013
p285
aVNOH vs. SAC
p286
aVW
p287
aI24
aI7
aI12
aF0.583
aI2
aI3
aF0.667
aI1
aI1
aF1.0
aI5
aI4
aI9
aI3
aI0
aI1
aI1
aI1
aI17
aI15
aa(lp288
V0021200847
p289
aVFEB 26, 2013
p290
aVNOH vs. BKN
p291
aVL
p292
aI30
aI5
aI11
aF0.455
aI1
aI5
aF0.2
aI2
aI2
aF1.0
aI1
aI6
aI7
aI1
aI2
aI1
aI0
aI2
aI13
aI-9
aa(lp293
V0021200857
p294
aVFEB 27, 2013
p295
aVNOH @ OKC
p296
aVL
p297
aI24
aI5
aI11
aF0.455
aI3
aI6
aF0.5
aI1
aI2
aF0.5
aI0
aI0
aI0
aI1
aI1
aI0
aI1
aI2
aI14
aI-30
aa(lp298
V0021200871
p299
aVMAR 01, 2013
p300
aVNOH vs. DET
p301
aVW
p302
aI43
aI7
aI17
aF0.412
aI2
aI8
aF0.25
aI3
aI6
aF0.5
aI6
aI7
aI13
aI1
aI0
aI0
aI3
aI1
aI19
aI-1
aa(lp303
V0021200891
p304
aVMAR 04, 2013
p305
aVNOH vs. ORL
p306
aVL
p307
aI34
aI4
aI9
aF0.444
aI2
aI4
aF0.5
aI3
aI4
aF0.75
aI2
aI0
aI2
aI2
aI0
aI2
aI1
aI5
aI13
aI-26
aa(lp308
V0021200906
p309
aVMAR 06, 2013
p310
aVNOH vs. LAL
p311
aVL
p312
aI36
aI4
aI9
aF0.444
aI2
aI5
aF0.4
aI4
aI4
aF1.0
aI4
aI2
aI6
aI4
aI0
aI1
aI5
aI2
aI14
aI-4
aa(lp313
V0021200930
p314
aVMAR 09, 2013
p315
aVNOH @ MEM
p316
aVL
p317
aI31
aI7
aI18
aF0.389
aI1
aI5
aF0.2
aI2
aI2
aF1.0
aI2
aI5
aI7
aI0
aI0
aI1
aI1
aI1
aI17
aI2
aa(lp318
V0021200939
p319
aVMAR 10, 2013
p320
aVNOH vs. POR
p321
aVW
p322
aI34
aI7
aI15
aF0.467
aI4
aI9
aF0.444
aI2
aI3
aF0.667
aI2
aI11
aI13
aI3
aI2
aI1
aI2
aI1
aI20
aI6
aa(lp323
V0021200970
p324
aVMAR 15, 2013
p325
aVNOH @ WAS
p326
aVL
p327
aI36
aI6
aI18
aF0.333
aI1
aI10
aF0.1
aI0
aI0
aF0.0
aI2
aI3
aI5
aI1
aI1
aI0
aI1
aI3
aI13
aI-11
aa(lp328
V0021200989
p329
aVMAR 17, 2013
p330
aVNOH @ MIN
p331
aVL
p332
aI25
aI2
aI10
aF0.2
aI2
aI4
aF0.5
aI1
aI2
aF0.5
aI2
aI0
aI2
aI1
aI1
aI0
aI2
aI3
aI7
aI-7
aa(lp333
V0021201001
p334
aVMAR 18, 2013
p335
aVNOH vs. GSW
p336
aVL
p337
aI29
aI7
aI19
aF0.368
aI1
aI6
aF0.167
aI6
aI6
aF1.0
aI3
aI6
aI9
aI1
aI1
aI0
aI0
aI2
aI21
aI-5
aa(lp338
V0021201013
p339
aVMAR 20, 2013
p340
aVNOH vs. BOS
p341
aVW
p342
aI32
aI5
aI12
aF0.417
aI2
aI5
aF0.4
aI9
aI11
aF0.818
aI3
aI2
aI5
aI1
aI0
aI0
aI3
aI1
aI21
aI-3
aa(lp343
V0021201027
p344
aVMAR 22, 2013
p345
aVNOH vs. MEM
p346
aVW
p347
aI14
aI3
aI5
aF0.6
aI2
aI4
aF0.5
aI0
aI0
aF0.0
aI1
aI5
aI6
aI0
aI0
aI1
aI2
aI4
aI8
aI-2
aa(lp348
V0021201051
p349
aVMAR 25, 2013
p350
aVNOH vs. DEN
p351
aVW
p352
aI36
aI9
aI22
aF0.409
aI5
aI11
aF0.455
aI0
aI0
aF0.0
aI3
aI6
aI9
aI1
aI1
aI0
aI0
aI2
aI23
aI24
aa(lp353
V0021201063
p354
aVMAR 27, 2013
p355
aVNOH vs. LAC
p356
aVL
p357
aI21
aI3
aI9
aF0.333
aI0
aI4
aF0.0
aI2
aI2
aF1.0
aI2
aI3
aI5
aI0
aI0
aI1
aI2
aI0
aI8
aI-2
aa(lp358
V0021201080
p359
aVMAR 29, 2013
p360
aVNOH vs. MIA
p361
aVL
p362
aI31
aI8
aI15
aF0.533
aI2
aI6
aF0.333
aI2
aI2
aF1.0
aI2
aI1
aI3
aI3
aI0
aI0
aI2
aI1
aI20
aI-7
aa(lp363
V0021201096
p364
aVMAR 31, 2013
p365
aVNOH vs. CLE
p366
aVW
p367
aI32
aI9
aI14
aF0.643
aI5
aI7
aF0.714
aI0
aI0
aF0.0
aI0
aI6
aI6
aI2
aI1
aI0
aI1
aI2
aI23
aI16
aa(lp368
V0021201122
p369
aVAPR 03, 2013
p370
aVNOH @ GSW
p371
aVL
p372
aI20
aI1
aI8
aF0.125
aI1
aI4
aF0.25
aI0
aI0
aF0.0
aI1
aI4
aI5
aI2
aI1
aI0
aI0
aI1
aI3
aI-17
aa(lp373
V0021201133
p374
aVAPR 05, 2013
p375
aVNOH @ UTA
p376
aVL
p377
aI23
aI0
aI10
aF0.0
aI0
aI4
aF0.0
aI4
aI4
aF1.0
aI3
aI3
aI6
aI0
aI0
aI1
aI3
aI2
aI4
aI-21
aa(lp378
V0021201152
p379
aVAPR 07, 2013
p380
aVNOH @ PHX
p381
aVW
p382
aI35
aI6
aI16
aF0.375
aI2
aI8
aF0.25
aI3
aI3
aF1.0
aI5
aI5
aI10
aI0
aI0
aI0
aI2
aI0
aI17
aI-1
aa(lp383
V0021201162
p384
aVAPR 09, 2013
p385
aVNOH @ LAL
p386
aVL
p387
aI25
aI5
aI14
aF0.357
aI3
aI6
aF0.5
aI1
aI1
aF1.0
aI1
aI0
aI1
aI2
aI0
aI0
aI1
aI1
aI14
aI-13
aa(lp388
V0021201170
p389
aVAPR 10, 2013
p390
aVNOH @ SAC
p391
aVL
p392
aI32
aI3
aI13
aF0.231
aI1
aI6
aF0.167
aI2
aI2
aF1.0
aI1
aI4
aI5
aI0
aI0
aI0
aI1
aI2
aI9
aI-7
aa(lp393
V0021201183
p394
aVAPR 12, 2013
p395
aVNOH vs. LAC
p396
aVL
p397
aI39
aI6
aI18
aF0.333
aI2
aI8
aF0.25
aI3
aI6
aF0.5
aI3
aI3
aI6
aI1
aI2
aI0
aI0
aI4
aI17
aI-3
aa(lp398
V0021201199
p399
aVAPR 14, 2013
p400
aVNOH vs. DAL
p401
aVL
p402
aI41
aI8
aI20
aF0.4
aI4
aI7
aF0.571
aI0
aI0
aF0.0
aI8
aI4
aI12
aI1
aI0
aI1
aI1
aI1
aI20
aI-10
aa(lp403
V0021201224
p404
aVAPR 17, 2013
p405
aVNOH @ DAL
p406
aVL
p407
aI36
aI4
aI13
aF0.308
aI1
aI3
aF0.333
aI4
aI5
aF0.8
aI6
aI1
aI7
aI0
aI0
aI0
aI0
aI2
aI13
aI-12
aasS'name'
p408
VRyan Anderson
p409
sS'weight'
p410
V240
p411
sS'age'
p412
I24
sS'experience'
p413
I4
sS'height'
p414
V6-10
p415
sS'position'
p416
VForward
p417
s.