(dp0
S'stats'
p1
(lp2
(lp3
V0021200023
p4
aVNOV 02, 2012
p5
aVMIN vs. SAC
p6
aVW
p7
aI32
aI2
aI8
aF0.25
aI0
aI0
aF0.0
aI5
aI8
aF0.625
aI3
aI2
aI5
aI0
aI0
aI1
aI1
aI2
aI9
aI5
aa(lp8
V0021200038
p9
aVNOV 04, 2012
p10
aVMIN @ TOR
p11
aVL
p12
aI29
aI6
aI11
aF0.545
aI0
aI0
aF0.0
aI3
aI4
aF0.75
aI1
aI2
aI3
aI1
aI1
aI1
aI3
aI1
aI15
aI-5
aa(lp13
V0021200043
p14
aVNOV 05, 2012
p15
aVMIN @ BKN
p16
aVW
p17
aI26
aI9
aI14
aF0.643
aI0
aI0
aF0.0
aI3
aI3
aF1.0
aI6
aI1
aI7
aI1
aI1
aI2
aI3
aI4
aI21
aI3
aa(lp18
V0021200060
p19
aVNOV 07, 2012
p20
aVMIN vs. ORL
p21
aVW
p22
aI25
aI5
aI9
aF0.556
aI0
aI0
aF0.0
aI1
aI2
aF0.5
aI1
aI4
aI5
aI0
aI1
aI2
aI5
aI3
aI11
aI10
aa(lp23
V0021200076
p24
aVNOV 09, 2012
p25
aVMIN vs. IND
p26
aVW
p27
aI36
aI4
aI10
aF0.4
aI0
aI0
aF0.0
aI5
aI6
aF0.833
aI1
aI7
aI8
aI2
aI2
aI1
aI2
aI3
aI13
aI-6
aa(lp28
V0021200084
p29
aVNOV 10, 2012
p30
aVMIN @ CHI
p31
aVL
p32
aI35
aI8
aI13
aF0.615
aI0
aI0
aF0.0
aI2
aI4
aF0.5
aI3
aI5
aI8
aI0
aI0
aI0
aI1
aI4
aI18
aI1
aa(lp33
V0021200100
p34
aVNOV 12, 2012
p35
aVMIN @ DAL
p36
aVW
p37
aI28
aI8
aI13
aF0.615
aI0
aI0
aF0.0
aI4
aI5
aF0.8
aI2
aI4
aI6
aI3
aI1
aI0
aI1
aI1
aI20
aI21
aa(lp38
V0021200166
p39
aVNOV 21, 2012
p40
aVMIN vs. DEN
p41
aVL
p42
aI30
aI4
aI8
aF0.5
aI0
aI0
aF0.0
aI2
aI2
aF1.0
aI2
aI5
aI7
aI0
aI0
aI1
aI2
aI2
aI10
aI-3
aa(lp43
V0021200182
p44
aVNOV 23, 2012
p45
aVMIN @ POR
p46
aVL
p47
aI33
aI4
aI13
aF0.308
aI0
aI0
aF0.0
aI10
aI12
aF0.833
aI7
aI3
aI10
aI2
aI1
aI0
aI3
aI4
aI18
aI0
aa(lp48
V0021200190
p49
aVNOV 24, 2012
p50
aVMIN @ GSW
p51
aVL
p52
aI30
aI7
aI13
aF0.538
aI0
aI0
aF0.0
aI3
aI4
aF0.75
aI1
aI5
aI6
aI0
aI0
aI0
aI0
aI3
aI17
aI-11
aa(lp53
V0021200207
p54
aVNOV 27, 2012
p55
aVMIN @ SAC
p56
aVW
p57
aI36
aI6
aI13
aF0.462
aI0
aI0
aF0.0
aI4
aI6
aF0.667
aI3
aI5
aI8
aI4
aI0
aI1
aI4
aI4
aI16
aI10
aa(lp58
V0021200219
p59
aVNOV 28, 2012
p60
aVMIN @ LAC
p61
aVL
p62
aI33
aI5
aI13
aF0.385
aI0
aI0
aF0.0
aI1
aI2
aF0.5
aI4
aI6
aI10
aI2
aI2
aI1
aI2
aI4
aI11
aI-11
aa(lp63
V0021200230
p64
aVNOV 30, 2012
p65
aVMIN vs. MIL
p66
aVW
p67
aI36
aI5
aI12
aF0.417
aI0
aI0
aF0.0
aI4
aI6
aF0.667
aI5
aI11
aI16
aI1
aI2
aI3
aI2
aI2
aI14
aI8
aa(lp68
V0021200251
p69
aVDEC 04, 2012
p70
aVMIN @ PHI
p71
aVW
p72
aI27
aI3
aI7
aF0.429
aI0
aI0
aF0.0
aI0
aI0
aF0.0
aI1
aI4
aI5
aI2
aI0
aI0
aI2
aI1
aI6
aI11
aa(lp73
V0021200259
p74
aVDEC 05, 2012
p75
aVMIN @ BOS
p76
aVL
p77
aI32
aI6
aI13
aF0.462
aI0
aI0
aF0.0
aI2
aI2
aF1.0
aI4
aI5
aI9
aI1
aI2
aI0
aI0
aI1
aI14
aI-10
aa(lp78
V0021200276
p79
aVDEC 07, 2012
p80
aVMIN vs. CLE
p81
aVW
p82
aI25
aI0
aI3
aF0.0
aI0
aI0
aF0.0
aI4
aI4
aF1.0
aI1
aI0
aI1
aI1
aI0
aI1
aI2
aI4
aI4
aI15
aa(lp83
V0021200319
p84
aVDEC 12, 2012
p85
aVMIN vs. DEN
p86
aVW
p87
aI32
aI7
aI10
aF0.7
aI0
aI0
aF0.0
aI8
aI8
aF1.0
aI5
aI6
aI11
aI2
aI0
aI2
aI2
aI2
aI22
aI8
aa(lp88
V0021200331
p89
aVDEC 14, 2012
p90
aVMIN @ NOH
p91
aVW
p92
aI32
aI14
aI18
aF0.778
aI0
aI0
aF0.0
aI3
aI4
aF0.75
aI4
aI1
aI5
aI1
aI1
aI0
aI2
aI3
aI31
aI14
aa(lp93
V0021200342
p94
aVDEC 15, 2012
p95
aVMIN vs. DAL
p96
aVW
p97
aI43
aI10
aI21
aF0.476
aI0
aI0
aF0.0
aI1
aI1
aF1.0
aI7
aI2
aI9
aI3
aI0
aI0
aI1
aI0
aI21
aI-5
aa(lp98
V0021200350
p99
aVDEC 17, 2012
p100
aVMIN @ ORL
p101
aVL
p102
aI36
aI8
aI18
aF0.444
aI0
aI0
aF0.0
aI3
aI5
aF0.6
aI7
aI5
aI12
aI0
aI0
aI0
aI4
aI4
aI19
aI-6
aa(lp103
V0021200359
p104
aVDEC 18, 2012
p105
aVMIN @ MIA
p106
aVL
p107
aI33
aI9
aI19
aF0.474
aI0
aI0
aF0.0
aI0
aI0
aF0.0
aI9
aI3
aI12
aI0
aI1
aI0
aI6
aI2
aI18
aI-20
aa(lp108
V0021200377
p109
aVDEC 20, 2012
p110
aVMIN vs. OKC
p111
aVW
p112
aI38
aI10
aI18
aF0.556
aI0
aI0
aF0.0
aI4
aI4
aF1.0
aI2
aI8
aI10
aI0
aI1
aI2
aI2
aI2
aI24
aI12
aa(lp113
V0021200400
p114
aVDEC 23, 2012
p115
aVMIN @ NYK
p116
aVL
p117
aI40
aI7
aI16
aF0.438
aI0
aI0
aF0.0
aI7
aI8
aF0.875
aI6
aI11
aI17
aI2
aI0
aI0
aI1
aI2
aI21
aI1
aa(lp118
V0021200417
p119
aVDEC 26, 2012
p120
aVMIN vs. HOU
p121
aVL
p122
aI23
aI1
aI7
aF0.143
aI0
aI0
aF0.0
aI0
aI0
aF0.0
aI2
aI5
aI7
aI0
aI0
aI0
aI1
aI1
aI2
aI3
aa(lp123
V0021200444
p124
aVDEC 29, 2012
p125
aVMIN vs. PHX
p126
aVW
p127
aI34
aI13
aI20
aF0.65
aI0
aI0
aF0.0
aI2
aI4
aF0.5
aI6
aI5
aI11
aI1
aI1
aI1
aI0
aI1
aI28
aI5
aa(lp128
V0021200473
p129
aVJAN 02, 2013
p130
aVMIN @ UTA
p131
aVL
p132
aI30
aI4
aI9
aF0.444
aI0
aI0
aF0.0
aI3
aI4
aF0.75
aI3
aI1
aI4
aI0
aI1
aI4
aI1
aI1
aI11
aI-1
aa(lp133
V0021200477
p134
aVJAN 03, 2013
p135
aVMIN @ DEN
p136
aVW
p137
aI29
aI4
aI9
aF0.444
aI0
aI0
aF0.0
aI3
aI5
aF0.6
aI3
aI3
aI6
aI0
aI0
aI0
aI0
aI5
aI11
aI-13
aa(lp138
V0021200494
p139
aVJAN 05, 2013
p140
aVMIN vs. POR
p141
aVL
p142
aI22
aI9
aI14
aF0.643
aI0
aI0
aF0.0
aI3
aI3
aF1.0
aI8
aI7
aI15
aI0
aI0
aI2
aI0
aI2
aI21
aI-4
aa(lp143
V0021200515
p144
aVJAN 08, 2013
p145
aVMIN vs. ATL
p146
aVW
p147
aI35
aI9
aI15
aF0.6
aI0
aI0
aF0.0
aI7
aI8
aF0.875
aI6
aI12
aI18
aI1
aI0
aI1
aI1
aI2
aI25
aI4
aa(lp148
V0021200523
p149
aVJAN 09, 2013
p150
aVMIN @ OKC
p151
aVL
p152
aI27
aI6
aI10
aF0.6
aI0
aI0
aF0.0
aI5
aI6
aF0.833
aI5
aI5
aI10
aI0
aI0
aI0
aI0
aI1
aI17
aI-3
aa(lp153
V0021200536
p154
aVJAN 11, 2013
p155
aVMIN @ NOH
p156
aVL
p157
aI29
aI7
aI13
aF0.538
aI0
aI0
aF0.0
aI4
aI7
aF0.571
aI2
aI4
aI6
aI2
aI0
aI2
aI1
aI1
aI18
aI-10
aa(lp158
V0021200552
p159
aVJAN 13, 2013
p160
aVMIN @ SAS
p161
aVL
p162
aI29
aI6
aI12
aF0.5
aI0
aI0
aF0.0
aI2
aI2
aF1.0
aI1
aI3
aI4
aI0
aI0
aI2
aI2
aI0
aI14
aI-3
aa(lp163
V0021200560
p164
aVJAN 14, 2013
p165
aVMIN @ DAL
p166
aVL
p167
aI32
aI8
aI11
aF0.727
aI0
aI0
aF0.0
aI4
aI10
aF0.4
aI4
aI8
aI12
aI0
aI1
aI0
aI1
aI3
aI20
aI-24
aa(lp168
V0021200581
p169
aVJAN 17, 2013
p170
aVMIN vs. LAC
p171
aVL
p172
aI26
aI1
aI8
aF0.125
aI0
aI0
aF0.0
aI2
aI4
aF0.5
aI3
aI6
aI9
aI0
aI0
aI0
aI1
aI1
aI4
aI-3
aa(lp173
V0021200677
p174
aVJAN 30, 2013
p175
aVMIN vs. LAC
p176
aVL
p177
aI37
aI8
aI15
aF0.533
aI0
aI0
aF0.0
aI1
aI2
aF0.5
aI2
aI10
aI12
aI1
aI0
aI1
aI1
aI3
aI17
aI-14
aa(lp178
V0021200695
p179
aVFEB 01, 2013
p180
aVMIN vs. LAL
p181
aVL
p182
aI34
aI6
aI13
aF0.462
aI0
aI0
aF0.0
aI2
aI5
aF0.4
aI1
aI8
aI9
aI0
aI1
aI1
aI0
aI1
aI14
aI-10
aa(lp183
V0021200700
p184
aVFEB 02, 2013
p185
aVMIN vs. NOH
p186
aVW
p187
aI24
aI5
aI10
aF0.5
aI0
aI0
aF0.0
aI4
aI5
aF0.8
aI3
aI4
aI7
aI0
aI1
aI1
aI3
aI4
aI14
aI13
aa(lp188
V0021200713
p189
aVFEB 04, 2013
p190
aVMIN vs. POR
p191
aVL
p192
aI35
aI5
aI11
aF0.455
aI0
aI0
aF0.0
aI3
aI3
aF1.0
aI4
aI7
aI11
aI1
aI1
aI0
aI2
aI3
aI13
aI-8
aa(lp193
V0021200731
p194
aVFEB 06, 2013
p195
aVMIN vs. SAS
p196
aVL
p197
aI35
aI5
aI9
aF0.556
aI0
aI0
aF0.0
aI11
aI12
aF0.917
aI4
aI6
aI10
aI0
aI0
aI1
aI4
aI2
aI21
aI-6
aa(lp198
V0021200745
p199
aVFEB 08, 2013
p200
aVMIN vs. NYK
p201
aVL
p202
aI36
aI6
aI10
aF0.6
aI0
aI0
aF0.0
aI4
aI5
aF0.8
aI6
aI5
aI11
aI1
aI1
aI0
aI3
aI1
aI16
aI-11
aa(lp203
V0021200757
p204
aVFEB 10, 2013
p205
aVMIN @ MEM
p206
aVL
p207
aI30
aI2
aI5
aF0.4
aI0
aI0
aF0.0
aI4
aI6
aF0.667
aI1
aI5
aI6
aI2
aI1
aI0
aI3
aI3
aI8
aI-18
aa(lp208
V0021200763
p209
aVFEB 11, 2013
p210
aVMIN @ CLE
p211
aVW
p212
aI40
aI6
aI14
aF0.429
aI0
aI0
aF0.0
aI4
aI6
aF0.667
aI5
aI5
aI10
aI2
aI2
aI0
aI2
aI0
aI16
aI12
aa(lp213
V0021200784
p214
aVFEB 13, 2013
p215
aVMIN vs. UTA
p216
aVL
p217
aI40
aI7
aI16
aF0.438
aI0
aI0
aF0.0
aI5
aI8
aF0.625
aI7
aI6
aI13
aI0
aI1
aI1
aI1
aI2
aI19
aI10
aa(lp218
V0021200805
p219
aVFEB 20, 2013
p220
aVMIN vs. PHI
p221
aVW
p222
aI41
aI9
aI16
aF0.563
aI0
aI0
aF0.0
aI9
aI15
aF0.6
aI7
aI11
aI18
aI0
aI1
aI2
aI2
aI5
aI27
aI10
aa(lp223
V0021200819
p224
aVFEB 22, 2013
p225
aVMIN @ OKC
p226
aVL
p227
aI22
aI1
aI4
aF0.25
aI0
aI0
aF0.0
aI3
aI4
aF0.75
aI1
aI1
aI2
aI0
aI2
aI0
aI0
aI1
aI5
aI-20
aa(lp228
V0021200832
p229
aVFEB 24, 2013
p230
aVMIN vs. GSW
p231
aVL
p232
aI33
aI10
aI18
aF0.556
aI0
aI0
aF0.0
aI1
aI3
aF0.333
aI5
aI3
aI8
aI1
aI2
aI1
aI3
aI5
aI21
aI8
aa(lp233
V0021200849
p234
aVFEB 26, 2013
p235
aVMIN @ PHX
p236
aVL
p237
aI40
aI6
aI11
aF0.545
aI0
aI0
aF0.0
aI6
aI6
aF1.0
aI5
aI7
aI12
aI2
aI3
aI3
aI1
aI4
aI18
aI11
aa(lp238
V0021200863
p239
aVFEB 28, 2013
p240
aVMIN @ LAL
p241
aVL
p242
aI9
aI4
aI6
aF0.667
aI0
aI0
aF0.0
aI0
aI0
aF0.0
aI1
aI2
aI3
aI0
aI0
aI0
aI1
aI0
aI8
aI-3
aa(lp243
V0021200989
p244
aVMAR 17, 2013
p245
aVMIN vs. NOH
p246
aVW
p247
aI24
aI5
aI8
aF0.625
aI0
aI0
aF0.0
aI3
aI6
aF0.5
aI4
aI2
aI6
aI0
aI0
aI2
aI2
aI4
aI13
aI-14
aa(lp248
V0021201000
p249
aVMAR 18, 2013
p250
aVMIN @ MEM
p251
aVL
p252
aI24
aI3
aI9
aF0.333
aI0
aI0
aF0.0
aI3
aI4
aF0.75
aI3
aI2
aI5
aI0
aI0
aI1
aI0
aI2
aI9
aI-22
aa(lp253
V0021201021
p254
aVMAR 21, 2013
p255
aVMIN @ SAC
p256
aVL
p257
aI34
aI6
aI12
aF0.5
aI0
aI0
aF0.0
aI6
aI8
aF0.75
aI7
aI5
aI12
aI0
aI1
aI0
aI1
aI4
aI18
aI-7
aa(lp258
V0021201031
p259
aVMAR 22, 2013
p260
aVMIN @ PHX
p261
aVW
p262
aI14
aI5
aI7
aF0.714
aI0
aI0
aF0.0
aI1
aI4
aF0.25
aI1
aI1
aI2
aI0
aI1
aI0
aI0
aI5
aI11
aI14
aa(lp263
V0021201044
p264
aVMAR 24, 2013
p265
aVMIN vs. CHI
p266
aVL
p267
aI31
aI6
aI9
aF0.667
aI0
aI0
aF0.0
aI3
aI3
aF1.0
aI2
aI6
aI8
aI1
aI0
aI1
aI1
aI2
aI15
aI-3
aa(lp268
V0021201055
p269
aVMAR 26, 2013
p270
aVMIN @ DET
p271
aVW
p272
aI30
aI7
aI10
aF0.7
aI0
aI0
aF0.0
aI4
aI5
aF0.8
aI3
aI8
aI11
aI2
aI0
aI1
aI2
aI1
aI18
aI28
aa(lp273
V0021201066
p274
aVMAR 27, 2013
p275
aVMIN vs. LAL
p276
aVL
p277
aI41
aI6
aI14
aF0.429
aI0
aI0
aF0.0
aI7
aI8
aF0.875
aI7
aI9
aI16
aI1
aI2
aI1
aI4
aI3
aI19
aI1
aa(lp278
V0021201081
p279
aVMAR 29, 2013
p280
aVMIN vs. OKC
p281
aVW
p282
aI36
aI10
aI16
aF0.625
aI0
aI0
aF0.0
aI2
aI2
aF1.0
aI7
aI8
aI15
aI1
aI0
aI0
aI1
aI1
aI22
aI10
aa(lp283
V0021201105
p284
aVAPR 01, 2013
p285
aVMIN vs. BOS
p286
aVW
p287
aI41
aI9
aI15
aF0.6
aI0
aI0
aF0.0
aI11
aI11
aF1.0
aI1
aI4
aI5
aI1
aI1
aI1
aI0
aI2
aI29
aI-2
aa(lp288
V0021201116
p289
aVAPR 03, 2013
p290
aVMIN @ MIL
p291
aVW
p292
aI37
aI11
aI14
aF0.786
aI0
aI0
aF0.0
aI5
aI7
aF0.714
aI3
aI5
aI8
aI3
aI1
aI0
aI1
aI1
aI27
aI22
aa(lp293
V0021201132
p294
aVAPR 05, 2013
p295
aVMIN vs. TOR
p296
aVL
p297
aI41
aI6
aI12
aF0.5
aI0
aI0
aF0.0
aI12
aI16
aF0.75
aI2
aI6
aI8
aI0
aI1
aI0
aI1
aI2
aI24
aI-1
aa(lp298
V0021201141
p299
aVAPR 06, 2013
p300
aVMIN vs. DET
p301
aVW
p302
aI36
aI7
aI15
aF0.467
aI0
aI0
aF0.0
aI6
aI8
aF0.75
aI6
aI7
aI13
aI2
aI0
aI0
aI1
aI2
aI20
aI20
aa(lp303
V0021201163
p304
aVAPR 09, 2013
p305
aVMIN @ GSW
p306
aVL
p307
aI26
aI2
aI8
aF0.25
aI0
aI0
aF0.0
aI1
aI2
aF0.5
aI1
aI6
aI7
aI0
aI1
aI2
aI1
aI3
aI5
aI-20
aa(lp308
V0021201173
p309
aVAPR 10, 2013
p310
aVMIN @ LAC
p311
aVL
p312
aI25
aI7
aI13
aF0.538
aI0
aI0
aF0.0
aI6
aI7
aF0.857
aI3
aI2
aI5
aI0
aI0
aI0
aI1
aI1
aI20
aI-13
aasS'name'
p313
VNikola Pekovic
p314
sS'weight'
p315
V307
p316
sS'age'
p317
I26
sS'experience'
p318
I2
sS'height'
p319
V6-11
p320
sS'position'
p321
VCenter
p322
s.