(dp0
S'age'
p1
I24
sS'stats'
p2
(lp3
(lp4
V0021200166
p5
aVNOV 21, 2012
p6
aVMIN vs. DEN
p7
aVL
p8
aI35
aI12
aI25
aF0.48
aI2
aI9
aF0.222
aI8
aI14
aF0.571
aI5
aI9
aI14
aI2
aI2
aI1
aI3
aI4
aI34
aI7
aa(lp9
V0021200182
p10
aVNOV 23, 2012
p11
aVMIN @ POR
p12
aVL
p13
aI36
aI6
aI15
aF0.4
aI0
aI2
aF0.0
aI12
aI16
aF0.75
aI2
aI11
aI13
aI1
aI3
aI0
aI1
aI3
aI24
aI-2
aa(lp14
V0021200190
p15
aVNOV 24, 2012
p16
aVMIN @ GSW
p17
aVL
p18
aI34
aI6
aI20
aF0.3
aI1
aI5
aF0.2
aI2
aI4
aF0.5
aI6
aI9
aI15
aI2
aI0
aI0
aI2
aI1
aI15
aI-15
aa(lp19
V0021200207
p20
aVNOV 27, 2012
p21
aVMIN @ SAC
p22
aVW
p23
aI44
aI8
aI17
aF0.471
aI2
aI8
aF0.25
aI5
aI6
aF0.833
aI3
aI21
aI24
aI2
aI2
aI1
aI2
aI4
aI23
aI10
aa(lp24
V0021200219
p25
aVNOV 28, 2012
p26
aVMIN @ LAC
p27
aVL
p28
aI35
aI3
aI12
aF0.25
aI1
aI5
aF0.2
aI12
aI16
aF0.75
aI3
aI9
aI12
aI3
aI0
aI1
aI3
aI3
aI19
aI-9
aa(lp29
V0021200230
p30
aVNOV 30, 2012
p31
aVMIN vs. MIL
p32
aVW
p33
aI30
aI5
aI19
aF0.263
aI1
aI7
aF0.143
aI4
aI7
aF0.571
aI4
aI10
aI14
aI0
aI1
aI0
aI1
aI1
aI15
aI14
aa(lp34
V0021200251
p35
aVDEC 04, 2012
p36
aVMIN @ PHI
p37
aVW
p38
aI26
aI2
aI10
aF0.2
aI1
aI5
aF0.2
aI1
aI2
aF0.5
aI2
aI8
aI10
aI5
aI0
aI0
aI1
aI0
aI6
aI9
aa(lp39
V0021200259
p40
aVDEC 05, 2012
p41
aVMIN @ BOS
p42
aVL
p43
aI35
aI6
aI15
aF0.4
aI1
aI5
aF0.2
aI6
aI12
aF0.5
aI4
aI9
aI13
aI4
aI0
aI0
aI5
aI2
aI19
aI-9
aa(lp44
V0021200276
p45
aVDEC 07, 2012
p46
aVMIN vs. CLE
p47
aVW
p48
aI35
aI10
aI19
aF0.526
aI2
aI5
aF0.4
aI14
aI18
aF0.778
aI6
aI7
aI13
aI0
aI1
aI1
aI3
aI0
aI36
aI18
aa(lp49
V0021200319
p50
aVDEC 12, 2012
p51
aVMIN vs. DEN
p52
aVW
p53
aI31
aI3
aI17
aF0.176
aI0
aI3
aF0.0
aI2
aI4
aF0.5
aI5
aI9
aI14
aI1
aI0
aI0
aI2
aI5
aI8
aI1
aa(lp54
V0021200331
p55
aVDEC 14, 2012
p56
aVMIN @ NOH
p57
aVW
p58
aI36
aI4
aI18
aF0.222
aI1
aI4
aF0.25
aI5
aI7
aF0.714
aI3
aI6
aI9
aI3
aI0
aI0
aI1
aI1
aI14
aI9
aa(lp59
V0021200350
p60
aVDEC 17, 2012
p61
aVMIN @ ORL
p62
aVL
p63
aI38
aI10
aI20
aF0.5
aI2
aI6
aF0.333
aI1
aI2
aF0.5
aI2
aI13
aI15
aI0
aI3
aI0
aI2
aI0
aI23
aI-4
aa(lp64
V0021200359
p65
aVDEC 18, 2012
p66
aVMIN @ MIA
p67
aVL
p68
aI33
aI2
aI10
aF0.2
aI0
aI0
aF0.0
aI7
aI8
aF0.875
aI3
aI15
aI18
aI3
aI0
aI0
aI3
aI3
aI11
aI-15
aa(lp69
V0021200377
p70
aVDEC 20, 2012
p71
aVMIN vs. OKC
p72
aVW
p73
aI40
aI9
aI20
aF0.45
aI4
aI9
aF0.444
aI6
aI8
aF0.75
aI2
aI9
aI11
aI7
aI0
aI2
aI1
aI1
aI28
aI2
aa(lp74
V0021200417
p75
aVDEC 26, 2012
p76
aVMIN vs. HOU
p77
aVL
p78
aI36
aI3
aI14
aF0.214
aI0
aI7
aF0.0
aI1
aI1
aF1.0
aI3
aI9
aI12
aI3
aI0
aI1
aI5
aI1
aI7
aI-4
aa(lp79
V0021200444
p80
aVDEC 29, 2012
p81
aVMIN vs. PHX
p82
aVW
p83
aI41
aI8
aI20
aF0.4
aI2
aI6
aF0.333
aI5
aI7
aF0.714
aI2
aI16
aI18
aI1
aI0
aI0
aI2
aI3
aI23
aI6
aa(lp84
V0021200473
p85
aVJAN 02, 2013
p86
aVMIN @ UTA
p87
aVL
p88
aI30
aI4
aI14
aF0.286
aI0
aI4
aF0.0
aI5
aI5
aF1.0
aI4
aI6
aI10
aI3
aI1
aI2
aI1
aI1
aI13
aI-4
aa(lp89
V0021200477
p90
aVJAN 03, 2013
p91
aVMIN @ DEN
p92
aVW
p93
aI24
aI4
aI13
aF0.308
aI0
aI2
aF0.0
aI4
aI5
aF0.8
aI5
aI12
aI17
aI2
aI0
aI0
aI1
aI1
aI12
aI-12
aasS'name'
p94
VKevin Love
p95
sS'experience'
p96
I4
s.