(dp0
S'age'
p1
I26
sS'stats'
p2
(lp3
(lp4
V0021200010
p5
aVOCT 31, 2012
p6
aVPHX vs. GSW
p7
aVL
p8
aI37
aI4
aI12
aF0.333
aI1
aI5
aF0.2
aI8
aI10
aF0.8
aI1
aI5
aI6
aI8
aI3
aI1
aI3
aI3
aI17
aI6
aa(lp9
V0021200024
p10
aVNOV 02, 2012
p11
aVPHX vs. DET
p12
aVW
p13
aI34
aI5
aI10
aF0.5
aI1
aI2
aF0.5
aI4
aI6
aF0.667
aI1
aI1
aI2
aI10
aI1
aI0
aI1
aI0
aI15
aI4
aa(lp14
V0021200039
p15
aVNOV 04, 2012
p16
aVPHX @ ORL
p17
aVL
p18
aI35
aI5
aI12
aF0.417
aI1
aI5
aF0.2
aI1
aI2
aF0.5
aI2
aI1
aI3
aI8
aI1
aI0
aI3
aI3
aI12
aI-14
aa(lp19
V0021200044
p20
aVNOV 05, 2012
p21
aVPHX @ MIA
p22
aVL
p23
aI29
aI3
aI9
aF0.333
aI2
aI3
aF0.667
aI5
aI6
aF0.833
aI0
aI3
aI3
aI9
aI2
aI0
aI2
aI2
aI13
aI-16
aa(lp24
V0021200053
p25
aVNOV 07, 2012
p26
aVPHX @ CHA
p27
aVW
p28
aI33
aI5
aI10
aF0.5
aI3
aI6
aF0.5
aI3
aI5
aF0.6
aI1
aI1
aI2
aI8
aI0
aI0
aI2
aI3
aI16
aI8
aa(lp29
V0021200077
p30
aVNOV 09, 2012
p31
aVPHX vs. CLE
p32
aVW
p33
aI34
aI9
aI16
aF0.563
aI0
aI3
aF0.0
aI8
aI10
aF0.8
aI0
aI0
aI0
aI4
aI2
aI0
aI3
aI2
aI26
aI-7
aa(lp34
V0021200087
p35
aVNOV 10, 2012
p36
aVPHX @ UTA
p37
aVL
p38
aI40
aI6
aI13
aF0.462
aI1
aI5
aF0.2
aI0
aI0
aF0.0
aI1
aI2
aI3
aI6
aI2
aI1
aI2
aI3
aI13
aI-20
aa(lp39
V0021200101
p40
aVNOV 12, 2012
p41
aVPHX vs. DEN
p42
aVW
p43
aI31
aI7
aI12
aF0.583
aI4
aI5
aF0.8
aI3
aI4
aF0.75
aI2
aI2
aI4
aI7
aI2
aI0
aI2
aI3
aI21
aI11
aa(lp44
V0021200116
p45
aVNOV 14, 2012
p46
aVPHX vs. CHI
p47
aVL
p48
aI31
aI5
aI10
aF0.5
aI0
aI3
aF0.0
aI2
aI2
aF1.0
aI1
aI1
aI2
aI5
aI3
aI0
aI4
aI5
aI12
aI-20
aa(lp49
V0021200130
p50
aVNOV 16, 2012
p51
aVPHX @ LAL
p52
aVL
p53
aI36
aI9
aI17
aF0.529
aI3
aI6
aF0.5
aI1
aI3
aF0.333
aI1
aI1
aI2
aI7
aI2
aI0
aI0
aI4
aI22
aI-9
aa(lp54
V0021200138
p55
aVNOV 17, 2012
p56
aVPHX vs. MIA
p57
aVL
p58
aI30
aI5
aI12
aF0.417
aI0
aI4
aF0.0
aI2
aI4
aF0.5
aI1
aI4
aI5
aI8
aI4
aI0
aI2
aI2
aI12
aI-17
aa(lp59
V0021200168
p60
aVNOV 21, 2012
p61
aVPHX vs. POR
p62
aVW
p63
aI27
aI3
aI7
aF0.429
aI2
aI5
aF0.4
aI7
aI8
aF0.875
aI0
aI2
aI2
aI8
aI3
aI1
aI1
aI3
aI15
aI10
aa(lp64
V0021200181
p65
aVNOV 23, 2012
p66
aVPHX vs. NOH
p67
aVW
p68
aI37
aI7
aI14
aF0.5
aI3
aI6
aF0.5
aI3
aI4
aF0.75
aI0
aI2
aI2
aI8
aI3
aI0
aI3
aI1
aI20
aI-10
aa(lp69
V0021200194
p70
aVNOV 25, 2012
p71
aVPHX @ PHI
p72
aVL
p73
aI29
aI4
aI10
aF0.4
aI2
aI5
aF0.4
aI0
aI0
aF0.0
aI2
aI1
aI3
aI4
aI2
aI0
aI2
aI4
aI10
aI-2
aa(lp74
V0021200205
p75
aVNOV 27, 2012
p76
aVPHX @ CLE
p77
aVW
p78
aI31
aI6
aI11
aF0.545
aI3
aI5
aF0.6
aI4
aI4
aF1.0
aI1
aI4
aI5
aI7
aI2
aI1
aI5
aI1
aI19
aI19
aa(lp79
V0021200213
p80
aVNOV 28, 2012
p81
aVPHX @ DET
p82
aVL
p83
aI16
aI3
aI7
aF0.429
aI1
aI2
aF0.5
aI3
aI4
aF0.75
aI0
aI3
aI3
aI1
aI1
aI0
aI2
aI3
aI10
aI-11
aa(lp84
V0021200222
p85
aVNOV 30, 2012
p86
aVPHX @ TOR
p87
aVL
p88
aI32
aI5
aI11
aF0.455
aI2
aI6
aF0.333
aI1
aI1
aF1.0
aI1
aI4
aI5
aI5
aI1
aI1
aI2
aI3
aI13
aI3
aa(lp89
V0021200243
p90
aVDEC 02, 2012
p91
aVPHX @ NYK
p92
aVL
p93
aI26
aI4
aI9
aF0.444
aI1
aI4
aF0.25
aI0
aI1
aF0.0
aI1
aI3
aI4
aI5
aI0
aI0
aI2
aI2
aI9
aI-13
aa(lp94
V0021200255
p95
aVDEC 04, 2012
p96
aVPHX @ MEM
p97
aVL
p98
aI44
aI8
aI15
aF0.533
aI1
aI3
aF0.333
aI2
aI4
aF0.5
aI0
aI2
aI2
aI7
aI2
aI0
aI3
aI4
aI19
aI-12
aa(lp99
V0021200269
p100
aVDEC 06, 2012
p101
aVPHX vs. DAL
p102
aVL
p103
aI41
aI5
aI14
aF0.357
aI2
aI5
aF0.4
aI3
aI4
aF0.75
aI1
aI1
aI2
aI4
aI4
aI0
aI2
aI5
aI15
aI-8
aa(lp104
V0021200282
p105
aVDEC 08, 2012
p106
aVPHX @ LAC
p107
aVL
p108
aI26
aI2
aI7
aF0.286
aI0
aI2
aF0.0
aI4
aI4
aF1.0
aI1
aI3
aI4
aI5
aI1
aI0
aI4
aI4
aI8
aI-10
aa(lp109
V0021200320
p110
aVDEC 12, 2012
p111
aVPHX vs. MEM
p112
aVW
p113
aI33
aI5
aI10
aF0.5
aI1
aI4
aF0.25
aI1
aI2
aF0.5
aI2
aI3
aI5
aI8
aI1
aI0
aI2
aI4
aI12
aI-2
aa(lp114
V0021200334
p115
aVDEC 14, 2012
p116
aVPHX vs. UTA
p117
aVW
p118
aI35
aI6
aI14
aF0.429
aI0
aI2
aF0.0
aI5
aI6
aF0.833
aI0
aI2
aI2
aI5
aI2
aI0
aI1
aI0
aI17
aI22
aa(lp119
V0021200355
p120
aVDEC 17, 2012
p121
aVPHX vs. SAC
p122
aVW
p123
aI33
aI3
aI11
aF0.273
aI0
aI4
aF0.0
aI2
aI2
aF1.0
aI0
aI2
aI2
aI7
aI1
aI0
aI1
aI1
aI8
aI24
aa(lp124
V0021200373
p125
aVDEC 19, 2012
p126
aVPHX vs. CHA
p127
aVW
p128
aI34
aI8
aI13
aF0.615
aI4
aI5
aF0.8
aI1
aI2
aF0.5
aI0
aI3
aI3
aI11
aI0
aI0
aI3
aI5
aI21
aI11
aa(lp129
V0021200397
p130
aVDEC 22, 2012
p131
aVPHX @ POR
p132
aVL
p133
aI33
aI4
aI13
aF0.308
aI2
aI5
aF0.4
aI0
aI0
aF0.0
aI0
aI1
aI1
aI5
aI0
aI0
aI1
aI2
aI10
aI-9
aa(lp134
V0021200403
p135
aVDEC 23, 2012
p136
aVPHX vs. LAC
p137
aVL
p138
aI29
aI2
aI8
aF0.25
aI0
aI2
aF0.0
aI3
aI4
aF0.75
aI0
aI1
aI1
aI1
aI1
aI0
aI2
aI2
aI7
aI-4
aa(lp139
V0021200421
p140
aVDEC 26, 2012
p141
aVPHX vs. NYK
p142
aVL
p143
aI18
aI2
aI6
aF0.333
aI0
aI2
aF0.0
aI0
aI2
aF0.0
aI0
aI1
aI1
aI3
aI0
aI0
aI1
aI0
aI4
aI-8
aa(lp144
V0021200444
p145
aVDEC 29, 2012
p146
aVPHX @ MIN
p147
aVL
p148
aI36
aI4
aI10
aF0.4
aI0
aI2
aF0.0
aI8
aI13
aF0.615
aI1
aI4
aI5
aI12
aI1
aI1
aI0
aI3
aI16
aI-5
aa(lp149
V0021200456
p150
aVDEC 31, 2012
p151
aVPHX @ OKC
p152
aVL
p153
aI32
aI5
aI11
aF0.455
aI2
aI5
aF0.4
aI4
aI6
aF0.667
aI0
aI3
aI3
aI8
aI0
aI1
aI5
aI2
aI16
aI-20
aa(lp154
V0021200474
p155
aVJAN 02, 2013
p156
aVPHX vs. PHI
p157
aVW
p158
aI41
aI7
aI13
aF0.538
aI1
aI4
aF0.25
aI5
aI9
aF0.556
aI2
aI2
aI4
aI6
aI1
aI3
aI1
aI4
aI20
aI17
aa(lp159
V0021200487
p160
aVJAN 04, 2013
p161
aVPHX vs. UTA
p162
aVL
p163
aI35
aI8
aI16
aF0.5
aI1
aI4
aF0.25
aI0
aI0
aF0.0
aI1
aI2
aI3
aI6
aI2
aI0
aI3
aI2
aI17
aI-9
aa(lp164
V0021200502
p165
aVJAN 06, 2013
p166
aVPHX vs. MEM
p167
aVL
p168
aI34
aI4
aI9
aF0.444
aI0
aI3
aF0.0
aI1
aI1
aF1.0
aI1
aI2
aI3
aI6
aI2
aI0
aI4
aI2
aI9
aI-3
aa(lp169
V0021200513
p170
aVJAN 08, 2013
p171
aVPHX @ MIL
p172
aVL
p173
aI32
aI8
aI15
aF0.533
aI1
aI5
aF0.2
aI4
aI5
aF0.8
aI0
aI2
aI2
aI4
aI2
aI0
aI4
aI3
aI21
aI5
aa(lp174
V0021200519
p175
aVJAN 09, 2013
p176
aVPHX @ BOS
p177
aVL
p178
aI41
aI4
aI11
aF0.364
aI0
aI2
aF0.0
aI4
aI4
aF1.0
aI1
aI4
aI5
aI4
aI1
aI0
aI2
aI2
aI12
aI-1
aa(lp179
V0021200532
p180
aVJAN 11, 2013
p181
aVPHX @ BKN
p182
aVL
p183
aI27
aI5
aI11
aF0.455
aI1
aI3
aF0.333
aI1
aI1
aF1.0
aI1
aI2
aI3
aI3
aI1
aI0
aI3
aI4
aI12
aI-7
aa(lp184
V0021200546
p185
aVJAN 12, 2013
p186
aVPHX @ CHI
p187
aVW
p188
aI22
aI2
aI8
aF0.25
aI1
aI4
aF0.25
aI2
aI4
aF0.5
aI0
aI0
aI0
aI8
aI0
aI0
aI1
aI3
aI7
aI2
aa(lp189
V0021200562
p190
aVJAN 14, 2013
p191
aVPHX vs. OKC
p192
aVL
p193
aI34
aI4
aI10
aF0.4
aI2
aI6
aF0.333
aI1
aI2
aF0.5
aI0
aI2
aI2
aI1
aI0
aI0
aI1
aI3
aI11
aI-4
aa(lp194
V0021200582
p195
aVJAN 17, 2013
p196
aVPHX vs. MIL
p197
aVL
p198
aI29
aI5
aI11
aF0.455
aI0
aI2
aF0.0
aI0
aI0
aF0.0
aI0
aI1
aI1
aI4
aI2
aI0
aI3
aI0
aI10
aI1
aa(lp199
V0021200626
p200
aVJAN 23, 2013
p201
aVPHX @ SAC
p202
aVW
p203
aI31
aI5
aI12
aF0.417
aI0
aI1
aF0.0
aI2
aI2
aF1.0
aI0
aI0
aI0
aI11
aI1
aI1
aI1
aI2
aI12
aI-1
aa(lp204
V0021200631
p205
aVJAN 24, 2013
p206
aVPHX vs. LAC
p207
aVW
p208
aI34
aI5
aI12
aF0.417
aI3
aI7
aF0.429
aI11
aI14
aF0.786
aI0
aI5
aI5
aI8
aI1
aI0
aI2
aI2
aI24
aI12
aa(lp209
V0021200648
p210
aVJAN 26, 2013
p211
aVPHX @ SAS
p212
aVL
p213
aI34
aI4
aI10
aF0.4
aI1
aI3
aF0.333
aI0
aI0
aF0.0
aI0
aI1
aI1
aI10
aI0
aI0
aI2
aI4
aI9
aI0
aa(lp214
V0021200657
p215
aVJAN 27, 2013
p216
aVPHX @ DAL
p217
aVL
p218
aI35
aI6
aI12
aF0.5
aI0
aI2
aF0.0
aI6
aI8
aF0.75
aI1
aI3
aI4
aI8
aI1
aI2
aI4
aI1
aI18
aI-6
aa(lp219
V0021200681
p220
aVJAN 30, 2013
p221
aVPHX vs. LAL
p222
aVW
p223
aI37
aI4
aI10
aF0.4
aI1
aI3
aF0.333
aI2
aI2
aF1.0
aI1
aI1
aI2
aI8
aI3
aI0
aI2
aI2
aI11
aI8
aa(lp224
V0021200694
p225
aVFEB 01, 2013
p226
aVPHX vs. DAL
p227
aVL
p228
aI38
aI7
aI14
aF0.5
aI0
aI2
aF0.0
aI5
aI6
aF0.833
aI2
aI6
aI8
aI9
aI1
aI1
aI2
aI3
aI19
aI-7
aa(lp229
V0021200704
p230
aVFEB 02, 2013
p231
aVPHX @ GSW
p232
aVL
p233
aI32
aI3
aI10
aF0.3
aI2
aI3
aF0.667
aI5
aI7
aF0.714
aI1
aI0
aI1
aI7
aI2
aI0
aI2
aI3
aI13
aI-16
aa(lp234
V0021200717
p235
aVFEB 05, 2013
p236
aVPHX @ MEM
p237
aVW
p238
aI24
aI6
aI12
aF0.5
aI0
aI1
aF0.0
aI5
aI5
aF1.0
aI0
aI3
aI3
aI4
aI2
aI0
aI2
aI5
aI17
aI12
aa(lp239
V0021200728
p240
aVFEB 06, 2013
p241
aVPHX @ NOH
p242
aVL
p243
aI32
aI4
aI11
aF0.364
aI0
aI3
aF0.0
aI5
aI5
aF1.0
aI0
aI2
aI2
aI6
aI0
aI1
aI4
aI4
aI13
aI-10
aa(lp244
V0021200744
p245
aVFEB 08, 2013
p246
aVPHX @ OKC
p247
aVL
p248
aI36
aI8
aI15
aF0.533
aI2
aI5
aF0.4
aI1
aI1
aF1.0
aI1
aI1
aI2
aI6
aI0
aI0
aI4
aI3
aI19
aI-36
aa(lp249
V0021200759
p250
aVFEB 10, 2013
p251
aVPHX vs. OKC
p252
aVL
p253
aI25
aI2
aI7
aF0.286
aI1
aI2
aF0.5
aI1
aI1
aF1.0
aI0
aI4
aI4
aI4
aI2
aI1
aI3
aI2
aI6
aI-22
aa(lp254
V0021200773
p255
aVFEB 12, 2013
p256
aVPHX @ LAL
p257
aVL
p258
aI32
aI3
aI12
aF0.25
aI0
aI2
aF0.0
aI1
aI2
aF0.5
aI0
aI1
aI1
aI6
aI0
aI0
aI4
aI4
aI7
aI-1
aa(lp259
V0021200797
p260
aVFEB 19, 2013
p261
aVPHX @ POR
p262
aVW
p263
aI39
aI5
aI13
aF0.385
aI1
aI4
aF0.25
aI5
aI5
aF1.0
aI0
aI5
aI5
aI18
aI2
aI1
aI5
aI5
aI16
aI9
aa(lp264
V0021200808
p265
aVFEB 20, 2013
p266
aVPHX @ GSW
p267
aVL
p268
aI36
aI8
aI15
aF0.533
aI3
aI5
aF0.6
aI1
aI2
aF0.5
aI1
aI3
aI4
aI10
aI5
aI0
aI1
aI3
aI20
aI-6
aa(lp269
V0021200820
p270
aVFEB 22, 2013
p271
aVPHX vs. BOS
p272
aVL
p273
aI43
aI7
aI15
aF0.467
aI1
aI6
aF0.167
aI4
aI5
aF0.8
aI1
aI4
aI5
aI10
aI2
aI2
aI5
aI3
aI19
aI-24
aa(lp274
V0021200836
p275
aVFEB 24, 2013
p276
aVPHX vs. SAS
p277
aVL
p278
aI38
aI3
aI14
aF0.214
aI2
aI4
aF0.5
aI2
aI4
aF0.5
aI0
aI1
aI1
aI11
aI3
aI1
aI5
aI4
aI10
aI2
aa(lp279
V0021200849
p280
aVFEB 26, 2013
p281
aVPHX vs. MIN
p282
aVW
p283
aI41
aI4
aI14
aF0.286
aI1
aI5
aF0.2
aI1
aI4
aF0.25
aI0
aI4
aI4
aI7
aI0
aI1
aI3
aI3
aI10
aI-10
aa(lp284
V0021200858
p285
aVFEB 27, 2013
p286
aVPHX @ SAS
p287
aVW
p288
aI40
aI5
aI13
aF0.385
aI0
aI3
aF0.0
aI3
aI3
aF1.0
aI1
aI3
aI4
aI13
aI1
aI0
aI5
aI5
aI13
aI11
aa(lp289
V0021200874
p290
aVMAR 01, 2013
p291
aVPHX vs. ATL
p292
aVW
p293
aI29
aI8
aI15
aF0.533
aI2
aI6
aF0.333
aI1
aI2
aF0.5
aI1
aI1
aI2
aI6
aI3
aI1
aI4
aI2
aI19
aI13
aa(lp294
V0021200910
p295
aVMAR 06, 2013
p296
aVPHX vs. TOR
p297
aVL
p298
aI32
aI3
aI9
aF0.333
aI0
aI3
aF0.0
aI2
aI4
aF0.5
aI0
aI4
aI4
aI6
aI1
aI0
aI4
aI2
aI8
aI-23
aa(lp299
V0021200924
p300
aVMAR 08, 2013
p301
aVPHX @ SAC
p302
aVL
p303
aI36
aI6
aI12
aF0.5
aI1
aI3
aF0.333
aI4
aI5
aF0.8
aI0
aI4
aI4
aI16
aI5
aI0
aI3
aI4
aI17
aI-11
aa(lp304
V0021200932
p305
aVMAR 09, 2013
p306
aVPHX vs. HOU
p307
aVW
p308
aI29
aI6
aI13
aF0.462
aI0
aI2
aF0.0
aI6
aI8
aF0.75
aI1
aI2
aI3
aI1
aI2
aI0
aI1
aI1
aI18
aI-8
aa(lp309
V0021200946
p310
aVMAR 11, 2013
p311
aVPHX vs. DEN
p312
aVL
p313
aI36
aI3
aI9
aF0.333
aI1
aI3
aF0.333
aI1
aI1
aF1.0
aI1
aI0
aI1
aI7
aI4
aI0
aI2
aI1
aI8
aI-14
aa(lp314
V0021200961
p315
aVMAR 13, 2013
p316
aVPHX @ HOU
p317
aVL
p318
aI20
aI4
aI10
aF0.4
aI1
aI3
aF0.333
aI2
aI3
aF0.667
aI2
aI3
aI5
aI4
aI3
aI0
aI2
aI3
aI11
aI-9
aa(lp319
V0021200972
p320
aVMAR 15, 2013
p321
aVPHX @ ATL
p322
aVL
p323
aI33
aI7
aI12
aF0.583
aI1
aI2
aF0.5
aI6
aI8
aF0.75
aI1
aI1
aI2
aI8
aI0
aI0
aI2
aI4
aI21
aI-9
aa(lp324
V0021200979
p325
aVMAR 16, 2013
p326
aVPHX @ WAS
p327
aVL
p328
aI38
aI5
aI14
aF0.357
aI1
aI5
aF0.2
aI1
aI1
aF1.0
aI1
aI3
aI4
aI11
aI0
aI0
aI0
aI0
aI12
aI-19
aa(lp329
V0021201002
p330
aVMAR 18, 2013
p331
aVPHX vs. LAL
p332
aVW
p333
aI31
aI5
aI10
aF0.5
aI0
aI1
aF0.0
aI2
aI4
aF0.5
aI2
aI2
aI4
aI10
aI2
aI2
aI5
aI3
aI12
aI10
aa(lp334
V0021201017
p335
aVMAR 20, 2013
p336
aVPHX vs. WAS
p337
aVL
p338
aI42
aI4
aI10
aF0.4
aI1
aI3
aF0.333
aI9
aI10
aF0.9
aI1
aI2
aI3
aI11
aI3
aI0
aI4
aI3
aI18
aI4
aa(lp339
V0021201031
p340
aVMAR 22, 2013
p341
aVPHX vs. MIN
p342
aVL
p343
aI33
aI5
aI12
aF0.417
aI1
aI3
aF0.333
aI2
aI4
aF0.5
aI1
aI3
aI4
aI10
aI1
aI0
aI4
aI3
aI13
aI-12
aa(lp344
V0021201046
p345
aVMAR 24, 2013
p346
aVPHX vs. BKN
p347
aVL
p348
aI38
aI10
aI19
aF0.526
aI1
aI3
aF0.333
aI10
aI12
aF0.833
aI3
aI6
aI9
aI12
aI0
aI0
aI4
aI4
aI31
aI3
aa(lp349
V0021201092
p350
aVMAR 30, 2013
p351
aVPHX vs. IND
p352
aVL
p353
aI38
aI8
aI13
aF0.615
aI2
aI2
aF1.0
aI3
aI4
aF0.75
aI0
aI4
aI4
aI9
aI1
aI0
aI5
aI6
aI21
aI-5
aa(lp354
V0021201121
p355
aVAPR 03, 2013
p356
aVPHX @ LAC
p357
aVL
p358
aI31
aI3
aI11
aF0.273
aI0
aI1
aF0.0
aI6
aI6
aF1.0
aI3
aI0
aI3
aI4
aI0
aI0
aI5
aI4
aI12
aI-15
aa(lp359
V0021201134
p360
aVAPR 05, 2013
p361
aVPHX vs. GSW
p362
aVL
p363
aI43
aI11
aI13
aF0.846
aI3
aI4
aF0.75
aI7
aI7
aF1.0
aI0
aI2
aI2
aI3
aI1
aI0
aI5
aI1
aI32
aI2
aa(lp364
V0021201152
p365
aVAPR 07, 2013
p366
aVPHX vs. NOH
p367
aVL
p368
aI40
aI4
aI13
aF0.308
aI1
aI4
aF0.25
aI2
aI2
aF1.0
aI2
aI1
aI3
aI8
aI1
aI0
aI4
aI4
aI11
aI4
aa(lp369
V0021201160
p370
aVAPR 09, 2013
p371
aVPHX @ HOU
p372
aVL
p373
aI38
aI6
aI10
aF0.6
aI1
aI2
aF0.5
aI2
aI4
aF0.5
aI0
aI4
aI4
aI10
aI4
aI1
aI3
aI0
aI15
aI1
aa(lp374
V0021201169
p375
aVAPR 10, 2013
p376
aVPHX @ DAL
p377
aVW
p378
aI37
aI7
aI14
aF0.5
aI2
aI4
aF0.5
aI5
aI6
aF0.833
aI1
aI3
aI4
aI13
aI2
aI1
aI2
aI2
aI21
aI20
aa(lp379
V0021201193
p380
aVAPR 13, 2013
p381
aVPHX @ MIN
p382
aVL
p383
aI38
aI4
aI11
aF0.364
aI0
aI3
aF0.0
aI2
aI4
aF0.5
aI1
aI1
aI2
aI14
aI4
aI0
aI6
aI5
aI10
aI0
aa(lp384
V0021201211
p385
aVAPR 15, 2013
p386
aVPHX vs. HOU
p387
aVW
p388
aI36
aI7
aI17
aF0.412
aI2
aI4
aF0.5
aI5
aI6
aF0.833
aI3
aI2
aI5
aI14
aI3
aI0
aI3
aI2
aI21
aI7
aasS'name'
p389
VGoran Dragic
p390
sS'experience'
p391
I4
s.