(dp0
S'age'
p1
I24
sS'stats'
p2
(lp3
(lp4
V0021201228
p5
aVAPR 17, 2013
p6
aVLAL vs. HOU
p7
aVW
p8
aI12
aI0
aI1
aF0.0
aI0
aI1
aF0.0
aI0
aI0
aF0.0
aI0
aI1
aI1
aI0
aI0
aI0
aI1
aI1
aI0
aI-7
aa(lp9
V0021201201
p10
aVAPR 14, 2013
p11
aVLAL vs. SAS
p12
aVW
p13
aI19
aI0
aI2
aF0.0
aI0
aI1
aF0.0
aI2
aI2
aF1.0
aI0
aI3
aI3
aI1
aI0
aI0
aI0
aI0
aI2
aI2
aa(lp14
V0021201189
p15
aVAPR 12, 2013
p16
aVLAL vs. GSW
p17
aVW
p18
aI26
aI2
aI3
aF0.667
aI2
aI3
aF0.667
aI0
aI0
aF0.0
aI0
aI0
aI0
aI0
aI1
aI1
aI0
aI0
aI6
aI-4
aa(lp19
V0021201171
p20
aVAPR 10, 2013
p21
aVLAL @ POR
p22
aVW
p23
aI27
aI1
aI3
aF0.333
aI1
aI3
aF0.333
aI0
aI0
aF0.0
aI0
aI1
aI1
aI0
aI0
aI0
aI0
aI2
aI3
aI16
aa(lp24
V0021201162
p25
aVAPR 09, 2013
p26
aVLAL vs. NOH
p27
aVW
p28
aI24
aI0
aI3
aF0.0
aI0
aI2
aF0.0
aI0
aI0
aF0.0
aI0
aI3
aI3
aI5
aI0
aI1
aI0
aI4
aI0
aI5
aa(lp29
V0021201146
p30
aVAPR 07, 2013
p31
aVLAL @ LAC
p32
aVL
p33
aI25
aI4
aI10
aF0.4
aI2
aI7
aF0.286
aI1
aI1
aF1.0
aI1
aI2
aI3
aI1
aI0
aI1
aI0
aI4
aI11
aI-14
aa(lp34
V0021201137
p35
aVAPR 05, 2013
p36
aVLAL vs. MEM
p37
aVW
p38
aI37
aI5
aI8
aF0.625
aI1
aI3
aF0.333
aI2
aI2
aF1.0
aI2
aI3
aI5
aI1
aI1
aI1
aI2
aI1
aI13
aI12
aa(lp39
V0021201110
p40
aVAPR 02, 2013
p41
aVLAL vs. DAL
p42
aVW
p43
aI29
aI7
aI14
aF0.5
aI3
aI5
aF0.6
aI0
aI1
aF0.0
aI5
aI7
aI12
aI1
aI1
aI5
aI0
aI2
aI17
aI22
aa(lp44
V0021201093
p45
aVMAR 30, 2013
p46
aVLAL @ SAC
p47
aVW
p48
aI20
aI3
aI7
aF0.429
aI1
aI4
aF0.25
aI0
aI0
aF0.0
aI1
aI3
aI4
aI0
aI2
aI2
aI0
aI1
aI7
aI16
aa(lp49
V0021201071
p50
aVMAR 28, 2013
p51
aVLAL @ MIL
p52
aVL
p53
aI17
aI0
aI3
aF0.0
aI0
aI0
aF0.0
aI0
aI0
aF0.0
aI0
aI2
aI2
aI1
aI0
aI0
aI0
aI3
aI0
aI3
aa(lp54
V0021201066
p55
aVMAR 27, 2013
p56
aVLAL @ MIN
p57
aVW
p58
aI13
aI0
aI3
aF0.0
aI0
aI1
aF0.0
aI0
aI0
aF0.0
aI2
aI2
aI4
aI2
aI0
aI0
aI1
aI1
aI0
aI-1
aa(lp59
V0021201053
p60
aVMAR 25, 2013
p61
aVLAL @ GSW
p62
aVL
p63
aI10
aI0
aI2
aF0.0
aI0
aI1
aF0.0
aI0
aI0
aF0.0
aI1
aI1
aI2
aI0
aI0
aI1
aI1
aI1
aI0
aI2
aa(lp64
V0021201032
p65
aVMAR 22, 2013
p66
aVLAL vs. WAS
p67
aVL
p68
aI7
aI2
aI5
aF0.4
aI1
aI2
aF0.5
aI0
aI0
aF0.0
aI0
aI1
aI1
aI1
aI2
aI0
aI1
aI0
aI5
aI2
aa(lp69
V0021201002
p70
aVMAR 18, 2013
p71
aVLAL @ PHX
p72
aVL
p73
aI30
aI2
aI5
aF0.4
aI0
aI1
aF0.0
aI0
aI2
aF0.0
aI4
aI6
aI10
aI1
aI1
aI0
aI2
aI1
aI4
aI-12
aa(lp74
V0021200992
p75
aVMAR 17, 2013
p76
aVLAL vs. SAC
p77
aVW
p78
aI27
aI4
aI10
aF0.4
aI0
aI3
aF0.0
aI3
aI4
aF0.75
aI0
aI8
aI8
aI2
aI0
aI1
aI2
aI1
aI11
aI-8
aa(lp79
V0021200971
p80
aVMAR 15, 2013
p81
aVLAL @ IND
p82
aVW
p83
aI28
aI3
aI6
aF0.5
aI1
aI1
aF1.0
aI1
aI1
aF1.0
aI0
aI6
aI6
aI1
aI1
aI1
aI1
aI3
aI8
aI-9
aa(lp84
V0021200960
p85
aVMAR 13, 2013
p86
aVLAL @ ATL
p87
aVL
p88
aI13
aI1
aI2
aF0.5
aI0
aI1
aF0.0
aI2
aI2
aF1.0
aI0
aI3
aI3
aI0
aI0
aI0
aI0
aI2
aI4
aI1
aa(lp89
V0021200949
p90
aVMAR 12, 2013
p91
aVLAL @ ORL
p92
aVW
p93
aI21
aI2
aI5
aF0.4
aI2
aI4
aF0.5
aI0
aI0
aF0.0
aI0
aI4
aI4
aI0
aI1
aI1
aI2
aI2
aI6
aI4
aa(lp94
V0021200935
p95
aVMAR 10, 2013
p96
aVLAL vs. CHI
p97
aVW
p98
aI23
aI5
aI13
aF0.385
aI1
aI5
aF0.2
aI0
aI0
aF0.0
aI3
aI2
aI5
aI0
aI0
aI0
aI2
aI1
aI11
aI10
aa(lp99
V0021200925
p100
aVMAR 08, 2013
p101
aVLAL vs. TOR
p102
aVW
p103
aI18
aI1
aI3
aF0.333
aI0
aI1
aF0.0
aI0
aI0
aF0.0
aI0
aI2
aI2
aI2
aI0
aI0
aI0
aI0
aI2
aI-10
aa(lp104
V0021200906
p105
aVMAR 06, 2013
p106
aVLAL @ NOH
p107
aVW
p108
aI22
aI0
aI4
aF0.0
aI0
aI2
aF0.0
aI5
aI6
aF0.833
aI0
aI2
aI2
aI3
aI1
aI0
aI2
aI0
aI5
aI-8
aa(lp109
V0021200897
p110
aVMAR 05, 2013
p111
aVLAL @ OKC
p112
aVL
p113
aI30
aI3
aI8
aF0.375
aI1
aI2
aF0.5
aI6
aI8
aF0.75
aI5
aI6
aI11
aI1
aI0
aI1
aI5
aI2
aI13
aI-23
aa(lp114
V0021200888
p115
aVMAR 03, 2013
p116
aVLAL vs. ATL
p117
aVW
p118
aI20
aI3
aI6
aF0.5
aI1
aI1
aF1.0
aI0
aI0
aF0.0
aI3
aI4
aI7
aI1
aI0
aI0
aI0
aI2
aI7
aI8
aa(lp119
V0021200863
p120
aVFEB 28, 2013
p121
aVLAL vs. MIN
p122
aVW
p123
aI30
aI1
aI3
aF0.333
aI0
aI0
aF0.0
aI2
aI2
aF1.0
aI1
aI3
aI4
aI4
aI3
aI2
aI2
aI2
aI4
aI18
aa(lp124
V0021200841
p125
aVFEB 25, 2013
p126
aVLAL @ DEN
p127
aVL
p128
aI23
aI4
aI9
aF0.444
aI0
aI2
aF0.0
aI0
aI2
aF0.0
aI0
aI1
aI1
aI0
aI1
aI1
aI0
aI2
aI8
aI-17
aa(lp129
V0021200830
p130
aVFEB 24, 2013
p131
aVLAL @ DAL
p132
aVW
p133
aI29
aI3
aI5
aF0.6
aI0
aI0
aF0.0
aI0
aI0
aF0.0
aI2
aI4
aI6
aI2
aI1
aI0
aI3
aI1
aI6
aI-11
aa(lp134
V0021200821
p135
aVFEB 22, 2013
p136
aVLAL vs. POR
p137
aVW
p138
aI30
aI4
aI8
aF0.5
aI1
aI3
aF0.333
aI2
aI2
aF1.0
aI0
aI5
aI5
aI0
aI0
aI1
aI1
aI2
aI11
aI-9
aa(lp139
V0021200807
p140
aVFEB 20, 2013
p141
aVLAL vs. BOS
p142
aVW
p143
aI38
aI6
aI14
aF0.429
aI0
aI3
aF0.0
aI2
aI4
aF0.5
aI5
aI11
aI16
aI0
aI1
aI1
aI0
aI3
aI14
aI1
aa(lp144
V0021200788
p145
aVFEB 14, 2013
p146
aVLAL vs. LAC
p147
aVL
p148
aI28
aI2
aI10
aF0.2
aI0
aI1
aF0.0
aI0
aI0
aF0.0
aI2
aI5
aI7
aI3
aI3
aI0
aI2
aI1
aI4
aI-17
aa(lp149
V0021200773
p150
aVFEB 12, 2013
p151
aVLAL vs. PHX
p152
aVW
p153
aI28
aI4
aI9
aF0.444
aI1
aI3
aF0.333
aI2
aI3
aF0.667
aI0
aI4
aI4
aI1
aI3
aI0
aI2
aI2
aI11
aI3
aa(lp154
V0021200753
p155
aVFEB 10, 2013
p156
aVLAL @ MIA
p157
aVL
p158
aI42
aI8
aI17
aF0.471
aI1
aI3
aF0.333
aI1
aI1
aF1.0
aI1
aI8
aI9
aI1
aI1
aI1
aI2
aI4
aI18
aI-13
aa(lp159
V0021200736
p160
aVFEB 08, 2013
p161
aVLAL @ CHA
p162
aVW
p163
aI35
aI7
aI14
aF0.5
aI1
aI4
aF0.25
aI2
aI3
aF0.667
aI2
aI8
aI10
aI0
aI2
aI1
aI2
aI3
aI17
aI14
aa(lp164
V0021200733
p165
aVFEB 07, 2013
p166
aVLAL @ BOS
p167
aVL
p168
aI34
aI2
aI6
aF0.333
aI0
aI2
aF0.0
aI1
aI2
aF0.5
aI0
aI7
aI7
aI1
aI0
aI2
aI0
aI4
aI5
aI-15
aa(lp169
V0021200716
p170
aVFEB 05, 2013
p171
aVLAL @ BKN
p172
aVW
p173
aI41
aI6
aI9
aF0.667
aI0
aI1
aF0.0
aI2
aI3
aF0.667
aI2
aI10
aI12
aI0
aI1
aI1
aI0
aI3
aI14
aI18
aa(lp174
V0021200706
p175
aVFEB 03, 2013
p176
aVLAL @ DET
p177
aVW
p178
aI42
aI6
aI11
aF0.545
aI1
aI3
aF0.333
aI4
aI6
aF0.667
aI2
aI8
aI10
aI1
aI2
aI2
aI0
aI1
aI17
aI-8
aa(lp179
V0021200695
p180
aVFEB 01, 2013
p181
aVLAL @ MIN
p182
aVW
p183
aI36
aI6
aI15
aF0.4
aI1
aI3
aF0.333
aI0
aI0
aF0.0
aI4
aI6
aI10
aI1
aI1
aI1
aI4
aI2
aI13
aI17
aa(lp184
V0021200681
p185
aVJAN 30, 2013
p186
aVLAL @ PHX
p187
aVL
p188
aI30
aI1
aI4
aF0.25
aI1
aI4
aF0.25
aI2
aI4
aF0.5
aI2
aI6
aI8
aI2
aI1
aI0
aI2
aI4
aI5
aI-10
aa(lp189
V0021200669
p190
aVJAN 29, 2013
p191
aVLAL vs. NOH
p192
aVW
p193
aI35
aI8
aI11
aF0.727
aI4
aI5
aF0.8
aI0
aI0
aF0.0
aI1
aI11
aI12
aI4
aI0
aI0
aI6
aI2
aI20
aI-6
aa(lp194
V0021200653
p195
aVJAN 27, 2013
p196
aVLAL vs. OKC
p197
aVW
p198
aI23
aI5
aI9
aF0.556
aI1
aI1
aF1.0
aI0
aI0
aF0.0
aI2
aI2
aI4
aI0
aI1
aI0
aI0
aI3
aI11
aI-2
aa(lp199
V0021200641
p200
aVJAN 25, 2013
p201
aVLAL vs. UTA
p202
aVW
p203
aI27
aI3
aI8
aF0.375
aI1
aI3
aF0.333
aI0
aI0
aF0.0
aI3
aI3
aI6
aI0
aI1
aI0
aI2
aI5
aI7
aI1
aa(lp204
V0021200621
p205
aVJAN 23, 2013
p206
aVLAL @ MEM
p207
aVL
p208
aI40
aI5
aI13
aF0.385
aI0
aI1
aF0.0
aI1
aI1
aF1.0
aI4
aI5
aI9
aI0
aI1
aI0
aI1
aI2
aI11
aI-5
aa(lp209
V0021200612
p210
aVJAN 21, 2013
p211
aVLAL @ CHI
p212
aVL
p213
aI35
aI6
aI13
aF0.462
aI0
aI1
aF0.0
aI0
aI0
aF0.0
aI4
aI4
aI8
aI0
aI0
aI2
aI0
aI1
aI12
aI-12
aa(lp214
V0021200601
p215
aVJAN 20, 2013
p216
aVLAL @ TOR
p217
aVL
p218
aI35
aI6
aI10
aF0.6
aI1
aI1
aF1.0
aI1
aI2
aF0.5
aI6
aI8
aI14
aI2
aI1
aI1
aI0
aI3
aI14
aI14
aa(lp219
V0021200583
p220
aVJAN 17, 2013
p221
aVLAL vs. MIA
p222
aVL
p223
aI22
aI2
aI5
aF0.4
aI2
aI2
aF1.0
aI0
aI0
aF0.0
aI0
aI7
aI7
aI2
aI0
aI0
aI3
aI0
aI6
aI-14
aa(lp224
V0021200569
p225
aVJAN 15, 2013
p226
aVLAL vs. MIL
p227
aVW
p228
aI24
aI3
aI7
aF0.429
aI0
aI0
aF0.0
aI0
aI0
aF0.0
aI2
aI7
aI9
aI4
aI0
aI1
aI0
aI4
aI6
aI5
aa(lp229
V0021200555
p230
aVJAN 13, 2013
p231
aVLAL vs. CLE
p232
aVW
p233
aI36
aI5
aI9
aF0.556
aI1
aI1
aF1.0
aI2
aI2
aF1.0
aI2
aI7
aI9
aI4
aI0
aI3
aI4
aI1
aI13
aI15
aa(lp234
V0021200539
p235
aVJAN 11, 2013
p236
aVLAL vs. OKC
p237
aVL
p238
aI37
aI5
aI12
aF0.417
aI0
aI0
aF0.0
aI0
aI0
aF0.0
aI2
aI8
aI10
aI3
aI1
aI3
aI1
aI1
aI10
aI-17
aa(lp239
V0021200522
p240
aVJAN 09, 2013
p241
aVLAL @ SAS
p242
aVL
p243
aI28
aI9
aI12
aF0.75
aI1
aI3
aF0.333
aI3
aI4
aF0.75
aI3
aI10
aI13
aI3
aI0
aI0
aI1
aI4
aI22
aI2
aa(lp244
V0021200514
p245
aVJAN 08, 2013
p246
aVLAL @ HOU
p247
aVL
p248
aI21
aI2
aI8
aF0.25
aI0
aI0
aF0.0
aI1
aI2
aF0.5
aI2
aI7
aI9
aI3
aI0
aI1
aI0
aI2
aI5
aI-6
aa(lp249
V0021200503
p250
aVJAN 06, 2013
p251
aVLAL vs. DEN
p252
aVL
p253
aI0
aI0
aI0
aF0.0
aI0
aI0
aF0.0
aI2
aI2
aF1.0
aI0
aI0
aI0
aI0
aI0
aI0
aI0
aI0
aI2
aI0
aa(lp254
V0021200435
p255
aVDEC 28, 2012
p256
aVLAL vs. POR
p257
aVW
p258
aI4
aI0
aI2
aF0.0
aI0
aI0
aF0.0
aI0
aI0
aF0.0
aI0
aI1
aI1
aI0
aI0
aI1
aI0
aI1
aI0
aI-7
aa(lp259
V0021200347
p260
aVDEC 16, 2012
p261
aVLAL @ PHI
p262
aVW
p263
aI1
aI0
aI0
aF0.0
aI0
aI0
aF0.0
aI0
aI0
aF0.0
aI0
aI0
aI0
aI0
aI0
aI0
aI1
aI0
aI0
aI-2
aa(lp264
V0021200323
p265
aVDEC 13, 2012
p266
aVLAL @ NYK
p267
aVL
p268
aI2
aI0
aI1
aF0.0
aI0
aI0
aF0.0
aI0
aI0
aF0.0
aI0
aI0
aI0
aI0
aI0
aI0
aI0
aI0
aI0
aI-7
aa(lp269
V0021200263
p270
aVDEC 05, 2012
p271
aVLAL @ NOH
p272
aVW
p273
aI9
aI0
aI1
aF0.0
aI0
aI0
aF0.0
aI0
aI0
aF0.0
aI1
aI0
aI1
aI0
aI0
aI1
aI0
aI0
aI0
aI-7
aa(lp274
V0021200256
p275
aVDEC 04, 2012
p276
aVLAL @ HOU
p277
aVL
p278
aI11
aI2
aI2
aF1.0
aI0
aI0
aF0.0
aI0
aI0
aF0.0
aI0
aI3
aI3
aI0
aI0
aI1
aI1
aI1
aI4
aI-4
aa(lp279
V0021200187
p280
aVNOV 24, 2012
p281
aVLAL @ DAL
p282
aVW
p283
aI4
aI0
aI0
aF0.0
aI0
aI0
aF0.0
aI1
aI2
aF0.5
aI0
aI1
aI1
aI0
aI0
aI1
aI0
aI2
aI1
aI-7
aa(lp284
V0021200130
p285
aVNOV 16, 2012
p286
aVLAL vs. PHX
p287
aVW
p288
aI1
aI0
aI0
aF0.0
aI0
aI0
aF0.0
aI0
aI0
aF0.0
aI0
aI1
aI1
aI0
aI0
aI0
aI0
aI0
aI0
aI-1
aa(lp289
V0021200094
p290
aVNOV 11, 2012
p291
aVLAL vs. SAC
p292
aVW
p293
aI2
aI1
aI3
aF0.333
aI0
aI0
aF0.0
aI0
aI0
aF0.0
aI0
aI0
aI0
aI0
aI0
aI0
aI0
aI1
aI2
aI-5
aa(lp294
V0021200041
p295
aVNOV 04, 2012
p296
aVLAL vs. DET
p297
aVW
p298
aI2
aI0
aI0
aF0.0
aI0
aI0
aF0.0
aI0
aI0
aF0.0
aI0
aI0
aI0
aI0
aI0
aI0
aI0
aI1
aI0
aI5
aasS'name'
p299
VEarl Clark
p300
sS'experience'
p301
I3
s.