(dp0
S'stats'
p1
(lp2
(lp3
V0021200010
p4
aVOCT 31, 2012
p5
aVGSW @ PHX
p6
aVW
p7
aI30
aI2
aI14
aF0.143
aI0
aI6
aF0.0
aI1
aI3
aF0.333
aI3
aI4
aI7
aI3
aI2
aI0
aI4
aI3
aI5
aI-2
aa(lp8
V0021200026
p9
aVNOV 02, 2012
p10
aVGSW vs. MEM
p11
aVL
p12
aI43
aI10
aI20
aF0.5
aI6
aI10
aF0.6
aI0
aI1
aF0.0
aI1
aI4
aI5
aI7
aI1
aI0
aI4
aI3
aI26
aI-7
aa(lp13
V0021200036
p14
aVNOV 03, 2012
p15
aVGSW @ LAC
p16
aVW
p17
aI43
aI6
aI16
aF0.375
aI2
aI7
aF0.286
aI9
aI10
aF0.9
aI0
aI4
aI4
aI4
aI3
aI0
aI5
aI4
aI23
aI6
aa(lp18
V0021200048
p19
aVNOV 05, 2012
p20
aVGSW @ SAC
p21
aVL
p22
aI39
aI3
aI15
aF0.2
aI2
aI6
aF0.333
aI4
aI5
aF0.8
aI1
aI5
aI6
aI8
aI1
aI0
aI3
aI2
aI12
aI0
aa(lp23
V0021200065
p24
aVNOV 07, 2012
p25
aVGSW vs. CLE
p26
aVW
p27
aI36
aI8
aI14
aF0.571
aI2
aI6
aF0.333
aI3
aI3
aF1.0
aI0
aI5
aI5
aI6
aI2
aI0
aI3
aI3
aI21
aI7
aa(lp28
V0021200080
p29
aVNOV 09, 2012
p30
aVGSW @ LAL
p31
aVL
p32
aI30
aI6
aI16
aF0.375
aI2
aI6
aF0.333
aI4
aI4
aF1.0
aI0
aI3
aI3
aI5
aI1
aI0
aI0
aI0
aI18
aI-19
aa(lp33
V0021200089
p34
aVNOV 10, 2012
p35
aVGSW vs. DEN
p36
aVL
p37
aI37
aI7
aI17
aF0.412
aI3
aI6
aF0.5
aI2
aI2
aF1.0
aI0
aI5
aI5
aI3
aI3
aI0
aI4
aI5
aI19
aI-5
aa(lp38
V0021200118
p39
aVNOV 14, 2012
p40
aVGSW vs. ATL
p41
aVW
p42
aI33
aI4
aI12
aF0.333
aI0
aI5
aF0.0
aI4
aI4
aF1.0
aI0
aI1
aI1
aI7
aI3
aI0
aI4
aI3
aI12
aI1
aa(lp43
V0021200126
p44
aVNOV 16, 2012
p45
aVGSW @ MIN
p46
aVW
p47
aI29
aI7
aI12
aF0.583
aI0
aI3
aF0.0
aI3
aI3
aF1.0
aI2
aI2
aI4
aI6
aI1
aI1
aI3
aI6
aI17
aI19
aa(lp48
V0021200143
p49
aVNOV 18, 2012
p50
aVGSW @ OKC
p51
aVL
p52
aI33
aI9
aI17
aF0.529
aI4
aI8
aF0.5
aI0
aI0
aF0.0
aI1
aI1
aI2
aI6
aI0
aI0
aI3
aI2
aI22
aI-11
aa(lp53
V0021200151
p54
aVNOV 19, 2012
p55
aVGSW @ DAL
p56
aVW
p57
aI43
aI9
aI21
aF0.429
aI3
aI7
aF0.429
aI10
aI10
aF1.0
aI0
aI6
aI6
aI9
aI2
aI0
aI4
aI2
aI31
aI3
aa(lp58
V0021200170
p59
aVNOV 21, 2012
p60
aVGSW vs. BKN
p61
aVW
p62
aI42
aI7
aI13
aF0.538
aI2
aI4
aF0.5
aI9
aI10
aF0.9
aI0
aI6
aI6
aI4
aI0
aI0
aI2
aI2
aI25
aI9
aa(lp63
V0021200179
p64
aVNOV 23, 2012
p65
aVGSW @ DEN
p66
aVL
p67
aI26
aI2
aI5
aF0.4
aI2
aI2
aF1.0
aI0
aI0
aF0.0
aI0
aI1
aI1
aI3
aI0
aI0
aI4
aI4
aI6
aI-18
aa(lp68
V0021200190
p69
aVNOV 24, 2012
p70
aVGSW vs. MIN
p71
aVW
p72
aI39
aI7
aI19
aF0.368
aI5
aI10
aF0.5
aI1
aI1
aF1.0
aI0
aI2
aI2
aI6
aI1
aI0
aI3
aI3
aI20
aI22
aa(lp73
V0021200221
p74
aVNOV 29, 2012
p75
aVGSW vs. DEN
p76
aVW
p77
aI45
aI7
aI17
aF0.412
aI4
aI7
aF0.571
aI2
aI2
aF1.0
aI1
aI3
aI4
aI10
aI4
aI0
aI3
aI4
aI20
aI2
aa(lp78
V0021200242
p79
aVDEC 01, 2012
p80
aVGSW vs. IND
p81
aVW
p82
aI37
aI7
aI14
aF0.5
aI3
aI5
aF0.6
aI3
aI3
aF1.0
aI0
aI1
aI1
aI11
aI2
aI0
aI4
aI4
aI20
aI6
aa(lp83
V0021200250
p84
aVDEC 03, 2012
p85
aVGSW vs. ORL
p86
aVL
p87
aI44
aI9
aI21
aF0.429
aI3
aI6
aF0.5
aI4
aI5
aF0.8
aI1
aI4
aI5
aI11
aI2
aI0
aI1
aI0
aI25
aI-3
aa(lp88
V0021200261
p89
aVDEC 05, 2012
p90
aVGSW @ DET
p91
aVW
p92
aI37
aI7
aI15
aF0.467
aI4
aI6
aF0.667
aI4
aI4
aF1.0
aI0
aI3
aI3
aI10
aI4
aI0
aI1
aI2
aI22
aI10
aa(lp93
V0021200272
p94
aVDEC 07, 2012
p95
aVGSW @ BKN
p96
aVW
p97
aI43
aI10
aI19
aF0.526
aI5
aI9
aF0.556
aI3
aI3
aF1.0
aI1
aI3
aI4
aI5
aI2
aI0
aI0
aI1
aI28
aI8
aa(lp98
V0021200283
p99
aVDEC 08, 2012
p100
aVGSW @ WAS
p101
aVW
p102
aI35
aI7
aI15
aF0.467
aI2
aI8
aF0.25
aI6
aI7
aF0.857
aI1
aI2
aI3
aI5
aI0
aI0
aI4
aI1
aI22
aI-5
aa(lp103
V0021200299
p104
aVDEC 10, 2012
p105
aVGSW @ CHA
p106
aVW
p107
aI37
aI10
aI22
aF0.455
aI4
aI7
aF0.571
aI3
aI4
aF0.75
aI1
aI6
aI7
aI7
aI1
aI0
aI3
aI5
aI27
aI3
aa(lp108
V0021200314
p109
aVDEC 12, 2012
p110
aVGSW @ MIA
p111
aVW
p112
aI42
aI4
aI10
aF0.4
aI1
aI3
aF0.333
aI0
aI0
aF0.0
aI0
aI3
aI3
aI7
aI2
aI0
aI6
aI0
aI9
aI9
aa(lp113
V0021200330
p114
aVDEC 14, 2012
p115
aVGSW @ ORL
p116
aVL
p117
aI43
aI8
aI19
aF0.421
aI2
aI5
aF0.4
aI7
aI8
aF0.875
aI1
aI2
aI3
aI3
aI0
aI0
aI1
aI0
aI25
aI-6
aa(lp118
V0021200337
p119
aVDEC 15, 2012
p120
aVGSW @ ATL
p121
aVW
p122
aI36
aI6
aI20
aF0.3
aI3
aI11
aF0.273
aI3
aI3
aF1.0
aI0
aI8
aI8
aI11
aI3
aI0
aI4
aI1
aI18
aI20
aa(lp123
V0021200365
p124
aVDEC 18, 2012
p125
aVGSW vs. NOH
p126
aVW
p127
aI39
aI5
aI13
aF0.385
aI1
aI3
aF0.333
aI2
aI2
aF1.0
aI2
aI3
aI5
aI3
aI0
aI0
aI2
aI2
aI13
aI3
aa(lp128
V0021200375
p129
aVDEC 19, 2012
p130
aVGSW @ SAC
p131
aVL
p132
aI42
aI11
aI24
aF0.458
aI7
aI12
aF0.583
aI3
aI3
aF1.0
aI0
aI6
aI6
aI4
aI1
aI1
aI4
aI6
aI32
aI0
aa(lp133
V0021200389
p134
aVDEC 21, 2012
p135
aVGSW vs. CHA
p136
aVW
p137
aI36
aI9
aI17
aF0.529
aI8
aI13
aF0.615
aI1
aI1
aF1.0
aI0
aI3
aI3
aI8
aI0
aI2
aI2
aI2
aI27
aI7
aa(lp138
V0021200398
p139
aVDEC 22, 2012
p140
aVGSW vs. LAL
p141
aVL
p142
aI45
aI8
aI23
aF0.348
aI3
aI10
aF0.3
aI1
aI1
aF1.0
aI1
aI7
aI8
aI7
aI4
aI0
aI4
aI4
aI20
aI6
aa(lp143
V0021200420
p144
aVDEC 26, 2012
p145
aVGSW @ UTA
p146
aVW
p147
aI38
aI7
aI18
aF0.389
aI4
aI7
aF0.571
aI5
aI6
aF0.833
aI2
aI6
aI8
aI7
aI1
aI1
aI2
aI0
aI23
aI12
aa(lp148
V0021200436
p149
aVDEC 28, 2012
p150
aVGSW vs. PHI
p151
aVW
p152
aI39
aI5
aI11
aF0.455
aI1
aI4
aF0.25
aI0
aI0
aF0.0
aI0
aI5
aI5
aI6
aI1
aI0
aI4
aI3
aI11
aI7
aa(lp153
V0021200447
p154
aVDEC 29, 2012
p155
aVGSW vs. BOS
p156
aVW
p157
aI35
aI8
aI13
aF0.615
aI4
aI5
aF0.8
aI2
aI2
aF1.0
aI1
aI3
aI4
aI9
aI3
aI2
aI5
aI3
aI22
aI19
aa(lp158
V0021200475
p159
aVJAN 02, 2013
p160
aVGSW vs. LAC
p161
aVW
p162
aI43
aI11
aI16
aF0.688
aI6
aI8
aF0.75
aI3
aI4
aF0.75
aI1
aI5
aI6
aI8
aI2
aI0
aI4
aI3
aI31
aI25
aa(lp163
V0021200498
p164
aVJAN 05, 2013
p165
aVGSW @ LAC
p166
aVL
p167
aI29
aI4
aI11
aF0.364
aI1
aI5
aF0.2
aI1
aI1
aF1.0
aI0
aI0
aI0
aI5
aI0
aI0
aI2
aI0
aI10
aI-31
aa(lp168
V0021200526
p169
aVJAN 09, 2013
p170
aVGSW vs. MEM
p171
aVL
p172
aI41
aI10
aI22
aF0.455
aI4
aI8
aF0.5
aI0
aI1
aF0.0
aI1
aI3
aI4
aI4
aI2
aI0
aI4
aI2
aI24
aI-12
aa(lp173
V0021200540
p174
aVJAN 11, 2013
p175
aVGSW vs. POR
p176
aVW
p177
aI44
aI7
aI22
aF0.318
aI3
aI8
aF0.375
aI5
aI5
aF1.0
aI0
aI3
aI3
aI12
aI3
aI1
aI1
aI1
aI22
aI-1
aa(lp178
V0021200553
p179
aVJAN 13, 2013
p180
aVGSW @ DEN
p181
aVL
p182
aI41
aI11
aI18
aF0.611
aI7
aI9
aF0.778
aI0
aI0
aF0.0
aI0
aI0
aI0
aI7
aI1
aI0
aI1
aI4
aI29
aI-13
aa(lp183
V0021200596
p184
aVJAN 19, 2013
p185
aVGSW @ NOH
p186
aVW
p187
aI38
aI5
aI17
aF0.294
aI2
aI8
aF0.25
aI8
aI10
aF0.8
aI1
aI2
aI3
aI7
aI4
aI0
aI1
aI2
aI20
aI11
aa(lp188
V0021200610
p189
aVJAN 21, 2013
p190
aVGSW vs. LAC
p191
aVW
p192
aI37
aI9
aI14
aF0.643
aI6
aI8
aF0.75
aI4
aI4
aF1.0
aI0
aI3
aI3
aI6
aI0
aI0
aI2
aI4
aI28
aI7
aa(lp193
V0021200628
p194
aVJAN 23, 2013
p195
aVGSW vs. OKC
p196
aVW
p197
aI42
aI11
aI27
aF0.407
aI3
aI14
aF0.214
aI6
aI6
aF1.0
aI1
aI2
aI3
aI7
aI4
aI0
aI2
aI1
aI31
aI8
aa(lp198
V0021200636
p199
aVJAN 25, 2013
p200
aVGSW @ CHI
p201
aVL
p202
aI37
aI7
aI18
aF0.389
aI3
aI7
aF0.429
aI4
aI4
aF1.0
aI0
aI1
aI1
aI1
aI0
aI0
aI2
aI1
aI21
aI-15
aa(lp203
V0021200647
p204
aVJAN 26, 2013
p205
aVGSW @ MIL
p206
aVL
p207
aI37
aI8
aI19
aF0.421
aI5
aI9
aF0.556
aI5
aI5
aF1.0
aI2
aI0
aI2
aI7
aI1
aI0
aI2
aI2
aI26
aI-8
aa(lp208
V0021200659
p209
aVJAN 28, 2013
p210
aVGSW @ TOR
p211
aVW
p212
aI26
aI7
aI12
aF0.583
aI1
aI3
aF0.333
aI2
aI2
aF1.0
aI1
aI0
aI1
aI5
aI1
aI0
aI2
aI1
aI17
aI0
aa(lp213
V0021200704
p214
aVFEB 02, 2013
p215
aVGSW vs. PHX
p216
aVW
p217
aI42
aI11
aI20
aF0.55
aI6
aI10
aF0.6
aI1
aI1
aF1.0
aI0
aI2
aI2
aI8
aI2
aI0
aI2
aI3
aI29
aI28
aa(lp218
V0021200718
p219
aVFEB 05, 2013
p220
aVGSW @ HOU
p221
aVL
p222
aI28
aI3
aI12
aF0.25
aI1
aI5
aF0.2
aI0
aI0
aF0.0
aI0
aI4
aI4
aI9
aI0
aI1
aI2
aI2
aI7
aI-27
aa(lp223
V0021200729
p224
aVFEB 06, 2013
p225
aVGSW @ OKC
p226
aVL
p227
aI36
aI5
aI20
aF0.25
aI2
aI7
aF0.286
aI2
aI2
aF1.0
aI3
aI5
aI8
aI11
aI1
aI0
aI6
aI3
aI14
aI-8
aa(lp228
V0021200742
p229
aVFEB 08, 2013
p230
aVGSW @ MEM
p231
aVL
p232
aI40
aI11
aI22
aF0.5
aI4
aI9
aF0.444
aI6
aI6
aF1.0
aI3
aI2
aI5
aI8
aI2
aI0
aI2
aI4
aI32
aI2
aa(lp233
V0021200750
p234
aVFEB 09, 2013
p235
aVGSW @ DAL
p236
aVL
p237
aI31
aI8
aI23
aF0.348
aI1
aI3
aF0.333
aI1
aI1
aF1.0
aI3
aI4
aI7
aI4
aI1
aI0
aI5
aI2
aI18
aI-22
aa(lp238
V0021200774
p239
aVFEB 12, 2013
p240
aVGSW vs. HOU
p241
aVL
p242
aI35
aI10
aI19
aF0.526
aI2
aI5
aF0.4
aI5
aI6
aF0.833
aI0
aI5
aI5
aI6
aI1
aI0
aI1
aI4
aI27
aI-3
aa(lp243
V0021200795
p244
aVFEB 19, 2013
p245
aVGSW @ UTA
p246
aVL
p247
aI38
aI12
aI22
aF0.545
aI4
aI9
aF0.444
aI1
aI1
aF1.0
aI2
aI3
aI5
aI4
aI1
aI0
aI4
aI3
aI29
aI-18
aa(lp248
V0021200808
p249
aVFEB 20, 2013
p250
aVGSW vs. PHX
p251
aVW
p252
aI41
aI8
aI16
aF0.5
aI2
aI6
aF0.333
aI2
aI2
aF1.0
aI0
aI3
aI3
aI11
aI1
aI0
aI2
aI1
aI20
aI16
aa(lp253
V0021200822
p254
aVFEB 22, 2013
p255
aVGSW vs. SAS
p256
aVW
p257
aI45
aI6
aI17
aF0.353
aI3
aI9
aF0.333
aI4
aI5
aF0.8
aI0
aI4
aI4
aI6
aI1
aI0
aI2
aI2
aI19
aI0
aa(lp258
V0021200832
p259
aVFEB 24, 2013
p260
aVGSW @ MIN
p261
aVW
p262
aI34
aI6
aI15
aF0.4
aI1
aI5
aF0.2
aI5
aI5
aF1.0
aI1
aI4
aI5
aI5
aI5
aI0
aI6
aI5
aI18
aI1
aa(lp263
V0021200844
p264
aVFEB 26, 2013
p265
aVGSW @ IND
p266
aVL
p267
aI37
aI14
aI20
aF0.7
aI7
aI10
aF0.7
aI3
aI4
aF0.75
aI0
aI2
aI2
aI4
aI3
aI1
aI6
aI3
aI38
aI-12
aa(lp268
V0021200853
p269
aVFEB 27, 2013
p270
aVGSW @ NYK
p271
aVL
p272
aI48
aI18
aI28
aF0.643
aI11
aI13
aF0.846
aI7
aI7
aF1.0
aI0
aI6
aI6
aI7
aI3
aI0
aI4
aI3
aI54
aI-4
aa(lp273
V0021200867
p274
aVMAR 01, 2013
p275
aVGSW @ BOS
p276
aVL
p277
aI42
aI6
aI22
aF0.273
aI3
aI11
aF0.273
aI10
aI10
aF1.0
aI0
aI1
aI1
aI6
aI1
aI0
aI4
aI2
aI25
aI7
aa(lp278
V0021200876
p279
aVMAR 02, 2013
p280
aVGSW @ PHI
p281
aVL
p282
aI42
aI11
aI20
aF0.55
aI3
aI9
aF0.333
aI5
aI7
aF0.714
aI0
aI3
aI3
aI9
aI3
aI0
aI4
aI2
aI30
aI2
aa(lp283
V0021200895
p284
aVMAR 04, 2013
p285
aVGSW vs. TOR
p286
aVW
p287
aI42
aI8
aI16
aF0.5
aI2
aI5
aF0.4
aI8
aI8
aF1.0
aI2
aI3
aI5
aI12
aI0
aI0
aI6
aI5
aI26
aI1
aa(lp288
V0021200912
p289
aVMAR 06, 2013
p290
aVGSW vs. SAC
p291
aVW
p292
aI34
aI3
aI11
aF0.273
aI2
aI5
aF0.4
aI5
aI5
aF1.0
aI1
aI4
aI5
aI8
aI2
aI0
aI6
aI4
aI13
aI-2
aa(lp293
V0021200926
p294
aVMAR 08, 2013
p295
aVGSW vs. HOU
p296
aVL
p297
aI43
aI8
aI21
aF0.381
aI3
aI8
aF0.375
aI5
aI7
aF0.714
aI1
aI4
aI5
aI8
aI1
aI0
aI1
aI5
aI24
aI-9
aa(lp298
V0021200933
p299
aVMAR 09, 2013
p300
aVGSW vs. MIL
p301
aVL
p302
aI39
aI7
aI18
aF0.389
aI2
aI6
aF0.333
aI0
aI0
aF0.0
aI1
aI1
aI2
aI10
aI0
aI0
aI4
aI4
aI16
aI-12
aa(lp303
V0021200947
p304
aVMAR 11, 2013
p305
aVGSW vs. NYK
p306
aVW
p307
aI37
aI9
aI18
aF0.5
aI6
aI10
aF0.6
aI2
aI2
aF1.0
aI1
aI5
aI6
aI3
aI1
aI0
aI2
aI1
aI26
aI26
aa(lp308
V0021200966
p309
aVMAR 13, 2013
p310
aVGSW vs. DET
p311
aVW
p312
aI43
aI11
aI17
aF0.647
aI5
aI7
aF0.714
aI4
aI4
aF1.0
aI1
aI1
aI2
aI8
aI1
aI0
aI4
aI0
aI31
aI15
aa(lp313
V0021200978
p314
aVMAR 15, 2013
p315
aVGSW vs. CHI
p316
aVL
p317
aI30
aI2
aI13
aF0.154
aI0
aI5
aF0.0
aI4
aI4
aF1.0
aI0
aI0
aI0
aI4
aI0
aI0
aI1
aI2
aI8
aI-32
aa(lp318
V0021200988
p319
aVMAR 17, 2013
p320
aVGSW @ HOU
p321
aVW
p322
aI45
aI12
aI22
aF0.545
aI5
aI11
aF0.455
aI0
aI0
aF0.0
aI0
aI5
aI5
aI11
aI2
aI1
aI3
aI1
aI29
aI22
aa(lp323
V0021201001
p324
aVMAR 18, 2013
p325
aVGSW @ NOH
p326
aVW
p327
aI39
aI10
aI19
aF0.526
aI6
aI9
aF0.667
aI4
aI4
aF1.0
aI1
aI6
aI7
aI3
aI0
aI0
aI7
aI3
aI30
aI19
aa(lp328
V0021201016
p329
aVMAR 20, 2013
p330
aVGSW @ SAS
p331
aVL
p332
aI36
aI8
aI20
aF0.4
aI4
aI8
aF0.5
aI4
aI5
aF0.8
aI1
aI3
aI4
aI3
aI2
aI0
aI3
aI0
aI24
aI-12
aa(lp333
V0021201039
p334
aVMAR 23, 2013
p335
aVGSW vs. WAS
p336
aVW
p337
aI32
aI13
aI18
aF0.722
aI6
aI10
aF0.6
aI3
aI4
aF0.75
aI0
aI2
aI2
aI8
aI2
aI0
aI3
aI2
aI35
aI9
aa(lp338
V0021201053
p339
aVMAR 25, 2013
p340
aVGSW vs. LAL
p341
aVW
p342
aI43
aI9
aI24
aF0.375
aI3
aI9
aF0.333
aI4
aI7
aF0.571
aI0
aI7
aI7
aI10
aI0
aI0
aI2
aI4
aI25
aI3
aa(lp343
V0021201069
p344
aVMAR 27, 2013
p345
aVGSW vs. SAC
p346
aVL
p347
aI46
aI5
aI18
aF0.278
aI2
aI9
aF0.222
aI5
aI6
aF0.833
aI2
aI3
aI5
aI12
aI4
aI0
aI3
aI3
aI17
aI1
aa(lp348
V0021201094
p349
aVMAR 30, 2013
p350
aVGSW vs. POR
p351
aVW
p352
aI37
aI14
aI22
aF0.636
aI7
aI12
aF0.583
aI4
aI4
aF1.0
aI2
aI3
aI5
aI6
aI1
aI0
aI3
aI2
aI39
aI15
aa(lp353
V0021201122
p354
aVAPR 03, 2013
p355
aVGSW vs. NOH
p356
aVW
p357
aI36
aI6
aI14
aF0.429
aI4
aI10
aF0.4
aI4
aI4
aF1.0
aI0
aI3
aI3
aI9
aI1
aI0
aI2
aI5
aI20
aI14
aa(lp358
V0021201134
p359
aVAPR 05, 2013
p360
aVGSW @ PHX
p361
aVW
p362
aI41
aI6
aI15
aF0.4
aI3
aI8
aF0.375
aI3
aI3
aF1.0
aI0
aI1
aI1
aI15
aI4
aI0
aI4
aI5
aI18
aI14
aa(lp363
V0021201151
p364
aVAPR 07, 2013
p365
aVGSW vs. UTA
p366
aVL
p367
aI45
aI8
aI19
aF0.421
aI4
aI9
aF0.444
aI2
aI2
aF1.0
aI1
aI3
aI4
aI5
aI1
aI0
aI5
aI3
aI22
aI-5
aa(lp368
V0021201163
p369
aVAPR 09, 2013
p370
aVGSW vs. MIN
p371
aVW
p372
aI39
aI9
aI21
aF0.429
aI2
aI9
aF0.222
aI4
aI5
aF0.8
aI1
aI3
aI4
aI10
aI1
aI1
aI3
aI4
aI24
aI12
aa(lp373
V0021201175
p374
aVAPR 11, 2013
p375
aVGSW vs. OKC
p376
aVL
p377
aI35
aI9
aI18
aF0.5
aI3
aI6
aF0.5
aI1
aI1
aF1.0
aI0
aI3
aI3
aI7
aI2
aI0
aI4
aI0
aI22
aI-9
aa(lp378
V0021201189
p379
aVAPR 12, 2013
p380
aVGSW @ LAL
p381
aVL
p382
aI44
aI17
aI31
aF0.548
aI9
aI15
aF0.6
aI4
aI4
aF1.0
aI3
aI3
aI6
aI9
aI3
aI0
aI1
aI3
aI47
aI3
aa(lp383
V0021201212
p384
aVAPR 15, 2013
p385
aVGSW vs. SAS
p386
aVW
p387
aI39
aI13
aI23
aF0.565
aI7
aI13
aF0.538
aI2
aI2
aF1.0
aI1
aI7
aI8
aI5
aI2
aI0
aI3
aI0
aI35
aI13
aa(lp388
V0021201230
p389
aVAPR 17, 2013
p390
aVGSW @ POR
p391
aVW
p392
aI32
aI5
aI16
aF0.313
aI4
aI11
aF0.364
aI1
aI1
aF1.0
aI1
aI1
aI2
aI5
aI3
aI0
aI1
aI2
aI15
aI9
aasS'name'
p393
VStephen Curry
p394
sS'weight'
p395
V190
p396
sS'age'
p397
I24
sS'experience'
p398
I3
sS'height'
p399
V6-3
p400
sS'position'
p401
VGuard
p402
s.