(dp0
S'age'
p1
I25
sS'stats'
p2
(lp3
(lp4
V0021200003
p5
aVOCT 30, 2012
p6
aVDAL @ LAL
p7
aVW
p8
aI32
aI8
aI12
aF0.667
aI0
aI1
aF0.0
aI1
aI2
aF0.5
aI0
aI2
aI2
aI4
aI3
aI0
aI2
aI2
aI17
aI0
aa(lp9
V0021200009
p10
aVOCT 31, 2012
p11
aVDAL @ UTA
p12
aVL
p13
aI33
aI6
aI12
aF0.5
aI2
aI2
aF1.0
aI3
aI3
aF1.0
aI1
aI3
aI4
aI7
aI1
aI0
aI1
aI2
aI17
aI-3
aa(lp14
V0021200034
p15
aVNOV 03, 2012
p16
aVDAL vs. CHA
p17
aVW
p18
aI32
aI8
aI12
aF0.667
aI2
aI2
aF1.0
aI0
aI0
aF0.0
aI0
aI3
aI3
aI10
aI1
aI0
aI2
aI2
aI18
aI21
aa(lp19
V0021200046
p20
aVNOV 05, 2012
p21
aVDAL vs. POR
p22
aVW
p23
aI34
aI5
aI8
aF0.625
aI0
aI0
aF0.0
aI4
aI5
aF0.8
aI0
aI1
aI1
aI13
aI1
aI0
aI1
aI0
aI14
aI17
aa(lp24
V0021200061
p25
aVNOV 07, 2012
p26
aVDAL vs. TOR
p27
aVW
p28
aI35
aI5
aI13
aF0.385
aI0
aI2
aF0.0
aI5
aI6
aF0.833
aI0
aI2
aI2
aI2
aI1
aI0
aI0
aI0
aI15
aI-2
aa(lp29
V0021200071
p30
aVNOV 09, 2012
p31
aVDAL @ NYK
p32
aVL
p33
aI30
aI1
aI8
aF0.125
aI0
aI2
aF0.0
aI2
aI2
aF1.0
aI1
aI2
aI3
aI8
aI1
aI0
aI4
aI2
aI4
aI-6
aa(lp34
V0021200083
p35
aVNOV 10, 2012
p36
aVDAL @ CHA
p37
aVL
p38
aI39
aI7
aI14
aF0.5
aI0
aI0
aF0.0
aI0
aI0
aF0.0
aI0
aI3
aI3
aI6
aI0
aI0
aI5
aI4
aI14
aI-13
aa(lp39
V0021200100
p40
aVNOV 12, 2012
p41
aVDAL vs. MIN
p42
aVL
p43
aI33
aI5
aI10
aF0.5
aI0
aI0
aF0.0
aI11
aI12
aF0.917
aI0
aI2
aI2
aI5
aI2
aI0
aI2
aI2
aI21
aI-14
aa(lp44
V0021200115
p45
aVNOV 14, 2012
p46
aVDAL vs. WAS
p47
aVW
p48
aI33
aI2
aI10
aF0.2
aI0
aI0
aF0.0
aI5
aI6
aF0.833
aI0
aI3
aI3
aI5
aI1
aI0
aI3
aI0
aI9
aI10
aa(lp49
V0021200124
p50
aVNOV 16, 2012
p51
aVDAL @ IND
p52
aVL
p53
aI32
aI3
aI10
aF0.3
aI0
aI3
aF0.0
aI4
aI4
aF1.0
aI0
aI2
aI2
aI4
aI0
aI0
aI0
aI2
aI10
aI-19
aa(lp54
V0021200135
p55
aVNOV 17, 2012
p56
aVDAL @ CLE
p57
aVW
p58
aI31
aI5
aI8
aF0.625
aI0
aI1
aF0.0
aI4
aI5
aF0.8
aI1
aI1
aI2
aI8
aI1
aI0
aI2
aI0
aI14
aI3
aa(lp59
V0021200151
p60
aVNOV 19, 2012
p61
aVDAL vs. GSW
p62
aVL
p63
aI38
aI2
aI11
aF0.182
aI1
aI1
aF1.0
aI2
aI2
aF1.0
aI0
aI0
aI0
aI5
aI3
aI0
aI5
aI5
aI7
aI-9
aa(lp64
V0021200167
p65
aVNOV 21, 2012
p66
aVDAL vs. NYK
p67
aVW
p68
aI34
aI7
aI11
aF0.636
aI1
aI2
aF0.5
aI4
aI4
aF1.0
aI0
aI2
aI2
aI7
aI1
aI0
aI3
aI0
aI19
aI-4
aa(lp69
V0021200187
p70
aVNOV 24, 2012
p71
aVDAL vs. LAL
p72
aVL
p73
aI24
aI1
aI10
aF0.1
aI0
aI2
aF0.0
aI0
aI0
aF0.0
aI0
aI2
aI2
aI4
aI1
aI0
aI4
aI2
aI2
aI-18
aa(lp74
V0021200204
p75
aVNOV 27, 2012
p76
aVDAL @ PHI
p77
aVL
p78
aI30
aI5
aI11
aF0.455
aI0
aI1
aF0.0
aI2
aI2
aF1.0
aI0
aI3
aI3
aI6
aI5
aI0
aI4
aI1
aI12
aI9
aa(lp79
V0021200240
p80
aVDEC 01, 2012
p81
aVDAL vs. DET
p82
aVW
p83
aI27
aI2
aI5
aF0.4
aI1
aI2
aF0.5
aI0
aI0
aF0.0
aI0
aI2
aI2
aI9
aI1
aI0
aI0
aI1
aI5
aI9
aa(lp84
V0021200267
p85
aVDEC 05, 2012
p86
aVDAL @ LAC
p87
aVL
p88
aI18
aI2
aI5
aF0.4
aI0
aI1
aF0.0
aI4
aI4
aF1.0
aI0
aI2
aI2
aI2
aI1
aI0
aI5
aI4
aI8
aI-24
aa(lp89
V0021200269
p90
aVDEC 06, 2012
p91
aVDAL @ PHX
p92
aVW
p93
aI27
aI3
aI6
aF0.5
aI0
aI1
aF0.0
aI10
aI12
aF0.833
aI0
aI4
aI4
aI2
aI1
aI0
aI2
aI3
aI16
aI-4
aa(lp94
V0021200290
p95
aVDEC 08, 2012
p96
aVDAL @ HOU
p97
aVW
p98
aI32
aI3
aI9
aF0.333
aI0
aI3
aF0.0
aI6
aI6
aF1.0
aI0
aI4
aI4
aI5
aI2
aI0
aI2
aI4
aI12
aI1
aa(lp99
V0021200302
p100
aVDEC 10, 2012
p101
aVDAL vs. SAC
p102
aVW
p103
aI30
aI7
aI9
aF0.778
aI1
aI2
aF0.5
aI0
aI0
aF0.0
aI1
aI2
aI3
aI2
aI2
aI0
aI3
aI2
aI15
aI22
aa(lp104
V0021200315
p105
aVDEC 12, 2012
p106
aVDAL @ BOS
p107
aVL
p108
aI37
aI8
aI11
aF0.727
aI1
aI3
aF0.333
aI3
aI5
aF0.6
aI1
aI4
aI5
aI6
aI3
aI0
aI7
aI5
aI20
aI8
aa(lp109
V0021200325
p110
aVDEC 14, 2012
p111
aVDAL @ TOR
p112
aVL
p113
aI22
aI1
aI4
aF0.25
aI0
aI2
aF0.0
aI2
aI2
aF1.0
aI0
aI1
aI1
aI1
aI0
aI0
aI2
aI1
aI4
aI-22
aa(lp114
V0021200342
p115
aVDEC 15, 2012
p116
aVDAL @ MIN
p117
aVL
p118
aI35
aI2
aI8
aF0.25
aI0
aI2
aF0.0
aI3
aI4
aF0.75
aI0
aI4
aI4
aI3
aI2
aI1
aI2
aI0
aI7
aI-10
aa(lp119
V0021200362
p120
aVDEC 18, 2012
p121
aVDAL vs. PHI
p122
aVW
p123
aI31
aI2
aI7
aF0.286
aI1
aI2
aF0.5
aI7
aI8
aF0.875
aI0
aI3
aI3
aI2
aI2
aI0
aI1
aI1
aI12
aI5
aa(lp124
V0021200378
p125
aVDEC 20, 2012
p126
aVDAL vs. MIA
p127
aVL
p128
aI27
aI4
aI8
aF0.5
aI0
aI1
aF0.0
aI3
aI4
aF0.75
aI0
aI3
aI3
aI5
aI1
aI0
aI2
aI1
aI11
aI-10
aa(lp129
V0021200386
p130
aVDEC 21, 2012
p131
aVDAL @ MEM
p132
aVL
p133
aI10
aI0
aI1
aF0.0
aI0
aI1
aF0.0
aI0
aI0
aF0.0
aI0
aI1
aI1
aI2
aI0
aI0
aI1
aI2
aI0
aI-14
aa(lp134
V0021200402
p135
aVDEC 23, 2012
p136
aVDAL @ SAS
p137
aVL
p138
aI25
aI6
aI9
aF0.667
aI0
aI0
aF0.0
aI3
aI4
aF0.75
aI0
aI2
aI2
aI2
aI1
aI0
aI2
aI3
aI15
aI-24
aa(lp139
V0021200423
p140
aVDEC 27, 2012
p141
aVDAL @ OKC
p142
aVL
p143
aI40
aI13
aI22
aF0.591
aI4
aI4
aF1.0
aI2
aI2
aF1.0
aI1
aI4
aI5
aI4
aI4
aI0
aI3
aI0
aI32
aI-9
aa(lp144
V0021200431
p145
aVDEC 28, 2012
p146
aVDAL vs. DEN
p147
aVL
p148
aI33
aI5
aI11
aF0.455
aI0
aI2
aF0.0
aI0
aI0
aF0.0
aI0
aI3
aI3
aI4
aI1
aI0
aI1
aI3
aI10
aI-20
aa(lp149
V0021200449
p150
aVDEC 30, 2012
p151
aVDAL vs. SAS
p152
aVL
p153
aI33
aI9
aI13
aF0.692
aI0
aI0
aF0.0
aI0
aI0
aF0.0
aI0
aI5
aI5
aI8
aI1
aI0
aI3
aI0
aI18
aI-12
aa(lp154
V0021200458
p155
aVJAN 01, 2013
p156
aVDAL @ WAS
p157
aVW
p158
aI39
aI4
aI13
aF0.308
aI1
aI4
aF0.25
aI6
aI7
aF0.857
aI0
aI3
aI3
aI8
aI0
aI0
aI1
aI2
aI15
aI19
aa(lp159
V0021200469
p160
aVJAN 02, 2013
p161
aVDAL @ MIA
p162
aVL
p163
aI40
aI4
aI9
aF0.444
aI1
aI2
aF0.5
aI2
aI3
aF0.667
aI0
aI4
aI4
aI3
aI1
aI0
aI1
aI2
aI11
aI-18
aa(lp164
V0021200495
p165
aVJAN 05, 2013
p166
aVDAL vs. NOH
p167
aVL
p168
aI38
aI5
aI7
aF0.714
aI0
aI0
aF0.0
aI2
aI2
aF1.0
aI0
aI5
aI5
aI5
aI1
aI0
aI2
aI2
aI12
aI2
aa(lp169
V0021200508
p170
aVJAN 07, 2013
p171
aVDAL @ UTA
p172
aVL
p173
aI29
aI3
aI8
aF0.375
aI0
aI0
aF0.0
aI5
aI5
aF1.0
aI0
aI3
aI3
aI2
aI1
aI0
aI2
aI2
aI11
aI-6
aa(lp174
V0021200525
p175
aVJAN 09, 2013
p176
aVDAL @ LAC
p177
aVL
p178
aI37
aI9
aI15
aF0.6
aI2
aI4
aF0.5
aI2
aI2
aF1.0
aI1
aI3
aI4
aI6
aI0
aI0
aI2
aI1
aI22
aI2
aa(lp179
V0021200528
p180
aVJAN 10, 2013
p181
aVDAL @ SAC
p182
aVW
p183
aI31
aI4
aI9
aF0.444
aI1
aI2
aF0.5
aI2
aI2
aF1.0
aI0
aI3
aI3
aI4
aI1
aI0
aI4
aI3
aI11
aI-1
aa(lp184
V0021200547
p185
aVJAN 12, 2013
p186
aVDAL vs. MEM
p187
aVW
p188
aI25
aI4
aI8
aF0.5
aI1
aI1
aF1.0
aI1
aI1
aF1.0
aI0
aI1
aI1
aI6
aI4
aI0
aI0
aI1
aI10
aI13
aa(lp189
V0021200560
p190
aVJAN 14, 2013
p191
aVDAL vs. MIN
p192
aVW
p193
aI36
aI7
aI11
aF0.636
aI1
aI1
aF1.0
aI8
aI8
aF1.0
aI0
aI2
aI2
aI9
aI3
aI0
aI3
aI2
aI23
aI27
aa(lp194
V0021200575
p195
aVJAN 16, 2013
p196
aVDAL vs. HOU
p197
aVW
p198
aI31
aI3
aI9
aF0.333
aI2
aI4
aF0.5
aI2
aI2
aF1.0
aI0
aI2
aI2
aI3
aI2
aI0
aI2
aI2
aI10
aI-12
aa(lp199
V0021200592
p200
aVJAN 18, 2013
p201
aVDAL vs. OKC
p202
aVL
p203
aI31
aI5
aI8
aF0.625
aI0
aI1
aF0.0
aI5
aI6
aF0.833
aI0
aI4
aI4
aI6
aI3
aI0
aI1
aI2
aI15
aI0
aa(lp204
V0021200602
p205
aVJAN 20, 2013
p206
aVDAL @ ORL
p207
aVW
p208
aI35
aI4
aI6
aF0.667
aI2
aI3
aF0.667
aI1
aI1
aF1.0
aI0
aI1
aI1
aI9
aI0
aI0
aI1
aI1
aI11
aI3
aa(lp209
V0021200639
p210
aVJAN 25, 2013
p211
aVDAL vs. SAS
p212
aVL
p213
aI29
aI5
aI10
aF0.5
aI1
aI2
aF0.5
aI2
aI2
aF1.0
aI1
aI2
aI3
aI2
aI2
aI0
aI2
aI2
aI13
aI-18
aa(lp214
V0021200657
p215
aVJAN 27, 2013
p216
aVDAL vs. PHX
p217
aVW
p218
aI22
aI3
aI7
aF0.429
aI0
aI0
aF0.0
aI2
aI2
aF1.0
aI0
aI2
aI2
aI5
aI2
aI0
aI2
aI5
aI8
aI6
aa(lp219
V0021200668
p220
aVJAN 29, 2013
p221
aVDAL @ POR
p222
aVL
p223
aI38
aI6
aI10
aF0.6
aI3
aI3
aF1.0
aI2
aI2
aF1.0
aI2
aI2
aI4
aI9
aI3
aI0
aI2
aI0
aI17
aI-3
aa(lp224
V0021200683
p225
aVJAN 31, 2013
p226
aVDAL @ GSW
p227
aVL
p228
aI30
aI3
aI9
aF0.333
aI0
aI0
aF0.0
aI0
aI0
aF0.0
aI0
aI2
aI2
aI7
aI1
aI0
aI2
aI1
aI6
aI-3
aa(lp229
V0021200694
p230
aVFEB 01, 2013
p231
aVDAL @ PHX
p232
aVW
p233
aI31
aI6
aI9
aF0.667
aI2
aI3
aF0.667
aI5
aI5
aF1.0
aI2
aI4
aI6
aI6
aI1
aI2
aI4
aI3
aI19
aI4
aa(lp234
V0021200712
p235
aVFEB 04, 2013
p236
aVDAL @ OKC
p237
aVL
p238
aI24
aI3
aI7
aF0.429
aI0
aI0
aF0.0
aI2
aI2
aF1.0
aI0
aI2
aI2
aI4
aI0
aI0
aI2
aI2
aI8
aI-16
aa(lp239
V0021200730
p240
aVFEB 06, 2013
p241
aVDAL vs. POR
p242
aVW
p243
aI30
aI3
aI8
aF0.375
aI0
aI2
aF0.0
aI2
aI2
aF1.0
aI1
aI2
aI3
aI7
aI0
aI0
aI1
aI1
aI8
aI-3
aa(lp244
V0021200750
p245
aVFEB 09, 2013
p246
aVDAL vs. GSW
p247
aVW
p248
aI33
aI5
aI9
aF0.556
aI3
aI4
aF0.75
aI5
aI5
aF1.0
aI1
aI3
aI4
aI8
aI0
aI0
aI2
aI1
aI18
aI22
aa(lp249
V0021200768
p250
aVFEB 11, 2013
p251
aVDAL vs. ATL
p252
aVL
p253
aI33
aI5
aI13
aF0.385
aI0
aI4
aF0.0
aI4
aI4
aF1.0
aI2
aI3
aI5
aI10
aI1
aI0
aI2
aI4
aI14
aI-13
aa(lp254
V0021200785
p255
aVFEB 13, 2013
p256
aVDAL vs. SAC
p257
aVW
p258
aI29
aI7
aI12
aF0.583
aI1
aI4
aF0.25
aI3
aI3
aF1.0
aI1
aI3
aI4
aI9
aI1
aI0
aI2
aI2
aI18
aI15
aa(lp259
V0021200806
p260
aVFEB 20, 2013
p261
aVDAL vs. ORL
p262
aVW
p263
aI33
aI3
aI10
aF0.3
aI0
aI2
aF0.0
aI3
aI3
aF1.0
aI0
aI0
aI0
aI9
aI2
aI0
aI3
aI1
aI9
aI4
aa(lp264
V0021200818
p265
aVFEB 22, 2013
p266
aVDAL @ NOH
p267
aVW
p268
aI31
aI3
aI8
aF0.375
aI0
aI0
aF0.0
aI5
aI5
aF1.0
aI1
aI3
aI4
aI3
aI2
aI0
aI2
aI1
aI11
aI3
aa(lp269
V0021200830
p270
aVFEB 24, 2013
p271
aVDAL vs. LAL
p272
aVL
p273
aI29
aI3
aI11
aF0.273
aI1
aI2
aF0.5
aI0
aI0
aF0.0
aI1
aI0
aI1
aI4
aI3
aI0
aI1
aI1
aI7
aI-4
aa(lp274
V0021200848
p275
aVFEB 26, 2013
p276
aVDAL vs. MIL
p277
aVL
p278
aI37
aI5
aI15
aF0.333
aI0
aI2
aF0.0
aI2
aI3
aF0.667
aI1
aI6
aI7
aI8
aI0
aI0
aI3
aI2
aI12
aI2
aa(lp279
V0021200855
p280
aVFEB 27, 2013
p281
aVDAL @ MEM
p282
aVL
p283
aI27
aI1
aI5
aF0.2
aI1
aI2
aF0.5
aI5
aI6
aF0.833
aI1
aI4
aI5
aI6
aI2
aI0
aI4
aI0
aI8
aI-8
aa(lp284
V0021200870
p285
aVMAR 01, 2013
p286
aVDAL @ BKN
p287
aVW
p288
aI25
aI4
aI7
aF0.571
aI1
aI4
aF0.25
aI0
aI0
aF0.0
aI0
aI3
aI3
aI0
aI1
aI0
aI4
aI3
aI9
aI-4
aa(lp289
V0021200885
p290
aVMAR 03, 2013
p291
aVDAL @ HOU
p292
aVL
p293
aI18
aI2
aI3
aF0.667
aI1
aI2
aF0.5
aI0
aI0
aF0.0
aI0
aI1
aI1
aI1
aI0
aI0
aI1
aI3
aI5
aI-14
aa(lp294
V0021200908
p295
aVMAR 06, 2013
p296
aVDAL vs. HOU
p297
aVW
p298
aI23
aI2
aI6
aF0.333
aI1
aI4
aF0.25
aI2
aI2
aF1.0
aI0
aI2
aI2
aI5
aI0
aI0
aI3
aI0
aI7
aI1
aa(lp299
V0021200919
p300
aVMAR 08, 2013
p301
aVDAL @ DET
p302
aVW
p303
aI29
aI3
aI9
aF0.333
aI0
aI2
aF0.0
aI5
aI5
aF1.0
aI0
aI3
aI3
aI8
aI0
aI0
aI2
aI1
aI11
aI21
aa(lp304
V0021200940
p305
aVMAR 10, 2013
p306
aVDAL @ MIN
p307
aVW
p308
aI31
aI3
aI9
aF0.333
aI0
aI0
aF0.0
aI3
aI4
aF0.75
aI0
aI4
aI4
aI8
aI1
aI0
aI3
aI1
aI9
aI27
aa(lp309
V0021200953
p310
aVMAR 12, 2013
p311
aVDAL @ MIL
p312
aVW
p313
aI17
aI2
aI8
aF0.25
aI0
aI2
aF0.0
aI4
aI4
aF1.0
aI0
aI1
aI1
aI0
aI0
aI0
aI0
aI0
aI8
aI-3
aa(lp314
V0021200967
p315
aVMAR 14, 2013
p316
aVDAL @ SAS
p317
aVL
p318
aI26
aI6
aI8
aF0.75
aI0
aI1
aF0.0
aI0
aI0
aF0.0
aI0
aI2
aI2
aI1
aI0
aI0
aI0
aI1
aI12
aI-1
aa(lp319
V0021200976
p320
aVMAR 15, 2013
p321
aVDAL vs. CLE
p322
aVW
p323
aI23
aI5
aI9
aF0.556
aI1
aI2
aF0.5
aI2
aI2
aF1.0
aI1
aI2
aI3
aI5
aI1
aI0
aI4
aI3
aI13
aI12
aa(lp324
V0021200990
p325
aVMAR 17, 2013
p326
aVDAL vs. OKC
p327
aVL
p328
aI22
aI4
aI9
aF0.444
aI0
aI1
aF0.0
aI4
aI4
aF1.0
aI0
aI1
aI1
aI3
aI2
aI0
aI2
aI1
aI12
aI-2
aa(lp329
V0021200996
p330
aVMAR 18, 2013
p331
aVDAL @ ATL
p332
aVW
p333
aI30
aI10
aI14
aF0.714
aI2
aI3
aF0.667
aI2
aI3
aF0.667
aI0
aI1
aI1
aI5
aI0
aI0
aI1
aI3
aI24
aI7
aa(lp334
V0021201015
p335
aVMAR 20, 2013
p336
aVDAL vs. BKN
p337
aVL
p338
aI20
aI2
aI5
aF0.4
aI0
aI0
aF0.0
aI4
aI6
aF0.667
aI0
aI0
aI0
aI3
aI1
aI0
aI2
aI0
aI8
aI-10
aa(lp339
V0021201029
p340
aVMAR 22, 2013
p341
aVDAL vs. BOS
p342
aVW
p343
aI29
aI2
aI5
aF0.4
aI0
aI0
aF0.0
aI4
aI4
aF1.0
aI0
aI5
aI5
aI3
aI2
aI0
aI3
aI1
aI8
aI5
aa(lp344
V0021201045
p345
aVMAR 24, 2013
p346
aVDAL vs. UTA
p347
aVW
p348
aI22
aI1
aI4
aF0.25
aI0
aI1
aF0.0
aI11
aI13
aF0.846
aI0
aI1
aI1
aI5
aI0
aI1
aI3
aI1
aI13
aI-9
aa(lp349
V0021201056
p350
aVMAR 26, 2013
p351
aVDAL vs. LAC
p352
aVW
p353
aI25
aI3
aI6
aF0.5
aI1
aI3
aF0.333
aI6
aI6
aF1.0
aI1
aI1
aI2
aI4
aI1
aI1
aI3
aI1
aI13
aI-1
aa(lp354
V0021201072
p355
aVMAR 28, 2013
p356
aVDAL vs. IND
p357
aVL
p358
aI29
aI2
aI6
aF0.333
aI1
aI1
aF1.0
aI5
aI6
aF0.833
aI1
aI1
aI2
aI8
aI0
aI0
aI1
aI4
aI10
aI-6
aa(lp359
V0021201085
p360
aVMAR 30, 2013
p361
aVDAL vs. CHI
p362
aVW
p363
aI20
aI3
aI6
aF0.5
aI0
aI0
aF0.0
aI2
aI2
aF1.0
aI1
aI0
aI1
aI3
aI1
aI0
aI1
aI2
aI8
aI5
aa(lp364
V0021201110
p365
aVAPR 02, 2013
p366
aVDAL @ LAL
p367
aVL
p368
aI29
aI5
aI12
aF0.417
aI1
aI4
aF0.25
aI0
aI0
aF0.0
aI0
aI1
aI1
aI6
aI3
aI0
aI2
aI2
aI11
aI-19
aa(lp369
V0021201124
p370
aVAPR 04, 2013
p371
aVDAL @ DEN
p372
aVL
p373
aI30
aI4
aI9
aF0.444
aI0
aI2
aF0.0
aI3
aI3
aF1.0
aI1
aI2
aI3
aI5
aI0
aI1
aI1
aI1
aI11
aI-3
aa(lp374
V0021201135
p375
aVAPR 05, 2013
p376
aVDAL @ SAC
p377
aVW
p378
aI30
aI7
aI10
aF0.7
aI0
aI2
aF0.0
aI4
aI4
aF1.0
aI0
aI1
aI1
aI8
aI1
aI1
aI1
aI3
aI18
aI-2
aa(lp379
V0021201153
p380
aVAPR 07, 2013
p381
aVDAL @ POR
p382
aVW
p383
aI31
aI2
aI6
aF0.333
aI0
aI0
aF0.0
aI0
aI0
aF0.0
aI0
aI1
aI1
aI8
aI1
aI0
aI3
aI1
aI4
aI0
aa(lp384
V0021201169
p385
aVAPR 10, 2013
p386
aVDAL vs. PHX
p387
aVL
p388
aI19
aI1
aI6
aF0.167
aI0
aI0
aF0.0
aI1
aI2
aF0.5
aI2
aI1
aI3
aI3
aI0
aI0
aI1
aI2
aI3
aI-7
aa(lp389
V0021201185
p390
aVAPR 12, 2013
p391
aVDAL vs. DEN
p392
aVW
p393
aI19
aI2
aI4
aF0.5
aI0
aI1
aF0.0
aI3
aI4
aF0.75
aI0
aI2
aI2
aI4
aI2
aI0
aI4
aI3
aI7
aI-4
aa(lp394
V0021201199
p395
aVAPR 14, 2013
p396
aVDAL @ NOH
p397
aVW
p398
aI29
aI4
aI9
aF0.444
aI1
aI2
aF0.5
aI0
aI0
aF0.0
aI0
aI6
aI6
aI2
aI0
aI0
aI1
aI1
aI9
aI20
aa(lp399
V0021201208
p400
aVAPR 15, 2013
p401
aVDAL vs. MEM
p402
aVL
p403
aI26
aI2
aI5
aF0.4
aI0
aI0
aF0.0
aI5
aI8
aF0.625
aI2
aI1
aI3
aI4
aI1
aI0
aI0
aI0
aI9
aI5
aa(lp404
V0021201224
p405
aVAPR 17, 2013
p406
aVDAL vs. NOH
p407
aVW
p408
aI28
aI10
aI15
aF0.667
aI1
aI2
aF0.5
aI4
aI6
aF0.667
aI1
aI1
aI2
aI4
aI2
aI1
aI0
aI1
aI25
aI15
aasS'name'
p409
VDarren Collison
p410
sS'experience'
p411
I3
s.