(dp0
S'age'
p1
I25
sS'stats'
p2
(lp3
(lp4
V0021200011
p5
aVOCT 31, 2012
p6
aVMEM @ LAC
p7
aVL
p8
aI16
aI2
aI5
aF0.4
aI0
aI2
aF0.0
aI0
aI0
aF0.0
aI1
aI1
aI2
aI0
aI0
aI0
aI0
aI2
aI4
aI3
aa(lp9
V0021200026
p10
aVNOV 02, 2012
p11
aVMEM @ GSW
p12
aVW
p13
aI18
aI3
aI6
aF0.5
aI2
aI4
aF0.5
aI2
aI2
aF1.0
aI0
aI0
aI0
aI3
aI1
aI0
aI0
aI0
aI10
aI2
aa(lp14
V0021200045
p15
aVNOV 05, 2012
p16
aVMEM vs. UTA
p17
aVW
p18
aI13
aI1
aI5
aF0.2
aI0
aI1
aF0.0
aI0
aI0
aF0.0
aI1
aI2
aI3
aI0
aI1
aI0
aI0
aI0
aI2
aI6
aa(lp19
V0021200057
p20
aVNOV 07, 2012
p21
aVMEM @ MIL
p22
aVW
p23
aI18
aI2
aI3
aF0.667
aI1
aI2
aF0.5
aI0
aI0
aF0.0
aI1
aI2
aI3
aI2
aI0
aI0
aI0
aI2
aI5
aI9
aa(lp24
V0021200073
p25
aVNOV 09, 2012
p26
aVMEM vs. HOU
p27
aVW
p28
aI18
aI2
aI4
aF0.5
aI1
aI3
aF0.333
aI0
aI0
aF0.0
aI0
aI1
aI1
aI2
aI0
aI1
aI0
aI1
aI5
aI12
aa(lp29
V0021200092
p30
aVNOV 11, 2012
p31
aVMEM vs. MIA
p32
aVW
p33
aI27
aI8
aI13
aF0.615
aI7
aI11
aF0.636
aI2
aI2
aF1.0
aI0
aI1
aI1
aI3
aI0
aI0
aI0
aI2
aI25
aI36
aa(lp34
V0021200113
p35
aVNOV 14, 2012
p36
aVMEM @ OKC
p37
aVW
p38
aI11
aI3
aI5
aF0.6
aI0
aI1
aF0.0
aI0
aI0
aF0.0
aI0
aI0
aI0
aI1
aI0
aI0
aI0
aI2
aI6
aI9
aa(lp39
V0021200127
p40
aVNOV 16, 2012
p41
aVMEM vs. NYK
p42
aVW
p43
aI17
aI2
aI4
aF0.5
aI1
aI2
aF0.5
aI0
aI0
aF0.0
aI0
aI0
aI0
aI1
aI1
aI0
aI1
aI1
aI5
aI-10
aa(lp44
V0021200134
p45
aVNOV 17, 2012
p46
aVMEM @ CHA
p47
aVW
p48
aI11
aI0
aI5
aF0.0
aI0
aI4
aF0.0
aI0
aI0
aF0.0
aI0
aI1
aI1
aI1
aI0
aI0
aI0
aI1
aI0
aI0
aa(lp49
V0021200150
p50
aVNOV 19, 2012
p51
aVMEM vs. DEN
p52
aVL
p53
aI8
aI0
aI2
aF0.0
aI0
aI1
aF0.0
aI0
aI0
aF0.0
aI0
aI0
aI0
aI0
aI0
aI0
aI1
aI0
aI0
aI-3
aa(lp54
V0021200177
p55
aVNOV 23, 2012
p56
aVMEM vs. LAL
p57
aVW
p58
aI11
aI0
aI1
aF0.0
aI0
aI1
aF0.0
aI0
aI0
aF0.0
aI0
aI0
aI0
aI0
aI1
aI0
aI1
aI2
aI0
aI-14
aa(lp59
V0021200200
p60
aVNOV 26, 2012
p61
aVMEM vs. CLE
p62
aVW
p63
aI12
aI1
aI5
aF0.2
aI0
aI2
aF0.0
aI0
aI0
aF0.0
aI0
aI0
aI0
aI0
aI0
aI0
aI0
aI1
aI2
aI-2
aa(lp64
V0021200216
p65
aVNOV 28, 2012
p66
aVMEM vs. TOR
p67
aVW
p68
aI13
aI2
aI6
aF0.333
aI0
aI1
aF0.0
aI0
aI0
aF0.0
aI0
aI1
aI1
aI1
aI0
aI0
aI0
aI1
aI4
aI7
aa(lp69
V0021200228
p70
aVNOV 30, 2012
p71
aVMEM vs. DET
p72
aVW
p73
aI32
aI1
aI9
aF0.111
aI1
aI4
aF0.25
aI0
aI0
aF0.0
aI0
aI3
aI3
aI3
aI1
aI0
aI1
aI0
aI3
aI-6
aa(lp74
V0021200239
p75
aVDEC 01, 2012
p76
aVMEM @ SAS
p77
aVL
p78
aI22
aI1
aI3
aF0.333
aI0
aI0
aF0.0
aI1
aI2
aF0.5
aI0
aI3
aI3
aI1
aI1
aI0
aI0
aI2
aI3
aI4
aa(lp79
V0021200255
p80
aVDEC 04, 2012
p81
aVMEM vs. PHX
p82
aVW
p83
aI24
aI3
aI9
aF0.333
aI1
aI5
aF0.2
aI0
aI0
aF0.0
aI0
aI1
aI1
aI2
aI1
aI0
aI3
aI0
aI7
aI-5
aa(lp84
V0021200275
p85
aVDEC 07, 2012
p86
aVMEM @ NOH
p87
aVW
p88
aI10
aI0
aI2
aF0.0
aI0
aI2
aF0.0
aI2
aI2
aF1.0
aI0
aI0
aI0
aI0
aI0
aI0
aI0
aI0
aI2
aI-11
aa(lp89
V0021200289
p90
aVDEC 08, 2012
p91
aVMEM vs. ATL
p92
aVL
p93
aI14
aI3
aI4
aF0.75
aI2
aI3
aF0.667
aI0
aI0
aF0.0
aI0
aI1
aI1
aI1
aI0
aI0
aI1
aI1
aI8
aI7
aa(lp94
V0021200320
p95
aVDEC 12, 2012
p96
aVMEM @ PHX
p97
aVL
p98
aI9
aI0
aI2
aF0.0
aI0
aI0
aF0.0
aI0
aI0
aF0.0
aI0
aI1
aI1
aI0
aI0
aI0
aI0
aI0
aI0
aI1
aa(lp99
V0021200335
p100
aVDEC 14, 2012
p101
aVMEM @ DEN
p102
aVL
p103
aI18
aI4
aI7
aF0.571
aI3
aI5
aF0.6
aI0
aI0
aF0.0
aI0
aI1
aI1
aI1
aI0
aI0
aI0
aI2
aI11
aI-2
aa(lp104
V0021200345
p105
aVDEC 15, 2012
p106
aVMEM @ UTA
p107
aVW
p108
aI15
aI3
aI6
aF0.5
aI0
aI0
aF0.0
aI0
aI0
aF0.0
aI0
aI1
aI1
aI1
aI1
aI0
aI0
aI0
aI6
aI-7
aa(lp109
V0021200353
p110
aVDEC 17, 2012
p111
aVMEM vs. CHI
p112
aVW
p113
aI20
aI4
aI7
aF0.571
aI3
aI4
aF0.75
aI0
aI0
aF0.0
aI0
aI2
aI2
aI2
aI0
aI0
aI2
aI2
aI11
aI13
aa(lp114
V0021200374
p115
aVDEC 19, 2012
p116
aVMEM vs. MIL
p117
aVW
p118
aI19
aI1
aI5
aF0.2
aI0
aI0
aF0.0
aI0
aI0
aF0.0
aI0
aI0
aI0
aI2
aI1
aI0
aI1
aI0
aI2
aI12
aa(lp119
V0021200386
p120
aVDEC 21, 2012
p121
aVMEM vs. DAL
p122
aVW
p123
aI9
aI0
aI0
aF0.0
aI0
aI0
aF0.0
aI0
aI0
aF0.0
aI0
aI0
aI0
aI0
aI0
aI0
aI1
aI1
aI0
aI-4
aa(lp124
V0021200394
p125
aVDEC 22, 2012
p126
aVMEM @ HOU
p127
aVL
p128
aI6
aI1
aI2
aF0.5
aI0
aI0
aF0.0
aI0
aI0
aF0.0
aI0
aI1
aI1
aI0
aI1
aI0
aI0
aI0
aI2
aI-2
aa(lp129
V0021200416
p130
aVDEC 26, 2012
p131
aVMEM vs. PHI
p132
aVL
p133
aI30
aI1
aI6
aF0.167
aI0
aI1
aF0.0
aI0
aI0
aF0.0
aI0
aI1
aI1
aI3
aI1
aI0
aI0
aI3
aI2
aI-13
aa(lp134
V0021200442
p135
aVDEC 29, 2012
p136
aVMEM vs. DEN
p137
aVW
p138
aI15
aI2
aI4
aF0.5
aI2
aI3
aF0.667
aI0
aI0
aF0.0
aI0
aI4
aI4
aI0
aI0
aI0
aI0
aI0
aI6
aI11
aa(lp139
V0021200452
p140
aVDEC 31, 2012
p141
aVMEM @ IND
p142
aVL
p143
aI18
aI2
aI4
aF0.5
aI2
aI4
aF0.5
aI0
aI0
aF0.0
aI0
aI1
aI1
aI1
aI0
aI0
aI1
aI1
aI6
aI3
aa(lp144
V0021200468
p145
aVJAN 02, 2013
p146
aVMEM @ BOS
p147
aVW
p148
aI19
aI2
aI5
aF0.4
aI1
aI2
aF0.5
aI0
aI0
aF0.0
aI0
aI1
aI1
aI0
aI1
aI0
aI2
aI1
aI5
aI7
aa(lp149
V0021200484
p150
aVJAN 04, 2013
p151
aVMEM vs. POR
p152
aVL
p153
aI21
aI2
aI5
aF0.4
aI1
aI2
aF0.5
aI4
aI4
aF1.0
aI1
aI3
aI4
aI2
aI1
aI0
aI1
aI2
aI9
aI9
aa(lp154
V0021200502
p155
aVJAN 06, 2013
p156
aVMEM @ PHX
p157
aVW
p158
aI12
aI1
aI2
aF0.5
aI0
aI1
aF0.0
aI0
aI0
aF0.0
aI0
aI1
aI1
aI0
aI0
aI0
aI1
aI0
aI2
aI0
aa(lp159
V0021200509
p160
aVJAN 07, 2013
p161
aVMEM @ SAC
p162
aVW
p163
aI26
aI10
aI11
aF0.909
aI6
aI7
aF0.857
aI0
aI0
aF0.0
aI0
aI1
aI1
aI4
aI1
aI0
aI0
aI1
aI26
aI25
aa(lp164
V0021200526
p165
aVJAN 09, 2013
p166
aVMEM @ GSW
p167
aVW
p168
aI5
aI0
aI1
aF0.0
aI0
aI1
aF0.0
aI0
aI0
aF0.0
aI0
aI0
aI0
aI0
aI0
aI0
aI0
aI1
aI0
aI-7
aa(lp169
V0021200535
p170
aVJAN 11, 2013
p171
aVMEM vs. SAS
p172
aVW
p173
aI12
aI1
aI2
aF0.5
aI0
aI1
aF0.0
aI0
aI0
aF0.0
aI0
aI0
aI0
aI0
aI0
aI0
aI0
aI0
aI2
aI-1
aa(lp174
V0021200547
p175
aVJAN 12, 2013
p176
aVMEM @ DAL
p177
aVL
p178
aI21
aI1
aI9
aF0.111
aI0
aI3
aF0.0
aI0
aI0
aF0.0
aI0
aI1
aI1
aI2
aI1
aI0
aI0
aI2
aI2
aI3
aa(lp179
V0021200559
p180
aVJAN 14, 2013
p181
aVMEM vs. LAC
p182
aVL
p183
aI30
aI4
aI9
aF0.444
aI3
aI6
aF0.5
aI0
aI0
aF0.0
aI1
aI5
aI6
aI1
aI1
aI0
aI1
aI2
aI11
aI-7
aa(lp184
V0021200576
p185
aVJAN 16, 2013
p186
aVMEM @ SAS
p187
aVL
p188
aI18
aI0
aI5
aF0.0
aI0
aI2
aF0.0
aI4
aI4
aF1.0
aI0
aI1
aI1
aI1
aI0
aI0
aI0
aI0
aI4
aI-13
aa(lp189
V0021200589
p190
aVJAN 18, 2013
p191
aVMEM vs. SAC
p192
aVW
p193
aI16
aI1
aI6
aF0.167
aI1
aI2
aF0.5
aI0
aI0
aF0.0
aI0
aI2
aI2
aI1
aI0
aI0
aI1
aI1
aI3
aI0
aa(lp194
V0021200595
p195
aVJAN 19, 2013
p196
aVMEM @ CHI
p197
aVW
p198
aI16
aI0
aI1
aF0.0
aI0
aI1
aF0.0
aI0
aI0
aF0.0
aI0
aI3
aI3
aI0
aI0
aI0
aI2
aI1
aI0
aI-3
aa(lp199
V0021200605
p200
aVJAN 21, 2013
p201
aVMEM vs. IND
p202
aVL
p203
aI26
aI7
aI9
aF0.778
aI3
aI3
aF1.0
aI0
aI0
aF0.0
aI0
aI0
aI0
aI0
aI0
aI0
aI3
aI0
aI17
aI3
aa(lp204
V0021200635
p205
aVJAN 25, 2013
p206
aVCLE vs. MIL
p207
aVW
p208
aI12
aI1
aI4
aF0.25
aI1
aI3
aF0.333
aI0
aI0
aF0.0
aI0
aI2
aI2
aI2
aI0
aI0
aI1
aI1
aI3
aI14
aa(lp209
V0021200642
p210
aVJAN 26, 2013
p211
aVCLE @ TOR
p212
aVW
p213
aI24
aI3
aI5
aF0.6
aI3
aI4
aF0.75
aI3
aI4
aF0.75
aI0
aI2
aI2
aI0
aI0
aI0
aI0
aI3
aI12
aI2
aa(lp214
V0021200666
p215
aVJAN 29, 2013
p216
aVCLE vs. GSW
p217
aVL
p218
aI16
aI0
aI2
aF0.0
aI0
aI2
aF0.0
aI0
aI0
aF0.0
aI2
aI1
aI3
aI1
aI0
aI0
aI1
aI1
aI0
aI-5
aa(lp219
V0021200690
p220
aVFEB 01, 2013
p221
aVCLE @ DET
p222
aVL
p223
aI23
aI3
aI9
aF0.333
aI3
aI7
aF0.429
aI4
aI4
aF1.0
aI0
aI1
aI1
aI0
aI0
aI0
aI1
aI1
aI13
aI-5
aa(lp224
V0021200698
p225
aVFEB 02, 2013
p226
aVCLE vs. OKC
p227
aVW
p228
aI16
aI2
aI5
aF0.4
aI1
aI3
aF0.333
aI0
aI0
aF0.0
aI0
aI1
aI1
aI3
aI2
aI0
aI1
aI0
aI5
aI0
aa(lp229
V0021200724
p230
aVFEB 06, 2013
p231
aVCLE vs. CHA
p232
aVW
p233
aI23
aI7
aI12
aF0.583
aI2
aI7
aF0.286
aI0
aI0
aF0.0
aI1
aI4
aI5
aI3
aI1
aI0
aI0
aI0
aI16
aI10
aa(lp234
V0021200740
p235
aVFEB 08, 2013
p236
aVCLE vs. ORL
p237
aVW
p238
aI25
aI5
aI11
aF0.455
aI3
aI5
aF0.6
aI1
aI2
aF0.5
aI0
aI1
aI1
aI1
aI1
aI0
aI0
aI1
aI14
aI17
aa(lp239
V0021200747
p240
aVFEB 09, 2013
p241
aVCLE vs. DEN
p242
aVL
p243
aI23
aI4
aI6
aF0.667
aI3
aI4
aF0.75
aI2
aI2
aF1.0
aI1
aI4
aI5
aI0
aI0
aI0
aI1
aI0
aI13
aI-1
aa(lp244
V0021200763
p245
aVFEB 11, 2013
p246
aVCLE vs. MIN
p247
aVL
p248
aI25
aI4
aI7
aF0.571
aI2
aI3
aF0.667
aI0
aI0
aF0.0
aI0
aI2
aI2
aI2
aI0
aI0
aI0
aI1
aI10
aI-3
aa(lp249
V0021200776
p250
aVFEB 13, 2013
p251
aVCLE vs. SAS
p252
aVL
p253
aI18
aI2
aI6
aF0.333
aI0
aI2
aF0.0
aI1
aI1
aF1.0
aI0
aI1
aI1
aI0
aI2
aI0
aI0
aI0
aI5
aI-4
aa(lp254
V0021200800
p255
aVFEB 20, 2013
p256
aVCLE vs. NOH
p257
aVW
p258
aI24
aI1
aI3
aF0.333
aI0
aI2
aF0.0
aI6
aI6
aF1.0
aI0
aI1
aI1
aI0
aI0
aI0
aI1
aI0
aI8
aI-1
aa(lp259
V0021200825
p260
aVFEB 23, 2013
p261
aVCLE @ ORL
p262
aVW
p263
aI22
aI6
aI10
aF0.6
aI3
aI6
aF0.5
aI0
aI0
aF0.0
aI0
aI4
aI4
aI1
aI0
aI0
aI0
aI1
aI15
aI21
aa(lp264
V0021200833
p265
aVFEB 24, 2013
p266
aVCLE @ MIA
p267
aVL
p268
aI15
aI1
aI4
aF0.25
aI0
aI1
aF0.0
aI3
aI4
aF0.75
aI0
aI0
aI0
aI1
aI2
aI0
aI1
aI1
aI5
aI15
aa(lp269
V0021200846
p270
aVFEB 26, 2013
p271
aVCLE @ CHI
p272
aVW
p273
aI27
aI5
aI11
aF0.455
aI2
aI5
aF0.4
aI1
aI1
aF1.0
aI1
aI5
aI6
aI3
aI0
aI0
aI0
aI2
aI13
aI10
aa(lp274
V0021200852
p275
aVFEB 27, 2013
p276
aVCLE vs. TOR
p277
aVW
p278
aI27
aI5
aI8
aF0.625
aI0
aI0
aF0.0
aI3
aI3
aF1.0
aI0
aI3
aI3
aI1
aI3
aI0
aI1
aI1
aI13
aI18
aa(lp279
V0021200869
p280
aVMAR 01, 2013
p281
aVCLE vs. LAC
p282
aVL
p283
aI31
aI3
aI7
aF0.429
aI1
aI3
aF0.333
aI2
aI2
aF1.0
aI0
aI1
aI1
aI3
aI1
aI0
aI2
aI3
aI9
aI-15
aa(lp284
V0021200889
p285
aVMAR 04, 2013
p286
aVCLE vs. NYK
p287
aVL
p288
aI27
aI2
aI7
aF0.286
aI1
aI4
aF0.25
aI2
aI2
aF1.0
aI0
aI2
aI2
aI0
aI0
aI0
aI1
aI0
aI7
aI-15
aa(lp289
V0021200900
p290
aVMAR 06, 2013
p291
aVCLE vs. UTA
p292
aVW
p293
aI38
aI4
aI12
aF0.333
aI2
aI5
aF0.4
aI6
aI6
aF1.0
aI1
aI5
aI6
aI1
aI0
aI0
aI0
aI2
aI16
aI8
aa(lp294
V0021200920
p295
aVMAR 08, 2013
p296
aVCLE vs. MEM
p297
aVL
p298
aI28
aI3
aI5
aF0.6
aI1
aI2
aF0.5
aI0
aI0
aF0.0
aI0
aI5
aI5
aI1
aI0
aI1
aI0
aI0
aI7
aI2
aa(lp299
V0021200936
p300
aVMAR 10, 2013
p301
aVCLE @ TOR
p302
aVL
p303
aI19
aI3
aI6
aF0.5
aI0
aI2
aF0.0
aI1
aI1
aF1.0
aI0
aI3
aI3
aI3
aI1
aI0
aI0
aI1
aI7
aI-8
aa(lp304
V0021200950
p305
aVMAR 12, 2013
p306
aVCLE vs. WAS
p307
aVW
p308
aI19
aI4
aI10
aF0.4
aI1
aI5
aF0.2
aI3
aI4
aF0.75
aI2
aI1
aI3
aI1
aI0
aI0
aI1
aI1
aI12
aI0
aa(lp309
V0021200982
p310
aVMAR 16, 2013
p311
aVCLE @ SAS
p312
aVL
p313
aI23
aI8
aI13
aF0.615
aI4
aI7
aF0.571
aI1
aI1
aF1.0
aI0
aI2
aI2
aI2
aI0
aI0
aI1
aI0
aI21
aI11
aa(lp314
V0021200995
p315
aVMAR 18, 2013
p316
aVCLE vs. IND
p317
aVL
p318
aI24
aI1
aI9
aF0.111
aI1
aI3
aF0.333
aI0
aI0
aF0.0
aI1
aI2
aI3
aI2
aI1
aI0
aI2
aI3
aI3
aI-17
aa(lp319
V0021201009
p320
aVMAR 20, 2013
p321
aVCLE vs. MIA
p322
aVL
p323
aI41
aI7
aI17
aF0.412
aI3
aI7
aF0.429
aI3
aI3
aF1.0
aI2
aI5
aI7
aI4
aI1
aI0
aI4
aI4
aI20
aI12
aa(lp324
V0021201028
p325
aVMAR 22, 2013
p326
aVCLE @ HOU
p327
aVL
p328
aI21
aI6
aI13
aF0.462
aI1
aI4
aF0.25
aI0
aI0
aF0.0
aI0
aI0
aI0
aI1
aI1
aI0
aI1
aI2
aI13
aI-8
aa(lp329
V0021201060
p330
aVMAR 27, 2013
p331
aVCLE vs. BOS
p332
aVL
p333
aI33
aI7
aI16
aF0.438
aI1
aI4
aF0.25
aI1
aI2
aF0.5
aI0
aI3
aI3
aI2
aI3
aI0
aI1
aI1
aI16
aI0
aa(lp334
V0021201078
p335
aVMAR 29, 2013
p336
aVCLE vs. PHI
p337
aVL
p338
aI29
aI5
aI14
aF0.357
aI0
aI6
aF0.0
aI0
aI0
aF0.0
aI0
aI5
aI5
aI2
aI3
aI0
aI0
aI1
aI10
aI-11
aa(lp339
V0021201096
p340
aVMAR 31, 2013
p341
aVCLE @ NOH
p342
aVL
p343
aI33
aI5
aI10
aF0.5
aI2
aI4
aF0.5
aI0
aI0
aF0.0
aI0
aI2
aI2
aI4
aI0
aI0
aI1
aI1
aI12
aI-6
aa(lp344
V0021201101
p345
aVAPR 01, 2013
p346
aVCLE @ ATL
p347
aVL
p348
aI34
aI4
aI12
aF0.333
aI1
aI5
aF0.2
aI1
aI1
aF1.0
aI2
aI2
aI4
aI2
aI0
aI0
aI2
aI3
aI10
aI-5
aa(lp349
V0021201114
p350
aVAPR 03, 2013
p351
aVCLE vs. BKN
p352
aVL
p353
aI28
aI2
aI8
aF0.25
aI1
aI3
aF0.333
aI0
aI0
aF0.0
aI1
aI3
aI4
aI3
aI2
aI0
aI1
aI0
aI5
aI-24
aa(lp354
V0021201127
p355
aVAPR 05, 2013
p356
aVCLE @ BOS
p357
aVW
p358
aI36
aI5
aI8
aF0.625
aI1
aI2
aF0.5
aI1
aI2
aF0.5
aI1
aI5
aI6
aI0
aI1
aI0
aI1
aI1
aI12
aI3
aa(lp359
V0021201148
p360
aVAPR 07, 2013
p361
aVCLE vs. ORL
p362
aVW
p363
aI38
aI3
aI9
aF0.333
aI1
aI1
aF1.0
aI2
aI2
aF1.0
aI1
aI2
aI3
aI3
aI0
aI0
aI1
aI3
aI9
aI5
aa(lp364
V0021201154
p365
aVAPR 09, 2013
p366
aVCLE @ IND
p367
aVL
p368
aI35
aI4
aI11
aF0.364
aI1
aI4
aF0.25
aI0
aI0
aF0.0
aI2
aI2
aI4
aI2
aI0
aI1
aI2
aI1
aI9
aI-25
aa(lp369
V0021201167
p370
aVAPR 10, 2013
p371
aVCLE vs. DET
p372
aVL
p373
aI23
aI4
aI5
aF0.8
aI1
aI2
aF0.5
aI0
aI0
aF0.0
aI0
aI5
aI5
aI0
aI0
aI0
aI0
aI2
aI9
aI-16
aa(lp374
V0021201182
p375
aVAPR 12, 2013
p376
aVCLE vs. NYK
p377
aVL
p378
aI38
aI5
aI11
aF0.455
aI1
aI5
aF0.2
aI2
aI2
aF1.0
aI1
aI2
aI3
aI5
aI3
aI0
aI1
aI1
aI13
aI-5
aa(lp379
V0021201197
p380
aVAPR 14, 2013
p381
aVCLE @ PHI
p382
aVL
p383
aI28
aI4
aI12
aF0.333
aI2
aI5
aF0.4
aI2
aI2
aF1.0
aI0
aI4
aI4
aI1
aI0
aI0
aI3
aI0
aI12
aI-19
aa(lp384
V0021201204
p385
aVAPR 15, 2013
p386
aVCLE vs. MIA
p387
aVL
p388
aI21
aI2
aI6
aF0.333
aI2
aI4
aF0.5
aI0
aI0
aF0.0
aI1
aI1
aI2
aI1
aI0
aI0
aI0
aI0
aI6
aI-10
aa(lp389
V0021201219
p390
aVAPR 17, 2013
p391
aVCLE @ CHA
p392
aVL
p393
aI18
aI5
aI6
aF0.833
aI1
aI2
aF0.5
aI2
aI2
aF1.0
aI0
aI0
aI0
aI1
aI1
aI0
aI0
aI0
aI13
aI2
aasS'name'
p394
VWayne Ellington
p395
sS'experience'
p396
I3
s.