(dp0
S'stats'
p1
(lp2
(lp3
V0021200017
p4
aVNOV 02, 2012
p5
aVMIL @ BOS
p6
aVW
p7
aI29
aI9
aI17
aF0.529
aI1
aI3
aF0.333
aI2
aI3
aF0.667
aI0
aI2
aI2
aI13
aI6
aI0
aI2
aI2
aI21
aI12
aa(lp8
V0021200033
p9
aVNOV 03, 2012
p10
aVMIL vs. CLE
p11
aVW
p12
aI37
aI5
aI13
aF0.385
aI1
aI5
aF0.2
aI2
aI2
aF1.0
aI0
aI4
aI4
aI13
aI2
aI1
aI4
aI0
aI13
aI-14
aa(lp13
V0021200057
p14
aVNOV 07, 2012
p15
aVMIL vs. MEM
p16
aVL
p17
aI37
aI6
aI20
aF0.3
aI2
aI4
aF0.5
aI5
aI5
aF1.0
aI1
aI2
aI3
aI5
aI4
aI0
aI2
aI1
aI19
aI-16
aa(lp18
V0021200068
p19
aVNOV 09, 2012
p20
aVMIL @ WAS
p21
aVW
p22
aI31
aI5
aI9
aF0.556
aI0
aI0
aF0.0
aI2
aI2
aF1.0
aI0
aI1
aI1
aI7
aI3
aI0
aI6
aI1
aI12
aI-2
aa(lp23
V0021200086
p24
aVNOV 10, 2012
p25
aVMIL vs. BOS
p26
aVL
p27
aI42
aI1
aI11
aF0.091
aI1
aI7
aF0.143
aI1
aI2
aF0.5
aI1
aI3
aI4
aI5
aI2
aI0
aI3
aI4
aI4
aI-9
aa(lp28
V0021200096
p29
aVNOV 12, 2012
p30
aVMIL @ PHI
p31
aVW
p32
aI38
aI12
aI21
aF0.571
aI4
aI9
aF0.444
aI5
aI5
aF1.0
aI0
aI5
aI5
aI8
aI4
aI1
aI1
aI3
aI33
aI25
aa(lp33
V0021200111
p34
aVNOV 14, 2012
p35
aVMIL vs. IND
p36
aVW
p37
aI29
aI6
aI12
aF0.5
aI2
aI6
aF0.333
aI2
aI2
aF1.0
aI0
aI3
aI3
aI4
aI1
aI0
aI0
aI1
aI16
aI25
aa(lp38
V0021200136
p39
aVNOV 17, 2012
p40
aVMIL vs. NOH
p41
aVW
p42
aI41
aI8
aI16
aF0.5
aI4
aI7
aF0.571
aI2
aI3
aF0.667
aI1
aI1
aI2
aI9
aI4
aI0
aI1
aI2
aI22
aI11
aa(lp43
V0021200148
p44
aVNOV 19, 2012
p45
aVMIL @ CHA
p46
aVL
p47
aI33
aI5
aI18
aF0.278
aI0
aI4
aF0.0
aI0
aI0
aF0.0
aI1
aI3
aI4
aI5
aI2
aI0
aI2
aI0
aI10
aI-14
aa(lp48
V0021200163
p49
aVNOV 21, 2012
p50
aVMIL @ MIA
p51
aVL
p52
aI49
aI9
aI25
aF0.36
aI1
aI8
aF0.125
aI0
aI0
aF0.0
aI1
aI6
aI7
aI6
aI5
aI0
aI0
aI3
aI19
aI-3
aa(lp53
V0021200188
p54
aVNOV 24, 2012
p55
aVMIL vs. CHI
p56
aVL
p57
aI38
aI10
aI20
aF0.5
aI1
aI5
aF0.2
aI2
aI4
aF0.5
aI0
aI1
aI1
aI7
aI5
aI0
aI3
aI1
aI23
aI-6
aa(lp58
V0021200199
p59
aVNOV 26, 2012
p60
aVMIL @ CHI
p61
aVW
p62
aI26
aI2
aI9
aF0.222
aI0
aI0
aF0.0
aI2
aI2
aF1.0
aI1
aI0
aI1
aI4
aI0
aI0
aI2
aI1
aI6
aI-14
aa(lp63
V0021200215
p64
aVNOV 28, 2012
p65
aVMIL vs. NYK
p66
aVL
p67
aI29
aI6
aI8
aF0.75
aI2
aI2
aF1.0
aI4
aI4
aF1.0
aI0
aI3
aI3
aI5
aI0
aI0
aI3
aI1
aI18
aI-24
aa(lp68
V0021200230
p69
aVNOV 30, 2012
p70
aVMIL @ MIN
p71
aVL
p72
aI35
aI6
aI19
aF0.316
aI3
aI6
aF0.5
aI3
aI4
aF0.75
aI1
aI5
aI6
aI4
aI1
aI1
aI3
aI1
aI18
aI-6
aa(lp73
V0021200238
p74
aVDEC 01, 2012
p75
aVMIL vs. BOS
p76
aVW
p77
aI40
aI5
aI12
aF0.417
aI3
aI5
aF0.6
aI0
aI0
aF0.0
aI1
aI5
aI6
aI2
aI0
aI0
aI2
aI2
aI13
aI-8
aa(lp78
V0021200247
p79
aVDEC 03, 2012
p80
aVMIL @ NOH
p81
aVL
p82
aI43
aI10
aI23
aF0.435
aI5
aI10
aF0.5
aI0
aI2
aF0.0
aI1
aI1
aI2
aI3
aI1
aI0
aI2
aI1
aI25
aI-18
aa(lp83
V0021200264
p84
aVDEC 05, 2012
p85
aVMIL @ SAS
p86
aVL
p87
aI39
aI5
aI15
aF0.333
aI1
aI2
aF0.5
aI3
aI3
aF1.0
aI0
aI2
aI2
aI4
aI1
aI0
aI2
aI3
aI14
aI-10
aa(lp88
V0021200277
p89
aVDEC 07, 2012
p90
aVMIL vs. CHA
p91
aVW
p92
aI36
aI5
aI16
aF0.313
aI1
aI5
aF0.2
aI4
aI5
aF0.8
aI1
aI1
aI2
aI8
aI3
aI0
aI2
aI0
aI15
aI18
aa(lp93
V0021200293
p94
aVDEC 09, 2012
p95
aVMIL @ BKN
p96
aVW
p97
aI41
aI8
aI19
aF0.421
aI4
aI7
aF0.571
aI6
aI6
aF1.0
aI2
aI4
aI6
aI7
aI5
aI0
aI2
aI2
aI26
aI4
aa(lp98
V0021200316
p99
aVDEC 12, 2012
p100
aVMIL vs. SAC
p101
aVW
p102
aI42
aI8
aI21
aF0.381
aI2
aI8
aF0.25
aI1
aI1
aF1.0
aI3
aI1
aI4
aI3
aI1
aI0
aI2
aI3
aI19
aI9
aa(lp103
V0021200329
p104
aVDEC 14, 2012
p105
aVMIL @ CLE
p106
aVW
p107
aI42
aI5
aI20
aF0.25
aI2
aI9
aF0.222
aI4
aI4
aF1.0
aI1
aI0
aI1
aI8
aI3
aI0
aI3
aI1
aI16
aI3
aa(lp108
V0021200343
p109
aVDEC 15, 2012
p110
aVMIL vs. LAC
p111
aVL
p112
aI31
aI3
aI13
aF0.231
aI1
aI6
aF0.167
aI2
aI2
aF1.0
aI0
aI1
aI1
aI3
aI1
aI0
aI4
aI4
aI9
aI-17
aa(lp113
V0021200361
p114
aVDEC 18, 2012
p115
aVMIL vs. IND
p116
aVW
p117
aI44
aI13
aI22
aF0.591
aI2
aI4
aF0.5
aI6
aI9
aF0.667
aI2
aI3
aI5
aI6
aI0
aI0
aI3
aI4
aI34
aI7
aa(lp118
V0021200374
p119
aVDEC 19, 2012
p120
aVMIL @ MEM
p121
aVL
p122
aI42
aI9
aI26
aF0.346
aI3
aI9
aF0.333
aI5
aI8
aF0.625
aI4
aI3
aI7
aI2
aI1
aI0
aI4
aI1
aI26
aI-22
aa(lp123
V0021200382
p124
aVDEC 21, 2012
p125
aVMIL @ BOS
p126
aVW
p127
aI48
aI4
aI11
aF0.364
aI2
aI5
aF0.4
aI2
aI4
aF0.5
aI4
aI7
aI11
aI8
aI2
aI0
aI7
aI1
aI12
aI7
aa(lp128
V0021200395
p129
aVDEC 22, 2012
p130
aVMIL vs. CLE
p131
aVL
p132
aI38
aI3
aI13
aF0.231
aI1
aI6
aF0.167
aI0
aI0
aF0.0
aI0
aI4
aI4
aI3
aI0
aI0
aI0
aI2
aI7
aI-13
aa(lp133
V0021200415
p134
aVDEC 26, 2012
p135
aVMIL vs. BKN
p136
aVW
p137
aI42
aI9
aI15
aF0.6
aI3
aI4
aF0.75
aI4
aI4
aF1.0
aI1
aI3
aI4
aI6
aI1
aI0
aI5
aI2
aI25
aI14
aa(lp138
V0021200445
p139
aVDEC 29, 2012
p140
aVMIL vs. MIA
p141
aVW
p142
aI42
aI8
aI16
aF0.5
aI2
aI7
aF0.286
aI7
aI7
aF1.0
aI1
aI1
aI2
aI7
aI4
aI0
aI0
aI2
aI25
aI15
aa(lp143
V0021200448
p144
aVDEC 30, 2012
p145
aVMIL @ DET
p146
aVL
p147
aI38
aI3
aI12
aF0.25
aI1
aI4
aF0.25
aI2
aI2
aF1.0
aI1
aI5
aI6
aI4
aI0
aI0
aI1
aI2
aI9
aI4
aa(lp148
V0021200470
p149
aVJAN 02, 2013
p150
aVMIL vs. SAS
p151
aVL
p152
aI44
aI13
aI26
aF0.5
aI1
aI5
aF0.2
aI4
aI4
aF1.0
aI0
aI0
aI0
aI5
aI1
aI2
aI5
aI2
aI31
aI-14
aa(lp153
V0021200486
p154
aVJAN 04, 2013
p155
aVMIL vs. HOU
p156
aVL
p157
aI38
aI6
aI15
aF0.4
aI2
aI3
aF0.667
aI2
aI2
aF1.0
aI0
aI3
aI3
aI7
aI3
aI0
aI4
aI2
aI16
aI-11
aa(lp158
V0021200491
p159
aVJAN 05, 2013
p160
aVMIL @ IND
p161
aVL
p162
aI33
aI4
aI15
aF0.267
aI1
aI5
aF0.2
aI3
aI4
aF0.75
aI0
aI4
aI4
aI5
aI3
aI0
aI2
aI1
aI12
aI-6
aa(lp163
V0021200513
p164
aVJAN 08, 2013
p165
aVMIL vs. PHX
p166
aVW
p167
aI37
aI9
aI15
aF0.6
aI5
aI7
aF0.714
aI6
aI6
aF1.0
aI2
aI1
aI3
aI9
aI1
aI1
aI2
aI3
aI29
aI4
aa(lp168
V0021200520
p169
aVJAN 09, 2013
p170
aVMIL @ CHI
p171
aVW
p172
aI40
aI12
aI24
aF0.5
aI5
aI10
aF0.5
aI6
aI7
aF0.857
aI1
aI5
aI6
aI6
aI1
aI0
aI4
aI3
aI35
aI-1
aa(lp173
V0021200537
p174
aVJAN 11, 2013
p175
aVMIL vs. DET
p176
aVL
p177
aI29
aI5
aI13
aF0.385
aI1
aI4
aF0.25
aI4
aI5
aF0.8
aI1
aI2
aI3
aI1
aI2
aI0
aI0
aI3
aI15
aI-14
aa(lp178
V0021200550
p179
aVJAN 13, 2013
p180
aVMIL @ TOR
p181
aVW
p182
aI32
aI5
aI13
aF0.385
aI2
aI5
aF0.4
aI7
aI7
aF1.0
aI2
aI2
aI4
aI10
aI0
aI0
aI2
aI2
aI19
aI6
aa(lp183
V0021200569
p184
aVJAN 15, 2013
p185
aVMIL @ LAL
p186
aVL
p187
aI29
aI4
aI14
aF0.286
aI1
aI7
aF0.143
aI3
aI3
aF1.0
aI0
aI1
aI1
aI1
aI1
aI0
aI2
aI1
aI12
aI-22
aa(lp188
V0021200582
p189
aVJAN 17, 2013
p190
aVMIL @ PHX
p191
aVW
p192
aI29
aI6
aI14
aF0.429
aI2
aI5
aF0.4
aI2
aI3
aF0.667
aI1
aI4
aI5
aI4
aI0
aI0
aI5
aI0
aI16
aI-3
aa(lp193
V0021200599
p194
aVJAN 19, 2013
p195
aVMIL @ POR
p196
aVW
p197
aI37
aI9
aI20
aF0.45
aI0
aI4
aF0.0
aI12
aI15
aF0.8
aI1
aI1
aI2
aI8
aI3
aI0
aI5
aI0
aI30
aI5
aa(lp198
V0021200616
p199
aVJAN 22, 2013
p200
aVMIL vs. PHI
p201
aVW
p202
aI39
aI8
aI17
aF0.471
aI3
aI6
aF0.5
aI6
aI6
aF1.0
aI1
aI0
aI1
aI7
aI3
aI0
aI4
aI0
aI25
aI9
aa(lp203
V0021200635
p204
aVJAN 25, 2013
p205
aVMIL @ CLE
p206
aVL
p207
aI32
aI5
aI19
aF0.263
aI4
aI10
aF0.4
aI0
aI1
aF0.0
aI1
aI2
aI3
aI12
aI1
aI0
aI3
aI6
aI14
aI-13
aa(lp208
V0021200647
p209
aVJAN 26, 2013
p210
aVMIL vs. GSW
p211
aVW
p212
aI38
aI6
aI15
aF0.4
aI5
aI8
aF0.625
aI3
aI4
aF0.75
aI3
aI3
aI6
aI7
aI0
aI0
aI1
aI2
aI20
aI1
aa(lp213
V0021200667
p214
aVJAN 29, 2013
p215
aVMIL @ DET
p216
aVW
p217
aI30
aI11
aI19
aF0.579
aI5
aI8
aF0.625
aI3
aI6
aF0.5
aI0
aI2
aI2
aI6
aI1
aI0
aI2
aI1
aI30
aI10
aa(lp218
V0021200676
p219
aVJAN 30, 2013
p220
aVMIL vs. CHI
p221
aVL
p222
aI40
aI6
aI18
aF0.333
aI2
aI5
aF0.4
aI1
aI2
aF0.5
aI1
aI1
aI2
aI8
aI1
aI0
aI3
aI5
aI15
aI-7
aa(lp223
V0021200688
p224
aVFEB 01, 2013
p225
aVMIL @ NYK
p226
aVL
p227
aI37
aI5
aI18
aF0.278
aI2
aI6
aF0.333
aI2
aI2
aF1.0
aI0
aI1
aI1
aI6
aI0
aI0
aI2
aI2
aI14
aI-11
aa(lp228
V0021200701
p229
aVFEB 02, 2013
p230
aVMIL vs. ORL
p231
aVW
p232
aI33
aI8
aI16
aF0.5
aI2
aI7
aF0.286
aI2
aI2
aF1.0
aI0
aI1
aI1
aI5
aI1
aI0
aI1
aI1
aI20
aI13
aa(lp233
V0021200719
p234
aVFEB 05, 2013
p235
aVMIL @ DEN
p236
aVL
p237
aI40
aI5
aI15
aF0.333
aI0
aI3
aF0.0
aI2
aI5
aF0.4
aI0
aI2
aI2
aI10
aI3
aI1
aI7
aI2
aI12
aI-7
aa(lp238
V0021200732
p239
aVFEB 06, 2013
p240
aVMIL @ UTA
p241
aVL
p242
aI35
aI5
aI16
aF0.313
aI2
aI4
aF0.5
aI5
aI9
aF0.556
aI1
aI4
aI5
aI4
aI4
aI0
aI3
aI1
aI17
aI-5
aa(lp243
V0021200749
p244
aVFEB 09, 2013
p245
aVMIL vs. DET
p246
aVL
p247
aI38
aI8
aI27
aF0.296
aI4
aI10
aF0.4
aI6
aI6
aF1.0
aI0
aI2
aI2
aI7
aI3
aI0
aI3
aI1
aI26
aI-8
aa(lp248
V0021200767
p249
aVFEB 11, 2013
p250
aVMIL vs. WAS
p251
aVL
p252
aI39
aI3
aI17
aF0.176
aI1
aI7
aF0.143
aI0
aI2
aF0.0
aI0
aI1
aI1
aI7
aI1
aI0
aI1
aI0
aI7
aI-3
aa(lp253
V0021200782
p254
aVFEB 13, 2013
p255
aVMIL vs. PHI
p256
aVW
p257
aI42
aI8
aI21
aF0.381
aI2
aI8
aF0.25
aI3
aI3
aF1.0
aI2
aI2
aI4
aI5
aI4
aI0
aI4
aI1
aI21
aI5
aa(lp258
V0021200791
p259
aVFEB 19, 2013
p260
aVMIL @ BKN
p261
aVL
p262
aI48
aI13
aI26
aF0.5
aI3
aI8
aF0.375
aI5
aI6
aF0.833
aI0
aI6
aI6
aI7
aI0
aI0
aI3
aI3
aI34
aI-3
aa(lp263
V0021200803
p264
aVFEB 20, 2013
p265
aVMIL vs. BKN
p266
aVL
p267
aI42
aI12
aI18
aF0.667
aI4
aI6
aF0.667
aI3
aI3
aF1.0
aI0
aI2
aI2
aI11
aI1
aI0
aI4
aI4
aI31
aI-3
aa(lp268
V0021200828
p269
aVFEB 23, 2013
p270
aVMIL vs. ATL
p271
aVL
p272
aI30
aI4
aI11
aF0.364
aI1
aI4
aF0.25
aI2
aI2
aF1.0
aI1
aI1
aI2
aI5
aI1
aI0
aI2
aI3
aI11
aI-10
aa(lp273
V0021200848
p274
aVFEB 26, 2013
p275
aVMIL @ DAL
p276
aVW
p277
aI32
aI3
aI11
aF0.273
aI0
aI1
aF0.0
aI2
aI2
aF1.0
aI0
aI3
aI3
aI6
aI0
aI0
aI2
aI2
aI8
aI-5
aa(lp278
V0021200856
p279
aVFEB 27, 2013
p280
aVMIL @ HOU
p281
aVW
p282
aI30
aI3
aI8
aF0.375
aI2
aI5
aF0.4
aI0
aI0
aF0.0
aI0
aI4
aI4
aI6
aI0
aI0
aI1
aI4
aI8
aI1
aa(lp283
V0021200878
p284
aVMAR 02, 2013
p285
aVMIL vs. TOR
p286
aVW
p287
aI45
aI3
aI12
aF0.25
aI1
aI2
aF0.5
aI4
aI4
aF1.0
aI0
aI5
aI5
aI19
aI1
aI1
aI3
aI0
aI11
aI22
aa(lp288
V0021200890
p289
aVMAR 04, 2013
p290
aVMIL vs. UTA
p291
aVW
p292
aI47
aI8
aI14
aF0.571
aI4
aI5
aF0.8
aI0
aI0
aF0.0
aI0
aI1
aI1
aI17
aI3
aI0
aI3
aI2
aI20
aI4
aa(lp293
V0021200911
p294
aVMAR 06, 2013
p295
aVMIL @ LAC
p296
aVL
p297
aI39
aI6
aI12
aF0.5
aI5
aI10
aF0.5
aI1
aI1
aF1.0
aI0
aI1
aI1
aI12
aI1
aI0
aI1
aI4
aI18
aI-7
aa(lp298
V0021200933
p299
aVMAR 09, 2013
p300
aVMIL @ GSW
p301
aVW
p302
aI43
aI10
aI16
aF0.625
aI6
aI11
aF0.545
aI5
aI6
aF0.833
aI0
aI3
aI3
aI10
aI1
aI0
aI5
aI2
aI31
aI11
aa(lp303
V0021200941
p304
aVMAR 10, 2013
p305
aVMIL @ SAC
p306
aVW
p307
aI37
aI4
aI11
aF0.364
aI1
aI4
aF0.25
aI7
aI8
aF0.875
aI1
aI0
aI1
aI8
aI0
aI0
aI1
aI3
aI16
aI-8
aa(lp308
V0021200953
p309
aVMAR 12, 2013
p310
aVMIL vs. DAL
p311
aVL
p312
aI27
aI2
aI7
aF0.286
aI0
aI1
aF0.0
aI0
aI0
aF0.0
aI0
aI5
aI5
aI5
aI0
aI0
aI2
aI4
aI4
aI-21
aa(lp313
V0021200957
p314
aVMAR 13, 2013
p315
aVMIL @ WAS
p316
aVL
p317
aI41
aI2
aI8
aF0.25
aI0
aI3
aF0.0
aI4
aI4
aF1.0
aI0
aI3
aI3
aI10
aI2
aI0
aI2
aI1
aI8
aI-14
aa(lp318
V0021200975
p319
aVMAR 15, 2013
p320
aVMIL vs. MIA
p321
aVL
p322
aI41
aI6
aI15
aF0.4
aI3
aI7
aF0.429
aI6
aI7
aF0.857
aI2
aI3
aI5
aI6
aI0
aI1
aI4
aI0
aI21
aI-12
aa(lp323
V0021200986
p324
aVMAR 17, 2013
p325
aVMIL vs. ORL
p326
aVW
p327
aI44
aI4
aI15
aF0.267
aI3
aI8
aF0.375
aI4
aI5
aF0.8
aI1
aI1
aI2
aI14
aI2
aI0
aI1
aI4
aI15
aI3
aa(lp328
V0021201005
p329
aVMAR 19, 2013
p330
aVMIL vs. POR
p331
aVW
p332
aI39
aI9
aI20
aF0.45
aI4
aI7
aF0.571
aI2
aI2
aF1.0
aI0
aI4
aI4
aI7
aI0
aI1
aI6
aI2
aI24
aI-3
aa(lp333
V0021201011
p334
aVMAR 20, 2013
p335
aVMIL @ ATL
p336
aVL
p337
aI39
aI8
aI18
aF0.444
aI3
aI6
aF0.5
aI2
aI3
aF0.667
aI0
aI1
aI1
aI5
aI1
aI0
aI4
aI3
aI21
aI-8
aa(lp338
V0021201024
p339
aVMAR 22, 2013
p340
aVMIL @ IND
p341
aVL
p342
aI31
aI1
aI15
aF0.067
aI0
aI7
aF0.0
aI2
aI3
aF0.667
aI0
aI2
aI2
aI3
aI1
aI0
aI3
aI2
aI4
aI-22
aa(lp343
V0021201040
p344
aVMAR 24, 2013
p345
aVMIL vs. ATL
p346
aVL
p347
aI43
aI4
aI15
aF0.267
aI1
aI5
aF0.2
aI3
aI5
aF0.6
aI1
aI2
aI3
aI13
aI3
aI0
aI3
aI3
aI12
aI0
aa(lp348
V0021201058
p349
aVMAR 27, 2013
p350
aVMIL @ PHI
p351
aVL
p352
aI17
aI0
aI3
aF0.0
aI0
aI2
aF0.0
aI0
aI0
aF0.0
aI0
aI0
aI0
aI3
aI1
aI0
aI0
aI2
aI0
aI-25
aa(lp353
V0021201071
p354
aVMAR 28, 2013
p355
aVMIL vs. LAL
p356
aVW
p357
aI32
aI7
aI14
aF0.5
aI3
aI6
aF0.5
aI3
aI3
aF1.0
aI1
aI1
aI2
aI7
aI0
aI0
aI2
aI1
aI20
aI11
aa(lp358
V0021201090
p359
aVMAR 30, 2013
p360
aVMIL vs. OKC
p361
aVL
p362
aI38
aI3
aI13
aF0.231
aI2
aI8
aF0.25
aI0
aI0
aF0.0
aI0
aI1
aI1
aI4
aI0
aI0
aI2
aI2
aI8
aI-21
aa(lp363
V0021201102
p364
aVAPR 01, 2013
p365
aVMIL vs. CHA
p366
aVW
p367
aI24
aI6
aI15
aF0.4
aI4
aI9
aF0.444
aI3
aI3
aF1.0
aI0
aI3
aI3
aI6
aI0
aI0
aI1
aI1
aI19
aI8
aa(lp368
V0021201116
p369
aVAPR 03, 2013
p370
aVMIL vs. MIN
p371
aVL
p372
aI36
aI6
aI14
aF0.429
aI0
aI4
aF0.0
aI1
aI1
aF1.0
aI1
aI2
aI3
aI8
aI3
aI0
aI3
aI1
aI13
aI-11
aa(lp373
V0021201128
p374
aVAPR 05, 2013
p375
aVMIL @ NYK
p376
aVL
p377
aI37
aI9
aI20
aF0.45
aI4
aI10
aF0.4
aI3
aI5
aF0.6
aI2
aI2
aI4
aI3
aI1
aI0
aI2
aI1
aI25
aI-22
aa(lp378
V0021201142
p379
aVAPR 06, 2013
p380
aVMIL vs. TOR
p381
aVW
p382
aI28
aI7
aI14
aF0.5
aI2
aI4
aF0.5
aI0
aI1
aF0.0
aI1
aI1
aI2
aI7
aI3
aI0
aI0
aI1
aI16
aI21
aa(lp383
V0021201157
p384
aVAPR 09, 2013
p385
aVMIL @ MIA
p386
aVL
p387
aI36
aI10
aI16
aF0.625
aI4
aI9
aF0.444
aI6
aI6
aF1.0
aI0
aI3
aI3
aI4
aI1
aI0
aI4
aI5
aI30
aI-24
aa(lp388
V0021201166
p389
aVAPR 10, 2013
p390
aVMIL @ ORL
p391
aVL
p392
aI6
aI1
aI2
aF0.5
aI1
aI2
aF0.5
aI0
aI0
aF0.0
aI0
aI0
aI0
aI0
aI0
aI0
aI0
aI0
aI3
aI-8
aa(lp393
V0021201207
p394
aVAPR 15, 2013
p395
aVMIL vs. DEN
p396
aVL
p397
aI29
aI1
aI11
aF0.091
aI0
aI5
aF0.0
aI2
aI2
aF1.0
aI2
aI1
aI3
aI4
aI0
aI0
aI1
aI3
aI4
aI-16
aa(lp398
V0021201226
p399
aVAPR 17, 2013
p400
aVMIL @ OKC
p401
aVW
p402
aI23
aI6
aI14
aF0.429
aI5
aI8
aF0.625
aI0
aI0
aF0.0
aI0
aI2
aI2
aI2
aI0
aI0
aI2
aI2
aI17
aI-10
aasS'name'
p403
VBrandon Jennings
p404
sS'weight'
p405
V169
p406
sS'age'
p407
I23
sS'experience'
p408
I3
sS'height'
p409
V6-1
p410
sS'position'
p411
VGuard
p412
s.