(dp0
S'stats'
p1
(lp2
(lp3
V0021201219
p4
aVAPR 17, 2013
p5
aVCLE @ CHA
p6
aVL
p7
aI24
aI3
aI6
aF0.5
aI2
aI4
aF0.5
aI0
aI0
aF0.0
aI0
aI9
aI9
aI3
aI4
aI0
aI1
aI6
aI8
aI12
aI1
aa(lp8
V0021201204
p9
aVAPR 15, 2013
p10
aVCLE vs. MIA
p11
aVL
p12
aI11
aI0
aI0
aF0.0
aI0
aI0
aF0.0
aI0
aI2
aF0.0
aI0
aI1
aI1
aI0
aI1
aI0
aI0
aI2
aI0
aI5
aI1
aa(lp13
V0021201197
p14
aVAPR 14, 2013
p15
aVCLE @ PHI
p16
aVL
p17
aI24
aI2
aI3
aF0.667
aI1
aI1
aF1.0
aI4
aI7
aF0.571
aI0
aI5
aI5
aI2
aI3
aI1
aI1
aI2
aI9
aI3
aI1
aa(lp18
V0021201182
p19
aVAPR 12, 2013
p20
aVCLE vs. NYK
p21
aVL
p22
aI22
aI4
aI10
aF0.4
aI0
aI4
aF0.0
aI1
aI1
aF1.0
aI1
aI5
aI6
aI2
aI2
aI1
aI0
aI3
aI9
aI-17
aI1
aa(lp23
V0021201167
p24
aVAPR 10, 2013
p25
aVCLE vs. DET
p26
aVL
p27
aI17
aI3
aI7
aF0.429
aI1
aI2
aF0.5
aI2
aI2
aF1.0
aI1
aI5
aI6
aI0
aI0
aI2
aI0
aI3
aI9
aI1
aI1
aa(lp28
V0021201154
p29
aVAPR 09, 2013
p30
aVCLE @ IND
p31
aVL
p32
aI17
aI3
aI4
aF0.75
aI0
aI0
aF0.0
aI0
aI0
aF0.0
aI2
aI5
aI7
aI2
aI1
aI1
aI2
aI1
aI6
aI-3
aI1
aa(lp33
V0021201148
p34
aVAPR 07, 2013
p35
aVCLE vs. ORL
p36
aVW
p37
aI8
aI1
aI2
aF0.5
aI0
aI1
aF0.0
aI0
aI0
aF0.0
aI1
aI5
aI6
aI0
aI0
aI0
aI0
aI0
aI2
aI11
aI1
aa(lp38
V0021201127
p39
aVAPR 05, 2013
p40
aVCLE @ BOS
p41
aVW
p42
aI0
aI0
aI0
aF0.0
aI0
aI0
aF0.0
aI0
aI0
aF0.0
aI0
aI0
aI0
aI0
aI0
aI0
aI0
aI0
aI0
aI0
aI1
aa(lp43
V0021201114
p44
aVAPR 03, 2013
p45
aVCLE vs. BKN
p46
aVL
p47
aI6
aI2
aI5
aF0.4
aI0
aI2
aF0.0
aI0
aI0
aF0.0
aI0
aI0
aI0
aI0
aI1
aI0
aI0
aI0
aI4
aI4
aI1
aa(lp48
V0021201101
p49
aVAPR 01, 2013
p50
aVCLE @ ATL
p51
aVL
p52
aI17
aI4
aI6
aF0.667
aI1
aI3
aF0.333
aI0
aI2
aF0.0
aI0
aI4
aI4
aI4
aI1
aI0
aI1
aI2
aI9
aI-1
aI1
aa(lp53
V0021201096
p54
aVMAR 31, 2013
p55
aVCLE @ NOH
p56
aVL
p57
aI9
aI0
aI1
aF0.0
aI0
aI0
aF0.0
aI0
aI0
aF0.0
aI0
aI1
aI1
aI1
aI0
aI1
aI0
aI0
aI0
aI-12
aI1
aa(lp58
V0021201028
p59
aVMAR 22, 2013
p60
aVCLE @ HOU
p61
aVL
p62
aI7
aI0
aI3
aF0.0
aI0
aI1
aF0.0
aI0
aI0
aF0.0
aI1
aI0
aI1
aI0
aI0
aI0
aI1
aI0
aI0
aI-11
aI1
aa(lp63
V0021201009
p64
aVMAR 20, 2013
p65
aVCLE vs. MIA
p66
aVL
p67
aI4
aI0
aI1
aF0.0
aI0
aI1
aF0.0
aI0
aI0
aF0.0
aI0
aI1
aI1
aI1
aI0
aI0
aI2
aI0
aI0
aI-5
aI1
aa(lp68
V0021200995
p69
aVMAR 18, 2013
p70
aVCLE vs. IND
p71
aVL
p72
aI5
aI1
aI3
aF0.333
aI0
aI1
aF0.0
aI0
aI0
aF0.0
aI0
aI3
aI3
aI0
aI0
aI0
aI0
aI0
aI2
aI3
aI1
aa(lp73
V0021200724
p74
aVFEB 06, 2013
p75
aVCLE vs. CHA
p76
aVW
p77
aI6
aI0
aI2
aF0.0
aI0
aI1
aF0.0
aI0
aI0
aF0.0
aI0
aI0
aI0
aI0
aI0
aI0
aI0
aI2
aI0
aI1
aI1
aa(lp78
V0021200690
p79
aVFEB 01, 2013
p80
aVCLE @ DET
p81
aVL
p82
aI1
aI0
aI1
aF0.0
aI0
aI1
aF0.0
aI0
aI0
aF0.0
aI0
aI0
aI0
aI0
aI0
aI0
aI0
aI0
aI0
aI-2
aI1
aa(lp83
V0021200635
p84
aVJAN 25, 2013
p85
aVCLE vs. MIL
p86
aVW
p87
aI6
aI0
aI1
aF0.0
aI0
aI0
aF0.0
aI0
aI0
aF0.0
aI0
aI1
aI1
aI0
aI1
aI0
aI1
aI0
aI0
aI-5
aI1
aa(lp88
V0021200614
p89
aVJAN 22, 2013
p90
aVCLE vs. BOS
p91
aVW
p92
aI10
aI1
aI3
aF0.333
aI0
aI1
aF0.0
aI0
aI0
aF0.0
aI0
aI3
aI3
aI0
aI0
aI1
aI1
aI2
aI2
aI-6
aI1
aa(lp93
V0021200598
p94
aVJAN 19, 2013
p95
aVCLE @ UTA
p96
aVL
p97
aI1
aI0
aI0
aF0.0
aI0
aI0
aF0.0
aI0
aI0
aF0.0
aI0
aI0
aI0
aI0
aI0
aI0
aI0
aI0
aI0
aI2
aI1
aa(lp98
V0021200578
p99
aVJAN 16, 2013
p100
aVCLE @ POR
p101
aVW
p102
aI6
aI0
aI1
aF0.0
aI0
aI1
aF0.0
aI0
aI0
aF0.0
aI0
aI1
aI1
aI1
aI0
aI0
aI0
aI0
aI0
aI12
aI1
aa(lp103
V0021200563
p104
aVJAN 14, 2013
p105
aVCLE @ SAC
p106
aVL
p107
aI11
aI4
aI5
aF0.8
aI0
aI1
aF0.0
aI2
aI2
aF1.0
aI2
aI2
aI4
aI0
aI0
aI0
aI0
aI2
aI10
aI-2
aI1
aa(lp108
V0021200555
p109
aVJAN 13, 2013
p110
aVCLE @ LAL
p111
aVL
p112
aI9
aI0
aI4
aF0.0
aI0
aI2
aF0.0
aI0
aI0
aF0.0
aI2
aI4
aI6
aI1
aI0
aI0
aI0
aI0
aI0
aI-3
aI1
aa(lp113
V0021200518
p114
aVJAN 09, 2013
p115
aVCLE vs. ATL
p116
aVW
p117
aI14
aI2
aI8
aF0.25
aI1
aI5
aF0.2
aI0
aI0
aF0.0
aI0
aI2
aI2
aI1
aI0
aI0
aI0
aI0
aI5
aI3
aI1
aa(lp118
V0021200506
p119
aVJAN 07, 2013
p120
aVCLE @ CHI
p121
aVL
p122
aI16
aI2
aI5
aF0.4
aI0
aI1
aF0.0
aI0
aI0
aF0.0
aI0
aI0
aI0
aI1
aI1
aI0
aI0
aI1
aI4
aI-15
aI0
aa(lp123
V0021200385
p124
aVDEC 21, 2012
p125
aVCLE vs. IND
p126
aVL
p127
aI1
aI0
aI0
aF0.0
aI0
aI0
aF0.0
aI0
aI0
aF0.0
aI0
aI1
aI1
aI0
aI0
aI0
aI0
aI0
aI0
aI7
aI1
aa(lp128
V0021200305
p129
aVDEC 11, 2012
p130
aVCLE vs. LAL
p131
aVW
p132
aI12
aI0
aI3
aF0.0
aI0
aI1
aF0.0
aI0
aI2
aF0.0
aI0
aI1
aI1
aI1
aI0
aI0
aI0
aI2
aI0
aI0
aI1
aa(lp133
V0021200287
p134
aVDEC 08, 2012
p135
aVCLE vs. DET
p136
aVL
p137
aI10
aI0
aI3
aF0.0
aI0
aI2
aF0.0
aI0
aI0
aF0.0
aI0
aI2
aI2
aI1
aI0
aI0
aI1
aI0
aI0
aI-1
aI1
aa(lp138
V0021200276
p139
aVDEC 07, 2012
p140
aVCLE @ MIN
p141
aVL
p142
aI15
aI2
aI6
aF0.333
aI1
aI3
aF0.333
aI0
aI0
aF0.0
aI1
aI3
aI4
aI1
aI2
aI0
aI1
aI0
aI5
aI-3
aI1
aa(lp143
V0021200262
p144
aVDEC 05, 2012
p145
aVCLE vs. CHI
p146
aVL
p147
aI18
aI0
aI2
aF0.0
aI0
aI1
aF0.0
aI1
aI4
aF0.25
aI0
aI4
aI4
aI1
aI0
aI0
aI0
aI1
aI1
aI2
aI1
aa(lp148
V0021200246
p149
aVDEC 03, 2012
p150
aVCLE @ DET
p151
aVL
p152
aI28
aI4
aI11
aF0.364
aI2
aI5
aF0.4
aI0
aI0
aF0.0
aI1
aI3
aI4
aI1
aI0
aI1
aI1
aI2
aI10
aI-9
aI1
aa(lp153
V0021200234
p154
aVDEC 01, 2012
p155
aVCLE vs. POR
p156
aVL
p157
aI20
aI4
aI9
aF0.444
aI3
aI6
aF0.5
aI0
aI1
aF0.0
aI2
aI4
aI6
aI1
aI0
aI0
aI1
aI1
aI11
aI2
aI1
aa(lp158
V0021200227
p159
aVNOV 30, 2012
p160
aVCLE @ ATL
p161
aVW
p162
aI13
aI3
aI5
aF0.6
aI2
aI3
aF0.667
aI0
aI0
aF0.0
aI1
aI2
aI3
aI1
aI2
aI0
aI0
aI1
aI8
aI-10
aI1
aa(lp163
V0021200205
p164
aVNOV 27, 2012
p165
aVCLE vs. PHX
p166
aVL
p167
aI13
aI2
aI4
aF0.5
aI1
aI2
aF0.5
aI0
aI0
aF0.0
aI0
aI2
aI2
aI0
aI0
aI1
aI1
aI1
aI5
aI-14
aI1
aa(lp168
V0021200200
p169
aVNOV 26, 2012
p170
aVCLE @ MEM
p171
aVL
p172
aI15
aI1
aI3
aF0.333
aI0
aI2
aF0.0
aI0
aI0
aF0.0
aI0
aI1
aI1
aI0
aI0
aI1
aI0
aI2
aI2
aI4
aI1
aa(lp173
V0021200186
p174
aVNOV 24, 2012
p175
aVCLE @ MIA
p176
aVL
p177
aI15
aI4
aI6
aF0.667
aI4
aI4
aF1.0
aI3
aI4
aF0.75
aI0
aI1
aI1
aI1
aI1
aI0
aI0
aI3
aI15
aI13
aI1
aa(lp178
V0021200172
p179
aVNOV 23, 2012
p180
aVCLE @ ORL
p181
aVL
p182
aI18
aI4
aI7
aF0.571
aI2
aI3
aF0.667
aI1
aI2
aF0.5
aI1
aI0
aI1
aI0
aI2
aI0
aI1
aI0
aI11
aI8
aI1
aa(lp183
V0021200159
p184
aVNOV 21, 2012
p185
aVCLE vs. PHI
p186
aVW
p187
aI16
aI2
aI3
aF0.667
aI0
aI0
aF0.0
aI1
aI2
aF0.5
aI0
aI1
aI1
aI0
aI0
aI1
aI1
aI1
aI5
aI2
aI1
aa(lp188
V0021200141
p189
aVNOV 18, 2012
p190
aVCLE @ PHI
p191
aVL
p192
aI13
aI1
aI3
aF0.333
aI1
aI2
aF0.5
aI2
aI2
aF1.0
aI0
aI2
aI2
aI0
aI0
aI1
aI1
aI1
aI5
aI-7
aI1
aa(lp193
V0021200135
p194
aVNOV 17, 2012
p195
aVCLE vs. DAL
p196
aVL
p197
aI13
aI2
aI4
aF0.5
aI1
aI2
aF0.5
aI0
aI0
aF0.0
aI1
aI4
aI5
aI1
aI1
aI0
aI1
aI1
aI5
aI-4
aI1
aa(lp198
V0021200106
p199
aVNOV 13, 2012
p200
aVCLE @ BKN
p201
aVL
p202
aI3
aI0
aI0
aF0.0
aI0
aI0
aF0.0
aI0
aI0
aF0.0
aI0
aI0
aI0
aI0
aI0
aI0
aI1
aI1
aI0
aI-8
aI1
aa(lp203
V0021200093
p204
aVNOV 11, 2012
p205
aVCLE @ OKC
p206
aVL
p207
aI14
aI1
aI7
aF0.143
aI1
aI4
aF0.25
aI4
aI4
aF1.0
aI1
aI3
aI4
aI0
aI2
aI0
aI1
aI2
aI7
aI-4
aI1
aa(lp208
V0021200065
p209
aVNOV 07, 2012
p210
aVCLE @ GSW
p211
aVL
p212
aI10
aI0
aI1
aF0.0
aI0
aI1
aF0.0
aI0
aI0
aF0.0
aI2
aI3
aI5
aI0
aI0
aI0
aI1
aI0
aI0
aI7
aI1
aa(lp213
V0021200019
p214
aVNOV 02, 2012
p215
aVCLE vs. CHI
p216
aVL
p217
aI7
aI1
aI2
aF0.5
aI1
aI2
aF0.5
aI1
aI4
aF0.25
aI0
aI0
aI0
aI0
aI0
aI0
aI0
aI0
aI4
aI-8
aI1
aasS'name'
p218
VOmri Casspi
p219
s.