(dp0
S'stats'
p1
(lp2
(lp3
V0021200567
p4
aVJAN 15, 2013
p5
aVHOU vs. LAC
p6
aVL
p7
aI2
aI1
aI1
aF1.0
aI1
aI1
aF1.0
aI0
aI0
aF0.0
aI0
aI0
aI0
aI1
aI1
aI0
aI0
aI0
aI3
aI6
aa(lp8
V0021200575
p9
aVJAN 16, 2013
p10
aVHOU @ DAL
p11
aVL
p12
aI13
aI3
aI3
aF1.0
aI1
aI1
aF1.0
aI0
aI0
aF0.0
aI0
aI1
aI1
aI2
aI0
aI1
aI1
aI3
aI7
aI3
aa(lp13
V0021200587
p14
aVJAN 18, 2013
p15
aVHOU @ IND
p16
aVL
p17
aI17
aI3
aI8
aF0.375
aI2
aI2
aF1.0
aI0
aI0
aF0.0
aI0
aI3
aI3
aI2
aI3
aI1
aI1
aI1
aI8
aI3
aa(lp18
V0021200597
p19
aVJAN 19, 2013
p20
aVHOU @ MIN
p21
aVL
p22
aI17
aI0
aI4
aF0.0
aI0
aI3
aF0.0
aI2
aI4
aF0.5
aI3
aI0
aI3
aI2
aI0
aI0
aI3
aI5
aI2
aI3
aa(lp23
V0021200607
p24
aVJAN 21, 2013
p25
aVHOU @ CHA
p26
aVW
p27
aI24
aI3
aI6
aF0.5
aI2
aI5
aF0.4
aI2
aI3
aF0.667
aI2
aI1
aI3
aI2
aI0
aI0
aI2
aI3
aI10
aI17
aa(lp28
V0021200622
p29
aVJAN 23, 2013
p30
aVHOU vs. DEN
p31
aVL
p32
aI13
aI0
aI3
aF0.0
aI0
aI3
aF0.0
aI0
aI0
aF0.0
aI1
aI2
aI3
aI5
aI2
aI1
aI1
aI0
aI0
aI3
aa(lp33
V0021200638
p34
aVJAN 25, 2013
p35
aVHOU @ NOH
p36
aVW
p37
aI1
aI0
aI1
aF0.0
aI0
aI0
aF0.0
aI2
aI2
aF1.0
aI0
aI0
aI0
aI0
aI0
aI0
aI0
aI0
aI2
aI2
aa(lp38
V0021200646
p39
aVJAN 26, 2013
p40
aVHOU vs. BKN
p41
aVW
p42
aI1
aI0
aI2
aF0.0
aI0
aI1
aF0.0
aI0
aI0
aF0.0
aI0
aI0
aI0
aI0
aI0
aI0
aI0
aI0
aI0
aI-3
aa(lp43
V0021200665
p44
aVJAN 28, 2013
p45
aVHOU @ UTA
p46
aVW
p47
aI12
aI1
aI1
aF1.0
aI1
aI1
aF1.0
aI0
aI0
aF0.0
aI1
aI0
aI1
aI3
aI2
aI1
aI0
aI1
aI3
aI11
aa(lp48
V0021200718
p49
aVFEB 05, 2013
p50
aVHOU vs. GSW
p51
aVW
p52
aI6
aI2
aI3
aF0.667
aI1
aI2
aF0.5
aI6
aI8
aF0.75
aI0
aI0
aI0
aI1
aI0
aI0
aI0
aI0
aI11
aI8
aa(lp53
V0021200743
p54
aVFEB 08, 2013
p55
aVHOU vs. POR
p56
aVW
p57
aI20
aI0
aI2
aF0.0
aI0
aI2
aF0.0
aI2
aI2
aF1.0
aI0
aI4
aI4
aI6
aI2
aI0
aI1
aI2
aI2
aI4
aa(lp58
V0021200760
p59
aVFEB 10, 2013
p60
aVHOU @ SAC
p61
aVL
p62
aI19
aI3
aI6
aF0.5
aI0
aI2
aF0.0
aI0
aI0
aF0.0
aI3
aI2
aI5
aI8
aI0
aI1
aI2
aI3
aI6
aI-5
aa(lp63
V0021200774
p64
aVFEB 12, 2013
p65
aVHOU @ GSW
p66
aVW
p67
aI19
aI3
aI6
aF0.5
aI1
aI4
aF0.25
aI0
aI0
aF0.0
aI1
aI2
aI3
aI5
aI2
aI0
aI0
aI4
aI7
aI5
aa(lp68
V0021200786
p69
aVFEB 13, 2013
p70
aVHOU @ LAC
p71
aVL
p72
aI25
aI2
aI6
aF0.333
aI1
aI2
aF0.5
aI0
aI0
aF0.0
aI2
aI3
aI5
aI2
aI2
aI0
aI3
aI4
aI5
aI2
aa(lp73
V0021200804
p74
aVFEB 20, 2013
p75
aVHOU vs. OKC
p76
aVW
p77
aI18
aI0
aI4
aF0.0
aI0
aI2
aF0.0
aI0
aI0
aF0.0
aI0
aI1
aI1
aI1
aI2
aI1
aI1
aI1
aI0
aI-11
aa(lp78
V0021200815
p79
aVFEB 22, 2013
p80
aVHOU @ BKN
p81
aVW
p82
aI14
aI3
aI5
aF0.6
aI3
aI4
aF0.75
aI0
aI0
aF0.0
aI0
aI1
aI1
aI2
aI0
aI1
aI0
aI3
aI9
aI9
aa(lp83
V0021200823
p84
aVFEB 23, 2013
p85
aVHOU @ WAS
p86
aVL
p87
aI22
aI6
aI9
aF0.667
aI3
aI5
aF0.6
aI0
aI0
aF0.0
aI2
aI2
aI4
aI3
aI0
aI0
aI2
aI2
aI15
aI9
aa(lp88
V0021200856
p89
aVFEB 27, 2013
p90
aVHOU vs. MIL
p91
aVL
p92
aI19
aI1
aI3
aF0.333
aI1
aI2
aF0.5
aI0
aI0
aF0.0
aI1
aI2
aI3
aI2
aI1
aI0
aI0
aI2
aI3
aI-4
aa(lp93
V0021200866
p94
aVMAR 01, 2013
p95
aVHOU @ ORL
p96
aVW
p97
aI22
aI5
aI7
aF0.714
aI3
aI4
aF0.75
aI0
aI0
aF0.0
aI0
aI2
aI2
aI6
aI3
aI0
aI1
aI1
aI13
aI8
aa(lp98
V0021200885
p99
aVMAR 03, 2013
p100
aVHOU vs. DAL
p101
aVW
p102
aI23
aI2
aI5
aF0.4
aI0
aI1
aF0.0
aI5
aI6
aF0.833
aI4
aI3
aI7
aI3
aI1
aI0
aI2
aI3
aI9
aI7
aa(lp103
V0021200908
p104
aVMAR 06, 2013
p105
aVHOU @ DAL
p106
aVL
p107
aI23
aI0
aI2
aF0.0
aI0
aI0
aF0.0
aI0
aI0
aF0.0
aI2
aI1
aI3
aI7
aI1
aI1
aI2
aI2
aI0
aI3
aa(lp108
V0021200926
p109
aVMAR 08, 2013
p110
aVHOU @ GSW
p111
aVW
p112
aI11
aI0
aI2
aF0.0
aI0
aI1
aF0.0
aI0
aI0
aF0.0
aI1
aI0
aI1
aI1
aI0
aI0
aI0
aI3
aI0
aI-5
aa(lp113
V0021200932
p114
aVMAR 09, 2013
p115
aVHOU @ PHX
p116
aVL
p117
aI17
aI0
aI4
aF0.0
aI0
aI2
aF0.0
aI0
aI0
aF0.0
aI3
aI0
aI3
aI5
aI1
aI0
aI1
aI1
aI0
aI-1
aa(lp118
V0021200961
p119
aVMAR 13, 2013
p120
aVHOU vs. PHX
p121
aVW
p122
aI22
aI2
aI7
aF0.286
aI2
aI4
aF0.5
aI0
aI0
aF0.0
aI1
aI2
aI3
aI4
aI3
aI0
aI1
aI0
aI6
aI5
aa(lp123
V0021200973
p124
aVMAR 15, 2013
p125
aVHOU vs. MIN
p126
aVW
p127
aI9
aI0
aI0
aF0.0
aI0
aI0
aF0.0
aI0
aI0
aF0.0
aI1
aI0
aI1
aI1
aI0
aI0
aI0
aI2
aI0
aI2
aa(lp128
V0021200988
p129
aVMAR 17, 2013
p130
aVHOU vs. GSW
p131
aVL
p132
aI13
aI0
aI4
aF0.0
aI0
aI3
aF0.0
aI0
aI0
aF0.0
aI1
aI2
aI3
aI0
aI0
aI0
aI2
aI1
aI0
aI-15
aa(lp133
V0021201014
p134
aVMAR 20, 2013
p135
aVHOU vs. UTA
p136
aVW
p137
aI18
aI3
aI6
aF0.5
aI1
aI2
aF0.5
aI0
aI0
aF0.0
aI1
aI1
aI2
aI2
aI3
aI1
aI2
aI2
aI7
aI10
aa(lp138
V0021201028
p139
aVMAR 22, 2013
p140
aVHOU vs. CLE
p141
aVW
p142
aI21
aI4
aI7
aF0.571
aI1
aI2
aF0.5
aI2
aI2
aF1.0
aI0
aI4
aI4
aI5
aI1
aI1
aI2
aI2
aI11
aI26
aa(lp143
V0021201042
p144
aVMAR 24, 2013
p145
aVHOU vs. SAS
p146
aVW
p147
aI24
aI4
aI6
aF0.667
aI2
aI3
aF0.667
aI1
aI2
aF0.5
aI1
aI2
aI3
aI2
aI1
aI1
aI0
aI5
aI11
aI14
aa(lp148
V0021201064
p149
aVMAR 27, 2013
p150
aVHOU vs. IND
p151
aVL
p152
aI28
aI3
aI6
aF0.5
aI1
aI3
aF0.333
aI2
aI2
aF1.0
aI1
aI2
aI3
aI1
aI0
aI1
aI1
aI1
aI9
aI4
aa(lp153
V0021201079
p154
aVMAR 29, 2013
p155
aVHOU @ MEM
p156
aVL
p157
aI25
aI2
aI7
aF0.286
aI1
aI4
aF0.25
aI4
aI4
aF1.0
aI3
aI2
aI5
aI3
aI1
aI2
aI3
aI2
aI9
aI5
aa(lp158
V0021201088
p159
aVMAR 30, 2013
p160
aVHOU vs. LAC
p161
aVW
p162
aI17
aI3
aI7
aF0.429
aI1
aI3
aF0.333
aI2
aI2
aF1.0
aI2
aI2
aI4
aI3
aI0
aI0
aI1
aI4
aI9
aI5
aa(lp163
V0021201104
p164
aVAPR 01, 2013
p165
aVHOU vs. ORL
p166
aVW
p167
aI22
aI2
aI8
aF0.25
aI1
aI2
aF0.5
aI0
aI0
aF0.0
aI2
aI1
aI3
aI2
aI0
aI1
aI0
aI2
aI5
aI-12
aa(lp168
V0021201119
p169
aVAPR 03, 2013
p170
aVHOU @ SAC
p171
aVW
p172
aI14
aI1
aI5
aF0.2
aI0
aI3
aF0.0
aI0
aI0
aF0.0
aI1
aI1
aI2
aI5
aI0
aI1
aI2
aI2
aI2
aI-7
aa(lp173
V0021201136
p174
aVAPR 05, 2013
p175
aVHOU @ POR
p176
aVW
p177
aI22
aI3
aI3
aF1.0
aI1
aI1
aF1.0
aI0
aI0
aF0.0
aI1
aI1
aI2
aI6
aI1
aI1
aI0
aI0
aI7
aI15
aa(lp178
V0021201144
p179
aVAPR 06, 2013
p180
aVHOU @ DEN
p181
aVL
p182
aI22
aI3
aI3
aF1.0
aI1
aI1
aF1.0
aI0
aI0
aF0.0
aI0
aI3
aI3
aI9
aI0
aI1
aI2
aI1
aI7
aI-8
aa(lp183
V0021201160
p184
aVAPR 09, 2013
p185
aVHOU vs. PHX
p186
aVW
p187
aI20
aI4
aI10
aF0.4
aI1
aI5
aF0.2
aI0
aI0
aF0.0
aI1
aI0
aI1
aI2
aI1
aI1
aI1
aI2
aI9
aI-3
aa(lp188
V0021201184
p189
aVAPR 12, 2013
p190
aVHOU vs. MEM
p191
aVL
p192
aI23
aI1
aI3
aF0.333
aI1
aI3
aF0.333
aI0
aI0
aF0.0
aI0
aI4
aI4
aI1
aI0
aI0
aI1
aI5
aI3
aI3
aa(lp193
V0021201200
p194
aVAPR 14, 2013
p195
aVHOU vs. SAC
p196
aVW
p197
aI17
aI2
aI5
aF0.4
aI1
aI3
aF0.333
aI2
aI2
aF1.0
aI0
aI2
aI2
aI0
aI2
aI1
aI3
aI3
aI7
aI2
aa(lp198
V0021201211
p199
aVAPR 15, 2013
p200
aVHOU @ PHX
p201
aVL
p202
aI17
aI2
aI4
aF0.5
aI1
aI2
aF0.5
aI0
aI0
aF0.0
aI2
aI1
aI3
aI0
aI0
aI1
aI0
aI2
aI5
aI2
aa(lp203
V0021201228
p204
aVAPR 17, 2013
p205
aVHOU @ LAL
p206
aVL
p207
aI18
aI2
aI5
aF0.4
aI0
aI2
aF0.0
aI2
aI2
aF1.0
aI1
aI4
aI5
aI2
aI1
aI0
aI0
aI3
aI6
aI-1
aasS'name'
p208
VPatrick Beverley
p209
sS'weight'
p210
V185
p211
sS'age'
p212
I24
sS'experience'
p213
I0
sS'height'
p214
V6-1
p215
sS'position'
p216
VGuard
p217
s.