(dp0
S'stats'
p1
(lp2
(lp3
V0021201209
p4
aVAPR 15, 2013
p5
aVSAC @ OKC
p6
aVL
p7
aI14
aI1
aI3
aF0.333
aI1
aI2
aF0.5
aI0
aI0
aF0.0
aI1
aI0
aI1
aI2
aI1
aI0
aI0
aI3
aI3
aI-5
aI1
aa(lp8
V0021201200
p9
aVAPR 14, 2013
p10
aVSAC @ HOU
p11
aVL
p12
aI24
aI2
aI7
aF0.286
aI2
aI5
aF0.4
aI0
aI0
aF0.0
aI3
aI2
aI5
aI1
aI1
aI0
aI3
aI3
aI6
aI-6
aI1
aa(lp13
V0021201186
p14
aVAPR 12, 2013
p15
aVSAC @ SAS
p16
aVL
p17
aI26
aI6
aI11
aF0.545
aI3
aI4
aF0.75
aI0
aI0
aF0.0
aI0
aI3
aI3
aI7
aI4
aI0
aI0
aI2
aI15
aI3
aI1
aa(lp18
V0021201170
p19
aVAPR 10, 2013
p20
aVSAC vs. NOH
p21
aVW
p22
aI21
aI2
aI5
aF0.4
aI0
aI1
aF0.0
aI0
aI0
aF0.0
aI1
aI4
aI5
aI6
aI3
aI0
aI1
aI3
aI4
aI5
aI1
aa(lp23
V0021201149
p24
aVAPR 07, 2013
p25
aVSAC vs. MEM
p26
aVL
p27
aI24
aI5
aI10
aF0.5
aI2
aI4
aF0.5
aI2
aI2
aF1.0
aI1
aI3
aI4
aI2
aI4
aI0
aI1
aI3
aI14
aI14
aI1
aa(lp28
V0021201135
p29
aVAPR 05, 2013
p30
aVSAC vs. DAL
p31
aVL
p32
aI18
aI6
aI9
aF0.667
aI2
aI5
aF0.4
aI0
aI0
aF0.0
aI0
aI1
aI1
aI1
aI2
aI0
aI1
aI3
aI14
aI-2
aI1
aa(lp33
V0021201119
p34
aVAPR 03, 2013
p35
aVSAC vs. HOU
p36
aVL
p37
aI13
aI0
aI3
aF0.0
aI0
aI1
aF0.0
aI0
aI0
aF0.0
aI0
aI2
aI2
aI3
aI1
aI0
aI2
aI2
aI0
aI-4
aI1
aa(lp38
V0021201093
p39
aVMAR 30, 2013
p40
aVSAC vs. LAL
p41
aVL
p42
aI6
aI0
aI0
aF0.0
aI0
aI0
aF0.0
aI0
aI0
aF0.0
aI0
aI1
aI1
aI0
aI0
aI0
aI0
aI1
aI0
aI-6
aI1
aa(lp43
V0021201073
p44
aVMAR 28, 2013
p45
aVSAC @ PHX
p46
aVW
p47
aI10
aI3
aI6
aF0.5
aI1
aI3
aF0.333
aI0
aI0
aF0.0
aI1
aI1
aI2
aI0
aI3
aI0
aI0
aI0
aI7
aI8
aI1
aa(lp48
V0021201069
p49
aVMAR 27, 2013
p50
aVSAC @ GSW
p51
aVW
p52
aI16
aI1
aI2
aF0.5
aI1
aI1
aF1.0
aI2
aI2
aF1.0
aI0
aI0
aI0
aI2
aI0
aI0
aI2
aI1
aI5
aI1
aI1
aa(lp53
V0021201047
p54
aVMAR 24, 2013
p55
aVSAC vs. PHI
p56
aVL
p57
aI21
aI0
aI3
aF0.0
aI0
aI1
aF0.0
aI0
aI0
aF0.0
aI0
aI2
aI2
aI3
aI0
aI0
aI2
aI1
aI0
aI-5
aI1
aa(lp58
V0021201037
p59
aVMAR 23, 2013
p60
aVSAC @ DEN
p61
aVL
p62
aI5
aI0
aI1
aF0.0
aI0
aI1
aF0.0
aI0
aI0
aF0.0
aI0
aI0
aI0
aI3
aI0
aI0
aI1
aI0
aI0
aI-5
aI1
aa(lp63
V0021201021
p64
aVMAR 21, 2013
p65
aVSAC vs. MIN
p66
aVW
p67
aI12
aI2
aI3
aF0.667
aI1
aI2
aF0.5
aI0
aI0
aF0.0
aI0
aI0
aI0
aI0
aI1
aI0
aI1
aI4
aI5
aI5
aI1
aa(lp68
V0021201007
p69
aVMAR 19, 2013
p70
aVSAC vs. LAC
p71
aVW
p72
aI26
aI6
aI10
aF0.6
aI3
aI5
aF0.6
aI4
aI4
aF1.0
aI0
aI2
aI2
aI7
aI1
aI0
aI2
aI3
aI19
aI21
aI1
aa(lp73
V0021200992
p74
aVMAR 17, 2013
p75
aVSAC @ LAL
p76
aVL
p77
aI17
aI5
aI10
aF0.5
aI1
aI4
aF0.25
aI0
aI0
aF0.0
aI1
aI3
aI4
aI1
aI2
aI1
aI0
aI0
aI11
aI-3
aI1
aa(lp78
V0021200963
p79
aVMAR 13, 2013
p80
aVSAC vs. CHI
p81
aVW
p82
aI20
aI3
aI5
aF0.6
aI1
aI2
aF0.5
aI3
aI3
aF1.0
aI0
aI3
aI3
aI1
aI3
aI0
aI0
aI3
aI10
aI16
aI1
aa(lp83
V0021200941
p84
aVMAR 10, 2013
p85
aVSAC vs. MIL
p86
aVL
p87
aI12
aI0
aI1
aF0.0
aI0
aI1
aF0.0
aI0
aI0
aF0.0
aI0
aI2
aI2
aI1
aI0
aI0
aI3
aI2
aI0
aI5
aI1
aa(lp88
V0021200924
p89
aVMAR 08, 2013
p90
aVSAC vs. PHX
p91
aVW
p92
aI13
aI0
aI3
aF0.0
aI0
aI1
aF0.0
aI0
aI0
aF0.0
aI0
aI1
aI1
aI2
aI0
aI0
aI0
aI1
aI0
aI6
aI1
aa(lp93
V0021200912
p94
aVMAR 06, 2013
p95
aVSAC @ GSW
p96
aVL
p97
aI28
aI3
aI9
aF0.333
aI2
aI6
aF0.333
aI2
aI2
aF1.0
aI0
aI3
aI3
aI6
aI2
aI0
aI2
aI3
aI10
aI4
aI1
aa(lp98
V0021200884
p99
aVMAR 03, 2013
p100
aVSAC vs. CHA
p101
aVW
p102
aI15
aI0
aI4
aF0.0
aI0
aI1
aF0.0
aI2
aI2
aF1.0
aI2
aI1
aI3
aI2
aI0
aI0
aI1
aI1
aI2
aI2
aI1
aa(lp103
V0021200872
p104
aVMAR 01, 2013
p105
aVSAC @ SAS
p106
aVL
p107
aI21
aI1
aI5
aF0.2
aI0
aI2
aF0.0
aI0
aI0
aF0.0
aI1
aI1
aI2
aI4
aI1
aI0
aI2
aI1
aI2
aI-6
aI1
aa(lp108
V0021200851
p109
aVFEB 27, 2013
p110
aVSAC @ ORL
p111
aVW
p112
aI12
aI3
aI4
aF0.75
aI1
aI2
aF0.5
aI1
aI1
aF1.0
aI0
aI2
aI2
aI4
aI2
aI0
aI1
aI2
aI8
aI8
aI1
aa(lp113
V0021200743
p114
aVFEB 08, 2013
p115
aVHOU vs. POR
p116
aVW
p117
aI2
aI0
aI0
aF0.0
aI0
aI0
aF0.0
aI0
aI0
aF0.0
aI0
aI0
aI0
aI0
aI0
aI0
aI0
aI1
aI0
aI1
aI1
aa(lp118
V0021200726
p119
aVFEB 06, 2013
p120
aVHOU @ MIA
p121
aVL
p122
aI16
aI3
aI7
aF0.429
aI1
aI4
aF0.25
aI0
aI0
aF0.0
aI0
aI3
aI3
aI3
aI1
aI0
aI2
aI2
aI7
aI8
aI1
aa(lp123
V0021200718
p124
aVFEB 05, 2013
p125
aVHOU vs. GSW
p126
aVW
p127
aI15
aI3
aI6
aF0.5
aI2
aI4
aF0.5
aI6
aI6
aF1.0
aI0
aI1
aI1
aI3
aI1
aI0
aI0
aI4
aI14
aI-11
aI1
aa(lp128
V0021200699
p129
aVFEB 02, 2013
p130
aVHOU vs. CHA
p131
aVW
p132
aI20
aI3
aI11
aF0.273
aI1
aI4
aF0.25
aI0
aI0
aF0.0
aI1
aI2
aI3
aI1
aI0
aI0
aI1
aI2
aI7
aI-11
aI1
aa(lp133
V0021200679
p134
aVJAN 30, 2013
p135
aVHOU @ DEN
p136
aVL
p137
aI19
aI4
aI11
aF0.364
aI0
aI4
aF0.0
aI3
aI4
aF0.75
aI1
aI3
aI4
aI2
aI2
aI1
aI0
aI5
aI11
aI-8
aI1
aa(lp138
V0021200665
p139
aVJAN 28, 2013
p140
aVHOU @ UTA
p141
aVW
p142
aI23
aI3
aI10
aF0.3
aI1
aI5
aF0.2
aI0
aI0
aF0.0
aI0
aI0
aI0
aI1
aI1
aI0
aI0
aI0
aI7
aI20
aI1
aa(lp143
V0021200646
p144
aVJAN 26, 2013
p145
aVHOU vs. BKN
p146
aVW
p147
aI12
aI2
aI5
aF0.4
aI2
aI3
aF0.667
aI0
aI0
aF0.0
aI1
aI1
aI2
aI0
aI0
aI0
aI0
aI2
aI6
aI-1
aI1
aa(lp148
V0021200638
p149
aVJAN 25, 2013
p150
aVHOU @ NOH
p151
aVW
p152
aI14
aI1
aI4
aF0.25
aI1
aI3
aF0.333
aI0
aI0
aF0.0
aI0
aI1
aI1
aI2
aI0
aI0
aI1
aI2
aI3
aI4
aI1
aa(lp153
V0021200622
p154
aVJAN 23, 2013
p155
aVHOU vs. DEN
p156
aVL
p157
aI14
aI4
aI11
aF0.364
aI0
aI5
aF0.0
aI0
aI0
aF0.0
aI1
aI2
aI3
aI2
aI0
aI0
aI1
aI3
aI8
aI6
aI1
aa(lp158
V0021200597
p159
aVJAN 19, 2013
p160
aVHOU @ MIN
p161
aVL
p162
aI11
aI1
aI3
aF0.333
aI1
aI3
aF0.333
aI2
aI2
aF1.0
aI1
aI2
aI3
aI2
aI0
aI0
aI0
aI0
aI5
aI2
aI1
aa(lp163
V0021200575
p164
aVJAN 16, 2013
p165
aVHOU @ DAL
p166
aVL
p167
aI7
aI1
aI1
aF1.0
aI1
aI1
aF1.0
aI0
aI0
aF0.0
aI0
aI0
aI0
aI0
aI0
aI0
aI1
aI0
aI3
aI-2
aI1
aa(lp168
V0021200567
p169
aVJAN 15, 2013
p170
aVHOU vs. LAC
p171
aVL
p172
aI14
aI3
aI6
aF0.5
aI1
aI2
aF0.5
aI0
aI2
aF0.0
aI0
aI1
aI1
aI2
aI0
aI0
aI0
aI2
aI7
aI9
aI1
aa(lp173
V0021200544
p174
aVJAN 12, 2013
p175
aVHOU @ PHI
p176
aVL
p177
aI14
aI1
aI6
aF0.167
aI0
aI2
aF0.0
aI0
aI0
aF0.0
aI1
aI1
aI2
aI1
aI0
aI0
aI0
aI2
aI2
aI-12
aI1
aa(lp178
V0021200531
p179
aVJAN 11, 2013
p180
aVHOU @ BOS
p181
aVL
p182
aI19
aI3
aI7
aF0.429
aI1
aI1
aF1.0
aI0
aI0
aF0.0
aI0
aI1
aI1
aI2
aI1
aI0
aI2
aI2
aI7
aI-12
aI1
aa(lp183
V0021200521
p184
aVJAN 09, 2013
p185
aVHOU @ NOH
p186
aVL
p187
aI16
aI2
aI4
aF0.5
aI0
aI1
aF0.0
aI3
aI3
aF1.0
aI0
aI1
aI1
aI1
aI1
aI0
aI1
aI1
aI7
aI-5
aI1
aa(lp188
V0021200514
p189
aVJAN 08, 2013
p190
aVHOU vs. LAL
p191
aVW
p192
aI28
aI4
aI9
aF0.444
aI1
aI4
aF0.25
aI2
aI2
aF1.0
aI1
aI4
aI5
aI3
aI0
aI0
aI2
aI3
aI11
aI8
aI1
aa(lp193
V0021200493
p194
aVJAN 05, 2013
p195
aVHOU @ CLE
p196
aVW
p197
aI15
aI2
aI5
aF0.4
aI1
aI2
aF0.5
aI1
aI2
aF0.5
aI1
aI0
aI1
aI2
aI0
aI0
aI1
aI1
aI6
aI7
aI1
aa(lp198
V0021200486
p199
aVJAN 04, 2013
p200
aVHOU @ MIL
p201
aVW
p202
aI26
aI8
aI14
aF0.571
aI2
aI6
aF0.333
aI0
aI0
aF0.0
aI0
aI1
aI1
aI3
aI1
aI0
aI1
aI3
aI18
aI10
aI1
aa(lp203
V0021200471
p204
aVJAN 02, 2013
p205
aVHOU vs. NOH
p206
aVW
p207
aI14
aI3
aI4
aF0.75
aI0
aI1
aF0.0
aI2
aI2
aF1.0
aI0
aI2
aI2
aI1
aI1
aI0
aI1
aI3
aI8
aI-6
aI1
aa(lp208
V0021200455
p209
aVDEC 31, 2012
p210
aVHOU vs. ATL
p211
aVW
p212
aI20
aI4
aI8
aF0.5
aI1
aI3
aF0.333
aI1
aI2
aF0.5
aI1
aI1
aI2
aI3
aI1
aI0
aI1
aI2
aI10
aI17
aI1
aa(lp213
V0021200443
p214
aVDEC 29, 2012
p215
aVHOU vs. OKC
p216
aVL
p217
aI33
aI6
aI13
aF0.462
aI2
aI4
aF0.5
aI3
aI4
aF0.75
aI0
aI2
aI2
aI3
aI5
aI0
aI1
aI3
aI17
aI-31
aI1
aa(lp218
V0021200432
p219
aVDEC 28, 2012
p220
aVHOU @ SAS
p221
aVL
p222
aI28
aI5
aI12
aF0.417
aI4
aI10
aF0.4
aI0
aI0
aF0.0
aI1
aI3
aI4
aI2
aI1
aI0
aI1
aI2
aI14
aI5
aI1
aa(lp223
V0021200417
p224
aVDEC 26, 2012
p225
aVHOU @ MIN
p226
aVW
p227
aI23
aI2
aI9
aF0.222
aI2
aI5
aF0.4
aI0
aI0
aF0.0
aI1
aI3
aI4
aI4
aI1
aI0
aI2
aI2
aI6
aI7
aI1
aa(lp228
V0021200408
p229
aVDEC 25, 2012
p230
aVHOU @ CHI
p231
aVW
p232
aI22
aI3
aI7
aF0.429
aI0
aI2
aF0.0
aI0
aI0
aF0.0
aI1
aI0
aI1
aI1
aI0
aI0
aI4
aI4
aI6
aI-13
aI1
aa(lp233
V0021200394
p234
aVDEC 22, 2012
p235
aVHOU vs. MEM
p236
aVW
p237
aI27
aI4
aI13
aF0.308
aI1
aI4
aF0.25
aI1
aI1
aF1.0
aI1
aI1
aI2
aI1
aI1
aI0
aI0
aI1
aI10
aI17
aI1
aa(lp238
V0021200372
p239
aVDEC 19, 2012
p240
aVHOU vs. PHI
p241
aVW
p242
aI25
aI6
aI11
aF0.545
aI5
aI8
aF0.625
aI0
aI0
aF0.0
aI0
aI3
aI3
aI4
aI0
aI0
aI1
aI3
aI17
aI9
aI1
aa(lp243
V0021200351
p244
aVDEC 17, 2012
p245
aVHOU @ NYK
p246
aVW
p247
aI18
aI3
aI9
aF0.333
aI0
aI2
aF0.0
aI1
aI1
aF1.0
aI1
aI4
aI5
aI2
aI1
aI0
aI2
aI1
aI7
aI7
aI1
aa(lp248
V0021200346
p249
aVDEC 16, 2012
p250
aVHOU @ TOR
p251
aVL
p252
aI16
aI1
aI3
aF0.333
aI1
aI2
aF0.5
aI2
aI2
aF1.0
aI0
aI2
aI2
aI2
aI0
aI0
aI0
aI3
aI5
aI-5
aI1
aa(lp253
V0021200332
p254
aVDEC 14, 2012
p255
aVHOU vs. BOS
p256
aVW
p257
aI25
aI4
aI9
aF0.444
aI2
aI3
aF0.667
aI1
aI1
aF1.0
aI0
aI2
aI2
aI0
aI1
aI1
aI0
aI2
aI11
aI3
aI1
aa(lp258
V0021200317
p259
aVDEC 12, 2012
p260
aVHOU vs. WAS
p261
aVW
p262
aI20
aI4
aI9
aF0.444
aI2
aI4
aF0.5
aI2
aI2
aF1.0
aI0
aI1
aI1
aI1
aI1
aI0
aI2
aI3
aI12
aI6
aI1
aa(lp263
V0021200301
p264
aVDEC 10, 2012
p265
aVHOU vs. SAS
p266
aVL
p267
aI41
aI6
aI11
aF0.545
aI5
aI7
aF0.714
aI0
aI0
aF0.0
aI0
aI2
aI2
aI4
aI1
aI0
aI2
aI3
aI17
aI-1
aI1
aa(lp268
V0021200290
p269
aVDEC 08, 2012
p270
aVHOU vs. DAL
p271
aVL
p272
aI35
aI4
aI9
aF0.444
aI3
aI6
aF0.5
aI2
aI3
aF0.667
aI0
aI3
aI3
aI3
aI1
aI0
aI1
aI5
aI13
aI2
aI1
aa(lp273
V0021200278
p274
aVDEC 07, 2012
p275
aVHOU @ SAS
p276
aVL
p277
aI22
aI4
aI9
aF0.444
aI2
aI4
aF0.5
aI0
aI0
aF0.0
aI0
aI1
aI1
aI3
aI2
aI0
aI2
aI1
aI10
aI-15
aI1
aa(lp278
V0021200256
p279
aVDEC 04, 2012
p280
aVHOU vs. LAL
p281
aVW
p282
aI28
aI8
aI17
aF0.471
aI3
aI7
aF0.429
aI3
aI4
aF0.75
aI3
aI1
aI4
aI3
aI2
aI0
aI0
aI4
aI22
aI20
aI1
aa(lp283
V0021200237
p284
aVDEC 01, 2012
p285
aVHOU vs. UTA
p286
aVW
p287
aI14
aI3
aI5
aF0.6
aI1
aI2
aF0.5
aI1
aI1
aF1.0
aI1
aI0
aI1
aI1
aI2
aI0
aI1
aI3
aI8
aI8
aI1
aa(lp288
V0021200218
p289
aVNOV 28, 2012
p290
aVHOU @ OKC
p291
aVL
p292
aI11
aI0
aI4
aF0.0
aI0
aI0
aF0.0
aI0
aI0
aF0.0
aI0
aI0
aI0
aI1
aI1
aI0
aI1
aI1
aI0
aI-15
aI1
aa(lp293
V0021200206
p294
aVNOV 27, 2012
p295
aVHOU vs. TOR
p296
aVW
p297
aI10
aI1
aI4
aF0.25
aI1
aI3
aF0.333
aI0
aI0
aF0.0
aI1
aI0
aI1
aI0
aI0
aI0
aI1
aI0
aI3
aI-9
aI1
aa(lp298
V0021200178
p299
aVNOV 23, 2012
p300
aVHOU vs. NYK
p301
aVW
p302
aI17
aI3
aI6
aF0.5
aI3
aI4
aF0.75
aI2
aI2
aF1.0
aI1
aI1
aI2
aI1
aI0
aI0
aI4
aI1
aI11
aI8
aI1
aa(lp303
V0021200165
p304
aVNOV 21, 2012
p305
aVHOU vs. CHI
p306
aVW
p307
aI22
aI1
aI4
aF0.25
aI1
aI3
aF0.333
aI8
aI8
aF1.0
aI2
aI1
aI3
aI2
aI0
aI0
aI2
aI2
aI11
aI7
aI1
aa(lp308
V0021200153
p309
aVNOV 19, 2012
p310
aVHOU @ UTA
p311
aVL
p312
aI15
aI2
aI7
aF0.286
aI1
aI3
aF0.333
aI0
aI0
aF0.0
aI0
aI2
aI2
aI4
aI1
aI0
aI2
aI1
aI5
aI-6
aI1
aa(lp313
V0021200146
p314
aVNOV 18, 2012
p315
aVHOU @ LAL
p316
aVL
p317
aI17
aI2
aI5
aF0.4
aI0
aI1
aF0.0
aI1
aI1
aF1.0
aI0
aI0
aI0
aI1
aI0
aI0
aI2
aI3
aI5
aI7
aI1
aa(lp318
V0021200129
p319
aVNOV 16, 2012
p320
aVHOU @ POR
p321
aVL
p322
aI24
aI2
aI11
aF0.182
aI0
aI5
aF0.0
aI5
aI5
aF1.0
aI1
aI1
aI2
aI1
aI2
aI0
aI0
aI2
aI9
aI-6
aI1
aa(lp323
V0021200112
p324
aVNOV 14, 2012
p325
aVHOU vs. NOH
p326
aVW
p327
aI17
aI4
aI6
aF0.667
aI4
aI5
aF0.8
aI0
aI0
aF0.0
aI0
aI1
aI1
aI2
aI0
aI0
aI1
aI2
aI12
aI6
aI1
aa(lp328
V0021200099
p329
aVNOV 12, 2012
p330
aVHOU vs. MIA
p331
aVL
p332
aI14
aI1
aI2
aF0.5
aI0
aI1
aF0.0
aI0
aI0
aF0.0
aI0
aI0
aI0
aI4
aI1
aI0
aI2
aI1
aI2
aI13
aI1
aa(lp333
V0021200085
p334
aVNOV 10, 2012
p335
aVHOU vs. DET
p336
aVW
p337
aI21
aI3
aI7
aF0.429
aI1
aI3
aF0.333
aI4
aI4
aF1.0
aI0
aI2
aI2
aI2
aI1
aI0
aI4
aI2
aI11
aI13
aI1
aa(lp338
V0021200059
p339
aVNOV 07, 2012
p340
aVHOU vs. DEN
p341
aVL
p342
aI15
aI1
aI4
aF0.25
aI0
aI1
aF0.0
aI2
aI2
aF1.0
aI0
aI1
aI1
aI2
aI1
aI0
aI1
aI4
aI4
aI-5
aI1
aa(lp343
V0021200032
p344
aVNOV 03, 2012
p345
aVHOU vs. POR
p346
aVL
p347
aI16
aI1
aI6
aF0.167
aI0
aI1
aF0.0
aI0
aI0
aF0.0
aI0
aI1
aI1
aI2
aI4
aI0
aI0
aI0
aI2
aI7
aI1
aa(lp348
V0021200018
p349
aVNOV 02, 2012
p350
aVHOU @ ATL
p351
aVW
p352
aI8
aI0
aI3
aF0.0
aI0
aI2
aF0.0
aI0
aI0
aF0.0
aI0
aI2
aI2
aI2
aI0
aI0
aI1
aI3
aI0
aI-2
aI1
aa(lp353
V0021200006
p354
aVOCT 31, 2012
p355
aVHOU @ DET
p356
aVW
p357
aI13
aI0
aI5
aF0.0
aI0
aI2
aF0.0
aI2
aI2
aF1.0
aI0
aI0
aI0
aI1
aI0
aI0
aI1
aI1
aI2
aI-14
aI1
aasS'name'
p358
VToney Douglas
p359
s.