(dp0
S'stats'
p1
(lp2
(lp3
V0021201222
p4
aVAPR 17, 2013
p5
aVWAS @ CHI
p6
aVL
p7
aI36
aI2
aI11
aF0.182
aI2
aI5
aF0.4
aI0
aI0
aF0.0
aI1
aI1
aI2
aI5
aI3
aI0
aI2
aI2
aI6
aI-9
aI1
aa(lp8
V0021201205
p9
aVAPR 15, 2013
p10
aVWAS @ BKN
p11
aVL
p12
aI39
aI6
aI11
aF0.545
aI0
aI2
aF0.0
aI2
aI2
aF1.0
aI2
aI0
aI2
aI2
aI1
aI0
aI3
aI4
aI14
aI5
aI1
aa(lp13
V0021201177
p14
aVAPR 12, 2013
p15
aVWAS vs. PHI
p16
aVL
p17
aI31
aI3
aI6
aF0.5
aI1
aI2
aF0.5
aI1
aI1
aF1.0
aI2
aI3
aI5
aI2
aI2
aI1
aI1
aI0
aI8
aI-5
aI1
aa(lp18
V0021201165
p19
aVAPR 10, 2013
p20
aVWAS vs. MIA
p21
aVL
p22
aI31
aI3
aI10
aF0.3
aI2
aI6
aF0.333
aI0
aI0
aF0.0
aI0
aI3
aI3
aI2
aI3
aI0
aI4
aI3
aI8
aI-13
aI1
aa(lp23
V0021201156
p24
aVAPR 09, 2013
p25
aVWAS @ NYK
p26
aVL
p27
aI30
aI2
aI5
aF0.4
aI1
aI2
aF0.5
aI2
aI4
aF0.5
aI0
aI2
aI2
aI3
aI0
aI0
aI0
aI4
aI7
aI4
aI1
aa(lp28
V0021201147
p29
aVAPR 07, 2013
p30
aVWAS @ BOS
p31
aVL
p32
aI24
aI3
aI6
aF0.5
aI1
aI2
aF0.5
aI0
aI0
aF0.0
aI0
aI1
aI1
aI2
aI1
aI2
aI0
aI1
aI7
aI-6
aI1
aa(lp33
V0021201138
p34
aVAPR 06, 2013
p35
aVWAS vs. IND
p36
aVW
p37
aI30
aI3
aI4
aF0.75
aI2
aI3
aF0.667
aI0
aI0
aF0.0
aI0
aI5
aI5
aI0
aI1
aI1
aI0
aI3
aI8
aI12
aI1
aa(lp38
V0021201111
p39
aVAPR 03, 2013
p40
aVWAS @ TOR
p41
aVL
p42
aI16
aI0
aI2
aF0.0
aI0
aI0
aF0.0
aI0
aI0
aF0.0
aI0
aI2
aI2
aI1
aI2
aI0
aI0
aI1
aI0
aI-11
aI1
aa(lp43
V0021201108
p44
aVAPR 02, 2013
p45
aVWAS vs. CHI
p46
aVW
p47
aI14
aI1
aI2
aF0.5
aI0
aI1
aF0.0
aI0
aI1
aF0.0
aI0
aI2
aI2
aI0
aI0
aI0
aI0
aI0
aI2
aI-10
aI1
aa(lp48
V0021201095
p49
aVMAR 31, 2013
p50
aVWAS vs. TOR
p51
aVW
p52
aI13
aI0
aI2
aF0.0
aI0
aI0
aF0.0
aI0
aI0
aF0.0
aI1
aI0
aI1
aI0
aI0
aI0
aI0
aI1
aI0
aI-1
aI1
aa(lp53
V0021201074
p54
aVMAR 29, 2013
p55
aVWAS @ ORL
p56
aVL
p57
aI35
aI2
aI9
aF0.222
aI1
aI6
aF0.167
aI2
aI2
aF1.0
aI2
aI2
aI4
aI3
aI0
aI0
aI0
aI1
aI7
aI6
aI1
aa(lp58
V0021201065
p59
aVMAR 27, 2013
p60
aVWAS @ OKC
p61
aVL
p62
aI39
aI5
aI11
aF0.455
aI2
aI6
aF0.333
aI1
aI2
aF0.5
aI0
aI1
aI1
aI2
aI4
aI0
aI4
aI4
aI13
aI-23
aI1
aa(lp63
V0021201048
p64
aVMAR 25, 2013
p65
aVWAS vs. MEM
p66
aVW
p67
aI35
aI3
aI8
aF0.375
aI1
aI3
aF0.333
aI0
aI0
aF0.0
aI0
aI1
aI1
aI3
aI2
aI0
aI2
aI3
aI7
aI5
aI1
aa(lp68
V0021201039
p69
aVMAR 23, 2013
p70
aVWAS @ GSW
p71
aVL
p72
aI43
aI4
aI10
aF0.4
aI1
aI2
aF0.5
aI0
aI0
aF0.0
aI0
aI3
aI3
aI6
aI2
aI0
aI5
aI3
aI9
aI-8
aI1
aa(lp73
V0021201032
p74
aVMAR 22, 2013
p75
aVWAS @ LAL
p76
aVW
p77
aI36
aI4
aI8
aF0.5
aI2
aI3
aF0.667
aI0
aI0
aF0.0
aI1
aI5
aI6
aI2
aI2
aI1
aI0
aI3
aI10
aI-2
aI1
aa(lp78
V0021201017
p79
aVMAR 20, 2013
p80
aVWAS @ PHX
p81
aVW
p82
aI28
aI0
aI4
aF0.0
aI0
aI1
aF0.0
aI0
aI0
aF0.0
aI0
aI3
aI3
aI3
aI2
aI0
aI2
aI2
aI0
aI13
aI1
aa(lp83
V0021200994
p84
aVMAR 18, 2013
p85
aVWAS @ CHA
p86
aVL
p87
aI28
aI6
aI8
aF0.75
aI2
aI2
aF1.0
aI3
aI4
aF0.75
aI2
aI3
aI5
aI3
aI2
aI1
aI2
aI1
aI17
aI6
aI1
aa(lp88
V0021200979
p89
aVMAR 16, 2013
p90
aVWAS vs. PHX
p91
aVW
p92
aI36
aI4
aI10
aF0.4
aI3
aI4
aF0.75
aI0
aI0
aF0.0
aI1
aI2
aI3
aI4
aI2
aI0
aI4
aI3
aI11
aI15
aI0
aa(lp93
V0021200970
p94
aVMAR 15, 2013
p95
aVWAS vs. NOH
p96
aVW
p97
aI45
aI4
aI5
aF0.8
aI0
aI0
aF0.0
aI2
aI3
aF0.667
aI0
aI2
aI2
aI5
aI1
aI0
aI0
aI0
aI10
aI13
aI1
aa(lp98
V0021200957
p99
aVMAR 13, 2013
p100
aVWAS vs. MIL
p101
aVW
p102
aI41
aI6
aI7
aF0.857
aI0
aI0
aF0.0
aI1
aI1
aF1.0
aI1
aI2
aI3
aI4
aI0
aI0
aI2
aI1
aI13
aI19
aI1
aa(lp103
V0021200950
p104
aVMAR 12, 2013
p105
aVWAS @ CLE
p106
aVL
p107
aI21
aI1
aI3
aF0.333
aI0
aI0
aF0.0
aI0
aI0
aF0.0
aI0
aI3
aI3
aI0
aI0
aI0
aI3
aI4
aI2
aI-6
aI1
aa(lp108
V0021200929
p109
aVMAR 09, 2013
p110
aVWAS vs. CHA
p111
aVW
p112
aI23
aI1
aI4
aF0.25
aI0
aI0
aF0.0
aI0
aI0
aF0.0
aI0
aI4
aI4
aI4
aI0
aI0
aI2
aI5
aI2
aI12
aI1
aa(lp113
V0021200918
p114
aVMAR 08, 2013
p115
aVWAS @ BKN
p116
aVL
p117
aI24
aI1
aI5
aF0.2
aI0
aI1
aF0.0
aI0
aI0
aF0.0
aI1
aI3
aI4
aI1
aI2
aI0
aI0
aI5
aI2
aI6
aI1
aa(lp118
V0021200907
p119
aVMAR 06, 2013
p120
aVWAS @ MIN
p121
aVL
p122
aI6
aI1
aI2
aF0.5
aI0
aI0
aF0.0
aI1
aI2
aF0.5
aI0
aI0
aI0
aI0
aI0
aI0
aI0
aI0
aI3
aI-6
aI1
aa(lp123
V0021200882
p124
aVMAR 03, 2013
p125
aVWAS vs. PHI
p126
aVW
p127
aI1
aI0
aI0
aF0.0
aI0
aI0
aF0.0
aI0
aI0
aF0.0
aI0
aI0
aI0
aI0
aI0
aI0
aI0
aI0
aI0
aI1
aI1
aa(lp128
V0021200865
p129
aVMAR 01, 2013
p130
aVWAS vs. NYK
p131
aVL
p132
aI11
aI1
aI2
aF0.5
aI0
aI0
aF0.0
aI0
aI0
aF0.0
aI1
aI1
aI2
aI3
aI1
aI0
aI1
aI0
aI2
aI-8
aI1
aa(lp133
V0021200839
p134
aVFEB 25, 2013
p135
aVWAS @ TOR
p136
aVW
p137
aI1
aI0
aI0
aF0.0
aI0
aI0
aF0.0
aI1
aI2
aF0.5
aI0
aI0
aI0
aI0
aI0
aI0
aI0
aI0
aI1
aI-3
aI1
aa(lp138
V0021200823
p139
aVFEB 23, 2013
p140
aVWAS vs. HOU
p141
aVW
p142
aI2
aI0
aI0
aF0.0
aI0
aI0
aF0.0
aI0
aI0
aF0.0
aI0
aI0
aI0
aI0
aI0
aI0
aI0
aI0
aI0
aI-3
aI1
aa(lp143
V0021200812
p144
aVFEB 22, 2013
p145
aVWAS vs. DEN
p146
aVW
p147
aI2
aI1
aI2
aF0.5
aI0
aI0
aF0.0
aI1
aI1
aF1.0
aI0
aI1
aI1
aI0
aI0
aI0
aI0
aI0
aI3
aI6
aI1
aa(lp148
V0021200781
p149
aVFEB 13, 2013
p150
aVWAS @ DET
p151
aVL
p152
aI14
aI2
aI3
aF0.667
aI0
aI0
aF0.0
aI0
aI0
aF0.0
aI0
aI0
aI0
aI0
aI1
aI0
aI2
aI2
aI4
aI3
aI1
aa(lp153
V0021200767
p154
aVFEB 11, 2013
p155
aVWAS @ MIL
p156
aVW
p157
aI12
aI1
aI3
aF0.333
aI0
aI0
aF0.0
aI0
aI0
aF0.0
aI0
aI3
aI3
aI0
aI0
aI1
aI1
aI1
aI2
aI-15
aI0
aa(lp158
V0021200735
p159
aVFEB 08, 2013
p160
aVWAS vs. BKN
p161
aVW
p162
aI16
aI1
aI4
aF0.25
aI0
aI1
aF0.0
aI0
aI0
aF0.0
aI0
aI1
aI1
aI1
aI1
aI0
aI0
aI2
aI2
aI0
aI1
aa(lp163
V0021200722
p164
aVFEB 06, 2013
p165
aVWAS vs. NYK
p166
aVW
p167
aI17
aI2
aI4
aF0.5
aI0
aI0
aF0.0
aI0
aI0
aF0.0
aI0
aI2
aI2
aI1
aI0
aI0
aI2
aI0
aI4
aI7
aI1
aa(lp168
V0021200709
p169
aVFEB 04, 2013
p170
aVWAS vs. LAC
p171
aVW
p172
aI37
aI7
aI12
aF0.583
aI0
aI0
aF0.0
aI1
aI2
aF0.5
aI0
aI3
aI3
aI2
aI3
aI3
aI2
aI2
aI15
aI5
aI1
aa(lp173
V0021200702
p174
aVFEB 02, 2013
p175
aVWAS @ SAS
p176
aVL
p177
aI11
aI1
aI4
aF0.25
aI0
aI1
aF0.0
aI0
aI0
aF0.0
aI1
aI0
aI1
aI0
aI0
aI0
aI1
aI2
aI2
aI-13
aI1
aa(lp178
V0021200691
p179
aVFEB 01, 2013
p180
aVWAS @ MEM
p181
aVL
p182
aI18
aI2
aI5
aF0.4
aI0
aI2
aF0.0
aI0
aI0
aF0.0
aI0
aI0
aI0
aI1
aI3
aI0
aI0
aI0
aI4
aI-1
aI1
aa(lp183
V0021200670
p184
aVJAN 30, 2013
p185
aVWAS @ PHI
p186
aVL
p187
aI20
aI1
aI2
aF0.5
aI0
aI1
aF0.0
aI0
aI0
aF0.0
aI0
aI2
aI2
aI3
aI1
aI1
aI0
aI2
aI2
aI-9
aI1
aa(lp188
V0021200661
p189
aVJAN 28, 2013
p190
aVWAS vs. SAC
p191
aVL
p192
aI0
aI0
aI0
aF0.0
aI0
aI0
aF0.0
aI0
aI0
aF0.0
aI0
aI0
aI0
aI0
aI0
aI0
aI0
aI0
aI0
aI-4
aI1
aa(lp193
V0021200644
p194
aVJAN 26, 2013
p195
aVWAS vs. CHI
p196
aVW
p197
aI1
aI0
aI0
aF0.0
aI0
aI0
aF0.0
aI0
aI0
aF0.0
aI0
aI0
aI0
aI0
aI0
aI0
aI0
aI0
aI0
aI0
aI1
aa(lp198
V0021200632
p199
aVJAN 25, 2013
p200
aVWAS vs. MIN
p201
aVW
p202
aI3
aI0
aI0
aF0.0
aI0
aI0
aF0.0
aI0
aI0
aF0.0
aI0
aI0
aI0
aI0
aI0
aI0
aI0
aI0
aI0
aI-2
aI1
aa(lp203
V0021200577
p204
aVJAN 16, 2013
p205
aVWAS @ SAC
p206
aVL
p207
aI7
aI0
aI0
aF0.0
aI0
aI0
aF0.0
aI0
aI0
aF0.0
aI1
aI0
aI1
aI0
aI0
aI0
aI0
aI0
aI0
aI-3
aI1
aa(lp208
V0021200556
p209
aVJAN 14, 2013
p210
aVWAS vs. ORL
p211
aVW
p212
aI18
aI3
aI5
aF0.6
aI1
aI1
aF1.0
aI0
aI0
aF0.0
aI0
aI4
aI4
aI3
aI0
aI0
aI0
aI2
aI7
aI20
aI1
aa(lp213
V0021200542
p214
aVJAN 12, 2013
p215
aVWAS vs. ATL
p216
aVW
p217
aI9
aI1
aI3
aF0.333
aI0
aI1
aF0.0
aI0
aI0
aF0.0
aI0
aI0
aI0
aI0
aI0
aI1
aI0
aI1
aI2
aI-9
aI1
aa(lp218
V0021200504
p219
aVJAN 07, 2013
p220
aVWAS vs. OKC
p221
aVW
p222
aI35
aI3
aI8
aF0.375
aI1
aI3
aF0.333
aI2
aI2
aF1.0
aI1
aI3
aI4
aI3
aI1
aI1
aI3
aI2
aI9
aI7
aI1
aa(lp223
V0021200500
p224
aVJAN 06, 2013
p225
aVWAS @ MIA
p226
aVL
p227
aI32
aI0
aI7
aF0.0
aI0
aI3
aF0.0
aI0
aI0
aF0.0
aI1
aI2
aI3
aI7
aI1
aI0
aI3
aI2
aI0
aI-18
aI1
aa(lp228
V0021200479
p229
aVJAN 04, 2013
p230
aVWAS vs. BKN
p231
aVL
p232
aI47
aI3
aI10
aF0.3
aI1
aI3
aF0.333
aI1
aI2
aF0.5
aI3
aI4
aI7
aI11
aI1
aI0
aI1
aI3
aI8
aI2
aI1
aa(lp233
V0021200467
p234
aVJAN 02, 2013
p235
aVWAS @ IND
p236
aVL
p237
aI22
aI0
aI3
aF0.0
aI0
aI2
aF0.0
aI0
aI0
aF0.0
aI0
aI1
aI1
aI7
aI0
aI2
aI2
aI6
aI0
aI-10
aI1
aa(lp238
V0021200458
p239
aVJAN 01, 2013
p240
aVWAS vs. DAL
p241
aVL
p242
aI23
aI1
aI6
aF0.167
aI1
aI4
aF0.25
aI3
aI4
aF0.75
aI1
aI2
aI3
aI3
aI1
aI1
aI1
aI4
aI6
aI6
aI1
aa(lp243
V0021200441
p244
aVDEC 29, 2012
p245
aVWAS @ CHI
p246
aVL
p247
aI41
aI3
aI11
aF0.273
aI0
aI2
aF0.0
aI2
aI2
aF1.0
aI3
aI6
aI9
aI5
aI1
aI1
aI4
aI3
aI8
aI-9
aI1
aa(lp248
V0021200425
p249
aVDEC 28, 2012
p250
aVWAS vs. ORL
p251
aVW
p252
aI35
aI6
aI8
aF0.75
aI1
aI3
aF0.333
aI0
aI0
aF0.0
aI2
aI4
aI6
aI6
aI2
aI0
aI1
aI2
aI13
aI22
aI1
aa(lp253
V0021200410
p254
aVDEC 26, 2012
p255
aVWAS vs. CLE
p256
aVL
p257
aI19
aI1
aI3
aF0.333
aI0
aI2
aF0.0
aI0
aI0
aF0.0
aI1
aI2
aI3
aI2
aI1
aI0
aI1
aI4
aI2
aI-10
aI1
aasS'name'
p258
VGarrett Temple
p259
s.