(dp0
S'stats'
p1
(lp2
(lp3
V0021200027
p4
aVNOV 03, 2012
p5
aVWAS vs. BOS
p6
aVL
p7
aI29
aI8
aI9
aF0.889
aI0
aI0
aF0.0
aI3
aI4
aF0.75
aI0
aI7
aI7
aI0
aI0
aI1
aI2
aI1
aI19
aI17
aa(lp8
V0021200054
p9
aVNOV 07, 2012
p10
aVWAS @ BOS
p11
aVL
p12
aI36
aI8
aI19
aF0.421
aI0
aI0
aF0.0
aI0
aI0
aF0.0
aI4
aI5
aI9
aI3
aI0
aI1
aI6
aI5
aI16
aI-7
aa(lp13
V0021200068
p14
aVNOV 09, 2012
p15
aVWAS vs. MIL
p16
aVL
p17
aI13
aI1
aI5
aF0.2
aI0
aI0
aF0.0
aI0
aI0
aF0.0
aI2
aI0
aI2
aI0
aI1
aI0
aI2
aI3
aI2
aI-9
aa(lp18
V0021200082
p19
aVNOV 10, 2012
p20
aVWAS @ IND
p21
aVL
p22
aI15
aI2
aI7
aF0.286
aI0
aI0
aF0.0
aI0
aI0
aF0.0
aI1
aI1
aI2
aI1
aI0
aI0
aI1
aI3
aI4
aI-12
aa(lp23
V0021200103
p24
aVNOV 13, 2012
p25
aVWAS @ CHA
p26
aVL
p27
aI15
aI2
aI4
aF0.5
aI0
aI0
aF0.0
aI1
aI2
aF0.5
aI1
aI0
aI1
aI0
aI0
aI2
aI1
aI3
aI5
aI2
aa(lp28
V0021200115
p29
aVNOV 14, 2012
p30
aVWAS @ DAL
p31
aVL
p32
aI22
aI8
aI10
aF0.8
aI0
aI0
aF0.0
aI0
aI0
aF0.0
aI1
aI4
aI5
aI5
aI1
aI1
aI2
aI4
aI16
aI4
aa(lp33
V0021200133
p34
aVNOV 17, 2012
p35
aVWAS vs. UTA
p36
aVL
p37
aI16
aI3
aI11
aF0.273
aI0
aI0
aF0.0
aI0
aI0
aF0.0
aI0
aI0
aI0
aI0
aI0
aI1
aI2
aI4
aI6
aI-15
aa(lp38
V0021200147
p39
aVNOV 19, 2012
p40
aVWAS vs. IND
p41
aVL
p42
aI25
aI6
aI11
aF0.545
aI0
aI0
aF0.0
aI1
aI2
aF0.5
aI2
aI1
aI3
aI0
aI0
aI0
aI3
aI5
aI13
aI-1
aa(lp43
V0021200162
p44
aVNOV 21, 2012
p45
aVWAS @ ATL
p46
aVL
p47
aI33
aI10
aI21
aF0.476
aI0
aI0
aF0.0
aI1
aI2
aF0.5
aI3
aI7
aI10
aI1
aI0
aI2
aI1
aI3
aI21
aI-11
aa(lp48
V0021200184
p49
aVNOV 24, 2012
p50
aVWAS vs. CHA
p51
aVL
p52
aI22
aI3
aI10
aF0.3
aI0
aI0
aF0.0
aI0
aI0
aF0.0
aI2
aI3
aI5
aI0
aI0
aI1
aI3
aI1
aI6
aI-23
aa(lp53
V0021200197
p54
aVNOV 26, 2012
p55
aVWAS vs. SAS
p56
aVL
p57
aI32
aI9
aI19
aF0.474
aI0
aI0
aF0.0
aI0
aI0
aF0.0
aI4
aI3
aI7
aI0
aI4
aI2
aI3
aI4
aI18
aI-16
aa(lp58
V0021200209
p59
aVNOV 28, 2012
p60
aVWAS vs. POR
p61
aVW
p62
aI33
aI5
aI13
aF0.385
aI0
aI0
aF0.0
aI0
aI0
aF0.0
aI2
aI8
aI10
aI3
aI0
aI1
aI2
aI2
aI10
aI-6
aa(lp63
V0021200226
p64
aVNOV 30, 2012
p65
aVWAS @ NYK
p66
aVL
p67
aI26
aI6
aI15
aF0.4
aI0
aI0
aF0.0
aI1
aI2
aF0.5
aI7
aI3
aI10
aI2
aI0
aI0
aI3
aI3
aI13
aI-12
aa(lp68
V0021200252
p69
aVDEC 04, 2012
p70
aVWAS vs. MIA
p71
aVW
p72
aI31
aI8
aI12
aF0.667
aI0
aI0
aF0.0
aI0
aI0
aF0.0
aI1
aI9
aI10
aI2
aI0
aI1
aI3
aI3
aI16
aI1
aa(lp73
V0021200273
p74
aVDEC 07, 2012
p75
aVWAS @ ATL
p76
aVL
p77
aI32
aI9
aI16
aF0.563
aI0
aI0
aF0.0
aI1
aI2
aF0.5
aI2
aI5
aI7
aI1
aI0
aI2
aI0
aI2
aI19
aI4
aa(lp78
V0021200283
p79
aVDEC 08, 2012
p80
aVWAS vs. GSW
p81
aVL
p82
aI29
aI7
aI12
aF0.583
aI0
aI0
aF0.0
aI0
aI0
aF0.0
aI1
aI4
aI5
aI0
aI0
aI1
aI1
aI5
aI14
aI-11
aa(lp83
V0021200307
p84
aVDEC 11, 2012
p85
aVWAS @ NOH
p86
aVW
p87
aI16
aI3
aI7
aF0.429
aI0
aI0
aF0.0
aI2
aI2
aF1.0
aI1
aI7
aI8
aI1
aI0
aI0
aI2
aI1
aI8
aI4
aa(lp88
V0021200317
p89
aVDEC 12, 2012
p90
aVWAS @ HOU
p91
aVL
p92
aI18
aI2
aI9
aF0.222
aI0
aI0
aF0.0
aI0
aI0
aF0.0
aI1
aI3
aI4
aI0
aI1
aI1
aI1
aI3
aI4
aI-9
aa(lp93
V0021200326
p94
aVDEC 14, 2012
p95
aVWAS vs. LAL
p96
aVL
p97
aI37
aI8
aI14
aF0.571
aI0
aI0
aF0.0
aI0
aI1
aF0.0
aI4
aI4
aI8
aI1
aI0
aI0
aI3
aI3
aI16
aI2
aa(lp98
V0021200339
p99
aVDEC 15, 2012
p100
aVWAS @ MIA
p101
aVL
p102
aI22
aI3
aI8
aF0.375
aI0
aI0
aF0.0
aI0
aI0
aF0.0
aI2
aI3
aI5
aI0
aI0
aI0
aI2
aI2
aI6
aI-4
aa(lp103
V0021200356
p104
aVDEC 18, 2012
p105
aVWAS vs. ATL
p106
aVL
p107
aI20
aI2
aI6
aF0.333
aI0
aI0
aF0.0
aI0
aI0
aF0.0
aI2
aI3
aI5
aI0
aI0
aI0
aI1
aI5
aI4
aI-4
aa(lp108
V0021200368
p109
aVDEC 19, 2012
p110
aVWAS @ ORL
p111
aVL
p112
aI23
aI3
aI9
aF0.333
aI0
aI0
aF0.0
aI0
aI0
aF0.0
aI0
aI2
aI2
aI2
aI0
aI2
aI1
aI1
aI6
aI-15
aa(lp113
V0021200384
p114
aVDEC 21, 2012
p115
aVWAS @ DET
p116
aVL
p117
aI30
aI5
aI18
aF0.278
aI0
aI0
aF0.0
aI0
aI0
aF0.0
aI4
aI2
aI6
aI0
aI0
aI1
aI2
aI4
aI10
aI-20
aa(lp118
V0021200390
p119
aVDEC 22, 2012
p120
aVWAS vs. DET
p121
aVL
p122
aI18
aI3
aI8
aF0.375
aI0
aI0
aF0.0
aI0
aI2
aF0.0
aI0
aI3
aI3
aI0
aI0
aI0
aI0
aI1
aI6
aI-15
aa(lp123
V0021200410
p124
aVDEC 26, 2012
p125
aVWAS vs. CLE
p126
aVL
p127
aI12
aI2
aI6
aF0.333
aI0
aI0
aF0.0
aI0
aI0
aF0.0
aI0
aI0
aI0
aI0
aI1
aI0
aI2
aI2
aI4
aI-15
aa(lp128
V0021200425
p129
aVDEC 28, 2012
p130
aVWAS vs. ORL
p131
aVW
p132
aI32
aI8
aI18
aF0.444
aI0
aI0
aF0.0
aI1
aI2
aF0.5
aI2
aI4
aI6
aI1
aI0
aI4
aI1
aI1
aI17
aI10
aa(lp133
V0021200441
p134
aVDEC 29, 2012
p135
aVWAS @ CHI
p136
aVL
p137
aI28
aI5
aI11
aF0.455
aI0
aI0
aF0.0
aI2
aI2
aF1.0
aI3
aI3
aI6
aI1
aI0
aI1
aI3
aI3
aI12
aI1
aa(lp138
V0021200458
p139
aVJAN 01, 2013
p140
aVWAS vs. DAL
p141
aVL
p142
aI25
aI4
aI8
aF0.5
aI0
aI0
aF0.0
aI2
aI2
aF1.0
aI0
aI2
aI2
aI2
aI0
aI1
aI1
aI3
aI10
aI-24
aa(lp143
V0021200467
p144
aVJAN 02, 2013
p145
aVWAS @ IND
p146
aVL
p147
aI31
aI8
aI13
aF0.615
aI0
aI0
aF0.0
aI0
aI0
aF0.0
aI2
aI7
aI9
aI0
aI0
aI1
aI3
aI4
aI16
aI5
aa(lp148
V0021200479
p149
aVJAN 04, 2013
p150
aVWAS vs. BKN
p151
aVL
p152
aI18
aI1
aI9
aF0.111
aI0
aI0
aF0.0
aI4
aI4
aF1.0
aI2
aI2
aI4
aI0
aI1
aI1
aI2
aI3
aI6
aI-12
aa(lp153
V0021200500
p154
aVJAN 06, 2013
p155
aVWAS @ MIA
p156
aVL
p157
aI31
aI6
aI15
aF0.4
aI0
aI0
aF0.0
aI2
aI2
aF1.0
aI1
aI2
aI3
aI2
aI0
aI1
aI0
aI0
aI14
aI-17
aa(lp158
V0021200504
p159
aVJAN 07, 2013
p160
aVWAS vs. OKC
p161
aVW
p162
aI38
aI8
aI20
aF0.4
aI0
aI0
aF0.0
aI3
aI4
aF0.75
aI4
aI1
aI5
aI0
aI0
aI0
aI2
aI4
aI19
aI2
aa(lp163
V0021200542
p164
aVJAN 12, 2013
p165
aVWAS vs. ATL
p166
aVW
p167
aI32
aI4
aI10
aF0.4
aI0
aI0
aF0.0
aI0
aI0
aF0.0
aI2
aI5
aI7
aI0
aI1
aI1
aI3
aI4
aI8
aI-1
aa(lp168
V0021200556
p169
aVJAN 14, 2013
p170
aVWAS vs. ORL
p171
aVW
p172
aI28
aI8
aI15
aF0.533
aI0
aI0
aF0.0
aI2
aI2
aF1.0
aI1
aI4
aI5
aI4
aI0
aI3
aI2
aI5
aI18
aI26
aa(lp173
V0021200577
p174
aVJAN 16, 2013
p175
aVWAS @ SAC
p176
aVL
p177
aI29
aI8
aI18
aF0.444
aI0
aI0
aF0.0
aI0
aI0
aF0.0
aI2
aI1
aI3
aI0
aI0
aI1
aI2
aI3
aI16
aI-11
aa(lp178
V0021200591
p179
aVJAN 18, 2013
p180
aVWAS @ DEN
p181
aVW
p182
aI26
aI7
aI11
aF0.636
aI0
aI0
aF0.0
aI4
aI4
aF1.0
aI0
aI7
aI7
aI0
aI2
aI1
aI1
aI1
aI18
aI11
aa(lp183
V0021200600
p184
aVJAN 19, 2013
p185
aVWAS @ LAC
p186
aVL
p187
aI20
aI2
aI7
aF0.286
aI0
aI0
aF0.0
aI0
aI0
aF0.0
aI0
aI3
aI3
aI0
aI0
aI0
aI1
aI2
aI4
aI-7
aa(lp188
V0021200613
p189
aVJAN 21, 2013
p190
aVWAS @ POR
p191
aVW
p192
aI15
aI3
aI9
aF0.333
aI0
aI0
aF0.0
aI0
aI0
aF0.0
aI2
aI1
aI3
aI0
aI0
aI0
aI1
aI1
aI6
aI0
aa(lp193
V0021200625
p194
aVJAN 23, 2013
p195
aVWAS @ UTA
p196
aVL
p197
aI20
aI2
aI7
aF0.286
aI0
aI0
aF0.0
aI0
aI2
aF0.0
aI0
aI3
aI3
aI0
aI1
aI1
aI1
aI1
aI4
aI0
aa(lp198
V0021200632
p199
aVJAN 25, 2013
p200
aVWAS vs. MIN
p201
aVW
p202
aI15
aI5
aI9
aF0.556
aI0
aI0
aF0.0
aI0
aI0
aF0.0
aI1
aI1
aI2
aI1
aI1
aI0
aI4
aI6
aI10
aI-1
aa(lp203
V0021200644
p204
aVJAN 26, 2013
p205
aVWAS vs. CHI
p206
aVW
p207
aI20
aI2
aI7
aF0.286
aI0
aI0
aF0.0
aI0
aI0
aF0.0
aI2
aI3
aI5
aI2
aI1
aI0
aI1
aI3
aI4
aI-6
aa(lp208
V0021200661
p209
aVJAN 28, 2013
p210
aVWAS vs. SAC
p211
aVL
p212
aI24
aI5
aI9
aF0.556
aI0
aI0
aF0.0
aI2
aI4
aF0.5
aI2
aI5
aI7
aI0
aI1
aI0
aI1
aI2
aI12
aI-8
aa(lp213
V0021200670
p214
aVJAN 30, 2013
p215
aVWAS @ PHI
p216
aVL
p217
aI17
aI4
aI8
aF0.5
aI0
aI0
aF0.0
aI0
aI0
aF0.0
aI1
aI1
aI2
aI2
aI0
aI0
aI2
aI2
aI8
aI-8
aa(lp218
V0021200691
p219
aVFEB 01, 2013
p220
aVWAS @ MEM
p221
aVL
p222
aI20
aI4
aI8
aF0.5
aI0
aI0
aF0.0
aI0
aI0
aF0.0
aI1
aI1
aI2
aI1
aI0
aI0
aI1
aI1
aI8
aI-2
aa(lp223
V0021200702
p224
aVFEB 02, 2013
p225
aVWAS @ SAS
p226
aVL
p227
aI22
aI1
aI4
aF0.25
aI0
aI0
aF0.0
aI2
aI4
aF0.5
aI0
aI2
aI2
aI0
aI0
aI0
aI1
aI1
aI4
aI10
aa(lp228
V0021200709
p229
aVFEB 04, 2013
p230
aVWAS vs. LAC
p231
aVW
p232
aI16
aI1
aI6
aF0.167
aI0
aI0
aF0.0
aI1
aI2
aF0.5
aI0
aI3
aI3
aI1
aI0
aI1
aI1
aI1
aI3
aI1
aa(lp233
V0021200722
p234
aVFEB 06, 2013
p235
aVWAS vs. NYK
p236
aVW
p237
aI19
aI2
aI4
aF0.5
aI0
aI0
aF0.0
aI1
aI2
aF0.5
aI2
aI2
aI4
aI0
aI0
aI1
aI1
aI1
aI5
aI0
aa(lp238
V0021200735
p239
aVFEB 08, 2013
p240
aVWAS vs. BKN
p241
aVW
p242
aI14
aI1
aI2
aF0.5
aI0
aI0
aF0.0
aI2
aI2
aF1.0
aI1
aI3
aI4
aI0
aI0
aI0
aI0
aI5
aI4
aI2
aa(lp243
V0021200767
p244
aVFEB 11, 2013
p245
aVWAS @ MIL
p246
aVW
p247
aI14
aI3
aI5
aF0.6
aI0
aI0
aF0.0
aI1
aI1
aF1.0
aI1
aI5
aI6
aI0
aI0
aI0
aI2
aI4
aI7
aI6
aa(lp248
V0021200781
p249
aVFEB 13, 2013
p250
aVWAS @ DET
p251
aVL
p252
aI13
aI1
aI4
aF0.25
aI0
aI0
aF0.0
aI0
aI0
aF0.0
aI0
aI3
aI3
aI0
aI0
aI0
aI2
aI0
aI2
aI3
aa(lp253
V0021200789
p254
aVFEB 19, 2013
p255
aVWAS vs. TOR
p256
aVL
p257
aI4
aI0
aI0
aF0.0
aI0
aI0
aF0.0
aI0
aI0
aF0.0
aI0
aI2
aI2
aI0
aI0
aI0
aI2
aI2
aI0
aI0
aa(lp258
V0021200812
p259
aVFEB 22, 2013
p260
aVWAS vs. DEN
p261
aVW
p262
aI6
aI1
aI3
aF0.333
aI0
aI0
aF0.0
aI0
aI0
aF0.0
aI0
aI1
aI1
aI0
aI0
aI0
aI0
aI2
aI2
aI-5
aa(lp263
V0021200854
p264
aVFEB 27, 2013
p265
aVWAS vs. DET
p266
aVL
p267
aI17
aI6
aI10
aF0.6
aI0
aI0
aF0.0
aI0
aI0
aF0.0
aI1
aI2
aI3
aI1
aI0
aI0
aI1
aI2
aI12
aI4
aa(lp268
V0021200865
p269
aVMAR 01, 2013
p270
aVWAS vs. NYK
p271
aVL
p272
aI11
aI1
aI4
aF0.25
aI0
aI0
aF0.0
aI2
aI2
aF1.0
aI3
aI1
aI4
aI0
aI0
aI0
aI1
aI2
aI4
aI-4
aa(lp273
V0021200882
p274
aVMAR 03, 2013
p275
aVWAS vs. PHI
p276
aVW
p277
aI9
aI0
aI3
aF0.0
aI0
aI0
aF0.0
aI0
aI0
aF0.0
aI1
aI1
aI2
aI1
aI0
aI0
aI1
aI1
aI0
aI-6
aa(lp278
V0021200907
p279
aVMAR 06, 2013
p280
aVWAS @ MIN
p281
aVL
p282
aI12
aI4
aI5
aF0.8
aI0
aI0
aF0.0
aI0
aI0
aF0.0
aI0
aI1
aI1
aI0
aI0
aI1
aI1
aI4
aI8
aI3
aa(lp283
V0021200918
p284
aVMAR 08, 2013
p285
aVWAS @ BKN
p286
aVL
p287
aI23
aI4
aI8
aF0.5
aI0
aI0
aF0.0
aI3
aI5
aF0.6
aI3
aI4
aI7
aI0
aI1
aI1
aI2
aI4
aI11
aI0
aa(lp288
V0021200929
p289
aVMAR 09, 2013
p290
aVWAS vs. CHA
p291
aVW
p292
aI21
aI4
aI7
aF0.571
aI0
aI0
aF0.0
aI1
aI2
aF0.5
aI2
aI2
aI4
aI0
aI1
aI0
aI3
aI4
aI9
aI11
aa(lp293
V0021200950
p294
aVMAR 12, 2013
p295
aVWAS @ CLE
p296
aVL
p297
aI6
aI1
aI4
aF0.25
aI0
aI0
aF0.0
aI0
aI0
aF0.0
aI0
aI0
aI0
aI0
aI0
aI0
aI0
aI1
aI2
aI-8
aa(lp298
V0021200957
p299
aVMAR 13, 2013
p300
aVWAS vs. MIL
p301
aVW
p302
aI10
aI2
aI3
aF0.667
aI0
aI0
aF0.0
aI0
aI0
aF0.0
aI0
aI3
aI3
aI0
aI0
aI0
aI2
aI4
aI4
aI1
aa(lp303
V0021200970
p304
aVMAR 15, 2013
p305
aVWAS vs. NOH
p306
aVW
p307
aI18
aI4
aI6
aF0.667
aI0
aI0
aF0.0
aI2
aI2
aF1.0
aI0
aI1
aI1
aI0
aI0
aI3
aI2
aI2
aI10
aI8
aa(lp308
V0021200979
p309
aVMAR 16, 2013
p310
aVWAS vs. PHX
p311
aVW
p312
aI22
aI3
aI7
aF0.429
aI0
aI0
aF0.0
aI2
aI2
aF1.0
aI0
aI1
aI1
aI3
aI0
aI0
aI0
aI4
aI8
aI3
aa(lp313
V0021200994
p314
aVMAR 18, 2013
p315
aVWAS @ CHA
p316
aVL
p317
aI9
aI3
aI6
aF0.5
aI0
aI0
aF0.0
aI0
aI0
aF0.0
aI0
aI0
aI0
aI1
aI0
aI0
aI0
aI4
aI6
aI4
aa(lp318
V0021201017
p319
aVMAR 20, 2013
p320
aVWAS @ PHX
p321
aVW
p322
aI30
aI8
aI11
aF0.727
aI0
aI0
aF0.0
aI0
aI0
aF0.0
aI0
aI5
aI5
aI1
aI0
aI2
aI3
aI3
aI16
aI11
aa(lp323
V0021201032
p324
aVMAR 22, 2013
p325
aVWAS @ LAL
p326
aVW
p327
aI29
aI4
aI9
aF0.444
aI0
aI0
aF0.0
aI4
aI4
aF1.0
aI0
aI5
aI5
aI1
aI0
aI2
aI2
aI1
aI12
aI-3
aa(lp328
V0021201039
p329
aVMAR 23, 2013
p330
aVWAS @ GSW
p331
aVL
p332
aI24
aI2
aI8
aF0.25
aI0
aI0
aF0.0
aI0
aI0
aF0.0
aI0
aI6
aI6
aI0
aI0
aI0
aI0
aI2
aI4
aI6
aa(lp333
V0021201048
p334
aVMAR 25, 2013
p335
aVWAS vs. MEM
p336
aVW
p337
aI16
aI2
aI5
aF0.4
aI0
aI0
aF0.0
aI0
aI0
aF0.0
aI0
aI4
aI4
aI0
aI1
aI0
aI0
aI3
aI4
aI-3
aa(lp338
V0021201065
p339
aVMAR 27, 2013
p340
aVWAS @ OKC
p341
aVL
p342
aI31
aI6
aI14
aF0.429
aI0
aI0
aF0.0
aI0
aI2
aF0.0
aI3
aI5
aI8
aI0
aI0
aI0
aI1
aI4
aI12
aI-14
aa(lp343
V0021201074
p344
aVMAR 29, 2013
p345
aVWAS @ ORL
p346
aVL
p347
aI18
aI2
aI5
aF0.4
aI0
aI0
aF0.0
aI0
aI0
aF0.0
aI1
aI2
aI3
aI1
aI1
aI0
aI2
aI2
aI4
aI-14
aa(lp348
V0021201095
p349
aVMAR 31, 2013
p350
aVWAS vs. TOR
p351
aVW
p352
aI19
aI6
aI10
aF0.6
aI0
aI0
aF0.0
aI1
aI2
aF0.5
aI1
aI0
aI1
aI0
aI0
aI0
aI0
aI5
aI13
aI0
aa(lp353
V0021201108
p354
aVAPR 02, 2013
p355
aVWAS vs. CHI
p356
aVW
p357
aI18
aI1
aI5
aF0.2
aI0
aI0
aF0.0
aI0
aI0
aF0.0
aI3
aI2
aI5
aI2
aI0
aI0
aI1
aI0
aI2
aI6
aa(lp358
V0021201111
p359
aVAPR 03, 2013
p360
aVWAS @ TOR
p361
aVL
p362
aI10
aI1
aI3
aF0.333
aI0
aI0
aF0.0
aI2
aI2
aF1.0
aI1
aI3
aI4
aI1
aI1
aI0
aI2
aI4
aI4
aI3
aa(lp363
V0021201138
p364
aVAPR 06, 2013
p365
aVWAS vs. IND
p366
aVW
p367
aI36
aI7
aI10
aF0.7
aI0
aI0
aF0.0
aI1
aI2
aF0.5
aI1
aI3
aI4
aI2
aI0
aI1
aI1
aI4
aI15
aI0
aa(lp368
V0021201147
p369
aVAPR 07, 2013
p370
aVWAS @ BOS
p371
aVL
p372
aI25
aI5
aI6
aF0.833
aI0
aI0
aF0.0
aI0
aI0
aF0.0
aI2
aI2
aI4
aI1
aI0
aI1
aI4
aI1
aI10
aI-4
aa(lp373
V0021201156
p374
aVAPR 09, 2013
p375
aVWAS @ NYK
p376
aVL
p377
aI19
aI3
aI6
aF0.5
aI0
aI0
aF0.0
aI0
aI0
aF0.0
aI1
aI2
aI3
aI0
aI2
aI2
aI3
aI1
aI6
aI-2
aa(lp378
V0021201165
p379
aVAPR 10, 2013
p380
aVWAS vs. MIA
p381
aVL
p382
aI20
aI4
aI8
aF0.5
aI0
aI0
aF0.0
aI1
aI2
aF0.5
aI0
aI3
aI3
aI0
aI0
aI2
aI2
aI2
aI9
aI3
aa(lp383
V0021201177
p384
aVAPR 12, 2013
p385
aVWAS vs. PHI
p386
aVL
p387
aI29
aI5
aI13
aF0.385
aI0
aI0
aF0.0
aI0
aI0
aF0.0
aI2
aI4
aI6
aI0
aI1
aI3
aI2
aI2
aI10
aI0
aa(lp388
V0021201205
p389
aVAPR 15, 2013
p390
aVWAS @ BKN
p391
aVL
p392
aI26
aI8
aI12
aF0.667
aI0
aI0
aF0.0
aI1
aI1
aF1.0
aI2
aI5
aI7
aI0
aI0
aI1
aI2
aI4
aI17
aI-13
aa(lp393
V0021201222
p394
aVAPR 17, 2013
p395
aVWAS @ CHI
p396
aVL
p397
aI31
aI4
aI9
aF0.444
aI0
aI0
aF0.0
aI2
aI2
aF1.0
aI1
aI8
aI9
aI3
aI0
aI2
aI2
aI3
aI10
aI-14
aasS'name'
p398
VKevin Seraphin
p399
sS'weight'
p400
V278
p401
sS'age'
p402
I23
sS'experience'
p403
I2
sS'height'
p404
V6-10
p405
sS'position'
p406
VForward-Center
p407
s.