(dp0
S'stats'
p1
(lp2
(lp3
V0021200885
p4
aVMAR 03, 2013
p5
aVDAL @ HOU
p6
aVL
p7
aI10
aI1
aI1
aF1.0
aI0
aI0
aF0.0
aI0
aI0
aF0.0
aI0
aI0
aI0
aI0
aI0
aI0
aI1
aI1
aI2
aI-7
aI1
aa(lp8
V0021200806
p9
aVFEB 20, 2013
p10
aVDAL vs. ORL
p11
aVW
p12
aI1
aI0
aI0
aF0.0
aI0
aI0
aF0.0
aI0
aI0
aF0.0
aI0
aI0
aI0
aI1
aI0
aI0
aI0
aI0
aI0
aI-3
aI1
aa(lp13
V0021200750
p14
aVFEB 09, 2013
p15
aVDAL vs. GSW
p16
aVW
p17
aI3
aI0
aI1
aF0.0
aI0
aI0
aF0.0
aI0
aI0
aF0.0
aI0
aI1
aI1
aI1
aI0
aI0
aI0
aI0
aI0
aI2
aI1
aa(lp18
V0021200712
p19
aVFEB 04, 2013
p20
aVDAL @ OKC
p21
aVL
p22
aI14
aI5
aI8
aF0.625
aI0
aI0
aF0.0
aI5
aI7
aF0.714
aI1
aI1
aI2
aI2
aI0
aI1
aI0
aI0
aI15
aI6
aI1
aa(lp23
V0021200683
p24
aVJAN 31, 2013
p25
aVDAL @ GSW
p26
aVL
p27
aI1
aI0
aI0
aF0.0
aI0
aI0
aF0.0
aI0
aI0
aF0.0
aI0
aI0
aI0
aI0
aI0
aI0
aI1
aI0
aI0
aI-2
aI1
aa(lp28
V0021200449
p29
aVDEC 30, 2012
p30
aVDAL vs. SAS
p31
aVL
p32
aI4
aI0
aI0
aF0.0
aI0
aI0
aF0.0
aI0
aI0
aF0.0
aI0
aI0
aI0
aI0
aI0
aI0
aI0
aI0
aI0
aI-5
aI1
aa(lp33
V0021200431
p34
aVDEC 28, 2012
p35
aVDAL vs. DEN
p36
aVL
p37
aI8
aI0
aI0
aF0.0
aI0
aI0
aF0.0
aI0
aI0
aF0.0
aI0
aI2
aI2
aI3
aI0
aI0
aI1
aI0
aI0
aI-2
aI1
aa(lp38
V0021200423
p39
aVDEC 27, 2012
p40
aVDAL @ OKC
p41
aVL
p42
aI13
aI2
aI5
aF0.4
aI1
aI1
aF1.0
aI1
aI1
aF1.0
aI0
aI0
aI0
aI3
aI1
aI0
aI1
aI0
aI6
aI3
aI1
aa(lp43
V0021200402
p44
aVDEC 23, 2012
p45
aVDAL @ SAS
p46
aVL
p47
aI20
aI1
aI7
aF0.143
aI0
aI1
aF0.0
aI3
aI6
aF0.5
aI1
aI1
aI2
aI4
aI2
aI0
aI2
aI1
aI5
aI-20
aI1
aa(lp48
V0021200386
p49
aVDEC 21, 2012
p50
aVDAL @ MEM
p51
aVL
p52
aI32
aI4
aI9
aF0.444
aI0
aI0
aF0.0
aI5
aI5
aF1.0
aI3
aI0
aI3
aI7
aI1
aI0
aI5
aI3
aI13
aI0
aI1
aa(lp53
V0021200378
p54
aVDEC 20, 2012
p55
aVDAL vs. MIA
p56
aVL
p57
aI26
aI2
aI9
aF0.222
aI0
aI0
aF0.0
aI3
aI4
aF0.75
aI0
aI1
aI1
aI7
aI1
aI0
aI2
aI3
aI7
aI0
aI1
aa(lp58
V0021200362
p59
aVDEC 18, 2012
p60
aVDAL vs. PHI
p61
aVW
p62
aI16
aI3
aI4
aF0.75
aI0
aI0
aF0.0
aI2
aI2
aF1.0
aI0
aI0
aI0
aI3
aI0
aI0
aI1
aI0
aI8
aI-4
aI0
aa(lp63
V0021200342
p64
aVDEC 15, 2012
p65
aVDAL @ MIN
p66
aVL
p67
aI17
aI2
aI3
aF0.667
aI0
aI0
aF0.0
aI2
aI2
aF1.0
aI0
aI4
aI4
aI2
aI0
aI0
aI2
aI4
aI6
aI3
aI1
aa(lp68
V0021200325
p69
aVDEC 14, 2012
p70
aVDAL @ TOR
p71
aVL
p72
aI8
aI1
aI3
aF0.333
aI0
aI0
aF0.0
aI2
aI2
aF1.0
aI1
aI2
aI3
aI4
aI0
aI0
aI2
aI1
aI4
aI-1
aI1
aa(lp73
V0021200315
p74
aVDEC 12, 2012
p75
aVDAL @ BOS
p76
aVL
p77
aI2
aI0
aI0
aF0.0
aI0
aI0
aF0.0
aI0
aI0
aF0.0
aI0
aI1
aI1
aI0
aI0
aI0
aI0
aI0
aI0
aI-2
aI1
aa(lp78
V0021200290
p79
aVDEC 08, 2012
p80
aVDAL @ HOU
p81
aVW
p82
aI9
aI0
aI1
aF0.0
aI0
aI0
aF0.0
aI0
aI0
aF0.0
aI1
aI0
aI1
aI2
aI0
aI0
aI2
aI0
aI0
aI1
aI1
aa(lp83
V0021200267
p84
aVDEC 05, 2012
p85
aVDAL @ LAC
p86
aVL
p87
aI3
aI0
aI1
aF0.0
aI0
aI0
aF0.0
aI0
aI0
aF0.0
aI0
aI0
aI0
aI1
aI0
aI0
aI0
aI1
aI0
aI0
aI1
aa(lp88
V0021200214
p89
aVNOV 28, 2012
p90
aVDAL @ CHI
p91
aVL
p92
aI24
aI4
aI9
aF0.444
aI0
aI1
aF0.0
aI2
aI2
aF1.0
aI0
aI1
aI1
aI5
aI1
aI0
aI1
aI3
aI10
aI-10
aI1
aa(lp93
V0021200204
p94
aVNOV 27, 2012
p95
aVDAL @ PHI
p96
aVL
p97
aI18
aI0
aI5
aF0.0
aI0
aI1
aF0.0
aI2
aI2
aF1.0
aI0
aI1
aI1
aI3
aI1
aI0
aI4
aI2
aI2
aI-11
aI1
aa(lp98
V0021200187
p99
aVNOV 24, 2012
p100
aVDAL vs. LAL
p101
aVL
p102
aI11
aI1
aI1
aF1.0
aI0
aI0
aF0.0
aI0
aI4
aF0.0
aI1
aI0
aI1
aI3
aI0
aI0
aI0
aI0
aI2
aI-6
aI1
aa(lp103
V0021200167
p104
aVNOV 21, 2012
p105
aVDAL vs. NYK
p106
aVW
p107
aI15
aI2
aI9
aF0.222
aI0
aI0
aF0.0
aI0
aI0
aF0.0
aI4
aI2
aI6
aI5
aI0
aI0
aI1
aI1
aI4
aI7
aI1
aa(lp108
V0021200151
p109
aVNOV 19, 2012
p110
aVDAL vs. GSW
p111
aVL
p112
aI15
aI2
aI6
aF0.333
aI0
aI0
aF0.0
aI3
aI4
aF0.75
aI0
aI3
aI3
aI4
aI1
aI0
aI3
aI1
aI7
aI5
aI1
aa(lp113
V0021200135
p114
aVNOV 17, 2012
p115
aVDAL @ CLE
p116
aVW
p117
aI18
aI5
aI11
aF0.455
aI0
aI2
aF0.0
aI0
aI0
aF0.0
aI1
aI3
aI4
aI5
aI2
aI0
aI3
aI0
aI10
aI5
aI1
aa(lp118
V0021200083
p119
aVNOV 10, 2012
p120
aVDAL @ CHA
p121
aVL
p122
aI2
aI0
aI2
aF0.0
aI0
aI1
aF0.0
aI0
aI2
aF0.0
aI2
aI1
aI3
aI0
aI0
aI1
aI0
aI1
aI0
aI3
aI1
aa(lp123
V0021200071
p124
aVNOV 09, 2012
p125
aVDAL @ NYK
p126
aVL
p127
aI4
aI1
aI2
aF0.5
aI0
aI0
aF0.0
aI0
aI0
aF0.0
aI0
aI0
aI0
aI1
aI0
aI0
aI0
aI0
aI2
aI-3
aI1
aa(lp128
V0021200061
p129
aVNOV 07, 2012
p130
aVDAL vs. TOR
p131
aVW
p132
aI13
aI0
aI2
aF0.0
aI0
aI0
aF0.0
aI1
aI4
aF0.25
aI1
aI2
aI3
aI5
aI0
aI0
aI2
aI4
aI1
aI7
aI1
aa(lp133
V0021200046
p134
aVNOV 05, 2012
p135
aVDAL vs. POR
p136
aVW
p137
aI14
aI3
aI4
aF0.75
aI0
aI1
aF0.0
aI0
aI2
aF0.0
aI0
aI1
aI1
aI6
aI3
aI0
aI1
aI1
aI6
aI6
aI1
aa(lp138
V0021200034
p139
aVNOV 03, 2012
p140
aVDAL vs. CHA
p141
aVW
p142
aI16
aI1
aI6
aF0.167
aI0
aI1
aF0.0
aI4
aI4
aF1.0
aI2
aI0
aI2
aI6
aI1
aI0
aI3
aI2
aI6
aI6
aI1
aa(lp143
V0021200009
p144
aVOCT 31, 2012
p145
aVDAL @ UTA
p146
aVL
p147
aI1
aI0
aI0
aF0.0
aI0
aI0
aF0.0
aI0
aI0
aF0.0
aI0
aI0
aI0
aI0
aI0
aI0
aI0
aI0
aI0
aI0
aI1
aasS'name'
p148
VDominique Jones
p149
s.