(dp0
S'age'
p1
I24
sS'stats'
p2
(lp3
(lp4
V0021201096
p5
aVMAR 31, 2013
p6
aVNOH vs. CLE
p7
aVW
p8
aI0
aI0
aI0
aF0.0
aI0
aI0
aF0.0
aI0
aI0
aF0.0
aI0
aI0
aI0
aI0
aI0
aI0
aI0
aI0
aI0
aI0
aa(lp9
V0021201080
p10
aVMAR 29, 2013
p11
aVNOH vs. MIA
p12
aVL
p13
aI10
aI3
aI4
aF0.75
aI0
aI0
aF0.0
aI0
aI0
aF0.0
aI0
aI0
aI0
aI1
aI0
aI0
aI0
aI3
aI6
aI-1
aa(lp14
V0021201051
p15
aVMAR 25, 2013
p16
aVNOH vs. DEN
p17
aVW
p18
aI1
aI0
aI0
aF0.0
aI0
aI0
aF0.0
aI2
aI2
aF1.0
aI0
aI0
aI0
aI0
aI0
aI0
aI0
aI0
aI2
aI2
aa(lp19
V0021201013
p20
aVMAR 20, 2013
p21
aVNOH vs. BOS
p22
aVW
p23
aI3
aI0
aI0
aF0.0
aI0
aI0
aF0.0
aI0
aI0
aF0.0
aI0
aI1
aI1
aI1
aI0
aI0
aI0
aI1
aI0
aI3
aa(lp24
V0021201001
p25
aVMAR 18, 2013
p26
aVNOH vs. GSW
p27
aVL
p28
aI1
aI0
aI0
aF0.0
aI0
aI0
aF0.0
aI0
aI0
aF0.0
aI0
aI0
aI0
aI0
aI0
aI0
aI0
aI0
aI0
aI-2
aa(lp29
V0021200970
p30
aVMAR 15, 2013
p31
aVNOH @ WAS
p32
aVL
p33
aI16
aI1
aI1
aF1.0
aI0
aI0
aF0.0
aI1
aI3
aF0.333
aI0
aI2
aI2
aI0
aI0
aI0
aI0
aI2
aI3
aI0
aa(lp34
V0021200951
p35
aVMAR 12, 2013
p36
aVNOH @ BKN
p37
aVL
p38
aI18
aI4
aI4
aF1.0
aI0
aI0
aF0.0
aI4
aI4
aF1.0
aI2
aI2
aI4
aI1
aI2
aI1
aI2
aI2
aI12
aI-1
aa(lp39
V0021200939
p40
aVMAR 10, 2013
p41
aVNOH vs. POR
p42
aVW
p43
aI10
aI3
aI4
aF0.75
aI0
aI0
aF0.0
aI1
aI1
aF1.0
aI3
aI0
aI3
aI0
aI0
aI0
aI0
aI2
aI7
aI14
aa(lp44
V0021200930
p45
aVMAR 09, 2013
p46
aVNOH @ MEM
p47
aVL
p48
aI1
aI0
aI0
aF0.0
aI0
aI0
aF0.0
aI0
aI0
aF0.0
aI0
aI0
aI0
aI0
aI0
aI0
aI0
aI0
aI0
aI4
aa(lp49
V0021200906
p50
aVMAR 06, 2013
p51
aVNOH vs. LAL
p52
aVL
p53
aI1
aI0
aI0
aF0.0
aI0
aI0
aF0.0
aI0
aI0
aF0.0
aI0
aI0
aI0
aI0
aI0
aI0
aI0
aI1
aI0
aI-3
aa(lp54
V0021200891
p55
aVMAR 04, 2013
p56
aVNOH vs. ORL
p57
aVL
p58
aI7
aI0
aI0
aF0.0
aI0
aI0
aF0.0
aI0
aI0
aF0.0
aI1
aI2
aI3
aI1
aI0
aI0
aI0
aI0
aI0
aI-2
aa(lp59
V0021200871
p60
aVMAR 01, 2013
p61
aVNOH vs. DET
p62
aVW
p63
aI17
aI1
aI3
aF0.333
aI0
aI0
aF0.0
aI3
aI4
aF0.75
aI2
aI2
aI4
aI0
aI0
aI1
aI0
aI3
aI5
aI-2
aa(lp64
V0021200857
p65
aVFEB 27, 2013
p66
aVNOH @ OKC
p67
aVL
p68
aI22
aI3
aI3
aF1.0
aI0
aI0
aF0.0
aI2
aI2
aF1.0
aI1
aI1
aI2
aI0
aI1
aI0
aI1
aI5
aI8
aI-14
aa(lp69
V0021200847
p70
aVFEB 26, 2013
p71
aVNOH vs. BKN
p72
aVL
p73
aI5
aI0
aI0
aF0.0
aI0
aI0
aF0.0
aI0
aI0
aF0.0
aI0
aI0
aI0
aI0
aI0
aI0
aI0
aI0
aI0
aI-3
aa(lp74
V0021200834
p75
aVFEB 24, 2013
p76
aVNOH vs. SAC
p77
aVW
p78
aI1
aI0
aI0
aF0.0
aI0
aI0
aF0.0
aI0
aI0
aF0.0
aI0
aI0
aI0
aI0
aI0
aI0
aI0
aI0
aI0
aI-5
aa(lp79
V0021200818
p80
aVFEB 22, 2013
p81
aVNOH vs. DAL
p82
aVL
p83
aI11
aI1
aI2
aF0.5
aI0
aI0
aF0.0
aI0
aI0
aF0.0
aI0
aI0
aI0
aI0
aI0
aI0
aI0
aI2
aI2
aI2
aa(lp84
V0021200793
p85
aVFEB 19, 2013
p86
aVNOH vs. CHI
p87
aVL
p88
aI6
aI1
aI2
aF0.5
aI0
aI0
aF0.0
aI0
aI0
aF0.0
aI1
aI1
aI2
aI1
aI0
aI0
aI0
aI0
aI2
aI3
aa(lp89
V0021200783
p90
aVFEB 13, 2013
p91
aVNOH vs. POR
p92
aVW
p93
aI4
aI0
aI0
aF0.0
aI0
aI0
aF0.0
aI2
aI4
aF0.5
aI1
aI1
aI2
aI0
aI1
aI0
aI0
aI1
aI2
aI-1
aa(lp94
V0021200755
p95
aVFEB 10, 2013
p96
aVNOH @ TOR
p97
aVL
p98
aI6
aI0
aI1
aF0.0
aI0
aI0
aF0.0
aI0
aI0
aF0.0
aI0
aI3
aI3
aI1
aI0
aI1
aI0
aI1
aI0
aI9
aa(lp99
V0021200700
p100
aVFEB 02, 2013
p101
aVNOH @ MIN
p102
aVL
p103
aI13
aI0
aI0
aF0.0
aI0
aI0
aF0.0
aI2
aI2
aF1.0
aI0
aI0
aI0
aI0
aI1
aI0
aI0
aI1
aI2
aI-11
aa(lp104
V0021200680
p105
aVJAN 30, 2013
p106
aVNOH @ UTA
p107
aVL
p108
aI4
aI0
aI1
aF0.0
aI0
aI0
aF0.0
aI2
aI2
aF1.0
aI0
aI0
aI0
aI0
aI0
aI0
aI1
aI2
aI2
aI-6
aa(lp109
V0021200669
p110
aVJAN 29, 2013
p111
aVNOH @ LAL
p112
aVL
p113
aI18
aI0
aI1
aF0.0
aI0
aI0
aF0.0
aI0
aI0
aF0.0
aI0
aI4
aI4
aI1
aI0
aI0
aI1
aI1
aI0
aI-11
aa(lp114
V0021200655
p115
aVJAN 27, 2013
p116
aVNOH @ MEM
p117
aVW
p118
aI15
aI1
aI3
aF0.333
aI0
aI0
aF0.0
aI0
aI0
aF0.0
aI2
aI1
aI3
aI0
aI0
aI0
aI0
aI1
aI2
aI5
aa(lp119
V0021200638
p120
aVJAN 25, 2013
p121
aVNOH vs. HOU
p122
aVL
p123
aI4
aI0
aI2
aF0.0
aI0
aI0
aF0.0
aI0
aI0
aF0.0
aI0
aI0
aI0
aI0
aI0
aI0
aI0
aI0
aI0
aI-5
aa(lp124
V0021200624
p125
aVJAN 23, 2013
p126
aVNOH @ SAS
p127
aVL
p128
aI2
aI0
aI0
aF0.0
aI0
aI0
aF0.0
aI0
aI0
aF0.0
aI0
aI0
aI0
aI0
aI0
aI0
aI0
aI1
aI0
aI8
aa(lp129
V0021200606
p130
aVJAN 21, 2013
p131
aVNOH vs. SAC
p132
aVW
p133
aI13
aI2
aI3
aF0.667
aI0
aI0
aF0.0
aI0
aI0
aF0.0
aI1
aI0
aI1
aI0
aI0
aI0
aI0
aI3
aI4
aI-1
aa(lp134
V0021200596
p135
aVJAN 19, 2013
p136
aVNOH vs. GSW
p137
aVL
p138
aI3
aI0
aI0
aF0.0
aI0
aI0
aF0.0
aI1
aI2
aF0.5
aI1
aI1
aI2
aI0
aI1
aI0
aI1
aI1
aI1
aI2
aa(lp139
V0021200573
p140
aVJAN 16, 2013
p141
aVNOH @ BOS
p142
aVW
p143
aI3
aI0
aI0
aF0.0
aI0
aI0
aF0.0
aI0
aI0
aF0.0
aI0
aI0
aI0
aI0
aI0
aI0
aI1
aI1
aI0
aI-5
aa(lp144
V0021200549
p145
aVJAN 13, 2013
p146
aVNOH @ NYK
p147
aVL
p148
aI13
aI0
aI0
aF0.0
aI0
aI0
aF0.0
aI0
aI0
aF0.0
aI1
aI2
aI3
aI1
aI0
aI0
aI1
aI2
aI0
aI-9
aa(lp149
V0021200536
p150
aVJAN 11, 2013
p151
aVNOH vs. MIN
p152
aVW
p153
aI12
aI1
aI2
aF0.5
aI0
aI0
aF0.0
aI0
aI0
aF0.0
aI2
aI2
aI4
aI1
aI0
aI0
aI0
aI2
aI2
aI-1
aa(lp154
V0021200521
p155
aVJAN 09, 2013
p156
aVNOH vs. HOU
p157
aVW
p158
aI7
aI2
aI3
aF0.667
aI0
aI0
aF0.0
aI0
aI0
aF0.0
aI1
aI1
aI2
aI1
aI0
aI0
aI0
aI0
aI4
aI1
aa(lp159
V0021200507
p160
aVJAN 07, 2013
p161
aVNOH vs. SAS
p162
aVW
p163
aI11
aI1
aI2
aF0.5
aI0
aI0
aF0.0
aI0
aI0
aF0.0
aI1
aI2
aI3
aI1
aI0
aI0
aI0
aI2
aI2
aI-1
aa(lp164
V0021200495
p165
aVJAN 05, 2013
p166
aVNOH @ DAL
p167
aVW
p168
aI14
aI1
aI1
aF1.0
aI0
aI0
aF0.0
aI0
aI0
aF0.0
aI0
aI0
aI0
aI0
aI0
aI0
aI0
aI1
aI2
aI-1
aa(lp169
V0021200471
p170
aVJAN 02, 2013
p171
aVNOH @ HOU
p172
aVL
p173
aI10
aI1
aI2
aF0.5
aI0
aI0
aF0.0
aI0
aI0
aF0.0
aI0
aI2
aI2
aI0
aI0
aI0
aI1
aI1
aI2
aI-8
aa(lp174
V0021200461
p175
aVJAN 01, 2013
p176
aVNOH vs. ATL
p177
aVL
p178
aI15
aI1
aI3
aF0.333
aI0
aI0
aF0.0
aI0
aI0
aF0.0
aI2
aI1
aI3
aI0
aI0
aI0
aI0
aI1
aI2
aI-1
aa(lp179
V0021200437
p180
aVDEC 29, 2012
p181
aVNOH @ CHA
p182
aVW
p183
aI13
aI1
aI4
aF0.25
aI0
aI0
aF0.0
aI0
aI0
aF0.0
aI0
aI0
aI0
aI1
aI0
aI1
aI0
aI2
aI2
aI10
aa(lp184
V0021200430
p185
aVDEC 28, 2012
p186
aVNOH vs. TOR
p187
aVL
p188
aI28
aI0
aI0
aF0.0
aI0
aI0
aF0.0
aI1
aI2
aF0.5
aI0
aI4
aI4
aI1
aI0
aI1
aI0
aI5
aI1
aI-2
aa(lp189
V0021200412
p190
aVDEC 26, 2012
p191
aVNOH @ ORL
p192
aVW
p193
aI22
aI0
aI2
aF0.0
aI0
aI0
aF0.0
aI0
aI0
aF0.0
aI0
aI2
aI2
aI1
aI0
aI0
aI0
aI3
aI0
aI3
aa(lp194
V0021200393
p195
aVDEC 22, 2012
p196
aVNOH vs. IND
p197
aVL
p198
aI22
aI1
aI2
aF0.5
aI0
aI0
aF0.0
aI0
aI0
aF0.0
aI1
aI0
aI1
aI0
aI1
aI0
aI1
aI2
aI2
aI-3
aa(lp199
V0021200387
p200
aVDEC 21, 2012
p201
aVNOH @ SAS
p202
aVL
p203
aI15
aI1
aI3
aF0.333
aI0
aI0
aF0.0
aI0
aI0
aF0.0
aI0
aI1
aI1
aI0
aI0
aI0
aI0
aI0
aI2
aI-6
aa(lp204
V0021200376
p205
aVDEC 19, 2012
p206
aVNOH @ LAC
p207
aVL
p208
aI22
aI1
aI1
aF1.0
aI0
aI0
aF0.0
aI1
aI2
aF0.5
aI2
aI4
aI6
aI0
aI0
aI0
aI0
aI2
aI3
aI-12
aa(lp209
V0021200365
p210
aVDEC 18, 2012
p211
aVNOH @ GSW
p212
aVL
p213
aI20
aI2
aI2
aF1.0
aI0
aI0
aF0.0
aI0
aI0
aF0.0
aI0
aI3
aI3
aI0
aI0
aI0
aI1
aI3
aI4
aI-4
aa(lp214
V0021200349
p215
aVDEC 16, 2012
p216
aVNOH @ POR
p217
aVL
p218
aI17
aI4
aI5
aF0.8
aI0
aI0
aF0.0
aI0
aI0
aF0.0
aI4
aI3
aI7
aI2
aI0
aI0
aI0
aI2
aI8
aI6
aa(lp219
V0021200331
p220
aVDEC 14, 2012
p221
aVNOH vs. MIN
p222
aVL
p223
aI7
aI0
aI3
aF0.0
aI0
aI0
aF0.0
aI0
aI0
aF0.0
aI0
aI0
aI0
aI0
aI0
aI0
aI0
aI1
aI0
aI-1
aa(lp224
V0021200307
p225
aVDEC 11, 2012
p226
aVNOH vs. WAS
p227
aVL
p228
aI7
aI0
aI0
aF0.0
aI0
aI0
aF0.0
aI0
aI0
aF0.0
aI0
aI0
aI0
aI0
aI0
aI0
aI0
aI1
aI0
aI-8
aa(lp229
V0021200286
p230
aVDEC 08, 2012
p231
aVNOH @ MIA
p232
aVL
p233
aI15
aI0
aI4
aF0.0
aI0
aI0
aF0.0
aI0
aI0
aF0.0
aI1
aI3
aI4
aI0
aI1
aI0
aI0
aI0
aI0
aI-15
aa(lp234
V0021200275
p235
aVDEC 07, 2012
p236
aVNOH vs. MEM
p237
aVL
p238
aI14
aI0
aI0
aF0.0
aI0
aI0
aF0.0
aI0
aI0
aF0.0
aI1
aI3
aI4
aI0
aI0
aI0
aI0
aI1
aI0
aI8
aa(lp239
V0021200263
p240
aVDEC 05, 2012
p241
aVNOH vs. LAL
p242
aVL
p243
aI13
aI2
aI2
aF1.0
aI0
aI0
aF0.0
aI1
aI1
aF1.0
aI1
aI1
aI2
aI0
aI0
aI0
aI1
aI0
aI5
aI-8
aa(lp244
V0021200247
p245
aVDEC 03, 2012
p246
aVNOH vs. MIL
p247
aVW
p248
aI15
aI4
aI5
aF0.8
aI0
aI0
aF0.0
aI2
aI2
aF1.0
aI2
aI1
aI3
aI0
aI1
aI0
aI0
aI0
aI10
aI12
aa(lp249
V0021200236
p250
aVDEC 01, 2012
p251
aVNOH vs. OKC
p252
aVL
p253
aI19
aI1
aI3
aF0.333
aI0
aI0
aF0.0
aI1
aI2
aF0.5
aI3
aI3
aI6
aI1
aI0
aI1
aI0
aI0
aI3
aI-10
aa(lp254
V0021200217
p255
aVNOV 28, 2012
p256
aVNOH vs. UTA
p257
aVL
p258
aI9
aI1
aI2
aF0.5
aI0
aI0
aF0.0
aI1
aI1
aF1.0
aI1
aI0
aI1
aI0
aI0
aI0
aI0
aI1
aI3
aI-4
aa(lp259
V0021200203
p260
aVNOV 26, 2012
p261
aVNOH @ LAC
p262
aVW
p263
aI10
aI1
aI3
aF0.333
aI0
aI0
aF0.0
aI2
aI2
aF1.0
aI1
aI1
aI2
aI0
aI0
aI0
aI0
aI0
aI4
aI14
aa(lp264
V0021200196
p265
aVNOV 25, 2012
p266
aVNOH @ DEN
p267
aVL
p268
aI15
aI0
aI4
aF0.0
aI0
aI0
aF0.0
aI3
aI6
aF0.5
aI2
aI1
aI3
aI0
aI0
aI0
aI0
aI4
aI3
aI9
aa(lp269
V0021200181
p270
aVNOV 23, 2012
p271
aVNOH @ PHX
p272
aVL
p273
aI17
aI2
aI3
aF0.667
aI0
aI0
aF0.0
aI4
aI5
aF0.8
aI0
aI2
aI2
aI0
aI2
aI0
aI1
aI3
aI8
aI-3
aa(lp274
V0021200160
p275
aVNOV 21, 2012
p276
aVNOH @ IND
p277
aVL
p278
aI5
aI1
aI1
aF1.0
aI0
aI0
aF0.0
aI3
aI4
aF0.75
aI0
aI0
aI0
aI0
aI0
aI0
aI0
aI2
aI5
aI0
aa(lp279
V0021200155
p280
aVNOV 20, 2012
p281
aVNOH vs. NYK
p282
aVL
p283
aI22
aI3
aI4
aF0.75
aI0
aI0
aF0.0
aI2
aI2
aF1.0
aI0
aI3
aI3
aI0
aI0
aI1
aI1
aI1
aI8
aI0
aa(lp284
V0021200125
p285
aVNOV 16, 2012
p286
aVNOH vs. OKC
p287
aVL
p288
aI9
aI1
aI3
aF0.333
aI0
aI0
aF0.0
aI1
aI2
aF0.5
aI2
aI2
aI4
aI0
aI0
aI0
aI0
aI1
aI3
aI5
aa(lp289
V0021200058
p290
aVNOV 07, 2012
p291
aVNOH vs. PHI
p292
aVL
p293
aI7
aI0
aI1
aF0.0
aI0
aI0
aF0.0
aI1
aI2
aF0.5
aI1
aI2
aI3
aI0
aI0
aI0
aI0
aI0
aI1
aI-1
aa(lp294
V0021200031
p295
aVNOV 03, 2012
p296
aVNOH @ CHI
p297
aVW
p298
aI5
aI0
aI2
aF0.0
aI0
aI0
aF0.0
aI0
aI0
aF0.0
aI0
aI1
aI1
aI0
aI0
aI0
aI0
aI1
aI0
aI-3
aasS'name'
p299
VLance Thomas
p300
sS'experience'
p301
I1
s.