(dp0
S'age'
p1
I21
sS'stats'
p2
(lp3
(lp4
V0021201219
p5
aVAPR 17, 2013
p6
aVCLE @ CHA
p7
aVL
p8
aI37
aI3
aI9
aF0.333
aI0
aI0
aF0.0
aI2
aI6
aF0.333
aI2
aI8
aI10
aI1
aI0
aI0
aI2
aI4
aI8
aI-9
aa(lp9
V0021201204
p10
aVAPR 15, 2013
p11
aVCLE vs. MIA
p12
aVL
p13
aI36
aI7
aI14
aF0.5
aI0
aI0
aF0.0
aI2
aI4
aF0.5
aI8
aI5
aI13
aI0
aI0
aI2
aI1
aI3
aI16
aI-8
aa(lp14
V0021201197
p15
aVAPR 14, 2013
p16
aVCLE @ PHI
p17
aVL
p18
aI26
aI5
aI10
aF0.5
aI0
aI0
aF0.0
aI2
aI3
aF0.667
aI3
aI9
aI12
aI2
aI0
aI3
aI1
aI1
aI12
aI-20
aa(lp19
V0021201182
p20
aVAPR 12, 2013
p21
aVCLE vs. NYK
p22
aVL
p23
aI31
aI6
aI7
aF0.857
aI0
aI0
aF0.0
aI3
aI8
aF0.375
aI4
aI7
aI11
aI2
aI0
aI0
aI5
aI1
aI15
aI1
aa(lp24
V0021201167
p25
aVAPR 10, 2013
p26
aVCLE vs. DET
p27
aVL
p28
aI35
aI8
aI13
aF0.615
aI0
aI0
aF0.0
aI3
aI6
aF0.5
aI3
aI5
aI8
aI1
aI2
aI1
aI1
aI5
aI19
aI-9
aa(lp29
V0021201154
p30
aVAPR 09, 2013
p31
aVCLE @ IND
p32
aVL
p33
aI35
aI4
aI12
aF0.333
aI0
aI0
aF0.0
aI2
aI3
aF0.667
aI3
aI4
aI7
aI1
aI1
aI1
aI0
aI3
aI10
aI-5
aa(lp34
V0021201148
p35
aVAPR 07, 2013
p36
aVCLE vs. ORL
p37
aVW
p38
aI37
aI5
aI14
aF0.357
aI0
aI0
aF0.0
aI5
aI8
aF0.625
aI8
aI8
aI16
aI1
aI0
aI3
aI2
aI2
aI15
aI-2
aa(lp39
V0021201127
p40
aVAPR 05, 2013
p41
aVCLE @ BOS
p42
aVW
p43
aI41
aI10
aI17
aF0.588
aI0
aI0
aF0.0
aI9
aI9
aF1.0
aI7
aI10
aI17
aI1
aI0
aI1
aI1
aI3
aI29
aI9
aa(lp44
V0021201114
p45
aVAPR 03, 2013
p46
aVCLE vs. BKN
p47
aVL
p48
aI27
aI4
aI11
aF0.364
aI0
aI0
aF0.0
aI0
aI1
aF0.0
aI2
aI6
aI8
aI2
aI0
aI0
aI1
aI2
aI8
aI-23
aa(lp49
V0021201101
p50
aVAPR 01, 2013
p51
aVCLE @ ATL
p52
aVL
p53
aI23
aI2
aI6
aF0.333
aI0
aI0
aF0.0
aI1
aI3
aF0.333
aI0
aI6
aI6
aI2
aI0
aI0
aI3
aI4
aI5
aI-9
aa(lp54
V0021201096
p55
aVMAR 31, 2013
p56
aVCLE @ NOH
p57
aVL
p58
aI29
aI6
aI9
aF0.667
aI0
aI0
aF0.0
aI0
aI1
aF0.0
aI2
aI8
aI10
aI1
aI0
aI2
aI1
aI4
aI12
aI1
aa(lp59
V0021201078
p60
aVMAR 29, 2013
p61
aVCLE vs. PHI
p62
aVL
p63
aI23
aI4
aI11
aF0.364
aI0
aI0
aF0.0
aI2
aI7
aF0.286
aI3
aI2
aI5
aI1
aI0
aI1
aI1
aI0
aI10
aI-16
aa(lp64
V0021201060
p65
aVMAR 27, 2013
p66
aVCLE vs. BOS
p67
aVL
p68
aI24
aI1
aI6
aF0.167
aI0
aI0
aF0.0
aI0
aI2
aF0.0
aI2
aI7
aI9
aI0
aI0
aI0
aI2
aI2
aI2
aI7
aa(lp69
V0021201028
p70
aVMAR 22, 2013
p71
aVCLE @ HOU
p72
aVL
p73
aI25
aI3
aI6
aF0.5
aI0
aI0
aF0.0
aI2
aI4
aF0.5
aI1
aI7
aI8
aI1
aI1
aI0
aI1
aI4
aI8
aI-18
aa(lp74
V0021201009
p75
aVMAR 20, 2013
p76
aVCLE vs. MIA
p77
aVL
p78
aI37
aI8
aI15
aF0.533
aI0
aI0
aF0.0
aI2
aI4
aF0.5
aI4
aI4
aI8
aI2
aI3
aI0
aI2
aI2
aI18
aI13
aa(lp79
V0021200995
p80
aVMAR 18, 2013
p81
aVCLE vs. IND
p82
aVL
p83
aI32
aI9
aI16
aF0.563
aI0
aI0
aF0.0
aI2
aI3
aF0.667
aI6
aI5
aI11
aI2
aI0
aI2
aI0
aI3
aI20
aI-14
aa(lp84
V0021200982
p85
aVMAR 16, 2013
p86
aVCLE @ SAS
p87
aVL
p88
aI30
aI3
aI12
aF0.25
aI0
aI1
aF0.0
aI2
aI7
aF0.286
aI3
aI5
aI8
aI0
aI3
aI0
aI1
aI3
aI8
aI-14
aa(lp89
V0021200976
p90
aVMAR 15, 2013
p91
aVCLE @ DAL
p92
aVL
p93
aI30
aI6
aI8
aF0.75
aI0
aI0
aF0.0
aI0
aI1
aF0.0
aI2
aI5
aI7
aI0
aI0
aI0
aI1
aI1
aI12
aI1
aa(lp94
V0021200950
p95
aVMAR 12, 2013
p96
aVCLE vs. WAS
p97
aVW
p98
aI36
aI5
aI8
aF0.625
aI0
aI0
aF0.0
aI3
aI3
aF1.0
aI6
aI8
aI14
aI3
aI0
aI1
aI1
aI4
aI13
aI12
aa(lp99
V0021200936
p100
aVMAR 10, 2013
p101
aVCLE @ TOR
p102
aVL
p103
aI30
aI5
aI12
aF0.417
aI0
aI0
aF0.0
aI1
aI2
aF0.5
aI4
aI6
aI10
aI2
aI0
aI0
aI1
aI4
aI11
aI-3
aa(lp104
V0021200920
p105
aVMAR 08, 2013
p106
aVCLE vs. MEM
p107
aVL
p108
aI32
aI3
aI4
aF0.75
aI0
aI0
aF0.0
aI4
aI6
aF0.667
aI3
aI7
aI10
aI2
aI0
aI2
aI2
aI1
aI10
aI-19
aa(lp109
V0021200900
p110
aVMAR 06, 2013
p111
aVCLE vs. UTA
p112
aVW
p113
aI31
aI6
aI12
aF0.5
aI0
aI0
aF0.0
aI4
aI6
aF0.667
aI3
aI9
aI12
aI1
aI0
aI3
aI2
aI2
aI16
aI5
aa(lp114
V0021200889
p115
aVMAR 04, 2013
p116
aVCLE vs. NYK
p117
aVL
p118
aI32
aI6
aI9
aF0.667
aI0
aI0
aF0.0
aI2
aI4
aF0.5
aI2
aI6
aI8
aI0
aI0
aI1
aI2
aI3
aI14
aI0
aa(lp119
V0021200869
p120
aVMAR 01, 2013
p121
aVCLE vs. LAC
p122
aVL
p123
aI31
aI6
aI13
aF0.462
aI0
aI0
aF0.0
aI3
aI4
aF0.75
aI4
aI8
aI12
aI2
aI0
aI0
aI2
aI3
aI15
aI-11
aa(lp124
V0021200852
p125
aVFEB 27, 2013
p126
aVCLE vs. TOR
p127
aVW
p128
aI31
aI4
aI11
aF0.364
aI0
aI0
aF0.0
aI6
aI6
aF1.0
aI2
aI6
aI8
aI2
aI1
aI0
aI2
aI1
aI14
aI-5
aa(lp129
V0021200846
p130
aVFEB 26, 2013
p131
aVCLE @ CHI
p132
aVW
p133
aI27
aI3
aI8
aF0.375
aI0
aI0
aF0.0
aI4
aI5
aF0.8
aI5
aI3
aI8
aI3
aI2
aI0
aI2
aI5
aI10
aI-10
aa(lp134
V0021200833
p135
aVFEB 24, 2013
p136
aVCLE @ MIA
p137
aVL
p138
aI30
aI5
aI12
aF0.417
aI0
aI0
aF0.0
aI1
aI1
aF1.0
aI2
aI10
aI12
aI0
aI2
aI1
aI0
aI0
aI11
aI0
aa(lp139
V0021200825
p140
aVFEB 23, 2013
p141
aVCLE @ ORL
p142
aVW
p143
aI24
aI1
aI5
aF0.2
aI0
aI0
aF0.0
aI0
aI2
aF0.0
aI5
aI6
aI11
aI3
aI0
aI1
aI2
aI0
aI2
aI15
aa(lp144
V0021200800
p145
aVFEB 20, 2013
p146
aVCLE vs. NOH
p147
aVW
p148
aI33
aI2
aI8
aF0.25
aI0
aI0
aF0.0
aI5
aI12
aF0.417
aI5
aI8
aI13
aI1
aI1
aI1
aI2
aI3
aI9
aI2
aa(lp149
V0021200776
p150
aVFEB 13, 2013
p151
aVCLE vs. SAS
p152
aVL
p153
aI28
aI5
aI13
aF0.385
aI0
aI0
aF0.0
aI0
aI0
aF0.0
aI4
aI3
aI7
aI1
aI0
aI2
aI3
aI2
aI10
aI-1
aa(lp154
V0021200763
p155
aVFEB 11, 2013
p156
aVCLE vs. MIN
p157
aVL
p158
aI34
aI5
aI12
aF0.417
aI0
aI0
aF0.0
aI6
aI7
aF0.857
aI5
aI4
aI9
aI1
aI4
aI2
aI1
aI2
aI16
aI-14
aa(lp159
V0021200747
p160
aVFEB 09, 2013
p161
aVCLE vs. DEN
p162
aVL
p163
aI31
aI4
aI10
aF0.4
aI0
aI1
aF0.0
aI3
aI4
aF0.75
aI4
aI0
aI4
aI0
aI0
aI1
aI3
aI4
aI11
aI-6
aa(lp164
V0021200740
p165
aVFEB 08, 2013
p166
aVCLE vs. ORL
p167
aVW
p168
aI27
aI7
aI11
aF0.636
aI0
aI0
aF0.0
aI2
aI2
aF1.0
aI0
aI5
aI5
aI1
aI2
aI1
aI0
aI2
aI16
aI3
aa(lp169
V0021200724
p170
aVFEB 06, 2013
p171
aVCLE vs. CHA
p172
aVW
p173
aI24
aI7
aI8
aF0.875
aI0
aI0
aF0.0
aI3
aI4
aF0.75
aI2
aI7
aI9
aI3
aI0
aI3
aI0
aI2
aI17
aI21
aa(lp174
V0021200698
p175
aVFEB 02, 2013
p176
aVCLE vs. OKC
p177
aVW
p178
aI38
aI4
aI13
aF0.308
aI0
aI0
aF0.0
aI3
aI4
aF0.75
aI5
aI7
aI12
aI3
aI1
aI0
aI2
aI4
aI11
aI2
aa(lp179
V0021200690
p180
aVFEB 01, 2013
p181
aVCLE @ DET
p182
aVL
p183
aI29
aI9
aI11
aF0.818
aI0
aI1
aF0.0
aI1
aI2
aF0.5
aI1
aI8
aI9
aI1
aI0
aI0
aI1
aI2
aI19
aI-19
aa(lp184
V0021200666
p185
aVJAN 29, 2013
p186
aVCLE vs. GSW
p187
aVL
p188
aI37
aI8
aI14
aF0.571
aI0
aI0
aF0.0
aI2
aI2
aF1.0
aI5
aI6
aI11
aI1
aI2
aI1
aI0
aI5
aI18
aI-18
aa(lp189
V0021200642
p190
aVJAN 26, 2013
p191
aVCLE @ TOR
p192
aVW
p193
aI33
aI7
aI12
aF0.583
aI0
aI0
aF0.0
aI0
aI0
aF0.0
aI4
aI4
aI8
aI1
aI1
aI3
aI4
aI4
aI14
aI-2
aa(lp194
V0021200635
p195
aVJAN 25, 2013
p196
aVCLE vs. MIL
p197
aVW
p198
aI28
aI8
aI14
aF0.571
aI0
aI0
aF0.0
aI2
aI2
aF1.0
aI2
aI4
aI6
aI2
aI1
aI3
aI1
aI1
aI18
aI-8
aa(lp199
V0021200614
p200
aVJAN 22, 2013
p201
aVCLE vs. BOS
p202
aVW
p203
aI40
aI9
aI18
aF0.5
aI0
aI0
aF0.0
aI3
aI3
aF1.0
aI2
aI7
aI9
aI5
aI1
aI1
aI1
aI3
aI21
aI9
aa(lp204
V0021200598
p205
aVJAN 19, 2013
p206
aVCLE @ UTA
p207
aVL
p208
aI38
aI5
aI9
aF0.556
aI0
aI0
aF0.0
aI2
aI3
aF0.667
aI4
aI7
aI11
aI1
aI0
aI0
aI1
aI5
aI12
aI-5
aa(lp209
V0021200578
p210
aVJAN 16, 2013
p211
aVCLE @ POR
p212
aVW
p213
aI37
aI7
aI15
aF0.467
aI0
aI0
aF0.0
aI5
aI10
aF0.5
aI7
aI7
aI14
aI2
aI2
aI0
aI3
aI2
aI19
aI-3
aa(lp214
V0021200563
p215
aVJAN 14, 2013
p216
aVCLE @ SAC
p217
aVL
p218
aI38
aI7
aI14
aF0.5
aI0
aI0
aF0.0
aI3
aI4
aF0.75
aI8
aI7
aI15
aI4
aI0
aI0
aI1
aI5
aI17
aI-2
aa(lp219
V0021200555
p220
aVJAN 13, 2013
p221
aVCLE @ LAL
p222
aVL
p223
aI19
aI5
aI10
aF0.5
aI0
aI0
aF0.0
aI0
aI0
aF0.0
aI5
aI3
aI8
aI2
aI0
aI0
aI1
aI4
aI10
aI-11
aa(lp224
V0021200538
p225
aVJAN 11, 2013
p226
aVCLE @ DEN
p227
aVL
p228
aI36
aI8
aI13
aF0.615
aI0
aI0
aF0.0
aI0
aI0
aF0.0
aI4
aI3
aI7
aI0
aI2
aI0
aI1
aI5
aI16
aI-12
aa(lp229
V0021200518
p230
aVJAN 09, 2013
p231
aVCLE vs. ATL
p232
aVW
p233
aI34
aI5
aI11
aF0.455
aI0
aI0
aF0.0
aI1
aI3
aF0.333
aI6
aI8
aI14
aI2
aI2
aI1
aI1
aI1
aI11
aI13
aa(lp234
V0021200506
p235
aVJAN 07, 2013
p236
aVCLE @ CHI
p237
aVL
p238
aI32
aI6
aI12
aF0.5
aI0
aI0
aF0.0
aI2
aI2
aF1.0
aI4
aI4
aI8
aI3
aI1
aI1
aI2
aI2
aI14
aI-11
aa(lp239
V0021200493
p240
aVJAN 05, 2013
p241
aVCLE vs. HOU
p242
aVL
p243
aI37
aI5
aI11
aF0.455
aI0
aI0
aF0.0
aI4
aI6
aF0.667
aI8
aI8
aI16
aI2
aI1
aI1
aI1
aI3
aI14
aI-8
aa(lp244
V0021200480
p245
aVJAN 04, 2013
p246
aVCLE @ CHA
p247
aVW
p248
aI37
aI8
aI10
aF0.8
aI0
aI0
aF0.0
aI3
aI4
aF0.75
aI2
aI11
aI13
aI2
aI0
aI0
aI2
aI2
aI19
aI11
aa(lp249
V0021200466
p250
aVJAN 02, 2013
p251
aVCLE vs. SAC
p252
aVL
p253
aI35
aI4
aI12
aF0.333
aI0
aI0
aF0.0
aI1
aI2
aF0.5
aI5
aI8
aI13
aI0
aI0
aI0
aI2
aI4
aI9
aI4
aa(lp254
V0021200440
p255
aVDEC 29, 2012
p256
aVCLE @ BKN
p257
aVL
p258
aI36
aI5
aI11
aF0.455
aI0
aI0
aF0.0
aI7
aI8
aF0.875
aI9
aI6
aI15
aI1
aI0
aI2
aI2
aI4
aI17
aI8
aa(lp259
V0021200429
p260
aVDEC 28, 2012
p261
aVCLE vs. ATL
p262
aVL
p263
aI36
aI4
aI8
aF0.5
aI0
aI0
aF0.0
aI0
aI0
aF0.0
aI3
aI5
aI8
aI1
aI0
aI1
aI0
aI4
aI8
aI5
aa(lp264
V0021200410
p265
aVDEC 26, 2012
p266
aVCLE @ WAS
p267
aVW
p268
aI37
aI5
aI9
aF0.556
aI0
aI0
aF0.0
aI5
aI5
aF1.0
aI3
aI9
aI12
aI0
aI0
aI1
aI2
aI3
aI15
aI-10
aa(lp269
V0021200395
p270
aVDEC 22, 2012
p271
aVCLE @ MIL
p272
aVW
p273
aI37
aI6
aI8
aF0.75
aI0
aI0
aF0.0
aI2
aI4
aF0.5
aI2
aI12
aI14
aI1
aI0
aI1
aI2
aI4
aI14
aI25
aa(lp274
V0021200385
p275
aVDEC 21, 2012
p276
aVCLE vs. IND
p277
aVL
p278
aI34
aI5
aI9
aF0.556
aI0
aI0
aF0.0
aI2
aI5
aF0.4
aI4
aI9
aI13
aI0
aI0
aI2
aI3
aI3
aI12
aI-21
aa(lp279
V0021200370
p280
aVDEC 19, 2012
p281
aVCLE @ BOS
p282
aVL
p283
aI38
aI2
aI10
aF0.2
aI0
aI0
aF0.0
aI7
aI9
aF0.778
aI6
aI6
aI12
aI2
aI2
aI2
aI1
aI2
aI11
aI-16
aa(lp284
V0021200357
p285
aVDEC 18, 2012
p286
aVCLE vs. TOR
p287
aVL
p288
aI29
aI5
aI8
aF0.625
aI0
aI0
aF0.0
aI0
aI1
aF0.0
aI7
aI2
aI9
aI1
aI1
aI1
aI2
aI4
aI10
aI-6
aa(lp289
V0021200338
p290
aVDEC 15, 2012
p291
aVCLE @ NYK
p292
aVL
p293
aI17
aI5
aI5
aF1.0
aI0
aI0
aF0.0
aI0
aI0
aF0.0
aI0
aI4
aI4
aI0
aI0
aI0
aI1
aI0
aI10
aI-4
aa(lp294
V0021200329
p295
aVDEC 14, 2012
p296
aVCLE vs. MIL
p297
aVL
p298
aI25
aI1
aI5
aF0.2
aI0
aI0
aF0.0
aI3
aI4
aF0.75
aI3
aI6
aI9
aI3
aI2
aI0
aI1
aI1
aI5
aI-9
aa(lp299
V0021200311
p300
aVDEC 12, 2012
p301
aVCLE @ IND
p302
aVL
p303
aI25
aI2
aI4
aF0.5
aI0
aI0
aF0.0
aI0
aI1
aF0.0
aI4
aI5
aI9
aI1
aI0
aI1
aI3
aI3
aI4
aI-2
aa(lp304
V0021200305
p305
aVDEC 11, 2012
p306
aVCLE vs. LAL
p307
aVW
p308
aI34
aI0
aI3
aF0.0
aI0
aI0
aF0.0
aI1
aI4
aF0.25
aI2
aI8
aI10
aI0
aI0
aI0
aI1
aI4
aI1
aI3
aa(lp309
V0021200287
p310
aVDEC 08, 2012
p311
aVCLE vs. DET
p312
aVL
p313
aI24
aI4
aI6
aF0.667
aI0
aI0
aF0.0
aI1
aI2
aF0.5
aI4
aI1
aI5
aI0
aI1
aI1
aI0
aI3
aI9
aI7
aa(lp314
V0021200276
p315
aVDEC 07, 2012
p316
aVCLE @ MIN
p317
aVL
p318
aI25
aI3
aI7
aF0.429
aI0
aI0
aF0.0
aI0
aI0
aF0.0
aI0
aI3
aI3
aI0
aI2
aI0
aI2
aI5
aI6
aI-13
aa(lp319
V0021200262
p320
aVDEC 05, 2012
p321
aVCLE vs. CHI
p322
aVL
p323
aI32
aI5
aI9
aF0.556
aI0
aI0
aF0.0
aI1
aI2
aF0.5
aI5
aI0
aI5
aI0
aI1
aI2
aI2
aI2
aI11
aI-11
aa(lp324
V0021200246
p325
aVDEC 03, 2012
p326
aVCLE @ DET
p327
aVL
p328
aI33
aI4
aI13
aF0.308
aI0
aI0
aF0.0
aI2
aI2
aF1.0
aI5
aI6
aI11
aI1
aI0
aI2
aI0
aI4
aI10
aI-8
aa(lp329
V0021200234
p330
aVDEC 01, 2012
p331
aVCLE vs. POR
p332
aVL
p333
aI38
aI5
aI8
aF0.625
aI0
aI0
aF0.0
aI0
aI0
aF0.0
aI1
aI1
aI2
aI1
aI0
aI2
aI1
aI5
aI10
aI-12
aa(lp334
V0021200227
p335
aVNOV 30, 2012
p336
aVCLE @ ATL
p337
aVW
p338
aI33
aI3
aI7
aF0.429
aI0
aI0
aF0.0
aI0
aI0
aF0.0
aI6
aI9
aI15
aI1
aI2
aI1
aI0
aI4
aI6
aI-1
aa(lp339
V0021200205
p340
aVNOV 27, 2012
p341
aVCLE vs. PHX
p342
aVL
p343
aI24
aI1
aI7
aF0.143
aI0
aI0
aF0.0
aI3
aI4
aF0.75
aI2
aI4
aI6
aI0
aI0
aI0
aI3
aI3
aI5
aI-7
aa(lp344
V0021200200
p345
aVNOV 26, 2012
p346
aVCLE @ MEM
p347
aVL
p348
aI32
aI4
aI7
aF0.571
aI0
aI0
aF0.0
aI1
aI2
aF0.5
aI3
aI2
aI5
aI0
aI2
aI2
aI3
aI5
aI9
aI-11
aa(lp349
V0021200186
p350
aVNOV 24, 2012
p351
aVCLE @ MIA
p352
aVL
p353
aI23
aI6
aI7
aF0.857
aI0
aI0
aF0.0
aI1
aI2
aF0.5
aI2
aI3
aI5
aI1
aI0
aI0
aI1
aI1
aI13
aI-2
aa(lp354
V0021200172
p355
aVNOV 23, 2012
p356
aVCLE @ ORL
p357
aVL
p358
aI28
aI3
aI6
aF0.5
aI0
aI0
aF0.0
aI0
aI0
aF0.0
aI2
aI3
aI5
aI1
aI0
aI0
aI2
aI3
aI6
aI5
aa(lp359
V0021200159
p360
aVNOV 21, 2012
p361
aVCLE vs. PHI
p362
aVW
p363
aI25
aI1
aI7
aF0.143
aI0
aI0
aF0.0
aI2
aI3
aF0.667
aI3
aI8
aI11
aI2
aI0
aI1
aI0
aI1
aI4
aI2
aa(lp364
V0021200141
p365
aVNOV 18, 2012
p366
aVCLE @ PHI
p367
aVL
p368
aI31
aI6
aI14
aF0.429
aI0
aI0
aF0.0
aI2
aI3
aF0.667
aI8
aI5
aI13
aI2
aI0
aI1
aI0
aI2
aI14
aI-3
aa(lp369
V0021200135
p370
aVNOV 17, 2012
p371
aVCLE vs. DAL
p372
aVL
p373
aI29
aI5
aI12
aF0.417
aI0
aI0
aF0.0
aI0
aI0
aF0.0
aI4
aI8
aI12
aI3
aI0
aI0
aI2
aI2
aI10
aI3
aa(lp374
V0021200106
p375
aVNOV 13, 2012
p376
aVCLE @ BKN
p377
aVL
p378
aI31
aI6
aI11
aF0.545
aI0
aI0
aF0.0
aI2
aI5
aF0.4
aI3
aI2
aI5
aI0
aI1
aI0
aI1
aI4
aI14
aI-5
aa(lp379
V0021200093
p380
aVNOV 11, 2012
p381
aVCLE @ OKC
p382
aVL
p383
aI33
aI3
aI6
aF0.5
aI0
aI0
aF0.0
aI4
aI4
aF1.0
aI2
aI6
aI8
aI1
aI2
aI0
aI1
aI3
aI10
aI1
aa(lp384
V0021200077
p385
aVNOV 09, 2012
p386
aVCLE @ PHX
p387
aVL
p388
aI37
aI5
aI8
aF0.625
aI0
aI0
aF0.0
aI0
aI0
aF0.0
aI5
aI3
aI8
aI1
aI3
aI1
aI3
aI1
aI10
aI-8
aa(lp389
V0021200065
p390
aVNOV 07, 2012
p391
aVCLE @ GSW
p392
aVL
p393
aI36
aI4
aI8
aF0.5
aI0
aI0
aF0.0
aI3
aI8
aF0.375
aI4
aI6
aI10
aI1
aI0
aI0
aI3
aI4
aI11
aI10
aa(lp394
V0021200049
p395
aVNOV 05, 2012
p396
aVCLE @ LAC
p397
aVW
p398
aI32
aI0
aI6
aF0.0
aI0
aI0
aF0.0
aI1
aI4
aF0.25
aI4
aI4
aI8
aI1
aI3
aI1
aI3
aI5
aI1
aI5
aa(lp399
V0021200033
p400
aVNOV 03, 2012
p401
aVCLE @ MIL
p402
aVL
p403
aI30
aI2
aI5
aF0.4
aI0
aI0
aF0.0
aI5
aI8
aF0.625
aI4
aI2
aI6
aI0
aI1
aI0
aI0
aI3
aI9
aI13
aa(lp404
V0021200019
p405
aVNOV 02, 2012
p406
aVCLE vs. CHI
p407
aVL
p408
aI24
aI2
aI6
aF0.333
aI0
aI0
aF0.0
aI2
aI2
aF1.0
aI2
aI3
aI5
aI1
aI0
aI0
aI1
aI3
aI6
aI-5
aa(lp409
V0021200001
p410
aVOCT 30, 2012
p411
aVCLE vs. WAS
p412
aVW
p413
aI32
aI5
aI8
aF0.625
aI0
aI0
aF0.0
aI2
aI4
aF0.5
aI3
aI7
aI10
aI5
aI1
aI0
aI2
aI2
aI12
aI20
aasS'name'
p414
VTristan Thompson
p415
sS'experience'
p416
I1
s.