(dp0
S'stats'
p1
(lp2
(lp3
V0021200023
p4
aVNOV 02, 2012
p5
aVMIN vs. SAC
p6
aVW
p7
aI21
aI3
aI12
aF0.25
aI0
aI1
aF0.0
aI2
aI4
aF0.5
aI4
aI3
aI7
aI0
aI0
aI1
aI0
aI1
aI8
aI-11
aa(lp8
V0021200038
p9
aVNOV 04, 2012
p10
aVMIN @ TOR
p11
aVL
p12
aI26
aI3
aI7
aF0.429
aI1
aI1
aF1.0
aI2
aI4
aF0.5
aI1
aI7
aI8
aI1
aI0
aI0
aI1
aI1
aI9
aI-5
aa(lp13
V0021200043
p14
aVNOV 05, 2012
p15
aVMIN @ BKN
p16
aVW
p17
aI18
aI3
aI12
aF0.25
aI0
aI1
aF0.0
aI2
aI2
aF1.0
aI1
aI1
aI2
aI1
aI0
aI0
aI0
aI0
aI8
aI-12
aa(lp18
V0021200060
p19
aVNOV 07, 2012
p20
aVMIN vs. ORL
p21
aVW
p22
aI30
aI5
aI10
aF0.5
aI2
aI5
aF0.4
aI2
aI2
aF1.0
aI2
aI4
aI6
aI1
aI2
aI0
aI0
aI0
aI14
aI24
aa(lp23
V0021200076
p24
aVNOV 09, 2012
p25
aVMIN vs. IND
p26
aVW
p27
aI26
aI6
aI9
aF0.667
aI1
aI2
aF0.5
aI2
aI2
aF1.0
aI0
aI1
aI1
aI1
aI0
aI0
aI3
aI1
aI15
aI7
aa(lp28
V0021200084
p29
aVNOV 10, 2012
p30
aVMIN @ CHI
p31
aVL
p32
aI21
aI0
aI10
aF0.0
aI0
aI1
aF0.0
aI2
aI2
aF1.0
aI1
aI5
aI6
aI0
aI0
aI0
aI1
aI1
aI2
aI-6
aa(lp33
V0021200100
p34
aVNOV 12, 2012
p35
aVMIN @ DAL
p36
aVW
p37
aI12
aI1
aI2
aF0.5
aI0
aI0
aF0.0
aI2
aI2
aF1.0
aI0
aI5
aI5
aI0
aI0
aI2
aI3
aI1
aI4
aI2
aa(lp38
V0021200114
p39
aVNOV 14, 2012
p40
aVMIN vs. CHA
p41
aVL
p42
aI23
aI3
aI12
aF0.25
aI0
aI1
aF0.0
aI4
aI7
aF0.571
aI3
aI6
aI9
aI2
aI0
aI1
aI2
aI1
aI10
aI-6
aa(lp43
V0021200126
p44
aVNOV 16, 2012
p45
aVMIN vs. GSW
p46
aVL
p47
aI37
aI8
aI16
aF0.5
aI1
aI2
aF0.5
aI6
aI6
aF1.0
aI1
aI6
aI7
aI2
aI0
aI4
aI3
aI1
aI23
aI-8
aa(lp48
V0021200190
p49
aVNOV 24, 2012
p50
aVMIN @ GSW
p51
aVL
p52
aI11
aI4
aI6
aF0.667
aI2
aI4
aF0.5
aI0
aI0
aF0.0
aI0
aI0
aI0
aI0
aI1
aI2
aI1
aI3
aI10
aI2
aa(lp53
V0021200219
p54
aVNOV 28, 2012
p55
aVMIN @ LAC
p56
aVL
p57
aI12
aI2
aI5
aF0.4
aI0
aI3
aF0.0
aI0
aI0
aF0.0
aI1
aI4
aI5
aI0
aI0
aI1
aI2
aI2
aI4
aI3
aa(lp58
V0021200230
p59
aVNOV 30, 2012
p60
aVMIN vs. MIL
p61
aVW
p62
aI15
aI2
aI4
aF0.5
aI1
aI3
aF0.333
aI2
aI4
aF0.5
aI2
aI8
aI10
aI0
aI0
aI1
aI2
aI0
aI7
aI-2
aa(lp63
V0021200251
p64
aVDEC 04, 2012
p65
aVMIN @ PHI
p66
aVW
p67
aI16
aI3
aI5
aF0.6
aI3
aI4
aF0.75
aI1
aI4
aF0.25
aI0
aI4
aI4
aI0
aI0
aI0
aI0
aI2
aI10
aI5
aa(lp68
V0021200259
p69
aVDEC 05, 2012
p70
aVMIN @ BOS
p71
aVL
p72
aI10
aI1
aI2
aF0.5
aI0
aI1
aF0.0
aI0
aI0
aF0.0
aI0
aI3
aI3
aI0
aI0
aI0
aI0
aI1
aI2
aI4
aa(lp73
V0021200319
p74
aVDEC 12, 2012
p75
aVMIN vs. DEN
p76
aVW
p77
aI13
aI2
aI6
aF0.333
aI0
aI1
aF0.0
aI2
aI2
aF1.0
aI1
aI0
aI1
aI0
aI0
aI0
aI0
aI1
aI6
aI8
aa(lp78
V0021200331
p79
aVDEC 14, 2012
p80
aVMIN @ NOH
p81
aVW
p82
aI8
aI1
aI2
aF0.5
aI0
aI1
aF0.0
aI0
aI0
aF0.0
aI0
aI0
aI0
aI0
aI0
aI0
aI2
aI1
aI2
aI-2
aa(lp83
V0021200342
p84
aVDEC 15, 2012
p85
aVMIN vs. DAL
p86
aVW
p87
aI19
aI5
aI9
aF0.556
aI0
aI2
aF0.0
aI6
aI6
aF1.0
aI2
aI4
aI6
aI0
aI0
aI0
aI1
aI0
aI16
aI16
aa(lp88
V0021200350
p89
aVDEC 17, 2012
p90
aVMIN @ ORL
p91
aVL
p92
aI10
aI2
aI3
aF0.667
aI0
aI1
aF0.0
aI0
aI0
aF0.0
aI0
aI4
aI4
aI0
aI1
aI0
aI0
aI1
aI4
aI0
aa(lp93
V0021200359
p94
aVDEC 18, 2012
p95
aVMIN @ MIA
p96
aVL
p97
aI22
aI2
aI6
aF0.333
aI1
aI3
aF0.333
aI3
aI4
aF0.75
aI0
aI3
aI3
aI0
aI1
aI0
aI1
aI4
aI8
aI-8
aa(lp98
V0021200377
p99
aVDEC 20, 2012
p100
aVMIN vs. OKC
p101
aVW
p102
aI5
aI1
aI2
aF0.5
aI0
aI0
aF0.0
aI0
aI2
aF0.0
aI0
aI1
aI1
aI0
aI0
aI0
aI0
aI0
aI2
aI-3
aa(lp103
V0021200400
p104
aVDEC 23, 2012
p105
aVMIN @ NYK
p106
aVL
p107
aI12
aI1
aI3
aF0.333
aI1
aI2
aF0.5
aI2
aI2
aF1.0
aI1
aI4
aI5
aI0
aI0
aI0
aI1
aI0
aI5
aI-4
aa(lp108
V0021200417
p109
aVDEC 26, 2012
p110
aVMIN vs. HOU
p111
aVL
p112
aI17
aI3
aI7
aF0.429
aI2
aI3
aF0.667
aI1
aI2
aF0.5
aI1
aI3
aI4
aI0
aI0
aI0
aI0
aI1
aI9
aI4
aa(lp113
V0021200444
p114
aVDEC 29, 2012
p115
aVMIN vs. PHX
p116
aVW
p117
aI14
aI3
aI6
aF0.5
aI2
aI3
aF0.667
aI2
aI3
aF0.667
aI1
aI0
aI1
aI1
aI0
aI1
aI1
aI0
aI10
aI-5
aa(lp118
V0021200473
p119
aVJAN 02, 2013
p120
aVMIN @ UTA
p121
aVL
p122
aI18
aI2
aI5
aF0.4
aI0
aI1
aF0.0
aI3
aI4
aF0.75
aI1
aI1
aI2
aI1
aI2
aI2
aI1
aI2
aI7
aI-18
aa(lp123
V0021200477
p124
aVJAN 03, 2013
p125
aVMIN @ DEN
p126
aVW
p127
aI18
aI3
aI7
aF0.429
aI0
aI1
aF0.0
aI2
aI2
aF1.0
aI1
aI3
aI4
aI0
aI0
aI0
aI1
aI1
aI8
aI6
aa(lp128
V0021200494
p129
aVJAN 05, 2013
p130
aVMIN vs. POR
p131
aVL
p132
aI18
aI6
aI10
aF0.6
aI2
aI3
aF0.667
aI4
aI5
aF0.8
aI1
aI5
aI6
aI0
aI2
aI0
aI3
aI0
aI18
aI4
aa(lp133
V0021200515
p134
aVJAN 08, 2013
p135
aVMIN vs. ATL
p136
aVW
p137
aI21
aI7
aI13
aF0.538
aI3
aI5
aF0.6
aI0
aI0
aF0.0
aI0
aI1
aI1
aI1
aI0
aI0
aI0
aI1
aI17
aI5
aa(lp138
V0021200523
p139
aVJAN 09, 2013
p140
aVMIN @ OKC
p141
aVL
p142
aI28
aI7
aI15
aF0.467
aI0
aI1
aF0.0
aI0
aI0
aF0.0
aI2
aI9
aI11
aI0
aI1
aI0
aI1
aI1
aI14
aI-23
aa(lp143
V0021200536
p144
aVJAN 11, 2013
p145
aVMIN @ NOH
p146
aVL
p147
aI25
aI3
aI7
aF0.429
aI0
aI2
aF0.0
aI3
aI3
aF1.0
aI0
aI3
aI3
aI0
aI1
aI0
aI0
aI2
aI9
aI-12
aa(lp148
V0021200552
p149
aVJAN 13, 2013
p150
aVMIN @ SAS
p151
aVL
p152
aI24
aI3
aI9
aF0.333
aI1
aI3
aF0.333
aI1
aI2
aF0.5
aI2
aI2
aI4
aI0
aI0
aI0
aI0
aI1
aI8
aI-17
aa(lp153
V0021200560
p154
aVJAN 14, 2013
p155
aVMIN @ DAL
p156
aVL
p157
aI26
aI4
aI10
aF0.4
aI0
aI3
aF0.0
aI1
aI2
aF0.5
aI2
aI2
aI4
aI0
aI2
aI0
aI1
aI1
aI9
aI1
aa(lp158
V0021200581
p159
aVJAN 17, 2013
p160
aVMIN vs. LAC
p161
aVL
p162
aI31
aI3
aI9
aF0.333
aI0
aI2
aF0.0
aI4
aI4
aF1.0
aI3
aI4
aI7
aI1
aI1
aI2
aI2
aI4
aI10
aI-15
aa(lp163
V0021200597
p164
aVJAN 19, 2013
p165
aVMIN vs. HOU
p166
aVW
p167
aI29
aI3
aI9
aF0.333
aI1
aI3
aF0.333
aI4
aI4
aF1.0
aI0
aI5
aI5
aI1
aI1
aI0
aI3
aI1
aI11
aI12
aa(lp168
V0021200608
p169
aVJAN 21, 2013
p170
aVMIN @ ATL
p171
aVL
p172
aI37
aI7
aI14
aF0.5
aI1
aI4
aF0.25
aI2
aI2
aF1.0
aI2
aI2
aI4
aI0
aI1
aI1
aI1
aI3
aI17
aI-16
aa(lp173
V0021200623
p174
aVJAN 23, 2013
p175
aVMIN vs. BKN
p176
aVL
p177
aI24
aI4
aI11
aF0.364
aI0
aI0
aF0.0
aI1
aI1
aF1.0
aI2
aI4
aI6
aI0
aI0
aI0
aI0
aI0
aI9
aI-2
aa(lp178
V0021200632
p179
aVJAN 25, 2013
p180
aVMIN @ WAS
p181
aVL
p182
aI31
aI6
aI17
aF0.353
aI1
aI3
aF0.333
aI5
aI8
aF0.625
aI3
aI8
aI11
aI1
aI1
aI0
aI0
aI1
aI18
aI0
aa(lp183
V0021200645
p184
aVJAN 26, 2013
p185
aVMIN @ CHA
p186
aVL
p187
aI18
aI2
aI8
aF0.25
aI1
aI2
aF0.5
aI0
aI2
aF0.0
aI0
aI2
aI2
aI1
aI0
aI0
aI2
aI0
aI5
aI11
aa(lp188
V0021200677
p189
aVJAN 30, 2013
p190
aVMIN vs. LAC
p191
aVL
p192
aI13
aI2
aI3
aF0.667
aI1
aI2
aF0.5
aI0
aI0
aF0.0
aI0
aI0
aI0
aI0
aI0
aI0
aI1
aI5
aI5
aI-11
aa(lp193
V0021200695
p194
aVFEB 01, 2013
p195
aVMIN vs. LAL
p196
aVL
p197
aI32
aI6
aI14
aF0.429
aI2
aI4
aF0.5
aI1
aI4
aF0.25
aI2
aI7
aI9
aI0
aI1
aI0
aI1
aI2
aI15
aI-4
aa(lp198
V0021200700
p199
aVFEB 02, 2013
p200
aVMIN vs. NOH
p201
aVW
p202
aI14
aI1
aI3
aF0.333
aI0
aI1
aF0.0
aI3
aI4
aF0.75
aI1
aI2
aI3
aI0
aI1
aI0
aI1
aI1
aI5
aI6
aa(lp203
V0021200713
p204
aVFEB 04, 2013
p205
aVMIN vs. POR
p206
aVL
p207
aI19
aI0
aI5
aF0.0
aI0
aI1
aF0.0
aI1
aI2
aF0.5
aI2
aI2
aI4
aI0
aI3
aI0
aI1
aI3
aI1
aI-6
aa(lp208
V0021200731
p209
aVFEB 06, 2013
p210
aVMIN vs. SAS
p211
aVL
p212
aI28
aI5
aI12
aF0.417
aI2
aI5
aF0.4
aI3
aI4
aF0.75
aI1
aI11
aI12
aI0
aI0
aI0
aI1
aI1
aI15
aI-4
aa(lp213
V0021200745
p214
aVFEB 08, 2013
p215
aVMIN vs. NYK
p216
aVL
p217
aI33
aI8
aI17
aF0.471
aI0
aI6
aF0.0
aI3
aI4
aF0.75
aI1
aI5
aI6
aI1
aI1
aI1
aI0
aI5
aI19
aI4
aa(lp218
V0021200757
p219
aVFEB 10, 2013
p220
aVMIN @ MEM
p221
aVL
p222
aI25
aI4
aI11
aF0.364
aI0
aI3
aF0.0
aI1
aI2
aF0.5
aI0
aI6
aI6
aI1
aI2
aI0
aI1
aI3
aI9
aI-15
aa(lp223
V0021200763
p224
aVFEB 11, 2013
p225
aVMIN @ CLE
p226
aVW
p227
aI16
aI4
aI9
aF0.444
aI1
aI2
aF0.5
aI4
aI5
aF0.8
aI0
aI5
aI5
aI1
aI0
aI1
aI1
aI4
aI13
aI1
aa(lp228
V0021200784
p229
aVFEB 13, 2013
p230
aVMIN vs. UTA
p231
aVL
p232
aI37
aI7
aI17
aF0.412
aI2
aI5
aF0.4
aI8
aI11
aF0.727
aI4
aI12
aI16
aI0
aI0
aI1
aI1
aI3
aI24
aI6
aa(lp233
V0021200805
p234
aVFEB 20, 2013
p235
aVMIN vs. PHI
p236
aVW
p237
aI36
aI7
aI12
aF0.583
aI2
aI4
aF0.5
aI1
aI2
aF0.5
aI0
aI8
aI8
aI1
aI1
aI0
aI2
aI0
aI17
aI0
aa(lp238
V0021200819
p239
aVFEB 22, 2013
p240
aVMIN @ OKC
p241
aVL
p242
aI23
aI3
aI14
aF0.214
aI0
aI2
aF0.0
aI3
aI3
aF1.0
aI3
aI2
aI5
aI2
aI1
aI0
aI1
aI2
aI9
aI-16
aa(lp243
V0021200832
p244
aVFEB 24, 2013
p245
aVMIN vs. GSW
p246
aVL
p247
aI38
aI9
aI15
aF0.6
aI0
aI1
aF0.0
aI5
aI5
aF1.0
aI4
aI8
aI12
aI0
aI0
aI1
aI1
aI3
aI23
aI12
aa(lp248
V0021200849
p249
aVFEB 26, 2013
p250
aVMIN @ PHX
p251
aVL
p252
aI40
aI8
aI16
aF0.5
aI2
aI6
aF0.333
aI3
aI10
aF0.3
aI1
aI11
aI12
aI0
aI2
aI1
aI3
aI3
aI21
aI2
aa(lp253
V0021200863
p254
aVFEB 28, 2013
p255
aVMIN @ LAL
p256
aVL
p257
aI39
aI6
aI14
aF0.429
aI1
aI4
aF0.25
aI2
aI2
aF1.0
aI0
aI8
aI8
aI1
aI0
aI1
aI3
aI2
aI15
aI-26
aa(lp258
V0021200879
p259
aVMAR 02, 2013
p260
aVMIN @ POR
p261
aVL
p262
aI40
aI9
aI20
aF0.45
aI0
aI4
aF0.0
aI5
aI8
aF0.625
aI1
aI7
aI8
aI0
aI0
aI3
aI1
aI2
aI23
aI-9
aa(lp263
V0021200892
p264
aVMAR 04, 2013
p265
aVMIN vs. MIA
p266
aVL
p267
aI45
aI10
aI22
aF0.455
aI1
aI3
aF0.333
aI4
aI4
aF1.0
aI3
aI7
aI10
aI1
aI0
aI0
aI3
aI3
aI25
aI-15
aa(lp268
V0021200907
p269
aVMAR 06, 2013
p270
aVMIN vs. WAS
p271
aVW
p272
aI37
aI4
aI12
aF0.333
aI1
aI3
aF0.333
aI7
aI11
aF0.636
aI0
aI8
aI8
aI0
aI2
aI0
aI2
aI2
aI16
aI8
aa(lp273
V0021200931
p274
aVMAR 09, 2013
p275
aVMIN @ DEN
p276
aVL
p277
aI29
aI4
aI14
aF0.286
aI0
aI1
aF0.0
aI5
aI9
aF0.556
aI1
aI5
aI6
aI1
aI0
aI0
aI1
aI2
aI13
aI-11
aa(lp278
V0021200940
p279
aVMAR 10, 2013
p280
aVMIN vs. DAL
p281
aVL
p282
aI37
aI7
aI17
aF0.412
aI0
aI2
aF0.0
aI4
aI5
aF0.8
aI1
aI8
aI9
aI3
aI0
aI0
aI2
aI2
aI18
aI-9
aa(lp283
V0021200954
p284
aVMAR 12, 2013
p285
aVMIN vs. SAS
p286
aVW
p287
aI24
aI5
aI10
aF0.5
aI0
aI1
aF0.0
aI3
aI7
aF0.429
aI1
aI4
aI5
aI0
aI0
aI1
aI3
aI0
aI13
aI-2
aa(lp288
V0021200958
p289
aVMAR 13, 2013
p290
aVMIN @ IND
p291
aVL
p292
aI28
aI4
aI9
aF0.444
aI1
aI1
aF1.0
aI1
aI2
aF0.5
aI1
aI4
aI5
aI1
aI0
aI1
aI0
aI3
aI10
aI-17
aa(lp293
V0021200973
p294
aVMAR 15, 2013
p295
aVMIN @ HOU
p296
aVL
p297
aI31
aI7
aI14
aF0.5
aI2
aI5
aF0.4
aI3
aI4
aF0.75
aI3
aI1
aI4
aI1
aI0
aI0
aI4
aI3
aI19
aI-12
aa(lp298
V0021200989
p299
aVMAR 17, 2013
p300
aVMIN vs. NOH
p301
aVW
p302
aI37
aI9
aI16
aF0.563
aI3
aI5
aF0.6
aI7
aI10
aF0.7
aI2
aI5
aI7
aI0
aI1
aI1
aI5
aI3
aI28
aI12
aa(lp303
V0021201000
p304
aVMAR 18, 2013
p305
aVMIN @ MEM
p306
aVL
p307
aI26
aI3
aI12
aF0.25
aI1
aI5
aF0.2
aI1
aI1
aF1.0
aI1
aI5
aI6
aI1
aI0
aI0
aI2
aI1
aI8
aI-16
aa(lp308
V0021201021
p309
aVMAR 21, 2013
p310
aVMIN @ SAC
p311
aVL
p312
aI26
aI6
aI16
aF0.375
aI0
aI3
aF0.0
aI0
aI0
aF0.0
aI2
aI1
aI3
aI1
aI0
aI1
aI0
aI0
aI12
aI-8
aa(lp313
V0021201031
p314
aVMAR 22, 2013
p315
aVMIN @ PHX
p316
aVW
p317
aI14
aI0
aI2
aF0.0
aI0
aI1
aF0.0
aI4
aI4
aF1.0
aI0
aI6
aI6
aI1
aI0
aI0
aI1
aI0
aI4
aI9
aa(lp318
V0021201044
p319
aVMAR 24, 2013
p320
aVMIN vs. CHI
p321
aVL
p322
aI38
aI11
aI18
aF0.611
aI3
aI5
aF0.6
aI3
aI4
aF0.75
aI0
aI5
aI5
aI0
aI2
aI2
aI3
aI3
aI28
aI-3
aa(lp323
V0021201055
p324
aVMAR 26, 2013
p325
aVMIN @ DET
p326
aVW
p327
aI17
aI2
aI3
aF0.667
aI2
aI3
aF0.667
aI0
aI0
aF0.0
aI0
aI5
aI5
aI0
aI0
aI0
aI1
aI3
aI6
aI18
aa(lp328
V0021201066
p329
aVMAR 27, 2013
p330
aVMIN vs. LAL
p331
aVL
p332
aI29
aI6
aI12
aF0.5
aI1
aI2
aF0.5
aI2
aI5
aF0.4
aI3
aI3
aI6
aI0
aI0
aI0
aI3
aI0
aI15
aI-7
aa(lp333
V0021201081
p334
aVMAR 29, 2013
p335
aVMIN vs. OKC
p336
aVW
p337
aI26
aI2
aI8
aF0.25
aI1
aI2
aF0.5
aI1
aI2
aF0.5
aI1
aI8
aI9
aI2
aI0
aI0
aI0
aI2
aI6
aI3
aa(lp338
V0021201089
p339
aVMAR 30, 2013
p340
aVMIN vs. MEM
p341
aVL
p342
aI37
aI6
aI16
aF0.375
aI0
aI4
aF0.0
aI7
aI12
aF0.583
aI1
aI3
aI4
aI1
aI0
aI0
aI2
aI3
aI19
aI-15
aa(lp343
V0021201105
p344
aVAPR 01, 2013
p345
aVMIN vs. BOS
p346
aVW
p347
aI25
aI5
aI9
aF0.556
aI1
aI2
aF0.5
aI0
aI0
aF0.0
aI0
aI3
aI3
aI2
aI1
aI3
aI0
aI1
aI11
aI20
aa(lp348
V0021201116
p349
aVAPR 03, 2013
p350
aVMIN @ MIL
p351
aVW
p352
aI19
aI7
aI12
aF0.583
aI1
aI2
aF0.5
aI0
aI0
aF0.0
aI3
aI3
aI6
aI3
aI0
aI0
aI1
aI2
aI15
aI8
aa(lp353
V0021201132
p354
aVAPR 05, 2013
p355
aVMIN vs. TOR
p356
aVL
p357
aI20
aI1
aI4
aF0.25
aI0
aI1
aF0.0
aI6
aI6
aF1.0
aI2
aI3
aI5
aI1
aI0
aI0
aI2
aI0
aI8
aI11
aa(lp358
V0021201141
p359
aVAPR 06, 2013
p360
aVMIN vs. DET
p361
aVW
p362
aI18
aI6
aI9
aF0.667
aI1
aI2
aF0.5
aI1
aI1
aF1.0
aI0
aI2
aI2
aI0
aI0
aI0
aI1
aI4
aI14
aI-6
aa(lp363
V0021201163
p364
aVAPR 09, 2013
p365
aVMIN @ GSW
p366
aVL
p367
aI20
aI2
aI8
aF0.25
aI1
aI1
aF1.0
aI0
aI0
aF0.0
aI0
aI0
aI0
aI0
aI0
aI0
aI0
aI1
aI5
aI-21
aa(lp368
V0021201173
p369
aVAPR 10, 2013
p370
aVMIN @ LAC
p371
aVL
p372
aI36
aI3
aI12
aF0.25
aI1
aI4
aF0.25
aI6
aI6
aF1.0
aI4
aI6
aI10
aI1
aI3
aI1
aI1
aI1
aI13
aI-16
aa(lp373
V0021201187
p374
aVAPR 12, 2013
p375
aVMIN @ UTA
p376
aVL
p377
aI22
aI4
aI9
aF0.444
aI1
aI2
aF0.5
aI2
aI2
aF1.0
aI3
aI3
aI6
aI0
aI0
aI0
aI1
aI1
aI11
aI-5
aa(lp378
V0021201193
p379
aVAPR 13, 2013
p380
aVMIN vs. PHX
p381
aVW
p382
aI23
aI7
aI12
aF0.583
aI1
aI2
aF0.5
aI0
aI0
aF0.0
aI2
aI4
aI6
aI0
aI4
aI0
aI3
aI1
aI15
aI-2
aa(lp383
V0021201210
p384
aVAPR 15, 2013
p385
aVMIN vs. UTA
p386
aVL
p387
aI40
aI7
aI13
aF0.538
aI0
aI2
aF0.0
aI4
aI6
aF0.667
aI1
aI5
aI6
aI0
aI1
aI0
aI0
aI3
aI18
aI-16
aa(lp388
V0021201225
p389
aVAPR 17, 2013
p390
aVMIN @ SAS
p391
aVW
p392
aI33
aI7
aI15
aF0.467
aI2
aI4
aF0.5
aI5
aI6
aF0.833
aI0
aI6
aI6
aI4
aI1
aI0
aI2
aI3
aI21
aI17
aasS'name'
p393
VDerrick Williams
p394
sS'weight'
p395
V240
p396
sS'age'
p397
I21
sS'experience'
p398
I1
sS'height'
p399
V6-8
p400
sS'position'
p401
VForward
p402
s.