(dp0
S'age'
p1
I22
sS'stats'
p2
(lp3
(lp4
V0021201218
p5
aVAPR 17, 2013
p6
aVNYK vs. ATL
p7
aVW
p8
aI38
aI7
aI11
aF0.636
aI1
aI2
aF0.5
aI3
aI3
aF1.0
aI1
aI6
aI7
aI8
aI2
aI0
aI3
aI3
aI18
aI16
aa(lp9
V0021201202
p10
aVAPR 15, 2013
p11
aVNYK @ CHA
p12
aVL
p13
aI42
aI5
aI16
aF0.313
aI1
aI6
aF0.167
aI3
aI3
aF1.0
aI1
aI1
aI2
aI5
aI1
aI0
aI3
aI3
aI14
aI-10
aa(lp14
V0021201196
p15
aVAPR 14, 2013
p16
aVNYK vs. IND
p17
aVW
p18
aI25
aI3
aI8
aF0.375
aI2
aI4
aF0.5
aI2
aI2
aF1.0
aI1
aI4
aI5
aI2
aI0
aI0
aI0
aI4
aI10
aI13
aa(lp19
V0021201182
p20
aVAPR 12, 2013
p21
aVNYK @ CLE
p22
aVW
p23
aI36
aI3
aI11
aF0.273
aI0
aI4
aF0.0
aI2
aI2
aF1.0
aI3
aI8
aI11
aI3
aI1
aI1
aI1
aI2
aI8
aI5
aa(lp24
V0021201174
p25
aVAPR 11, 2013
p26
aVNYK @ CHI
p27
aVL
p28
aI26
aI3
aI3
aF1.0
aI1
aI1
aF1.0
aI0
aI0
aF0.0
aI0
aI1
aI1
aI0
aI1
aI0
aI0
aI6
aI7
aI19
aa(lp29
V0021201156
p30
aVAPR 09, 2013
p31
aVNYK vs. WAS
p32
aVW
p33
aI24
aI7
aI10
aF0.7
aI4
aI6
aF0.667
aI0
aI0
aF0.0
aI0
aI4
aI4
aI2
aI1
aI1
aI0
aI4
aI18
aI3
aa(lp34
V0021201145
p35
aVAPR 07, 2013
p36
aVNYK @ OKC
p37
aVW
p38
aI11
aI0
aI2
aF0.0
aI0
aI2
aF0.0
aI0
aI0
aF0.0
aI0
aI2
aI2
aI1
aI1
aI0
aI0
aI2
aI0
aI1
aa(lp39
V0021201128
p40
aVAPR 05, 2013
p41
aVNYK vs. MIL
p42
aVW
p43
aI19
aI0
aI7
aF0.0
aI0
aI3
aF0.0
aI0
aI0
aF0.0
aI0
aI3
aI3
aI0
aI0
aI1
aI0
aI2
aI0
aI8
aa(lp44
V0021201113
p45
aVAPR 03, 2013
p46
aVNYK @ ATL
p47
aVW
p48
aI23
aI2
aI6
aF0.333
aI0
aI2
aF0.0
aI0
aI0
aF0.0
aI0
aI6
aI6
aI1
aI0
aI0
aI0
aI3
aI4
aI8
aa(lp49
V0021201109
p50
aVAPR 02, 2013
p51
aVNYK @ MIA
p52
aVW
p53
aI23
aI3
aI5
aF0.6
aI3
aI5
aF0.6
aI0
aI0
aF0.0
aI0
aI3
aI3
aI2
aI0
aI0
aI1
aI2
aI9
aI6
aa(lp54
V0021201099
p55
aVMAR 31, 2013
p56
aVNYK vs. BOS
p57
aVW
p58
aI27
aI3
aI3
aF1.0
aI2
aI2
aF1.0
aI2
aI2
aF1.0
aI1
aI3
aI4
aI2
aI1
aI0
aI1
aI5
aI10
aI-6
aa(lp59
V0021201076
p60
aVMAR 29, 2013
p61
aVNYK vs. CHA
p62
aVW
p63
aI27
aI2
aI4
aF0.5
aI2
aI4
aF0.5
aI2
aI2
aF1.0
aI0
aI2
aI2
aI5
aI2
aI0
aI1
aI3
aI8
aI4
aa(lp64
V0021201061
p65
aVMAR 27, 2013
p66
aVNYK vs. MEM
p67
aVW
p68
aI21
aI6
aI10
aF0.6
aI4
aI6
aF0.667
aI0
aI0
aF0.0
aI0
aI3
aI3
aI1
aI2
aI0
aI1
aI4
aI16
aI9
aa(lp69
V0021201054
p70
aVMAR 26, 2013
p71
aVNYK @ BOS
p72
aVW
p73
aI26
aI1
aI3
aF0.333
aI0
aI2
aF0.0
aI0
aI0
aF0.0
aI1
aI2
aI3
aI1
aI1
aI0
aI0
aI2
aI2
aI3
aa(lp74
V0021201034
p75
aVMAR 23, 2013
p76
aVNYK vs. TOR
p77
aVW
p78
aI21
aI3
aI6
aF0.5
aI2
aI4
aF0.5
aI0
aI0
aF0.0
aI1
aI2
aI3
aI2
aI4
aI1
aI1
aI2
aI8
aI16
aa(lp79
V0021201022
p80
aVMAR 22, 2013
p81
aVNYK @ TOR
p82
aVW
p83
aI17
aI2
aI2
aF1.0
aI1
aI1
aF1.0
aI0
aI0
aF0.0
aI1
aI2
aI3
aI3
aI0
aI0
aI0
aI0
aI5
aI2
aa(lp84
V0021201010
p85
aVMAR 20, 2013
p86
aVNYK vs. ORL
p87
aVW
p88
aI14
aI2
aI4
aF0.5
aI1
aI2
aF0.5
aI2
aI2
aF1.0
aI0
aI0
aI0
aI3
aI0
aI0
aI0
aI0
aI7
aI2
aa(lp89
V0021201003
p90
aVMAR 18, 2013
p91
aVNYK @ UTA
p92
aVW
p93
aI17
aI3
aI7
aF0.429
aI2
aI3
aF0.667
aI0
aI0
aF0.0
aI0
aI2
aI2
aI1
aI0
aI0
aI0
aI0
aI8
aI-3
aa(lp94
V0021200987
p95
aVMAR 17, 2013
p96
aVNYK @ LAC
p97
aVL
p98
aI17
aI2
aI6
aF0.333
aI0
aI3
aF0.0
aI1
aI2
aF0.5
aI0
aI1
aI1
aI1
aI1
aI0
aI2
aI3
aI5
aI-6
aa(lp99
V0021200968
p100
aVMAR 14, 2013
p101
aVNYK @ POR
p102
aVL
p103
aI23
aI3
aI9
aF0.333
aI0
aI1
aF0.0
aI0
aI0
aF0.0
aI1
aI3
aI4
aI1
aI0
aI0
aI1
aI2
aI6
aI-13
aa(lp104
V0021200964
p105
aVMAR 13, 2013
p106
aVNYK @ DEN
p107
aVL
p108
aI33
aI8
aI10
aF0.8
aI4
aI5
aF0.8
aI0
aI0
aF0.0
aI0
aI1
aI1
aI1
aI1
aI0
aI2
aI2
aI20
aI-15
aa(lp109
V0021200947
p110
aVMAR 11, 2013
p111
aVNYK @ GSW
p112
aVL
p113
aI23
aI3
aI9
aF0.333
aI2
aI4
aF0.5
aI0
aI2
aF0.0
aI0
aI0
aI0
aI0
aI0
aI0
aI0
aI2
aI8
aI-29
aa(lp114
V0021200928
p115
aVMAR 09, 2013
p116
aVNYK vs. UTA
p117
aVW
p118
aI27
aI1
aI3
aF0.333
aI0
aI0
aF0.0
aI8
aI10
aF0.8
aI0
aI5
aI5
aI1
aI4
aI0
aI1
aI0
aI10
aI18
aa(lp119
V0021200913
p120
aVMAR 07, 2013
p121
aVNYK vs. OKC
p122
aVL
p123
aI27
aI1
aI7
aF0.143
aI0
aI4
aF0.0
aI0
aI0
aF0.0
aI0
aI1
aI1
aI0
aI1
aI0
aI0
aI3
aI2
aI-11
aa(lp124
V0021200904
p125
aVMAR 06, 2013
p126
aVNYK @ DET
p127
aVW
p128
aI19
aI3
aI6
aF0.5
aI3
aI4
aF0.75
aI0
aI0
aF0.0
aI1
aI5
aI6
aI2
aI1
aI0
aI2
aI3
aI9
aI-10
aa(lp129
V0021200889
p130
aVMAR 04, 2013
p131
aVNYK @ CLE
p132
aVW
p133
aI19
aI3
aI6
aF0.5
aI2
aI3
aF0.667
aI0
aI0
aF0.0
aI0
aI0
aI0
aI0
aI1
aI0
aI0
aI1
aI8
aI-1
aa(lp134
V0021200880
p135
aVMAR 03, 2013
p136
aVNYK vs. MIA
p137
aVL
p138
aI21
aI1
aI4
aF0.25
aI0
aI3
aF0.0
aI1
aI2
aF0.5
aI2
aI1
aI3
aI2
aI0
aI0
aI2
aI2
aI3
aI-17
aa(lp139
V0021200865
p140
aVMAR 01, 2013
p141
aVNYK @ WAS
p142
aVW
p143
aI24
aI1
aI3
aF0.333
aI1
aI2
aF0.5
aI0
aI0
aF0.0
aI1
aI0
aI1
aI1
aI0
aI1
aI0
aI3
aI3
aI-9
aa(lp144
V0021200853
p145
aVFEB 27, 2013
p146
aVNYK vs. GSW
p147
aVW
p148
aI22
aI1
aI6
aF0.167
aI0
aI3
aF0.0
aI0
aI0
aF0.0
aI0
aI0
aI0
aI2
aI6
aI0
aI3
aI4
aI2
aI12
aa(lp149
V0021200835
p150
aVFEB 24, 2013
p151
aVNYK vs. PHI
p152
aVW
p153
aI13
aI1
aI5
aF0.2
aI1
aI2
aF0.5
aI1
aI1
aF1.0
aI0
aI2
aI2
aI1
aI1
aI0
aI1
aI3
aI4
aI0
aa(lp154
V0021200811
p155
aVFEB 22, 2013
p156
aVNYK @ TOR
p157
aVL
p158
aI15
aI0
aI2
aF0.0
aI0
aI1
aF0.0
aI0
aI0
aF0.0
aI1
aI1
aI2
aI0
aI0
aI0
aI1
aI2
aI0
aI-5
aa(lp159
V0021200801
p160
aVFEB 20, 2013
p161
aVNYK @ IND
p162
aVL
p163
aI25
aI1
aI7
aF0.143
aI0
aI4
aF0.0
aI2
aI2
aF1.0
aI1
aI1
aI2
aI1
aI1
aI1
aI1
aI1
aI4
aI-10
aa(lp164
V0021200780
p165
aVFEB 13, 2013
p166
aVNYK vs. TOR
p167
aVL
p168
aI21
aI1
aI3
aF0.333
aI0
aI0
aF0.0
aI3
aI4
aF0.75
aI2
aI5
aI7
aI1
aI1
aI0
aI0
aI1
aI5
aI-10
aa(lp169
V0021200752
p170
aVFEB 10, 2013
p171
aVNYK vs. LAC
p172
aVL
p173
aI21
aI1
aI4
aF0.25
aI0
aI1
aF0.0
aI0
aI0
aF0.0
aI0
aI1
aI1
aI0
aI1
aI0
aI2
aI1
aI2
aI-8
aa(lp174
V0021200745
p175
aVFEB 08, 2013
p176
aVNYK @ MIN
p177
aVW
p178
aI12
aI0
aI2
aF0.0
aI0
aI0
aF0.0
aI0
aI0
aF0.0
aI0
aI3
aI3
aI2
aI0
aI0
aI1
aI2
aI0
aI-5
aa(lp179
V0021200722
p180
aVFEB 06, 2013
p181
aVNYK @ WAS
p182
aVL
p183
aI22
aI2
aI8
aF0.25
aI1
aI3
aF0.333
aI0
aI0
aF0.0
aI1
aI1
aI2
aI2
aI0
aI0
aI1
aI2
aI5
aI-6
aa(lp184
V0021200710
p185
aVFEB 04, 2013
p186
aVNYK vs. DET
p187
aVW
p188
aI17
aI2
aI3
aF0.667
aI2
aI2
aF1.0
aI2
aI2
aF1.0
aI1
aI1
aI2
aI2
aI0
aI0
aI0
aI1
aI8
aI9
aa(lp189
V0021200697
p190
aVFEB 02, 2013
p191
aVNYK vs. SAC
p192
aVW
p193
aI18
aI2
aI6
aF0.333
aI1
aI3
aF0.333
aI1
aI2
aF0.5
aI1
aI1
aI2
aI3
aI0
aI0
aI0
aI1
aI6
aI25
aa(lp194
V0021200688
p195
aVFEB 01, 2013
p196
aVNYK vs. MIL
p197
aVW
p198
aI18
aI3
aI7
aF0.429
aI1
aI3
aF0.333
aI0
aI0
aF0.0
aI1
aI3
aI4
aI1
aI0
aI0
aI0
aI0
aI7
aI5
aa(lp199
V0021200673
p200
aVJAN 30, 2013
p201
aVNYK vs. ORL
p202
aVW
p203
aI22
aI3
aI7
aF0.429
aI1
aI4
aF0.25
aI0
aI0
aF0.0
aI1
aI3
aI4
aI2
aI2
aI0
aI2
aI5
aI7
aI-1
aa(lp204
V0021200656
p205
aVJAN 27, 2013
p206
aVNYK vs. ATL
p207
aVW
p208
aI19
aI3
aI5
aF0.6
aI2
aI2
aF1.0
aI0
aI0
aF0.0
aI0
aI1
aI1
aI1
aI2
aI0
aI1
aI0
aI8
aI-4
aa(lp209
V0021200643
p210
aVJAN 26, 2013
p211
aVNYK @ PHI
p212
aVL
p213
aI18
aI0
aI6
aF0.0
aI0
aI1
aF0.0
aI1
aI2
aF0.5
aI4
aI3
aI7
aI2
aI1
aI0
aI2
aI1
aI1
aI-18
aa(lp214
V0021200630
p215
aVJAN 24, 2013
p216
aVNYK @ BOS
p217
aVW
p218
aI27
aI4
aI10
aF0.4
aI2
aI4
aF0.5
aI0
aI0
aF0.0
aI1
aI4
aI5
aI1
aI0
aI0
aI0
aI4
aI10
aI-6
aa(lp219
V0021200609
p220
aVJAN 21, 2013
p221
aVNYK vs. BKN
p222
aVL
p223
aI20
aI1
aI6
aF0.167
aI0
aI3
aF0.0
aI0
aI0
aF0.0
aI1
aI3
aI4
aI2
aI1
aI0
aI0
aI1
aI2
aI-8
aa(lp224
V0021200580
p225
aVJAN 17, 2013
p226
aVNYK @ DET
p227
aVW
p228
aI15
aI3
aI7
aF0.429
aI2
aI3
aF0.667
aI0
aI2
aF0.0
aI1
aI1
aI2
aI1
aI1
aI1
aI0
aI2
aI8
aI11
aasS'name'
p229
VIman Shumpert
p230
sS'experience'
p231
I1
s.