(dp0
S'stats'
p1
(lp2
(lp3
V0021201208
p4
aVAPR 15, 2013
p5
aVMEM @ DAL
p6
aVW
p7
aI3
aI0
aI1
aF0.0
aI0
aI0
aF0.0
aI0
aI0
aF0.0
aI0
aI1
aI1
aI0
aI0
aI0
aI0
aI1
aI0
aI-5
aI1
aa(lp8
V0021201159
p9
aVAPR 09, 2013
p10
aVMEM vs. CHA
p11
aVW
p12
aI13
aI4
aI4
aF1.0
aI0
aI0
aF0.0
aI3
aI3
aF1.0
aI0
aI5
aI5
aI2
aI1
aI0
aI0
aI0
aI11
aI13
aI0
aa(lp13
V0021201149
p14
aVAPR 07, 2013
p15
aVMEM @ SAC
p16
aVW
p17
aI7
aI0
aI2
aF0.0
aI0
aI0
aF0.0
aI0
aI0
aF0.0
aI0
aI0
aI0
aI0
aI0
aI0
aI0
aI2
aI0
aI-2
aI1
aa(lp18
V0021201137
p19
aVAPR 05, 2013
p20
aVMEM @ LAL
p21
aVL
p22
aI5
aI1
aI1
aF1.0
aI0
aI0
aF0.0
aI0
aI0
aF0.0
aI1
aI0
aI1
aI0
aI0
aI0
aI0
aI0
aI2
aI4
aI1
aa(lp23
V0021201120
p24
aVAPR 03, 2013
p25
aVMEM @ POR
p26
aVW
p27
aI3
aI1
aI1
aF1.0
aI0
aI0
aF0.0
aI0
aI0
aF0.0
aI0
aI0
aI0
aI0
aI0
aI0
aI1
aI0
aI2
aI-1
aI1
aa(lp28
V0021201089
p29
aVMAR 30, 2013
p30
aVMEM @ MIN
p31
aVW
p32
aI1
aI0
aI0
aF0.0
aI0
aI0
aF0.0
aI0
aI0
aF0.0
aI0
aI0
aI0
aI0
aI0
aI0
aI0
aI0
aI0
aI-1
aI1
aa(lp33
V0021201048
p34
aVMAR 25, 2013
p35
aVMEM @ WAS
p36
aVL
p37
aI7
aI1
aI1
aF1.0
aI0
aI0
aF0.0
aI0
aI0
aF0.0
aI1
aI1
aI2
aI0
aI0
aI0
aI0
aI0
aI2
aI-4
aI1
aa(lp38
V0021201027
p39
aVMAR 22, 2013
p40
aVMEM @ NOH
p41
aVL
p42
aI0
aI0
aI0
aF0.0
aI0
aI0
aF0.0
aI0
aI0
aF0.0
aI0
aI1
aI1
aI0
aI0
aI0
aI0
aI0
aI0
aI0
aI1
aa(lp43
V0021200983
p44
aVMAR 16, 2013
p45
aVMEM @ UTA
p46
aVL
p47
aI0
aI0
aI0
aF0.0
aI0
aI0
aF0.0
aI0
aI0
aF0.0
aI0
aI0
aI0
aI0
aI0
aI0
aI0
aI0
aI0
aI0
aI1
aa(lp48
V0021200930
p49
aVMAR 09, 2013
p50
aVMEM vs. NOH
p51
aVW
p52
aI5
aI0
aI1
aF0.0
aI0
aI0
aF0.0
aI0
aI0
aF0.0
aI1
aI0
aI1
aI0
aI1
aI0
aI0
aI0
aI0
aI-4
aI1
aa(lp53
V0021200920
p54
aVMAR 08, 2013
p55
aVMEM @ CLE
p56
aVW
p57
aI12
aI2
aI2
aF1.0
aI0
aI0
aF0.0
aI0
aI0
aF0.0
aI0
aI3
aI3
aI0
aI0
aI0
aI0
aI0
aI4
aI-7
aI1
aa(lp58
V0021200905
p59
aVMAR 06, 2013
p60
aVMEM vs. POR
p61
aVW
p62
aI10
aI1
aI4
aF0.25
aI0
aI0
aF0.0
aI0
aI0
aF0.0
aI1
aI2
aI3
aI0
aI0
aI0
aI0
aI2
aI2
aI-9
aI1
aa(lp63
V0021200883
p64
aVMAR 03, 2013
p65
aVMEM @ ORL
p66
aVW
p67
aI17
aI3
aI4
aF0.75
aI0
aI0
aF0.0
aI0
aI0
aF0.0
aI3
aI1
aI4
aI1
aI1
aI0
aI1
aI2
aI6
aI2
aI0
aa(lp68
V0021200831
p69
aVFEB 24, 2013
p70
aVMEM @ BKN
p71
aVW
p72
aI1
aI0
aI0
aF0.0
aI0
aI0
aF0.0
aI0
aI0
aF0.0
aI0
aI0
aI0
aI0
aI0
aI0
aI0
aI0
aI0
aI0
aI1
aa(lp73
V0021200792
p74
aVFEB 19, 2013
p75
aVMEM @ DET
p76
aVW
p77
aI5
aI1
aI1
aF1.0
aI0
aI0
aF0.0
aI1
aI2
aF0.5
aI1
aI1
aI2
aI0
aI0
aI0
aI1
aI2
aI3
aI-11
aI1
aa(lp78
V0021200757
p79
aVFEB 10, 2013
p80
aVMEM vs. MIN
p81
aVW
p82
aI1
aI0
aI0
aF0.0
aI0
aI0
aF0.0
aI0
aI0
aF0.0
aI0
aI0
aI0
aI0
aI0
aI0
aI0
aI1
aI0
aI-1
aI0
aa(lp83
V0021200725
p84
aVFEB 06, 2013
p85
aVMEM @ ATL
p86
aVL
p87
aI0
aI1
aI1
aF1.0
aI0
aI0
aF0.0
aI0
aI0
aF0.0
aI0
aI0
aI0
aI0
aI0
aI0
aI0
aI0
aI2
aI2
aI1
aa(lp88
V0021200682
p89
aVJAN 31, 2013
p90
aVMEM @ OKC
p91
aVL
p92
aI5
aI0
aI0
aF0.0
aI0
aI0
aF0.0
aI0
aI0
aF0.0
aI0
aI1
aI1
aI0
aI0
aI0
aI0
aI0
aI0
aI-1
aI1
aa(lp93
V0021200637
p94
aVJAN 25, 2013
p95
aVMEM vs. BKN
p96
aVW
p97
aI2
aI0
aI1
aF0.0
aI0
aI0
aF0.0
aI0
aI2
aF0.0
aI0
aI0
aI0
aI0
aI1
aI0
aI0
aI0
aI0
aI0
aI1
aa(lp98
V0021200598
p99
aVJAN 19, 2013
p100
aVCLE @ UTA
p101
aVL
p102
aI1
aI0
aI1
aF0.0
aI0
aI0
aF0.0
aI0
aI0
aF0.0
aI0
aI0
aI0
aI0
aI0
aI0
aI0
aI0
aI0
aI2
aI1
aa(lp103
V0021200555
p104
aVJAN 13, 2013
p105
aVCLE @ LAL
p106
aVL
p107
aI6
aI1
aI1
aF1.0
aI0
aI0
aF0.0
aI0
aI0
aF0.0
aI0
aI1
aI1
aI1
aI0
aI0
aI1
aI2
aI2
aI3
aI1
aa(lp108
V0021200518
p109
aVJAN 09, 2013
p110
aVCLE vs. ATL
p111
aVW
p112
aI3
aI0
aI1
aF0.0
aI0
aI0
aF0.0
aI0
aI0
aF0.0
aI0
aI1
aI1
aI0
aI0
aI0
aI0
aI0
aI0
aI-2
aI1
aa(lp113
V0021200506
p114
aVJAN 07, 2013
p115
aVCLE @ CHI
p116
aVL
p117
aI9
aI2
aI4
aF0.5
aI0
aI1
aF0.0
aI0
aI0
aF0.0
aI1
aI0
aI1
aI1
aI1
aI0
aI0
aI1
aI4
aI-4
aI0
aa(lp118
V0021200205
p119
aVNOV 27, 2012
p120
aVCLE vs. PHX
p121
aVL
p122
aI3
aI0
aI0
aF0.0
aI0
aI0
aF0.0
aI1
aI2
aF0.5
aI0
aI1
aI1
aI0
aI0
aI0
aI0
aI0
aI1
aI8
aI1
aa(lp123
V0021200106
p124
aVNOV 13, 2012
p125
aVCLE @ BKN
p126
aVL
p127
aI17
aI2
aI7
aF0.286
aI0
aI0
aF0.0
aI0
aI0
aF0.0
aI0
aI1
aI1
aI0
aI0
aI0
aI2
aI2
aI4
aI-13
aI1
aa(lp128
V0021200093
p129
aVNOV 11, 2012
p130
aVCLE @ OKC
p131
aVL
p132
aI24
aI2
aI8
aF0.25
aI0
aI1
aF0.0
aI0
aI2
aF0.0
aI2
aI0
aI2
aI2
aI0
aI0
aI0
aI2
aI4
aI-9
aI1
aa(lp133
V0021200065
p134
aVNOV 07, 2012
p135
aVCLE @ GSW
p136
aVL
p137
aI22
aI3
aI5
aF0.6
aI0
aI0
aF0.0
aI1
aI2
aF0.5
aI2
aI2
aI4
aI1
aI1
aI0
aI2
aI4
aI7
aI-19
aI1
aa(lp138
V0021200019
p139
aVNOV 02, 2012
p140
aVCLE vs. CHI
p141
aVL
p142
aI6
aI0
aI1
aF0.0
aI0
aI1
aF0.0
aI0
aI0
aF0.0
aI0
aI2
aI2
aI0
aI0
aI0
aI0
aI0
aI0
aI-6
aI1
aasS'name'
p143
VJon Leuer
p144
s.