(dp0
S'age'
p1
I21
sS'stats'
p2
(lp3
(lp4
V0021201228
p5
aVAPR 17, 2013
p6
aVLAL vs. HOU
p7
aVW
p8
aI16
aI2
aI2
aF1.0
aI1
aI1
aF1.0
aI0
aI0
aF0.0
aI0
aI1
aI1
aI2
aI0
aI0
aI2
aI4
aI5
aI2
aa(lp9
V0021201201
p10
aVAPR 14, 2013
p11
aVLAL vs. SAS
p12
aVW
p13
aI20
aI1
aI6
aF0.167
aI0
aI2
aF0.0
aI0
aI0
aF0.0
aI2
aI2
aI4
aI4
aI0
aI1
aI0
aI2
aI2
aI5
aa(lp14
V0021201146
p15
aVAPR 07, 2013
p16
aVLAL @ LAC
p17
aVL
p18
aI1
aI0
aI1
aF0.0
aI0
aI1
aF0.0
aI0
aI0
aF0.0
aI0
aI0
aI0
aI0
aI0
aI0
aI0
aI0
aI0
aI0
aa(lp19
V0021201093
p20
aVMAR 30, 2013
p21
aVLAL @ SAC
p22
aVW
p23
aI0
aI0
aI1
aF0.0
aI0
aI1
aF0.0
aI0
aI0
aF0.0
aI0
aI0
aI0
aI0
aI1
aI0
aI0
aI0
aI0
aI0
aa(lp24
V0021201002
p25
aVMAR 18, 2013
p26
aVLAL @ PHX
p27
aVL
p28
aI3
aI0
aI2
aF0.0
aI0
aI0
aF0.0
aI1
aI1
aF1.0
aI0
aI0
aI0
aI0
aI0
aI0
aI1
aI0
aI1
aI-5
aa(lp29
V0021200949
p30
aVMAR 12, 2013
p31
aVLAL @ ORL
p32
aVW
p33
aI1
aI0
aI0
aF0.0
aI0
aI0
aF0.0
aI0
aI0
aF0.0
aI0
aI0
aI0
aI0
aI0
aI0
aI0
aI0
aI0
aI-4
aa(lp34
V0021200863
p35
aVFEB 28, 2013
p36
aVLAL vs. MIN
p37
aVW
p38
aI5
aI0
aI1
aF0.0
aI0
aI0
aF0.0
aI0
aI0
aF0.0
aI0
aI1
aI1
aI1
aI0
aI0
aI0
aI1
aI0
aI-1
aa(lp39
V0021200788
p40
aVFEB 14, 2013
p41
aVLAL vs. LAC
p42
aVL
p43
aI4
aI2
aI3
aF0.667
aI0
aI1
aF0.0
aI0
aI0
aF0.0
aI0
aI0
aI0
aI0
aI0
aI0
aI0
aI0
aI4
aI2
aa(lp44
V0021200733
p45
aVFEB 07, 2013
p46
aVLAL @ BOS
p47
aVL
p48
aI5
aI0
aI0
aF0.0
aI0
aI0
aF0.0
aI0
aI0
aF0.0
aI0
aI0
aI0
aI2
aI0
aI0
aI0
aI0
aI0
aI6
aa(lp49
V0021200641
p50
aVJAN 25, 2013
p51
aVLAL vs. UTA
p52
aVW
p53
aI1
aI0
aI0
aF0.0
aI0
aI0
aF0.0
aI0
aI0
aF0.0
aI0
aI0
aI0
aI0
aI0
aI0
aI0
aI0
aI0
aI-1
aa(lp54
V0021200621
p55
aVJAN 23, 2013
p56
aVLAL @ MEM
p57
aVL
p58
aI7
aI1
aI1
aF1.0
aI0
aI0
aF0.0
aI1
aI1
aF1.0
aI0
aI1
aI1
aI2
aI0
aI0
aI2
aI0
aI3
aI5
aa(lp59
V0021200612
p60
aVJAN 21, 2013
p61
aVLAL @ CHI
p62
aVL
p63
aI3
aI0
aI1
aF0.0
aI0
aI0
aF0.0
aI0
aI0
aF0.0
aI0
aI1
aI1
aI0
aI0
aI0
aI0
aI0
aI0
aI-1
aa(lp64
V0021200601
p65
aVJAN 20, 2013
p66
aVLAL @ TOR
p67
aVL
p68
aI5
aI1
aI1
aF1.0
aI0
aI0
aF0.0
aI0
aI0
aF0.0
aI0
aI0
aI0
aI0
aI0
aI0
aI1
aI1
aI2
aI-6
aa(lp69
V0021200583
p70
aVJAN 17, 2013
p71
aVLAL vs. MIA
p72
aVL
p73
aI5
aI0
aI1
aF0.0
aI0
aI1
aF0.0
aI0
aI0
aF0.0
aI0
aI0
aI0
aI0
aI0
aI0
aI1
aI1
aI0
aI0
aa(lp74
V0021200569
p75
aVJAN 15, 2013
p76
aVLAL vs. MIL
p77
aVW
p78
aI19
aI1
aI6
aF0.167
aI1
aI3
aF0.333
aI0
aI0
aF0.0
aI0
aI0
aI0
aI2
aI0
aI0
aI0
aI3
aI3
aI-6
aa(lp79
V0021200555
p80
aVJAN 13, 2013
p81
aVLAL vs. CLE
p82
aVW
p83
aI20
aI5
aI9
aF0.556
aI2
aI4
aF0.5
aI2
aI4
aF0.5
aI0
aI0
aI0
aI1
aI1
aI0
aI1
aI0
aI14
aI1
aa(lp84
V0021200539
p85
aVJAN 11, 2013
p86
aVLAL vs. OKC
p87
aVL
p88
aI10
aI3
aI6
aF0.5
aI0
aI1
aF0.0
aI2
aI2
aF1.0
aI2
aI0
aI2
aI0
aI0
aI0
aI0
aI1
aI8
aI4
aa(lp89
V0021200522
p90
aVJAN 09, 2013
p91
aVLAL @ SAS
p92
aVL
p93
aI10
aI1
aI2
aF0.5
aI0
aI0
aF0.0
aI0
aI0
aF0.0
aI0
aI2
aI2
aI0
aI1
aI0
aI1
aI2
aI2
aI-3
aa(lp94
V0021200514
p95
aVJAN 08, 2013
p96
aVLAL @ HOU
p97
aVL
p98
aI17
aI5
aI7
aF0.714
aI2
aI2
aF1.0
aI0
aI0
aF0.0
aI1
aI1
aI2
aI2
aI0
aI0
aI1
aI2
aI12
aI6
aa(lp99
V0021200488
p100
aVJAN 04, 2013
p101
aVLAL @ LAC
p102
aVL
p103
aI10
aI0
aI2
aF0.0
aI0
aI1
aF0.0
aI0
aI0
aF0.0
aI0
aI0
aI0
aI1
aI0
aI0
aI1
aI2
aI0
aI-17
aa(lp104
V0021200463
p105
aVJAN 01, 2013
p106
aVLAL vs. PHI
p107
aVL
p108
aI20
aI0
aI4
aF0.0
aI0
aI3
aF0.0
aI3
aI4
aF0.75
aI0
aI1
aI1
aI1
aI2
aI0
aI0
aI4
aI3
aI-18
aa(lp109
V0021200435
p110
aVDEC 28, 2012
p111
aVLAL vs. POR
p112
aVW
p113
aI24
aI4
aI6
aF0.667
aI0
aI1
aF0.0
aI0
aI0
aF0.0
aI2
aI2
aI4
aI2
aI0
aI0
aI0
aI1
aI8
aI10
aa(lp114
V0021200419
p115
aVDEC 26, 2012
p116
aVLAL @ DEN
p117
aVL
p118
aI7
aI0
aI0
aF0.0
aI0
aI0
aF0.0
aI0
aI0
aF0.0
aI0
aI1
aI1
aI1
aI0
aI0
aI3
aI0
aI0
aI-2
aa(lp119
V0021200406
p120
aVDEC 25, 2012
p121
aVLAL vs. NYK
p122
aVW
p123
aI7
aI0
aI2
aF0.0
aI0
aI2
aF0.0
aI0
aI0
aF0.0
aI0
aI0
aI0
aI0
aI0
aI0
aI0
aI2
aI0
aI-4
aa(lp124
V0021200398
p125
aVDEC 22, 2012
p126
aVLAL @ GSW
p127
aVW
p128
aI9
aI3
aI7
aF0.429
aI0
aI2
aF0.0
aI0
aI0
aF0.0
aI0
aI0
aI0
aI0
aI1
aI0
aI1
aI2
aI6
aI-1
aa(lp129
V0021200364
p130
aVDEC 18, 2012
p131
aVLAL vs. CHA
p132
aVW
p133
aI29
aI3
aI6
aF0.5
aI1
aI2
aF0.5
aI0
aI0
aF0.0
aI2
aI2
aI4
aI3
aI0
aI0
aI1
aI1
aI7
aI20
aa(lp134
V0021200347
p135
aVDEC 16, 2012
p136
aVLAL @ PHI
p137
aVW
p138
aI18
aI5
aI8
aF0.625
aI3
aI5
aF0.6
aI2
aI2
aF1.0
aI0
aI0
aI0
aI2
aI0
aI0
aI0
aI1
aI15
aI6
aa(lp139
V0021200326
p140
aVDEC 14, 2012
p141
aVLAL @ WAS
p142
aVW
p143
aI14
aI2
aI2
aF1.0
aI1
aI1
aF1.0
aI0
aI0
aF0.0
aI0
aI1
aI1
aI1
aI0
aI0
aI1
aI0
aI5
aI15
aa(lp144
V0021200305
p145
aVDEC 11, 2012
p146
aVLAL @ CLE
p147
aVL
p148
aI7
aI0
aI1
aF0.0
aI0
aI0
aF0.0
aI0
aI0
aF0.0
aI0
aI1
aI1
aI1
aI0
aI0
aI1
aI1
aI0
aI-2
aa(lp149
V0021200297
p150
aVDEC 09, 2012
p151
aVLAL vs. UTA
p152
aVL
p153
aI17
aI0
aI4
aF0.0
aI0
aI1
aF0.0
aI0
aI0
aF0.0
aI1
aI1
aI2
aI3
aI0
aI0
aI0
aI2
aI0
aI-9
aa(lp154
V0021200280
p155
aVDEC 07, 2012
p156
aVLAL @ OKC
p157
aVL
p158
aI9
aI0
aI3
aF0.0
aI0
aI0
aF0.0
aI0
aI0
aF0.0
aI0
aI0
aI0
aI2
aI0
aI0
aI0
aI1
aI0
aI-3
aa(lp159
V0021200263
p160
aVDEC 05, 2012
p161
aVLAL @ NOH
p162
aVW
p163
aI15
aI2
aI5
aF0.4
aI2
aI2
aF1.0
aI0
aI0
aF0.0
aI0
aI0
aI0
aI4
aI1
aI0
aI1
aI0
aI6
aI7
aa(lp164
V0021200256
p165
aVDEC 04, 2012
p166
aVLAL @ HOU
p167
aVL
p168
aI10
aI0
aI2
aF0.0
aI0
aI0
aF0.0
aI0
aI0
aF0.0
aI1
aI2
aI3
aI2
aI0
aI0
aI0
aI1
aI0
aI-9
aa(lp169
V0021200244
p170
aVDEC 02, 2012
p171
aVLAL vs. ORL
p172
aVL
p173
aI18
aI1
aI5
aF0.2
aI0
aI2
aF0.0
aI0
aI0
aF0.0
aI1
aI1
aI2
aI3
aI1
aI0
aI1
aI2
aI2
aI-6
aa(lp174
V0021200232
p175
aVNOV 30, 2012
p176
aVLAL vs. DEN
p177
aVW
p178
aI18
aI1
aI3
aF0.333
aI1
aI1
aF1.0
aI0
aI0
aF0.0
aI0
aI1
aI1
aI3
aI0
aI1
aI2
aI2
aI3
aI-3
aa(lp179
V0021200208
p180
aVNOV 27, 2012
p181
aVLAL vs. IND
p182
aVL
p183
aI22
aI0
aI6
aF0.0
aI0
aI3
aF0.0
aI1
aI4
aF0.25
aI1
aI0
aI1
aI0
aI3
aI0
aI0
aI1
aI1
aI-16
aa(lp184
V0021200187
p185
aVNOV 24, 2012
p186
aVLAL @ DAL
p187
aVW
p188
aI24
aI3
aI9
aF0.333
aI0
aI1
aF0.0
aI1
aI1
aF1.0
aI1
aI3
aI4
aI2
aI3
aI0
aI4
aI2
aI7
aI24
aa(lp189
V0021200177
p190
aVNOV 23, 2012
p191
aVLAL @ MEM
p192
aVL
p193
aI27
aI4
aI6
aF0.667
aI1
aI1
aF1.0
aI0
aI0
aF0.0
aI1
aI1
aI2
aI1
aI1
aI0
aI2
aI1
aI9
aI-10
aa(lp194
V0021200169
p195
aVNOV 21, 2012
p196
aVLAL @ SAC
p197
aVL
p198
aI31
aI3
aI5
aF0.6
aI1
aI3
aF0.333
aI5
aI6
aF0.833
aI0
aI1
aI1
aI2
aI0
aI0
aI5
aI3
aI12
aI-12
aa(lp199
V0021200156
p200
aVNOV 20, 2012
p201
aVLAL vs. BKN
p202
aVW
p203
aI23
aI1
aI4
aF0.25
aI1
aI2
aF0.5
aI0
aI0
aF0.0
aI0
aI1
aI1
aI3
aI1
aI0
aI1
aI4
aI3
aI-1
aa(lp204
V0021200146
p205
aVNOV 18, 2012
p206
aVLAL vs. HOU
p207
aVW
p208
aI31
aI5
aI8
aF0.625
aI2
aI3
aF0.667
aI0
aI0
aF0.0
aI0
aI2
aI2
aI5
aI2
aI0
aI2
aI0
aI12
aI5
aa(lp209
V0021200130
p210
aVNOV 16, 2012
p211
aVLAL vs. PHX
p212
aVW
p213
aI31
aI2
aI5
aF0.4
aI0
aI0
aF0.0
aI1
aI1
aF1.0
aI1
aI0
aI1
aI6
aI1
aI0
aI2
aI3
aI5
aI2
aa(lp214
V0021200108
p215
aVNOV 13, 2012
p216
aVLAL vs. SAS
p217
aVL
p218
aI21
aI0
aI5
aF0.0
aI0
aI2
aF0.0
aI1
aI4
aF0.25
aI2
aI0
aI2
aI1
aI0
aI0
aI0
aI1
aI1
aI1
aa(lp219
V0021200094
p220
aVNOV 11, 2012
p221
aVLAL vs. SAC
p222
aVW
p223
aI22
aI3
aI7
aF0.429
aI1
aI3
aF0.333
aI0
aI1
aF0.0
aI1
aI1
aI2
aI3
aI0
aI0
aI1
aI2
aI7
aI9
aa(lp224
V0021200080
p225
aVNOV 09, 2012
p226
aVLAL vs. GSW
p227
aVW
p228
aI26
aI3
aI7
aF0.429
aI2
aI3
aF0.667
aI2
aI3
aF0.667
aI3
aI2
aI5
aI5
aI1
aI0
aI1
aI1
aI10
aI15
aa(lp229
V0021200062
p230
aVNOV 07, 2012
p231
aVLAL @ UTA
p232
aVL
p233
aI12
aI1
aI6
aF0.167
aI0
aI2
aF0.0
aI1
aI1
aF1.0
aI1
aI0
aI1
aI0
aI0
aI0
aI2
aI0
aI3
aI-14
aa(lp234
V0021200041
p235
aVNOV 04, 2012
p236
aVLAL vs. DET
p237
aVW
p238
aI15
aI2
aI5
aF0.4
aI1
aI1
aF1.0
aI1
aI2
aF0.5
aI1
aI0
aI1
aI2
aI0
aI0
aI1
aI0
aI6
aI1
aa(lp239
V0021200025
p240
aVNOV 02, 2012
p241
aVLAL vs. LAC
p242
aVL
p243
aI13
aI3
aI5
aF0.6
aI1
aI2
aF0.5
aI0
aI0
aF0.0
aI0
aI0
aI0
aI1
aI1
aI0
aI2
aI1
aI7
aI-7
aasS'name'
p244
VDarius Morris
p245
sS'experience'
p246
I1
s.