(dp0
S'age'
p1
I20
sS'stats'
p2
(lp3
(lp4
V0021200012
p5
aVOCT 31, 2012
p6
aVPOR vs. LAL
p7
aVW
p8
aI23
aI1
aI2
aF0.5
aI0
aI0
aF0.0
aI2
aI2
aF1.0
aI0
aI3
aI3
aI1
aI0
aI0
aI0
aI3
aI4
aI17
aa(lp9
V0021200022
p10
aVNOV 02, 2012
p11
aVPOR @ OKC
p12
aVL
p13
aI15
aI0
aI0
aF0.0
aI0
aI0
aF0.0
aI3
aI4
aF0.75
aI0
aI4
aI4
aI0
aI0
aI0
aI1
aI2
aI3
aI-8
aa(lp14
V0021200032
p15
aVNOV 03, 2012
p16
aVPOR @ HOU
p17
aVW
p18
aI17
aI0
aI0
aF0.0
aI0
aI0
aF0.0
aI1
aI2
aF0.5
aI1
aI1
aI2
aI0
aI0
aI2
aI0
aI2
aI1
aI2
aa(lp19
V0021200046
p20
aVNOV 05, 2012
p21
aVPOR @ DAL
p22
aVL
p23
aI23
aI3
aI7
aF0.429
aI0
aI0
aF0.0
aI0
aI0
aF0.0
aI4
aI5
aI9
aI1
aI0
aI1
aI1
aI1
aI6
aI-9
aa(lp24
V0021200067
p25
aVNOV 08, 2012
p26
aVPOR vs. LAC
p27
aVL
p28
aI24
aI3
aI4
aF0.75
aI0
aI0
aF0.0
aI2
aI2
aF1.0
aI3
aI3
aI6
aI1
aI1
aI1
aI0
aI3
aI8
aI-7
aa(lp29
V0021200088
p30
aVNOV 10, 2012
p31
aVPOR vs. SAS
p32
aVL
p33
aI13
aI1
aI3
aF0.333
aI0
aI0
aF0.0
aI0
aI0
aF0.0
aI1
aI2
aI3
aI0
aI0
aI0
aI1
aI2
aI2
aI-17
aa(lp34
V0021200102
p35
aVNOV 12, 2012
p36
aVPOR vs. ATL
p37
aVL
p38
aI15
aI1
aI4
aF0.25
aI0
aI1
aF0.0
aI2
aI2
aF1.0
aI1
aI1
aI2
aI0
aI1
aI2
aI1
aI2
aI4
aI-2
aa(lp39
V0021200107
p40
aVNOV 13, 2012
p41
aVPOR @ SAC
p42
aVW
p43
aI9
aI0
aI0
aF0.0
aI0
aI0
aF0.0
aI2
aI2
aF1.0
aI1
aI1
aI2
aI0
aI0
aI0
aI0
aI0
aI2
aI-13
aa(lp44
V0021200129
p45
aVNOV 16, 2012
p46
aVPOR vs. HOU
p47
aVW
p48
aI27
aI3
aI5
aF0.6
aI0
aI0
aF0.0
aI2
aI2
aF1.0
aI4
aI4
aI8
aI0
aI1
aI1
aI0
aI4
aI8
aI12
aa(lp49
V0021200145
p50
aVNOV 18, 2012
p51
aVPOR vs. CHI
p52
aVW
p53
aI9
aI0
aI0
aF0.0
aI0
aI0
aF0.0
aI0
aI0
aF0.0
aI0
aI0
aI0
aI0
aI0
aI0
aI1
aI4
aI0
aI-4
aa(lp54
V0021200168
p55
aVNOV 21, 2012
p56
aVPOR @ PHX
p57
aVL
p58
aI36
aI6
aI9
aF0.667
aI0
aI0
aF0.0
aI0
aI0
aF0.0
aI2
aI3
aI5
aI1
aI2
aI2
aI0
aI3
aI12
aI-20
aa(lp59
V0021200182
p60
aVNOV 23, 2012
p61
aVPOR vs. MIN
p62
aVW
p63
aI9
aI1
aI3
aF0.333
aI0
aI0
aF0.0
aI0
aI0
aF0.0
aI0
aI0
aI0
aI0
aI0
aI1
aI1
aI3
aI2
aI-1
aa(lp64
V0021200193
p65
aVNOV 25, 2012
p66
aVPOR @ BKN
p67
aVL
p68
aI29
aI6
aI10
aF0.6
aI0
aI0
aF0.0
aI0
aI0
aF0.0
aI0
aI3
aI3
aI0
aI0
aI1
aI0
aI4
aI12
aI-7
aa(lp69
V0021200198
p70
aVNOV 26, 2012
p71
aVPOR @ DET
p72
aVL
p73
aI20
aI3
aI4
aF0.75
aI0
aI0
aF0.0
aI2
aI2
aF1.0
aI2
aI2
aI4
aI0
aI0
aI3
aI1
aI1
aI8
aI8
aa(lp74
V0021200209
p75
aVNOV 28, 2012
p76
aVPOR @ WAS
p77
aVL
p78
aI14
aI1
aI5
aF0.2
aI0
aI0
aF0.0
aI0
aI0
aF0.0
aI3
aI4
aI7
aI0
aI0
aI0
aI1
aI3
aI2
aI-2
aa(lp79
V0021200225
p80
aVNOV 30, 2012
p81
aVPOR @ BOS
p82
aVL
p83
aI22
aI3
aI5
aF0.6
aI0
aI0
aF0.0
aI5
aI6
aF0.833
aI1
aI4
aI5
aI0
aI2
aI1
aI1
aI3
aI11
aI-1
aa(lp84
V0021200234
p85
aVDEC 01, 2012
p86
aVPOR @ CLE
p87
aVW
p88
aI20
aI1
aI1
aF1.0
aI0
aI0
aF0.0
aI0
aI0
aF0.0
aI1
aI1
aI2
aI0
aI0
aI2
aI2
aI1
aI2
aI-10
aa(lp89
V0021200245
p90
aVDEC 03, 2012
p91
aVPOR @ CHA
p92
aVW
p93
aI17
aI2
aI4
aF0.5
aI0
aI0
aF0.0
aI0
aI1
aF0.0
aI1
aI2
aI3
aI0
aI0
aI1
aI0
aI2
aI4
aI-13
aa(lp94
V0021200258
p95
aVDEC 05, 2012
p96
aVPOR @ IND
p97
aVL
p98
aI12
aI2
aI4
aF0.5
aI0
aI0
aF0.0
aI0
aI0
aF0.0
aI0
aI1
aI1
aI0
aI0
aI1
aI0
aI1
aI4
aI-10
aa(lp99
V0021200291
p100
aVDEC 08, 2012
p101
aVPOR vs. SAC
p102
aVL
p103
aI14
aI1
aI2
aF0.5
aI0
aI0
aF0.0
aI2
aI2
aF1.0
aI2
aI2
aI4
aI0
aI1
aI1
aI1
aI2
aI4
aI-6
aa(lp104
V0021200303
p105
aVDEC 10, 2012
p106
aVPOR vs. TOR
p107
aVW
p108
aI11
aI2
aI3
aF0.667
aI0
aI1
aF0.0
aI2
aI2
aF1.0
aI1
aI0
aI1
aI0
aI0
aI0
aI0
aI0
aI6
aI-5
aa(lp109
V0021200324
p110
aVDEC 13, 2012
p111
aVPOR vs. SAS
p112
aVW
p113
aI17
aI1
aI3
aF0.333
aI0
aI0
aF0.0
aI0
aI0
aF0.0
aI3
aI5
aI8
aI0
aI1
aI0
aI1
aI2
aI2
aI9
aa(lp114
V0021200349
p115
aVDEC 16, 2012
p116
aVPOR vs. NOH
p117
aVW
p118
aI6
aI0
aI0
aF0.0
aI0
aI0
aF0.0
aI0
aI0
aF0.0
aI0
aI0
aI0
aI0
aI0
aI0
aI0
aI2
aI0
aI0
aa(lp119
V0021200379
p120
aVDEC 20, 2012
p121
aVPOR vs. DEN
p122
aVW
p123
aI14
aI2
aI4
aF0.5
aI0
aI0
aF0.0
aI3
aI3
aF1.0
aI1
aI1
aI2
aI1
aI0
aI0
aI1
aI1
aI7
aI4
aa(lp124
V0021200397
p125
aVDEC 22, 2012
p126
aVPOR vs. PHX
p127
aVW
p128
aI6
aI2
aI2
aF1.0
aI0
aI0
aF0.0
aI0
aI0
aF0.0
aI0
aI0
aI0
aI0
aI0
aI0
aI2
aI1
aI4
aI-6
aa(lp129
V0021200404
p130
aVDEC 23, 2012
p131
aVPOR @ SAC
p132
aVL
p133
aI14
aI3
aI4
aF0.75
aI0
aI0
aF0.0
aI2
aI2
aF1.0
aI0
aI2
aI2
aI0
aI0
aI1
aI1
aI2
aI8
aI-6
aa(lp134
V0021200422
p135
aVDEC 26, 2012
p136
aVPOR vs. SAC
p137
aVW
p138
aI16
aI3
aI5
aF0.6
aI0
aI1
aF0.0
aI1
aI1
aF1.0
aI2
aI3
aI5
aI0
aI0
aI0
aI1
aI0
aI7
aI-4
aa(lp139
V0021200435
p140
aVDEC 28, 2012
p141
aVPOR @ LAL
p142
aVL
p143
aI17
aI0
aI1
aF0.0
aI0
aI0
aF0.0
aI0
aI0
aF0.0
aI1
aI6
aI7
aI0
aI0
aI1
aI0
aI3
aI0
aI1
aa(lp144
V0021200446
p145
aVDEC 29, 2012
p146
aVPOR vs. PHI
p147
aVW
p148
aI14
aI2
aI3
aF0.667
aI0
aI0
aF0.0
aI0
aI0
aF0.0
aI2
aI2
aI4
aI0
aI0
aI1
aI1
aI2
aI4
aI4
aa(lp149
V0021200613
p150
aVJAN 21, 2013
p151
aVPOR vs. WAS
p152
aVL
p153
aI12
aI3
aI3
aF1.0
aI0
aI0
aF0.0
aI0
aI1
aF0.0
aI1
aI3
aI4
aI0
aI0
aI0
aI1
aI4
aI6
aI-8
aa(lp154
V0021200627
p155
aVJAN 23, 2013
p156
aVPOR vs. IND
p157
aVW
p158
aI18
aI4
aI6
aF0.667
aI0
aI0
aF0.0
aI0
aI0
aF0.0
aI3
aI2
aI5
aI1
aI1
aI0
aI0
aI5
aI8
aI14
aa(lp159
V0021200651
p160
aVJAN 26, 2013
p161
aVPOR vs. LAC
p162
aVW
p163
aI16
aI2
aI4
aF0.5
aI0
aI0
aF0.0
aI2
aI2
aF1.0
aI1
aI3
aI4
aI1
aI0
aI0
aI1
aI3
aI6
aI14
aa(lp164
V0021200658
p165
aVJAN 27, 2013
p166
aVPOR @ LAC
p167
aVL
p168
aI8
aI0
aI1
aF0.0
aI0
aI0
aF0.0
aI1
aI2
aF0.5
aI0
aI1
aI1
aI1
aI0
aI0
aI0
aI1
aI1
aI-2
aa(lp169
V0021200668
p170
aVJAN 29, 2013
p171
aVPOR vs. DAL
p172
aVW
p173
aI3
aI0
aI0
aF0.0
aI0
aI0
aF0.0
aI0
aI0
aF0.0
aI0
aI0
aI0
aI0
aI0
aI0
aI0
aI0
aI0
aI-4
aa(lp174
V0021200693
p175
aVFEB 01, 2013
p176
aVPOR @ UTA
p177
aVL
p178
aI6
aI0
aI1
aF0.0
aI0
aI0
aF0.0
aI0
aI0
aF0.0
aI0
aI0
aI0
aI0
aI0
aI0
aI0
aI3
aI0
aI-8
aa(lp179
V0021200703
p180
aVFEB 02, 2013
p181
aVPOR vs. UTA
p182
aVW
p183
aI6
aI0
aI0
aF0.0
aI0
aI0
aF0.0
aI0
aI0
aF0.0
aI0
aI2
aI2
aI0
aI0
aI0
aI1
aI2
aI0
aI5
aa(lp184
V0021200713
p185
aVFEB 04, 2013
p186
aVPOR @ MIN
p187
aVW
p188
aI7
aI1
aI2
aF0.5
aI0
aI0
aF0.0
aI0
aI0
aF0.0
aI1
aI1
aI2
aI0
aI0
aI1
aI1
aI2
aI2
aI2
aa(lp189
V0021200730
p190
aVFEB 06, 2013
p191
aVPOR @ DAL
p192
aVL
p193
aI3
aI0
aI0
aF0.0
aI0
aI0
aF0.0
aI0
aI0
aF0.0
aI0
aI1
aI1
aI0
aI0
aI0
aI0
aI0
aI0
aI-5
aa(lp194
V0021200743
p195
aVFEB 08, 2013
p196
aVPOR @ HOU
p197
aVL
p198
aI19
aI0
aI3
aF0.0
aI0
aI0
aF0.0
aI1
aI2
aF0.5
aI2
aI1
aI3
aI1
aI0
aI0
aI0
aI1
aI1
aI1
aa(lp199
V0021200756
p200
aVFEB 10, 2013
p201
aVPOR @ ORL
p202
aVL
p203
aI8
aI2
aI2
aF1.0
aI0
aI0
aF0.0
aI0
aI0
aF0.0
aI0
aI1
aI1
aI1
aI0
aI0
aI0
aI2
aI4
aI-2
aa(lp204
V0021200783
p205
aVFEB 13, 2013
p206
aVPOR @ NOH
p207
aVL
p208
aI18
aI1
aI3
aF0.333
aI0
aI0
aF0.0
aI4
aI4
aF1.0
aI0
aI3
aI3
aI0
aI0
aI0
aI0
aI3
aI6
aI-19
aa(lp209
V0021200797
p210
aVFEB 19, 2013
p211
aVPOR vs. PHX
p212
aVL
p213
aI6
aI0
aI0
aF0.0
aI0
aI0
aF0.0
aI2
aI2
aF1.0
aI0
aI0
aI0
aI0
aI0
aI0
aI0
aI2
aI2
aI-1
aa(lp214
V0021200821
p215
aVFEB 22, 2013
p216
aVPOR @ LAL
p217
aVL
p218
aI13
aI2
aI3
aF0.667
aI0
aI0
aF0.0
aI0
aI0
aF0.0
aI2
aI2
aI4
aI1
aI0
aI1
aI0
aI4
aI4
aI-1
aa(lp219
V0021200837
p220
aVFEB 24, 2013
p221
aVPOR vs. BOS
p222
aVW
p223
aI16
aI1
aI3
aF0.333
aI0
aI0
aF0.0
aI1
aI1
aF1.0
aI2
aI4
aI6
aI0
aI0
aI1
aI1
aI2
aI3
aI-1
aa(lp224
V0021200860
p225
aVFEB 27, 2013
p226
aVPOR vs. DEN
p227
aVL
p228
aI16
aI4
aI7
aF0.571
aI0
aI0
aF0.0
aI5
aI5
aF1.0
aI2
aI3
aI5
aI1
aI0
aI0
aI0
aI4
aI13
aI-5
aa(lp229
V0021200879
p230
aVMAR 02, 2013
p231
aVPOR vs. MIN
p232
aVW
p233
aI21
aI6
aI7
aF0.857
aI0
aI0
aF0.0
aI0
aI2
aF0.0
aI2
aI6
aI8
aI0
aI0
aI0
aI2
aI2
aI12
aI5
aa(lp234
V0021200894
p235
aVMAR 04, 2013
p236
aVPOR vs. CHA
p237
aVW
p238
aI21
aI6
aI8
aF0.75
aI0
aI0
aF0.0
aI3
aI4
aF0.75
aI1
aI5
aI6
aI1
aI0
aI0
aI1
aI3
aI15
aI8
aa(lp239
V0021200905
p240
aVMAR 06, 2013
p241
aVPOR @ MEM
p242
aVL
p243
aI16
aI2
aI4
aF0.5
aI0
aI0
aF0.0
aI1
aI2
aF0.5
aI0
aI4
aI4
aI0
aI0
aI1
aI0
aI3
aI5
aI-3
aa(lp244
V0021200923
p245
aVMAR 08, 2013
p246
aVPOR @ SAS
p247
aVW
p248
aI5
aI0
aI0
aF0.0
aI0
aI0
aF0.0
aI0
aI0
aF0.0
aI0
aI1
aI1
aI1
aI0
aI1
aI0
aI1
aI0
aI1
aa(lp249
V0021200955
p250
aVMAR 12, 2013
p251
aVPOR vs. MEM
p252
aVL
p253
aI17
aI3
aI6
aF0.5
aI0
aI0
aF0.0
aI0
aI0
aF0.0
aI2
aI5
aI7
aI0
aI0
aI0
aI1
aI4
aI6
aI-2
aa(lp254
V0021200968
p255
aVMAR 14, 2013
p256
aVPOR vs. NYK
p257
aVW
p258
aI12
aI0
aI0
aF0.0
aI0
aI0
aF0.0
aI0
aI0
aF0.0
aI0
aI3
aI3
aI1
aI0
aI0
aI0
aI3
aI0
aI-7
aa(lp259
V0021200984
p260
aVMAR 16, 2013
p261
aVPOR vs. DET
p262
aVW
p263
aI15
aI1
aI3
aF0.333
aI0
aI0
aF0.0
aI0
aI0
aF0.0
aI0
aI1
aI1
aI1
aI0
aI1
aI0
aI3
aI2
aI5
aa(lp264
V0021200993
p265
aVMAR 18, 2013
p266
aVPOR @ PHI
p267
aVL
p268
aI17
aI2
aI3
aF0.667
aI0
aI0
aF0.0
aI2
aI2
aF1.0
aI0
aI3
aI3
aI0
aI0
aI1
aI0
aI1
aI6
aI2
aa(lp269
V0021201005
p270
aVMAR 19, 2013
p271
aVPOR @ MIL
p272
aVL
p273
aI6
aI1
aI2
aF0.5
aI0
aI0
aF0.0
aI0
aI0
aF0.0
aI1
aI0
aI1
aI0
aI0
aI1
aI0
aI2
aI2
aI-7
aa(lp274
V0021201019
p275
aVMAR 21, 2013
p276
aVPOR @ CHI
p277
aVW
p278
aI26
aI3
aI6
aF0.5
aI0
aI0
aF0.0
aI2
aI2
aF1.0
aI0
aI5
aI5
aI0
aI0
aI1
aI0
aI3
aI8
aI1
aa(lp279
V0021201025
p280
aVMAR 22, 2013
p281
aVPOR @ ATL
p282
aVW
p283
aI29
aI2
aI6
aF0.333
aI0
aI0
aF0.0
aI0
aI0
aF0.0
aI3
aI6
aI9
aI1
aI0
aI0
aI0
aI2
aI4
aI9
aa(lp284
V0021201043
p285
aVMAR 24, 2013
p286
aVPOR @ OKC
p287
aVL
p288
aI24
aI4
aI4
aF1.0
aI0
aI0
aF0.0
aI1
aI2
aF0.5
aI1
aI0
aI1
aI2
aI0
aI0
aI2
aI3
aI9
aI-8
aa(lp289
V0021201070
p290
aVMAR 27, 2013
p291
aVPOR vs. BKN
p292
aVL
p293
aI26
aI5
aI8
aF0.625
aI0
aI0
aF0.0
aI1
aI5
aF0.2
aI5
aI4
aI9
aI1
aI0
aI0
aI1
aI4
aI11
aI5
aa(lp294
V0021201084
p295
aVMAR 29, 2013
p296
aVPOR vs. UTA
p297
aVL
p298
aI32
aI5
aI11
aF0.455
aI0
aI0
aF0.0
aI2
aI2
aF1.0
aI1
aI2
aI3
aI1
aI0
aI0
aI3
aI4
aI12
aI10
aa(lp299
V0021201094
p300
aVMAR 30, 2013
p301
aVPOR @ GSW
p302
aVL
p303
aI41
aI9
aI17
aF0.529
aI1
aI1
aF1.0
aI3
aI3
aF1.0
aI2
aI8
aI10
aI1
aI0
aI1
aI0
aI4
aI22
aI-11
aa(lp304
V0021201106
p305
aVAPR 01, 2013
p306
aVPOR @ UTA
p307
aVL
p308
aI38
aI5
aI8
aF0.625
aI0
aI0
aF0.0
aI2
aI3
aF0.667
aI1
aI6
aI7
aI3
aI0
aI1
aI5
aI3
aI12
aI-2
aa(lp309
V0021201120
p310
aVAPR 03, 2013
p311
aVPOR vs. MEM
p312
aVL
p313
aI28
aI4
aI7
aF0.571
aI0
aI0
aF0.0
aI2
aI2
aF1.0
aI2
aI5
aI7
aI2
aI0
aI0
aI2
aI4
aI10
aI-8
aa(lp314
V0021201136
p315
aVAPR 05, 2013
p316
aVPOR vs. HOU
p317
aVL
p318
aI25
aI2
aI6
aF0.333
aI0
aI0
aF0.0
aI2
aI2
aF1.0
aI2
aI4
aI6
aI2
aI0
aI0
aI1
aI5
aI6
aI-7
aa(lp319
V0021201153
p320
aVAPR 07, 2013
p321
aVPOR vs. DAL
p322
aVL
p323
aI14
aI1
aI2
aF0.5
aI0
aI0
aF0.0
aI0
aI0
aF0.0
aI0
aI1
aI1
aI0
aI1
aI1
aI1
aI2
aI2
aI11
aa(lp324
V0021201171
p325
aVAPR 10, 2013
p326
aVPOR vs. LAL
p327
aVL
p328
aI32
aI2
aI4
aF0.5
aI0
aI0
aF0.0
aI0
aI0
aF0.0
aI3
aI2
aI5
aI2
aI0
aI0
aI1
aI4
aI4
aI-16
aa(lp329
V0021201188
p330
aVAPR 12, 2013
p331
aVPOR vs. OKC
p332
aVL
p333
aI19
aI4
aI8
aF0.5
aI1
aI1
aF1.0
aI1
aI1
aF1.0
aI1
aI4
aI5
aI0
aI0
aI1
aI1
aI1
aI10
aI2
aa(lp334
V0021201198
p335
aVAPR 14, 2013
p336
aVPOR @ DEN
p337
aVL
p338
aI23
aI5
aI9
aF0.556
aI0
aI0
aF0.0
aI0
aI0
aF0.0
aI2
aI3
aI5
aI2
aI0
aI0
aI1
aI4
aI10
aI-5
aa(lp339
V0021201215
p340
aVAPR 16, 2013
p341
aVPOR @ LAC
p342
aVL
p343
aI33
aI3
aI7
aF0.429
aI0
aI1
aF0.0
aI3
aI3
aF1.0
aI0
aI2
aI2
aI0
aI0
aI0
aI2
aI3
aI9
aI-12
aa(lp344
V0021201230
p345
aVAPR 17, 2013
p346
aVPOR vs. GSW
p347
aVL
p348
aI26
aI3
aI6
aF0.5
aI1
aI1
aF1.0
aI0
aI0
aF0.0
aI0
aI3
aI3
aI0
aI0
aI2
aI1
aI3
aI7
aI-9
aasS'name'
p349
VMeyers Leonard
p350
sS'experience'
p351
I0
s.