(dp0
S'stats'
p1
(lp2
(lp3
V0021200012
p4
aVOCT 31, 2012
p5
aVPOR vs. LAL
p6
aVW
p7
aI35
aI7
aI17
aF0.412
aI1
aI4
aF0.25
aI8
aI8
aF1.0
aI0
aI3
aI3
aI11
aI1
aI0
aI6
aI2
aI23
aI16
aa(lp8
V0021200022
p9
aVNOV 02, 2012
p10
aVPOR @ OKC
p11
aVL
p12
aI38
aI9
aI19
aF0.474
aI2
aI6
aF0.333
aI1
aI1
aF1.0
aI1
aI2
aI3
aI7
aI1
aI0
aI2
aI1
aI21
aI-9
aa(lp13
V0021200032
p14
aVNOV 03, 2012
p15
aVPOR @ HOU
p16
aVW
p17
aI42
aI8
aI15
aF0.533
aI3
aI6
aF0.5
aI1
aI2
aF0.5
aI1
aI5
aI6
aI9
aI0
aI0
aI3
aI0
aI20
aI10
aa(lp18
V0021200046
p19
aVNOV 05, 2012
p20
aVPOR @ DAL
p21
aVL
p22
aI33
aI2
aI13
aF0.154
aI1
aI8
aF0.125
aI8
aI8
aF1.0
aI1
aI2
aI3
aI5
aI1
aI0
aI1
aI2
aI13
aI-12
aa(lp23
V0021200067
p24
aVNOV 08, 2012
p25
aVPOR vs. LAC
p26
aVL
p27
aI41
aI6
aI13
aF0.462
aI2
aI4
aF0.5
aI2
aI4
aF0.5
aI1
aI1
aI2
aI4
aI3
aI0
aI3
aI2
aI16
aI-9
aa(lp28
V0021200088
p29
aVNOV 10, 2012
p30
aVPOR vs. SAS
p31
aVL
p32
aI38
aI8
aI16
aF0.5
aI4
aI8
aF0.5
aI0
aI1
aF0.0
aI1
aI2
aI3
aI6
aI2
aI0
aI4
aI3
aI20
aI1
aa(lp33
V0021200102
p34
aVNOV 12, 2012
p35
aVPOR vs. ATL
p36
aVL
p37
aI39
aI5
aI18
aF0.278
aI2
aI7
aF0.286
aI0
aI0
aF0.0
aI1
aI2
aI3
aI2
aI2
aI1
aI4
aI3
aI12
aI-20
aa(lp38
V0021200107
p39
aVNOV 13, 2012
p40
aVPOR @ SAC
p41
aVW
p42
aI35
aI7
aI10
aF0.7
aI5
aI6
aF0.833
aI3
aI4
aF0.75
aI1
aI1
aI2
aI9
aI0
aI0
aI4
aI2
aI22
aI24
aa(lp43
V0021200129
p44
aVNOV 16, 2012
p45
aVPOR vs. HOU
p46
aVW
p47
aI42
aI9
aI18
aF0.5
aI3
aI9
aF0.333
aI6
aI6
aF1.0
aI0
aI5
aI5
aI5
aI2
aI0
aI4
aI2
aI27
aI10
aa(lp48
V0021200145
p49
aVNOV 18, 2012
p50
aVPOR vs. CHI
p51
aVW
p52
aI32
aI7
aI13
aF0.538
aI1
aI4
aF0.25
aI1
aI2
aF0.5
aI0
aI2
aI2
aI3
aI3
aI0
aI2
aI2
aI16
aI-5
aa(lp53
V0021200168
p54
aVNOV 21, 2012
p55
aVPOR @ PHX
p56
aVL
p57
aI35
aI7
aI13
aF0.538
aI2
aI4
aF0.5
aI8
aI9
aF0.889
aI0
aI0
aI0
aI3
aI1
aI0
aI6
aI1
aI24
aI-16
aa(lp58
V0021200182
p59
aVNOV 23, 2012
p60
aVPOR vs. MIN
p61
aVW
p62
aI37
aI11
aI17
aF0.647
aI4
aI8
aF0.5
aI2
aI4
aF0.5
aI0
aI4
aI4
aI8
aI0
aI1
aI0
aI0
aI28
aI10
aa(lp63
V0021200193
p64
aVNOV 25, 2012
p65
aVPOR @ BKN
p66
aVL
p67
aI31
aI4
aI12
aF0.333
aI3
aI5
aF0.6
aI2
aI2
aF1.0
aI1
aI5
aI6
aI7
aI2
aI2
aI4
aI4
aI13
aI-12
aa(lp68
V0021200198
p69
aVNOV 26, 2012
p70
aVPOR @ DET
p71
aVL
p72
aI37
aI4
aI18
aF0.222
aI1
aI5
aF0.2
aI3
aI3
aF1.0
aI1
aI2
aI3
aI7
aI1
aI0
aI3
aI4
aI12
aI-5
aa(lp73
V0021200209
p74
aVNOV 28, 2012
p75
aVPOR @ WAS
p76
aVL
p77
aI43
aI6
aI21
aF0.286
aI4
aI9
aF0.444
aI4
aI4
aF1.0
aI2
aI0
aI2
aI5
aI2
aI0
aI2
aI1
aI20
aI2
aa(lp78
V0021200225
p79
aVNOV 30, 2012
p80
aVPOR @ BOS
p81
aVL
p82
aI31
aI2
aI8
aF0.25
aI1
aI5
aF0.2
aI3
aI4
aF0.75
aI1
aI2
aI3
aI3
aI1
aI0
aI3
aI3
aI8
aI-12
aa(lp83
V0021200234
p84
aVDEC 01, 2012
p85
aVPOR @ CLE
p86
aVW
p87
aI46
aI9
aI17
aF0.529
aI4
aI7
aF0.571
aI2
aI2
aF1.0
aI2
aI4
aI6
aI11
aI1
aI0
aI6
aI4
aI24
aI4
aa(lp88
V0021200245
p89
aVDEC 03, 2012
p90
aVPOR @ CHA
p91
aVW
p92
aI43
aI6
aI16
aF0.375
aI1
aI8
aF0.125
aI11
aI14
aF0.786
aI1
aI2
aI3
aI9
aI1
aI0
aI3
aI4
aI24
aI11
aa(lp93
V0021200258
p94
aVDEC 05, 2012
p95
aVPOR @ IND
p96
aVL
p97
aI43
aI9
aI15
aF0.6
aI1
aI5
aF0.2
aI4
aI5
aF0.8
aI0
aI3
aI3
aI6
aI0
aI0
aI0
aI3
aI23
aI-3
aa(lp98
V0021200291
p99
aVDEC 08, 2012
p100
aVPOR vs. SAC
p101
aVL
p102
aI39
aI5
aI13
aF0.385
aI2
aI5
aF0.4
aI0
aI1
aF0.0
aI0
aI1
aI1
aI9
aI0
aI0
aI4
aI1
aI12
aI-16
aa(lp103
V0021200303
p104
aVDEC 10, 2012
p105
aVPOR vs. TOR
p106
aVW
p107
aI35
aI2
aI14
aF0.143
aI0
aI5
aF0.0
aI5
aI5
aF1.0
aI1
aI4
aI5
aI6
aI0
aI0
aI2
aI0
aI9
aI16
aa(lp108
V0021200324
p109
aVDEC 13, 2012
p110
aVPOR vs. SAS
p111
aVW
p112
aI40
aI11
aI22
aF0.5
aI2
aI6
aF0.333
aI5
aI5
aF1.0
aI0
aI7
aI7
aI6
aI0
aI0
aI2
aI3
aI29
aI6
aa(lp113
V0021200349
p114
aVDEC 16, 2012
p115
aVPOR vs. NOH
p116
aVW
p117
aI39
aI5
aI14
aF0.357
aI4
aI10
aF0.4
aI2
aI2
aF1.0
aI0
aI2
aI2
aI4
aI1
aI1
aI1
aI3
aI16
aI-3
aa(lp118
V0021200379
p119
aVDEC 20, 2012
p120
aVPOR vs. DEN
p121
aVW
p122
aI35
aI3
aI14
aF0.214
aI1
aI6
aF0.167
aI5
aI6
aF0.833
aI1
aI3
aI4
aI10
aI1
aI0
aI2
aI0
aI12
aI9
aa(lp123
V0021200397
p124
aVDEC 22, 2012
p125
aVPOR vs. PHX
p126
aVW
p127
aI39
aI7
aI13
aF0.538
aI2
aI5
aF0.4
aI9
aI10
aF0.9
aI1
aI0
aI1
aI7
aI1
aI0
aI3
aI2
aI25
aI7
aa(lp128
V0021200404
p129
aVDEC 23, 2012
p130
aVPOR @ SAC
p131
aVL
p132
aI36
aI6
aI14
aF0.429
aI3
aI6
aF0.5
aI0
aI0
aF0.0
aI0
aI2
aI2
aI7
aI1
aI1
aI3
aI1
aI15
aI-3
aa(lp133
V0021200422
p134
aVDEC 26, 2012
p135
aVPOR vs. SAC
p136
aVW
p137
aI38
aI7
aI14
aF0.5
aI3
aI5
aF0.6
aI0
aI0
aF0.0
aI2
aI6
aI8
aI11
aI1
aI1
aI4
aI3
aI17
aI27
aa(lp138
V0021200435
p139
aVDEC 28, 2012
p140
aVPOR @ LAL
p141
aVL
p142
aI37
aI4
aI17
aF0.235
aI1
aI4
aF0.25
aI2
aI2
aF1.0
aI0
aI2
aI2
aI4
aI1
aI0
aI3
aI2
aI11
aI-21
aa(lp143
V0021200446
p144
aVDEC 29, 2012
p145
aVPOR vs. PHI
p146
aVW
p147
aI39
aI8
aI18
aF0.444
aI4
aI11
aF0.364
aI0
aI0
aF0.0
aI0
aI0
aI0
aI0
aI0
aI1
aI1
aI3
aI20
aI1
aa(lp148
V0021200459
p149
aVJAN 01, 2013
p150
aVPOR @ NYK
p151
aVW
p152
aI40
aI9
aI19
aF0.474
aI2
aI8
aF0.25
aI1
aI2
aF0.5
aI0
aI5
aI5
aI6
aI2
aI0
aI3
aI1
aI21
aI5
aa(lp153
V0021200464
p154
aVJAN 02, 2013
p155
aVPOR @ TOR
p156
aVL
p157
aI37
aI6
aI13
aF0.462
aI1
aI5
aF0.2
aI5
aI6
aF0.833
aI1
aI4
aI5
aI7
aI0
aI0
aI7
aI2
aI18
aI-18
aa(lp158
V0021200484
p159
aVJAN 04, 2013
p160
aVPOR @ MEM
p161
aVW
p162
aI38
aI5
aI14
aF0.357
aI1
aI4
aF0.25
aI0
aI0
aF0.0
aI0
aI5
aI5
aI8
aI1
aI0
aI5
aI0
aI11
aI-1
aa(lp163
V0021200494
p164
aVJAN 05, 2013
p165
aVPOR @ MIN
p166
aVW
p167
aI39
aI7
aI14
aF0.5
aI3
aI5
aF0.6
aI3
aI3
aF1.0
aI2
aI2
aI4
aI6
aI0
aI0
aI3
aI3
aI20
aI16
aa(lp168
V0021200510
p169
aVJAN 07, 2013
p170
aVPOR vs. ORL
p171
aVW
p172
aI43
aI7
aI17
aF0.412
aI0
aI6
aF0.0
aI4
aI4
aF1.0
aI0
aI3
aI3
aI10
aI2
aI0
aI3
aI2
aI18
aI10
aa(lp173
V0021200529
p174
aVJAN 10, 2013
p175
aVPOR vs. MIA
p176
aVW
p177
aI41
aI4
aI11
aF0.364
aI2
aI7
aF0.286
aI0
aI2
aF0.0
aI0
aI3
aI3
aI8
aI2
aI0
aI2
aI0
aI10
aI3
aa(lp178
V0021200540
p179
aVJAN 11, 2013
p180
aVPOR @ GSW
p181
aVL
p182
aI43
aI15
aI25
aF0.6
aI7
aI12
aF0.583
aI0
aI0
aF0.0
aI1
aI5
aI6
aI4
aI2
aI0
aI2
aI1
aI37
aI4
aa(lp183
V0021200554
p184
aVJAN 13, 2013
p185
aVPOR vs. OKC
p186
aVL
p187
aI41
aI3
aI14
aF0.214
aI2
aI9
aF0.222
aI1
aI2
aF0.5
aI1
aI3
aI4
aI9
aI1
aI0
aI3
aI2
aI9
aI-2
aa(lp188
V0021200568
p189
aVJAN 15, 2013
p190
aVPOR @ DEN
p191
aVL
p192
aI42
aI5
aI14
aF0.357
aI3
aI5
aF0.6
aI1
aI2
aF0.5
aI0
aI8
aI8
aI5
aI1
aI2
aI2
aI4
aI14
aI-5
aa(lp193
V0021200578
p194
aVJAN 16, 2013
p195
aVPOR vs. CLE
p196
aVL
p197
aI36
aI3
aI9
aF0.333
aI1
aI5
aF0.2
aI6
aI8
aF0.75
aI0
aI1
aI1
aI7
aI1
aI0
aI2
aI3
aI13
aI-1
aa(lp198
V0021200599
p199
aVJAN 19, 2013
p200
aVPOR vs. MIL
p201
aVL
p202
aI42
aI9
aI21
aF0.429
aI3
aI9
aF0.333
aI5
aI6
aF0.833
aI0
aI3
aI3
aI10
aI1
aI1
aI3
aI3
aI26
aI14
aa(lp203
V0021200613
p204
aVJAN 21, 2013
p205
aVPOR vs. WAS
p206
aVL
p207
aI38
aI7
aI17
aF0.412
aI2
aI6
aF0.333
aI2
aI2
aF1.0
aI1
aI2
aI3
aI5
aI0
aI0
aI3
aI2
aI18
aI-10
aa(lp208
V0021200627
p209
aVJAN 23, 2013
p210
aVPOR vs. IND
p211
aVW
p212
aI39
aI9
aI16
aF0.563
aI0
aI3
aF0.0
aI2
aI2
aF1.0
aI1
aI1
aI2
aI8
aI0
aI0
aI0
aI1
aI20
aI7
aa(lp213
V0021200651
p214
aVJAN 26, 2013
p215
aVPOR vs. LAC
p216
aVW
p217
aI37
aI6
aI13
aF0.462
aI4
aI7
aF0.571
aI4
aI4
aF1.0
aI0
aI0
aI0
aI2
aI2
aI0
aI3
aI1
aI20
aI-1
aa(lp218
V0021200658
p219
aVJAN 27, 2013
p220
aVPOR @ LAC
p221
aVL
p222
aI37
aI5
aI14
aF0.357
aI2
aI7
aF0.286
aI4
aI4
aF1.0
aI0
aI2
aI2
aI5
aI1
aI1
aI5
aI2
aI16
aI-14
aa(lp223
V0021200668
p224
aVJAN 29, 2013
p225
aVPOR vs. DAL
p226
aVW
p227
aI40
aI3
aI11
aF0.273
aI2
aI6
aF0.333
aI2
aI2
aF1.0
aI0
aI1
aI1
aI8
aI1
aI0
aI3
aI3
aI10
aI6
aa(lp228
V0021200693
p229
aVFEB 01, 2013
p230
aVPOR @ UTA
p231
aVL
p232
aI42
aI10
aI23
aF0.435
aI3
aI8
aF0.375
aI3
aI3
aF1.0
aI0
aI3
aI3
aI5
aI0
aI1
aI4
aI1
aI26
aI-3
aa(lp233
V0021200703
p234
aVFEB 02, 2013
p235
aVPOR vs. UTA
p236
aVW
p237
aI40
aI9
aI17
aF0.529
aI3
aI5
aF0.6
aI2
aI2
aF1.0
aI0
aI3
aI3
aI8
aI0
aI0
aI4
aI3
aI23
aI2
aa(lp238
V0021200713
p239
aVFEB 04, 2013
p240
aVPOR @ MIN
p241
aVW
p242
aI38
aI9
aI17
aF0.529
aI0
aI2
aF0.0
aI3
aI3
aF1.0
aI0
aI4
aI4
aI6
aI3
aI0
aI5
aI5
aI21
aI-8
aa(lp243
V0021200730
p244
aVFEB 06, 2013
p245
aVPOR @ DAL
p246
aVL
p247
aI39
aI6
aI17
aF0.353
aI3
aI8
aF0.375
aI4
aI4
aF1.0
aI0
aI4
aI4
aI6
aI1
aI1
aI0
aI2
aI19
aI8
aa(lp248
V0021200743
p249
aVFEB 08, 2013
p250
aVPOR @ HOU
p251
aVL
p252
aI33
aI7
aI13
aF0.538
aI2
aI5
aF0.4
aI2
aI3
aF0.667
aI0
aI3
aI3
aI6
aI0
aI0
aI2
aI2
aI18
aI-18
aa(lp253
V0021200756
p254
aVFEB 10, 2013
p255
aVPOR @ ORL
p256
aVL
p257
aI40
aI1
aI16
aF0.063
aI0
aI8
aF0.0
aI2
aI2
aF1.0
aI0
aI3
aI3
aI12
aI1
aI1
aI4
aI0
aI4
aI-4
aa(lp258
V0021200770
p259
aVFEB 12, 2013
p260
aVPOR @ MIA
p261
aVL
p262
aI39
aI10
aI18
aF0.556
aI3
aI8
aF0.375
aI10
aI11
aF0.909
aI0
aI1
aI1
aI3
aI0
aI0
aI4
aI2
aI33
aI-21
aa(lp263
V0021200783
p264
aVFEB 13, 2013
p265
aVPOR @ NOH
p266
aVL
p267
aI35
aI4
aI15
aF0.267
aI0
aI2
aF0.0
aI4
aI4
aF1.0
aI0
aI2
aI2
aI4
aI1
aI0
aI3
aI3
aI12
aI-22
aa(lp268
V0021200797
p269
aVFEB 19, 2013
p270
aVPOR vs. PHX
p271
aVL
p272
aI41
aI8
aI19
aF0.421
aI3
aI8
aF0.375
aI5
aI5
aF1.0
aI0
aI0
aI0
aI7
aI0
aI0
aI6
aI0
aI24
aI-3
aa(lp273
V0021200821
p274
aVFEB 22, 2013
p275
aVPOR @ LAL
p276
aVL
p277
aI40
aI9
aI22
aF0.409
aI1
aI5
aF0.2
aI0
aI0
aF0.0
aI0
aI3
aI3
aI7
aI1
aI0
aI1
aI3
aI19
aI-8
aa(lp278
V0021200837
p279
aVFEB 24, 2013
p280
aVPOR vs. BOS
p281
aVW
p282
aI39
aI5
aI16
aF0.313
aI0
aI5
aF0.0
aI2
aI2
aF1.0
aI1
aI5
aI6
aI6
aI0
aI0
aI2
aI0
aI12
aI4
aa(lp283
V0021200860
p284
aVFEB 27, 2013
p285
aVPOR vs. DEN
p286
aVL
p287
aI37
aI8
aI14
aF0.571
aI4
aI6
aF0.667
aI6
aI8
aF0.75
aI1
aI2
aI3
aI4
aI1
aI0
aI5
aI4
aI26
aI6
aa(lp288
V0021200879
p289
aVMAR 02, 2013
p290
aVPOR vs. MIN
p291
aVW
p292
aI39
aI9
aI18
aF0.5
aI2
aI5
aF0.4
aI4
aI4
aF1.0
aI2
aI4
aI6
aI4
aI0
aI0
aI0
aI3
aI24
aI22
aa(lp293
V0021200894
p294
aVMAR 04, 2013
p295
aVPOR vs. CHA
p296
aVW
p297
aI38
aI8
aI15
aF0.533
aI3
aI8
aF0.375
aI1
aI2
aF0.5
aI0
aI3
aI3
aI7
aI2
aI0
aI2
aI1
aI20
aI17
aa(lp298
V0021200905
p299
aVMAR 06, 2013
p300
aVPOR @ MEM
p301
aVL
p302
aI36
aI8
aI16
aF0.5
aI2
aI6
aF0.333
aI2
aI3
aF0.667
aI0
aI0
aI0
aI4
aI1
aI0
aI2
aI2
aI20
aI-6
aa(lp303
V0021200923
p304
aVMAR 08, 2013
p305
aVPOR @ SAS
p306
aVW
p307
aI40
aI12
aI20
aF0.6
aI3
aI4
aF0.75
aI8
aI8
aF1.0
aI1
aI2
aI3
aI9
aI2
aI0
aI0
aI3
aI35
aI33
aa(lp308
V0021200939
p309
aVMAR 10, 2013
p310
aVPOR @ NOH
p311
aVL
p312
aI38
aI9
aI16
aF0.563
aI2
aI5
aF0.4
aI0
aI1
aF0.0
aI0
aI2
aI2
aI8
aI1
aI0
aI4
aI0
aI20
aI5
aa(lp313
V0021200955
p314
aVMAR 12, 2013
p315
aVPOR vs. MEM
p316
aVL
p317
aI39
aI8
aI17
aF0.471
aI3
aI5
aF0.6
aI8
aI8
aF1.0
aI0
aI1
aI1
aI7
aI0
aI0
aI2
aI3
aI27
aI-4
aa(lp318
V0021200968
p319
aVMAR 14, 2013
p320
aVPOR vs. NYK
p321
aVW
p322
aI40
aI11
aI18
aF0.611
aI4
aI11
aF0.364
aI0
aI1
aF0.0
aI1
aI1
aI2
aI10
aI2
aI0
aI1
aI3
aI26
aI25
aa(lp323
V0021200984
p324
aVMAR 16, 2013
p325
aVPOR vs. DET
p326
aVW
p327
aI38
aI3
aI12
aF0.25
aI1
aI5
aF0.2
aI7
aI7
aF1.0
aI0
aI2
aI2
aI7
aI0
aI0
aI2
aI3
aI14
aI8
aa(lp328
V0021200993
p329
aVMAR 18, 2013
p330
aVPOR @ PHI
p331
aVL
p332
aI42
aI10
aI20
aF0.5
aI5
aI7
aF0.714
aI2
aI3
aF0.667
aI2
aI5
aI7
aI7
aI0
aI0
aI4
aI3
aI27
aI2
aa(lp333
V0021201005
p334
aVMAR 19, 2013
p335
aVPOR @ MIL
p336
aVL
p337
aI45
aI2
aI10
aF0.2
aI0
aI4
aF0.0
aI4
aI4
aF1.0
aI0
aI3
aI3
aI11
aI1
aI0
aI6
aI3
aI8
aI-3
aa(lp338
V0021201019
p339
aVMAR 21, 2013
p340
aVPOR @ CHI
p341
aVW
p342
aI37
aI9
aI17
aF0.529
aI4
aI7
aF0.571
aI2
aI2
aF1.0
aI1
aI3
aI4
aI7
aI0
aI0
aI5
aI1
aI24
aI11
aa(lp343
V0021201025
p344
aVMAR 22, 2013
p345
aVPOR @ ATL
p346
aVW
p347
aI39
aI8
aI16
aF0.5
aI4
aI5
aF0.8
aI2
aI2
aF1.0
aI0
aI3
aI3
aI4
aI0
aI0
aI2
aI3
aI22
aI13
aa(lp348
V0021201043
p349
aVMAR 24, 2013
p350
aVPOR @ OKC
p351
aVL
p352
aI38
aI7
aI16
aF0.438
aI4
aI9
aF0.444
aI1
aI2
aF0.5
aI2
aI2
aI4
aI6
aI0
aI0
aI2
aI1
aI19
aI-11
aa(lp353
V0021201070
p354
aVMAR 27, 2013
p355
aVPOR vs. BKN
p356
aVL
p357
aI34
aI4
aI12
aF0.333
aI3
aI5
aF0.6
aI4
aI5
aF0.8
aI1
aI3
aI4
aI3
aI0
aI0
aI5
aI0
aI15
aI-14
aa(lp358
V0021201084
p359
aVMAR 29, 2013
p360
aVPOR vs. UTA
p361
aVL
p362
aI40
aI7
aI16
aF0.438
aI0
aI1
aF0.0
aI10
aI14
aF0.714
aI0
aI2
aI2
aI7
aI1
aI0
aI2
aI3
aI24
aI-15
aa(lp363
V0021201094
p364
aVMAR 30, 2013
p365
aVPOR @ GSW
p366
aVL
p367
aI31
aI4
aI11
aF0.364
aI2
aI3
aF0.667
aI6
aI7
aF0.857
aI0
aI1
aI1
aI8
aI1
aI0
aI3
aI4
aI16
aI-8
aa(lp368
V0021201106
p369
aVAPR 01, 2013
p370
aVPOR @ UTA
p371
aVL
p372
aI39
aI7
aI16
aF0.438
aI3
aI7
aF0.429
aI0
aI0
aF0.0
aI0
aI5
aI5
aI5
aI0
aI1
aI2
aI2
aI17
aI-16
aa(lp373
V0021201120
p374
aVAPR 03, 2013
p375
aVPOR vs. MEM
p376
aVL
p377
aI41
aI8
aI19
aF0.421
aI1
aI6
aF0.167
aI0
aI1
aF0.0
aI0
aI4
aI4
aI6
aI0
aI1
aI5
aI3
aI17
aI-14
aa(lp378
V0021201136
p379
aVAPR 05, 2013
p380
aVPOR vs. HOU
p381
aVL
p382
aI40
aI4
aI12
aF0.333
aI1
aI2
aF0.5
aI2
aI3
aF0.667
aI2
aI1
aI3
aI7
aI2
aI0
aI3
aI1
aI11
aI-15
aa(lp383
V0021201153
p384
aVAPR 07, 2013
p385
aVPOR vs. DAL
p386
aVL
p387
aI40
aI6
aI19
aF0.316
aI0
aI5
aF0.0
aI3
aI5
aF0.6
aI0
aI1
aI1
aI4
aI0
aI0
aI0
aI2
aI15
aI3
aa(lp388
V0021201171
p389
aVAPR 10, 2013
p390
aVPOR vs. LAL
p391
aVL
p392
aI43
aI12
aI25
aF0.48
aI5
aI11
aF0.455
aI9
aI9
aF1.0
aI0
aI1
aI1
aI9
aI3
aI0
aI2
aI2
aI38
aI-1
aa(lp393
V0021201188
p394
aVAPR 12, 2013
p395
aVPOR vs. OKC
p396
aVL
p397
aI37
aI3
aI14
aF0.214
aI1
aI5
aF0.2
aI3
aI4
aF0.75
aI1
aI2
aI3
aI8
aI1
aI0
aI1
aI4
aI10
aI-12
aa(lp398
V0021201198
p399
aVAPR 14, 2013
p400
aVPOR @ DEN
p401
aVL
p402
aI40
aI10
aI17
aF0.588
aI4
aI10
aF0.4
aI6
aI7
aF0.857
aI0
aI5
aI5
aI6
aI1
aI2
aI8
aI2
aI30
aI-12
aa(lp403
V0021201215
p404
aVAPR 16, 2013
p405
aVPOR @ LAC
p406
aVL
p407
aI40
aI4
aI12
aF0.333
aI2
aI7
aF0.286
aI2
aI3
aF0.667
aI0
aI3
aI3
aI8
aI0
aI0
aI4
aI2
aI12
aI-16
aa(lp408
V0021201230
p409
aVAPR 17, 2013
p410
aVPOR vs. GSW
p411
aVL
p412
aI38
aI7
aI13
aF0.538
aI2
aI5
aF0.4
aI5
aI6
aF0.833
aI0
aI1
aI1
aI3
aI1
aI0
aI2
aI2
aI21
aI-8
aasS'name'
p413
VDamian Lillard
p414
sS'weight'
p415
V195
p416
sS'age'
p417
I22
sS'experience'
p418
I0
sS'height'
p419
V6-3
p420
sS'position'
p421
VGuard
p422
s.