(dp0
S'age'
p1
I27
sS'stats'
p2
(lp3
(lp4
V0021200008
p5
aVOCT 31, 2012
p6
aVNOH vs. SAS
p7
aVL
p8
aI0
aI0
aI0
aF0.0
aI0
aI0
aF0.0
aI0
aI0
aF0.0
aI0
aI0
aI0
aI0
aI0
aI0
aI0
aI0
aI0
aI-3
aa(lp9
V0021200021
p10
aVNOV 02, 2012
p11
aVNOH vs. UTA
p12
aVW
p13
aI5
aI1
aI2
aF0.5
aI0
aI1
aF0.0
aI0
aI0
aF0.0
aI0
aI0
aI0
aI0
aI0
aI0
aI0
aI0
aI2
aI-7
aa(lp14
V0021200031
p15
aVNOV 03, 2012
p16
aVNOH @ CHI
p17
aVW
p18
aI6
aI0
aI5
aF0.0
aI0
aI1
aF0.0
aI2
aI2
aF1.0
aI1
aI2
aI3
aI1
aI0
aI0
aI1
aI0
aI2
aI-1
aa(lp19
V0021200058
p20
aVNOV 07, 2012
p21
aVNOH vs. PHI
p22
aVL
p23
aI19
aI3
aI9
aF0.333
aI1
aI3
aF0.333
aI0
aI0
aF0.0
aI1
aI0
aI1
aI3
aI0
aI0
aI1
aI1
aI7
aI-7
aa(lp24
V0021200074
p25
aVNOV 09, 2012
p26
aVNOH vs. CHA
p27
aVW
p28
aI30
aI7
aI8
aF0.875
aI1
aI1
aF1.0
aI1
aI2
aF0.5
aI0
aI0
aI0
aI8
aI0
aI0
aI1
aI3
aI16
aI2
aa(lp29
V0021200112
p30
aVNOV 14, 2012
p31
aVNOH @ HOU
p32
aVL
p33
aI15
aI3
aI8
aF0.375
aI1
aI2
aF0.5
aI2
aI2
aF1.0
aI0
aI1
aI1
aI0
aI0
aI0
aI2
aI0
aI9
aI0
aa(lp34
V0021200125
p35
aVNOV 16, 2012
p36
aVNOH vs. OKC
p37
aVL
p38
aI22
aI3
aI9
aF0.333
aI1
aI2
aF0.5
aI2
aI2
aF1.0
aI0
aI1
aI1
aI7
aI2
aI0
aI1
aI1
aI9
aI7
aa(lp39
V0021200136
p40
aVNOV 17, 2012
p41
aVNOH @ MIL
p42
aVL
p43
aI14
aI3
aI5
aF0.6
aI0
aI1
aF0.0
aI2
aI2
aF1.0
aI0
aI0
aI0
aI4
aI0
aI0
aI2
aI2
aI8
aI5
aa(lp44
V0021200155
p45
aVNOV 20, 2012
p46
aVNOH vs. NYK
p47
aVL
p48
aI21
aI4
aI9
aF0.444
aI3
aI4
aF0.75
aI2
aI2
aF1.0
aI0
aI1
aI1
aI2
aI0
aI0
aI1
aI1
aI13
aI-3
aa(lp49
V0021200160
p50
aVNOV 21, 2012
p51
aVNOH @ IND
p52
aVL
p53
aI14
aI3
aI6
aF0.5
aI0
aI0
aF0.0
aI0
aI0
aF0.0
aI0
aI1
aI1
aI0
aI0
aI0
aI0
aI1
aI6
aI5
aa(lp54
V0021200181
p55
aVNOV 23, 2012
p56
aVNOH @ PHX
p57
aVL
p58
aI10
aI0
aI4
aF0.0
aI0
aI1
aF0.0
aI0
aI0
aF0.0
aI0
aI0
aI0
aI0
aI0
aI0
aI2
aI1
aI0
aI-10
aa(lp59
V0021200196
p60
aVNOV 25, 2012
p61
aVNOH @ DEN
p62
aVL
p63
aI23
aI7
aI12
aF0.583
aI0
aI2
aF0.0
aI3
aI3
aF1.0
aI1
aI1
aI2
aI5
aI0
aI0
aI0
aI1
aI17
aI6
aa(lp64
V0021200203
p65
aVNOV 26, 2012
p66
aVNOH @ LAC
p67
aVW
p68
aI11
aI4
aI5
aF0.8
aI1
aI1
aF1.0
aI0
aI0
aF0.0
aI0
aI1
aI1
aI2
aI1
aI0
aI2
aI0
aI9
aI10
aa(lp69
V0021200217
p70
aVNOV 28, 2012
p71
aVNOH vs. UTA
p72
aVL
p73
aI20
aI4
aI10
aF0.4
aI1
aI3
aF0.333
aI2
aI2
aF1.0
aI0
aI0
aI0
aI1
aI0
aI0
aI2
aI3
aI11
aI-5
aa(lp74
V0021200236
p75
aVDEC 01, 2012
p76
aVNOH vs. OKC
p77
aVL
p78
aI19
aI3
aI5
aF0.6
aI0
aI1
aF0.0
aI2
aI2
aF1.0
aI0
aI1
aI1
aI1
aI1
aI0
aI1
aI0
aI8
aI-23
aa(lp79
V0021200247
p80
aVDEC 03, 2012
p81
aVNOH vs. MIL
p82
aVW
p83
aI21
aI5
aI7
aF0.714
aI0
aI0
aF0.0
aI0
aI0
aF0.0
aI0
aI2
aI2
aI5
aI1
aI1
aI0
aI2
aI10
aI15
aa(lp84
V0021200263
p85
aVDEC 05, 2012
p86
aVNOH vs. LAL
p87
aVL
p88
aI11
aI0
aI6
aF0.0
aI0
aI1
aF0.0
aI0
aI0
aF0.0
aI0
aI1
aI1
aI2
aI0
aI0
aI0
aI0
aI0
aI-7
aa(lp89
V0021200275
p90
aVDEC 07, 2012
p91
aVNOH vs. MEM
p92
aVL
p93
aI26
aI6
aI10
aF0.6
aI1
aI1
aF1.0
aI2
aI2
aF1.0
aI0
aI3
aI3
aI4
aI1
aI0
aI1
aI2
aI15
aI10
aa(lp94
V0021200286
p95
aVDEC 08, 2012
p96
aVNOH @ MIA
p97
aVL
p98
aI24
aI2
aI9
aF0.222
aI2
aI6
aF0.333
aI0
aI0
aF0.0
aI0
aI1
aI1
aI3
aI2
aI0
aI4
aI1
aI6
aI-14
aa(lp99
V0021200307
p100
aVDEC 11, 2012
p101
aVNOH vs. WAS
p102
aVL
p103
aI18
aI2
aI6
aF0.333
aI0
aI0
aF0.0
aI2
aI4
aF0.5
aI0
aI1
aI1
aI4
aI0
aI0
aI1
aI1
aI6
aI-5
aa(lp104
V0021200318
p105
aVDEC 12, 2012
p106
aVNOH @ OKC
p107
aVL
p108
aI29
aI6
aI14
aF0.429
aI4
aI6
aF0.667
aI0
aI0
aF0.0
aI1
aI0
aI1
aI4
aI2
aI0
aI1
aI3
aI16
aI-4
aa(lp109
V0021200331
p110
aVDEC 14, 2012
p111
aVNOH vs. MIN
p112
aVL
p113
aI19
aI4
aI8
aF0.5
aI1
aI3
aF0.333
aI0
aI0
aF0.0
aI1
aI0
aI1
aI3
aI1
aI0
aI1
aI0
aI9
aI-8
aa(lp114
V0021200349
p115
aVDEC 16, 2012
p116
aVNOH @ POR
p117
aVL
p118
aI4
aI0
aI1
aF0.0
aI0
aI0
aF0.0
aI0
aI0
aF0.0
aI0
aI0
aI0
aI0
aI0
aI0
aI0
aI0
aI0
aI1
aa(lp119
V0021200365
p120
aVDEC 18, 2012
p121
aVNOH @ GSW
p122
aVL
p123
aI14
aI1
aI7
aF0.143
aI1
aI3
aF0.333
aI0
aI0
aF0.0
aI0
aI0
aI0
aI3
aI0
aI0
aI0
aI2
aI3
aI-4
aa(lp124
V0021200376
p125
aVDEC 19, 2012
p126
aVNOH @ LAC
p127
aVL
p128
aI17
aI3
aI7
aF0.429
aI0
aI1
aF0.0
aI1
aI1
aF1.0
aI0
aI2
aI2
aI2
aI2
aI0
aI1
aI2
aI7
aI1
aa(lp129
V0021200387
p130
aVDEC 21, 2012
p131
aVNOH @ SAS
p132
aVL
p133
aI17
aI4
aI9
aF0.444
aI0
aI2
aF0.0
aI3
aI3
aF1.0
aI0
aI1
aI1
aI3
aI0
aI0
aI1
aI1
aI11
aI-3
aa(lp134
V0021200393
p135
aVDEC 22, 2012
p136
aVNOH vs. IND
p137
aVL
p138
aI12
aI1
aI4
aF0.25
aI1
aI1
aF1.0
aI0
aI0
aF0.0
aI0
aI1
aI1
aI3
aI2
aI1
aI3
aI0
aI3
aI12
aa(lp139
V0021200412
p140
aVDEC 26, 2012
p141
aVNOH @ ORL
p142
aVW
p143
aI7
aI1
aI5
aF0.2
aI0
aI1
aF0.0
aI0
aI0
aF0.0
aI0
aI0
aI0
aI3
aI0
aI0
aI0
aI1
aI2
aI-1
aa(lp144
V0021200430
p145
aVDEC 28, 2012
p146
aVNOH vs. TOR
p147
aVL
p148
aI17
aI3
aI9
aF0.333
aI1
aI4
aF0.25
aI3
aI4
aF0.75
aI1
aI0
aI1
aI2
aI0
aI0
aI0
aI5
aI10
aI-1
aa(lp149
V0021200437
p150
aVDEC 29, 2012
p151
aVNOH @ CHA
p152
aVW
p153
aI6
aI0
aI1
aF0.0
aI0
aI0
aF0.0
aI0
aI0
aF0.0
aI0
aI0
aI0
aI0
aI0
aI0
aI2
aI0
aI0
aI-9
aa(lp154
V0021200461
p155
aVJAN 01, 2013
p156
aVNOH vs. ATL
p157
aVL
p158
aI7
aI0
aI1
aF0.0
aI0
aI0
aF0.0
aI0
aI0
aF0.0
aI1
aI0
aI1
aI1
aI0
aI0
aI1
aI2
aI0
aI-7
aa(lp159
V0021200471
p160
aVJAN 02, 2013
p161
aVNOH @ HOU
p162
aVL
p163
aI22
aI4
aI7
aF0.571
aI0
aI2
aF0.0
aI3
aI3
aF1.0
aI1
aI2
aI3
aI1
aI0
aI0
aI0
aI1
aI11
aI1
aa(lp164
V0021200495
p165
aVJAN 05, 2013
p166
aVNOH @ DAL
p167
aVW
p168
aI8
aI1
aI5
aF0.2
aI0
aI1
aF0.0
aI1
aI1
aF1.0
aI0
aI0
aI0
aI0
aI0
aI0
aI1
aI0
aI3
aI-7
aa(lp169
V0021200507
p170
aVJAN 07, 2013
p171
aVNOH vs. SAS
p172
aVW
p173
aI13
aI2
aI6
aF0.333
aI1
aI1
aF1.0
aI0
aI0
aF0.0
aI0
aI1
aI1
aI2
aI1
aI0
aI0
aI1
aI5
aI-5
aa(lp174
V0021200521
p175
aVJAN 09, 2013
p176
aVNOH vs. HOU
p177
aVW
p178
aI12
aI1
aI3
aF0.333
aI0
aI2
aF0.0
aI2
aI2
aF1.0
aI0
aI0
aI0
aI3
aI0
aI0
aI0
aI0
aI4
aI12
aa(lp179
V0021200536
p180
aVJAN 11, 2013
p181
aVNOH vs. MIN
p182
aVW
p183
aI11
aI2
aI6
aF0.333
aI0
aI2
aF0.0
aI0
aI0
aF0.0
aI0
aI0
aI0
aI2
aI1
aI0
aI0
aI3
aI4
aI-9
aa(lp184
V0021200549
p185
aVJAN 13, 2013
p186
aVNOH @ NYK
p187
aVL
p188
aI11
aI1
aI4
aF0.25
aI0
aI3
aF0.0
aI5
aI5
aF1.0
aI0
aI3
aI3
aI0
aI0
aI0
aI0
aI1
aI7
aI-10
aa(lp189
V0021200564
p190
aVJAN 15, 2013
p191
aVNOH @ PHI
p192
aVW
p193
aI7
aI2
aI3
aF0.667
aI1
aI2
aF0.5
aI2
aI2
aF1.0
aI0
aI0
aI0
aI0
aI0
aI0
aI1
aI0
aI7
aI-3
aa(lp194
V0021200573
p195
aVJAN 16, 2013
p196
aVNOH @ BOS
p197
aVW
p198
aI5
aI1
aI3
aF0.333
aI0
aI1
aF0.0
aI0
aI0
aF0.0
aI0
aI0
aI0
aI0
aI0
aI0
aI0
aI0
aI2
aI4
aa(lp199
V0021200606
p200
aVJAN 21, 2013
p201
aVNOH vs. SAC
p202
aVW
p203
aI11
aI1
aI4
aF0.25
aI0
aI1
aF0.0
aI0
aI0
aF0.0
aI0
aI0
aI0
aI2
aI0
aI0
aI1
aI1
aI2
aI-15
aa(lp204
V0021200624
p205
aVJAN 23, 2013
p206
aVNOH @ SAS
p207
aVL
p208
aI12
aI4
aI6
aF0.667
aI2
aI2
aF1.0
aI0
aI0
aF0.0
aI0
aI2
aI2
aI2
aI1
aI0
aI0
aI0
aI10
aI-4
aa(lp209
V0021200638
p210
aVJAN 25, 2013
p211
aVNOH vs. HOU
p212
aVL
p213
aI19
aI2
aI7
aF0.286
aI0
aI4
aF0.0
aI0
aI0
aF0.0
aI0
aI1
aI1
aI3
aI1
aI0
aI1
aI1
aI4
aI-11
aa(lp214
V0021200655
p215
aVJAN 27, 2013
p216
aVNOH @ MEM
p217
aVW
p218
aI14
aI2
aI7
aF0.286
aI1
aI2
aF0.5
aI0
aI0
aF0.0
aI0
aI1
aI1
aI4
aI0
aI0
aI0
aI0
aI5
aI6
aa(lp219
V0021200669
p220
aVJAN 29, 2013
p221
aVNOH @ LAL
p222
aVL
p223
aI12
aI0
aI6
aF0.0
aI0
aI1
aF0.0
aI0
aI0
aF0.0
aI0
aI2
aI2
aI1
aI0
aI0
aI0
aI1
aI0
aI-16
aa(lp224
V0021200680
p225
aVJAN 30, 2013
p226
aVNOH @ UTA
p227
aVL
p228
aI15
aI1
aI3
aF0.333
aI1
aI2
aF0.5
aI4
aI4
aF1.0
aI0
aI0
aI0
aI2
aI0
aI0
aI0
aI1
aI7
aI-10
aa(lp229
V0021200700
p230
aVFEB 02, 2013
p231
aVNOH @ MIN
p232
aVL
p233
aI15
aI2
aI6
aF0.333
aI1
aI3
aF0.333
aI2
aI2
aF1.0
aI1
aI1
aI2
aI2
aI2
aI0
aI1
aI0
aI7
aI-9
aa(lp234
V0021200728
p235
aVFEB 06, 2013
p236
aVNOH vs. PHX
p237
aVW
p238
aI14
aI3
aI6
aF0.5
aI0
aI2
aF0.0
aI0
aI0
aF0.0
aI1
aI2
aI3
aI0
aI0
aI0
aI0
aI0
aI6
aI1
aa(lp239
V0021200738
p240
aVFEB 08, 2013
p241
aVNOH @ ATL
p242
aVW
p243
aI12
aI2
aI3
aF0.667
aI1
aI1
aF1.0
aI0
aI0
aF0.0
aI0
aI0
aI0
aI3
aI0
aI0
aI0
aI3
aI5
aI-8
aa(lp244
V0021200755
p245
aVFEB 10, 2013
p246
aVNOH @ TOR
p247
aVL
p248
aI15
aI5
aI7
aF0.714
aI2
aI3
aF0.667
aI1
aI1
aF1.0
aI1
aI0
aI1
aI2
aI0
aI0
aI0
aI2
aI13
aI4
aa(lp249
V0021200765
p250
aVFEB 11, 2013
p251
aVNOH @ DET
p252
aVW
p253
aI13
aI1
aI4
aF0.25
aI1
aI2
aF0.5
aI0
aI0
aF0.0
aI0
aI0
aI0
aI2
aI0
aI0
aI1
aI5
aI3
aI-3
aa(lp254
V0021200783
p255
aVFEB 13, 2013
p256
aVNOH vs. POR
p257
aVW
p258
aI22
aI2
aI5
aF0.4
aI1
aI2
aF0.5
aI2
aI2
aF1.0
aI1
aI3
aI4
aI7
aI1
aI0
aI0
aI2
aI7
aI19
aa(lp259
V0021200793
p260
aVFEB 19, 2013
p261
aVNOH vs. CHI
p262
aVL
p263
aI13
aI3
aI6
aF0.5
aI1
aI1
aF1.0
aI0
aI0
aF0.0
aI0
aI0
aI0
aI4
aI1
aI0
aI3
aI1
aI7
aI-5
aa(lp264
V0021200800
p265
aVFEB 20, 2013
p266
aVNOH @ CLE
p267
aVL
p268
aI11
aI7
aI8
aF0.875
aI3
aI4
aF0.75
aI0
aI0
aF0.0
aI1
aI0
aI1
aI1
aI0
aI0
aI1
aI3
aI17
aI-2
aa(lp269
V0021200818
p270
aVFEB 22, 2013
p271
aVNOH vs. DAL
p272
aVL
p273
aI13
aI2
aI7
aF0.286
aI1
aI2
aF0.5
aI0
aI0
aF0.0
aI1
aI0
aI1
aI4
aI0
aI0
aI1
aI0
aI5
aI8
aa(lp274
V0021200834
p275
aVFEB 24, 2013
p276
aVNOH vs. SAC
p277
aVW
p278
aI7
aI1
aI3
aF0.333
aI0
aI1
aF0.0
aI0
aI0
aF0.0
aI0
aI1
aI1
aI1
aI0
aI0
aI0
aI1
aI2
aI-5
aa(lp279
V0021200847
p280
aVFEB 26, 2013
p281
aVNOH vs. BKN
p282
aVL
p283
aI10
aI3
aI4
aF0.75
aI1
aI1
aF1.0
aI0
aI0
aF0.0
aI0
aI0
aI0
aI2
aI0
aI0
aI0
aI1
aI7
aI0
aa(lp284
V0021200857
p285
aVFEB 27, 2013
p286
aVNOH @ OKC
p287
aVL
p288
aI24
aI1
aI7
aF0.143
aI0
aI4
aF0.0
aI0
aI0
aF0.0
aI0
aI2
aI2
aI3
aI1
aI0
aI1
aI2
aI2
aI-23
aa(lp289
V0021200906
p290
aVMAR 06, 2013
p291
aVNOH vs. LAL
p292
aVL
p293
aI3
aI0
aI2
aF0.0
aI0
aI2
aF0.0
aI0
aI0
aF0.0
aI0
aI1
aI1
aI1
aI0
aI0
aI0
aI0
aI0
aI1
aa(lp294
V0021200930
p295
aVMAR 09, 2013
p296
aVNOH @ MEM
p297
aVL
p298
aI17
aI4
aI7
aF0.571
aI0
aI1
aF0.0
aI1
aI2
aF0.5
aI0
aI2
aI2
aI3
aI1
aI0
aI1
aI1
aI9
aI5
aa(lp299
V0021200939
p300
aVMAR 10, 2013
p301
aVNOH vs. POR
p302
aVW
p303
aI43
aI3
aI13
aF0.231
aI1
aI2
aF0.5
aI2
aI2
aF1.0
aI0
aI1
aI1
aI9
aI2
aI0
aI0
aI1
aI9
aI5
aa(lp304
V0021200951
p305
aVMAR 12, 2013
p306
aVNOH @ BKN
p307
aVL
p308
aI12
aI3
aI6
aF0.5
aI0
aI0
aF0.0
aI0
aI0
aF0.0
aI0
aI0
aI0
aI1
aI0
aI0
aI1
aI2
aI6
aI-4
aa(lp309
V0021200970
p310
aVMAR 15, 2013
p311
aVNOH @ WAS
p312
aVL
p313
aI15
aI2
aI7
aF0.286
aI0
aI2
aF0.0
aI0
aI0
aF0.0
aI0
aI0
aI0
aI0
aI0
aI0
aI0
aI0
aI4
aI-6
aa(lp314
V0021200989
p315
aVMAR 17, 2013
p316
aVNOH @ MIN
p317
aVL
p318
aI9
aI2
aI3
aF0.667
aI1
aI1
aF1.0
aI0
aI0
aF0.0
aI0
aI1
aI1
aI4
aI2
aI0
aI1
aI1
aI5
aI5
aa(lp319
V0021201001
p320
aVMAR 18, 2013
p321
aVNOH vs. GSW
p322
aVL
p323
aI16
aI0
aI5
aF0.0
aI0
aI2
aF0.0
aI2
aI2
aF1.0
aI0
aI2
aI2
aI1
aI0
aI0
aI3
aI0
aI2
aI1
aa(lp324
V0021201013
p325
aVMAR 20, 2013
p326
aVNOH vs. BOS
p327
aVW
p328
aI18
aI4
aI7
aF0.571
aI2
aI2
aF1.0
aI2
aI2
aF1.0
aI0
aI1
aI1
aI3
aI1
aI0
aI0
aI2
aI12
aI7
aa(lp329
V0021201027
p330
aVMAR 22, 2013
p331
aVNOH vs. MEM
p332
aVW
p333
aI23
aI4
aI6
aF0.667
aI0
aI0
aF0.0
aI0
aI0
aF0.0
aI1
aI0
aI1
aI3
aI0
aI0
aI1
aI1
aI8
aI4
aa(lp334
V0021201051
p335
aVMAR 25, 2013
p336
aVNOH vs. DEN
p337
aVW
p338
aI41
aI5
aI10
aF0.5
aI1
aI4
aF0.25
aI2
aI2
aF1.0
aI0
aI5
aI5
aI18
aI1
aI0
aI3
aI3
aI13
aI21
aa(lp339
V0021201063
p340
aVMAR 27, 2013
p341
aVNOH vs. LAC
p342
aVL
p343
aI28
aI4
aI8
aF0.5
aI2
aI2
aF1.0
aI0
aI1
aF0.0
aI0
aI3
aI3
aI3
aI0
aI0
aI0
aI4
aI10
aI-16
aa(lp344
V0021201080
p345
aVMAR 29, 2013
p346
aVNOH vs. MIA
p347
aVL
p348
aI41
aI6
aI14
aF0.429
aI1
aI3
aF0.333
aI0
aI0
aF0.0
aI0
aI1
aI1
aI6
aI1
aI0
aI3
aI3
aI13
aI-14
aa(lp349
V0021201096
p350
aVMAR 31, 2013
p351
aVNOH vs. CLE
p352
aVW
p353
aI25
aI5
aI7
aF0.714
aI3
aI4
aF0.75
aI2
aI3
aF0.667
aI0
aI1
aI1
aI3
aI2
aI0
aI1
aI1
aI15
aI12
aa(lp354
V0021201122
p355
aVAPR 03, 2013
p356
aVNOH @ GSW
p357
aVL
p358
aI21
aI3
aI8
aF0.375
aI0
aI3
aF0.0
aI0
aI0
aF0.0
aI0
aI1
aI1
aI2
aI0
aI0
aI1
aI3
aI6
aI-5
aa(lp359
V0021201133
p360
aVAPR 05, 2013
p361
aVNOH @ UTA
p362
aVL
p363
aI16
aI1
aI6
aF0.167
aI0
aI1
aF0.0
aI0
aI0
aF0.0
aI0
aI1
aI1
aI0
aI0
aI0
aI2
aI4
aI2
aI-18
aa(lp364
V0021201152
p365
aVAPR 07, 2013
p366
aVNOH @ PHX
p367
aVW
p368
aI18
aI2
aI6
aF0.333
aI0
aI1
aF0.0
aI0
aI0
aF0.0
aI0
aI1
aI1
aI2
aI0
aI0
aI2
aI3
aI4
aI-1
aa(lp369
V0021201162
p370
aVAPR 09, 2013
p371
aVNOH @ LAL
p372
aVL
p373
aI21
aI4
aI10
aF0.4
aI1
aI5
aF0.2
aI0
aI0
aF0.0
aI0
aI0
aI0
aI3
aI0
aI0
aI1
aI1
aI9
aI-11
aa(lp374
V0021201170
p375
aVAPR 10, 2013
p376
aVNOH @ SAC
p377
aVL
p378
aI33
aI6
aI11
aF0.545
aI2
aI3
aF0.667
aI6
aI6
aF1.0
aI1
aI5
aI6
aI5
aI2
aI1
aI1
aI2
aI20
aI5
aa(lp379
V0021201183
p380
aVAPR 12, 2013
p381
aVNOH vs. LAC
p382
aVL
p383
aI41
aI6
aI13
aF0.462
aI2
aI2
aF1.0
aI1
aI1
aF1.0
aI0
aI6
aI6
aI11
aI0
aI0
aI3
aI4
aI15
aI0
aa(lp384
V0021201199
p385
aVAPR 14, 2013
p386
aVNOH vs. DAL
p387
aVL
p388
aI27
aI5
aI8
aF0.625
aI3
aI4
aF0.75
aI0
aI0
aF0.0
aI1
aI3
aI4
aI6
aI1
aI0
aI0
aI2
aI13
aI-14
aa(lp389
V0021201224
p390
aVAPR 17, 2013
p391
aVNOH @ DAL
p392
aVL
p393
aI42
aI5
aI17
aF0.294
aI2
aI5
aF0.4
aI1
aI1
aF1.0
aI0
aI3
aI3
aI6
aI0
aI0
aI3
aI4
aI13
aI-11
aasS'name'
p394
VBrian Roberts
p395
sS'experience'
p396
I0
s.