(dp0
S'stats'
p1
(lp2
(lp3
V0021200218
p4
aVNOV 28, 2012
p5
aVHOU @ OKC
p6
aVL
p7
aI3
aI0
aI0
aF0.0
aI0
aI0
aF0.0
aI2
aI2
aF1.0
aI0
aI0
aI0
aI1
aI0
aI0
aI0
aI0
aI2
aI-3
aa(lp8
V0021200394
p9
aVDEC 22, 2012
p10
aVHOU vs. MEM
p11
aVW
p12
aI4
aI1
aI1
aF1.0
aI0
aI0
aF0.0
aI0
aI0
aF0.0
aI0
aI1
aI1
aI2
aI1
aI0
aI2
aI0
aI2
aI1
aa(lp13
V0021200408
p14
aVDEC 25, 2012
p15
aVHOU @ CHI
p16
aVW
p17
aI3
aI0
aI2
aF0.0
aI0
aI1
aF0.0
aI0
aI0
aF0.0
aI0
aI0
aI0
aI2
aI0
aI0
aI2
aI0
aI0
aI1
aa(lp18
V0021200443
p19
aVDEC 29, 2012
p20
aVHOU vs. OKC
p21
aVL
p22
aI7
aI1
aI2
aF0.5
aI0
aI0
aF0.0
aI0
aI0
aF0.0
aI0
aI0
aI0
aI1
aI1
aI0
aI2
aI0
aI2
aI-5
aa(lp23
V0021200455
p24
aVDEC 31, 2012
p25
aVHOU vs. ATL
p26
aVW
p27
aI2
aI0
aI0
aF0.0
aI0
aI0
aF0.0
aI0
aI0
aF0.0
aI0
aI0
aI0
aI0
aI0
aI0
aI0
aI0
aI0
aI1
aa(lp28
V0021200486
p29
aVJAN 04, 2013
p30
aVHOU @ MIL
p31
aVW
p32
aI3
aI1
aI1
aF1.0
aI0
aI0
aF0.0
aI0
aI0
aF0.0
aI0
aI0
aI0
aI0
aI0
aI0
aI2
aI0
aI2
aI-4
aasS'name'
p33
VScott Machado
p34
sS'weight'
p35
V205
p36
sS'age'
p37
I22
sS'experience'
p38
I0
sS'height'
p39
V6-1
p40
sS'position'
p41
VGuard
p42
s.