(dp0
S'age'
p1
I21
sS'stats'
p2
(lp3
(lp4
V0021200017
p5
aVNOV 02, 2012
p6
aVMIL @ BOS
p7
aVW
p8
aI3
aI0
aI2
aF0.0
aI0
aI0
aF0.0
aI0
aI0
aF0.0
aI0
aI0
aI0
aI0
aI0
aI0
aI0
aI0
aI0
aI-9
aa(lp9
V0021200033
p10
aVNOV 03, 2012
p11
aVMIL vs. CLE
p12
aVW
p13
aI6
aI0
aI0
aF0.0
aI0
aI0
aF0.0
aI0
aI0
aF0.0
aI0
aI0
aI0
aI0
aI1
aI0
aI0
aI0
aI0
aI13
aa(lp14
V0021200057
p15
aVNOV 07, 2012
p16
aVMIL vs. MEM
p17
aVL
p18
aI17
aI1
aI5
aF0.2
aI0
aI0
aF0.0
aI0
aI0
aF0.0
aI0
aI0
aI0
aI2
aI0
aI0
aI1
aI0
aI2
aI-14
aa(lp19
V0021200111
p20
aVNOV 14, 2012
p21
aVMIL vs. IND
p22
aVW
p23
aI5
aI0
aI3
aF0.0
aI0
aI0
aF0.0
aI0
aI0
aF0.0
aI0
aI0
aI0
aI0
aI0
aI0
aI1
aI1
aI0
aI-9
aa(lp24
V0021200148
p25
aVNOV 19, 2012
p26
aVMIL @ CHA
p27
aVL
p28
aI6
aI3
aI3
aF1.0
aI0
aI0
aF0.0
aI0
aI0
aF0.0
aI0
aI1
aI1
aI1
aI0
aI0
aI0
aI1
aI6
aI9
aa(lp29
V0021200199
p30
aVNOV 26, 2012
p31
aVMIL @ CHI
p32
aVW
p33
aI15
aI3
aI3
aF1.0
aI0
aI0
aF0.0
aI2
aI2
aF1.0
aI0
aI0
aI0
aI2
aI0
aI0
aI0
aI2
aI8
aI25
aa(lp34
V0021200215
p35
aVNOV 28, 2012
p36
aVMIL vs. NYK
p37
aVL
p38
aI24
aI3
aI8
aF0.375
aI2
aI4
aF0.5
aI0
aI0
aF0.0
aI0
aI0
aI0
aI1
aI0
aI0
aI1
aI2
aI8
aI-6
aa(lp39
V0021200230
p40
aVNOV 30, 2012
p41
aVMIL @ MIN
p42
aVL
p43
aI15
aI3
aI7
aF0.429
aI0
aI2
aF0.0
aI0
aI0
aF0.0
aI0
aI2
aI2
aI1
aI0
aI0
aI1
aI2
aI6
aI-2
aa(lp44
V0021200238
p45
aVDEC 01, 2012
p46
aVMIL vs. BOS
p47
aVW
p48
aI15
aI1
aI3
aF0.333
aI0
aI1
aF0.0
aI0
aI0
aF0.0
aI0
aI0
aI0
aI2
aI0
aI0
aI2
aI1
aI2
aI12
aa(lp49
V0021200247
p50
aVDEC 03, 2012
p51
aVMIL @ NOH
p52
aVL
p53
aI13
aI2
aI3
aF0.667
aI0
aI0
aF0.0
aI0
aI0
aF0.0
aI0
aI1
aI1
aI0
aI0
aI0
aI1
aI3
aI4
aI-12
aa(lp54
V0021200264
p55
aVDEC 05, 2012
p56
aVMIL @ SAS
p57
aVL
p58
aI22
aI2
aI8
aF0.25
aI0
aI1
aF0.0
aI0
aI0
aF0.0
aI0
aI1
aI1
aI2
aI1
aI0
aI2
aI1
aI4
aI-1
aa(lp59
V0021200277
p60
aVDEC 07, 2012
p61
aVMIL vs. CHA
p62
aVW
p63
aI18
aI3
aI6
aF0.5
aI0
aI1
aF0.0
aI0
aI0
aF0.0
aI1
aI3
aI4
aI1
aI0
aI0
aI0
aI3
aI6
aI-7
aa(lp64
V0021200293
p65
aVDEC 09, 2012
p66
aVMIL @ BKN
p67
aVW
p68
aI14
aI2
aI2
aF1.0
aI1
aI1
aF1.0
aI1
aI1
aF1.0
aI0
aI2
aI2
aI1
aI0
aI0
aI1
aI1
aI6
aI5
aa(lp69
V0021200316
p70
aVDEC 12, 2012
p71
aVMIL vs. SAC
p72
aVW
p73
aI15
aI0
aI8
aF0.0
aI0
aI2
aF0.0
aI0
aI2
aF0.0
aI1
aI0
aI1
aI1
aI2
aI0
aI0
aI1
aI0
aI-2
aa(lp74
V0021200329
p75
aVDEC 14, 2012
p76
aVMIL @ CLE
p77
aVW
p78
aI14
aI0
aI5
aF0.0
aI0
aI0
aF0.0
aI1
aI2
aF0.5
aI0
aI0
aI0
aI0
aI0
aI0
aI0
aI1
aI1
aI0
aa(lp79
V0021200343
p80
aVDEC 15, 2012
p81
aVMIL vs. LAC
p82
aVL
p83
aI27
aI3
aI11
aF0.273
aI0
aI2
aF0.0
aI2
aI6
aF0.333
aI1
aI2
aI3
aI3
aI1
aI0
aI3
aI2
aI8
aI-10
aa(lp84
V0021200361
p85
aVDEC 18, 2012
p86
aVMIL vs. IND
p87
aVW
p88
aI12
aI0
aI2
aF0.0
aI0
aI0
aF0.0
aI0
aI0
aF0.0
aI0
aI0
aI0
aI0
aI0
aI0
aI0
aI2
aI0
aI-7
aa(lp89
V0021200374
p90
aVDEC 19, 2012
p91
aVMIL @ MEM
p92
aVL
p93
aI17
aI3
aI6
aF0.5
aI0
aI0
aF0.0
aI2
aI2
aF1.0
aI0
aI2
aI2
aI2
aI2
aI0
aI1
aI2
aI8
aI9
aa(lp94
V0021200382
p95
aVDEC 21, 2012
p96
aVMIL @ BOS
p97
aVW
p98
aI6
aI1
aI4
aF0.25
aI1
aI1
aF1.0
aI0
aI0
aF0.0
aI0
aI0
aI0
aI0
aI0
aI0
aI2
aI1
aI3
aI0
aa(lp99
V0021200395
p100
aVDEC 22, 2012
p101
aVMIL vs. CLE
p102
aVL
p103
aI11
aI2
aI3
aF0.667
aI0
aI0
aF0.0
aI0
aI0
aF0.0
aI0
aI0
aI0
aI0
aI0
aI0
aI0
aI1
aI4
aI2
aa(lp104
V0021200415
p105
aVDEC 26, 2012
p106
aVMIL vs. BKN
p107
aVW
p108
aI1
aI0
aI1
aF0.0
aI0
aI0
aF0.0
aI0
aI0
aF0.0
aI0
aI0
aI0
aI0
aI0
aI0
aI0
aI0
aI0
aI1
aa(lp109
V0021200470
p110
aVJAN 02, 2013
p111
aVMIL vs. SAS
p112
aVL
p113
aI1
aI1
aI2
aF0.5
aI0
aI1
aF0.0
aI0
aI0
aF0.0
aI0
aI0
aI0
aI0
aI0
aI0
aI0
aI0
aI2
aI6
aa(lp114
V0021200491
p115
aVJAN 05, 2013
p116
aVMIL @ IND
p117
aVL
p118
aI3
aI0
aI0
aF0.0
aI0
aI0
aF0.0
aI0
aI0
aF0.0
aI0
aI0
aI0
aI1
aI0
aI0
aI0
aI0
aI0
aI0
aa(lp119
V0021200825
p120
aVFEB 23, 2013
p121
aVORL vs. CLE
p122
aVL
p123
aI10
aI0
aI3
aF0.0
aI0
aI0
aF0.0
aI0
aI0
aF0.0
aI0
aI1
aI1
aI0
aI0
aI0
aI1
aI2
aI0
aI0
aa(lp124
V0021200843
p125
aVFEB 26, 2013
p126
aVORL @ PHI
p127
aVW
p128
aI6
aI0
aI1
aF0.0
aI0
aI1
aF0.0
aI0
aI0
aF0.0
aI0
aI1
aI1
aI0
aI0
aI0
aI0
aI0
aI0
aI-5
aa(lp129
V0021200851
p130
aVFEB 27, 2013
p131
aVORL vs. SAC
p132
aVL
p133
aI13
aI1
aI4
aF0.25
aI0
aI0
aF0.0
aI3
aI4
aF0.75
aI1
aI0
aI1
aI0
aI0
aI0
aI0
aI2
aI5
aI-12
aa(lp134
V0021200866
p135
aVMAR 01, 2013
p136
aVORL vs. HOU
p137
aVL
p138
aI6
aI0
aI1
aF0.0
aI0
aI0
aF0.0
aI0
aI0
aF0.0
aI0
aI0
aI0
aI0
aI0
aI0
aI1
aI2
aI0
aI-5
aa(lp139
V0021200883
p140
aVMAR 03, 2013
p141
aVORL vs. MEM
p142
aVL
p143
aI12
aI1
aI1
aF1.0
aI0
aI0
aF0.0
aI0
aI0
aF0.0
aI0
aI0
aI0
aI0
aI1
aI0
aI0
aI0
aI2
aI-1
aa(lp144
V0021200916
p145
aVMAR 08, 2013
p146
aVORL vs. IND
p147
aVL
p148
aI12
aI1
aI4
aF0.25
aI0
aI1
aF0.0
aI3
aI4
aF0.75
aI0
aI1
aI1
aI0
aI0
aI0
aI0
aI0
aI5
aI-4
aa(lp149
V0021200937
p150
aVMAR 10, 2013
p151
aVORL vs. PHI
p152
aVW
p153
aI2
aI0
aI0
aF0.0
aI0
aI0
aF0.0
aI0
aI0
aF0.0
aI0
aI1
aI1
aI0
aI0
aI0
aI0
aI0
aI0
aI2
aa(lp154
V0021200974
p155
aVMAR 15, 2013
p156
aVORL @ OKC
p157
aVL
p158
aI4
aI0
aI0
aF0.0
aI0
aI0
aF0.0
aI0
aI0
aF0.0
aI0
aI0
aI0
aI0
aI0
aI0
aI1
aI0
aI0
aI-14
aa(lp159
V0021200986
p160
aVMAR 17, 2013
p161
aVORL @ MIL
p162
aVL
p163
aI7
aI0
aI0
aF0.0
aI0
aI0
aF0.0
aI0
aI0
aF0.0
aI1
aI0
aI1
aI0
aI0
aI0
aI0
aI1
aI0
aI0
aa(lp164
V0021201004
p165
aVMAR 19, 2013
p166
aVORL @ IND
p167
aVL
p168
aI5
aI0
aI1
aF0.0
aI0
aI0
aF0.0
aI0
aI0
aF0.0
aI0
aI0
aI0
aI1
aI0
aI0
aI0
aI0
aI0
aI0
aa(lp169
V0021201010
p170
aVMAR 20, 2013
p171
aVORL @ NYK
p172
aVL
p173
aI6
aI2
aI2
aF1.0
aI1
aI1
aF1.0
aI1
aI1
aF1.0
aI1
aI2
aI3
aI1
aI1
aI0
aI1
aI1
aI6
aI5
aa(lp174
V0021201023
p175
aVMAR 22, 2013
p176
aVORL vs. OKC
p177
aVL
p178
aI1
aI1
aI1
aF1.0
aI0
aI0
aF0.0
aI0
aI0
aF0.0
aI0
aI0
aI0
aI0
aI0
aI0
aI0
aI1
aI2
aI-1
aa(lp179
V0021201049
p180
aVMAR 25, 2013
p181
aVORL vs. MIA
p182
aVL
p183
aI7
aI1
aI3
aF0.333
aI0
aI1
aF0.0
aI0
aI0
aF0.0
aI1
aI2
aI3
aI0
aI0
aI0
aI0
aI1
aI2
aI5
aa(lp184
V0021201059
p185
aVMAR 27, 2013
p186
aVORL @ CHA
p187
aVL
p188
aI6
aI0
aI0
aF0.0
aI0
aI0
aF0.0
aI0
aI0
aF0.0
aI0
aI0
aI0
aI0
aI0
aI0
aI0
aI0
aI0
aI-12
aa(lp189
V0021201074
p190
aVMAR 29, 2013
p191
aVORL vs. WAS
p192
aVW
p193
aI13
aI1
aI4
aF0.25
aI0
aI0
aF0.0
aI0
aI0
aF0.0
aI0
aI1
aI1
aI1
aI0
aI0
aI1
aI0
aI2
aI12
aa(lp194
V0021201086
p195
aVMAR 30, 2013
p196
aVORL @ ATL
p197
aVL
p198
aI7
aI0
aI1
aF0.0
aI0
aI0
aF0.0
aI0
aI0
aF0.0
aI1
aI1
aI2
aI0
aI1
aI0
aI1
aI0
aI0
aI-11
aa(lp199
V0021201104
p200
aVAPR 01, 2013
p201
aVORL @ HOU
p202
aVL
p203
aI12
aI0
aI1
aF0.0
aI0
aI0
aF0.0
aI0
aI0
aF0.0
aI0
aI0
aI0
aI0
aI0
aI0
aI1
aI1
aI0
aI4
aa(lp204
V0021201117
p205
aVAPR 03, 2013
p206
aVORL @ SAS
p207
aVL
p208
aI16
aI3
aI4
aF0.75
aI2
aI2
aF1.0
aI0
aI0
aF0.0
aI0
aI4
aI4
aI2
aI1
aI0
aI0
aI2
aI8
aI-4
aa(lp209
V0021201131
p210
aVAPR 05, 2013
p211
aVORL @ CHI
p212
aVL
p213
aI28
aI1
aI5
aF0.2
aI0
aI0
aF0.0
aI1
aI3
aF0.333
aI0
aI1
aI1
aI1
aI1
aI0
aI0
aI2
aI3
aI3
aa(lp214
V0021201148
p215
aVAPR 07, 2013
p216
aVORL @ CLE
p217
aVL
p218
aI7
aI1
aI2
aF0.5
aI1
aI1
aF1.0
aI0
aI0
aF0.0
aI0
aI1
aI1
aI0
aI0
aI0
aI1
aI0
aI3
aI-4
aa(lp219
V0021201166
p220
aVAPR 10, 2013
p221
aVORL vs. MIL
p222
aVW
p223
aI35
aI6
aI10
aF0.6
aI4
aI6
aF0.667
aI0
aI0
aF0.0
aI0
aI4
aI4
aI2
aI1
aI0
aI1
aI3
aI16
aI-3
aa(lp224
V0021201191
p225
aVAPR 13, 2013
p226
aVORL vs. BOS
p227
aVL
p228
aI25
aI5
aI7
aF0.714
aI1
aI2
aF0.5
aI0
aI0
aF0.0
aI0
aI0
aI0
aI2
aI0
aI0
aI0
aI1
aI11
aI-16
aa(lp229
V0021201203
p230
aVAPR 15, 2013
p231
aVORL vs. CHI
p232
aVL
p233
aI30
aI2
aI7
aF0.286
aI1
aI3
aF0.333
aI4
aI7
aF0.571
aI0
aI0
aI0
aI1
aI0
aI0
aI1
aI3
aI9
aI-7
aa(lp234
V0021201220
p235
aVAPR 17, 2013
p236
aVORL @ MIA
p237
aVL
p238
aI27
aI1
aI6
aF0.167
aI0
aI3
aF0.0
aI0
aI0
aF0.0
aI0
aI4
aI4
aI1
aI0
aI0
aI0
aI3
aI2
aI-18
aasS'name'
p239
VDoron Lamb
p240
sS'experience'
p241
I0
s.