(dp0
S'stats'
p1
(lp2
(lp3
V0021200276
p4
aVDEC 07, 2012
p5
aVCLE @ MIN
p6
aVL
p7
aI9
aI1
aI3
aF0.333
aI0
aI0
aF0.0
aI0
aI0
aF0.0
aI2
aI2
aI4
aI0
aI1
aI0
aI0
aI0
aI2
aI3
aa(lp8
V0021200287
p9
aVDEC 08, 2012
p10
aVCLE vs. DET
p11
aVL
p12
aI7
aI0
aI0
aF0.0
aI0
aI0
aF0.0
aI0
aI0
aF0.0
aI0
aI0
aI0
aI0
aI0
aI0
aI0
aI2
aI0
aI-10
aa(lp13
V0021200311
p14
aVDEC 12, 2012
p15
aVCLE @ IND
p16
aVL
p17
aI3
aI0
aI0
aF0.0
aI0
aI0
aF0.0
aI0
aI0
aF0.0
aI0
aI1
aI1
aI0
aI0
aI0
aI0
aI0
aI0
aI0
aa(lp18
V0021200338
p19
aVDEC 15, 2012
p20
aVCLE @ NYK
p21
aVL
p22
aI4
aI0
aI0
aF0.0
aI0
aI0
aF0.0
aI0
aI0
aF0.0
aI1
aI1
aI2
aI0
aI0
aI0
aI0
aI0
aI0
aI-12
aa(lp23
V0021200370
p24
aVDEC 19, 2012
p25
aVCLE @ BOS
p26
aVL
p27
aI11
aI1
aI5
aF0.2
aI0
aI0
aF0.0
aI0
aI0
aF0.0
aI1
aI0
aI1
aI0
aI0
aI0
aI0
aI1
aI2
aI0
aa(lp28
V0021200385
p29
aVDEC 21, 2012
p30
aVCLE vs. IND
p31
aVL
p32
aI9
aI1
aI2
aF0.5
aI0
aI0
aF0.0
aI0
aI0
aF0.0
aI0
aI0
aI0
aI1
aI0
aI0
aI0
aI2
aI2
aI11
aa(lp33
V0021200429
p34
aVDEC 28, 2012
p35
aVCLE vs. ATL
p36
aVL
p37
aI4
aI1
aI1
aF1.0
aI0
aI0
aF0.0
aI0
aI0
aF0.0
aI0
aI0
aI0
aI0
aI0
aI0
aI0
aI0
aI2
aI10
aa(lp38
V0021200466
p39
aVJAN 02, 2013
p40
aVCLE vs. SAC
p41
aVL
p42
aI6
aI0
aI0
aF0.0
aI0
aI0
aF0.0
aI0
aI0
aF0.0
aI0
aI1
aI1
aI0
aI0
aI0
aI0
aI0
aI0
aI3
aa(lp43
V0021200493
p44
aVJAN 05, 2013
p45
aVCLE vs. HOU
p46
aVL
p47
aI12
aI2
aI2
aF1.0
aI0
aI0
aF0.0
aI2
aI2
aF1.0
aI2
aI1
aI3
aI0
aI0
aI0
aI0
aI1
aI6
aI0
aa(lp48
V0021200506
p49
aVJAN 07, 2013
p50
aVCLE @ CHI
p51
aVL
p52
aI20
aI2
aI3
aF0.667
aI0
aI0
aF0.0
aI0
aI0
aF0.0
aI2
aI0
aI2
aI2
aI1
aI0
aI1
aI0
aI4
aI-12
aa(lp53
V0021200518
p54
aVJAN 09, 2013
p55
aVCLE vs. ATL
p56
aVW
p57
aI22
aI1
aI4
aF0.25
aI0
aI0
aF0.0
aI0
aI0
aF0.0
aI2
aI2
aI4
aI0
aI1
aI0
aI0
aI2
aI2
aI12
aa(lp58
V0021200538
p59
aVJAN 11, 2013
p60
aVCLE @ DEN
p61
aVL
p62
aI3
aI0
aI0
aF0.0
aI0
aI0
aF0.0
aI0
aI0
aF0.0
aI1
aI0
aI1
aI0
aI0
aI0
aI0
aI0
aI0
aI-2
aa(lp63
V0021200555
p64
aVJAN 13, 2013
p65
aVCLE @ LAL
p66
aVL
p67
aI16
aI3
aI5
aF0.6
aI0
aI0
aF0.0
aI0
aI1
aF0.0
aI0
aI2
aI2
aI1
aI2
aI0
aI0
aI1
aI6
aI3
aa(lp68
V0021200563
p69
aVJAN 14, 2013
p70
aVCLE @ SAC
p71
aVL
p72
aI8
aI0
aI1
aF0.0
aI0
aI0
aF0.0
aI0
aI0
aF0.0
aI0
aI0
aI0
aI0
aI0
aI0
aI0
aI1
aI0
aI4
aa(lp73
V0021200598
p74
aVJAN 19, 2013
p75
aVCLE @ UTA
p76
aVL
p77
aI1
aI1
aI1
aF1.0
aI0
aI0
aF0.0
aI0
aI0
aF0.0
aI0
aI1
aI1
aI0
aI0
aI0
aI0
aI0
aI2
aI2
aa(lp78
V0021200690
p79
aVFEB 01, 2013
p80
aVCLE @ DET
p81
aVL
p82
aI21
aI2
aI6
aF0.333
aI0
aI0
aF0.0
aI0
aI0
aF0.0
aI5
aI4
aI9
aI0
aI0
aI0
aI0
aI5
aI4
aI5
aa(lp83
V0021200724
p84
aVFEB 06, 2013
p85
aVCLE vs. CHA
p86
aVW
p87
aI6
aI1
aI4
aF0.25
aI0
aI0
aF0.0
aI0
aI0
aF0.0
aI1
aI1
aI2
aI1
aI0
aI0
aI0
aI1
aI2
aI1
aa(lp88
V0021200825
p89
aVFEB 23, 2013
p90
aVCLE @ ORL
p91
aVW
p92
aI6
aI2
aI3
aF0.667
aI0
aI0
aF0.0
aI0
aI0
aF0.0
aI0
aI0
aI0
aI0
aI1
aI1
aI2
aI0
aI4
aI7
aa(lp93
V0021200869
p94
aVMAR 01, 2013
p95
aVCLE vs. LAC
p96
aVL
p97
aI2
aI0
aI1
aF0.0
aI0
aI0
aF0.0
aI1
aI2
aF0.5
aI0
aI0
aI0
aI0
aI0
aI0
aI0
aI0
aI1
aI3
aa(lp98
V0021200995
p99
aVMAR 18, 2013
p100
aVCLE vs. IND
p101
aVL
p102
aI7
aI1
aI3
aF0.333
aI0
aI0
aF0.0
aI0
aI0
aF0.0
aI0
aI2
aI2
aI0
aI0
aI1
aI0
aI1
aI2
aI2
aa(lp103
V0021201028
p104
aVMAR 22, 2013
p105
aVCLE @ HOU
p106
aVL
p107
aI12
aI2
aI7
aF0.286
aI0
aI0
aF0.0
aI0
aI0
aF0.0
aI1
aI0
aI1
aI0
aI1
aI0
aI0
aI1
aI4
aI-12
aa(lp108
V0021201096
p109
aVMAR 31, 2013
p110
aVCLE @ NOH
p111
aVL
p112
aI1
aI0
aI0
aF0.0
aI0
aI0
aF0.0
aI0
aI0
aF0.0
aI0
aI0
aI0
aI0
aI0
aI0
aI0
aI0
aI0
aI-3
aa(lp113
V0021201101
p114
aVAPR 01, 2013
p115
aVCLE @ ATL
p116
aVL
p117
aI3
aI1
aI2
aF0.5
aI0
aI0
aF0.0
aI0
aI0
aF0.0
aI1
aI0
aI1
aI0
aI0
aI0
aI0
aI0
aI2
aI0
aa(lp118
V0021201114
p119
aVAPR 03, 2013
p120
aVCLE vs. BKN
p121
aVL
p122
aI7
aI0
aI0
aF0.0
aI0
aI0
aF0.0
aI0
aI0
aF0.0
aI0
aI1
aI1
aI0
aI0
aI1
aI1
aI0
aI0
aI4
aa(lp123
V0021201127
p124
aVAPR 05, 2013
p125
aVCLE @ BOS
p126
aVW
p127
aI22
aI1
aI6
aF0.167
aI0
aI0
aF0.0
aI0
aI0
aF0.0
aI3
aI5
aI8
aI0
aI0
aI1
aI1
aI1
aI2
aI10
aa(lp128
V0021201148
p129
aVAPR 07, 2013
p130
aVCLE vs. ORL
p131
aVW
p132
aI19
aI2
aI9
aF0.222
aI0
aI0
aF0.0
aI0
aI0
aF0.0
aI2
aI0
aI2
aI0
aI1
aI0
aI2
aI0
aI4
aI16
aa(lp133
V0021201154
p134
aVAPR 09, 2013
p135
aVCLE @ IND
p136
aVL
p137
aI14
aI2
aI5
aF0.4
aI0
aI0
aF0.0
aI0
aI0
aF0.0
aI2
aI3
aI5
aI0
aI0
aI1
aI0
aI3
aI4
aI0
aa(lp138
V0021201167
p139
aVAPR 10, 2013
p140
aVCLE vs. DET
p141
aVL
p142
aI17
aI4
aI8
aF0.5
aI0
aI0
aF0.0
aI0
aI0
aF0.0
aI4
aI2
aI6
aI1
aI0
aI0
aI0
aI1
aI8
aI2
aa(lp143
V0021201182
p144
aVAPR 12, 2013
p145
aVCLE vs. NYK
p146
aVL
p147
aI16
aI3
aI6
aF0.5
aI0
aI0
aF0.0
aI1
aI2
aF0.5
aI3
aI0
aI3
aI1
aI0
aI0
aI1
aI0
aI7
aI-11
aa(lp148
V0021201197
p149
aVAPR 14, 2013
p150
aVCLE @ PHI
p151
aVL
p152
aI22
aI5
aI11
aF0.455
aI0
aI0
aF0.0
aI1
aI2
aF0.5
aI4
aI6
aI10
aI3
aI0
aI0
aI0
aI1
aI11
aI6
aa(lp153
V0021201204
p154
aVAPR 15, 2013
p155
aVCLE vs. MIA
p156
aVL
p157
aI14
aI3
aI6
aF0.5
aI0
aI0
aF0.0
aI4
aI6
aF0.667
aI1
aI2
aI3
aI0
aI1
aI0
aI0
aI1
aI10
aI9
aa(lp158
V0021201219
p159
aVAPR 17, 2013
p160
aVCLE @ CHA
p161
aVL
p162
aI11
aI1
aI3
aF0.333
aI0
aI0
aF0.0
aI0
aI0
aF0.0
aI0
aI3
aI3
aI0
aI0
aI0
aI0
aI0
aI2
aI2
aasS'name'
p163
VKevin Jones
p164
sS'weight'
p165
V260
p166
sS'age'
p167
I23
sS'experience'
p168
I0
sS'height'
p169
V6-8
p170
sS'position'
p171
VForward
p172
s.