(dp0
S'age'
p1
I22
sS'stats'
p2
(lp3
(lp4
V0021200003
p5
aVOCT 30, 2012
p6
aVDAL @ LAL
p7
aVW
p8
aI19
aI3
aI7
aF0.429
aI2
aI4
aF0.5
aI0
aI0
aF0.0
aI0
aI3
aI3
aI2
aI1
aI0
aI0
aI1
aI8
aI2
aa(lp9
V0021200009
p10
aVOCT 31, 2012
p11
aVDAL @ UTA
p12
aVL
p13
aI22
aI3
aI11
aF0.273
aI2
aI6
aF0.333
aI0
aI2
aF0.0
aI0
aI3
aI3
aI1
aI0
aI0
aI0
aI5
aI8
aI-10
aa(lp14
V0021200034
p15
aVNOV 03, 2012
p16
aVDAL vs. CHA
p17
aVW
p18
aI22
aI4
aI5
aF0.8
aI1
aI2
aF0.5
aI1
aI1
aF1.0
aI0
aI3
aI3
aI2
aI1
aI1
aI1
aI3
aI10
aI12
aa(lp19
V0021200046
p20
aVNOV 05, 2012
p21
aVDAL vs. POR
p22
aVW
p23
aI14
aI3
aI5
aF0.6
aI2
aI3
aF0.667
aI1
aI2
aF0.5
aI0
aI2
aI2
aI0
aI1
aI0
aI0
aI1
aI9
aI22
aa(lp24
V0021200061
p25
aVNOV 07, 2012
p26
aVDAL vs. TOR
p27
aVW
p28
aI27
aI3
aI4
aF0.75
aI2
aI3
aF0.667
aI0
aI0
aF0.0
aI0
aI4
aI4
aI1
aI0
aI0
aI0
aI2
aI8
aI1
aa(lp29
V0021200071
p30
aVNOV 09, 2012
p31
aVDAL @ NYK
p32
aVL
p33
aI30
aI3
aI8
aF0.375
aI1
aI4
aF0.25
aI0
aI0
aF0.0
aI0
aI3
aI3
aI1
aI1
aI0
aI4
aI5
aI7
aI-5
aa(lp34
V0021200083
p35
aVNOV 10, 2012
p36
aVDAL @ CHA
p37
aVL
p38
aI16
aI2
aI5
aF0.4
aI0
aI2
aF0.0
aI0
aI0
aF0.0
aI0
aI1
aI1
aI1
aI0
aI0
aI1
aI1
aI4
aI-20
aa(lp39
V0021200100
p40
aVNOV 12, 2012
p41
aVDAL vs. MIN
p42
aVL
p43
aI13
aI1
aI5
aF0.2
aI1
aI4
aF0.25
aI0
aI0
aF0.0
aI0
aI0
aI0
aI1
aI0
aI1
aI0
aI2
aI3
aI-9
aa(lp44
V0021200115
p45
aVNOV 14, 2012
p46
aVDAL vs. WAS
p47
aVW
p48
aI21
aI4
aI5
aF0.8
aI1
aI2
aF0.5
aI3
aI4
aF0.75
aI0
aI2
aI2
aI3
aI2
aI0
aI0
aI1
aI12
aI13
aa(lp49
V0021200124
p50
aVNOV 16, 2012
p51
aVDAL @ IND
p52
aVL
p53
aI11
aI2
aI3
aF0.667
aI0
aI1
aF0.0
aI0
aI0
aF0.0
aI0
aI3
aI3
aI0
aI0
aI0
aI2
aI1
aI4
aI-3
aa(lp54
V0021200135
p55
aVNOV 17, 2012
p56
aVDAL @ CLE
p57
aVW
p58
aI6
aI0
aI1
aF0.0
aI0
aI1
aF0.0
aI0
aI0
aF0.0
aI0
aI0
aI0
aI0
aI0
aI0
aI0
aI1
aI0
aI1
aa(lp59
V0021200167
p60
aVNOV 21, 2012
p61
aVDAL vs. NYK
p62
aVW
p63
aI21
aI4
aI6
aF0.667
aI3
aI5
aF0.6
aI1
aI2
aF0.5
aI0
aI4
aI4
aI1
aI1
aI0
aI1
aI1
aI12
aI14
aa(lp64
V0021200187
p65
aVNOV 24, 2012
p66
aVDAL vs. LAL
p67
aVL
p68
aI20
aI6
aI12
aF0.5
aI3
aI7
aF0.429
aI0
aI3
aF0.0
aI0
aI4
aI4
aI2
aI4
aI0
aI0
aI1
aI15
aI0
aa(lp69
V0021200204
p70
aVNOV 27, 2012
p71
aVDAL @ PHI
p72
aVL
p73
aI24
aI1
aI5
aF0.2
aI0
aI3
aF0.0
aI0
aI0
aF0.0
aI1
aI3
aI4
aI2
aI1
aI0
aI0
aI4
aI2
aI-14
aa(lp74
V0021200214
p75
aVNOV 28, 2012
p76
aVDAL @ CHI
p77
aVL
p78
aI26
aI1
aI7
aF0.143
aI0
aI4
aF0.0
aI0
aI0
aF0.0
aI0
aI3
aI3
aI1
aI2
aI1
aI1
aI3
aI2
aI-6
aa(lp79
V0021200240
p80
aVDEC 01, 2012
p81
aVDAL vs. DET
p82
aVW
p83
aI30
aI1
aI8
aF0.125
aI0
aI4
aF0.0
aI2
aI3
aF0.667
aI0
aI4
aI4
aI1
aI3
aI1
aI3
aI2
aI4
aI0
aa(lp84
V0021200267
p85
aVDEC 05, 2012
p86
aVDAL @ LAC
p87
aVL
p88
aI18
aI0
aI6
aF0.0
aI0
aI3
aF0.0
aI2
aI2
aF1.0
aI1
aI0
aI1
aI3
aI2
aI1
aI0
aI2
aI2
aI-6
aa(lp89
V0021200269
p90
aVDEC 06, 2012
p91
aVDAL @ PHX
p92
aVW
p93
aI14
aI0
aI2
aF0.0
aI0
aI1
aF0.0
aI0
aI0
aF0.0
aI1
aI2
aI3
aI0
aI0
aI0
aI0
aI1
aI0
aI6
aa(lp94
V0021200290
p95
aVDEC 08, 2012
p96
aVDAL @ HOU
p97
aVW
p98
aI15
aI2
aI7
aF0.286
aI1
aI2
aF0.5
aI1
aI5
aF0.2
aI2
aI1
aI3
aI1
aI2
aI0
aI0
aI2
aI6
aI-15
aa(lp99
V0021200302
p100
aVDEC 10, 2012
p101
aVDAL vs. SAC
p102
aVW
p103
aI23
aI5
aI9
aF0.556
aI1
aI2
aF0.5
aI0
aI0
aF0.0
aI1
aI3
aI4
aI4
aI2
aI0
aI0
aI2
aI11
aI24
aa(lp104
V0021200342
p105
aVDEC 15, 2012
p106
aVDAL @ MIN
p107
aVL
p108
aI13
aI0
aI2
aF0.0
aI0
aI1
aF0.0
aI0
aI0
aF0.0
aI0
aI0
aI0
aI0
aI1
aI0
aI0
aI1
aI0
aI1
aa(lp109
V0021200362
p110
aVDEC 18, 2012
p111
aVDAL vs. PHI
p112
aVW
p113
aI18
aI0
aI3
aF0.0
aI0
aI2
aF0.0
aI4
aI4
aF1.0
aI0
aI1
aI1
aI0
aI1
aI0
aI1
aI2
aI4
aI-1
aa(lp114
V0021200378
p115
aVDEC 20, 2012
p116
aVDAL vs. MIA
p117
aVL
p118
aI26
aI5
aI13
aF0.385
aI2
aI8
aF0.25
aI3
aI4
aF0.75
aI2
aI1
aI3
aI3
aI0
aI0
aI0
aI3
aI15
aI-4
aa(lp119
V0021200386
p120
aVDEC 21, 2012
p121
aVDAL @ MEM
p122
aVL
p123
aI19
aI1
aI9
aF0.111
aI0
aI4
aF0.0
aI0
aI0
aF0.0
aI1
aI4
aI5
aI0
aI1
aI0
aI1
aI2
aI2
aI1
aa(lp124
V0021200402
p125
aVDEC 23, 2012
p126
aVDAL @ SAS
p127
aVL
p128
aI16
aI3
aI6
aF0.5
aI1
aI1
aF1.0
aI2
aI2
aF1.0
aI1
aI3
aI4
aI0
aI1
aI0
aI1
aI4
aI9
aI-3
aa(lp129
V0021200423
p130
aVDEC 27, 2012
p131
aVDAL @ OKC
p132
aVL
p133
aI11
aI1
aI2
aF0.5
aI1
aI2
aF0.5
aI1
aI1
aF1.0
aI0
aI2
aI2
aI0
aI0
aI0
aI0
aI1
aI4
aI2
aa(lp134
V0021200431
p135
aVDEC 28, 2012
p136
aVDAL vs. DEN
p137
aVL
p138
aI14
aI1
aI7
aF0.143
aI1
aI5
aF0.2
aI3
aI4
aF0.75
aI2
aI1
aI3
aI1
aI1
aI0
aI2
aI1
aI6
aI-2
aa(lp139
V0021200449
p140
aVDEC 30, 2012
p141
aVDAL vs. SAS
p142
aVL
p143
aI15
aI2
aI6
aF0.333
aI0
aI2
aF0.0
aI2
aI2
aF1.0
aI1
aI3
aI4
aI2
aI0
aI0
aI2
aI1
aI6
aI1
aa(lp144
V0021200458
p145
aVJAN 01, 2013
p146
aVDAL @ WAS
p147
aVW
p148
aI10
aI0
aI0
aF0.0
aI0
aI0
aF0.0
aI0
aI2
aF0.0
aI0
aI0
aI0
aI0
aI0
aI0
aI1
aI0
aI0
aI-3
aa(lp149
V0021200495
p150
aVJAN 05, 2013
p151
aVDAL vs. NOH
p152
aVL
p153
aI12
aI1
aI3
aF0.333
aI1
aI2
aF0.5
aI0
aI0
aF0.0
aI1
aI0
aI1
aI2
aI0
aI0
aI0
aI0
aI3
aI-2
aa(lp154
V0021200508
p155
aVJAN 07, 2013
p156
aVDAL @ UTA
p157
aVL
p158
aI16
aI1
aI4
aF0.25
aI1
aI3
aF0.333
aI0
aI0
aF0.0
aI1
aI0
aI1
aI2
aI1
aI0
aI0
aI2
aI3
aI4
aa(lp159
V0021200525
p160
aVJAN 09, 2013
p161
aVDAL @ LAC
p162
aVL
p163
aI12
aI1
aI1
aF1.0
aI1
aI1
aF1.0
aI0
aI0
aF0.0
aI1
aI0
aI1
aI1
aI3
aI0
aI0
aI2
aI3
aI-14
aa(lp164
V0021200528
p165
aVJAN 10, 2013
p166
aVDAL @ SAC
p167
aVW
p168
aI20
aI2
aI5
aF0.4
aI1
aI3
aF0.333
aI0
aI0
aF0.0
aI2
aI2
aI4
aI5
aI0
aI0
aI1
aI1
aI5
aI-2
aa(lp169
V0021200547
p170
aVJAN 12, 2013
p171
aVDAL vs. MEM
p172
aVW
p173
aI18
aI1
aI3
aF0.333
aI1
aI1
aF1.0
aI2
aI4
aF0.5
aI0
aI4
aI4
aI2
aI0
aI0
aI0
aI2
aI5
aI4
aa(lp174
V0021200560
p175
aVJAN 14, 2013
p176
aVDAL vs. MIN
p177
aVW
p178
aI13
aI3
aI4
aF0.75
aI1
aI2
aF0.5
aI0
aI0
aF0.0
aI0
aI0
aI0
aI0
aI0
aI0
aI1
aI1
aI7
aI0
aa(lp179
V0021200575
p180
aVJAN 16, 2013
p181
aVDAL vs. HOU
p182
aVW
p183
aI13
aI3
aI4
aF0.75
aI2
aI3
aF0.667
aI2
aI3
aF0.667
aI0
aI2
aI2
aI0
aI1
aI0
aI0
aI1
aI10
aI4
aa(lp184
V0021200592
p185
aVJAN 18, 2013
p186
aVDAL vs. OKC
p187
aVL
p188
aI9
aI0
aI1
aF0.0
aI0
aI1
aF0.0
aI0
aI0
aF0.0
aI0
aI1
aI1
aI1
aI2
aI0
aI0
aI2
aI0
aI2
aa(lp189
V0021200602
p190
aVJAN 20, 2013
p191
aVDAL @ ORL
p192
aVW
p193
aI18
aI3
aI6
aF0.5
aI1
aI3
aF0.333
aI0
aI0
aF0.0
aI2
aI2
aI4
aI1
aI2
aI0
aI0
aI1
aI7
aI1
aa(lp194
V0021200639
p195
aVJAN 25, 2013
p196
aVDAL vs. SAS
p197
aVL
p198
aI26
aI1
aI6
aF0.167
aI1
aI3
aF0.333
aI0
aI0
aF0.0
aI0
aI6
aI6
aI1
aI2
aI0
aI2
aI3
aI3
aI28
aa(lp199
V0021200657
p200
aVJAN 27, 2013
p201
aVDAL vs. PHX
p202
aVW
p203
aI2
aI0
aI0
aF0.0
aI0
aI0
aF0.0
aI0
aI0
aF0.0
aI0
aI0
aI0
aI0
aI0
aI0
aI1
aI0
aI0
aI-3
aa(lp204
V0021200668
p205
aVJAN 29, 2013
p206
aVDAL @ POR
p207
aVL
p208
aI0
aI0
aI0
aF0.0
aI0
aI0
aF0.0
aI0
aI0
aF0.0
aI0
aI0
aI0
aI0
aI0
aI0
aI0
aI1
aI0
aI-2
aa(lp209
V0021200683
p210
aVJAN 31, 2013
p211
aVDAL @ GSW
p212
aVL
p213
aI15
aI1
aI6
aF0.167
aI0
aI3
aF0.0
aI0
aI0
aF0.0
aI0
aI2
aI2
aI2
aI0
aI0
aI0
aI0
aI2
aI-1
aa(lp214
V0021200694
p215
aVFEB 01, 2013
p216
aVDAL @ PHX
p217
aVW
p218
aI26
aI5
aI7
aF0.714
aI2
aI4
aF0.5
aI1
aI2
aF0.5
aI0
aI1
aI1
aI2
aI0
aI1
aI0
aI3
aI13
aI1
aa(lp219
V0021200712
p220
aVFEB 04, 2013
p221
aVDAL @ OKC
p222
aVL
p223
aI28
aI3
aI11
aF0.273
aI1
aI4
aF0.25
aI3
aI3
aF1.0
aI0
aI2
aI2
aI1
aI2
aI0
aI0
aI2
aI10
aI-21
aa(lp224
V0021200730
p225
aVFEB 06, 2013
p226
aVDAL vs. POR
p227
aVW
p228
aI13
aI1
aI3
aF0.333
aI1
aI3
aF0.333
aI2
aI2
aF1.0
aI0
aI2
aI2
aI1
aI2
aI0
aI0
aI1
aI5
aI-1
aa(lp229
V0021200750
p230
aVFEB 09, 2013
p231
aVDAL vs. GSW
p232
aVW
p233
aI13
aI2
aI5
aF0.4
aI2
aI3
aF0.667
aI0
aI0
aF0.0
aI0
aI1
aI1
aI0
aI1
aI1
aI1
aI0
aI6
aI-4
aa(lp234
V0021200768
p235
aVFEB 11, 2013
p236
aVDAL vs. ATL
p237
aVL
p238
aI12
aI2
aI5
aF0.4
aI0
aI3
aF0.0
aI0
aI0
aF0.0
aI0
aI1
aI1
aI1
aI1
aI0
aI1
aI2
aI4
aI-1
aa(lp239
V0021200785
p240
aVFEB 13, 2013
p241
aVDAL vs. SAC
p242
aVW
p243
aI16
aI4
aI7
aF0.571
aI3
aI6
aF0.5
aI0
aI0
aF0.0
aI0
aI1
aI1
aI1
aI2
aI0
aI1
aI5
aI11
aI9
aa(lp244
V0021200806
p245
aVFEB 20, 2013
p246
aVDAL vs. ORL
p247
aVW
p248
aI13
aI1
aI2
aF0.5
aI1
aI2
aF0.5
aI0
aI0
aF0.0
aI0
aI3
aI3
aI0
aI0
aI0
aI1
aI2
aI3
aI10
aa(lp249
V0021200818
p250
aVFEB 22, 2013
p251
aVDAL @ NOH
p252
aVW
p253
aI12
aI2
aI5
aF0.4
aI0
aI3
aF0.0
aI0
aI0
aF0.0
aI0
aI2
aI2
aI0
aI0
aI1
aI1
aI1
aI4
aI-8
aa(lp254
V0021200830
p255
aVFEB 24, 2013
p256
aVDAL vs. LAL
p257
aVL
p258
aI19
aI1
aI2
aF0.5
aI1
aI2
aF0.5
aI0
aI0
aF0.0
aI0
aI2
aI2
aI1
aI0
aI0
aI1
aI0
aI3
aI4
aa(lp259
V0021200848
p260
aVFEB 26, 2013
p261
aVDAL vs. MIL
p262
aVL
p263
aI11
aI0
aI2
aF0.0
aI0
aI1
aF0.0
aI1
aI2
aF0.5
aI1
aI0
aI1
aI0
aI0
aI0
aI0
aI2
aI1
aI7
aa(lp264
V0021200855
p265
aVFEB 27, 2013
p266
aVDAL @ MEM
p267
aVL
p268
aI14
aI3
aI5
aF0.6
aI2
aI3
aF0.667
aI1
aI1
aF1.0
aI1
aI3
aI4
aI1
aI1
aI0
aI0
aI3
aI9
aI9
aa(lp269
V0021200870
p270
aVMAR 01, 2013
p271
aVDAL @ BKN
p272
aVW
p273
aI14
aI1
aI2
aF0.5
aI1
aI1
aF1.0
aI0
aI0
aF0.0
aI0
aI0
aI0
aI2
aI1
aI0
aI1
aI0
aI3
aI1
aa(lp274
V0021200885
p275
aVMAR 03, 2013
p276
aVDAL @ HOU
p277
aVL
p278
aI25
aI3
aI9
aF0.333
aI2
aI4
aF0.5
aI0
aI2
aF0.0
aI0
aI1
aI1
aI2
aI1
aI0
aI0
aI0
aI8
aI2
aa(lp279
V0021200908
p280
aVMAR 06, 2013
p281
aVDAL vs. HOU
p282
aVW
p283
aI14
aI1
aI6
aF0.167
aI1
aI3
aF0.333
aI0
aI0
aF0.0
aI0
aI2
aI2
aI2
aI0
aI0
aI1
aI1
aI3
aI-5
aa(lp284
V0021200919
p285
aVMAR 08, 2013
p286
aVDAL @ DET
p287
aVW
p288
aI26
aI1
aI3
aF0.333
aI0
aI2
aF0.0
aI0
aI2
aF0.0
aI0
aI0
aI0
aI5
aI1
aI0
aI0
aI1
aI2
aI-18
aa(lp289
V0021200940
p290
aVMAR 10, 2013
p291
aVDAL @ MIN
p292
aVW
p293
aI25
aI2
aI5
aF0.4
aI1
aI3
aF0.333
aI2
aI2
aF1.0
aI0
aI1
aI1
aI3
aI1
aI1
aI1
aI2
aI7
aI-1
aa(lp294
V0021200953
p295
aVMAR 12, 2013
p296
aVDAL @ MIL
p297
aVW
p298
aI36
aI6
aI9
aF0.667
aI2
aI4
aF0.5
aI0
aI0
aF0.0
aI2
aI6
aI8
aI3
aI1
aI0
aI3
aI3
aI14
aI14
aa(lp299
V0021200967
p300
aVMAR 14, 2013
p301
aVDAL @ SAS
p302
aVL
p303
aI23
aI2
aI3
aF0.667
aI1
aI1
aF1.0
aI0
aI0
aF0.0
aI1
aI3
aI4
aI2
aI1
aI2
aI0
aI2
aI5
aI3
aa(lp304
V0021200976
p305
aVMAR 15, 2013
p306
aVDAL vs. CLE
p307
aVW
p308
aI34
aI1
aI6
aF0.167
aI0
aI2
aF0.0
aI0
aI0
aF0.0
aI1
aI13
aI14
aI1
aI2
aI1
aI1
aI2
aI2
aI20
aa(lp309
V0021200990
p310
aVMAR 17, 2013
p311
aVDAL vs. OKC
p312
aVL
p313
aI29
aI4
aI8
aF0.5
aI1
aI5
aF0.2
aI2
aI2
aF1.0
aI1
aI3
aI4
aI3
aI2
aI0
aI2
aI1
aI11
aI-9
aa(lp314
V0021200996
p315
aVMAR 18, 2013
p316
aVDAL @ ATL
p317
aVW
p318
aI27
aI2
aI9
aF0.222
aI0
aI4
aF0.0
aI0
aI0
aF0.0
aI1
aI3
aI4
aI3
aI1
aI0
aI2
aI2
aI4
aI5
aa(lp319
V0021201015
p320
aVMAR 20, 2013
p321
aVDAL vs. BKN
p322
aVL
p323
aI22
aI4
aI7
aF0.571
aI2
aI4
aF0.5
aI0
aI0
aF0.0
aI0
aI3
aI3
aI0
aI0
aI0
aI0
aI0
aI10
aI-6
aa(lp324
V0021201029
p325
aVMAR 22, 2013
p326
aVDAL vs. BOS
p327
aVW
p328
aI8
aI0
aI1
aF0.0
aI0
aI0
aF0.0
aI0
aI0
aF0.0
aI0
aI0
aI0
aI0
aI0
aI0
aI0
aI2
aI0
aI-13
aa(lp329
V0021201045
p330
aVMAR 24, 2013
p331
aVDAL vs. UTA
p332
aVW
p333
aI21
aI0
aI0
aF0.0
aI0
aI0
aF0.0
aI2
aI2
aF1.0
aI1
aI1
aI2
aI1
aI1
aI0
aI2
aI4
aI2
aI-7
aa(lp334
V0021201056
p335
aVMAR 26, 2013
p336
aVDAL vs. LAC
p337
aVW
p338
aI13
aI2
aI2
aF1.0
aI1
aI1
aF1.0
aI0
aI0
aF0.0
aI1
aI0
aI1
aI1
aI0
aI0
aI1
aI0
aI5
aI1
aa(lp339
V0021201072
p340
aVMAR 28, 2013
p341
aVDAL vs. IND
p342
aVL
p343
aI10
aI1
aI3
aF0.333
aI1
aI2
aF0.5
aI0
aI0
aF0.0
aI0
aI3
aI3
aI0
aI0
aI1
aI0
aI0
aI3
aI-11
aa(lp344
V0021201085
p345
aVMAR 30, 2013
p346
aVDAL vs. CHI
p347
aVW
p348
aI10
aI1
aI2
aF0.5
aI0
aI1
aF0.0
aI0
aI0
aF0.0
aI0
aI1
aI1
aI1
aI0
aI1
aI0
aI0
aI2
aI-3
aa(lp349
V0021201110
p350
aVAPR 02, 2013
p351
aVDAL @ LAL
p352
aVL
p353
aI16
aI3
aI3
aF1.0
aI1
aI1
aF1.0
aI0
aI0
aF0.0
aI0
aI3
aI3
aI0
aI0
aI1
aI0
aI0
aI7
aI-5
aa(lp354
V0021201124
p355
aVAPR 04, 2013
p356
aVDAL @ DEN
p357
aVL
p358
aI12
aI1
aI2
aF0.5
aI1
aI1
aF1.0
aI0
aI0
aF0.0
aI0
aI0
aI0
aI0
aI0
aI0
aI0
aI2
aI3
aI-14
aa(lp359
V0021201135
p360
aVAPR 05, 2013
p361
aVDAL @ SAC
p362
aVW
p363
aI14
aI0
aI3
aF0.0
aI0
aI1
aF0.0
aI0
aI0
aF0.0
aI0
aI2
aI2
aI0
aI1
aI0
aI1
aI3
aI0
aI-18
aa(lp364
V0021201153
p365
aVAPR 07, 2013
p366
aVDAL @ POR
p367
aVW
p368
aI11
aI2
aI5
aF0.4
aI0
aI1
aF0.0
aI1
aI1
aF1.0
aI1
aI3
aI4
aI1
aI0
aI0
aI0
aI0
aI5
aI1
aa(lp369
V0021201169
p370
aVAPR 10, 2013
p371
aVDAL vs. PHX
p372
aVL
p373
aI11
aI1
aI2
aF0.5
aI0
aI1
aF0.0
aI0
aI0
aF0.0
aI0
aI0
aI0
aI0
aI0
aI0
aI0
aI0
aI2
aI5
aa(lp374
V0021201185
p375
aVAPR 12, 2013
p376
aVDAL vs. DEN
p377
aVW
p378
aI12
aI0
aI5
aF0.0
aI0
aI1
aF0.0
aI0
aI0
aF0.0
aI1
aI2
aI3
aI0
aI0
aI0
aI0
aI2
aI0
aI-4
aa(lp379
V0021201199
p380
aVAPR 14, 2013
p381
aVDAL @ NOH
p382
aVW
p383
aI19
aI0
aI1
aF0.0
aI0
aI1
aF0.0
aI0
aI0
aF0.0
aI0
aI0
aI0
aI4
aI0
aI0
aI0
aI3
aI0
aI6
aa(lp384
V0021201208
p385
aVAPR 15, 2013
p386
aVDAL vs. MEM
p387
aVL
p388
aI12
aI0
aI0
aF0.0
aI0
aI0
aF0.0
aI0
aI0
aF0.0
aI0
aI1
aI1
aI0
aI0
aI1
aI1
aI1
aI0
aI-7
aa(lp389
V0021201224
p390
aVAPR 17, 2013
p391
aVDAL vs. NOH
p392
aVW
p393
aI20
aI1
aI5
aF0.2
aI0
aI1
aF0.0
aI2
aI2
aF1.0
aI3
aI1
aI4
aI2
aI2
aI1
aI1
aI4
aI4
aI9
aasS'name'
p394
VJae Crowder
p395
sS'experience'
p396
I0
s.