(dp0
S'age'
p1
I26
sS'stats'
p2
(lp3
(lp4
V0021200639
p5
aVJAN 25, 2013
p6
aVSAS @ DAL
p7
aVW
p8
aI1
aI0
aI0
aF0.0
aI0
aI0
aF0.0
aI0
aI0
aF0.0
aI0
aI0
aI0
aI0
aI0
aI0
aI1
aI0
aI0
aI-8
aa(lp9
V0021200678
p10
aVJAN 30, 2013
p11
aVSAS vs. CHA
p12
aVW
p13
aI18
aI3
aI7
aF0.429
aI0
aI0
aF0.0
aI1
aI2
aF0.5
aI3
aI6
aI9
aI0
aI0
aI1
aI3
aI4
aI7
aI1
aa(lp14
V0021200731
p15
aVFEB 06, 2013
p16
aVSAS @ MIN
p17
aVW
p18
aI11
aI0
aI1
aF0.0
aI0
aI0
aF0.0
aI0
aI0
aF0.0
aI0
aI0
aI0
aI0
aI0
aI1
aI1
aI3
aI0
aI3
aa(lp19
V0021200739
p20
aVFEB 08, 2013
p21
aVSAS @ DET
p22
aVL
p23
aI2
aI0
aI0
aF0.0
aI0
aI0
aF0.0
aI0
aI0
aF0.0
aI0
aI0
aI0
aI0
aI0
aI0
aI0
aI0
aI0
aI1
aa(lp24
V0021200758
p25
aVFEB 10, 2013
p26
aVSAS @ BKN
p27
aVW
p28
aI4
aI0
aI0
aF0.0
aI0
aI0
aF0.0
aI2
aI2
aF1.0
aI0
aI1
aI1
aI0
aI0
aI0
aI0
aI1
aI2
aI4
aa(lp29
V0021200766
p30
aVFEB 11, 2013
p31
aVSAS @ CHI
p32
aVW
p33
aI1
aI0
aI0
aF0.0
aI0
aI0
aF0.0
aI0
aI0
aF0.0
aI0
aI0
aI0
aI0
aI0
aI0
aI0
aI1
aI0
aI-1
aa(lp34
V0021200810
p35
aVFEB 21, 2013
p36
aVSAS @ LAC
p37
aVW
p38
aI8
aI3
aI4
aF0.75
aI0
aI0
aF0.0
aI0
aI0
aF0.0
aI1
aI2
aI3
aI0
aI0
aI1
aI1
aI0
aI6
aI-4
aa(lp39
V0021200836
p40
aVFEB 24, 2013
p41
aVSAS @ PHX
p42
aVW
p43
aI2
aI0
aI0
aF0.0
aI0
aI0
aF0.0
aI0
aI0
aF0.0
aI0
aI0
aI0
aI0
aI0
aI0
aI1
aI2
aI0
aI-4
aa(lp44
V0021200872
p45
aVMAR 01, 2013
p46
aVSAS vs. SAC
p47
aVW
p48
aI6
aI1
aI1
aF1.0
aI0
aI0
aF0.0
aI0
aI0
aF0.0
aI0
aI0
aI0
aI1
aI0
aI0
aI0
aI0
aI2
aI-1
aa(lp49
V0021200886
p50
aVMAR 03, 2013
p51
aVSAS vs. DET
p52
aVW
p53
aI12
aI3
aI3
aF1.0
aI0
aI0
aF0.0
aI1
aI2
aF0.5
aI1
aI0
aI1
aI1
aI1
aI0
aI0
aI1
aI7
aI6
aa(lp54
V0021200954
p55
aVMAR 12, 2013
p56
aVSAS @ MIN
p57
aVL
p58
aI10
aI0
aI1
aF0.0
aI0
aI0
aF0.0
aI0
aI0
aF0.0
aI0
aI1
aI1
aI0
aI0
aI2
aI0
aI1
aI0
aI-4
aa(lp59
V0021201117
p60
aVAPR 03, 2013
p61
aVSAS vs. ORL
p62
aVW
p63
aI18
aI4
aI6
aF0.667
aI0
aI0
aF0.0
aI1
aI3
aF0.333
aI2
aI3
aI5
aI0
aI0
aI0
aI2
aI1
aI9
aI8
aa(lp64
V0021201172
p65
aVAPR 10, 2013
p66
aVSAS @ DEN
p67
aVL
p68
aI6
aI1
aI2
aF0.5
aI0
aI0
aF0.0
aI0
aI0
aF0.0
aI1
aI2
aI3
aI0
aI0
aI1
aI0
aI1
aI2
aI3
aa(lp69
V0021201186
p70
aVAPR 12, 2013
p71
aVSAS vs. SAC
p72
aVW
p73
aI0
aI0
aI0
aF0.0
aI0
aI0
aF0.0
aI0
aI0
aF0.0
aI0
aI0
aI0
aI0
aI0
aI0
aI0
aI0
aI0
aI-1
aa(lp74
V0021201212
p75
aVAPR 15, 2013
p76
aVSAS @ GSW
p77
aVL
p78
aI30
aI2
aI7
aF0.286
aI0
aI1
aF0.0
aI0
aI1
aF0.0
aI3
aI3
aI6
aI3
aI0
aI0
aI0
aI3
aI4
aI-7
aa(lp79
V0021201225
p80
aVAPR 17, 2013
p81
aVSAS vs. MIN
p82
aVL
p83
aI13
aI1
aI4
aF0.25
aI0
aI0
aF0.0
aI2
aI2
aF1.0
aI1
aI2
aI3
aI0
aI0
aI0
aI2
aI5
aI4
aI2
aasS'name'
p84
VAron Baynes
p85
sS'experience'
p86
I0
s.