(dp0
S'age'
p1
I32
sS'stats'
p2
(lp3
(lp4
V0021201220
p5
aVAPR 17, 2013
p6
aVMIA vs. ORL
p7
aVW
p8
aI31
aI7
aI10
aF0.7
aI6
aI9
aF0.667
aI1
aI1
aF1.0
aI0
aI2
aI2
aI6
aI1
aI0
aI0
aI4
aI21
aI0
aa(lp9
V0021201204
p10
aVAPR 15, 2013
p11
aVMIA @ CLE
p12
aVW
p13
aI26
aI4
aI7
aF0.571
aI3
aI5
aF0.6
aI0
aI0
aF0.0
aI1
aI7
aI8
aI3
aI0
aI0
aI2
aI1
aI11
aI2
aa(lp14
V0021201194
p15
aVAPR 14, 2013
p16
aVMIA vs. CHI
p17
aVW
p18
aI29
aI4
aI6
aF0.667
aI3
aI4
aF0.75
aI0
aI0
aF0.0
aI0
aI6
aI6
aI4
aI2
aI0
aI1
aI4
aI11
aI19
aa(lp19
V0021201180
p20
aVAPR 12, 2013
p21
aVMIA vs. BOS
p22
aVW
p23
aI24
aI0
aI6
aF0.0
aI0
aI6
aF0.0
aI0
aI0
aF0.0
aI0
aI1
aI1
aI4
aI1
aI0
aI0
aI0
aI0
aI-6
aa(lp24
V0021201165
p25
aVAPR 10, 2013
p26
aVMIA @ WAS
p27
aVW
p28
aI24
aI5
aI7
aF0.714
aI4
aI6
aF0.667
aI0
aI0
aF0.0
aI0
aI8
aI8
aI1
aI0
aI0
aI6
aI1
aI14
aI1
aa(lp29
V0021201157
p30
aVAPR 09, 2013
p31
aVMIA vs. MIL
p32
aVW
p33
aI21
aI2
aI7
aF0.286
aI1
aI5
aF0.2
aI0
aI0
aF0.0
aI1
aI3
aI4
aI4
aI0
aI0
aI1
aI0
aI5
aI14
aa(lp34
V0021201140
p35
aVAPR 06, 2013
p36
aVMIA vs. PHI
p37
aVW
p38
aI23
aI1
aI3
aF0.333
aI1
aI2
aF0.5
aI0
aI0
aF0.0
aI1
aI3
aI4
aI3
aI1
aI0
aI2
aI2
aI3
aI8
aa(lp39
V0021201126
p40
aVAPR 05, 2013
p41
aVMIA @ CHA
p42
aVW
p43
aI30
aI9
aI15
aF0.6
aI7
aI11
aF0.636
aI1
aI2
aF0.5
aI2
aI3
aI5
aI4
aI0
aI0
aI2
aI1
aI26
aI6
aa(lp44
V0021201109
p45
aVAPR 02, 2013
p46
aVMIA vs. NYK
p47
aVL
p48
aI37
aI7
aI12
aF0.583
aI4
aI8
aF0.5
aI0
aI0
aF0.0
aI2
aI6
aI8
aI4
aI1
aI2
aI3
aI0
aI18
aI-6
aa(lp49
V0021201098
p50
aVMAR 31, 2013
p51
aVMIA @ SAS
p52
aVW
p53
aI24
aI4
aI8
aF0.5
aI4
aI6
aF0.667
aI0
aI0
aF0.0
aI0
aI3
aI3
aI5
aI0
aI0
aI0
aI2
aI12
aI7
aa(lp54
V0021201080
p55
aVMAR 29, 2013
p56
aVMIA @ NOH
p57
aVW
p58
aI22
aI2
aI5
aF0.4
aI1
aI4
aF0.25
aI1
aI2
aF0.5
aI0
aI6
aI6
aI2
aI1
aI0
aI0
aI2
aI6
aI3
aa(lp59
V0021201049
p60
aVMAR 25, 2013
p61
aVMIA @ ORL
p62
aVW
p63
aI20
aI3
aI6
aF0.5
aI0
aI2
aF0.0
aI1
aI2
aF0.5
aI0
aI5
aI5
aI1
aI0
aI0
aI2
aI2
aI7
aI-4
aa(lp64
V0021201041
p65
aVMAR 24, 2013
p66
aVMIA vs. CHA
p67
aVW
p68
aI22
aI2
aI7
aF0.286
aI2
aI6
aF0.333
aI0
aI0
aF0.0
aI0
aI3
aI3
aI4
aI1
aI0
aI0
aI2
aI6
aI-6
aa(lp69
V0021201026
p70
aVMAR 22, 2013
p71
aVMIA vs. DET
p72
aVW
p73
aI1
aI0
aI0
aF0.0
aI0
aI0
aF0.0
aI0
aI0
aF0.0
aI0
aI1
aI1
aI1
aI0
aI0
aI0
aI0
aI0
aI3
aa(lp74
V0021200985
p75
aVMAR 17, 2013
p76
aVMIA @ TOR
p77
aVW
p78
aI4
aI0
aI0
aF0.0
aI0
aI0
aF0.0
aI0
aI0
aF0.0
aI0
aI0
aI0
aI1
aI0
aI0
aI1
aI2
aI0
aI-7
aa(lp79
V0021200975
p80
aVMAR 15, 2013
p81
aVMIA @ MIL
p82
aVW
p83
aI6
aI0
aI0
aF0.0
aI0
aI0
aF0.0
aI0
aI0
aF0.0
aI0
aI1
aI1
aI1
aI0
aI0
aI0
aI0
aI0
aI5
aa(lp84
V0021200952
p85
aVMAR 12, 2013
p86
aVMIA vs. ATL
p87
aVW
p88
aI6
aI0
aI2
aF0.0
aI0
aI1
aF0.0
aI0
aI0
aF0.0
aI0
aI1
aI1
aI1
aI1
aI0
aI0
aI0
aI0
aI-5
aa(lp89
V0021200938
p90
aVMAR 10, 2013
p91
aVMIA vs. IND
p92
aVW
p93
aI2
aI0
aI0
aF0.0
aI0
aI0
aF0.0
aI0
aI0
aF0.0
aI0
aI0
aI0
aI0
aI0
aI0
aI0
aI2
aI0
aI-7
aa(lp94
V0021200903
p95
aVMAR 06, 2013
p96
aVMIA vs. ORL
p97
aVW
p98
aI4
aI0
aI2
aF0.0
aI0
aI2
aF0.0
aI0
aI0
aF0.0
aI0
aI0
aI0
aI0
aI0
aI1
aI1
aI0
aI0
aI-2
aa(lp99
V0021200892
p100
aVMAR 04, 2013
p101
aVMIA @ MIN
p102
aVW
p103
aI2
aI0
aI0
aF0.0
aI0
aI0
aF0.0
aI0
aI0
aF0.0
aI0
aI0
aI0
aI0
aI0
aI0
aI0
aI0
aI0
aI0
aa(lp104
V0021200741
p105
aVFEB 08, 2013
p106
aVMIA vs. LAC
p107
aVW
p108
aI23
aI0
aI4
aF0.0
aI0
aI3
aF0.0
aI0
aI0
aF0.0
aI1
aI3
aI4
aI0
aI0
aI0
aI0
aI0
aI0
aI3
aa(lp109
V0021200675
p110
aVJAN 30, 2013
p111
aVMIA @ BKN
p112
aVW
p113
aI4
aI0
aI1
aF0.0
aI0
aI1
aF0.0
aI0
aI0
aF0.0
aI0
aI1
aI1
aI1
aI0
aI0
aI0
aI0
aI0
aI-1
aa(lp114
V0021200634
p115
aVJAN 25, 2013
p116
aVMIA vs. DET
p117
aVW
p118
aI12
aI1
aI1
aF1.0
aI0
aI0
aF0.0
aI0
aI0
aF0.0
aI0
aI3
aI3
aI1
aI0
aI0
aI1
aI1
aI2
aI10
aa(lp119
V0021200619
p120
aVJAN 23, 2013
p121
aVMIA vs. TOR
p122
aVW
p123
aI5
aI0
aI4
aF0.0
aI0
aI1
aF0.0
aI0
aI0
aF0.0
aI0
aI2
aI2
aI1
aI0
aI0
aI0
aI0
aI0
aI-1
aa(lp124
V0021200579
p125
aVJAN 16, 2013
p126
aVMIA @ GSW
p127
aVW
p128
aI12
aI0
aI3
aF0.0
aI0
aI3
aF0.0
aI0
aI0
aF0.0
aI1
aI2
aI3
aI0
aI0
aI0
aI0
aI2
aI0
aI-13
aa(lp129
V0021200561
p130
aVJAN 14, 2013
p131
aVMIA @ UTA
p132
aVL
p133
aI5
aI0
aI2
aF0.0
aI0
aI2
aF0.0
aI0
aI0
aF0.0
aI0
aI0
aI0
aI0
aI0
aI0
aI0
aI0
aI0
aI-11
aa(lp134
V0021200548
p135
aVJAN 12, 2013
p136
aVMIA @ SAC
p137
aVW
p138
aI21
aI4
aI8
aF0.5
aI4
aI8
aF0.5
aI0
aI0
aF0.0
aI0
aI1
aI1
aI3
aI0
aI0
aI0
aI0
aI12
aI11
aa(lp139
V0021200529
p140
aVJAN 10, 2013
p141
aVMIA @ POR
p142
aVL
p143
aI24
aI2
aI6
aF0.333
aI1
aI4
aF0.25
aI0
aI0
aF0.0
aI2
aI6
aI8
aI4
aI1
aI0
aI3
aI1
aI5
aI0
aa(lp144
V0021200512
p145
aVJAN 08, 2013
p146
aVMIA @ IND
p147
aVL
p148
aI14
aI1
aI3
aF0.333
aI1
aI1
aF1.0
aI0
aI0
aF0.0
aI0
aI2
aI2
aI1
aI0
aI0
aI0
aI1
aI3
aI-4
aa(lp149
V0021200500
p150
aVJAN 06, 2013
p151
aVMIA vs. WAS
p152
aVW
p153
aI22
aI4
aI5
aF0.8
aI2
aI3
aF0.667
aI3
aI3
aF1.0
aI0
aI4
aI4
aI1
aI0
aI1
aI0
aI1
aI13
aI16
aa(lp154
V0021200481
p155
aVJAN 04, 2013
p156
aVMIA vs. CHI
p157
aVL
p158
aI10
aI0
aI1
aF0.0
aI0
aI1
aF0.0
aI0
aI0
aF0.0
aI0
aI0
aI0
aI0
aI0
aI0
aI0
aI0
aI0
aI6
aa(lp159
V0021200469
p160
aVJAN 02, 2013
p161
aVMIA vs. DAL
p162
aVW
p163
aI7
aI1
aI3
aF0.333
aI1
aI3
aF0.333
aI0
aI0
aF0.0
aI0
aI2
aI2
aI2
aI0
aI0
aI0
aI2
aI3
aI2
aa(lp164
V0021200454
p165
aVDEC 31, 2012
p166
aVMIA @ ORL
p167
aVW
p168
aI17
aI1
aI4
aF0.25
aI1
aI3
aF0.333
aI0
aI0
aF0.0
aI1
aI2
aI3
aI4
aI1
aI0
aI0
aI3
aI3
aI11
aa(lp169
V0021200445
p170
aVDEC 29, 2012
p171
aVMIA @ MIL
p172
aVL
p173
aI7
aI1
aI1
aF1.0
aI1
aI1
aF1.0
aI0
aI0
aF0.0
aI0
aI2
aI2
aI0
aI0
aI0
aI0
aI1
aI3
aI-10
aa(lp174
V0021200428
p175
aVDEC 28, 2012
p176
aVMIA @ DET
p177
aVL
p178
aI23
aI2
aI6
aF0.333
aI1
aI5
aF0.2
aI0
aI0
aF0.0
aI1
aI3
aI4
aI1
aI0
aI0
aI1
aI2
aI5
aI-8
aa(lp179
V0021200411
p180
aVDEC 26, 2012
p181
aVMIA @ CHA
p182
aVW
p183
aI11
aI0
aI2
aF0.0
aI0
aI1
aF0.0
aI0
aI0
aF0.0
aI0
aI1
aI1
aI1
aI0
aI0
aI1
aI4
aI0
aI-6
aa(lp184
V0021200407
p185
aVDEC 25, 2012
p186
aVMIA vs. OKC
p187
aVW
p188
aI7
aI2
aI4
aF0.5
aI2
aI3
aF0.667
aI0
aI0
aF0.0
aI0
aI2
aI2
aI2
aI0
aI0
aI0
aI0
aI6
aI-3
aa(lp189
V0021200392
p190
aVDEC 22, 2012
p191
aVMIA vs. UTA
p192
aVW
p193
aI12
aI2
aI3
aF0.667
aI2
aI3
aF0.667
aI0
aI0
aF0.0
aI0
aI0
aI0
aI1
aI2
aI0
aI0
aI2
aI6
aI-8
aa(lp194
V0021200378
p195
aVDEC 20, 2012
p196
aVMIA @ DAL
p197
aVW
p198
aI18
aI2
aI4
aF0.5
aI2
aI4
aF0.5
aI0
aI0
aF0.0
aI0
aI2
aI2
aI1
aI0
aI0
aI1
aI0
aI6
aI5
aa(lp199
V0021200359
p200
aVDEC 18, 2012
p201
aVMIA vs. MIN
p202
aVW
p203
aI7
aI1
aI2
aF0.5
aI1
aI2
aF0.5
aI0
aI0
aF0.0
aI0
aI2
aI2
aI1
aI0
aI0
aI0
aI0
aI3
aI-1
aa(lp204
V0021200339
p205
aVDEC 15, 2012
p206
aVMIA vs. WAS
p207
aVW
p208
aI10
aI1
aI3
aF0.333
aI1
aI3
aF0.333
aI0
aI0
aF0.0
aI0
aI1
aI1
aI1
aI0
aI0
aI0
aI0
aI3
aI-4
aa(lp209
V0021200314
p210
aVDEC 12, 2012
p211
aVMIA vs. GSW
p212
aVL
p213
aI6
aI0
aI1
aF0.0
aI0
aI1
aF0.0
aI0
aI0
aF0.0
aI0
aI3
aI3
aI1
aI0
aI0
aI0
aI0
aI0
aI1
aa(lp214
V0021200300
p215
aVDEC 10, 2012
p216
aVMIA vs. ATL
p217
aVW
p218
aI8
aI1
aI3
aF0.333
aI1
aI3
aF0.333
aI0
aI0
aF0.0
aI0
aI1
aI1
aI1
aI0
aI0
aI0
aI0
aI3
aI-3
aa(lp219
V0021200286
p220
aVDEC 08, 2012
p221
aVMIA vs. NOH
p222
aVW
p223
aI17
aI2
aI3
aF0.667
aI0
aI1
aF0.0
aI0
aI0
aF0.0
aI0
aI3
aI3
aI1
aI2
aI0
aI1
aI3
aI4
aI9
aa(lp224
V0021200268
p225
aVDEC 06, 2012
p226
aVMIA vs. NYK
p227
aVL
p228
aI26
aI2
aI5
aF0.4
aI2
aI3
aF0.667
aI0
aI0
aF0.0
aI0
aI3
aI3
aI1
aI1
aI0
aI0
aI1
aI6
aI-13
aa(lp229
V0021200252
p230
aVDEC 04, 2012
p231
aVMIA @ WAS
p232
aVL
p233
aI29
aI4
aI10
aF0.4
aI3
aI8
aF0.375
aI0
aI0
aF0.0
aI0
aI4
aI4
aI1
aI0
aI0
aI1
aI4
aI11
aI1
aa(lp234
V0021200233
p235
aVDEC 01, 2012
p236
aVMIA vs. BKN
p237
aVW
p238
aI20
aI1
aI3
aF0.333
aI1
aI3
aF0.333
aI0
aI0
aF0.0
aI1
aI2
aI3
aI1
aI2
aI0
aI0
aI0
aI3
aI3
aa(lp239
V0021200220
p240
aVNOV 29, 2012
p241
aVMIA vs. SAS
p242
aVW
p243
aI17
aI1
aI2
aF0.5
aI0
aI0
aF0.0
aI0
aI0
aF0.0
aI0
aI1
aI1
aI1
aI2
aI0
aI0
aI1
aI2
aI7
aa(lp244
V0021200186
p245
aVNOV 24, 2012
p246
aVMIA vs. CLE
p247
aVW
p248
aI15
aI2
aI4
aF0.5
aI1
aI3
aF0.333
aI0
aI0
aF0.0
aI0
aI1
aI1
aI1
aI0
aI0
aI2
aI3
aI5
aI-7
aa(lp249
V0021200163
p250
aVNOV 21, 2012
p251
aVMIA vs. MIL
p252
aVW
p253
aI13
aI1
aI2
aF0.5
aI1
aI2
aF0.5
aI0
aI0
aF0.0
aI0
aI1
aI1
aI2
aI0
aI0
aI0
aI0
aI3
aI3
aa(lp254
V0021200138
p255
aVNOV 17, 2012
p256
aVMIA @ PHX
p257
aVW
p258
aI24
aI4
aI8
aF0.5
aI1
aI3
aF0.333
aI0
aI0
aF0.0
aI1
aI4
aI5
aI5
aI1
aI0
aI1
aI1
aI9
aI23
aa(lp259
V0021200121
p260
aVNOV 15, 2012
p261
aVMIA @ DEN
p262
aVW
p263
aI24
aI4
aI9
aF0.444
aI4
aI8
aF0.5
aI0
aI0
aF0.0
aI1
aI4
aI5
aI1
aI0
aI0
aI0
aI1
aI12
aI5
aa(lp264
V0021200092
p265
aVNOV 11, 2012
p266
aVMIA @ MEM
p267
aVL
p268
aI5
aI0
aI0
aF0.0
aI0
aI0
aF0.0
aI0
aI0
aF0.0
aI0
aI2
aI2
aI1
aI0
aI0
aI0
aI0
aI0
aI4
aa(lp269
V0021200072
p270
aVNOV 09, 2012
p271
aVMIA @ ATL
p272
aVW
p273
aI31
aI1
aI4
aF0.25
aI1
aI4
aF0.25
aI1
aI1
aF1.0
aI2
aI4
aI6
aI2
aI0
aI0
aI1
aI2
aI4
aI4
aa(lp274
V0021200056
p275
aVNOV 07, 2012
p276
aVMIA vs. BKN
p277
aVW
p278
aI4
aI1
aI1
aF1.0
aI1
aI1
aF1.0
aI0
aI0
aF0.0
aI0
aI1
aI1
aI1
aI0
aI0
aI0
aI0
aI3
aI4
aa(lp279
V0021200044
p280
aVNOV 05, 2012
p281
aVMIA vs. PHX
p282
aVW
p283
aI4
aI0
aI0
aF0.0
aI0
aI0
aF0.0
aI0
aI0
aF0.0
aI0
aI0
aI0
aI1
aI0
aI0
aI0
aI0
aI0
aI-6
aa(lp284
V0021200030
p285
aVNOV 03, 2012
p286
aVMIA vs. DEN
p287
aVW
p288
aI16
aI1
aI3
aF0.333
aI1
aI3
aF0.333
aI0
aI0
aF0.0
aI0
aI3
aI3
aI1
aI0
aI0
aI0
aI1
aI3
aI-6
aa(lp289
V0021200020
p290
aVNOV 02, 2012
p291
aVMIA @ NYK
p292
aVL
p293
aI3
aI0
aI0
aF0.0
aI0
aI0
aF0.0
aI0
aI0
aF0.0
aI0
aI2
aI2
aI1
aI0
aI0
aI1
aI0
aI0
aI-1
aa(lp294
V0021200002
p295
aVOCT 30, 2012
p296
aVMIA vs. BOS
p297
aVW
p298
aI7
aI0
aI0
aF0.0
aI0
aI0
aF0.0
aI0
aI0
aF0.0
aI0
aI0
aI0
aI1
aI0
aI0
aI0
aI1
aI0
aI8
aasS'name'
p299
VMike Miller
p300
sS'experience'
p301
I12
s.