(dp0
S'stats'
p1
(lp2
(lp3
V0021200011
p4
aVOCT 31, 2012
p5
aVLAC vs. MEM
p6
aVW
p7
aI30
aI10
aI14
aF0.714
aI3
aI7
aF0.429
aI6
aI8
aF0.75
aI1
aI1
aI2
aI1
aI1
aI0
aI1
aI1
aI29
aI5
aa(lp8
V0021200025
p9
aVNOV 02, 2012
p10
aVLAC @ LAL
p11
aVW
p12
aI31
aI5
aI12
aF0.417
aI2
aI4
aF0.5
aI9
aI9
aF1.0
aI0
aI3
aI3
aI1
aI3
aI0
aI0
aI1
aI21
aI3
aa(lp13
V0021200036
p14
aVNOV 03, 2012
p15
aVLAC vs. GSW
p16
aVL
p17
aI32
aI8
aI17
aF0.471
aI4
aI8
aF0.5
aI7
aI9
aF0.778
aI0
aI3
aI3
aI1
aI0
aI0
aI1
aI1
aI27
aI14
aa(lp18
V0021200049
p19
aVNOV 05, 2012
p20
aVLAC vs. CLE
p21
aVL
p22
aI25
aI7
aI13
aF0.538
aI4
aI8
aF0.5
aI1
aI1
aF1.0
aI0
aI0
aI0
aI1
aI0
aI0
aI4
aI2
aI19
aI-4
aa(lp23
V0021200064
p24
aVNOV 07, 2012
p25
aVLAC vs. SAS
p26
aVW
p27
aI27
aI3
aI7
aF0.429
aI2
aI5
aF0.4
aI2
aI2
aF1.0
aI0
aI0
aI0
aI1
aI1
aI0
aI3
aI1
aI10
aI12
aa(lp28
V0021200067
p29
aVNOV 08, 2012
p30
aVLAC @ POR
p31
aVW
p32
aI28
aI9
aI17
aF0.529
aI1
aI6
aF0.167
aI6
aI6
aF1.0
aI0
aI3
aI3
aI1
aI1
aI0
aI1
aI1
aI25
aI19
aa(lp33
V0021200091
p34
aVNOV 11, 2012
p35
aVLAC vs. ATL
p36
aVW
p37
aI29
aI5
aI14
aF0.357
aI1
aI3
aF0.333
aI0
aI0
aF0.0
aI0
aI2
aI2
aI2
aI3
aI0
aI1
aI0
aI11
aI14
aa(lp38
V0021200117
p39
aVNOV 14, 2012
p40
aVLAC vs. MIA
p41
aVW
p42
aI24
aI7
aI11
aF0.636
aI2
aI4
aF0.5
aI6
aI6
aF1.0
aI0
aI2
aI2
aI1
aI3
aI0
aI6
aI2
aI22
aI-1
aa(lp43
V0021200132
p44
aVNOV 17, 2012
p45
aVLAC vs. CHI
p46
aVW
p47
aI27
aI6
aI10
aF0.6
aI3
aI5
aF0.6
aI7
aI7
aF1.0
aI0
aI2
aI2
aI1
aI0
aI0
aI1
aI1
aI22
aI15
aa(lp48
V0021200152
p49
aVNOV 19, 2012
p50
aVLAC @ SAS
p51
aVW
p52
aI29
aI4
aI14
aF0.286
aI1
aI3
aF0.333
aI2
aI2
aF1.0
aI0
aI3
aI3
aI0
aI0
aI1
aI4
aI2
aI11
aI13
aa(lp53
V0021200164
p54
aVNOV 21, 2012
p55
aVLAC @ OKC
p56
aVL
p57
aI30
aI7
aI18
aF0.389
aI2
aI4
aF0.5
aI4
aI4
aF1.0
aI1
aI1
aI2
aI1
aI0
aI0
aI0
aI2
aI20
aI-2
aa(lp58
V0021200174
p59
aVNOV 23, 2012
p60
aVLAC @ BKN
p61
aVL
p62
aI33
aI5
aI13
aF0.385
aI1
aI6
aF0.167
aI2
aI2
aF1.0
aI0
aI1
aI1
aI1
aI3
aI0
aI3
aI1
aI13
aI-7
aa(lp63
V0021200185
p64
aVNOV 24, 2012
p65
aVLAC @ ATL
p66
aVL
p67
aI32
aI3
aI8
aF0.375
aI1
aI2
aF0.5
aI5
aI5
aF1.0
aI0
aI3
aI3
aI0
aI0
aI0
aI2
aI0
aI12
aI-8
aa(lp68
V0021200203
p69
aVNOV 26, 2012
p70
aVLAC vs. NOH
p71
aVL
p72
aI28
aI3
aI9
aF0.333
aI2
aI6
aF0.333
aI2
aI2
aF1.0
aI0
aI2
aI2
aI4
aI1
aI0
aI1
aI1
aI10
aI-9
aa(lp73
V0021200219
p74
aVNOV 28, 2012
p75
aVLAC vs. MIN
p76
aVW
p77
aI27
aI2
aI10
aF0.2
aI1
aI5
aF0.2
aI6
aI6
aF1.0
aI0
aI1
aI1
aI3
aI1
aI0
aI1
aI2
aI11
aI2
aa(lp78
V0021200241
p79
aVDEC 01, 2012
p80
aVLAC vs. SAC
p81
aVW
p82
aI30
aI7
aI14
aF0.5
aI3
aI5
aF0.6
aI0
aI0
aF0.0
aI0
aI2
aI2
aI6
aI1
aI0
aI2
aI1
aI17
aI17
aa(lp83
V0021200249
p84
aVDEC 03, 2012
p85
aVLAC @ UTA
p86
aVW
p87
aI30
aI7
aI19
aF0.368
aI2
aI7
aF0.286
aI4
aI4
aF1.0
aI0
aI0
aI0
aI4
aI1
aI0
aI0
aI0
aI20
aI8
aa(lp88
V0021200267
p89
aVDEC 05, 2012
p90
aVLAC vs. DAL
p91
aVW
p92
aI31
aI7
aI12
aF0.583
aI3
aI6
aF0.5
aI3
aI3
aF1.0
aI0
aI1
aI1
aI4
aI1
aI0
aI2
aI3
aI20
aI16
aa(lp93
V0021200282
p94
aVDEC 08, 2012
p95
aVLAC vs. PHX
p96
aVW
p97
aI33
aI8
aI19
aF0.421
aI1
aI7
aF0.143
aI4
aI4
aF1.0
aI0
aI0
aI0
aI2
aI1
aI0
aI2
aI0
aI21
aI18
aa(lp98
V0021200292
p99
aVDEC 09, 2012
p100
aVLAC vs. TOR
p101
aVW
p102
aI32
aI4
aI14
aF0.286
aI2
aI5
aF0.4
aI6
aI8
aF0.75
aI1
aI1
aI2
aI0
aI1
aI0
aI3
aI0
aI16
aI9
aa(lp103
V0021200308
p104
aVDEC 11, 2012
p105
aVLAC @ CHI
p106
aVW
p107
aI31
aI4
aI7
aF0.571
aI0
aI0
aF0.0
aI2
aI2
aF1.0
aI0
aI3
aI3
aI5
aI1
aI0
aI3
aI3
aI10
aI13
aa(lp108
V0021200313
p109
aVDEC 12, 2012
p110
aVLAC @ CHA
p111
aVW
p112
aI33
aI2
aI12
aF0.167
aI1
aI4
aF0.25
aI4
aI4
aF1.0
aI0
aI3
aI3
aI8
aI1
aI2
aI1
aI0
aI9
aI7
aa(lp113
V0021200343
p114
aVDEC 15, 2012
p115
aVLAC @ MIL
p116
aVW
p117
aI27
aI2
aI6
aF0.333
aI1
aI2
aF0.5
aI1
aI1
aF1.0
aI0
aI2
aI2
aI5
aI1
aI0
aI3
aI2
aI6
aI14
aa(lp118
V0021200352
p119
aVDEC 17, 2012
p120
aVLAC @ DET
p121
aVW
p122
aI31
aI7
aI17
aF0.412
aI1
aI5
aF0.2
aI0
aI0
aF0.0
aI1
aI2
aI3
aI2
aI2
aI0
aI3
aI0
aI15
aI14
aa(lp123
V0021200376
p124
aVDEC 19, 2012
p125
aVLAC vs. NOH
p126
aVW
p127
aI32
aI6
aI14
aF0.429
aI1
aI4
aF0.25
aI4
aI4
aF1.0
aI1
aI0
aI1
aI5
aI3
aI0
aI2
aI2
aI17
aI13
aa(lp128
V0021200388
p129
aVDEC 21, 2012
p130
aVLAC vs. SAC
p131
aVW
p132
aI22
aI2
aI12
aF0.167
aI0
aI1
aF0.0
aI1
aI2
aF0.5
aI1
aI2
aI3
aI3
aI1
aI0
aI1
aI1
aI5
aI7
aa(lp133
V0021200403
p134
aVDEC 23, 2012
p135
aVLAC @ PHX
p136
aVW
p137
aI25
aI8
aI12
aF0.667
aI3
aI6
aF0.5
aI3
aI5
aF0.6
aI0
aI1
aI1
aI3
aI0
aI1
aI1
aI0
aI22
aI23
aa(lp138
V0021200409
p139
aVDEC 25, 2012
p140
aVLAC vs. DEN
p141
aVW
p142
aI31
aI9
aI21
aF0.429
aI3
aI6
aF0.5
aI1
aI3
aF0.333
aI1
aI2
aI3
aI2
aI1
aI0
aI3
aI2
aI22
aI20
aa(lp143
V0021200424
p144
aVDEC 27, 2012
p145
aVLAC vs. BOS
p146
aVW
p147
aI24
aI7
aI15
aF0.467
aI1
aI4
aF0.25
aI2
aI2
aF1.0
aI1
aI0
aI1
aI4
aI0
aI0
aI0
aI0
aI17
aI3
aa(lp148
V0021200433
p149
aVDEC 28, 2012
p150
aVLAC @ UTA
p151
aVW
p152
aI26
aI3
aI11
aF0.273
aI0
aI4
aF0.0
aI6
aI7
aF0.857
aI0
aI1
aI1
aI5
aI1
aI0
aI2
aI1
aI12
aI-6
aa(lp153
V0021200451
p154
aVDEC 30, 2012
p155
aVLAC vs. UTA
p156
aVW
p157
aI30
aI7
aI16
aF0.438
aI1
aI5
aF0.2
aI4
aI4
aF1.0
aI2
aI2
aI4
aI3
aI2
aI0
aI2
aI2
aI19
aI8
aa(lp158
V0021200462
p159
aVJAN 01, 2013
p160
aVLAC @ DEN
p161
aVL
p162
aI28
aI2
aI11
aF0.182
aI0
aI5
aF0.0
aI5
aI6
aF0.833
aI1
aI2
aI3
aI0
aI0
aI0
aI3
aI0
aI9
aI-10
aa(lp163
V0021200475
p164
aVJAN 02, 2013
p165
aVLAC @ GSW
p166
aVL
p167
aI35
aI8
aI17
aF0.471
aI4
aI10
aF0.4
aI4
aI4
aF1.0
aI1
aI0
aI1
aI5
aI2
aI0
aI3
aI0
aI24
aI-1
aa(lp168
V0021200525
p169
aVJAN 09, 2013
p170
aVLAC vs. DAL
p171
aVW
p172
aI26
aI3
aI7
aF0.429
aI2
aI4
aF0.5
aI3
aI4
aF0.75
aI0
aI0
aI0
aI1
aI1
aI1
aI1
aI1
aI11
aI8
aa(lp173
V0021200541
p174
aVJAN 12, 2013
p175
aVLAC vs. ORL
p176
aVL
p177
aI29
aI4
aI12
aF0.333
aI2
aI4
aF0.5
aI3
aI3
aF1.0
aI0
aI1
aI1
aI1
aI0
aI0
aI2
aI1
aI13
aI-8
aa(lp178
V0021200559
p179
aVJAN 14, 2013
p180
aVLAC @ MEM
p181
aVW
p182
aI27
aI5
aI14
aF0.357
aI0
aI2
aF0.0
aI6
aI6
aF1.0
aI0
aI1
aI1
aI2
aI1
aI1
aI1
aI0
aI16
aI22
aa(lp183
V0021200567
p184
aVJAN 15, 2013
p185
aVLAC @ HOU
p186
aVW
p187
aI29
aI11
aI20
aF0.55
aI5
aI7
aF0.714
aI3
aI3
aF1.0
aI0
aI0
aI0
aI1
aI0
aI0
aI2
aI0
aI30
aI-10
aa(lp188
V0021200581
p189
aVJAN 17, 2013
p190
aVLAC @ MIN
p191
aVW
p192
aI36
aI7
aI17
aF0.412
aI3
aI5
aF0.6
aI5
aI8
aF0.625
aI0
aI2
aI2
aI3
aI2
aI0
aI3
aI1
aI22
aI13
aa(lp193
V0021200600
p194
aVJAN 19, 2013
p195
aVLAC vs. WAS
p196
aVW
p197
aI25
aI3
aI13
aF0.231
aI0
aI4
aF0.0
aI1
aI2
aF0.5
aI0
aI2
aI2
aI2
aI1
aI0
aI2
aI2
aI7
aI9
aa(lp198
V0021200610
p199
aVJAN 21, 2013
p200
aVLAC @ GSW
p201
aVL
p202
aI33
aI9
aI18
aF0.5
aI6
aI11
aF0.545
aI0
aI0
aF0.0
aI0
aI0
aI0
aI1
aI0
aI0
aI1
aI0
aI24
aI-3
aa(lp203
V0021200617
p204
aVJAN 22, 2013
p205
aVLAC vs. OKC
p206
aVL
p207
aI28
aI6
aI18
aF0.333
aI1
aI6
aF0.167
aI1
aI2
aF0.5
aI0
aI1
aI1
aI3
aI2
aI0
aI2
aI0
aI14
aI-9
aa(lp208
V0021200631
p209
aVJAN 24, 2013
p210
aVLAC @ PHX
p211
aVL
p212
aI37
aI8
aI13
aF0.615
aI2
aI4
aF0.5
aI3
aI4
aF0.75
aI0
aI1
aI1
aI4
aI0
aI0
aI3
aI1
aI21
aI-2
aa(lp213
V0021200651
p214
aVJAN 26, 2013
p215
aVLAC @ POR
p216
aVL
p217
aI32
aI6
aI15
aF0.4
aI2
aI6
aF0.333
aI5
aI6
aF0.833
aI1
aI2
aI3
aI4
aI0
aI0
aI5
aI1
aI19
aI3
aa(lp218
V0021200658
p219
aVJAN 27, 2013
p220
aVLAC vs. POR
p221
aVW
p222
aI27
aI4
aI9
aF0.444
aI1
aI4
aF0.25
aI0
aI0
aF0.0
aI0
aI1
aI1
aI5
aI1
aI0
aI2
aI0
aI9
aI1
aa(lp223
V0021200677
p224
aVJAN 30, 2013
p225
aVLAC @ MIN
p226
aVW
p227
aI31
aI5
aI14
aF0.357
aI1
aI3
aF0.333
aI6
aI8
aF0.75
aI1
aI1
aI2
aI2
aI0
aI0
aI1
aI2
aI17
aI5
aa(lp228
V0021200684
p229
aVFEB 01, 2013
p230
aVLAC @ TOR
p231
aVL
p232
aI32
aI5
aI17
aF0.294
aI1
aI7
aF0.143
aI3
aI5
aF0.6
aI0
aI1
aI1
aI5
aI0
aI1
aI2
aI0
aI14
aI-20
aa(lp233
V0021200705
p234
aVFEB 03, 2013
p235
aVLAC @ BOS
p236
aVL
p237
aI32
aI8
aI15
aF0.533
aI4
aI7
aF0.571
aI3
aI3
aF1.0
aI0
aI1
aI1
aI6
aI2
aI0
aI6
aI2
aI23
aI-5
aa(lp238
V0021200709
p239
aVFEB 04, 2013
p240
aVLAC @ WAS
p241
aVL
p242
aI33
aI10
aI20
aF0.5
aI3
aI7
aF0.429
aI5
aI6
aF0.833
aI1
aI2
aI3
aI3
aI1
aI1
aI2
aI0
aI28
aI-3
aa(lp243
V0021200741
p244
aVFEB 08, 2013
p245
aVLAC @ MIA
p246
aVL
p247
aI24
aI6
aI15
aF0.4
aI1
aI5
aF0.2
aI0
aI0
aF0.0
aI0
aI0
aI0
aI3
aI2
aI0
aI3
aI0
aI13
aI-15
aa(lp248
V0021200752
p249
aVFEB 10, 2013
p250
aVLAC @ NYK
p251
aVW
p252
aI37
aI12
aI22
aF0.545
aI3
aI8
aF0.375
aI0
aI1
aF0.0
aI0
aI1
aI1
aI0
aI2
aI0
aI4
aI1
aI27
aI17
aa(lp253
V0021200761
p254
aVFEB 11, 2013
p255
aVLAC @ PHI
p256
aVW
p257
aI26
aI8
aI10
aF0.8
aI3
aI4
aF0.75
aI1
aI3
aF0.333
aI0
aI2
aI2
aI0
aI0
aI1
aI0
aI1
aI20
aI12
aa(lp258
V0021200786
p259
aVFEB 13, 2013
p260
aVLAC vs. HOU
p261
aVW
p262
aI28
aI5
aI11
aF0.455
aI2
aI6
aF0.333
aI1
aI1
aF1.0
aI1
aI2
aI3
aI1
aI1
aI0
aI4
aI0
aI13
aI2
aa(lp263
V0021200788
p264
aVFEB 14, 2013
p265
aVLAC @ LAL
p266
aVW
p267
aI28
aI3
aI11
aF0.273
aI1
aI4
aF0.25
aI1
aI1
aF1.0
aI2
aI1
aI3
aI2
aI1
aI0
aI2
aI2
aI8
aI-2
aa(lp268
V0021200810
p269
aVFEB 21, 2013
p270
aVLAC vs. SAS
p271
aVL
p272
aI33
aI6
aI12
aF0.5
aI1
aI3
aF0.333
aI2
aI2
aF1.0
aI1
aI0
aI1
aI6
aI3
aI0
aI0
aI2
aI15
aI-15
aa(lp273
V0021200829
p274
aVFEB 23, 2013
p275
aVLAC vs. UTA
p276
aVW
p277
aI30
aI5
aI9
aF0.556
aI2
aI4
aF0.5
aI0
aI1
aF0.0
aI0
aI0
aI0
aI2
aI2
aI0
aI1
aI3
aI12
aI-9
aa(lp278
V0021200861
p279
aVFEB 28, 2013
p280
aVLAC @ IND
p281
aVW
p282
aI27
aI9
aI16
aF0.563
aI1
aI2
aF0.5
aI4
aI4
aF1.0
aI0
aI1
aI1
aI0
aI0
aI0
aI2
aI2
aI23
aI9
aa(lp283
V0021200869
p284
aVMAR 01, 2013
p285
aVLAC @ CLE
p286
aVW
p287
aI27
aI8
aI14
aF0.571
aI3
aI5
aF0.6
aI5
aI5
aF1.0
aI0
aI3
aI3
aI1
aI2
aI0
aI2
aI0
aI24
aI26
aa(lp288
V0021200881
p289
aVMAR 03, 2013
p290
aVLAC vs. OKC
p291
aVL
p292
aI30
aI7
aI13
aF0.538
aI4
aI5
aF0.8
aI2
aI2
aF1.0
aI0
aI0
aI0
aI4
aI0
aI0
aI3
aI1
aI20
aI10
aa(lp293
V0021200911
p294
aVMAR 06, 2013
p295
aVLAC vs. MIL
p296
aVW
p297
aI26
aI11
aI16
aF0.688
aI3
aI6
aF0.5
aI0
aI0
aF0.0
aI1
aI3
aI4
aI2
aI3
aI1
aI1
aI0
aI25
aI21
aa(lp298
V0021200965
p299
aVMAR 13, 2013
p300
aVLAC vs. MEM
p301
aVL
p302
aI33
aI1
aI10
aF0.1
aI0
aI4
aF0.0
aI0
aI0
aF0.0
aI0
aI2
aI2
aI1
aI0
aI0
aI1
aI0
aI2
aI-2
aa(lp303
V0021200987
p304
aVMAR 17, 2013
p305
aVLAC vs. NYK
p306
aVW
p307
aI36
aI5
aI15
aF0.333
aI2
aI9
aF0.222
aI0
aI0
aF0.0
aI0
aI2
aI2
aI1
aI1
aI0
aI2
aI0
aI12
aI13
aa(lp308
V0021201007
p309
aVMAR 19, 2013
p310
aVLAC @ SAC
p311
aVL
p312
aI35
aI7
aI12
aF0.583
aI5
aI8
aF0.625
aI6
aI6
aF1.0
aI0
aI0
aI0
aI3
aI2
aI0
aI1
aI2
aI25
aI-16
aa(lp313
V0021201018
p314
aVMAR 20, 2013
p315
aVLAC vs. PHI
p316
aVW
p317
aI28
aI4
aI9
aF0.444
aI1
aI5
aF0.2
aI3
aI3
aF1.0
aI0
aI2
aI2
aI3
aI0
aI0
aI2
aI2
aI12
aI21
aa(lp318
V0021201038
p319
aVMAR 23, 2013
p320
aVLAC vs. BKN
p321
aVW
p322
aI24
aI6
aI12
aF0.5
aI1
aI6
aF0.167
aI0
aI0
aF0.0
aI0
aI0
aI0
aI1
aI2
aI0
aI1
aI1
aI13
aI-2
aa(lp323
V0021201056
p324
aVMAR 26, 2013
p325
aVLAC @ DAL
p326
aVL
p327
aI34
aI4
aI12
aF0.333
aI0
aI4
aF0.0
aI2
aI2
aF1.0
aI0
aI1
aI1
aI5
aI0
aI1
aI1
aI1
aI10
aI-10
aa(lp328
V0021201063
p329
aVMAR 27, 2013
p330
aVLAC @ NOH
p331
aVW
p332
aI24
aI5
aI12
aF0.417
aI3
aI6
aF0.5
aI0
aI0
aF0.0
aI0
aI1
aI1
aI2
aI2
aI0
aI2
aI1
aI13
aI8
aa(lp333
V0021201082
p334
aVMAR 29, 2013
p335
aVLAC @ SAS
p336
aVL
p337
aI30
aI7
aI12
aF0.583
aI2
aI5
aF0.4
aI0
aI0
aF0.0
aI1
aI1
aI2
aI3
aI0
aI0
aI0
aI0
aI16
aI9
aa(lp338
V0021201088
p339
aVMAR 30, 2013
p340
aVLAC @ HOU
p341
aVL
p342
aI28
aI6
aI14
aF0.429
aI1
aI6
aF0.167
aI2
aI2
aF1.0
aI0
aI3
aI3
aI0
aI1
aI0
aI0
aI1
aI15
aI-8
aa(lp343
V0021201107
p344
aVAPR 01, 2013
p345
aVLAC vs. IND
p346
aVL
p347
aI28
aI8
aI19
aF0.421
aI2
aI6
aF0.333
aI7
aI7
aF1.0
aI0
aI0
aI0
aI3
aI1
aI0
aI2
aI1
aI25
aI21
aa(lp348
V0021201121
p349
aVAPR 03, 2013
p350
aVLAC vs. PHX
p351
aVW
p352
aI27
aI5
aI10
aF0.5
aI1
aI4
aF0.25
aI2
aI2
aF1.0
aI0
aI1
aI1
aI4
aI0
aI1
aI0
aI0
aI13
aI-1
aa(lp353
V0021201146
p354
aVAPR 07, 2013
p355
aVLAC vs. LAL
p356
aVW
p357
aI31
aI6
aI13
aF0.462
aI2
aI5
aF0.4
aI6
aI6
aF1.0
aI0
aI3
aI3
aI1
aI0
aI0
aI2
aI1
aI20
aI11
aa(lp358
V0021201173
p359
aVAPR 10, 2013
p360
aVLAC vs. MIN
p361
aVW
p362
aI29
aI4
aI12
aF0.333
aI3
aI8
aF0.375
aI0
aI0
aF0.0
aI0
aI1
aI1
aI1
aI2
aI0
aI3
aI1
aI11
aI-2
aa(lp363
V0021201183
p364
aVAPR 12, 2013
p365
aVLAC @ NOH
p366
aVW
p367
aI31
aI5
aI16
aF0.313
aI3
aI8
aF0.375
aI2
aI4
aF0.5
aI0
aI4
aI4
aI5
aI1
aI0
aI1
aI1
aI15
aI5
aa(lp368
V0021201192
p369
aVAPR 13, 2013
p370
aVLAC @ MEM
p371
aVW
p372
aI22
aI2
aI7
aF0.286
aI1
aI2
aF0.5
aI4
aI4
aF1.0
aI0
aI3
aI3
aI2
aI0
aI1
aI4
aI1
aI9
aI-6
aa(lp373
V0021201215
p374
aVAPR 16, 2013
p375
aVLAC vs. POR
p376
aVW
p377
aI24
aI3
aI8
aF0.375
aI2
aI7
aF0.286
aI0
aI0
aF0.0
aI1
aI1
aI2
aI3
aI1
aI0
aI1
aI0
aI8
aI15
aa(lp378
V0021201229
p379
aVAPR 17, 2013
p380
aVLAC @ SAC
p381
aVW
p382
aI30
aI9
aI16
aF0.563
aI6
aI8
aF0.75
aI0
aI0
aF0.0
aI0
aI1
aI1
aI6
aI2
aI0
aI1
aI0
aI24
aI12
aasS'name'
p383
VJamal Crawford
p384
sS'weight'
p385
V195
p386
sS'age'
p387
I32
sS'experience'
p388
I12
sS'height'
p389
V6-5
p390
sS'position'
p391
VGuard
p392
s.