(dp0
S'stats'
p1
(lp2
(lp3
V0021201230
p4
aVAPR 17, 2013
p5
aVGSW @ POR
p6
aVW
p7
aI7
aI1
aI1
aF1.0
aI0
aI0
aF0.0
aI2
aI2
aF1.0
aI0
aI1
aI1
aI0
aI0
aI0
aI1
aI1
aI4
aI-10
aI1
aa(lp8
V0021201212
p9
aVAPR 15, 2013
p10
aVGSW vs. SAS
p11
aVW
p12
aI4
aI1
aI1
aF1.0
aI0
aI0
aF0.0
aI0
aI0
aF0.0
aI0
aI0
aI0
aI0
aI1
aI0
aI0
aI0
aI2
aI-8
aI1
aa(lp13
V0021201175
p14
aVAPR 11, 2013
p15
aVGSW vs. OKC
p16
aVL
p17
aI12
aI2
aI2
aF1.0
aI0
aI0
aF0.0
aI1
aI4
aF0.25
aI0
aI1
aI1
aI1
aI0
aI0
aI0
aI0
aI5
aI-1
aI0
aa(lp18
V0021201163
p19
aVAPR 09, 2013
p20
aVGSW vs. MIN
p21
aVW
p22
aI6
aI2
aI3
aF0.667
aI0
aI1
aF0.0
aI0
aI0
aF0.0
aI1
aI0
aI1
aI0
aI0
aI0
aI0
aI0
aI4
aI5
aI1
aa(lp23
V0021201122
p24
aVAPR 03, 2013
p25
aVGSW vs. NOH
p26
aVW
p27
aI2
aI0
aI0
aF0.0
aI0
aI0
aF0.0
aI0
aI0
aF0.0
aI0
aI0
aI0
aI0
aI0
aI0
aI0
aI0
aI0
aI-6
aI1
aa(lp28
V0021201094
p29
aVMAR 30, 2013
p30
aVGSW vs. POR
p31
aVW
p32
aI6
aI3
aI4
aF0.75
aI0
aI0
aF0.0
aI0
aI0
aF0.0
aI0
aI1
aI1
aI0
aI0
aI0
aI1
aI0
aI6
aI2
aI1
aa(lp33
V0021201039
p34
aVMAR 23, 2013
p35
aVGSW vs. WAS
p36
aVW
p37
aI3
aI0
aI1
aF0.0
aI0
aI0
aF0.0
aI0
aI0
aF0.0
aI0
aI0
aI0
aI0
aI0
aI0
aI1
aI1
aI0
aI-4
aI1
aa(lp38
V0021201016
p39
aVMAR 20, 2013
p40
aVGSW @ SAS
p41
aVL
p42
aI6
aI0
aI0
aF0.0
aI0
aI0
aF0.0
aI0
aI0
aF0.0
aI0
aI1
aI1
aI1
aI0
aI0
aI2
aI1
aI0
aI-2
aI1
aa(lp43
V0021201001
p44
aVMAR 18, 2013
p45
aVGSW @ NOH
p46
aVW
p47
aI7
aI0
aI1
aF0.0
aI0
aI1
aF0.0
aI0
aI0
aF0.0
aI0
aI1
aI1
aI1
aI0
aI0
aI0
aI1
aI0
aI-3
aI1
aa(lp48
V0021200978
p49
aVMAR 15, 2013
p50
aVGSW vs. CHI
p51
aVL
p52
aI16
aI2
aI3
aF0.667
aI1
aI1
aF1.0
aI2
aI2
aF1.0
aI0
aI1
aI1
aI0
aI0
aI0
aI0
aI0
aI7
aI14
aI1
aa(lp53
V0021200966
p54
aVMAR 13, 2013
p55
aVGSW vs. DET
p56
aVW
p57
aI5
aI0
aI0
aF0.0
aI0
aI0
aF0.0
aI0
aI0
aF0.0
aI0
aI0
aI0
aI1
aI0
aI0
aI0
aI0
aI0
aI-7
aI0
aa(lp58
V0021200947
p59
aVMAR 11, 2013
p60
aVGSW vs. NYK
p61
aVW
p62
aI11
aI0
aI2
aF0.0
aI0
aI1
aF0.0
aI0
aI0
aF0.0
aI0
aI2
aI2
aI0
aI0
aI0
aI1
aI1
aI0
aI3
aI1
aa(lp63
V0021200933
p64
aVMAR 09, 2013
p65
aVGSW vs. MIL
p66
aVL
p67
aI12
aI1
aI4
aF0.25
aI0
aI1
aF0.0
aI0
aI0
aF0.0
aI0
aI4
aI4
aI0
aI0
aI0
aI2
aI2
aI2
aI-2
aI1
aa(lp68
V0021200926
p69
aVMAR 08, 2013
p70
aVGSW vs. HOU
p71
aVL
p72
aI7
aI1
aI2
aF0.5
aI0
aI0
aF0.0
aI1
aI1
aF1.0
aI0
aI2
aI2
aI1
aI0
aI0
aI1
aI0
aI3
aI5
aI0
aa(lp73
V0021200912
p74
aVMAR 06, 2013
p75
aVGSW vs. SAC
p76
aVW
p77
aI11
aI1
aI1
aF1.0
aI0
aI0
aF0.0
aI1
aI2
aF0.5
aI0
aI3
aI3
aI0
aI0
aI0
aI0
aI0
aI3
aI-2
aI1
aa(lp78
V0021200895
p79
aVMAR 04, 2013
p80
aVGSW vs. TOR
p81
aVW
p82
aI8
aI0
aI0
aF0.0
aI0
aI0
aF0.0
aI2
aI2
aF1.0
aI0
aI3
aI3
aI2
aI0
aI0
aI0
aI0
aI2
aI6
aI1
aa(lp83
V0021200876
p84
aVMAR 02, 2013
p85
aVGSW @ PHI
p86
aVL
p87
aI4
aI0
aI0
aF0.0
aI0
aI0
aF0.0
aI0
aI0
aF0.0
aI0
aI0
aI0
aI0
aI0
aI0
aI0
aI0
aI0
aI-3
aI1
aa(lp88
V0021200867
p89
aVMAR 01, 2013
p90
aVGSW @ BOS
p91
aVL
p92
aI3
aI1
aI1
aF1.0
aI1
aI1
aF1.0
aI0
aI0
aF0.0
aI0
aI1
aI1
aI0
aI0
aI0
aI0
aI1
aI3
aI1
aI1
aa(lp93
V0021200853
p94
aVFEB 27, 2013
p95
aVGSW @ NYK
p96
aVL
p97
aI15
aI1
aI1
aF1.0
aI1
aI1
aF1.0
aI2
aI4
aF0.5
aI0
aI3
aI3
aI1
aI1
aI0
aI0
aI2
aI5
aI11
aI1
aa(lp98
V0021200844
p99
aVFEB 26, 2013
p100
aVGSW @ IND
p101
aVL
p102
aI11
aI0
aI1
aF0.0
aI0
aI0
aF0.0
aI1
aI2
aF0.5
aI0
aI1
aI1
aI1
aI1
aI0
aI0
aI1
aI1
aI11
aI1
aa(lp103
V0021200832
p104
aVFEB 24, 2013
p105
aVGSW @ MIN
p106
aVW
p107
aI9
aI0
aI0
aF0.0
aI0
aI0
aF0.0
aI0
aI0
aF0.0
aI0
aI3
aI3
aI0
aI1
aI0
aI2
aI2
aI0
aI-1
aI1
aa(lp108
V0021200822
p109
aVFEB 22, 2013
p110
aVGSW vs. SAS
p111
aVW
p112
aI6
aI0
aI0
aF0.0
aI0
aI0
aF0.0
aI0
aI1
aF0.0
aI0
aI1
aI1
aI1
aI0
aI0
aI0
aI1
aI0
aI6
aI1
aa(lp113
V0021200795
p114
aVFEB 19, 2013
p115
aVGSW @ UTA
p116
aVL
p117
aI8
aI0
aI3
aF0.0
aI0
aI1
aF0.0
aI0
aI0
aF0.0
aI0
aI1
aI1
aI0
aI0
aI0
aI1
aI0
aI0
aI3
aI1
aa(lp118
V0021200774
p119
aVFEB 12, 2013
p120
aVGSW vs. HOU
p121
aVL
p122
aI8
aI0
aI0
aF0.0
aI0
aI0
aF0.0
aI0
aI0
aF0.0
aI0
aI1
aI1
aI0
aI0
aI1
aI0
aI0
aI0
aI5
aI1
aa(lp123
V0021200750
p124
aVFEB 09, 2013
p125
aVGSW @ DAL
p126
aVL
p127
aI11
aI1
aI1
aF1.0
aI0
aI0
aF0.0
aI3
aI4
aF0.75
aI0
aI2
aI2
aI0
aI0
aI0
aI0
aI2
aI5
aI5
aI1
aa(lp128
V0021200742
p129
aVFEB 08, 2013
p130
aVGSW @ MEM
p131
aVL
p132
aI7
aI0
aI0
aF0.0
aI0
aI0
aF0.0
aI0
aI0
aF0.0
aI0
aI1
aI1
aI0
aI0
aI0
aI0
aI2
aI0
aI-2
aI1
aa(lp133
V0021200729
p134
aVFEB 06, 2013
p135
aVGSW @ OKC
p136
aVL
p137
aI12
aI3
aI4
aF0.75
aI2
aI2
aF1.0
aI1
aI1
aF1.0
aI0
aI1
aI1
aI0
aI0
aI0
aI1
aI0
aI9
aI-14
aI1
aa(lp138
V0021200718
p139
aVFEB 05, 2013
p140
aVGSW @ HOU
p141
aVL
p142
aI20
aI2
aI6
aF0.333
aI0
aI3
aF0.0
aI6
aI6
aF1.0
aI0
aI6
aI6
aI0
aI0
aI0
aI0
aI1
aI10
aI-3
aI1
aa(lp143
V0021200704
p144
aVFEB 02, 2013
p145
aVGSW vs. PHX
p146
aVW
p147
aI7
aI1
aI1
aF1.0
aI0
aI0
aF0.0
aI0
aI0
aF0.0
aI1
aI2
aI3
aI0
aI0
aI0
aI0
aI1
aI2
aI-3
aI1
aa(lp148
V0021200683
p149
aVJAN 31, 2013
p150
aVGSW vs. DAL
p151
aVW
p152
aI11
aI3
aI4
aF0.75
aI1
aI2
aF0.5
aI1
aI1
aF1.0
aI0
aI1
aI1
aI0
aI1
aI0
aI1
aI0
aI8
aI6
aI1
aa(lp153
V0021200666
p154
aVJAN 29, 2013
p155
aVGSW @ CLE
p156
aVW
p157
aI21
aI1
aI4
aF0.25
aI0
aI0
aF0.0
aI1
aI2
aF0.5
aI0
aI1
aI1
aI0
aI1
aI0
aI1
aI1
aI3
aI1
aI1
aa(lp158
V0021200659
p159
aVJAN 28, 2013
p160
aVGSW @ TOR
p161
aVW
p162
aI14
aI2
aI4
aF0.5
aI1
aI1
aF1.0
aI0
aI0
aF0.0
aI0
aI2
aI2
aI0
aI0
aI2
aI0
aI2
aI5
aI-6
aI1
aa(lp163
V0021200647
p164
aVJAN 26, 2013
p165
aVGSW @ MIL
p166
aVL
p167
aI13
aI4
aI6
aF0.667
aI1
aI2
aF0.5
aI0
aI0
aF0.0
aI0
aI2
aI2
aI1
aI1
aI0
aI1
aI2
aI9
aI0
aI1
aa(lp168
V0021200636
p169
aVJAN 25, 2013
p170
aVGSW @ CHI
p171
aVL
p172
aI15
aI1
aI3
aF0.333
aI0
aI2
aF0.0
aI0
aI0
aF0.0
aI1
aI0
aI1
aI0
aI0
aI0
aI0
aI0
aI2
aI-4
aI1
aa(lp173
V0021200628
p174
aVJAN 23, 2013
p175
aVGSW vs. OKC
p176
aVW
p177
aI10
aI0
aI1
aF0.0
aI0
aI0
aF0.0
aI0
aI0
aF0.0
aI0
aI3
aI3
aI0
aI0
aI0
aI1
aI0
aI0
aI-9
aI1
aa(lp178
V0021200610
p179
aVJAN 21, 2013
p180
aVGSW vs. LAC
p181
aVW
p182
aI12
aI2
aI3
aF0.667
aI1
aI1
aF1.0
aI2
aI3
aF0.667
aI0
aI3
aI3
aI1
aI0
aI1
aI1
aI3
aI7
aI4
aI1
aa(lp183
V0021200596
p184
aVJAN 19, 2013
p185
aVGSW @ NOH
p186
aVW
p187
aI18
aI4
aI8
aF0.5
aI1
aI2
aF0.5
aI2
aI2
aF1.0
aI0
aI4
aI4
aI0
aI1
aI0
aI0
aI3
aI11
aI1
aI1
aa(lp188
V0021200579
p189
aVJAN 16, 2013
p190
aVGSW vs. MIA
p191
aVL
p192
aI11
aI3
aI4
aF0.75
aI1
aI1
aF1.0
aI0
aI0
aF0.0
aI0
aI2
aI2
aI0
aI0
aI0
aI1
aI0
aI7
aI11
aI0
aa(lp193
V0021200498
p194
aVJAN 05, 2013
p195
aVGSW @ LAC
p196
aVL
p197
aI12
aI2
aI5
aF0.4
aI0
aI1
aF0.0
aI0
aI0
aF0.0
aI0
aI3
aI3
aI1
aI0
aI0
aI0
aI0
aI4
aI11
aI1
aa(lp198
V0021200447
p199
aVDEC 29, 2012
p200
aVGSW vs. BOS
p201
aVW
p202
aI3
aI0
aI1
aF0.0
aI0
aI0
aF0.0
aI0
aI0
aF0.0
aI0
aI0
aI0
aI0
aI0
aI0
aI0
aI0
aI0
aI-3
aI1
aa(lp203
V0021200420
p204
aVDEC 26, 2012
p205
aVGSW @ UTA
p206
aVW
p207
aI3
aI0
aI1
aF0.0
aI0
aI0
aF0.0
aI0
aI0
aF0.0
aI0
aI0
aI0
aI0
aI0
aI0
aI0
aI0
aI0
aI-5
aI1
aa(lp208
V0021200389
p209
aVDEC 21, 2012
p210
aVGSW vs. CHA
p211
aVW
p212
aI4
aI0
aI0
aF0.0
aI0
aI0
aF0.0
aI0
aI0
aF0.0
aI0
aI0
aI0
aI0
aI0
aI0
aI0
aI1
aI0
aI-6
aI1
aa(lp213
V0021200375
p214
aVDEC 19, 2012
p215
aVGSW @ SAC
p216
aVL
p217
aI2
aI0
aI0
aF0.0
aI0
aI0
aF0.0
aI1
aI2
aF0.5
aI0
aI0
aI0
aI0
aI0
aI0
aI0
aI2
aI1
aI-3
aI1
aa(lp218
V0021200365
p219
aVDEC 18, 2012
p220
aVGSW vs. NOH
p221
aVW
p222
aI5
aI0
aI0
aF0.0
aI0
aI0
aF0.0
aI0
aI0
aF0.0
aI0
aI0
aI0
aI0
aI0
aI0
aI0
aI0
aI0
aI-2
aI1
aa(lp223
V0021200337
p224
aVDEC 15, 2012
p225
aVGSW @ ATL
p226
aVW
p227
aI6
aI1
aI2
aF0.5
aI0
aI1
aF0.0
aI0
aI0
aF0.0
aI0
aI0
aI0
aI3
aI1
aI0
aI0
aI1
aI2
aI1
aI1
aa(lp228
V0021200330
p229
aVDEC 14, 2012
p230
aVGSW @ ORL
p231
aVL
p232
aI13
aI1
aI2
aF0.5
aI0
aI1
aF0.0
aI0
aI0
aF0.0
aI0
aI3
aI3
aI3
aI0
aI0
aI1
aI0
aI2
aI6
aI1
aa(lp233
V0021200143
p234
aVNOV 18, 2012
p235
aVGSW @ OKC
p236
aVL
p237
aI2
aI1
aI1
aF1.0
aI0
aI0
aF0.0
aI0
aI0
aF0.0
aI0
aI0
aI0
aI0
aI0
aI0
aI0
aI1
aI2
aI4
aI1
aa(lp238
V0021200126
p239
aVNOV 16, 2012
p240
aVGSW @ MIN
p241
aVW
p242
aI13
aI1
aI6
aF0.167
aI0
aI2
aF0.0
aI0
aI1
aF0.0
aI0
aI0
aI0
aI0
aI0
aI0
aI0
aI1
aI2
aI-3
aI1
aa(lp243
V0021200118
p244
aVNOV 14, 2012
p245
aVGSW vs. ATL
p246
aVW
p247
aI12
aI4
aI6
aF0.667
aI1
aI2
aF0.5
aI1
aI1
aF1.0
aI0
aI2
aI2
aI3
aI0
aI0
aI1
aI2
aI10
aI5
aI1
aa(lp248
V0021200089
p249
aVNOV 10, 2012
p250
aVGSW vs. DEN
p251
aVL
p252
aI23
aI1
aI6
aF0.167
aI0
aI2
aF0.0
aI0
aI0
aF0.0
aI0
aI2
aI2
aI4
aI1
aI0
aI0
aI1
aI2
aI-6
aI1
aa(lp253
V0021200080
p254
aVNOV 09, 2012
p255
aVGSW @ LAL
p256
aVL
p257
aI18
aI1
aI6
aF0.167
aI0
aI3
aF0.0
aI1
aI2
aF0.5
aI0
aI1
aI1
aI0
aI0
aI1
aI0
aI2
aI3
aI-14
aI1
aa(lp258
V0021200065
p259
aVNOV 07, 2012
p260
aVGSW vs. CLE
p261
aVW
p262
aI24
aI3
aI7
aF0.429
aI1
aI4
aF0.25
aI0
aI0
aF0.0
aI0
aI2
aI2
aI3
aI0
aI1
aI1
aI2
aI7
aI14
aI1
aa(lp263
V0021200048
p264
aVNOV 05, 2012
p265
aVGSW @ SAC
p266
aVL
p267
aI14
aI1
aI3
aF0.333
aI1
aI1
aF1.0
aI2
aI2
aF1.0
aI1
aI2
aI3
aI1
aI0
aI0
aI0
aI0
aI5
aI-3
aI1
aa(lp268
V0021200036
p269
aVNOV 03, 2012
p270
aVGSW @ LAC
p271
aVW
p272
aI22
aI3
aI7
aF0.429
aI0
aI2
aF0.0
aI3
aI4
aF0.75
aI1
aI1
aI2
aI1
aI2
aI0
aI1
aI1
aI9
aI9
aI1
aa(lp273
V0021200026
p274
aVNOV 02, 2012
p275
aVGSW vs. MEM
p276
aVL
p277
aI10
aI0
aI1
aF0.0
aI0
aI1
aF0.0
aI0
aI0
aF0.0
aI0
aI2
aI2
aI0
aI0
aI0
aI0
aI0
aI0
aI-9
aI1
aa(lp278
V0021200010
p279
aVOCT 31, 2012
p280
aVGSW @ PHX
p281
aVW
p282
aI13
aI0
aI2
aF0.0
aI0
aI1
aF0.0
aI2
aI2
aF1.0
aI0
aI0
aI0
aI0
aI2
aI1
aI0
aI0
aI2
aI7
aI1
aasS'name'
p283
VRichard Jefferson
p284
s.