(dp0
S'stats'
p1
(lp2
(lp3
V0021200180
p4
aVNOV 23, 2012
p5
aVUTA vs. SAC
p6
aVW
p7
aI10
aI0
aI2
aF0.0
aI0
aI1
aF0.0
aI0
aI0
aF0.0
aI0
aI2
aI2
aI2
aI0
aI0
aI0
aI2
aI0
aI-6
aa(lp8
V0021200189
p9
aVNOV 24, 2012
p10
aVUTA @ SAC
p11
aVL
p12
aI17
aI3
aI4
aF0.75
aI0
aI1
aF0.0
aI0
aI0
aF0.0
aI2
aI1
aI3
aI5
aI4
aI0
aI1
aI3
aI6
aI2
aa(lp13
V0021200202
p14
aVNOV 26, 2012
p15
aVUTA vs. DEN
p16
aVW
p17
aI13
aI2
aI3
aF0.667
aI1
aI1
aF1.0
aI0
aI0
aF0.0
aI0
aI0
aI0
aI1
aI0
aI0
aI1
aI5
aI5
aI-5
aa(lp18
V0021200217
p19
aVNOV 28, 2012
p20
aVUTA @ NOH
p21
aVW
p22
aI17
aI0
aI0
aF0.0
aI0
aI0
aF0.0
aI0
aI0
aF0.0
aI0
aI0
aI0
aI8
aI2
aI0
aI0
aI3
aI0
aI9
aa(lp23
V0021200229
p24
aVNOV 30, 2012
p25
aVUTA @ OKC
p26
aVL
p27
aI13
aI1
aI3
aF0.333
aI0
aI1
aF0.0
aI0
aI0
aF0.0
aI0
aI0
aI0
aI8
aI1
aI0
aI1
aI1
aI2
aI6
aa(lp28
V0021200237
p29
aVDEC 01, 2012
p30
aVUTA @ HOU
p31
aVL
p32
aI12
aI1
aI3
aF0.333
aI0
aI0
aF0.0
aI0
aI0
aF0.0
aI1
aI0
aI1
aI3
aI0
aI0
aI3
aI2
aI2
aI-15
aa(lp33
V0021200249
p34
aVDEC 03, 2012
p35
aVUTA vs. LAC
p36
aVL
p37
aI11
aI0
aI1
aF0.0
aI0
aI0
aF0.0
aI0
aI0
aF0.0
aI0
aI1
aI1
aI2
aI1
aI0
aI1
aI2
aI0
aI-11
aa(lp38
V0021200265
p39
aVDEC 05, 2012
p40
aVUTA vs. ORL
p41
aVW
p42
aI16
aI0
aI3
aF0.0
aI0
aI1
aF0.0
aI0
aI0
aF0.0
aI0
aI1
aI1
aI2
aI1
aI0
aI0
aI2
aI0
aI5
aa(lp43
V0021200279
p44
aVDEC 07, 2012
p45
aVUTA vs. TOR
p46
aVW
p47
aI8
aI2
aI3
aF0.667
aI0
aI0
aF0.0
aI2
aI2
aF1.0
aI0
aI3
aI3
aI4
aI0
aI1
aI1
aI2
aI6
aI4
aa(lp48
V0021200321
p49
aVDEC 12, 2012
p50
aVUTA vs. SAS
p51
aVW
p52
aI16
aI0
aI2
aF0.0
aI0
aI1
aF0.0
aI0
aI0
aF0.0
aI0
aI3
aI3
aI5
aI1
aI0
aI1
aI3
aI0
aI-4
aa(lp53
V0021200334
p54
aVDEC 14, 2012
p55
aVUTA @ PHX
p56
aVL
p57
aI17
aI1
aI4
aF0.25
aI1
aI3
aF0.333
aI0
aI0
aF0.0
aI0
aI1
aI1
aI1
aI2
aI0
aI2
aI1
aI3
aI-14
aa(lp58
V0021200369
p59
aVDEC 19, 2012
p60
aVUTA @ IND
p61
aVL
p62
aI23
aI1
aI6
aF0.167
aI0
aI1
aF0.0
aI0
aI1
aF0.0
aI1
aI2
aI3
aI4
aI0
aI0
aI2
aI2
aI2
aI10
aa(lp63
V0021200392
p64
aVDEC 22, 2012
p65
aVUTA @ MIA
p66
aVL
p67
aI17
aI1
aI3
aF0.333
aI0
aI0
aF0.0
aI0
aI0
aF0.0
aI0
aI2
aI2
aI4
aI2
aI0
aI2
aI1
aI2
aI-10
aa(lp68
V0021200401
p69
aVDEC 23, 2012
p70
aVUTA @ ORL
p71
aVW
p72
aI21
aI0
aI2
aF0.0
aI0
aI1
aF0.0
aI2
aI4
aF0.5
aI0
aI1
aI1
aI8
aI0
aI0
aI1
aI1
aI2
aI0
aa(lp73
V0021200420
p74
aVDEC 26, 2012
p75
aVUTA vs. GSW
p76
aVL
p77
aI27
aI0
aI2
aF0.0
aI0
aI0
aF0.0
aI0
aI0
aF0.0
aI0
aI3
aI3
aI3
aI1
aI0
aI4
aI3
aI0
aI-2
aa(lp78
V0021200433
p79
aVDEC 28, 2012
p80
aVUTA vs. LAC
p81
aVL
p82
aI19
aI0
aI2
aF0.0
aI0
aI1
aF0.0
aI2
aI2
aF1.0
aI1
aI1
aI2
aI0
aI0
aI0
aI2
aI3
aI2
aI5
aa(lp83
V0021200451
p84
aVDEC 30, 2012
p85
aVUTA @ LAC
p86
aVL
p87
aI21
aI0
aI3
aF0.0
aI0
aI1
aF0.0
aI0
aI0
aF0.0
aI1
aI0
aI1
aI5
aI1
aI0
aI1
aI2
aI0
aI-5
aa(lp88
V0021200473
p89
aVJAN 02, 2013
p90
aVUTA vs. MIN
p91
aVW
p92
aI24
aI1
aI4
aF0.25
aI0
aI1
aF0.0
aI0
aI0
aF0.0
aI1
aI3
aI4
aI9
aI0
aI0
aI0
aI2
aI2
aI11
aa(lp93
V0021200487
p94
aVJAN 04, 2013
p95
aVUTA @ PHX
p96
aVW
p97
aI19
aI0
aI3
aF0.0
aI0
aI1
aF0.0
aI0
aI0
aF0.0
aI0
aI1
aI1
aI8
aI0
aI0
aI2
aI0
aI0
aI0
aa(lp98
V0021200497
p99
aVJAN 05, 2013
p100
aVUTA @ DEN
p101
aVL
p102
aI17
aI3
aI4
aF0.75
aI1
aI2
aF0.5
aI0
aI0
aF0.0
aI0
aI0
aI0
aI2
aI2
aI0
aI2
aI1
aI7
aI-7
aa(lp103
V0021200508
p104
aVJAN 07, 2013
p105
aVUTA vs. DAL
p106
aVW
p107
aI18
aI1
aI2
aF0.5
aI1
aI2
aF0.5
aI0
aI0
aF0.0
aI0
aI0
aI0
aI1
aI0
aI0
aI1
aI2
aI3
aI0
aa(lp108
V0021200517
p109
aVJAN 09, 2013
p110
aVUTA @ CHA
p111
aVW
p112
aI7
aI0
aI1
aF0.0
aI0
aI1
aF0.0
aI1
aI2
aF0.5
aI0
aI0
aI0
aI1
aI0
aI2
aI1
aI1
aI1
aI-5
aa(lp113
V0021200533
p114
aVJAN 11, 2013
p115
aVUTA @ ATL
p116
aVL
p117
aI21
aI2
aI4
aF0.5
aI0
aI1
aF0.0
aI0
aI0
aF0.0
aI1
aI1
aI2
aI5
aI1
aI0
aI1
aI3
aI4
aI-10
aa(lp118
V0021200545
p119
aVJAN 12, 2013
p120
aVUTA @ DET
p121
aVW
p122
aI26
aI0
aI3
aF0.0
aI0
aI0
aF0.0
aI2
aI2
aF1.0
aI1
aI2
aI3
aI6
aI1
aI0
aI2
aI3
aI2
aI0
aa(lp123
V0021200561
p124
aVJAN 14, 2013
p125
aVUTA vs. MIA
p126
aVW
p127
aI9
aI0
aI0
aF0.0
aI0
aI0
aF0.0
aI0
aI0
aF0.0
aI0
aI0
aI0
aI3
aI1
aI0
aI0
aI0
aI0
aI10
aa(lp128
V0021200598
p129
aVJAN 19, 2013
p130
aVUTA vs. CLE
p131
aVW
p132
aI25
aI0
aI1
aF0.0
aI0
aI0
aF0.0
aI0
aI0
aF0.0
aI1
aI1
aI2
aI9
aI1
aI1
aI2
aI3
aI0
aI4
aa(lp133
V0021200625
p134
aVJAN 23, 2013
p135
aVUTA vs. WAS
p136
aVW
p137
aI13
aI2
aI2
aF1.0
aI0
aI0
aF0.0
aI0
aI0
aF0.0
aI0
aI2
aI2
aI3
aI0
aI1
aI1
aI2
aI4
aI1
aa(lp138
V0021200641
p139
aVJAN 25, 2013
p140
aVUTA @ LAL
p141
aVL
p142
aI21
aI1
aI5
aF0.2
aI0
aI0
aF0.0
aI0
aI0
aF0.0
aI0
aI1
aI1
aI3
aI2
aI0
aI1
aI2
aI2
aI-16
aa(lp143
V0021200650
p144
aVJAN 26, 2013
p145
aVUTA vs. IND
p146
aVW
p147
aI31
aI1
aI1
aF1.0
aI0
aI0
aF0.0
aI0
aI0
aF0.0
aI2
aI2
aI4
aI5
aI2
aI0
aI0
aI1
aI2
aI1
aa(lp148
V0021200665
p149
aVJAN 28, 2013
p150
aVUTA vs. HOU
p151
aVL
p152
aI10
aI0
aI1
aF0.0
aI0
aI1
aF0.0
aI0
aI0
aF0.0
aI0
aI2
aI2
aI1
aI0
aI0
aI1
aI3
aI0
aI-5
aa(lp153
V0021200680
p154
aVJAN 30, 2013
p155
aVUTA vs. NOH
p156
aVW
p157
aI27
aI0
aI2
aF0.0
aI0
aI0
aF0.0
aI1
aI2
aF0.5
aI1
aI5
aI6
aI5
aI0
aI0
aI0
aI4
aI1
aI11
aa(lp158
V0021200693
p159
aVFEB 01, 2013
p160
aVUTA vs. POR
p161
aVW
p162
aI22
aI1
aI1
aF1.0
aI1
aI1
aF1.0
aI0
aI0
aF0.0
aI0
aI4
aI4
aI7
aI1
aI0
aI2
aI2
aI3
aI3
aa(lp163
V0021200751
p164
aVFEB 09, 2013
p165
aVUTA @ SAC
p166
aVL
p167
aI23
aI2
aI3
aF0.667
aI0
aI0
aF0.0
aI0
aI0
aF0.0
aI0
aI0
aI0
aI5
aI1
aI0
aI1
aI5
aI4
aI-9
aa(lp168
V0021200772
p169
aVFEB 12, 2013
p170
aVUTA vs. OKC
p171
aVW
p172
aI22
aI3
aI3
aF1.0
aI0
aI0
aF0.0
aI0
aI0
aF0.0
aI0
aI4
aI4
aI5
aI1
aI0
aI3
aI3
aI6
aI2
aa(lp173
V0021200784
p174
aVFEB 13, 2013
p175
aVUTA @ MIN
p176
aVW
p177
aI24
aI2
aI7
aF0.286
aI0
aI1
aF0.0
aI2
aI2
aF1.0
aI1
aI4
aI5
aI5
aI0
aI0
aI4
aI1
aI6
aI0
aa(lp178
V0021200795
p179
aVFEB 19, 2013
p180
aVUTA vs. GSW
p181
aVW
p182
aI23
aI0
aI0
aF0.0
aI0
aI0
aF0.0
aI0
aI0
aF0.0
aI0
aI0
aI0
aI5
aI3
aI1
aI0
aI4
aI0
aI2
aa(lp183
V0021200829
p184
aVFEB 23, 2013
p185
aVUTA @ LAC
p186
aVL
p187
aI24
aI1
aI6
aF0.167
aI0
aI2
aF0.0
aI0
aI0
aF0.0
aI0
aI2
aI2
aI8
aI1
aI0
aI2
aI2
aI2
aI10
aa(lp188
V0021200842
p189
aVFEB 25, 2013
p190
aVUTA vs. BOS
p191
aVL
p192
aI20
aI1
aI3
aF0.333
aI0
aI0
aF0.0
aI0
aI0
aF0.0
aI2
aI0
aI2
aI2
aI0
aI1
aI4
aI1
aI2
aI-11
aa(lp193
V0021200859
p194
aVFEB 27, 2013
p195
aVUTA vs. ATL
p196
aVL
p197
aI19
aI0
aI2
aF0.0
aI0
aI0
aF0.0
aI0
aI2
aF0.0
aI2
aI1
aI3
aI5
aI0
aI0
aI3
aI3
aI0
aI-15
aa(lp198
V0021200873
p199
aVMAR 01, 2013
p200
aVUTA vs. CHA
p201
aVW
p202
aI12
aI0
aI0
aF0.0
aI0
aI0
aF0.0
aI0
aI0
aF0.0
aI0
aI1
aI1
aI2
aI0
aI0
aI1
aI3
aI0
aI0
aa(lp203
V0021200890
p204
aVMAR 04, 2013
p205
aVUTA @ MIL
p206
aVL
p207
aI17
aI0
aI4
aF0.0
aI0
aI0
aF0.0
aI0
aI0
aF0.0
aI1
aI3
aI4
aI2
aI3
aI0
aI4
aI0
aI0
aI-6
aa(lp208
V0021200900
p209
aVMAR 06, 2013
p210
aVUTA @ CLE
p211
aVL
p212
aI7
aI0
aI0
aF0.0
aI0
aI0
aF0.0
aI0
aI0
aF0.0
aI0
aI0
aI0
aI2
aI0
aI1
aI1
aI0
aI0
aI-3
aa(lp213
V0021200928
p214
aVMAR 09, 2013
p215
aVUTA @ NYK
p216
aVL
p217
aI4
aI0
aI0
aF0.0
aI0
aI0
aF0.0
aI0
aI0
aF0.0
aI0
aI0
aI0
aI0
aI0
aI0
aI1
aI1
aI0
aI1
aa(lp218
V0021200962
p219
aVMAR 13, 2013
p220
aVUTA @ OKC
p221
aVL
p222
aI19
aI2
aI4
aF0.5
aI0
aI1
aF0.0
aI5
aI6
aF0.833
aI1
aI1
aI2
aI6
aI1
aI0
aI2
aI1
aI9
aI4
aa(lp223
V0021200983
p224
aVMAR 16, 2013
p225
aVUTA vs. MEM
p226
aVW
p227
aI12
aI1
aI2
aF0.5
aI0
aI0
aF0.0
aI0
aI0
aF0.0
aI0
aI1
aI1
aI1
aI0
aI0
aI0
aI2
aI2
aI1
aa(lp228
V0021201003
p229
aVMAR 18, 2013
p230
aVUTA vs. NYK
p231
aVL
p232
aI17
aI1
aI1
aF1.0
aI0
aI0
aF0.0
aI0
aI0
aF0.0
aI0
aI1
aI1
aI4
aI3
aI0
aI1
aI1
aI2
aI-4
aa(lp233
V0021201052
p234
aVMAR 25, 2013
p235
aVUTA vs. PHI
p236
aVW
p237
aI13
aI0
aI5
aF0.0
aI0
aI1
aF0.0
aI0
aI0
aF0.0
aI3
aI1
aI4
aI3
aI0
aI0
aI3
aI0
aI0
aI6
aa(lp238
V0021201118
p239
aVAPR 03, 2013
p240
aVUTA vs. DEN
p241
aVL
p242
aI3
aI0
aI0
aF0.0
aI0
aI0
aF0.0
aI0
aI0
aF0.0
aI0
aI0
aI0
aI2
aI0
aI0
aI0
aI0
aI0
aI3
aasS'name'
p243
VEarl Watson
p244
sS'weight'
p245
V199
p246
sS'age'
p247
I33
sS'experience'
p248
I11
sS'height'
p249
V6-1
p250
sS'position'
p251
VGuard
p252
s.