(dp0
S'stats'
p1
(lp2
(lp3
V0021200939
p4
aVMAR 10, 2013
p5
aVPOR @ NOH
p6
aVL
p7
aI15
aI0
aI1
aF0.0
aI0
aI0
aF0.0
aI0
aI0
aF0.0
aI0
aI0
aI0
aI0
aI0
aI0
aI0
aI2
aI0
aI-8
aI1
aa(lp8
V0021200923
p9
aVMAR 08, 2013
p10
aVPOR @ SAS
p11
aVW
p12
aI9
aI0
aI0
aF0.0
aI0
aI0
aF0.0
aI0
aI0
aF0.0
aI2
aI0
aI2
aI0
aI0
aI0
aI1
aI1
aI0
aI14
aI1
aa(lp13
V0021200797
p14
aVFEB 19, 2013
p15
aVPOR vs. PHX
p16
aVL
p17
aI3
aI0
aI1
aF0.0
aI0
aI0
aF0.0
aI0
aI0
aF0.0
aI0
aI1
aI1
aI0
aI0
aI0
aI0
aI2
aI0
aI-4
aI1
aa(lp18
V0021200770
p19
aVFEB 12, 2013
p20
aVPOR @ MIA
p21
aVL
p22
aI20
aI2
aI5
aF0.4
aI0
aI0
aF0.0
aI3
aI4
aF0.75
aI1
aI2
aI3
aI1
aI0
aI0
aI0
aI2
aI7
aI24
aI1
aa(lp23
V0021200730
p24
aVFEB 06, 2013
p25
aVPOR @ DAL
p26
aVL
p27
aI10
aI0
aI1
aF0.0
aI0
aI0
aF0.0
aI0
aI0
aF0.0
aI0
aI2
aI2
aI0
aI0
aI0
aI1
aI0
aI0
aI4
aI0
aa(lp28
V0021200693
p29
aVFEB 01, 2013
p30
aVPOR @ UTA
p31
aVL
p32
aI4
aI0
aI2
aF0.0
aI0
aI0
aF0.0
aI0
aI0
aF0.0
aI2
aI0
aI2
aI0
aI0
aI0
aI1
aI1
aI0
aI-9
aI1
aa(lp33
V0021200668
p34
aVJAN 29, 2013
p35
aVPOR vs. DAL
p36
aVW
p37
aI7
aI0
aI0
aF0.0
aI0
aI0
aF0.0
aI0
aI0
aF0.0
aI0
aI1
aI1
aI0
aI0
aI0
aI0
aI2
aI0
aI-11
aI1
aa(lp38
V0021200651
p39
aVJAN 26, 2013
p40
aVPOR vs. LAC
p41
aVW
p42
aI8
aI1
aI2
aF0.5
aI0
aI0
aF0.0
aI0
aI0
aF0.0
aI1
aI0
aI1
aI0
aI2
aI0
aI0
aI0
aI2
aI-5
aI1
aa(lp43
V0021200627
p44
aVJAN 23, 2013
p45
aVPOR vs. IND
p46
aVW
p47
aI10
aI1
aI1
aF1.0
aI0
aI0
aF0.0
aI1
aI2
aF0.5
aI0
aI4
aI4
aI0
aI1
aI0
aI1
aI2
aI3
aI8
aI1
aa(lp48
V0021200599
p49
aVJAN 19, 2013
p50
aVPOR vs. MIL
p51
aVL
p52
aI4
aI0
aI1
aF0.0
aI0
aI1
aF0.0
aI0
aI0
aF0.0
aI0
aI0
aI0
aI0
aI0
aI0
aI0
aI1
aI0
aI-8
aI1
aa(lp53
V0021200578
p54
aVJAN 16, 2013
p55
aVPOR vs. CLE
p56
aVL
p57
aI16
aI0
aI5
aF0.0
aI0
aI1
aF0.0
aI0
aI0
aF0.0
aI3
aI2
aI5
aI1
aI1
aI1
aI0
aI1
aI0
aI-2
aI1
aa(lp58
V0021200568
p59
aVJAN 15, 2013
p60
aVPOR @ DEN
p61
aVL
p62
aI9
aI0
aI0
aF0.0
aI0
aI0
aF0.0
aI0
aI0
aF0.0
aI0
aI0
aI0
aI0
aI0
aI2
aI0
aI1
aI0
aI-3
aI1
aa(lp63
V0021200554
p64
aVJAN 13, 2013
p65
aVPOR vs. OKC
p66
aVL
p67
aI7
aI1
aI2
aF0.5
aI0
aI0
aF0.0
aI0
aI0
aF0.0
aI2
aI1
aI3
aI0
aI0
aI0
aI0
aI0
aI2
aI-2
aI1
aa(lp68
V0021200540
p69
aVJAN 11, 2013
p70
aVPOR @ GSW
p71
aVL
p72
aI13
aI1
aI1
aF1.0
aI0
aI0
aF0.0
aI1
aI2
aF0.5
aI2
aI3
aI5
aI2
aI0
aI0
aI0
aI1
aI3
aI9
aI1
aa(lp73
V0021200529
p74
aVJAN 10, 2013
p75
aVPOR vs. MIA
p76
aVW
p77
aI9
aI0
aI1
aF0.0
aI0
aI0
aF0.0
aI0
aI0
aF0.0
aI0
aI2
aI2
aI0
aI0
aI0
aI1
aI0
aI0
aI-3
aI1
aa(lp78
V0021200494
p79
aVJAN 05, 2013
p80
aVPOR @ MIN
p81
aVW
p82
aI9
aI0
aI0
aF0.0
aI0
aI0
aF0.0
aI0
aI0
aF0.0
aI1
aI0
aI1
aI0
aI0
aI0
aI2
aI3
aI0
aI6
aI1
aa(lp83
V0021200459
p84
aVJAN 01, 2013
p85
aVPOR @ NYK
p86
aVW
p87
aI15
aI1
aI1
aF1.0
aI0
aI0
aF0.0
aI0
aI0
aF0.0
aI1
aI1
aI2
aI1
aI0
aI0
aI0
aI4
aI2
aI2
aI1
aa(lp88
V0021200435
p89
aVDEC 28, 2012
p90
aVPOR @ LAL
p91
aVL
p92
aI15
aI1
aI4
aF0.25
aI0
aI0
aF0.0
aI2
aI4
aF0.5
aI1
aI2
aI3
aI2
aI0
aI0
aI0
aI4
aI4
aI-3
aI1
aa(lp93
V0021200349
p94
aVDEC 16, 2012
p95
aVPOR vs. NOH
p96
aVW
p97
aI0
aI0
aI0
aF0.0
aI0
aI0
aF0.0
aI0
aI0
aF0.0
aI0
aI0
aI0
aI0
aI0
aI0
aI0
aI0
aI0
aI-2
aI1
aa(lp98
V0021200303
p99
aVDEC 10, 2012
p100
aVPOR vs. TOR
p101
aVW
p102
aI10
aI1
aI2
aF0.5
aI0
aI0
aF0.0
aI0
aI0
aF0.0
aI1
aI3
aI4
aI0
aI0
aI1
aI1
aI2
aI2
aI-2
aI1
aa(lp103
V0021200291
p104
aVDEC 08, 2012
p105
aVPOR vs. SAC
p106
aVL
p107
aI4
aI0
aI1
aF0.0
aI0
aI0
aF0.0
aI0
aI0
aF0.0
aI0
aI1
aI1
aI0
aI0
aI0
aI1
aI0
aI0
aI5
aI1
aa(lp108
V0021200258
p109
aVDEC 05, 2012
p110
aVPOR @ IND
p111
aVL
p112
aI8
aI1
aI1
aF1.0
aI0
aI0
aF0.0
aI0
aI0
aF0.0
aI0
aI0
aI0
aI0
aI0
aI0
aI0
aI0
aI2
aI3
aI1
aa(lp113
V0021200234
p114
aVDEC 01, 2012
p115
aVPOR @ CLE
p116
aVW
p117
aI6
aI1
aI1
aF1.0
aI0
aI0
aF0.0
aI0
aI0
aF0.0
aI0
aI0
aI0
aI0
aI0
aI0
aI0
aI0
aI2
aI-4
aI1
aa(lp118
V0021200225
p119
aVNOV 30, 2012
p120
aVPOR @ BOS
p121
aVL
p122
aI3
aI0
aI0
aF0.0
aI0
aI0
aF0.0
aI1
aI2
aF0.5
aI0
aI0
aI0
aI0
aI0
aI0
aI0
aI2
aI1
aI-6
aI1
aa(lp123
V0021200209
p124
aVNOV 28, 2012
p125
aVPOR @ WAS
p126
aVL
p127
aI7
aI0
aI2
aF0.0
aI0
aI0
aF0.0
aI0
aI0
aF0.0
aI0
aI0
aI0
aI0
aI0
aI1
aI0
aI3
aI0
aI-10
aI1
aa(lp128
V0021200198
p129
aVNOV 26, 2012
p130
aVPOR @ DET
p131
aVL
p132
aI7
aI0
aI1
aF0.0
aI0
aI0
aF0.0
aI0
aI0
aF0.0
aI0
aI1
aI1
aI1
aI0
aI0
aI0
aI2
aI0
aI-7
aI1
aa(lp133
V0021200193
p134
aVNOV 25, 2012
p135
aVPOR @ BKN
p136
aVL
p137
aI19
aI0
aI3
aF0.0
aI0
aI0
aF0.0
aI2
aI2
aF1.0
aI1
aI2
aI3
aI3
aI0
aI0
aI2
aI3
aI2
aI2
aI1
aa(lp138
V0021200182
p139
aVNOV 23, 2012
p140
aVPOR vs. MIN
p141
aVW
p142
aI19
aI1
aI1
aF1.0
aI0
aI0
aF0.0
aI0
aI3
aF0.0
aI0
aI2
aI2
aI0
aI1
aI0
aI0
aI4
aI2
aI8
aI1
aa(lp143
V0021200168
p144
aVNOV 21, 2012
p145
aVPOR @ PHX
p146
aVL
p147
aI7
aI1
aI2
aF0.5
aI0
aI0
aF0.0
aI0
aI0
aF0.0
aI2
aI1
aI3
aI0
aI0
aI0
aI1
aI2
aI2
aI-2
aI1
aa(lp148
V0021200145
p149
aVNOV 18, 2012
p150
aVPOR vs. CHI
p151
aVW
p152
aI22
aI1
aI4
aF0.25
aI0
aI0
aF0.0
aI2
aI4
aF0.5
aI3
aI1
aI4
aI0
aI0
aI0
aI2
aI4
aI4
aI7
aI1
aa(lp153
V0021200129
p154
aVNOV 16, 2012
p155
aVPOR vs. HOU
p156
aVW
p157
aI10
aI0
aI0
aF0.0
aI0
aI0
aF0.0
aI0
aI0
aF0.0
aI0
aI0
aI0
aI2
aI0
aI0
aI0
aI1
aI0
aI8
aI1
aa(lp158
V0021200107
p159
aVNOV 13, 2012
p160
aVPOR @ SAC
p161
aVW
p162
aI9
aI0
aI2
aF0.0
aI0
aI0
aF0.0
aI0
aI0
aF0.0
aI0
aI0
aI0
aI0
aI0
aI1
aI1
aI3
aI0
aI18
aI1
aa(lp163
V0021200088
p164
aVNOV 10, 2012
p165
aVPOR vs. SAS
p166
aVL
p167
aI3
aI0
aI0
aF0.0
aI0
aI0
aF0.0
aI0
aI0
aF0.0
aI0
aI0
aI0
aI0
aI0
aI0
aI1
aI0
aI0
aI-14
aI1
aa(lp168
V0021200067
p169
aVNOV 08, 2012
p170
aVPOR vs. LAC
p171
aVL
p172
aI4
aI1
aI1
aF1.0
aI0
aI0
aF0.0
aI0
aI0
aF0.0
aI1
aI0
aI1
aI0
aI0
aI0
aI1
aI1
aI2
aI-3
aI1
aa(lp173
V0021200046
p174
aVNOV 05, 2012
p175
aVPOR @ DAL
p176
aVL
p177
aI7
aI1
aI3
aF0.333
aI0
aI0
aF0.0
aI0
aI0
aF0.0
aI2
aI0
aI2
aI0
aI0
aI0
aI0
aI0
aI2
aI3
aI1
aa(lp178
V0021200032
p179
aVNOV 03, 2012
p180
aVPOR @ HOU
p181
aVW
p182
aI8
aI0
aI1
aF0.0
aI0
aI0
aF0.0
aI0
aI0
aF0.0
aI0
aI0
aI0
aI0
aI1
aI0
aI0
aI2
aI0
aI-9
aI1
aa(lp183
V0021200022
p184
aVNOV 02, 2012
p185
aVPOR @ OKC
p186
aVL
p187
aI5
aI0
aI0
aF0.0
aI0
aI0
aF0.0
aI0
aI0
aF0.0
aI0
aI0
aI0
aI1
aI0
aI0
aI0
aI0
aI0
aI0
aI1
aa(lp188
V0021200012
p189
aVOCT 31, 2012
p190
aVPOR vs. LAL
p191
aVW
p192
aI9
aI0
aI1
aF0.0
aI0
aI0
aF0.0
aI0
aI0
aF0.0
aI0
aI2
aI2
aI0
aI0
aI0
aI0
aI2
aI0
aI8
aI1
aasS'name'
p193
VJared Jeffries
p194
s.