(dp0
S'stats'
p1
(lp2
(lp3
V0021201194
p4
aVAPR 14, 2013
p5
aVMIA vs. CHI
p6
aVW
p7
aI35
aI7
aI12
aF0.583
aI1
aI1
aF1.0
aI9
aI12
aF0.75
aI0
aI7
aI7
aI6
aI1
aI0
aI3
aI2
aI24
aI8
aI1
aa(lp8
V0021201180
p9
aVAPR 12, 2013
p10
aVMIA vs. BOS
p11
aVW
p12
aI29
aI8
aI10
aF0.8
aI0
aI0
aF0.0
aI4
aI4
aF1.0
aI1
aI5
aI6
aI9
aI0
aI0
aI1
aI1
aI20
aI6
aI1
aa(lp13
V0021201157
p14
aVAPR 09, 2013
p15
aVMIA vs. MIL
p16
aVW
p17
aI30
aI11
aI16
aF0.688
aI0
aI1
aF0.0
aI6
aI6
aF1.0
aI1
aI6
aI7
aI7
aI2
aI1
aI3
aI0
aI28
aI21
aI1
aa(lp18
V0021201140
p19
aVAPR 06, 2013
p20
aVMIA vs. PHI
p21
aVW
p22
aI30
aI12
aI17
aF0.706
aI1
aI2
aF0.5
aI2
aI2
aF1.0
aI0
aI4
aI4
aI5
aI1
aI0
aI1
aI1
aI27
aI22
aI1
aa(lp23
V0021201080
p24
aVMAR 29, 2013
p25
aVMIA @ NOH
p26
aVW
p27
aI32
aI13
aI20
aF0.65
aI7
aI10
aF0.7
aI3
aI5
aF0.6
aI0
aI4
aI4
aI6
aI2
aI0
aI3
aI0
aI36
aI19
aI1
aa(lp28
V0021201062
p29
aVMAR 27, 2013
p30
aVMIA @ CHI
p31
aVL
p32
aI40
aI11
aI17
aF0.647
aI2
aI5
aF0.4
aI8
aI11
aF0.727
aI0
aI7
aI7
aI3
aI2
aI4
aI4
aI1
aI32
aI2
aI1
aa(lp33
V0021201049
p34
aVMAR 25, 2013
p35
aVMIA @ ORL
p36
aVW
p37
aI39
aI9
aI16
aF0.563
aI0
aI0
aF0.0
aI6
aI10
aF0.6
aI1
aI8
aI9
aI11
aI1
aI0
aI3
aI2
aI24
aI25
aI1
aa(lp38
V0021201041
p39
aVMAR 24, 2013
p40
aVMIA vs. CHA
p41
aVW
p42
aI34
aI11
aI14
aF0.786
aI0
aI1
aF0.0
aI10
aI11
aF0.909
aI0
aI8
aI8
aI10
aI3
aI3
aI4
aI0
aI32
aI22
aI1
aa(lp43
V0021201026
p44
aVMAR 22, 2013
p45
aVMIA vs. DET
p46
aVW
p47
aI40
aI12
aI15
aF0.8
aI1
aI1
aF1.0
aI4
aI6
aF0.667
aI1
aI7
aI8
aI8
aI2
aI1
aI3
aI1
aI29
aI14
aI1
aa(lp48
V0021201009
p49
aVMAR 20, 2013
p50
aVMIA @ CLE
p51
aVW
p52
aI42
aI8
aI22
aF0.364
aI3
aI7
aF0.429
aI6
aI8
aF0.75
aI7
aI5
aI12
aI10
aI3
aI2
aI4
aI1
aI25
aI1
aI1
aa(lp53
V0021200998
p54
aVMAR 18, 2013
p55
aVMIA @ BOS
p56
aVW
p57
aI42
aI16
aI29
aF0.552
aI1
aI4
aF0.25
aI4
aI6
aF0.667
aI1
aI6
aI7
aI12
aI2
aI2
aI5
aI3
aI37
aI13
aI1
aa(lp58
V0021200985
p59
aVMAR 17, 2013
p60
aVMIA @ TOR
p61
aVW
p62
aI34
aI6
aI12
aF0.5
aI2
aI6
aF0.333
aI8
aI11
aF0.727
aI1
aI11
aI12
aI8
aI2
aI0
aI3
aI1
aI22
aI10
aI1
aa(lp63
V0021200975
p64
aVMAR 15, 2013
p65
aVMIA @ MIL
p66
aVW
p67
aI38
aI12
aI24
aF0.5
aI0
aI2
aF0.0
aI4
aI5
aF0.8
aI1
aI9
aI10
aI7
aI0
aI1
aI2
aI1
aI28
aI5
aI1
aa(lp68
V0021200956
p69
aVMAR 13, 2013
p70
aVMIA @ PHI
p71
aVW
p72
aI37
aI8
aI19
aF0.421
aI1
aI4
aF0.25
aI10
aI12
aF0.833
aI2
aI5
aI7
aI8
aI2
aI1
aI4
aI1
aI27
aI7
aI1
aa(lp73
V0021200952
p74
aVMAR 12, 2013
p75
aVMIA vs. ATL
p76
aVW
p77
aI30
aI3
aI11
aF0.273
aI0
aI2
aF0.0
aI9
aI12
aF0.75
aI3
aI4
aI7
aI7
aI2
aI0
aI4
aI1
aI15
aI21
aI1
aa(lp78
V0021200938
p79
aVMAR 10, 2013
p80
aVMIA vs. IND
p81
aVW
p82
aI36
aI5
aI10
aF0.5
aI0
aI0
aF0.0
aI3
aI5
aF0.6
aI1
aI5
aI6
aI7
aI1
aI1
aI4
aI1
aI13
aI23
aI1
aa(lp83
V0021200921
p84
aVMAR 08, 2013
p85
aVMIA vs. PHI
p86
aVW
p87
aI34
aI10
aI17
aF0.588
aI2
aI3
aF0.667
aI3
aI5
aF0.6
aI3
aI7
aI10
aI5
aI1
aI2
aI3
aI2
aI25
aI19
aI1
aa(lp88
V0021200903
p89
aVMAR 06, 2013
p90
aVMIA vs. ORL
p91
aVW
p92
aI38
aI7
aI14
aF0.5
aI1
aI6
aF0.167
aI11
aI12
aF0.917
aI0
aI3
aI3
aI2
aI0
aI1
aI2
aI0
aI26
aI8
aI0
aa(lp93
V0021200892
p94
aVMAR 04, 2013
p95
aVMIA @ MIN
p96
aVW
p97
aI35
aI9
aI16
aF0.563
aI1
aI4
aF0.25
aI1
aI1
aF1.0
aI1
aI9
aI10
aI4
aI3
aI2
aI7
aI3
aI20
aI10
aI0
aa(lp98
V0021200880
p99
aVMAR 03, 2013
p100
aVMIA @ NYK
p101
aVW
p102
aI43
aI12
aI23
aF0.522
aI2
aI6
aF0.333
aI3
aI6
aF0.5
aI3
aI8
aI11
aI7
aI3
aI1
aI2
aI1
aI29
aI9
aI1
aa(lp103
V0021200868
p104
aVMAR 01, 2013
p105
aVMIA vs. MEM
p106
aVW
p107
aI42
aI4
aI14
aF0.286
aI2
aI4
aF0.5
aI8
aI12
aF0.667
aI1
aI7
aI8
aI10
aI2
aI1
aI1
aI1
aI18
aI-1
aI1
aa(lp108
V0021200845
p109
aVFEB 26, 2013
p110
aVMIA vs. SAC
p111
aVW
p112
aI48
aI14
aI23
aF0.609
aI1
aI2
aF0.5
aI11
aI12
aF0.917
aI3
aI5
aI8
aI16
aI2
aI1
aI2
aI1
aI40
aI11
aI1
aa(lp113
V0021200833
p114
aVFEB 24, 2013
p115
aVMIA vs. CLE
p116
aVW
p117
aI39
aI10
aI19
aF0.526
aI0
aI1
aF0.0
aI8
aI11
aF0.727
aI2
aI1
aI3
aI8
aI1
aI0
aI2
aI0
aI28
aI6
aI1
aa(lp118
V0021200826
p119
aVFEB 23, 2013
p120
aVMIA @ PHI
p121
aVW
p122
aI32
aI7
aI12
aF0.583
aI1
aI4
aF0.25
aI1
aI2
aF0.5
aI1
aI9
aI10
aI11
aI2
aI0
aI2
aI1
aI16
aI14
aI1
aa(lp123
V0021200809
p124
aVFEB 21, 2013
p125
aVMIA @ CHI
p126
aVW
p127
aI34
aI11
aI15
aF0.733
aI1
aI4
aF0.25
aI3
aI3
aF1.0
aI1
aI11
aI12
aI7
aI2
aI0
aI4
aI2
aI26
aI6
aI1
aa(lp128
V0021200802
p129
aVFEB 20, 2013
p130
aVMIA @ ATL
p131
aVW
p132
aI40
aI8
aI15
aF0.533
aI1
aI4
aF0.25
aI7
aI8
aF0.875
aI0
aI6
aI6
aI11
aI4
aI0
aI2
aI1
aI24
aI16
aI1
aa(lp133
V0021200787
p134
aVFEB 14, 2013
p135
aVMIA @ OKC
p136
aVW
p137
aI40
aI14
aI24
aF0.583
aI4
aI8
aF0.5
aI7
aI9
aF0.778
aI3
aI9
aI12
aI7
aI2
aI0
aI4
aI3
aI39
aI15
aI1
aa(lp138
V0021200770
p139
aVFEB 12, 2013
p140
aVMIA vs. POR
p141
aVW
p142
aI39
aI11
aI15
aF0.733
aI1
aI3
aF0.333
aI7
aI8
aF0.875
aI0
aI6
aI6
aI9
aI3
aI2
aI1
aI0
aI30
aI21
aI1
aa(lp143
V0021200753
p144
aVFEB 10, 2013
p145
aVMIA vs. LAL
p146
aVW
p147
aI36
aI12
aI18
aF0.667
aI1
aI2
aF0.5
aI7
aI8
aF0.875
aI1
aI6
aI7
aI4
aI3
aI0
aI4
aI4
aI32
aI7
aI1
aa(lp148
V0021200741
p149
aVFEB 08, 2013
p150
aVMIA vs. LAC
p151
aVW
p152
aI31
aI9
aI11
aF0.818
aI4
aI5
aF0.8
aI8
aI11
aF0.727
aI1
aI4
aI5
aI6
aI0
aI2
aI5
aI3
aI30
aI21
aI1
aa(lp153
V0021200726
p154
aVFEB 06, 2013
p155
aVMIA vs. HOU
p156
aVW
p157
aI37
aI11
aI18
aF0.611
aI3
aI6
aF0.5
aI7
aI10
aF0.7
aI1
aI5
aI6
aI5
aI0
aI2
aI4
aI2
aI32
aI4
aI1
aa(lp158
V0021200711
p159
aVFEB 04, 2013
p160
aVMIA vs. CHA
p161
aVW
p162
aI38
aI13
aI14
aF0.929
aI0
aI0
aF0.0
aI5
aI6
aF0.833
aI0
aI8
aI8
aI8
aI2
aI0
aI5
aI1
aI31
aI8
aI1
aa(lp163
V0021200707
p164
aVFEB 03, 2013
p165
aVMIA @ TOR
p166
aVW
p167
aI40
aI10
aI16
aF0.625
aI1
aI2
aF0.5
aI9
aI11
aF0.818
aI0
aI8
aI8
aI7
aI2
aI0
aI3
aI1
aI30
aI29
aI1
aa(lp168
V0021200685
p169
aVFEB 01, 2013
p170
aVMIA @ IND
p171
aVL
p172
aI42
aI9
aI17
aF0.529
aI1
aI3
aF0.333
aI9
aI11
aF0.818
aI1
aI5
aI6
aI3
aI1
aI1
aI3
aI4
aI28
aI-9
aI1
aa(lp173
V0021200675
p174
aVJAN 30, 2013
p175
aVMIA @ BKN
p176
aVW
p177
aI34
aI10
aI18
aF0.556
aI3
aI4
aF0.75
aI1
aI4
aF0.25
aI2
aI7
aI9
aI7
aI2
aI0
aI4
aI2
aI24
aI22
aI1
aa(lp178
V0021200652
p179
aVJAN 27, 2013
p180
aVMIA @ BOS
p181
aVL
p182
aI52
aI14
aI31
aF0.452
aI3
aI6
aF0.5
aI3
aI5
aF0.6
aI4
aI12
aI16
aI7
aI3
aI1
aI3
aI3
aI34
aI-2
aI1
aa(lp183
V0021200634
p184
aVJAN 25, 2013
p185
aVMIA vs. DET
p186
aVW
p187
aI33
aI9
aI14
aF0.643
aI0
aI1
aF0.0
aI5
aI6
aF0.833
aI1
aI6
aI7
aI7
aI1
aI0
aI2
aI0
aI23
aI22
aI1
aa(lp188
V0021200619
p189
aVJAN 23, 2013
p190
aVMIA vs. TOR
p191
aVW
p192
aI45
aI12
aI23
aF0.522
aI1
aI5
aF0.2
aI6
aI7
aF0.857
aI1
aI9
aI10
aI11
aI0
aI0
aI3
aI1
aI31
aI9
aI1
aa(lp193
V0021200583
p194
aVJAN 17, 2013
p195
aVMIA @ LAL
p196
aVW
p197
aI42
aI17
aI25
aF0.68
aI1
aI2
aF0.5
aI4
aI4
aF1.0
aI0
aI7
aI7
aI8
aI3
aI1
aI2
aI2
aI39
aI13
aI1
aa(lp198
V0021200579
p199
aVJAN 16, 2013
p200
aVMIA @ GSW
p201
aVW
p202
aI31
aI11
aI20
aF0.55
aI1
aI5
aF0.2
aI2
aI3
aF0.667
aI1
aI6
aI7
aI10
aI1
aI0
aI1
aI2
aI25
aI33
aI0
aa(lp203
V0021200561
p204
aVJAN 14, 2013
p205
aVMIA @ UTA
p206
aVL
p207
aI44
aI13
aI19
aF0.684
aI2
aI4
aF0.5
aI4
aI4
aF1.0
aI1
aI3
aI4
aI6
aI3
aI2
aI3
aI5
aI32
aI1
aI1
aa(lp208
V0021200548
p209
aVJAN 12, 2013
p210
aVMIA @ SAC
p211
aVW
p212
aI29
aI7
aI10
aF0.7
aI0
aI1
aF0.0
aI6
aI7
aF0.857
aI1
aI4
aI5
aI7
aI5
aI2
aI1
aI0
aI20
aI28
aI1
aa(lp213
V0021200529
p214
aVJAN 10, 2013
p215
aVMIA @ POR
p216
aVL
p217
aI43
aI6
aI16
aF0.375
aI1
aI5
aF0.2
aI2
aI5
aF0.4
aI0
aI10
aI10
aI9
aI2
aI1
aI4
aI3
aI15
aI-9
aI1
aa(lp218
V0021200512
p219
aVJAN 08, 2013
p220
aVMIA @ IND
p221
aVL
p222
aI43
aI10
aI20
aF0.5
aI1
aI1
aF1.0
aI1
aI4
aF0.25
aI3
aI7
aI10
aI4
aI1
aI2
aI7
aI2
aI22
aI-5
aI1
aa(lp223
V0021200500
p224
aVJAN 06, 2013
p225
aVMIA vs. WAS
p226
aVW
p227
aI35
aI9
aI17
aF0.529
aI2
aI3
aF0.667
aI4
aI4
aF1.0
aI1
aI1
aI2
aI7
aI0
aI1
aI1
aI0
aI24
aI26
aI1
aa(lp228
V0021200481
p229
aVJAN 04, 2013
p230
aVMIA vs. CHI
p231
aVL
p232
aI41
aI8
aI14
aF0.571
aI1
aI5
aF0.2
aI13
aI16
aF0.813
aI0
aI6
aI6
aI2
aI1
aI0
aI2
aI2
aI30
aI-18
aI1
aa(lp233
V0021200469
p234
aVJAN 02, 2013
p235
aVMIA vs. DAL
p236
aVW
p237
aI42
aI11
aI20
aF0.55
aI1
aI3
aF0.333
aI9
aI11
aF0.818
aI1
aI11
aI12
aI9
aI3
aI1
aI4
aI0
aI32
aI12
aI1
aa(lp238
V0021200454
p239
aVDEC 31, 2012
p240
aVMIA @ ORL
p241
aVW
p242
aI48
aI10
aI22
aF0.455
aI1
aI6
aF0.167
aI15
aI16
aF0.938
aI1
aI7
aI8
aI11
aI1
aI0
aI3
aI2
aI36
aI4
aI1
aa(lp243
V0021200445
p244
aVDEC 29, 2012
p245
aVMIA @ MIL
p246
aVL
p247
aI36
aI11
aI20
aF0.55
aI1
aI2
aF0.5
aI3
aI5
aF0.6
aI1
aI5
aI6
aI7
aI2
aI1
aI6
aI2
aI26
aI-8
aI1
aa(lp248
V0021200428
p249
aVDEC 28, 2012
p250
aVMIA @ DET
p251
aVL
p252
aI44
aI15
aI22
aF0.682
aI2
aI4
aF0.5
aI3
aI4
aF0.75
aI1
aI5
aI6
aI5
aI6
aI1
aI3
aI1
aI35
aI-2
aI1
aa(lp253
V0021200411
p254
aVDEC 26, 2012
p255
aVMIA @ CHA
p256
aVW
p257
aI39
aI9
aI19
aF0.474
aI2
aI4
aF0.5
aI7
aI8
aF0.875
aI2
aI10
aI12
aI8
aI4
aI2
aI3
aI1
aI27
aI12
aI1
aa(lp258
V0021200407
p259
aVDEC 25, 2012
p260
aVMIA vs. OKC
p261
aVW
p262
aI42
aI12
aI20
aF0.6
aI0
aI3
aF0.0
aI5
aI5
aF1.0
aI3
aI5
aI8
aI9
aI2
aI1
aI3
aI3
aI29
aI13
aI0
aa(lp263
V0021200392
p264
aVDEC 22, 2012
p265
aVMIA vs. UTA
p266
aVW
p267
aI38
aI11
aI20
aF0.55
aI1
aI1
aF1.0
aI7
aI10
aF0.7
aI1
aI8
aI9
aI7
aI0
aI0
aI4
aI0
aI30
aI14
aI1
aa(lp268
V0021200378
p269
aVDEC 20, 2012
p270
aVMIA @ DAL
p271
aVW
p272
aI31
aI9
aI13
aF0.692
aI3
aI5
aF0.6
aI3
aI4
aF0.75
aI0
aI9
aI9
aI5
aI1
aI1
aI5
aI0
aI24
aI25
aI1
aa(lp273
V0021200359
p274
aVDEC 18, 2012
p275
aVMIA vs. MIN
p276
aVW
p277
aI42
aI8
aI18
aF0.444
aI2
aI5
aF0.4
aI4
aI5
aF0.8
aI0
aI6
aI6
aI11
aI1
aI4
aI0
aI0
aI22
aI12
aI1
aa(lp278
V0021200339
p279
aVDEC 15, 2012
p280
aVMIA vs. WAS
p281
aVW
p282
aI31
aI8
aI15
aF0.533
aI0
aI3
aF0.0
aI7
aI11
aF0.636
aI0
aI10
aI10
aI5
aI1
aI0
aI2
aI0
aI23
aI36
aI1
aa(lp283
V0021200314
p284
aVDEC 12, 2012
p285
aVMIA vs. GSW
p286
aVL
p287
aI42
aI12
aI23
aF0.522
aI2
aI4
aF0.5
aI5
aI5
aF1.0
aI1
aI2
aI3
aI5
aI1
aI0
aI4
aI0
aI31
aI-3
aI1
aa(lp288
V0021200300
p289
aVDEC 10, 2012
p290
aVMIA vs. ATL
p291
aVW
p292
aI40
aI10
aI16
aF0.625
aI1
aI2
aF0.5
aI6
aI7
aF0.857
aI1
aI6
aI7
aI6
aI2
aI0
aI3
aI0
aI27
aI12
aI1
aa(lp293
V0021200286
p294
aVDEC 08, 2012
p295
aVMIA vs. NOH
p296
aVW
p297
aI36
aI11
aI16
aF0.688
aI0
aI0
aF0.0
aI2
aI3
aF0.667
aI1
aI4
aI5
aI7
aI2
aI0
aI4
aI2
aI24
aI10
aI1
aa(lp298
V0021200268
p299
aVDEC 06, 2012
p300
aVMIA vs. NYK
p301
aVL
p302
aI39
aI11
aI20
aF0.55
aI3
aI5
aF0.6
aI6
aI9
aF0.667
aI2
aI8
aI10
aI9
aI3
aI0
aI2
aI0
aI31
aI-17
aI1
aa(lp303
V0021200252
p304
aVDEC 04, 2012
p305
aVMIA @ WAS
p306
aVL
p307
aI43
aI12
aI24
aF0.5
aI1
aI4
aF0.25
aI1
aI3
aF0.333
aI2
aI11
aI13
aI11
aI3
aI2
aI3
aI1
aI26
aI-3
aI1
aa(lp308
V0021200233
p309
aVDEC 01, 2012
p310
aVMIA vs. BKN
p311
aVW
p312
aI37
aI8
aI15
aF0.533
aI1
aI2
aF0.5
aI4
aI6
aF0.667
aI1
aI8
aI9
aI6
aI1
aI0
aI2
aI3
aI21
aI14
aI1
aa(lp313
V0021200220
p314
aVNOV 29, 2012
p315
aVMIA vs. SAS
p316
aVW
p317
aI39
aI9
aI16
aF0.563
aI2
aI5
aF0.4
aI3
aI6
aF0.5
aI3
aI6
aI9
aI7
aI4
aI0
aI4
aI2
aI23
aI-1
aI1
aa(lp318
V0021200186
p319
aVNOV 24, 2012
p320
aVMIA vs. CLE
p321
aVW
p322
aI40
aI10
aI16
aF0.625
aI2
aI5
aF0.4
aI8
aI9
aF0.889
aI1
aI5
aI6
aI5
aI0
aI1
aI7
aI3
aI30
aI7
aI1
aa(lp323
V0021200163
p324
aVNOV 21, 2012
p325
aVMIA vs. MIL
p326
aVW
p327
aI43
aI11
aI21
aF0.524
aI2
aI4
aF0.5
aI4
aI8
aF0.5
aI2
aI8
aI10
aI8
aI1
aI1
aI1
aI3
aI28
aI5
aI1
aa(lp328
V0021200138
p329
aVNOV 17, 2012
p330
aVMIA @ PHX
p331
aVW
p332
aI41
aI8
aI20
aF0.4
aI1
aI3
aF0.333
aI4
aI7
aF0.571
aI0
aI7
aI7
aI3
aI2
aI0
aI1
aI1
aI21
aI20
aI1
aa(lp333
V0021200121
p334
aVNOV 15, 2012
p335
aVMIA @ DEN
p336
aVW
p337
aI42
aI11
aI23
aF0.478
aI0
aI1
aF0.0
aI5
aI6
aF0.833
aI1
aI6
aI7
aI12
aI1
aI3
aI4
aI0
aI27
aI9
aI0
aa(lp338
V0021200117
p339
aVNOV 14, 2012
p340
aVMIA @ LAC
p341
aVL
p342
aI41
aI12
aI23
aF0.522
aI0
aI3
aF0.0
aI6
aI9
aF0.667
aI0
aI5
aI5
aI7
aI1
aI2
aI4
aI3
aI30
aI-15
aI1
aa(lp343
V0021200099
p344
aVNOV 12, 2012
p345
aVMIA @ HOU
p346
aVW
p347
aI40
aI14
aI26
aF0.538
aI5
aI8
aF0.625
aI5
aI8
aF0.625
aI1
aI9
aI10
aI6
aI0
aI0
aI0
aI1
aI38
aI8
aI1
aa(lp348
V0021200092
p349
aVNOV 11, 2012
p350
aVMIA @ MEM
p351
aVL
p352
aI36
aI10
aI19
aF0.526
aI0
aI1
aF0.0
aI0
aI4
aF0.0
aI3
aI7
aI10
aI6
aI2
aI1
aI2
aI2
aI20
aI-18
aI1
aa(lp353
V0021200072
p354
aVNOV 09, 2012
p355
aVMIA @ ATL
p356
aVW
p357
aI36
aI10
aI17
aF0.588
aI0
aI2
aF0.0
aI1
aI3
aF0.333
aI2
aI9
aI11
aI9
aI1
aI0
aI2
aI2
aI21
aI0
aI1
aa(lp358
V0021200056
p359
aVNOV 07, 2012
p360
aVMIA vs. BKN
p361
aVW
p362
aI30
aI7
aI12
aF0.583
aI2
aI3
aF0.667
aI4
aI4
aF1.0
aI4
aI8
aI12
aI8
aI1
aI0
aI2
aI1
aI20
aI18
aI0
aa(lp363
V0021200044
p364
aVNOV 05, 2012
p365
aVMIA vs. PHX
p366
aVW
p367
aI30
aI10
aI17
aF0.588
aI2
aI3
aF0.667
aI1
aI3
aF0.333
aI3
aI8
aI11
aI1
aI0
aI0
aI3
aI2
aI23
aI25
aI1
aa(lp368
V0021200030
p369
aVNOV 03, 2012
p370
aVMIA vs. DEN
p371
aVW
p372
aI39
aI8
aI17
aF0.471
aI0
aI1
aF0.0
aI4
aI4
aF1.0
aI1
aI8
aI9
aI11
aI0
aI2
aI0
aI2
aI20
aI7
aI1
aa(lp373
V0021200020
p374
aVNOV 02, 2012
p375
aVMIA @ NYK
p376
aVL
p377
aI37
aI8
aI16
aF0.5
aI2
aI3
aF0.667
aI5
aI6
aF0.833
aI0
aI7
aI7
aI5
aI0
aI3
aI5
aI2
aI23
aI-21
aI1
aa(lp378
V0021200002
p379
aVOCT 30, 2012
p380
aVMIA vs. BOS
p381
aVW
p382
aI29
aI10
aI16
aF0.625
aI2
aI4
aF0.5
aI4
aI5
aF0.8
aI1
aI9
aI10
aI3
aI2
aI0
aI0
aI2
aI26
aI12
aI1
aasS'name'
p383
VLeBron James
p384
s.