(dp0
S'stats'
p1
(lp2
(lp3
V0021200006
p4
aVOCT 31, 2012
p5
aVHOU @ DET
p6
aVW
p7
aI24
aI5
aI6
aF0.833
aI5
aI6
aF0.833
aI0
aI0
aF0.0
aI1
aI6
aI7
aI0
aI1
aI0
aI3
aI3
aI15
aI8
aa(lp8
V0021200018
p9
aVNOV 02, 2012
p10
aVHOU @ ATL
p11
aVW
p12
aI26
aI2
aI8
aF0.25
aI1
aI5
aF0.2
aI2
aI2
aF1.0
aI0
aI2
aI2
aI2
aI2
aI0
aI2
aI1
aI7
aI-6
aa(lp13
V0021200032
p14
aVNOV 03, 2012
p15
aVHOU vs. POR
p16
aVL
p17
aI20
aI1
aI7
aF0.143
aI0
aI5
aF0.0
aI0
aI0
aF0.0
aI0
aI4
aI4
aI1
aI1
aI0
aI0
aI3
aI2
aI0
aa(lp18
V0021200059
p19
aVNOV 07, 2012
p20
aVHOU vs. DEN
p21
aVL
p22
aI31
aI6
aI14
aF0.429
aI4
aI10
aF0.4
aI3
aI4
aF0.75
aI1
aI4
aI5
aI2
aI2
aI0
aI1
aI0
aI19
aI0
aa(lp23
V0021200073
p24
aVNOV 09, 2012
p25
aVHOU @ MEM
p26
aVL
p27
aI27
aI3
aI9
aF0.333
aI2
aI7
aF0.286
aI0
aI0
aF0.0
aI0
aI4
aI4
aI2
aI1
aI1
aI2
aI0
aI8
aI-1
aa(lp28
V0021200085
p29
aVNOV 10, 2012
p30
aVHOU vs. DET
p31
aVW
p32
aI23
aI2
aI7
aF0.286
aI1
aI4
aF0.25
aI0
aI1
aF0.0
aI0
aI3
aI3
aI1
aI1
aI0
aI0
aI1
aI5
aI12
aa(lp33
V0021200099
p34
aVNOV 12, 2012
p35
aVHOU vs. MIA
p36
aVL
p37
aI24
aI3
aI10
aF0.3
aI2
aI7
aF0.286
aI0
aI0
aF0.0
aI0
aI4
aI4
aI3
aI0
aI0
aI1
aI2
aI8
aI19
aa(lp38
V0021200112
p39
aVNOV 14, 2012
p40
aVHOU vs. NOH
p41
aVW
p42
aI15
aI0
aI5
aF0.0
aI0
aI3
aF0.0
aI1
aI1
aF1.0
aI0
aI2
aI2
aI4
aI0
aI0
aI1
aI1
aI1
aI7
aa(lp43
V0021200237
p44
aVDEC 01, 2012
p45
aVHOU vs. UTA
p46
aVW
p47
aI17
aI5
aI7
aF0.714
aI3
aI5
aF0.6
aI0
aI0
aF0.0
aI0
aI5
aI5
aI3
aI1
aI0
aI0
aI0
aI13
aI17
aa(lp48
V0021200256
p49
aVDEC 04, 2012
p50
aVHOU vs. LAL
p51
aVW
p52
aI31
aI6
aI15
aF0.4
aI3
aI10
aF0.3
aI0
aI0
aF0.0
aI0
aI4
aI4
aI3
aI1
aI0
aI0
aI3
aI15
aI20
aa(lp53
V0021200278
p54
aVDEC 07, 2012
p55
aVHOU @ SAS
p56
aVL
p57
aI18
aI3
aI7
aF0.429
aI3
aI5
aF0.6
aI0
aI0
aF0.0
aI0
aI3
aI3
aI1
aI0
aI0
aI1
aI2
aI9
aI-16
aa(lp58
V0021200290
p59
aVDEC 08, 2012
p60
aVHOU vs. DAL
p61
aVL
p62
aI35
aI3
aI11
aF0.273
aI2
aI10
aF0.2
aI2
aI2
aF1.0
aI0
aI2
aI2
aI3
aI0
aI0
aI1
aI2
aI10
aI8
aa(lp63
V0021200301
p64
aVDEC 10, 2012
p65
aVHOU vs. SAS
p66
aVL
p67
aI38
aI2
aI12
aF0.167
aI1
aI5
aF0.2
aI0
aI1
aF0.0
aI0
aI4
aI4
aI5
aI3
aI1
aI3
aI0
aI5
aI2
aa(lp68
V0021200317
p69
aVDEC 12, 2012
p70
aVHOU vs. WAS
p71
aVW
p72
aI14
aI1
aI5
aF0.2
aI0
aI3
aF0.0
aI0
aI0
aF0.0
aI0
aI4
aI4
aI1
aI1
aI0
aI3
aI3
aI2
aI8
aa(lp73
V0021200332
p74
aVDEC 14, 2012
p75
aVHOU vs. BOS
p76
aVW
p77
aI23
aI3
aI6
aF0.5
aI3
aI5
aF0.6
aI0
aI0
aF0.0
aI0
aI0
aI0
aI2
aI0
aI0
aI5
aI1
aI9
aI-4
aa(lp78
V0021200346
p79
aVDEC 16, 2012
p80
aVHOU @ TOR
p81
aVL
p82
aI22
aI4
aI11
aF0.364
aI2
aI7
aF0.286
aI0
aI0
aF0.0
aI1
aI3
aI4
aI1
aI1
aI0
aI0
aI1
aI10
aI6
aa(lp83
V0021200351
p84
aVDEC 17, 2012
p85
aVHOU @ NYK
p86
aVW
p87
aI29
aI6
aI9
aF0.667
aI4
aI7
aF0.571
aI0
aI0
aF0.0
aI0
aI5
aI5
aI0
aI0
aI0
aI2
aI2
aI16
aI-2
aa(lp88
V0021200372
p89
aVDEC 19, 2012
p90
aVHOU vs. PHI
p91
aVW
p92
aI17
aI0
aI3
aF0.0
aI0
aI2
aF0.0
aI0
aI0
aF0.0
aI0
aI2
aI2
aI1
aI0
aI0
aI1
aI1
aI0
aI-12
aa(lp93
V0021200394
p94
aVDEC 22, 2012
p95
aVHOU vs. MEM
p96
aVW
p97
aI27
aI4
aI9
aF0.444
aI3
aI8
aF0.375
aI0
aI0
aF0.0
aI0
aI3
aI3
aI4
aI1
aI0
aI0
aI1
aI11
aI22
aa(lp98
V0021200408
p99
aVDEC 25, 2012
p100
aVHOU @ CHI
p101
aVW
p102
aI26
aI3
aI6
aF0.5
aI1
aI2
aF0.5
aI0
aI0
aF0.0
aI0
aI4
aI4
aI1
aI2
aI0
aI1
aI4
aI7
aI3
aa(lp103
V0021200417
p104
aVDEC 26, 2012
p105
aVHOU @ MIN
p106
aVW
p107
aI35
aI4
aI13
aF0.308
aI3
aI11
aF0.273
aI0
aI0
aF0.0
aI0
aI5
aI5
aI4
aI0
aI0
aI1
aI4
aI11
aI14
aa(lp108
V0021200455
p109
aVDEC 31, 2012
p110
aVHOU vs. ATL
p111
aVW
p112
aI30
aI8
aI10
aF0.8
aI6
aI8
aF0.75
aI0
aI0
aF0.0
aI0
aI4
aI4
aI8
aI1
aI0
aI0
aI0
aI22
aI34
aa(lp113
V0021200471
p114
aVJAN 02, 2013
p115
aVHOU vs. NOH
p116
aVW
p117
aI24
aI1
aI6
aF0.167
aI0
aI4
aF0.0
aI0
aI0
aF0.0
aI0
aI3
aI3
aI2
aI1
aI0
aI1
aI1
aI2
aI11
aa(lp118
V0021200486
p119
aVJAN 04, 2013
p120
aVHOU @ MIL
p121
aVW
p122
aI28
aI8
aI11
aF0.727
aI6
aI7
aF0.857
aI0
aI0
aF0.0
aI0
aI3
aI3
aI1
aI2
aI0
aI1
aI0
aI22
aI5
aa(lp123
V0021200493
p124
aVJAN 05, 2013
p125
aVHOU @ CLE
p126
aVW
p127
aI28
aI3
aI6
aF0.5
aI2
aI5
aF0.4
aI1
aI1
aF1.0
aI0
aI3
aI3
aI2
aI1
aI0
aI2
aI2
aI9
aI17
aa(lp128
V0021200514
p129
aVJAN 08, 2013
p130
aVHOU vs. LAL
p131
aVW
p132
aI23
aI7
aI14
aF0.5
aI5
aI7
aF0.714
aI0
aI0
aF0.0
aI2
aI4
aI6
aI3
aI2
aI0
aI1
aI1
aI19
aI24
aa(lp133
V0021200521
p134
aVJAN 09, 2013
p135
aVHOU @ NOH
p136
aVL
p137
aI26
aI3
aI10
aF0.3
aI2
aI6
aF0.333
aI1
aI2
aF0.5
aI0
aI1
aI1
aI1
aI1
aI0
aI1
aI3
aI9
aI-14
aa(lp138
V0021200531
p139
aVJAN 11, 2013
p140
aVHOU @ BOS
p141
aVL
p142
aI24
aI1
aI7
aF0.143
aI1
aI7
aF0.143
aI2
aI2
aF1.0
aI0
aI2
aI2
aI4
aI0
aI0
aI1
aI2
aI5
aI-8
aa(lp143
V0021200544
p144
aVJAN 12, 2013
p145
aVHOU @ PHI
p146
aVL
p147
aI27
aI6
aI11
aF0.545
aI4
aI7
aF0.571
aI0
aI0
aF0.0
aI0
aI3
aI3
aI3
aI1
aI0
aI2
aI1
aI16
aI-10
aa(lp148
V0021200567
p149
aVJAN 15, 2013
p150
aVHOU vs. LAC
p151
aVL
p152
aI29
aI5
aI10
aF0.5
aI2
aI7
aF0.286
aI4
aI4
aF1.0
aI0
aI2
aI2
aI3
aI3
aI0
aI2
aI2
aI16
aI-6
aa(lp153
V0021200575
p154
aVJAN 16, 2013
p155
aVHOU @ DAL
p156
aVL
p157
aI25
aI2
aI7
aF0.286
aI1
aI4
aF0.25
aI0
aI0
aF0.0
aI0
aI1
aI1
aI1
aI1
aI0
aI5
aI2
aI5
aI-8
aa(lp158
V0021200587
p159
aVJAN 18, 2013
p160
aVHOU @ IND
p161
aVL
p162
aI24
aI6
aI11
aF0.545
aI3
aI6
aF0.5
aI2
aI2
aF1.0
aI0
aI3
aI3
aI5
aI2
aI0
aI0
aI1
aI17
aI-4
aa(lp163
V0021200597
p164
aVJAN 19, 2013
p165
aVHOU @ MIN
p166
aVL
p167
aI34
aI5
aI12
aF0.417
aI4
aI9
aF0.444
aI1
aI2
aF0.5
aI0
aI3
aI3
aI0
aI1
aI0
aI1
aI3
aI15
aI-3
aa(lp168
V0021200607
p169
aVJAN 21, 2013
p170
aVHOU @ CHA
p171
aVW
p172
aI25
aI6
aI14
aF0.429
aI3
aI8
aF0.375
aI1
aI2
aF0.5
aI1
aI2
aI3
aI1
aI0
aI0
aI1
aI2
aI16
aI9
aa(lp173
V0021200622
p174
aVJAN 23, 2013
p175
aVHOU vs. DEN
p176
aVL
p177
aI31
aI6
aI12
aF0.5
aI3
aI8
aF0.375
aI0
aI0
aF0.0
aI0
aI3
aI3
aI1
aI1
aI0
aI1
aI3
aI15
aI-12
aa(lp178
V0021200638
p179
aVJAN 25, 2013
p180
aVHOU @ NOH
p181
aVW
p182
aI25
aI5
aI9
aF0.556
aI4
aI6
aF0.667
aI0
aI0
aF0.0
aI1
aI2
aI3
aI2
aI0
aI1
aI0
aI1
aI14
aI13
aa(lp183
V0021200646
p184
aVJAN 26, 2013
p185
aVHOU vs. BKN
p186
aVW
p187
aI28
aI5
aI9
aF0.556
aI3
aI5
aF0.6
aI0
aI0
aF0.0
aI0
aI5
aI5
aI0
aI2
aI0
aI1
aI2
aI13
aI5
aa(lp188
V0021200665
p189
aVJAN 28, 2013
p190
aVHOU @ UTA
p191
aVW
p192
aI22
aI5
aI9
aF0.556
aI4
aI6
aF0.667
aI0
aI0
aF0.0
aI0
aI1
aI1
aI2
aI0
aI0
aI0
aI2
aI14
aI21
aa(lp193
V0021200679
p194
aVJAN 30, 2013
p195
aVHOU @ DEN
p196
aVL
p197
aI25
aI2
aI7
aF0.286
aI2
aI7
aF0.286
aI2
aI2
aF1.0
aI0
aI2
aI2
aI3
aI1
aI1
aI1
aI3
aI8
aI-10
aa(lp198
V0021200699
p199
aVFEB 02, 2013
p200
aVHOU vs. CHA
p201
aVW
p202
aI7
aI0
aI2
aF0.0
aI0
aI1
aF0.0
aI0
aI0
aF0.0
aI0
aI1
aI1
aI1
aI0
aI0
aI0
aI0
aI0
aI5
aa(lp203
V0021200743
p204
aVFEB 08, 2013
p205
aVHOU vs. POR
p206
aVW
p207
aI22
aI2
aI7
aF0.286
aI1
aI5
aF0.2
aI0
aI0
aF0.0
aI0
aI0
aI0
aI1
aI0
aI0
aI0
aI2
aI5
aI7
aa(lp208
V0021200760
p209
aVFEB 10, 2013
p210
aVHOU @ SAC
p211
aVL
p212
aI29
aI5
aI13
aF0.385
aI3
aI9
aF0.333
aI2
aI2
aF1.0
aI0
aI1
aI1
aI3
aI0
aI1
aI1
aI2
aI15
aI-7
aa(lp213
V0021200774
p214
aVFEB 12, 2013
p215
aVHOU @ GSW
p216
aVW
p217
aI23
aI4
aI8
aF0.5
aI2
aI5
aF0.4
aI0
aI0
aF0.0
aI0
aI3
aI3
aI1
aI1
aI1
aI1
aI0
aI10
aI5
aa(lp218
V0021200786
p219
aVFEB 13, 2013
p220
aVHOU @ LAC
p221
aVL
p222
aI23
aI1
aI6
aF0.167
aI1
aI5
aF0.2
aI0
aI0
aF0.0
aI0
aI1
aI1
aI2
aI2
aI0
aI2
aI2
aI3
aI-3
aa(lp223
V0021200804
p224
aVFEB 20, 2013
p225
aVHOU vs. OKC
p226
aVW
p227
aI42
aI3
aI12
aF0.25
aI3
aI10
aF0.3
aI0
aI0
aF0.0
aI0
aI6
aI6
aI5
aI4
aI0
aI2
aI5
aI9
aI8
aa(lp228
V0021200815
p229
aVFEB 22, 2013
p230
aVHOU @ BKN
p231
aVW
p232
aI36
aI8
aI14
aF0.571
aI6
aI9
aF0.667
aI0
aI0
aF0.0
aI0
aI5
aI5
aI5
aI1
aI0
aI1
aI1
aI22
aI5
aa(lp233
V0021200823
p234
aVFEB 23, 2013
p235
aVHOU @ WAS
p236
aVL
p237
aI35
aI4
aI14
aF0.286
aI4
aI12
aF0.333
aI0
aI0
aF0.0
aI1
aI4
aI5
aI3
aI0
aI0
aI3
aI2
aI12
aI-4
aa(lp238
V0021200856
p239
aVFEB 27, 2013
p240
aVHOU vs. MIL
p241
aVL
p242
aI31
aI5
aI14
aF0.357
aI1
aI6
aF0.167
aI1
aI1
aF1.0
aI0
aI1
aI1
aI1
aI1
aI0
aI0
aI2
aI12
aI-1
aa(lp243
V0021200866
p244
aVMAR 01, 2013
p245
aVHOU @ ORL
p246
aVW
p247
aI29
aI6
aI12
aF0.5
aI5
aI9
aF0.556
aI4
aI4
aF1.0
aI1
aI2
aI3
aI1
aI0
aI0
aI0
aI2
aI21
aI7
aa(lp248
V0021200885
p249
aVMAR 03, 2013
p250
aVHOU vs. DAL
p251
aVW
p252
aI17
aI1
aI7
aF0.143
aI0
aI5
aF0.0
aI1
aI1
aF1.0
aI0
aI1
aI1
aI2
aI0
aI0
aI1
aI0
aI3
aI4
aa(lp253
V0021200908
p254
aVMAR 06, 2013
p255
aVHOU @ DAL
p256
aVL
p257
aI21
aI4
aI9
aF0.444
aI3
aI7
aF0.429
aI0
aI0
aF0.0
aI0
aI6
aI6
aI0
aI0
aI0
aI1
aI4
aI11
aI4
aa(lp258
V0021200926
p259
aVMAR 08, 2013
p260
aVHOU @ GSW
p261
aVW
p262
aI25
aI3
aI9
aF0.333
aI2
aI8
aF0.25
aI4
aI5
aF0.8
aI0
aI4
aI4
aI0
aI2
aI0
aI1
aI2
aI12
aI18
aa(lp263
V0021200932
p264
aVMAR 09, 2013
p265
aVHOU @ PHX
p266
aVL
p267
aI29
aI8
aI15
aF0.533
aI5
aI9
aF0.556
aI0
aI0
aF0.0
aI0
aI5
aI5
aI1
aI2
aI0
aI0
aI1
aI21
aI-7
aa(lp268
V0021200961
p269
aVMAR 13, 2013
p270
aVHOU vs. PHX
p271
aVW
p272
aI15
aI2
aI5
aF0.4
aI1
aI1
aF1.0
aI0
aI0
aF0.0
aI0
aI3
aI3
aI1
aI1
aI0
aI0
aI0
aI5
aI10
aa(lp273
V0021200973
p274
aVMAR 15, 2013
p275
aVHOU vs. MIN
p276
aVW
p277
aI29
aI3
aI9
aF0.333
aI1
aI5
aF0.2
aI2
aI2
aF1.0
aI4
aI6
aI10
aI2
aI1
aI1
aI0
aI1
aI9
aI4
aa(lp278
V0021200988
p279
aVMAR 17, 2013
p280
aVHOU vs. GSW
p281
aVL
p282
aI23
aI4
aI11
aF0.364
aI2
aI7
aF0.286
aI2
aI2
aF1.0
aI0
aI1
aI1
aI1
aI2
aI1
aI0
aI1
aI12
aI-21
aa(lp283
V0021201014
p284
aVMAR 20, 2013
p285
aVHOU vs. UTA
p286
aVW
p287
aI24
aI4
aI8
aF0.5
aI1
aI5
aF0.2
aI0
aI0
aF0.0
aI1
aI3
aI4
aI1
aI2
aI0
aI0
aI1
aI9
aI6
aa(lp288
V0021201028
p289
aVMAR 22, 2013
p290
aVHOU vs. CLE
p291
aVW
p292
aI20
aI3
aI7
aF0.429
aI2
aI6
aF0.333
aI0
aI0
aF0.0
aI0
aI4
aI4
aI2
aI1
aI0
aI1
aI1
aI8
aI22
aa(lp293
V0021201042
p294
aVMAR 24, 2013
p295
aVHOU vs. SAS
p296
aVW
p297
aI29
aI4
aI10
aF0.4
aI1
aI6
aF0.167
aI0
aI0
aF0.0
aI0
aI2
aI2
aI1
aI2
aI0
aI2
aI1
aI9
aI8
aa(lp298
V0021201064
p299
aVMAR 27, 2013
p300
aVHOU vs. IND
p301
aVL
p302
aI16
aI2
aI6
aF0.333
aI1
aI2
aF0.5
aI0
aI0
aF0.0
aI1
aI1
aI2
aI0
aI1
aI0
aI1
aI3
aI5
aI-5
aa(lp303
V0021201079
p304
aVMAR 29, 2013
p305
aVHOU @ MEM
p306
aVL
p307
aI28
aI4
aI11
aF0.364
aI2
aI7
aF0.286
aI5
aI5
aF1.0
aI0
aI3
aI3
aI2
aI2
aI0
aI2
aI3
aI15
aI4
aa(lp308
V0021201088
p309
aVMAR 30, 2013
p310
aVHOU vs. LAC
p311
aVW
p312
aI23
aI4
aI8
aF0.5
aI2
aI5
aF0.4
aI1
aI1
aF1.0
aI0
aI2
aI2
aI2
aI2
aI0
aI2
aI1
aI11
aI9
aa(lp313
V0021201104
p314
aVAPR 01, 2013
p315
aVHOU vs. ORL
p316
aVW
p317
aI27
aI4
aI15
aF0.267
aI1
aI10
aF0.1
aI3
aI4
aF0.75
aI3
aI3
aI6
aI2
aI0
aI0
aI0
aI2
aI12
aI-7
aa(lp318
V0021201184
p319
aVAPR 12, 2013
p320
aVHOU vs. MEM
p321
aVL
p322
aI15
aI0
aI3
aF0.0
aI0
aI3
aF0.0
aI0
aI0
aF0.0
aI0
aI1
aI1
aI1
aI0
aI0
aI1
aI1
aI0
aI-3
aa(lp323
V0021201200
p324
aVAPR 14, 2013
p325
aVHOU vs. SAC
p326
aVW
p327
aI25
aI5
aI11
aF0.455
aI4
aI9
aF0.444
aI0
aI0
aF0.0
aI0
aI3
aI3
aI4
aI0
aI0
aI0
aI2
aI14
aI-1
aa(lp328
V0021201211
p329
aVAPR 15, 2013
p330
aVHOU @ PHX
p331
aVL
p332
aI31
aI8
aI15
aF0.533
aI6
aI9
aF0.667
aI1
aI1
aF1.0
aI0
aI8
aI8
aI2
aI2
aI1
aI1
aI3
aI23
aI7
aa(lp333
V0021201228
p334
aVAPR 17, 2013
p335
aVHOU @ LAL
p336
aVL
p337
aI15
aI0
aI4
aF0.0
aI0
aI2
aF0.0
aI0
aI0
aF0.0
aI0
aI2
aI2
aI2
aI1
aI0
aI0
aI3
aI0
aI1
aasS'name'
p338
VCarlos Delfino
p339
sS'weight'
p340
V230
p341
sS'age'
p342
I30
sS'experience'
p343
I8
sS'height'
p344
V6-6
p345
sS'position'
p346
VGuard-Forward
p347
s.