(dp0
S'age'
p1
I28
sS'stats'
p2
(lp3
(lp4
V0021201227
p5
aVAPR 17, 2013
p6
aVDEN vs. PHX
p7
aVW
p8
aI31
aI8
aI14
aF0.571
aI0
aI2
aF0.0
aI4
aI6
aF0.667
aI1
aI4
aI5
aI5
aI2
aI2
aI3
aI0
aI20
aI14
aa(lp9
V0021201207
p10
aVAPR 15, 2013
p11
aVDEN @ MIL
p12
aVW
p13
aI35
aI5
aI9
aF0.556
aI2
aI4
aF0.5
aI1
aI2
aF0.5
aI2
aI6
aI8
aI7
aI1
aI2
aI1
aI1
aI13
aI6
aa(lp14
V0021201198
p15
aVAPR 14, 2013
p16
aVDEN vs. POR
p17
aVW
p18
aI37
aI11
aI17
aF0.647
aI2
aI5
aF0.4
aI4
aI5
aF0.8
aI1
aI6
aI7
aI9
aI3
aI3
aI2
aI1
aI28
aI23
aa(lp19
V0021201185
p20
aVAPR 12, 2013
p21
aVDEN @ DAL
p22
aVL
p23
aI43
aI7
aI15
aF0.467
aI3
aI6
aF0.5
aI1
aI3
aF0.333
aI1
aI4
aI5
aI6
aI1
aI0
aI5
aI5
aI18
aI-3
aa(lp24
V0021201172
p25
aVAPR 10, 2013
p26
aVDEN vs. SAS
p27
aVW
p28
aI43
aI5
aI11
aF0.455
aI1
aI1
aF1.0
aI1
aI4
aF0.25
aI2
aI11
aI13
aI10
aI3
aI0
aI7
aI2
aI12
aI5
aa(lp29
V0021201144
p30
aVAPR 06, 2013
p31
aVDEN vs. HOU
p32
aVW
p33
aI37
aI7
aI13
aF0.538
aI2
aI6
aF0.333
aI2
aI3
aF0.667
aI0
aI7
aI7
aI14
aI2
aI0
aI2
aI2
aI18
aI14
aa(lp34
V0021201124
p35
aVAPR 04, 2013
p36
aVDEN vs. DAL
p37
aVW
p38
aI41
aI3
aI13
aF0.231
aI1
aI3
aF0.333
aI1
aI2
aF0.5
aI3
aI6
aI9
aI8
aI1
aI0
aI3
aI0
aI8
aI1
aa(lp39
V0021201118
p40
aVAPR 03, 2013
p41
aVDEN @ UTA
p42
aVW
p43
aI32
aI4
aI10
aF0.4
aI1
aI4
aF0.25
aI1
aI4
aF0.25
aI0
aI0
aI0
aI6
aI2
aI1
aI3
aI2
aI10
aI9
aa(lp44
V0021201083
p45
aVMAR 29, 2013
p46
aVDEN vs. BKN
p47
aVW
p48
aI32
aI4
aI5
aF0.8
aI1
aI1
aF1.0
aI0
aI2
aF0.0
aI2
aI1
aI3
aI8
aI2
aI1
aI3
aI2
aI9
aI5
aa(lp49
V0021201067
p50
aVMAR 27, 2013
p51
aVDEN @ SAS
p52
aVL
p53
aI37
aI4
aI9
aF0.444
aI0
aI2
aF0.0
aI2
aI3
aF0.667
aI1
aI1
aI2
aI7
aI1
aI0
aI2
aI0
aI10
aI-2
aa(lp54
V0021201051
p55
aVMAR 25, 2013
p56
aVDEN @ NOH
p57
aVL
p58
aI35
aI2
aI5
aF0.4
aI0
aI2
aF0.0
aI2
aI4
aF0.5
aI0
aI1
aI1
aI4
aI1
aI0
aI1
aI2
aI6
aI-17
aa(lp59
V0021201037
p60
aVMAR 23, 2013
p61
aVDEN vs. SAC
p62
aVW
p63
aI37
aI5
aI16
aF0.313
aI2
aI5
aF0.4
aI3
aI4
aF0.75
aI2
aI3
aI5
aI8
aI2
aI0
aI3
aI1
aI15
aI7
aa(lp64
V0021201020
p65
aVMAR 21, 2013
p66
aVDEN vs. PHI
p67
aVW
p68
aI40
aI5
aI9
aF0.556
aI0
aI1
aF0.0
aI3
aI4
aF0.75
aI2
aI2
aI4
aI4
aI2
aI1
aI4
aI2
aI13
aI6
aa(lp69
V0021201006
p70
aVMAR 19, 2013
p71
aVDEN @ OKC
p72
aVW
p73
aI36
aI5
aI14
aF0.357
aI0
aI4
aF0.0
aI0
aI0
aF0.0
aI0
aI2
aI2
aI4
aI1
aI0
aI1
aI3
aI10
aI17
aa(lp74
V0021200999
p75
aVMAR 18, 2013
p76
aVDEN @ CHI
p77
aVW
p78
aI38
aI3
aI14
aF0.214
aI2
aI6
aF0.333
aI4
aI4
aF1.0
aI1
aI9
aI10
aI1
aI2
aI3
aI2
aI2
aI12
aI-6
aa(lp79
V0021200977
p80
aVMAR 15, 2013
p81
aVDEN vs. MEM
p82
aVW
p83
aI34
aI4
aI9
aF0.444
aI0
aI1
aF0.0
aI0
aI0
aF0.0
aI0
aI7
aI7
aI7
aI1
aI0
aI0
aI0
aI8
aI7
aa(lp84
V0021200964
p85
aVMAR 13, 2013
p86
aVDEN vs. NYK
p87
aVW
p88
aI33
aI5
aI7
aF0.714
aI2
aI3
aF0.667
aI2
aI6
aF0.333
aI0
aI6
aI6
aI6
aI2
aI1
aI4
aI0
aI14
aI32
aa(lp89
V0021200946
p90
aVMAR 11, 2013
p91
aVDEN @ PHX
p92
aVW
p93
aI30
aI2
aI6
aF0.333
aI0
aI2
aF0.0
aI2
aI3
aF0.667
aI0
aI3
aI3
aI7
aI3
aI0
aI1
aI1
aI6
aI11
aa(lp94
V0021200931
p95
aVMAR 09, 2013
p96
aVDEN vs. MIN
p97
aVW
p98
aI32
aI4
aI10
aF0.4
aI1
aI1
aF1.0
aI2
aI3
aF0.667
aI2
aI3
aI5
aI3
aI4
aI3
aI1
aI2
aI11
aI10
aa(lp99
V0021200914
p100
aVMAR 07, 2013
p101
aVDEN vs. LAC
p102
aVW
p103
aI39
aI5
aI10
aF0.5
aI2
aI6
aF0.333
aI2
aI2
aF1.0
aI0
aI3
aI3
aI7
aI2
aI1
aI1
aI2
aI14
aI15
aa(lp104
V0021200898
p105
aVMAR 05, 2013
p106
aVDEN @ SAC
p107
aVW
p108
aI33
aI2
aI6
aF0.333
aI1
aI3
aF0.333
aI1
aI4
aF0.25
aI2
aI3
aI5
aI7
aI5
aI0
aI3
aI2
aI6
aI10
aa(lp109
V0021200893
p110
aVMAR 04, 2013
p111
aVDEN vs. ATL
p112
aVW
p113
aI35
aI5
aI8
aF0.625
aI2
aI3
aF0.667
aI0
aI0
aF0.0
aI2
aI4
aI6
aI6
aI1
aI0
aI3
aI1
aI12
aI5
aa(lp114
V0021200875
p115
aVMAR 01, 2013
p116
aVDEN vs. OKC
p117
aVW
p118
aI37
aI2
aI9
aF0.222
aI0
aI4
aF0.0
aI0
aI0
aF0.0
aI3
aI3
aI6
aI5
aI3
aI0
aI3
aI1
aI4
aI-5
aa(lp119
V0021200860
p120
aVFEB 27, 2013
p121
aVDEN @ POR
p122
aVW
p123
aI43
aI11
aI20
aF0.55
aI2
aI7
aF0.286
aI5
aI10
aF0.5
aI1
aI6
aI7
aI8
aI5
aI1
aI5
aI2
aI29
aI0
aa(lp124
V0021200841
p125
aVFEB 25, 2013
p126
aVDEN vs. LAL
p127
aVW
p128
aI37
aI6
aI9
aF0.667
aI0
aI1
aF0.0
aI2
aI5
aF0.4
aI0
aI4
aI4
aI12
aI1
aI1
aI2
aI0
aI14
aI6
aa(lp129
V0021200824
p130
aVFEB 23, 2013
p131
aVDEN @ CHA
p132
aVW
p133
aI30
aI5
aI7
aF0.714
aI1
aI3
aF0.333
aI2
aI3
aF0.667
aI1
aI4
aI5
aI10
aI2
aI2
aI1
aI5
aI13
aI15
aa(lp134
V0021200812
p135
aVFEB 22, 2013
p136
aVDEN @ WAS
p137
aVL
p138
aI34
aI3
aI5
aF0.6
aI2
aI4
aF0.5
aI0
aI2
aF0.0
aI1
aI4
aI5
aI5
aI2
aI0
aI4
aI4
aI8
aI-8
aa(lp139
V0021200794
p140
aVFEB 19, 2013
p141
aVDEN vs. BOS
p142
aVW
p143
aI29
aI0
aI7
aF0.0
aI0
aI1
aF0.0
aI1
aI4
aF0.25
aI0
aI3
aI3
aI7
aI2
aI1
aI1
aI2
aI1
aI-2
aa(lp144
V0021200754
p145
aVFEB 10, 2013
p146
aVDEN @ BOS
p147
aVL
p148
aI20
aI2
aI6
aF0.333
aI1
aI3
aF0.333
aI0
aI0
aF0.0
aI0
aI2
aI2
aI4
aI0
aI1
aI1
aI2
aI5
aI-8
aa(lp149
V0021200747
p150
aVFEB 09, 2013
p151
aVDEN @ CLE
p152
aVW
p153
aI35
aI6
aI9
aF0.667
aI2
aI3
aF0.667
aI0
aI0
aF0.0
aI0
aI4
aI4
aI7
aI1
aI1
aI4
aI2
aI14
aI8
aa(lp154
V0021200734
p155
aVFEB 07, 2013
p156
aVDEN vs. CHI
p157
aVW
p158
aI26
aI6
aI9
aF0.667
aI1
aI4
aF0.25
aI1
aI2
aF0.5
aI0
aI1
aI1
aI4
aI2
aI1
aI2
aI0
aI14
aI21
aa(lp159
V0021200719
p160
aVFEB 05, 2013
p161
aVDEN vs. MIL
p162
aVW
p163
aI32
aI4
aI9
aF0.444
aI0
aI1
aF0.0
aI0
aI2
aF0.0
aI1
aI4
aI5
aI5
aI4
aI2
aI3
aI0
aI8
aI10
aa(lp164
V0021200692
p165
aVFEB 01, 2013
p166
aVDEN vs. NOH
p167
aVW
p168
aI38
aI10
aI14
aF0.714
aI2
aI5
aF0.4
aI2
aI3
aF0.667
aI2
aI4
aI6
aI4
aI3
aI1
aI2
aI2
aI24
aI9
aa(lp169
V0021200679
p170
aVJAN 30, 2013
p171
aVDEN vs. HOU
p172
aVW
p173
aI37
aI5
aI13
aF0.385
aI1
aI7
aF0.143
aI4
aI6
aF0.667
aI0
aI5
aI5
aI6
aI2
aI0
aI6
aI1
aI15
aI-7
aa(lp174
V0021200664
p175
aVJAN 28, 2013
p176
aVDEN vs. IND
p177
aVW
p178
aI38
aI4
aI11
aF0.364
aI0
aI0
aF0.0
aI5
aI10
aF0.5
aI4
aI6
aI10
aI7
aI1
aI0
aI1
aI1
aI13
aI-2
aa(lp179
V0021200649
p180
aVJAN 26, 2013
p181
aVDEN vs. SAC
p182
aVW
p183
aI31
aI8
aI15
aF0.533
aI3
aI8
aF0.375
aI1
aI2
aF0.5
aI0
aI3
aI3
aI7
aI2
aI0
aI0
aI1
aI20
aI30
aa(lp184
V0021200622
p185
aVJAN 23, 2013
p186
aVDEN @ HOU
p187
aVW
p188
aI36
aI5
aI11
aF0.455
aI0
aI2
aF0.0
aI4
aI5
aF0.8
aI2
aI4
aI6
aI5
aI3
aI0
aI1
aI1
aI14
aI1
aa(lp189
V0021200604
p190
aVJAN 20, 2013
p191
aVDEN vs. OKC
p192
aVW
p193
aI27
aI4
aI8
aF0.5
aI1
aI2
aF0.5
aI0
aI0
aF0.0
aI2
aI1
aI3
aI3
aI2
aI1
aI3
aI2
aI9
aI6
aa(lp194
V0021200591
p195
aVJAN 18, 2013
p196
aVDEN vs. WAS
p197
aVL
p198
aI30
aI0
aI4
aF0.0
aI0
aI1
aF0.0
aI2
aI6
aF0.333
aI2
aI2
aI4
aI4
aI5
aI1
aI1
aI5
aI2
aI-1
aa(lp199
V0021200574
p200
aVJAN 16, 2013
p201
aVDEN @ OKC
p202
aVL
p203
aI30
aI4
aI10
aF0.4
aI0
aI3
aF0.0
aI4
aI4
aF1.0
aI0
aI1
aI1
aI5
aI0
aI0
aI3
aI0
aI12
aI-17
aa(lp204
V0021200568
p205
aVJAN 15, 2013
p206
aVDEN vs. POR
p207
aVW
p208
aI41
aI4
aI16
aF0.25
aI1
aI5
aF0.2
aI0
aI3
aF0.0
aI1
aI2
aI3
aI4
aI1
aI0
aI2
aI3
aI9
aI9
aa(lp209
V0021200553
p210
aVJAN 13, 2013
p211
aVDEN vs. GSW
p212
aVW
p213
aI32
aI4
aI11
aF0.364
aI1
aI6
aF0.167
aI1
aI2
aF0.5
aI0
aI3
aI3
aI6
aI5
aI0
aI1
aI0
aI10
aI-3
aa(lp214
V0021200538
p215
aVJAN 11, 2013
p216
aVDEN vs. CLE
p217
aVW
p218
aI41
aI5
aI11
aF0.455
aI1
aI4
aF0.25
aI2
aI3
aF0.667
aI5
aI6
aI11
aI4
aI1
aI0
aI4
aI1
aI13
aI9
aa(lp219
V0021200524
p220
aVJAN 09, 2013
p221
aVDEN vs. ORL
p222
aVW
p223
aI32
aI4
aI13
aF0.308
aI1
aI3
aF0.333
aI2
aI4
aF0.5
aI2
aI2
aI4
aI5
aI1
aI0
aI2
aI0
aI11
aI5
aa(lp224
V0021200503
p225
aVJAN 06, 2013
p226
aVDEN @ LAL
p227
aVW
p228
aI38
aI6
aI14
aF0.429
aI3
aI5
aF0.6
aI0
aI0
aF0.0
aI0
aI6
aI6
aI7
aI0
aI1
aI1
aI2
aI15
aI14
aa(lp229
V0021200497
p230
aVJAN 05, 2013
p231
aVDEN vs. UTA
p232
aVW
p233
aI31
aI5
aI9
aF0.556
aI0
aI1
aF0.0
aI8
aI11
aF0.727
aI0
aI6
aI6
aI2
aI0
aI0
aI3
aI1
aI18
aI20
aa(lp234
V0021200477
p235
aVJAN 03, 2013
p236
aVDEN vs. MIN
p237
aVL
p238
aI36
aI6
aI16
aF0.375
aI1
aI5
aF0.2
aI1
aI7
aF0.143
aI0
aI7
aI7
aI6
aI2
aI0
aI1
aI1
aI14
aI6
aa(lp239
V0021200462
p240
aVJAN 01, 2013
p241
aVDEN vs. LAC
p242
aVW
p243
aI37
aI5
aI10
aF0.5
aI1
aI5
aF0.2
aI1
aI5
aF0.2
aI0
aI7
aI7
aI8
aI2
aI0
aI3
aI1
aI12
aI4
aa(lp244
V0021200442
p245
aVDEC 29, 2012
p246
aVDEN @ MEM
p247
aVL
p248
aI41
aI5
aI10
aF0.5
aI1
aI6
aF0.167
aI1
aI4
aF0.25
aI0
aI3
aI3
aI5
aI2
aI0
aI2
aI0
aI12
aI-12
aa(lp249
V0021200431
p250
aVDEC 28, 2012
p251
aVDEN @ DAL
p252
aVW
p253
aI34
aI7
aI12
aF0.583
aI4
aI6
aF0.667
aI2
aI3
aF0.667
aI2
aI6
aI8
aI4
aI2
aI0
aI2
aI3
aI20
aI31
aa(lp254
V0021200419
p255
aVDEC 26, 2012
p256
aVDEN vs. LAL
p257
aVW
p258
aI38
aI5
aI15
aF0.333
aI2
aI6
aF0.333
aI5
aI6
aF0.833
aI3
aI8
aI11
aI7
aI3
aI2
aI3
aI2
aI17
aI9
aa(lp259
V0021200409
p260
aVDEC 25, 2012
p261
aVDEN @ LAC
p262
aVL
p263
aI27
aI4
aI9
aF0.444
aI0
aI3
aF0.0
aI1
aI2
aF0.5
aI0
aI1
aI1
aI2
aI0
aI0
aI0
aI2
aI9
aI-1
aa(lp264
V0021200396
p265
aVDEC 22, 2012
p266
aVDEN vs. CHA
p267
aVW
p268
aI29
aI6
aI9
aF0.667
aI1
aI3
aF0.333
aI2
aI2
aF1.0
aI0
aI8
aI8
aI8
aI2
aI0
aI1
aI3
aI15
aI24
aa(lp269
V0021200379
p270
aVDEC 20, 2012
p271
aVDEN @ POR
p272
aVL
p273
aI27
aI5
aI13
aF0.385
aI0
aI6
aF0.0
aI3
aI6
aF0.5
aI2
aI3
aI5
aI4
aI1
aI0
aI3
aI2
aI13
aI-9
aa(lp274
V0021200363
p275
aVDEC 18, 2012
p276
aVDEN vs. SAS
p277
aVW
p278
aI37
aI6
aI9
aF0.667
aI2
aI2
aF1.0
aI0
aI0
aF0.0
aI2
aI7
aI9
aI6
aI2
aI1
aI3
aI4
aI14
aI9
aa(lp279
V0021200348
p280
aVDEC 16, 2012
p281
aVDEN @ SAC
p282
aVW
p283
aI28
aI4
aI7
aF0.571
aI0
aI1
aF0.0
aI3
aI4
aF0.75
aI2
aI6
aI8
aI8
aI1
aI0
aI2
aI3
aI11
aI28
aa(lp284
V0021200335
p285
aVDEC 14, 2012
p286
aVDEN vs. MEM
p287
aVW
p288
aI38
aI8
aI11
aF0.727
aI1
aI2
aF0.5
aI3
aI5
aF0.6
aI1
aI3
aI4
aI7
aI5
aI2
aI4
aI2
aI20
aI10
aa(lp289
V0021200319
p290
aVDEC 12, 2012
p291
aVDEN @ MIN
p292
aVL
p293
aI35
aI1
aI9
aF0.111
aI0
aI2
aF0.0
aI0
aI0
aF0.0
aI1
aI4
aI5
aI7
aI1
aI1
aI5
aI2
aI2
aI3
aa(lp294
V0021200306
p295
aVDEC 11, 2012
p296
aVDEN @ DET
p297
aVW
p298
aI35
aI3
aI12
aF0.25
aI1
aI6
aF0.167
aI5
aI7
aF0.714
aI1
aI7
aI8
aI3
aI0
aI1
aI3
aI1
aI12
aI3
aa(lp299
V0021200295
p300
aVDEC 09, 2012
p301
aVDEN @ NYK
p302
aVL
p303
aI38
aI5
aI12
aF0.417
aI2
aI5
aF0.4
aI3
aI4
aF0.75
aI1
aI6
aI7
aI3
aI1
aI0
aI5
aI3
aI15
aI5
aa(lp304
V0021200271
p305
aVDEC 07, 2012
p306
aVDEN @ IND
p307
aVW
p308
aI37
aI4
aI12
aF0.333
aI0
aI4
aF0.0
aI2
aI2
aF1.0
aI0
aI0
aI0
aI2
aI2
aI0
aI2
aI1
aI10
aI1
aa(lp309
V0021200260
p310
aVDEC 05, 2012
p311
aVDEN @ ATL
p312
aVL
p313
aI38
aI2
aI10
aF0.2
aI1
aI4
aF0.25
aI0
aI1
aF0.0
aI0
aI4
aI4
aI4
aI1
aI0
aI7
aI1
aI5
aI-1
aa(lp314
V0021200248
p315
aVDEC 03, 2012
p316
aVDEN vs. TOR
p317
aVW
p318
aI33
aI1
aI5
aF0.2
aI0
aI2
aF0.0
aI2
aI2
aF1.0
aI0
aI2
aI2
aI8
aI2
aI0
aI3
aI1
aI4
aI-1
aa(lp319
V0021200232
p320
aVNOV 30, 2012
p321
aVDEN @ LAL
p322
aVL
p323
aI33
aI4
aI10
aF0.4
aI2
aI4
aF0.5
aI4
aI6
aF0.667
aI1
aI1
aI2
aI4
aI0
aI0
aI0
aI2
aI14
aI-12
aa(lp324
V0021200221
p325
aVNOV 29, 2012
p326
aVDEN @ GSW
p327
aVL
p328
aI40
aI8
aI17
aF0.471
aI2
aI5
aF0.4
aI4
aI5
aF0.8
aI1
aI3
aI4
aI4
aI3
aI0
aI3
aI0
aI22
aI2
aa(lp329
V0021200202
p330
aVNOV 26, 2012
p331
aVDEN @ UTA
p332
aVL
p333
aI25
aI5
aI9
aF0.556
aI0
aI1
aF0.0
aI0
aI2
aF0.0
aI0
aI3
aI3
aI4
aI2
aI0
aI3
aI2
aI10
aI-3
aa(lp334
V0021200196
p335
aVNOV 25, 2012
p336
aVDEN vs. NOH
p337
aVW
p338
aI31
aI8
aI13
aF0.615
aI3
aI4
aF0.75
aI4
aI7
aF0.571
aI1
aI1
aI2
aI3
aI0
aI0
aI3
aI0
aI23
aI29
aa(lp339
V0021200179
p340
aVNOV 23, 2012
p341
aVDEN vs. GSW
p342
aVW
p343
aI39
aI11
aI19
aF0.579
aI3
aI6
aF0.5
aI4
aI6
aF0.667
aI2
aI4
aI6
aI2
aI0
aI2
aI0
aI3
aI29
aI13
aa(lp344
V0021200166
p345
aVNOV 21, 2012
p346
aVDEN @ MIN
p347
aVW
p348
aI36
aI7
aI16
aF0.438
aI3
aI5
aF0.6
aI1
aI1
aF1.0
aI2
aI7
aI9
aI2
aI2
aI1
aI2
aI1
aI18
aI1
aa(lp349
V0021200150
p350
aVNOV 19, 2012
p351
aVDEN @ MEM
p352
aVW
p353
aI35
aI3
aI8
aF0.375
aI0
aI3
aF0.0
aI1
aI2
aF0.5
aI0
aI2
aI2
aI3
aI0
aI0
aI3
aI2
aI7
aI-1
aa(lp354
V0021200137
p355
aVNOV 17, 2012
p356
aVDEN @ SAS
p357
aVL
p358
aI28
aI3
aI8
aF0.375
aI0
aI1
aF0.0
aI3
aI4
aF0.75
aI1
aI2
aI3
aI3
aI0
aI0
aI3
aI1
aI9
aI-13
aa(lp359
V0021200121
p360
aVNOV 15, 2012
p361
aVDEN vs. MIA
p362
aVL
p363
aI36
aI4
aI10
aF0.4
aI0
aI1
aF0.0
aI2
aI2
aF1.0
aI1
aI5
aI6
aI3
aI0
aI1
aI3
aI3
aI10
aI-11
aa(lp364
V0021200101
p365
aVNOV 12, 2012
p366
aVDEN @ PHX
p367
aVL
p368
aI34
aI6
aI8
aF0.75
aI3
aI3
aF1.0
aI2
aI4
aF0.5
aI0
aI9
aI9
aI5
aI1
aI3
aI1
aI1
aI17
aI-7
aa(lp369
V0021200089
p370
aVNOV 10, 2012
p371
aVDEN @ GSW
p372
aVW
p373
aI48
aI7
aI24
aF0.292
aI2
aI7
aF0.286
aI3
aI3
aF1.0
aI1
aI11
aI12
aI8
aI1
aI0
aI2
aI1
aI19
aI7
aa(lp374
V0021200079
p375
aVNOV 09, 2012
p376
aVDEN vs. UTA
p377
aVW
p378
aI31
aI7
aI12
aF0.583
aI1
aI4
aF0.25
aI0
aI0
aF0.0
aI0
aI7
aI7
aI1
aI1
aI1
aI2
aI1
aI15
aI7
aa(lp379
V0021200059
p380
aVNOV 07, 2012
p381
aVDEN @ HOU
p382
aVW
p383
aI38
aI5
aI11
aF0.455
aI1
aI4
aF0.25
aI2
aI2
aF1.0
aI0
aI5
aI5
aI3
aI3
aI1
aI5
aI2
aI13
aI3
aa(lp384
V0021200052
p385
aVNOV 06, 2012
p386
aVDEN vs. DET
p387
aVW
p388
aI36
aI6
aI15
aF0.4
aI3
aI6
aF0.5
aI2
aI2
aF1.0
aI3
aI7
aI10
aI4
aI1
aI1
aI4
aI1
aI17
aI6
aa(lp389
V0021200030
p390
aVNOV 03, 2012
p391
aVDEN @ MIA
p392
aVL
p393
aI40
aI9
aI15
aF0.6
aI2
aI5
aF0.4
aI2
aI4
aF0.5
aI1
aI4
aI5
aI3
aI1
aI1
aI5
aI2
aI22
aI-4
aa(lp394
V0021200016
p395
aVNOV 02, 2012
p396
aVDEN @ ORL
p397
aVL
p398
aI36
aI3
aI10
aF0.3
aI1
aI2
aF0.5
aI2
aI2
aF1.0
aI1
aI7
aI8
aI5
aI1
aI1
aI3
aI2
aI9
aI-10
aa(lp399
V0021200005
p400
aVOCT 31, 2012
p401
aVDEN @ PHI
p402
aVL
p403
aI35
aI5
aI13
aF0.385
aI0
aI4
aF0.0
aI1
aI3
aF0.333
aI1
aI3
aI4
aI4
aI2
aI1
aI4
aI0
aI11
aI-19
aasS'name'
p404
VAndre Iguodala
p405
sS'experience'
p406
I8
s.