(dp0
S'stats'
p1
(lp2
(lp3
V0021200069
p4
aVNOV 09, 2012
p5
aVBKN @ ORL
p6
aVW
p7
aI10
aI4
aI9
aF0.444
aI3
aI6
aF0.5
aI0
aI0
aF0.0
aI1
aI1
aI2
aI1
aI0
aI0
aI0
aI0
aI11
aI21
aa(lp8
V0021200090
p9
aVNOV 11, 2012
p10
aVBKN vs. ORL
p11
aVW
p12
aI15
aI2
aI3
aF0.667
aI1
aI1
aF1.0
aI0
aI0
aF0.0
aI0
aI0
aI0
aI2
aI0
aI1
aI0
aI2
aI5
aI12
aa(lp13
V0021200106
p14
aVNOV 13, 2012
p15
aVBKN vs. CLE
p16
aVW
p17
aI15
aI2
aI3
aF0.667
aI0
aI1
aF0.0
aI0
aI0
aF0.0
aI0
aI1
aI1
aI1
aI0
aI0
aI0
aI2
aI4
aI10
aa(lp18
V0021200119
p19
aVNOV 15, 2012
p20
aVBKN vs. BOS
p21
aVW
p22
aI21
aI1
aI3
aF0.333
aI1
aI3
aF0.333
aI0
aI0
aF0.0
aI0
aI1
aI1
aI2
aI1
aI0
aI0
aI1
aI3
aI8
aa(lp23
V0021200142
p24
aVNOV 18, 2012
p25
aVBKN @ SAC
p26
aVW
p27
aI15
aI0
aI4
aF0.0
aI0
aI3
aF0.0
aI0
aI0
aF0.0
aI0
aI3
aI3
aI0
aI0
aI0
aI1
aI0
aI0
aI17
aa(lp28
V0021200156
p29
aVNOV 20, 2012
p30
aVBKN @ LAL
p31
aVL
p32
aI15
aI2
aI3
aF0.667
aI0
aI1
aF0.0
aI1
aI2
aF0.5
aI0
aI1
aI1
aI0
aI0
aI0
aI1
aI0
aI5
aI-1
aa(lp33
V0021200174
p34
aVNOV 23, 2012
p35
aVBKN vs. LAC
p36
aVW
p37
aI6
aI1
aI5
aF0.2
aI1
aI2
aF0.5
aI0
aI0
aF0.0
aI0
aI1
aI1
aI0
aI1
aI0
aI1
aI1
aI3
aI-1
aa(lp38
V0021200013
p39
aVNOV 26, 2012
p40
aVBKN vs. NYK
p41
aVW
p42
aI22
aI4
aI6
aF0.667
aI4
aI5
aF0.8
aI2
aI2
aF1.0
aI0
aI1
aI1
aI1
aI0
aI0
aI0
aI0
aI14
aI13
aa(lp43
V0021200211
p44
aVNOV 28, 2012
p45
aVBKN @ BOS
p46
aVW
p47
aI22
aI5
aI6
aF0.833
aI5
aI6
aF0.833
aI2
aI2
aF1.0
aI1
aI0
aI1
aI1
aI3
aI0
aI1
aI2
aI17
aI15
aa(lp48
V0021200233
p49
aVDEC 01, 2012
p50
aVBKN @ MIA
p51
aVL
p52
aI24
aI5
aI11
aF0.455
aI0
aI4
aF0.0
aI1
aI1
aF1.0
aI1
aI2
aI3
aI0
aI1
aI1
aI2
aI1
aI11
aI-15
aa(lp53
V0021200253
p54
aVDEC 04, 2012
p55
aVBKN vs. OKC
p56
aVL
p57
aI30
aI2
aI6
aF0.333
aI2
aI6
aF0.333
aI2
aI2
aF1.0
aI0
aI1
aI1
aI4
aI0
aI0
aI3
aI3
aI8
aI10
aa(lp58
V0021200272
p59
aVDEC 07, 2012
p60
aVBKN vs. GSW
p61
aVL
p62
aI19
aI2
aI7
aF0.286
aI1
aI4
aF0.25
aI0
aI0
aF0.0
aI0
aI1
aI1
aI3
aI0
aI0
aI0
aI2
aI5
aI-5
aa(lp63
V0021200293
p64
aVDEC 09, 2012
p65
aVBKN vs. MIL
p66
aVL
p67
aI16
aI3
aI10
aF0.3
aI3
aI7
aF0.429
aI0
aI0
aF0.0
aI0
aI0
aI0
aI1
aI0
aI1
aI1
aI1
aI9
aI-7
aa(lp68
V0021200304
p69
aVDEC 11, 2012
p70
aVBKN vs. NYK
p71
aVL
p72
aI21
aI0
aI1
aF0.0
aI0
aI0
aF0.0
aI0
aI0
aF0.0
aI1
aI0
aI1
aI0
aI0
aI0
aI2
aI1
aI0
aI-11
aa(lp73
V0021200399
p74
aVDEC 23, 2012
p75
aVBKN vs. PHI
p76
aVW
p77
aI13
aI2
aI8
aF0.25
aI0
aI5
aF0.0
aI0
aI0
aF0.0
aI0
aI0
aI0
aI1
aI1
aI0
aI1
aI1
aI4
aI-5
aa(lp78
V0021200405
p79
aVDEC 25, 2012
p80
aVBKN vs. BOS
p81
aVL
p82
aI17
aI3
aI8
aF0.375
aI1
aI4
aF0.25
aI0
aI0
aF0.0
aI0
aI1
aI1
aI1
aI0
aI0
aI2
aI2
aI7
aI-3
aa(lp83
V0021200415
p84
aVDEC 26, 2012
p85
aVBKN @ MIL
p86
aVL
p87
aI8
aI1
aI5
aF0.2
aI0
aI3
aF0.0
aI0
aI0
aF0.0
aI0
aI0
aI0
aI0
aI0
aI0
aI0
aI1
aI2
aI1
aa(lp88
V0021200427
p89
aVDEC 28, 2012
p90
aVBKN vs. CHA
p91
aVW
p92
aI9
aI0
aI4
aF0.0
aI0
aI2
aF0.0
aI0
aI0
aF0.0
aI0
aI2
aI2
aI0
aI0
aI0
aI1
aI0
aI0
aI1
aa(lp93
V0021200440
p94
aVDEC 29, 2012
p95
aVBKN vs. CLE
p96
aVW
p97
aI18
aI3
aI5
aF0.6
aI1
aI2
aF0.5
aI1
aI2
aF0.5
aI0
aI0
aI0
aI1
aI0
aI0
aI0
aI1
aI8
aI-7
aa(lp98
V0021200457
p99
aVDEC 31, 2012
p100
aVBKN @ SAS
p101
aVL
p102
aI19
aI1
aI5
aF0.2
aI1
aI3
aF0.333
aI0
aI0
aF0.0
aI0
aI0
aI0
aI0
aI0
aI0
aI1
aI0
aI3
aI-10
aa(lp103
V0021200479
p104
aVJAN 04, 2013
p105
aVBKN @ WAS
p106
aVW
p107
aI14
aI0
aI2
aF0.0
aI0
aI2
aF0.0
aI3
aI3
aF1.0
aI0
aI1
aI1
aI0
aI0
aI0
aI0
aI0
aI3
aI1
aa(lp108
V0021200551
p109
aVJAN 13, 2013
p110
aVBKN vs. IND
p111
aVW
p112
aI6
aI1
aI3
aF0.333
aI0
aI1
aF0.0
aI0
aI0
aF0.0
aI0
aI0
aI0
aI0
aI0
aI0
aI1
aI0
aI2
aI-7
aa(lp113
V0021200566
p114
aVJAN 15, 2013
p115
aVBKN vs. TOR
p116
aVW
p117
aI9
aI0
aI1
aF0.0
aI0
aI1
aF0.0
aI0
aI0
aF0.0
aI0
aI0
aI0
aI1
aI0
aI0
aI0
aI2
aI0
aI-4
aa(lp118
V0021200572
p119
aVJAN 16, 2013
p120
aVBKN @ ATL
p121
aVL
p122
aI4
aI0
aI1
aF0.0
aI0
aI1
aF0.0
aI0
aI0
aF0.0
aI1
aI0
aI1
aI2
aI0
aI0
aI0
aI0
aI0
aI3
aa(lp123
V0021200609
p124
aVJAN 21, 2013
p125
aVBKN @ NYK
p126
aVW
p127
aI5
aI0
aI2
aF0.0
aI0
aI2
aF0.0
aI0
aI0
aF0.0
aI0
aI0
aI0
aI0
aI0
aI0
aI1
aI0
aI0
aI0
aa(lp128
V0021200623
p129
aVJAN 23, 2013
p130
aVBKN @ MIN
p131
aVW
p132
aI7
aI0
aI3
aF0.0
aI0
aI0
aF0.0
aI0
aI0
aF0.0
aI0
aI1
aI1
aI0
aI0
aI0
aI0
aI0
aI0
aI0
aa(lp133
V0021200646
p134
aVJAN 26, 2013
p135
aVBKN @ HOU
p136
aVL
p137
aI8
aI2
aI3
aF0.667
aI1
aI2
aF0.5
aI1
aI2
aF0.5
aI0
aI0
aI0
aI0
aI0
aI0
aI0
aI0
aI6
aI-8
aa(lp138
V0021200997
p139
aVMAR 18, 2013
p140
aVBKN @ DET
p141
aVW
p142
aI19
aI5
aI6
aF0.833
aI0
aI0
aF0.0
aI0
aI0
aF0.0
aI0
aI0
aI0
aI3
aI0
aI1
aI0
aI0
aI10
aI10
aa(lp143
V0021201015
p144
aVMAR 20, 2013
p145
aVBKN @ DAL
p146
aVW
p147
aI5
aI0
aI1
aF0.0
aI0
aI0
aF0.0
aI0
aI0
aF0.0
aI0
aI0
aI0
aI0
aI0
aI0
aI0
aI0
aI0
aI-6
aa(lp148
V0021201070
p149
aVMAR 27, 2013
p150
aVBKN @ POR
p151
aVW
p152
aI13
aI0
aI4
aF0.0
aI0
aI2
aF0.0
aI0
aI0
aF0.0
aI0
aI3
aI3
aI0
aI0
aI0
aI0
aI1
aI0
aI-7
aa(lp153
V0021201083
p154
aVMAR 29, 2013
p155
aVBKN @ DEN
p156
aVL
p157
aI3
aI0
aI1
aF0.0
aI0
aI0
aF0.0
aI0
aI0
aF0.0
aI0
aI0
aI0
aI0
aI0
aI0
aI1
aI1
aI0
aI-11
aa(lp158
V0021201114
p159
aVAPR 03, 2013
p160
aVBKN @ CLE
p161
aVW
p162
aI20
aI4
aI6
aF0.667
aI1
aI2
aF0.5
aI0
aI0
aF0.0
aI0
aI0
aI0
aI2
aI0
aI0
aI0
aI1
aI9
aI3
aa(lp163
V0021201155
p164
aVAPR 09, 2013
p165
aVBKN vs. PHI
p166
aVW
p167
aI15
aI1
aI6
aF0.167
aI1
aI2
aF0.5
aI0
aI0
aF0.0
aI0
aI1
aI1
aI0
aI0
aI0
aI1
aI1
aI3
aI-2
aa(lp168
V0021201168
p169
aVAPR 10, 2013
p170
aVBKN @ BOS
p171
aVW
p172
aI22
aI2
aI7
aF0.286
aI0
aI1
aF0.0
aI3
aI3
aF1.0
aI0
aI4
aI4
aI3
aI0
aI0
aI1
aI0
aI7
aI24
aa(lp173
V0021201178
p174
aVAPR 12, 2013
p175
aVBKN @ IND
p176
aVW
p177
aI24
aI4
aI6
aF0.667
aI1
aI1
aF1.0
aI4
aI4
aF1.0
aI0
aI1
aI1
aI2
aI0
aI0
aI0
aI0
aI13
aI-9
aa(lp178
V0021201195
p179
aVAPR 14, 2013
p180
aVBKN @ TOR
p181
aVL
p182
aI20
aI2
aI4
aF0.5
aI0
aI1
aF0.0
aI0
aI0
aF0.0
aI0
aI1
aI1
aI1
aI0
aI0
aI0
aI2
aI4
aI-1
aa(lp183
V0021201217
p184
aVAPR 17, 2013
p185
aVBKN vs. DET
p186
aVW
p187
aI14
aI2
aI4
aF0.5
aI2
aI3
aF0.667
aI0
aI0
aF0.0
aI0
aI0
aI0
aI2
aI0
aI0
aI2
aI2
aI6
aI-1
aasS'name'
p188
VJerry Stackhouse
p189
sS'weight'
p190
V218
p191
sS'age'
p192
I38
sS'experience'
p193
I17
sS'height'
p194
V6-6
p195
sS'position'
p196
VForward
p197
s.