(dp0
S'stats'
p1
(lp2
(lp3
V0021500043
p4
aVNOV 01, 2015
p5
aVORL @ CHI
p6
aVL
p7
aI9
aI0
aI2
aF0.0
aI0
aI2
aF0.0
aI1
aI2
aF0.5
aI1
aI1
aI2
aI1
aI0
aI0
aI0
aI0
aI1
aI-5
aa(lp8
V0021500075
p9
aVNOV 06, 2015
p10
aVORL vs. TOR
p11
aVW
p12
aI14
aI2
aI4
aF0.5
aI1
aI3
aF0.333
aI0
aI0
aF0.0
aI0
aI3
aI3
aI0
aI0
aI0
aI1
aI3
aI5
aI6
aa(lp13
V0021500099
p14
aVNOV 09, 2015
p15
aVORL @ IND
p16
aVL
p17
aI23
aI5
aI10
aF0.5
aI4
aI9
aF0.444
aI0
aI0
aF0.0
aI1
aI7
aI8
aI0
aI0
aI0
aI2
aI5
aI14
aI-16
aa(lp18
V0021500114
p19
aVNOV 11, 2015
p20
aVORL vs. LAL
p21
aVW
p22
aI16
aI6
aI7
aF0.857
aI2
aI2
aF1.0
aI0
aI0
aF0.0
aI4
aI1
aI5
aI0
aI1
aI1
aI0
aI1
aI14
aI1
aa(lp23
V0021500128
p24
aVNOV 13, 2015
p25
aVORL vs. UTA
p26
aVW
p27
aI23
aI2
aI7
aF0.286
aI2
aI6
aF0.333
aI2
aI2
aF1.0
aI2
aI3
aI5
aI1
aI0
aI0
aI1
aI0
aI8
aI23
aa(lp28
V0021500139
p29
aVNOV 14, 2015
p30
aVORL @ WAS
p31
aVL
p32
aI16
aI2
aI4
aF0.5
aI1
aI3
aF0.333
aI0
aI0
aF0.0
aI0
aI3
aI3
aI2
aI0
aI0
aI0
aI3
aI5
aI1
aa(lp33
V0021500166
p34
aVNOV 18, 2015
p35
aVORL vs. MIN
p36
aVW
p37
aI7
aI0
aI2
aF0.0
aI0
aI2
aF0.0
aI0
aI0
aF0.0
aI0
aI1
aI1
aI0
aI0
aI0
aI0
aI0
aI0
aI4
aa(lp38
V0021500189
p39
aVNOV 21, 2015
p40
aVORL vs. SAC
p41
aVL
p42
aI10
aI1
aI4
aF0.25
aI1
aI3
aF0.333
aI0
aI0
aF0.0
aI0
aI4
aI4
aI0
aI0
aI1
aI0
aI1
aI3
aI8
aa(lp43
V0021500203
p44
aVNOV 23, 2015
p45
aVORL @ CLE
p46
aVL
p47
aI7
aI3
aI3
aF1.0
aI3
aI3
aF1.0
aI0
aI0
aF0.0
aI0
aI0
aI0
aI0
aI0
aI0
aI0
aI0
aI9
aI8
aa(lp48
V0021500216
p49
aVNOV 25, 2015
p50
aVORL vs. NYK
p51
aVW
p52
aI20
aI1
aI5
aF0.2
aI1
aI2
aF0.5
aI0
aI0
aF0.0
aI0
aI3
aI3
aI0
aI0
aI0
aI0
aI1
aI3
aI-2
aa(lp53
V0021500228
p54
aVNOV 27, 2015
p55
aVORL vs. MIL
p56
aVW
p57
aI19
aI3
aI9
aF0.333
aI3
aI5
aF0.6
aI0
aI0
aF0.0
aI1
aI3
aI4
aI1
aI2
aI1
aI0
aI2
aI9
aI14
aa(lp58
V0021500249
p59
aVNOV 29, 2015
p60
aVORL vs. BOS
p61
aVW
p62
aI17
aI2
aI4
aF0.5
aI2
aI4
aF0.5
aI0
aI0
aF0.0
aI0
aI2
aI2
aI1
aI1
aI1
aI2
aI3
aI6
aI2
aa(lp63
V0021500265
p64
aVDEC 01, 2015
p65
aVORL @ MIN
p66
aVW
p67
aI17
aI0
aI2
aF0.0
aI0
aI1
aF0.0
aI0
aI0
aF0.0
aI0
aI5
aI5
aI1
aI0
aI0
aI1
aI2
aI0
aI10
aa(lp68
V0021500279
p69
aVDEC 03, 2015
p70
aVORL @ UTA
p71
aVW
p72
aI18
aI1
aI3
aF0.333
aI1
aI3
aF0.333
aI2
aI2
aF1.0
aI0
aI3
aI3
aI1
aI3
aI0
aI0
aI2
aI5
aI3
aa(lp73
V0021500298
p74
aVDEC 05, 2015
p75
aVORL @ LAC
p76
aVL
p77
aI17
aI1
aI3
aF0.333
aI1
aI3
aF0.333
aI0
aI0
aF0.0
aI1
aI0
aI1
aI0
aI0
aI0
aI1
aI1
aI3
aI6
aa(lp78
V0021500317
p79
aVDEC 08, 2015
p80
aVORL @ DEN
p81
aVW
p82
aI24
aI0
aI3
aF0.0
aI0
aI2
aF0.0
aI0
aI0
aF0.0
aI0
aI2
aI2
aI1
aI2
aI0
aI2
aI2
aI0
aI7
aa(lp83
V0021500326
p84
aVDEC 09, 2015
p85
aVORL @ PHX
p86
aVL
p87
aI17
aI1
aI2
aF0.5
aI1
aI2
aF0.5
aI0
aI0
aF0.0
aI0
aI2
aI2
aI1
aI0
aI0
aI2
aI2
aI3
aI-7
aa(lp88
V0021500334
p89
aVDEC 11, 2015
p90
aVORL vs. CLE
p91
aVL
p92
aI12
aI0
aI3
aF0.0
aI0
aI2
aF0.0
aI0
aI0
aF0.0
aI0
aI0
aI0
aI0
aI0
aI0
aI0
aI1
aI0
aI-14
aa(lp93
V0021500358
p94
aVDEC 14, 2015
p95
aVORL @ BKN
p96
aVW
p97
aI23
aI4
aI6
aF0.667
aI3
aI5
aF0.6
aI0
aI0
aF0.0
aI0
aI4
aI4
aI5
aI2
aI0
aI0
aI1
aI11
aI18
aa(lp98
V0021500372
p99
aVDEC 16, 2015
p100
aVORL vs. CHA
p101
aVW
p102
aI30
aI5
aI7
aF0.714
aI5
aI7
aF0.714
aI2
aI2
aF1.0
aI0
aI3
aI3
aI2
aI2
aI0
aI1
aI0
aI17
aI23
aa(lp103
V0021500387
p104
aVDEC 18, 2015
p105
aVORL vs. POR
p106
aVW
p107
aI23
aI1
aI4
aF0.25
aI0
aI3
aF0.0
aI0
aI0
aF0.0
aI0
aI4
aI4
aI3
aI0
aI0
aI1
aI3
aI2
aI12
aa(lp108
V0021500407
p109
aVDEC 20, 2015
p110
aVORL vs. ATL
p111
aVL
p112
aI27
aI3
aI4
aF0.75
aI2
aI3
aF0.667
aI5
aI5
aF1.0
aI0
aI2
aI2
aI2
aI3
aI2
aI4
aI3
aI13
aI5
aa(lp113
V0021500412
p114
aVDEC 21, 2015
p115
aVORL @ NYK
p116
aVW
p117
aI21
aI3
aI5
aF0.6
aI1
aI1
aF1.0
aI0
aI0
aF0.0
aI1
aI0
aI1
aI0
aI0
aI1
aI0
aI1
aI7
aI8
aa(lp118
V0021500426
p119
aVDEC 23, 2015
p120
aVORL vs. HOU
p121
aVW
p122
aI19
aI4
aI4
aF1.0
aI2
aI2
aF1.0
aI0
aI0
aF0.0
aI1
aI4
aI5
aI2
aI0
aI0
aI0
aI2
aI10
aI11
aa(lp123
V0021500444
p124
aVDEC 26, 2015
p125
aVORL vs. MIA
p126
aVL
p127
aI26
aI3
aI5
aF0.6
aI2
aI3
aF0.667
aI0
aI0
aF0.0
aI0
aI4
aI4
aI1
aI0
aI0
aI0
aI1
aI8
aI-7
aa(lp128
V0021500460
p129
aVDEC 28, 2015
p130
aVORL vs. NOP
p131
aVW
p132
aI23
aI1
aI4
aF0.25
aI1
aI3
aF0.333
aI0
aI0
aF0.0
aI0
aI3
aI3
aI5
aI2
aI1
aI0
aI2
aI3
aI21
aa(lp133
V0021500475
p134
aVDEC 30, 2015
p135
aVORL vs. BKN
p136
aVW
p137
aI22
aI3
aI7
aF0.429
aI2
aI5
aF0.4
aI0
aI0
aF0.0
aI1
aI5
aI6
aI1
aI0
aI0
aI1
aI1
aI8
aI-12
aa(lp138
V0021500490
p139
aVJAN 01, 2016
p140
aVORL @ WAS
p141
aVL
p142
aI22
aI2
aI4
aF0.5
aI0
aI1
aF0.0
aI0
aI0
aF0.0
aI2
aI4
aI6
aI2
aI0
aI0
aI0
aI0
aI4
aI-6
aa(lp143
V0021500499
p144
aVJAN 02, 2016
p145
aVORL @ CLE
p146
aVL
p147
aI13
aI1
aI4
aF0.25
aI1
aI4
aF0.25
aI0
aI0
aF0.0
aI0
aI2
aI2
aI0
aI0
aI0
aI0
aI4
aI3
aI-13
aa(lp148
V0021500514
p149
aVJAN 04, 2016
p150
aVORL @ DET
p151
aVL
p152
aI14
aI1
aI3
aF0.333
aI0
aI2
aF0.0
aI0
aI0
aF0.0
aI0
aI2
aI2
aI0
aI0
aI2
aI1
aI0
aI2
aI-10
aa(lp153
V0021500526
p154
aVJAN 06, 2016
p155
aVORL vs. IND
p156
aVL
p157
aI14
aI0
aI2
aF0.0
aI0
aI2
aF0.0
aI2
aI2
aF1.0
aI0
aI3
aI3
aI1
aI0
aI1
aI0
aI3
aI2
aI-11
aa(lp158
V0021500541
p159
aVJAN 08, 2016
p160
aVORL @ BKN
p161
aVW
p162
aI21
aI1
aI4
aF0.25
aI0
aI3
aF0.0
aI0
aI0
aF0.0
aI0
aI2
aI2
aI2
aI0
aI0
aI1
aI3
aI2
aI-3
aa(lp163
V0021500552
p164
aVJAN 09, 2016
p165
aVORL vs. WAS
p166
aVL
p167
aI18
aI5
aI6
aF0.833
aI1
aI1
aF1.0
aI1
aI2
aF0.5
aI1
aI3
aI4
aI0
aI0
aI0
aI1
aI1
aI12
aI-10
aa(lp168
V0021500588
p169
aVJAN 14, 2016
p170
aVORL vs. TOR
p171
aVL
p172
aI22
aI1
aI2
aF0.5
aI0
aI0
aF0.0
aI0
aI0
aF0.0
aI0
aI6
aI6
aI2
aI0
aI4
aI1
aI2
aI2
aI4
aa(lp173
V0021500620
p174
aVJAN 18, 2016
p175
aVORL @ ATL
p176
aVL
p177
aI18
aI1
aI4
aF0.25
aI0
aI2
aF0.0
aI0
aI0
aF0.0
aI1
aI3
aI4
aI1
aI1
aI2
aI0
aI2
aI2
aI-7
aa(lp178
V0021500629
p179
aVJAN 20, 2016
p180
aVORL vs. PHI
p181
aVL
p182
aI12
aI1
aI6
aF0.167
aI1
aI4
aF0.25
aI0
aI0
aF0.0
aI2
aI2
aI4
aI3
aI1
aI0
aI2
aI1
aI3
aI0
aa(lp183
V0021500645
p184
aVJAN 22, 2016
p185
aVORL vs. CHA
p186
aVL
p187
aI12
aI1
aI2
aF0.5
aI1
aI1
aF1.0
aI2
aI2
aF1.0
aI0
aI2
aI2
aI1
aI0
aI0
aI0
aI0
aI5
aI9
aa(lp188
V0021500670
p189
aVJAN 25, 2016
p190
aVORL @ MEM
p191
aVL
p192
aI12
aI2
aI5
aF0.4
aI0
aI1
aF0.0
aI2
aI2
aF1.0
aI1
aI1
aI2
aI0
aI0
aI1
aI1
aI2
aI6
aI12
aa(lp193
V0021500681
p194
aVJAN 26, 2016
p195
aVORL @ MIL
p196
aVL
p197
aI10
aI1
aI3
aF0.333
aI1
aI1
aF1.0
aI0
aI0
aF0.0
aI0
aI2
aI2
aI0
aI0
aI0
aI1
aI3
aI3
aI-7
aa(lp198
V0021500698
p199
aVJAN 29, 2016
p200
aVORL @ BOS
p201
aVL
p202
aI10
aI1
aI1
aF1.0
aI0
aI0
aF0.0
aI0
aI0
aF0.0
aI0
aI2
aI2
aI0
aI1
aI1
aI2
aI0
aI2
aI-9
aa(lp203
V0021500726
p204
aVFEB 01, 2016
p205
aVORL @ SAS
p206
aVL
p207
aI17
aI3
aI7
aF0.429
aI1
aI4
aF0.25
aI0
aI0
aF0.0
aI1
aI5
aI6
aI0
aI0
aI0
aI1
aI3
aI7
aI-10
aa(lp208
V0021500740
p209
aVFEB 03, 2016
p210
aVORL @ OKC
p211
aVL
p212
aI17
aI1
aI3
aF0.333
aI0
aI1
aF0.0
aI0
aI0
aF0.0
aI1
aI5
aI6
aI2
aI0
aI0
aI0
aI2
aI2
aI1
aa(lp213
V0021500771
p214
aVFEB 07, 2016
p215
aVORL vs. ATL
p216
aVW
p217
aI14
aI2
aI5
aF0.4
aI1
aI3
aF0.333
aI0
aI0
aF0.0
aI1
aI2
aI3
aI0
aI0
aI1
aI0
aI1
aI5
aI-8
aa(lp218
V0021500780
p219
aVFEB 08, 2016
p220
aVORL @ ATL
p221
aVW
p222
aI5
aI0
aI2
aF0.0
aI0
aI2
aF0.0
aI0
aI0
aF0.0
aI0
aI0
aI0
aI0
aI0
aI0
aI0
aI1
aI0
aI-10
aa(lp223
V0021500833
p224
aVFEB 22, 2016
p225
aVCLE vs. DET
p226
aVL
p227
aI9
aI1
aI3
aF0.333
aI0
aI2
aF0.0
aI0
aI0
aF0.0
aI0
aI4
aI4
aI1
aI0
aI0
aI1
aI2
aI2
aI-1
aa(lp228
V0021500845
p229
aVFEB 24, 2016
p230
aVCLE vs. CHA
p231
aVW
p232
aI18
aI5
aI9
aF0.556
aI4
aI8
aF0.5
aI1
aI2
aF0.5
aI0
aI6
aI6
aI1
aI1
aI0
aI0
aI2
aI15
aI2
aa(lp233
V0021500864
p234
aVFEB 26, 2016
p235
aVCLE @ TOR
p236
aVL
p237
aI12
aI1
aI4
aF0.25
aI1
aI2
aF0.5
aI0
aI0
aF0.0
aI1
aI2
aI3
aI0
aI1
aI0
aI0
aI3
aI3
aI1
aa(lp238
V0021500877
p239
aVFEB 28, 2016
p240
aVCLE @ WAS
p241
aVL
p242
aI24
aI0
aI5
aF0.0
aI0
aI4
aF0.0
aI0
aI0
aF0.0
aI0
aI6
aI6
aI2
aI0
aI0
aI0
aI5
aI0
aI0
aa(lp243
V0021500917
p244
aVMAR 04, 2016
p245
aVCLE vs. WAS
p246
aVW
p247
aI6
aI1
aI2
aF0.5
aI1
aI2
aF0.5
aI0
aI0
aF0.0
aI0
aI2
aI2
aI0
aI0
aI0
aI0
aI1
aI3
aI-2
aa(lp248
V0021500938
p249
aVMAR 07, 2016
p250
aVCLE vs. MEM
p251
aVL
p252
aI5
aI1
aI2
aF0.5
aI0
aI1
aF0.0
aI0
aI0
aF0.0
aI1
aI1
aI2
aI2
aI0
aI1
aI1
aI1
aI2
aI4
aa(lp253
V0021500957
p254
aVMAR 09, 2016
p255
aVCLE @ SAC
p256
aVW
p257
aI10
aI1
aI3
aF0.333
aI1
aI3
aF0.333
aI0
aI0
aF0.0
aI0
aI2
aI2
aI0
aI0
aI0
aI0
aI1
aI3
aI-6
aa(lp258
V0021500962
p259
aVMAR 10, 2016
p260
aVCLE @ LAL
p261
aVW
p262
aI24
aI8
aI10
aF0.8
aI5
aI7
aF0.714
aI0
aI0
aF0.0
aI1
aI6
aI7
aI1
aI1
aI0
aI0
aI3
aI21
aI23
aa(lp263
V0021500983
p264
aVMAR 13, 2016
p265
aVCLE @ LAC
p266
aVW
p267
aI20
aI5
aI8
aF0.625
aI5
aI7
aF0.714
aI0
aI0
aF0.0
aI0
aI5
aI5
aI2
aI0
aI0
aI1
aI3
aI15
aI22
aa(lp268
V0021500994
p269
aVMAR 14, 2016
p270
aVCLE @ UTA
p271
aVL
p272
aI19
aI3
aI6
aF0.5
aI1
aI3
aF0.333
aI0
aI0
aF0.0
aI0
aI4
aI4
aI2
aI0
aI2
aI0
aI3
aI7
aI0
aa(lp273
V0021501005
p274
aVMAR 16, 2016
p275
aVCLE vs. DAL
p276
aVW
p277
aI18
aI5
aI7
aF0.714
aI3
aI5
aF0.6
aI1
aI1
aF1.0
aI1
aI2
aI3
aI0
aI1
aI0
aI1
aI2
aI14
aI1
aa(lp278
V0021501020
p279
aVMAR 18, 2016
p280
aVCLE @ ORL
p281
aVW
p282
aI21
aI5
aI8
aF0.625
aI4
aI6
aF0.667
aI0
aI0
aF0.0
aI0
aI1
aI1
aI2
aI0
aI1
aI0
aI3
aI14
aI9
aa(lp283
V0021501033
p284
aVMAR 19, 2016
p285
aVCLE @ MIA
p286
aVL
p287
aI16
aI1
aI2
aF0.5
aI1
aI2
aF0.5
aI0
aI0
aF0.0
aI0
aI4
aI4
aI0
aI0
aI0
aI1
aI2
aI3
aI-6
aa(lp288
V0021501044
p289
aVMAR 21, 2016
p290
aVCLE vs. DEN
p291
aVW
p292
aI25
aI5
aI9
aF0.556
aI3
aI7
aF0.429
aI1
aI2
aF0.5
aI0
aI3
aI3
aI2
aI0
aI1
aI0
aI2
aI14
aI20
aa(lp293
V0021501059
p294
aVMAR 23, 2016
p295
aVCLE vs. MIL
p296
aVW
p297
aI13
aI0
aI5
aF0.0
aI0
aI5
aF0.0
aI0
aI0
aF0.0
aI0
aI0
aI0
aI1
aI0
aI1
aI0
aI2
aI0
aI-3
aa(lp298
V0021501069
p299
aVMAR 24, 2016
p300
aVCLE @ BKN
p301
aVL
p302
aI14
aI1
aI7
aF0.143
aI1
aI6
aF0.167
aI2
aI2
aF1.0
aI1
aI1
aI2
aI1
aI0
aI0
aI0
aI1
aI5
aI2
aa(lp303
V0021501086
p304
aVMAR 26, 2016
p305
aVCLE @ NYK
p306
aVW
p307
aI14
aI3
aI7
aF0.429
aI0
aI3
aF0.0
aI0
aI0
aF0.0
aI2
aI2
aI4
aI1
aI1
aI0
aI1
aI3
aI6
aI1
aa(lp308
V0021501111
p309
aVMAR 29, 2016
p310
aVCLE vs. HOU
p311
aVL
p312
aI10
aI0
aI3
aF0.0
aI0
aI3
aF0.0
aI0
aI0
aF0.0
aI1
aI0
aI1
aI0
aI0
aI0
aI0
aI2
aI0
aI-5
aa(lp313
V0021501122
p314
aVMAR 31, 2016
p315
aVCLE vs. BKN
p316
aVW
p317
aI23
aI5
aI10
aF0.5
aI3
aI6
aF0.5
aI0
aI0
aF0.0
aI2
aI6
aI8
aI2
aI0
aI0
aI1
aI2
aI13
aI0
aa(lp318
V0021501131
p319
aVAPR 01, 2016
p320
aVCLE @ ATL
p321
aVW
p322
aI13
aI2
aI6
aF0.333
aI1
aI4
aF0.25
aI1
aI2
aF0.5
aI0
aI1
aI1
aI0
aI0
aI0
aI1
aI1
aI6
aI1
aa(lp323
V0021501144
p324
aVAPR 03, 2016
p325
aVCLE vs. CHA
p326
aVW
p327
aI15
aI1
aI7
aF0.143
aI1
aI5
aF0.2
aI0
aI0
aF0.0
aI0
aI7
aI7
aI1
aI0
aI0
aI2
aI2
aI3
aI12
aa(lp328
V0021501159
p329
aVAPR 05, 2016
p330
aVCLE @ MIL
p331
aVW
p332
aI23
aI5
aI12
aF0.417
aI2
aI6
aF0.333
aI0
aI0
aF0.0
aI0
aI6
aI6
aI1
aI1
aI1
aI1
aI2
aI12
aI12
aa(lp333
V0021501165
p334
aVAPR 06, 2016
p335
aVCLE @ IND
p336
aVL
p337
aI21
aI2
aI5
aF0.4
aI2
aI5
aF0.4
aI4
aI4
aF1.0
aI1
aI2
aI3
aI0
aI1
aI0
aI0
aI3
aI10
aI-14
aa(lp338
V0021501191
p339
aVAPR 09, 2016
p340
aVCLE @ CHI
p341
aVL
p342
aI15
aI2
aI6
aF0.333
aI2
aI5
aF0.4
aI0
aI0
aF0.0
aI0
aI1
aI1
aI0
aI0
aI0
aI0
aI2
aI6
aI-14
aa(lp343
V0021501203
p344
aVAPR 11, 2016
p345
aVCLE vs. ATL
p346
aVW
p347
aI16
aI2
aI5
aF0.4
aI1
aI4
aF0.25
aI0
aI0
aF0.0
aI0
aI2
aI2
aI0
aI0
aI1
aI2
aI2
aI5
aI-2
aa(lp348
V0021501220
p349
aVAPR 13, 2016
p350
aVCLE vs. DET
p351
aVL
p352
aI41
aI6
aI10
aF0.6
aI1
aI3
aF0.333
aI1
aI1
aF1.0
aI1
aI5
aI6
aI4
aI1
aI0
aI0
aI1
aI14
aI-5
aasS'name'
p353
VChanning Frye
p354
sS'weight'
p355
V255
p356
sS'age'
p357
I32
sS'experience'
p358
I10
sS'height'
p359
V6-11
p360
sS'position'
p361
VForward
p362
s.