(dp0
S'stats'
p1
(lp2
(lp3
V0021500009
p4
aVOCT 28, 2015
p5
aVIND @ TOR
p6
aVL
p7
aI25
aI5
aI8
aF0.625
aI0
aI0
aF0.0
aI0
aI0
aF0.0
aI3
aI5
aI8
aI3
aI2
aI2
aI1
aI6
aI10
aI-5
aa(lp8
V0021500018
p9
aVOCT 29, 2015
p10
aVIND vs. MEM
p11
aVL
p12
aI29
aI5
aI7
aF0.714
aI0
aI0
aF0.0
aI1
aI2
aF0.5
aI2
aI7
aI9
aI0
aI0
aI1
aI0
aI3
aI11
aI-10
aa(lp13
V0021500033
p14
aVOCT 31, 2015
p15
aVIND vs. UTA
p16
aVL
p17
aI23
aI3
aI7
aF0.429
aI0
aI0
aF0.0
aI0
aI0
aF0.0
aI2
aI3
aI5
aI0
aI0
aI2
aI0
aI5
aI6
aI-12
aa(lp18
V0021500054
p19
aVNOV 03, 2015
p20
aVIND @ DET
p21
aVW
p22
aI5
aI0
aI0
aF0.0
aI0
aI0
aF0.0
aI0
aI0
aF0.0
aI0
aI0
aI0
aI0
aI0
aI0
aI1
aI1
aI0
aI-4
aa(lp23
V0021500080
p24
aVNOV 06, 2015
p25
aVIND vs. MIA
p26
aVW
p27
aI25
aI3
aI8
aF0.375
aI0
aI0
aF0.0
aI0
aI2
aF0.0
aI1
aI5
aI6
aI2
aI0
aI3
aI1
aI3
aI6
aI10
aa(lp28
V0021500094
p29
aVNOV 08, 2015
p30
aVIND @ CLE
p31
aVL
p32
aI20
aI3
aI4
aF0.75
aI0
aI0
aF0.0
aI0
aI2
aF0.0
aI0
aI2
aI2
aI1
aI2
aI1
aI0
aI3
aI6
aI-8
aa(lp33
V0021500099
p34
aVNOV 09, 2015
p35
aVIND vs. ORL
p36
aVW
p37
aI28
aI4
aI6
aF0.667
aI0
aI0
aF0.0
aI0
aI0
aF0.0
aI2
aI7
aI9
aI1
aI1
aI2
aI2
aI2
aI8
aI9
aa(lp38
V0021500116
p39
aVNOV 11, 2015
p40
aVIND @ BOS
p41
aVW
p42
aI25
aI4
aI7
aF0.571
aI0
aI0
aF0.0
aI3
aI8
aF0.375
aI1
aI1
aI2
aI0
aI1
aI3
aI3
aI4
aI11
aI-6
aa(lp43
V0021500127
p44
aVNOV 13, 2015
p45
aVIND vs. MIN
p46
aVW
p47
aI31
aI6
aI11
aF0.545
aI0
aI0
aF0.0
aI0
aI4
aF0.0
aI4
aI5
aI9
aI1
aI1
aI0
aI0
aI1
aI12
aI2
aa(lp48
V0021500153
p49
aVNOV 16, 2015
p50
aVIND @ CHI
p51
aVL
p52
aI28
aI2
aI5
aF0.4
aI0
aI0
aF0.0
aI0
aI2
aF0.0
aI2
aI10
aI12
aI3
aI1
aI2
aI1
aI3
aI4
aI4
aa(lp53
V0021500167
p54
aVNOV 18, 2015
p55
aVIND @ PHI
p56
aVW
p57
aI28
aI1
aI4
aF0.25
aI0
aI0
aF0.0
aI0
aI0
aF0.0
aI3
aI4
aI7
aI2
aI3
aI2
aI0
aI3
aI2
aI43
aa(lp58
V0021500190
p59
aVNOV 21, 2015
p60
aVIND vs. MIL
p61
aVW
p62
aI22
aI2
aI6
aF0.333
aI0
aI0
aF0.0
aI0
aI1
aF0.0
aI4
aI3
aI7
aI1
aI1
aI1
aI1
aI1
aI4
aI14
aa(lp63
V0021500209
p64
aVNOV 24, 2015
p65
aVIND @ WAS
p66
aVW
p67
aI22
aI3
aI7
aF0.429
aI0
aI0
aF0.0
aI1
aI3
aF0.333
aI1
aI8
aI9
aI2
aI2
aI0
aI1
aI4
aI7
aI22
aa(lp68
V0021500231
p69
aVNOV 27, 2015
p70
aVIND vs. CHI
p71
aVW
p72
aI27
aI4
aI8
aF0.5
aI0
aI0
aF0.0
aI7
aI10
aF0.7
aI3
aI6
aI9
aI4
aI1
aI1
aI2
aI4
aI15
aI22
aa(lp73
V0021500253
p74
aVNOV 29, 2015
p75
aVIND @ LAL
p76
aVW
p77
aI28
aI2
aI3
aF0.667
aI0
aI0
aF0.0
aI4
aI6
aF0.667
aI2
aI8
aI10
aI2
aI0
aI2
aI2
aI4
aI8
aI-7
aa(lp78
V0021500276
p79
aVDEC 02, 2015
p80
aVIND @ LAC
p81
aVW
p82
aI27
aI5
aI6
aF0.833
aI0
aI0
aF0.0
aI4
aI6
aF0.667
aI3
aI4
aI7
aI0
aI1
aI4
aI4
aI4
aI14
aI4
aa(lp83
V0021500281
p84
aVDEC 03, 2015
p85
aVIND @ POR
p86
aVL
p87
aI26
aI4
aI8
aF0.5
aI0
aI0
aF0.0
aI2
aI2
aF1.0
aI7
aI4
aI11
aI3
aI0
aI0
aI0
aI5
aI10
aI2
aa(lp88
V0021500297
p89
aVDEC 05, 2015
p90
aVIND @ UTA
p91
aVL
p92
aI23
aI3
aI3
aF1.0
aI0
aI0
aF0.0
aI0
aI2
aF0.0
aI1
aI4
aI5
aI1
aI2
aI0
aI3
aI6
aI6
aI-12
aa(lp93
V0021500314
p94
aVDEC 08, 2015
p95
aVIND vs. GSW
p96
aVL
p97
aI21
aI3
aI5
aF0.6
aI0
aI0
aF0.0
aI2
aI2
aF1.0
aI0
aI7
aI7
aI3
aI2
aI0
aI1
aI2
aI8
aI-11
aa(lp98
V0021500333
p99
aVDEC 11, 2015
p100
aVIND vs. MIA
p101
aVW
p102
aI36
aI7
aI9
aF0.778
aI0
aI0
aF0.0
aI4
aI4
aF1.0
aI2
aI10
aI12
aI2
aI2
aI1
aI0
aI1
aI18
aI17
aa(lp103
V0021500346
p104
aVDEC 12, 2015
p105
aVIND @ DET
p106
aVL
p107
aI22
aI4
aI4
aF1.0
aI0
aI0
aF0.0
aI1
aI2
aF0.5
aI1
aI1
aI2
aI1
aI0
aI1
aI3
aI1
aI9
aI-20
aa(lp108
V0021500357
p109
aVDEC 14, 2015
p110
aVIND vs. TOR
p111
aVW
p112
aI14
aI1
aI5
aF0.2
aI0
aI0
aF0.0
aI0
aI0
aF0.0
aI0
aI2
aI2
aI0
aI0
aI0
aI0
aI4
aI2
aI-7
aa(lp113
V0021500371
p114
aVDEC 16, 2015
p115
aVIND vs. DAL
p116
aVW
p117
aI22
aI2
aI2
aF1.0
aI0
aI0
aF0.0
aI1
aI4
aF0.25
aI0
aI10
aI10
aI3
aI0
aI0
aI1
aI2
aI5
aI4
aa(lp118
V0021500386
p119
aVDEC 18, 2015
p120
aVIND vs. BKN
p121
aVW
p122
aI25
aI5
aI7
aF0.714
aI0
aI0
aF0.0
aI0
aI0
aF0.0
aI2
aI7
aI9
aI2
aI0
aI1
aI0
aI1
aI10
aI-5
aa(lp123
V0021500402
p124
aVDEC 19, 2015
p125
aVIND @ MEM
p126
aVL
p127
aI18
aI2
aI5
aF0.4
aI0
aI0
aF0.0
aI3
aI4
aF0.75
aI2
aI4
aI6
aI1
aI1
aI0
aI2
aI5
aI7
aI-8
aa(lp128
V0021500416
p129
aVDEC 21, 2015
p130
aVIND @ SAS
p131
aVL
p132
aI24
aI4
aI6
aF0.667
aI0
aI0
aF0.0
aI1
aI2
aF0.5
aI4
aI7
aI11
aI0
aI1
aI1
aI1
aI2
aI9
aI-7
aa(lp133
V0021500425
p134
aVDEC 23, 2015
p135
aVIND vs. SAC
p136
aVL
p137
aI28
aI3
aI4
aF0.75
aI0
aI0
aF0.0
aI3
aI4
aF0.75
aI1
aI5
aI6
aI0
aI1
aI1
aI1
aI5
aI9
aI10
aa(lp138
V0021500448
p139
aVDEC 26, 2015
p140
aVIND @ MIN
p141
aVW
p142
aI23
aI4
aI4
aF1.0
aI0
aI0
aF0.0
aI3
aI3
aF1.0
aI3
aI3
aI6
aI2
aI1
aI0
aI2
aI3
aI11
aI-4
aa(lp143
V0021500459
p144
aVDEC 28, 2015
p145
aVIND vs. ATL
p146
aVW
p147
aI25
aI5
aI8
aF0.625
aI0
aI0
aF0.0
aI3
aI5
aF0.6
aI5
aI4
aI9
aI1
aI1
aI0
aI0
aI5
aI13
aI-10
aa(lp148
V0021500478
p149
aVDEC 30, 2015
p150
aVIND @ CHI
p151
aVL
p152
aI26
aI3
aI5
aF0.6
aI0
aI0
aF0.0
aI1
aI1
aF1.0
aI3
aI4
aI7
aI1
aI1
aI1
aI1
aI2
aI7
aI7
aa(lp153
V0021500498
p154
aVJAN 02, 2016
p155
aVIND vs. DET
p156
aVW
p157
aI16
aI0
aI2
aF0.0
aI0
aI0
aF0.0
aI1
aI2
aF0.5
aI1
aI3
aI4
aI0
aI1
aI0
aI0
aI2
aI1
aI-6
aa(lp158
V0021500515
p159
aVJAN 04, 2016
p160
aVIND @ MIA
p161
aVL
p162
aI33
aI4
aI5
aF0.8
aI0
aI0
aF0.0
aI5
aI8
aF0.625
aI2
aI7
aI9
aI0
aI0
aI1
aI2
aI5
aI13
aI0
aa(lp163
V0021500526
p164
aVJAN 06, 2016
p165
aVIND @ ORL
p166
aVW
p167
aI23
aI2
aI4
aF0.5
aI0
aI0
aF0.0
aI4
aI6
aF0.667
aI2
aI10
aI12
aI3
aI0
aI1
aI0
aI4
aI8
aI22
aa(lp168
V0021500544
p169
aVJAN 08, 2016
p170
aVIND @ NOP
p171
aVW
p172
aI25
aI7
aI12
aF0.583
aI0
aI0
aF0.0
aI3
aI4
aF0.75
aI4
aI6
aI10
aI1
aI0
aI4
aI1
aI3
aI17
aI6
aa(lp173
V0021500561
p174
aVJAN 10, 2016
p175
aVIND @ HOU
p176
aVL
p177
aI29
aI6
aI8
aF0.75
aI0
aI0
aF0.0
aI1
aI1
aF1.0
aI1
aI6
aI7
aI1
aI1
aI1
aI1
aI4
aI13
aI-5
aa(lp178
V0021500569
p179
aVJAN 12, 2016
p180
aVIND vs. PHX
p181
aVW
p182
aI25
aI3
aI4
aF0.75
aI0
aI0
aF0.0
aI4
aI7
aF0.571
aI1
aI4
aI5
aI2
aI2
aI0
aI1
aI5
aI10
aI14
aa(lp183
V0021500580
p184
aVJAN 13, 2016
p185
aVIND @ BOS
p186
aVL
p187
aI22
aI5
aI6
aF0.833
aI0
aI0
aF0.0
aI0
aI0
aF0.0
aI4
aI6
aI10
aI2
aI3
aI0
aI2
aI4
aI10
aI-12
aa(lp188
V0021500593
p189
aVJAN 15, 2016
p190
aVIND vs. WAS
p191
aVL
p192
aI20
aI3
aI5
aF0.6
aI0
aI0
aF0.0
aI1
aI2
aF0.5
aI0
aI4
aI4
aI0
aI1
aI0
aI3
aI2
aI7
aI-7
aa(lp193
V0021500628
p194
aVJAN 19, 2016
p195
aVIND @ PHX
p196
aVW
p197
aI11
aI0
aI0
aF0.0
aI0
aI0
aF0.0
aI0
aI0
aF0.0
aI1
aI1
aI2
aI0
aI0
aI1
aI1
aI1
aI0
aI-3
aa(lp198
V0021500676
p199
aVJAN 26, 2016
p200
aVIND vs. LAC
p201
aVL
p202
aI29
aI4
aI7
aF0.571
aI0
aI0
aF0.0
aI4
aI10
aF0.4
aI6
aI4
aI10
aI2
aI2
aI0
aI1
aI3
aI12
aI3
aa(lp203
V0021500692
p204
aVJAN 28, 2016
p205
aVIND vs. ATL
p206
aVW
p207
aI30
aI1
aI4
aF0.25
aI0
aI0
aF0.0
aI6
aI6
aF1.0
aI2
aI4
aI6
aI2
aI0
aI2
aI2
aI1
aI8
aI8
aa(lp208
V0021500762
p209
aVFEB 06, 2016
p210
aVIND vs. DET
p211
aVW
p212
aI20
aI1
aI2
aF0.5
aI0
aI0
aF0.0
aI2
aI4
aF0.5
aI1
aI2
aI3
aI0
aI0
aI0
aI1
aI5
aI4
aI1
aa(lp213
V0021500776
p214
aVFEB 08, 2016
p215
aVIND vs. LAL
p216
aVW
p217
aI27
aI3
aI4
aF0.75
aI0
aI0
aF0.0
aI5
aI8
aF0.625
aI1
aI4
aI5
aI1
aI0
aI1
aI2
aI4
aI11
aI13
aa(lp218
V0021500789
p219
aVFEB 10, 2016
p220
aVIND vs. CHA
p221
aVL
p222
aI26
aI4
aI8
aF0.5
aI0
aI0
aF0.0
aI0
aI0
aF0.0
aI2
aI6
aI8
aI3
aI1
aI0
aI1
aI0
aI8
aI-4
aa(lp223
V0021500812
p224
aVFEB 19, 2016
p225
aVIND @ OKC
p226
aVW
p227
aI35
aI9
aI18
aF0.5
aI0
aI0
aF0.0
aI1
aI1
aF1.0
aI4
aI7
aI11
aI3
aI2
aI2
aI3
aI2
aI19
aI12
aa(lp228
V0021500828
p229
aVFEB 21, 2016
p230
aVIND @ ORL
p231
aVW
p232
aI32
aI6
aI6
aF1.0
aI0
aI0
aF0.0
aI2
aI4
aF0.5
aI0
aI9
aI9
aI2
aI2
aI1
aI4
aI2
aI14
aI6
aa(lp233
V0021500834
p234
aVFEB 22, 2016
p235
aVIND @ MIA
p236
aVL
p237
aI31
aI3
aI5
aF0.6
aI0
aI0
aF0.0
aI5
aI8
aF0.625
aI2
aI4
aI6
aI1
aI1
aI2
aI1
aI6
aI11
aI-2
aa(lp238
V0021500846
p239
aVFEB 24, 2016
p240
aVIND vs. NYK
p241
aVW
p242
aI31
aI4
aI5
aF0.8
aI0
aI0
aF0.0
aI0
aI1
aF0.0
aI2
aI5
aI7
aI1
aI0
aI1
aI2
aI1
aI8
aI10
aa(lp243
V0021500861
p244
aVFEB 26, 2016
p245
aVIND vs. CHA
p246
aVL
p247
aI32
aI2
aI4
aF0.5
aI0
aI0
aF0.0
aI2
aI4
aF0.5
aI2
aI7
aI9
aI4
aI2
aI0
aI1
aI2
aI6
aI-5
aa(lp248
V0021500880
p249
aVFEB 28, 2016
p250
aVIND vs. POR
p251
aVL
p252
aI19
aI3
aI5
aF0.6
aI0
aI0
aF0.0
aI1
aI3
aF0.333
aI0
aI3
aI3
aI2
aI1
aI0
aI0
aI4
aI7
aI-2
aa(lp253
V0021500884
p254
aVFEB 29, 2016
p255
aVIND @ CLE
p256
aVL
p257
aI21
aI1
aI6
aF0.167
aI0
aI0
aF0.0
aI0
aI0
aF0.0
aI1
aI6
aI7
aI0
aI2
aI4
aI3
aI4
aI2
aI1
aa(lp258
V0021500903
p259
aVMAR 02, 2016
p260
aVIND @ MIL
p261
aVW
p262
aI24
aI4
aI7
aF0.571
aI0
aI0
aF0.0
aI2
aI3
aF0.667
aI1
aI7
aI8
aI3
aI1
aI3
aI0
aI5
aI10
aI0
aa(lp263
V0021500912
p264
aVMAR 04, 2016
p265
aVIND @ CHA
p266
aVL
p267
aI32
aI5
aI10
aF0.5
aI0
aI0
aF0.0
aI0
aI1
aF0.0
aI2
aI12
aI14
aI3
aI0
aI2
aI3
aI3
aI10
aI1
aa(lp268
V0021500924
p269
aVMAR 05, 2016
p270
aVIND @ WAS
p271
aVW
p272
aI25
aI3
aI8
aF0.375
aI0
aI0
aF0.0
aI2
aI2
aF1.0
aI0
aI4
aI4
aI2
aI1
aI1
aI1
aI6
aI8
aI-4
aa(lp273
V0021500939
p274
aVMAR 07, 2016
p275
aVIND vs. SAS
p276
aVW
p277
aI31
aI4
aI8
aF0.5
aI0
aI0
aF0.0
aI3
aI4
aF0.75
aI3
aI6
aI9
aI2
aI2
aI2
aI3
aI4
aI11
aI0
aa(lp278
V0021500973
p279
aVMAR 12, 2016
p280
aVIND @ DAL
p281
aVW
p282
aI31
aI3
aI6
aF0.5
aI0
aI0
aF0.0
aI4
aI4
aF1.0
aI0
aI3
aI3
aI1
aI1
aI2
aI1
aI5
aI10
aI13
aa(lp283
V0021500984
p284
aVMAR 13, 2016
p285
aVIND @ ATL
p286
aVL
p287
aI21
aI4
aI5
aF0.8
aI0
aI0
aF0.0
aI0
aI0
aF0.0
aI1
aI6
aI7
aI0
aI0
aI1
aI1
aI0
aI8
aI-22
aa(lp288
V0021500997
p289
aVMAR 15, 2016
p290
aVIND vs. BOS
p291
aVW
p292
aI25
aI5
aI10
aF0.5
aI0
aI0
aF0.0
aI3
aI4
aF0.75
aI2
aI4
aI6
aI1
aI0
aI0
aI0
aI0
aI13
aI-10
aa(lp293
V0021501031
p294
aVMAR 19, 2016
p295
aVIND vs. OKC
p296
aVL
p297
aI36
aI5
aI13
aF0.385
aI0
aI0
aF0.0
aI1
aI4
aF0.25
aI1
aI4
aI5
aI0
aI1
aI0
aI3
aI3
aI11
aI10
aa(lp298
V0021501045
p299
aVMAR 21, 2016
p300
aVIND vs. PHI
p301
aVW
p302
aI31
aI6
aI8
aF0.75
aI0
aI0
aF0.0
aI0
aI1
aF0.0
aI2
aI8
aI10
aI0
aI0
aI1
aI4
aI2
aI12
aI4
aa(lp303
V0021501068
p304
aVMAR 24, 2016
p305
aVIND vs. NOP
p306
aVW
p307
aI30
aI1
aI4
aF0.25
aI0
aI0
aF0.0
aI1
aI2
aF0.5
aI1
aI2
aI3
aI2
aI2
aI0
aI0
aI2
aI3
aI8
aa(lp308
V0021501082
p309
aVMAR 26, 2016
p310
aVIND @ BKN
p311
aVL
p312
aI26
aI6
aI7
aF0.857
aI0
aI0
aF0.0
aI6
aI8
aF0.75
aI0
aI5
aI5
aI2
aI2
aI1
aI0
aI5
aI18
aI-10
aa(lp313
V0021501093
p314
aVMAR 27, 2016
p315
aVIND vs. HOU
p316
aVW
p317
aI34
aI8
aI12
aF0.667
aI0
aI0
aF0.0
aI3
aI8
aF0.375
aI6
aI5
aI11
aI4
aI0
aI1
aI2
aI3
aI19
aI15
aa(lp318
V0021501107
p319
aVMAR 29, 2016
p320
aVIND vs. CHI
p321
aVL
p322
aI29
aI9
aI12
aF0.75
aI0
aI0
aF0.0
aI0
aI0
aF0.0
aI3
aI4
aI7
aI1
aI0
aI2
aI1
aI2
aI18
aI4
aa(lp323
V0021501123
p324
aVMAR 31, 2016
p325
aVIND vs. ORL
p326
aVL
p327
aI33
aI2
aI5
aF0.4
aI0
aI0
aF0.0
aI2
aI5
aF0.4
aI0
aI7
aI7
aI3
aI2
aI1
aI3
aI4
aI6
aI-14
aa(lp328
V0021501138
p329
aVAPR 02, 2016
p330
aVIND @ PHI
p331
aVW
p332
aI21
aI4
aI6
aF0.667
aI0
aI0
aF0.0
aI1
aI1
aF1.0
aI3
aI9
aI12
aI0
aI1
aI1
aI2
aI4
aI9
aI-2
aa(lp333
V0021501151
p334
aVAPR 03, 2016
p335
aVIND @ NYK
p336
aVW
p337
aI32
aI3
aI4
aF0.75
aI0
aI0
aF0.0
aI4
aI6
aF0.667
aI2
aI6
aI8
aI4
aI0
aI1
aI4
aI2
aI10
aI-9
aa(lp338
V0021501165
p339
aVAPR 06, 2016
p340
aVIND vs. CLE
p341
aVW
p342
aI22
aI5
aI7
aF0.714
aI0
aI0
aF0.0
aI5
aI6
aF0.833
aI4
aI4
aI8
aI3
aI1
aI0
aI2
aI3
aI15
aI10
aa(lp343
V0021501183
p344
aVAPR 08, 2016
p345
aVIND @ TOR
p346
aVL
p347
aI18
aI1
aI5
aF0.2
aI0
aI0
aF0.0
aI0
aI0
aF0.0
aI0
aI5
aI5
aI0
aI1
aI3
aI1
aI5
aI2
aI-3
aa(lp348
V0021501199
p349
aVAPR 10, 2016
p350
aVIND vs. BKN
p351
aVW
p352
aI22
aI7
aI10
aF0.7
aI0
aI0
aF0.0
aI2
aI4
aF0.5
aI2
aI4
aI6
aI1
aI1
aI0
aI1
aI1
aI16
aI18
aa(lp353
V0021501212
p354
aVAPR 12, 2016
p355
aVIND vs. NYK
p356
aVW
p357
aI30
aI6
aI9
aF0.667
aI0
aI0
aF0.0
aI2
aI2
aF1.0
aI2
aI6
aI8
aI0
aI0
aI0
aI2
aI2
aI14
aI15
aasS'name'
p358
VIan Mahinmi
p359
sS'weight'
p360
V250
p361
sS'age'
p362
I29
sS'experience'
p363
I8
sS'height'
p364
V6-11
p365
sS'position'
p366
VCenter
p367
s.