(dp0
S'stats'
p1
(lp2
(lp3
V0021500014
p4
aVOCT 28, 2015
p5
aVDAL @ PHX
p6
aVW
p7
aI3
aI1
aI2
aF0.5
aI0
aI1
aF0.0
aI0
aI0
aF0.0
aI0
aI1
aI1
aI0
aI0
aI0
aI0
aI2
aI2
aI-11
aa(lp8
V0021500020
p9
aVOCT 29, 2015
p10
aVDAL @ LAC
p11
aVL
p12
aI18
aI2
aI8
aF0.25
aI1
aI5
aF0.2
aI0
aI0
aF0.0
aI0
aI6
aI6
aI1
aI1
aI1
aI2
aI0
aI5
aI3
aa(lp13
V0021500057
p14
aVNOV 03, 2015
p15
aVDAL vs. TOR
p16
aVL
p17
aI1
aI1
aI2
aF0.5
aI0
aI0
aF0.0
aI0
aI0
aF0.0
aI0
aI0
aI0
aI0
aI0
aI0
aI0
aI0
aI2
aI2
aa(lp18
V0021500072
p19
aVNOV 05, 2015
p20
aVDAL vs. CHA
p21
aVL
p22
aI4
aI0
aI1
aF0.0
aI0
aI0
aF0.0
aI0
aI0
aF0.0
aI1
aI0
aI1
aI0
aI0
aI0
aI0
aI0
aI0
aI6
aa(lp23
V0021500088
p24
aVNOV 07, 2015
p25
aVDAL vs. NOP
p26
aVW
p27
aI4
aI0
aI1
aF0.0
aI0
aI0
aF0.0
aI0
aI0
aF0.0
aI0
aI0
aI0
aI0
aI0
aI0
aI0
aI0
aI0
aI0
aa(lp28
V0021500112
p29
aVNOV 10, 2015
p30
aVDAL @ NOP
p31
aVL
p32
aI15
aI4
aI4
aF1.0
aI1
aI1
aF1.0
aI2
aI2
aF1.0
aI0
aI2
aI2
aI1
aI0
aI0
aI1
aI0
aI11
aI4
aa(lp33
V0021500118
p34
aVNOV 11, 2015
p35
aVDAL vs. LAC
p36
aVW
p37
aI10
aI3
aI3
aF1.0
aI1
aI1
aF1.0
aI0
aI0
aF0.0
aI0
aI2
aI2
aI0
aI1
aI1
aI0
aI1
aI7
aI2
aa(lp38
V0021500135
p39
aVNOV 13, 2015
p40
aVDAL vs. LAL
p41
aVW
p42
aI3
aI1
aI1
aF1.0
aI0
aI0
aF0.0
aI0
aI0
aF0.0
aI0
aI0
aI0
aI0
aI0
aI0
aI0
aI1
aI2
aI-1
aa(lp43
V0021500140
p44
aVNOV 14, 2015
p45
aVDAL @ HOU
p46
aVW
p47
aI12
aI1
aI4
aF0.25
aI1
aI4
aF0.25
aI0
aI0
aF0.0
aI0
aI1
aI1
aI0
aI0
aI0
aI2
aI0
aI3
aI5
aa(lp48
V0021500152
p49
aVNOV 16, 2015
p50
aVDAL @ PHI
p51
aVW
p52
aI2
aI0
aI0
aF0.0
aI0
aI0
aF0.0
aI0
aI0
aF0.0
aI0
aI0
aI0
aI0
aI0
aI0
aI0
aI0
aI0
aI-3
aa(lp53
V0021500211
p54
aVNOV 24, 2015
p55
aVDAL @ MEM
p56
aVL
p57
aI5
aI1
aI2
aF0.5
aI0
aI1
aF0.0
aI1
aI2
aF0.5
aI0
aI1
aI1
aI0
aI0
aI0
aI1
aI0
aI3
aI-3
aa(lp58
V0021500224
p59
aVNOV 25, 2015
p60
aVDAL @ SAS
p61
aVL
p62
aI6
aI0
aI2
aF0.0
aI0
aI1
aF0.0
aI1
aI2
aF0.5
aI0
aI2
aI2
aI1
aI0
aI0
aI0
aI0
aI1
aI7
aa(lp63
V0021500241
p64
aVNOV 28, 2015
p65
aVDAL vs. DEN
p66
aVW
p67
aI9
aI0
aI2
aF0.0
aI0
aI2
aF0.0
aI0
aI2
aF0.0
aI0
aI1
aI1
aI0
aI0
aI0
aI1
aI1
aI0
aI-14
aa(lp68
V0021500260
p69
aVNOV 30, 2015
p70
aVDAL @ SAC
p71
aVL
p72
aI1
aI0
aI0
aF0.0
aI0
aI0
aF0.0
aI0
aI0
aF0.0
aI0
aI0
aI0
aI0
aI0
aI0
aI0
aI0
aI0
aI2
aa(lp73
V0021500267
p74
aVDEC 01, 2015
p75
aVDAL @ POR
p76
aVW
p77
aI3
aI0
aI0
aF0.0
aI0
aI0
aF0.0
aI0
aI0
aF0.0
aI0
aI0
aI0
aI0
aI0
aI0
aI0
aI0
aI0
aI-8
aa(lp78
V0021500302
p79
aVDEC 06, 2015
p80
aVDAL @ WAS
p81
aVW
p82
aI5
aI0
aI0
aF0.0
aI0
aI0
aF0.0
aI0
aI0
aF0.0
aI0
aI1
aI1
aI0
aI0
aI0
aI1
aI2
aI0
aI-6
aa(lp83
V0021500371
p84
aVDEC 16, 2015
p85
aVDAL @ IND
p86
aVL
p87
aI6
aI0
aI5
aF0.0
aI0
aI3
aF0.0
aI0
aI0
aF0.0
aI0
aI0
aI0
aI0
aI0
aI0
aI0
aI0
aI0
aI-8
aa(lp88
V0021500421
p89
aVDEC 22, 2015
p90
aVDAL @ TOR
p91
aVL
p92
aI5
aI2
aI2
aF1.0
aI0
aI0
aF0.0
aI0
aI0
aF0.0
aI0
aI1
aI1
aI0
aI0
aI0
aI0
aI2
aI4
aI12
aa(lp93
V0021500480
p94
aVDEC 30, 2015
p95
aVDAL vs. GSW
p96
aVW
p97
aI5
aI0
aI1
aF0.0
aI0
aI0
aF0.0
aI1
aI2
aF0.5
aI0
aI0
aI0
aI0
aI0
aI1
aI1
aI1
aI1
aI-1
aa(lp98
V0021500531
p99
aVJAN 06, 2016
p100
aVDAL @ NOP
p101
aVW
p102
aI17
aI2
aI4
aF0.5
aI1
aI2
aF0.5
aI0
aI0
aF0.0
aI0
aI4
aI4
aI2
aI1
aI0
aI0
aI0
aI5
aI13
aa(lp103
V0021500545
p104
aVJAN 08, 2016
p105
aVDAL @ MIL
p106
aVL
p107
aI4
aI0
aI0
aF0.0
aI0
aI0
aF0.0
aI0
aI0
aF0.0
aI0
aI0
aI0
aI0
aI0
aI0
aI0
aI0
aI0
aI-1
aa(lp108
V0021500582
p109
aVJAN 13, 2016
p110
aVDAL @ OKC
p111
aVL
p112
aI27
aI2
aI9
aF0.222
aI1
aI7
aF0.143
aI0
aI0
aF0.0
aI0
aI4
aI4
aI3
aI3
aI1
aI1
aI5
aI5
aI-2
aa(lp113
V0021500637
p114
aVJAN 20, 2016
p115
aVDAL vs. MIN
p116
aVW
p117
aI8
aI0
aI1
aF0.0
aI0
aI0
aF0.0
aI2
aI2
aF1.0
aI0
aI0
aI0
aI0
aI0
aI0
aI0
aI0
aI2
aI1
aa(lp118
V0021500665
p119
aVJAN 24, 2016
p120
aVDAL @ HOU
p121
aVL
p122
aI3
aI0
aI2
aF0.0
aI0
aI2
aF0.0
aI0
aI0
aF0.0
aI0
aI1
aI1
aI0
aI0
aI0
aI0
aI0
aI0
aI4
aa(lp123
V0021500683
p124
aVJAN 26, 2016
p125
aVDAL @ LAL
p126
aVW
p127
aI11
aI0
aI1
aF0.0
aI0
aI1
aF0.0
aI0
aI0
aF0.0
aI0
aI2
aI2
aI0
aI1
aI0
aI0
aI0
aI0
aI6
aa(lp128
V0021500691
p129
aVJAN 27, 2016
p130
aVDAL @ GSW
p131
aVL
p132
aI11
aI3
aI3
aF1.0
aI0
aI0
aF0.0
aI0
aI0
aF0.0
aI1
aI1
aI2
aI0
aI0
aI0
aI0
aI0
aI6
aI-1
aa(lp133
V0021500702
p134
aVJAN 29, 2016
p135
aVDAL vs. BKN
p136
aVW
p137
aI11
aI1
aI1
aF1.0
aI0
aI0
aF0.0
aI0
aI0
aF0.0
aI0
aI3
aI3
aI1
aI1
aI1
aI1
aI0
aI2
aI5
aa(lp138
V0021500717
p139
aVJAN 31, 2016
p140
aVDAL vs. PHX
p141
aVW
p142
aI4
aI0
aI0
aF0.0
aI0
aI0
aF0.0
aI0
aI0
aF0.0
aI0
aI1
aI1
aI0
aI0
aI0
aI1
aI0
aI0
aI1
aa(lp143
V0021500723
p144
aVFEB 01, 2016
p145
aVDAL @ ATL
p146
aVL
p147
aI8
aI0
aI1
aF0.0
aI0
aI1
aF0.0
aI2
aI2
aF1.0
aI0
aI2
aI2
aI1
aI0
aI1
aI0
aI2
aI2
aI-4
aa(lp148
V0021500741
p149
aVFEB 03, 2016
p150
aVDAL vs. MIA
p151
aVL
p152
aI22
aI2
aI7
aF0.286
aI1
aI2
aF0.5
aI0
aI0
aF0.0
aI0
aI7
aI7
aI0
aI1
aI2
aI0
aI3
aI5
aI-3
aa(lp153
V0021500759
p154
aVFEB 05, 2016
p155
aVDAL vs. SAS
p156
aVL
p157
aI18
aI4
aI7
aF0.571
aI2
aI3
aF0.667
aI3
aI3
aF1.0
aI1
aI2
aI3
aI0
aI0
aI0
aI1
aI1
aI13
aI3
aa(lp158
V0021500765
p159
aVFEB 06, 2016
p160
aVDAL @ MEM
p161
aVW
p162
aI13
aI2
aI5
aF0.4
aI1
aI3
aF0.333
aI1
aI2
aF0.5
aI0
aI4
aI4
aI0
aI0
aI0
aI0
aI1
aI6
aI6
aa(lp163
V0021500787
p164
aVFEB 09, 2016
p165
aVDAL vs. UTA
p166
aVL
p167
aI10
aI1
aI3
aF0.333
aI1
aI3
aF0.333
aI0
aI0
aF0.0
aI0
aI1
aI1
aI0
aI1
aI0
aI0
aI1
aI3
aI-4
aa(lp168
V0021500805
p169
aVFEB 19, 2016
p170
aVDAL @ ORL
p171
aVL
p172
aI2
aI0
aI2
aF0.0
aI0
aI1
aF0.0
aI0
aI0
aF0.0
aI0
aI0
aI0
aI0
aI0
aI1
aI0
aI0
aI0
aI0
aa(lp173
V0021500830
p174
aVFEB 21, 2016
p175
aVDAL vs. PHI
p176
aVW
p177
aI6
aI1
aI2
aF0.5
aI0
aI0
aF0.0
aI2
aI2
aF1.0
aI0
aI2
aI2
aI0
aI0
aI0
aI0
aI1
aI4
aI1
aa(lp178
V0021500852
p179
aVFEB 24, 2016
p180
aVDAL vs. OKC
p181
aVL
p182
aI1
aI1
aI2
aF0.5
aI0
aI1
aF0.0
aI0
aI0
aF0.0
aI0
aI1
aI1
aI0
aI0
aI0
aI0
aI0
aI2
aI0
aa(lp183
V0021500882
p184
aVFEB 28, 2016
p185
aVDAL vs. MIN
p186
aVW
p187
aI9
aI2
aI4
aF0.5
aI2
aI3
aF0.667
aI4
aI4
aF1.0
aI0
aI2
aI2
aI0
aI0
aI0
aI2
aI0
aI10
aI-3
aa(lp188
V0021500894
p189
aVMAR 01, 2016
p190
aVDAL vs. ORL
p191
aVW
p192
aI4
aI0
aI1
aF0.0
aI0
aI0
aF0.0
aI0
aI0
aF0.0
aI0
aI0
aI0
aI0
aI0
aI0
aI0
aI0
aI0
aI-8
aa(lp193
V0021500942
p194
aVMAR 07, 2016
p195
aVDAL vs. LAC
p196
aVL
p197
aI6
aI2
aI2
aF1.0
aI1
aI1
aF1.0
aI2
aI2
aF1.0
aI0
aI1
aI1
aI0
aI0
aI0
aI1
aI1
aI7
aI11
aa(lp198
V0021500988
p199
aVMAR 14, 2016
p200
aVDAL @ CHA
p201
aVW
p202
aI8
aI0
aI1
aF0.0
aI0
aI1
aF0.0
aI1
aI2
aF0.5
aI0
aI3
aI3
aI1
aI1
aI1
aI0
aI1
aI1
aI5
aa(lp203
V0021501005
p204
aVMAR 16, 2016
p205
aVDAL @ CLE
p206
aVL
p207
aI15
aI1
aI4
aF0.25
aI0
aI1
aF0.0
aI2
aI2
aF1.0
aI1
aI1
aI2
aI0
aI1
aI1
aI0
aI0
aI4
aI4
aa(lp208
V0021501026
p209
aVMAR 18, 2016
p210
aVDAL vs. GSW
p211
aVL
p212
aI14
aI0
aI2
aF0.0
aI0
aI1
aF0.0
aI0
aI0
aF0.0
aI1
aI2
aI3
aI0
aI0
aI1
aI0
aI0
aI0
aI-17
aa(lp213
V0021501037
p214
aVMAR 20, 2016
p215
aVDAL vs. POR
p216
aVW
p217
aI6
aI0
aI1
aF0.0
aI0
aI0
aF0.0
aI0
aI0
aF0.0
aI0
aI0
aI0
aI0
aI0
aI0
aI0
aI0
aI0
aI-1
aa(lp218
V0021501067
p219
aVMAR 23, 2016
p220
aVDAL @ POR
p221
aVL
p222
aI5
aI0
aI2
aF0.0
aI0
aI2
aF0.0
aI0
aI0
aF0.0
aI0
aI2
aI2
aI0
aI0
aI0
aI1
aI0
aI0
aI0
aa(lp223
V0021501080
p224
aVMAR 25, 2016
p225
aVDAL @ GSW
p226
aVL
p227
aI25
aI3
aI7
aF0.429
aI2
aI3
aF0.667
aI2
aI2
aF1.0
aI1
aI2
aI3
aI3
aI0
aI2
aI0
aI0
aI10
aI9
aa(lp228
V0021501095
p229
aVMAR 27, 2016
p230
aVDAL @ SAC
p231
aVL
p232
aI21
aI5
aI13
aF0.385
aI0
aI5
aF0.0
aI1
aI1
aF1.0
aI1
aI2
aI3
aI2
aI0
aI0
aI2
aI2
aI11
aI-12
aa(lp233
V0021501103
p234
aVMAR 28, 2016
p235
aVDAL @ DEN
p236
aVW
p237
aI24
aI5
aI8
aF0.625
aI1
aI3
aF0.333
aI0
aI0
aF0.0
aI2
aI2
aI4
aI2
aI1
aI2
aI0
aI1
aI11
aI1
aa(lp238
V0021501117
p239
aVMAR 30, 2016
p240
aVDAL vs. NYK
p241
aVW
p242
aI29
aI3
aI4
aF0.75
aI1
aI1
aF1.0
aI0
aI0
aF0.0
aI1
aI8
aI9
aI0
aI2
aI1
aI0
aI3
aI7
aI2
aa(lp243
V0021501129
p244
aVAPR 01, 2016
p245
aVDAL @ DET
p246
aVW
p247
aI33
aI1
aI7
aF0.143
aI0
aI3
aF0.0
aI2
aI2
aF1.0
aI1
aI6
aI7
aI2
aI0
aI1
aI0
aI1
aI4
aI-4
aa(lp248
V0021501146
p249
aVAPR 03, 2016
p250
aVDAL @ MIN
p251
aVW
p252
aI24
aI4
aI4
aF1.0
aI0
aI0
aF0.0
aI1
aI1
aF1.0
aI3
aI7
aI10
aI1
aI1
aI1
aI0
aI1
aI9
aI7
aa(lp253
V0021501170
p254
aVAPR 06, 2016
p255
aVDAL vs. HOU
p256
aVW
p257
aI20
aI2
aI5
aF0.4
aI0
aI1
aF0.0
aI1
aI2
aF0.5
aI1
aI2
aI3
aI2
aI0
aI1
aI2
aI1
aI5
aI3
aa(lp258
V0021501185
p259
aVAPR 08, 2016
p260
aVDAL vs. MEM
p261
aVW
p262
aI38
aI4
aI7
aF0.571
aI3
aI5
aF0.6
aI8
aI8
aF1.0
aI2
aI8
aI10
aI0
aI1
aI3
aI2
aI0
aI19
aI8
aa(lp263
V0021501196
p264
aVAPR 10, 2016
p265
aVDAL @ LAC
p266
aVL
p267
aI26
aI0
aI4
aF0.0
aI0
aI3
aF0.0
aI3
aI6
aF0.5
aI0
aI6
aI6
aI2
aI1
aI0
aI1
aI5
aI3
aI1
aa(lp268
V0021501210
p269
aVAPR 11, 2016
p270
aVDAL @ UTA
p271
aVW
p272
aI14
aI2
aI4
aF0.5
aI0
aI2
aF0.0
aI0
aI0
aF0.0
aI1
aI2
aI3
aI0
aI0
aI1
aI0
aI1
aI4
aI0
aa(lp273
V0021501223
p274
aVAPR 13, 2016
p275
aVDAL vs. SAS
p276
aVL
p277
aI30
aI2
aI5
aF0.4
aI1
aI3
aF0.333
aI2
aI2
aF1.0
aI0
aI5
aI5
aI4
aI1
aI1
aI0
aI4
aI7
aI-12
aasS'name'
p278
VJustin Anderson
p279
sS'weight'
p280
V228
p281
sS'age'
p282
I22
sS'experience'
p283
I0
sS'height'
p284
V6-6
p285
sS'position'
p286
VGuard-Forward
p287
s.