(dp0
S'stats'
p1
(lp2
(lp3
V0021500778
p4
aVFEB 08, 2016
p5
aVBKN vs. DEN
p6
aVW
p7
aI11
aI1
aI3
aF0.333
aI0
aI0
aF0.0
aI0
aI0
aF0.0
aI1
aI1
aI2
aI0
aI1
aI1
aI1
aI3
aI2
aI-2
aa(lp8
V0021500793
p9
aVFEB 10, 2016
p10
aVBKN vs. MEM
p11
aVL
p12
aI14
aI2
aI5
aF0.4
aI1
aI3
aF0.333
aI0
aI0
aF0.0
aI0
aI1
aI1
aI0
aI0
aI0
aI2
aI3
aI5
aI-5
aa(lp13
V0021500807
p14
aVFEB 19, 2016
p15
aVBKN vs. NYK
p16
aVW
p17
aI6
aI1
aI3
aF0.333
aI0
aI0
aF0.0
aI0
aI0
aF0.0
aI0
aI0
aI0
aI0
aI1
aI0
aI0
aI0
aI2
aI0
aa(lp18
V0021500827
p19
aVFEB 21, 2016
p20
aVBKN vs. CHA
p21
aVL
p22
aI10
aI1
aI4
aF0.25
aI0
aI1
aF0.0
aI0
aI0
aF0.0
aI1
aI0
aI1
aI0
aI0
aI0
aI0
aI0
aI2
aI-2
aa(lp23
V0021500858
p24
aVFEB 25, 2016
p25
aVBKN @ PHX
p26
aVW
p27
aI9
aI1
aI3
aF0.333
aI0
aI0
aF0.0
aI2
aI2
aF1.0
aI0
aI1
aI1
aI0
aI2
aI0
aI0
aI2
aI4
aI-2
aa(lp28
V0021500890
p29
aVFEB 29, 2016
p30
aVBKN @ LAC
p31
aVL
p32
aI10
aI0
aI2
aF0.0
aI0
aI1
aF0.0
aI0
aI0
aF0.0
aI0
aI1
aI1
aI0
aI2
aI0
aI1
aI2
aI0
aI-2
aa(lp33
V0021500920
p34
aVMAR 04, 2016
p35
aVBKN @ DEN
p36
aVW
p37
aI12
aI3
aI3
aF1.0
aI0
aI0
aF0.0
aI0
aI0
aF0.0
aI0
aI1
aI1
aI0
aI0
aI2
aI0
aI2
aI6
aI2
aa(lp38
V0021500926
p39
aVMAR 05, 2016
p40
aVBKN @ MIN
p41
aVL
p42
aI16
aI1
aI2
aF0.5
aI0
aI1
aF0.0
aI0
aI0
aF0.0
aI2
aI3
aI5
aI1
aI0
aI0
aI0
aI2
aI2
aI3
aa(lp43
V0021500964
p44
aVMAR 11, 2016
p45
aVBKN @ PHI
p46
aVL
p47
aI8
aI0
aI2
aF0.0
aI0
aI0
aF0.0
aI0
aI0
aF0.0
aI1
aI0
aI1
aI0
aI0
aI1
aI0
aI1
aI0
aI-5
aa(lp48
V0021500985
p49
aVMAR 13, 2016
p50
aVBKN vs. MIL
p51
aVL
p52
aI11
aI1
aI1
aF1.0
aI1
aI1
aF1.0
aI1
aI2
aF0.5
aI0
aI0
aI0
aI0
aI0
aI2
aI0
aI2
aI4
aI3
aa(lp53
V0021500999
p54
aVMAR 15, 2016
p55
aVBKN vs. PHI
p56
aVW
p57
aI7
aI0
aI1
aF0.0
aI0
aI0
aF0.0
aI1
aI2
aF0.5
aI0
aI1
aI1
aI0
aI1
aI0
aI0
aI2
aI1
aI1
aa(lp58
V0021501016
p59
aVMAR 17, 2016
p60
aVBKN @ CHI
p61
aVL
p62
aI15
aI2
aI4
aF0.5
aI1
aI1
aF1.0
aI0
aI0
aF0.0
aI2
aI1
aI3
aI1
aI1
aI0
aI0
aI2
aI5
aI-22
aa(lp63
V0021501069
p64
aVMAR 24, 2016
p65
aVBKN vs. CLE
p66
aVW
p67
aI17
aI2
aI6
aF0.333
aI1
aI2
aF0.5
aI0
aI0
aF0.0
aI3
aI3
aI6
aI1
aI2
aI0
aI0
aI2
aI5
aI6
aa(lp68
V0021501082
p69
aVMAR 26, 2016
p70
aVBKN vs. IND
p71
aVW
p72
aI13
aI0
aI4
aF0.0
aI0
aI0
aF0.0
aI0
aI0
aF0.0
aI0
aI3
aI3
aI0
aI1
aI0
aI0
aI1
aI0
aI-2
aa(lp73
V0021501097
p74
aVMAR 28, 2016
p75
aVBKN @ MIA
p76
aVL
p77
aI17
aI2
aI6
aF0.333
aI1
aI2
aF0.5
aI0
aI0
aF0.0
aI1
aI2
aI3
aI0
aI1
aI0
aI2
aI0
aI5
aI-9
aa(lp78
V0021501108
p79
aVMAR 29, 2016
p80
aVBKN @ ORL
p81
aVL
p82
aI16
aI2
aI3
aF0.667
aI1
aI2
aF0.5
aI0
aI0
aF0.0
aI0
aI1
aI1
aI1
aI1
aI1
aI1
aI3
aI5
aI-13
aa(lp83
V0021501122
p84
aVMAR 31, 2016
p85
aVBKN @ CLE
p86
aVL
p87
aI20
aI3
aI6
aF0.5
aI0
aI1
aF0.0
aI1
aI2
aF0.5
aI2
aI4
aI6
aI1
aI2
aI1
aI1
aI4
aI7
aI4
aa(lp88
V0021501130
p89
aVAPR 01, 2016
p90
aVBKN @ NYK
p91
aVL
p92
aI21
aI2
aI7
aF0.286
aI1
aI4
aF0.25
aI0
aI0
aF0.0
aI1
aI7
aI8
aI0
aI0
aI0
aI2
aI1
aI5
aI-2
aa(lp93
V0021501143
p94
aVAPR 03, 2016
p95
aVBKN vs. NOP
p96
aVL
p97
aI21
aI2
aI9
aF0.222
aI0
aI3
aF0.0
aI2
aI2
aF1.0
aI3
aI2
aI5
aI0
aI0
aI0
aI1
aI2
aI6
aI-20
aa(lp98
V0021501167
p99
aVAPR 06, 2016
p100
aVBKN @ WAS
p101
aVL
p102
aI25
aI3
aI6
aF0.5
aI1
aI2
aF0.5
aI3
aI4
aF0.75
aI0
aI3
aI3
aI1
aI5
aI1
aI0
aI2
aI10
aI-7
aa(lp103
V0021501178
p104
aVAPR 08, 2016
p105
aVBKN @ CHA
p106
aVL
p107
aI25
aI5
aI9
aF0.556
aI2
aI3
aF0.667
aI0
aI2
aF0.0
aI0
aI3
aI3
aI1
aI3
aI0
aI1
aI1
aI12
aI-5
aa(lp108
V0021501199
p109
aVAPR 10, 2016
p110
aVBKN @ IND
p111
aVL
p112
aI13
aI2
aI4
aF0.5
aI2
aI2
aF1.0
aI0
aI2
aF0.0
aI2
aI1
aI3
aI1
aI1
aI0
aI1
aI0
aI6
aI-22
aa(lp113
V0021501206
p114
aVAPR 11, 2016
p115
aVBKN vs. WAS
p116
aVL
p117
aI24
aI5
aI9
aF0.556
aI1
aI2
aF0.5
aI1
aI5
aF0.2
aI4
aI1
aI5
aI0
aI1
aI2
aI1
aI2
aI12
aI-17
aa(lp118
V0021501218
p119
aVAPR 13, 2016
p120
aVBKN vs. TOR
p121
aVL
p122
aI22
aI3
aI7
aF0.429
aI0
aI3
aF0.0
aI0
aI0
aF0.0
aI2
aI3
aI5
aI1
aI3
aI1
aI1
aI0
aI6
aI-1
aasS'name'
p123
VChris McCullough
p124
sS'weight'
p125
V200
p126
sS'age'
p127
I20
sS'experience'
p128
I0
sS'height'
p129
V6-11
p130
sS'position'
p131
VForward
p132
s.