(dp0
S'stats'
p1
(lp2
(lp3
V0021500017
p4
aVOCT 28, 2015
p5
aVLAL vs. MIN
p6
aVL
p7
aI19
aI5
aI8
aF0.625
aI4
aI7
aF0.571
aI0
aI0
aF0.0
aI0
aI2
aI2
aI0
aI0
aI0
aI0
aI3
aI14
aI5
aa(lp8
V0021500031
p9
aVOCT 30, 2015
p10
aVLAL @ SAC
p11
aVL
p12
aI22
aI5
aI11
aF0.455
aI3
aI7
aF0.429
aI4
aI4
aF1.0
aI0
aI2
aI2
aI3
aI3
aI0
aI0
aI0
aI17
aI-3
aa(lp13
V0021500045
p14
aVNOV 01, 2015
p15
aVLAL vs. DAL
p16
aVL
p17
aI19
aI2
aI5
aF0.4
aI2
aI4
aF0.5
aI2
aI2
aF1.0
aI0
aI0
aI0
aI0
aI0
aI1
aI1
aI2
aI8
aI-11
aa(lp18
V0021500059
p19
aVNOV 03, 2015
p20
aVLAL vs. DEN
p21
aVL
p22
aI15
aI0
aI3
aF0.0
aI0
aI3
aF0.0
aI3
aI3
aF1.0
aI0
aI3
aI3
aI0
aI1
aI0
aI1
aI0
aI3
aI-6
aa(lp23
V0021500077
p24
aVNOV 06, 2015
p25
aVLAL @ BKN
p26
aVW
p27
aI16
aI3
aI9
aF0.333
aI2
aI5
aF0.4
aI2
aI2
aF1.0
aI0
aI1
aI1
aI0
aI0
aI1
aI0
aI1
aI10
aI6
aa(lp28
V0021500095
p29
aVNOV 08, 2015
p30
aVLAL @ NYK
p31
aVL
p32
aI19
aI4
aI10
aF0.4
aI2
aI5
aF0.4
aI0
aI0
aF0.0
aI0
aI0
aI0
aI0
aI0
aI0
aI0
aI0
aI10
aI5
aa(lp33
V0021500108
p34
aVNOV 10, 2015
p35
aVLAL @ MIA
p36
aVL
p37
aI26
aI6
aI13
aF0.462
aI5
aI9
aF0.556
aI0
aI0
aF0.0
aI0
aI2
aI2
aI2
aI1
aI1
aI1
aI0
aI17
aI4
aa(lp38
V0021500114
p39
aVNOV 11, 2015
p40
aVLAL @ ORL
p41
aVL
p42
aI21
aI4
aI7
aF0.571
aI2
aI5
aF0.4
aI0
aI0
aF0.0
aI0
aI2
aI2
aI0
aI1
aI0
aI2
aI1
aI10
aI-3
aa(lp43
V0021500135
p44
aVNOV 13, 2015
p45
aVLAL @ DAL
p46
aVL
p47
aI17
aI0
aI4
aF0.0
aI0
aI1
aF0.0
aI0
aI0
aF0.0
aI1
aI4
aI5
aI0
aI1
aI0
aI0
aI1
aI0
aI-4
aa(lp48
V0021500151
p49
aVNOV 15, 2015
p50
aVLAL vs. DET
p51
aVW
p52
aI26
aI4
aI6
aF0.667
aI2
aI2
aF1.0
aI3
aI3
aF1.0
aI0
aI2
aI2
aI0
aI1
aI0
aI1
aI1
aI13
aI20
aa(lp53
V0021500157
p54
aVNOV 16, 2015
p55
aVLAL @ PHX
p56
aVL
p57
aI25
aI4
aI9
aF0.444
aI1
aI5
aF0.2
aI2
aI2
aF1.0
aI0
aI3
aI3
aI0
aI0
aI0
aI2
aI2
aI11
aI-15
aa(lp58
V0021500188
p59
aVNOV 20, 2015
p60
aVLAL vs. TOR
p61
aVL
p62
aI14
aI3
aI6
aF0.5
aI2
aI3
aF0.667
aI0
aI0
aF0.0
aI0
aI0
aI0
aI0
aI1
aI0
aI1
aI1
aI8
aI-20
aa(lp63
V0021500201
p64
aVNOV 22, 2015
p65
aVLAL vs. POR
p66
aVL
p67
aI20
aI1
aI6
aF0.167
aI0
aI1
aF0.0
aI0
aI0
aF0.0
aI1
aI2
aI3
aI3
aI0
aI0
aI1
aI1
aI2
aI-4
aa(lp68
V0021500214
p69
aVNOV 24, 2015
p70
aVLAL @ GSW
p71
aVL
p72
aI23
aI3
aI10
aF0.3
aI1
aI6
aF0.167
aI0
aI0
aF0.0
aI0
aI1
aI1
aI1
aI0
aI0
aI0
aI1
aI7
aI-14
aa(lp73
V0021500244
p74
aVNOV 28, 2015
p75
aVLAL @ POR
p76
aVL
p77
aI15
aI2
aI7
aF0.286
aI2
aI6
aF0.333
aI0
aI0
aF0.0
aI0
aI1
aI1
aI0
aI1
aI0
aI0
aI1
aI6
aI-15
aa(lp78
V0021500253
p79
aVNOV 29, 2015
p80
aVLAL vs. IND
p81
aVL
p82
aI28
aI8
aI17
aF0.471
aI6
aI14
aF0.429
aI0
aI2
aF0.0
aI1
aI1
aI2
aI1
aI0
aI0
aI0
aI4
aI22
aI6
aa(lp83
V0021500263
p84
aVDEC 01, 2015
p85
aVLAL @ PHI
p86
aVL
p87
aI12
aI1
aI3
aF0.333
aI1
aI3
aF0.333
aI1
aI2
aF0.5
aI0
aI1
aI1
aI0
aI0
aI0
aI1
aI0
aI4
aI-2
aa(lp88
V0021500301
p89
aVDEC 06, 2015
p90
aVLAL @ DET
p91
aVL
p92
aI7
aI0
aI3
aF0.0
aI0
aI2
aF0.0
aI0
aI0
aF0.0
aI0
aI0
aI0
aI0
aI0
aI0
aI0
aI2
aI0
aI-7
aa(lp93
V0021500325
p94
aVDEC 09, 2015
p95
aVLAL @ MIN
p96
aVL
p97
aI29
aI5
aI9
aF0.556
aI2
aI5
aF0.4
aI1
aI1
aF1.0
aI0
aI1
aI1
aI2
aI1
aI0
aI0
aI0
aI13
aI11
aa(lp98
V0021500342
p99
aVDEC 11, 2015
p100
aVLAL @ SAS
p101
aVL
p102
aI19
aI2
aI6
aF0.333
aI1
aI3
aF0.333
aI1
aI1
aF1.0
aI0
aI0
aI0
aI0
aI0
aI0
aI0
aI1
aI6
aI-4
aa(lp103
V0021500349
p104
aVDEC 12, 2015
p105
aVLAL @ HOU
p106
aVL
p107
aI27
aI5
aI10
aF0.5
aI3
aI7
aF0.429
aI0
aI0
aF0.0
aI2
aI1
aI3
aI1
aI0
aI0
aI0
aI1
aI13
aI-35
aa(lp108
V0021500370
p109
aVDEC 15, 2015
p110
aVLAL vs. MIL
p111
aVW
p112
aI21
aI3
aI8
aF0.375
aI3
aI6
aF0.5
aI1
aI2
aF0.5
aI0
aI1
aI1
aI0
aI0
aI0
aI0
aI1
aI10
aI-2
aa(lp113
V0021500385
p114
aVDEC 17, 2015
p115
aVLAL vs. HOU
p116
aVL
p117
aI16
aI1
aI4
aF0.25
aI0
aI3
aF0.0
aI0
aI0
aF0.0
aI0
aI1
aI1
aI0
aI0
aI0
aI1
aI1
aI2
aI4
aa(lp118
V0021500398
p119
aVDEC 19, 2015
p120
aVLAL @ OKC
p121
aVL
p122
aI21
aI5
aI13
aF0.385
aI3
aI9
aF0.333
aI1
aI1
aF1.0
aI0
aI0
aI0
aI0
aI0
aI0
aI1
aI0
aI14
aI-32
aa(lp123
V0021500422
p124
aVDEC 22, 2015
p125
aVLAL @ DEN
p126
aVW
p127
aI16
aI2
aI8
aF0.25
aI0
aI5
aF0.0
aI0
aI0
aF0.0
aI0
aI0
aI0
aI0
aI0
aI0
aI0
aI0
aI4
aI-8
aa(lp128
V0021500440
p129
aVDEC 25, 2015
p130
aVLAL vs. LAC
p131
aVL
p132
aI22
aI0
aI5
aF0.0
aI0
aI4
aF0.0
aI0
aI0
aF0.0
aI0
aI5
aI5
aI0
aI0
aI0
aI0
aI0
aI0
aI7
aa(lp133
V0021500455
p134
aVDEC 27, 2015
p135
aVLAL @ MEM
p136
aVL
p137
aI17
aI2
aI7
aF0.286
aI1
aI4
aF0.25
aI2
aI2
aF1.0
aI1
aI1
aI2
aI0
aI1
aI1
aI0
aI0
aI7
aI-11
aa(lp138
V0021500458
p139
aVDEC 28, 2015
p140
aVLAL @ CHA
p141
aVL
p142
aI16
aI3
aI6
aF0.5
aI3
aI4
aF0.75
aI2
aI3
aF0.667
aI0
aI1
aI1
aI2
aI0
aI0
aI2
aI0
aI11
aI3
aa(lp143
V0021500476
p144
aVDEC 30, 2015
p145
aVLAL @ BOS
p146
aVW
p147
aI19
aI3
aI6
aF0.5
aI2
aI3
aF0.667
aI0
aI0
aF0.0
aI0
aI1
aI1
aI0
aI0
aI0
aI0
aI0
aI8
aI0
aa(lp148
V0021500494
p149
aVJAN 01, 2016
p150
aVLAL vs. PHI
p151
aVW
p152
aI26
aI3
aI11
aF0.273
aI2
aI7
aF0.286
aI0
aI0
aF0.0
aI1
aI2
aI3
aI1
aI4
aI0
aI1
aI0
aI8
aI1
aa(lp153
V0021500510
p154
aVJAN 03, 2016
p155
aVLAL vs. PHX
p156
aVW
p157
aI18
aI1
aI7
aF0.143
aI1
aI4
aF0.25
aI0
aI0
aF0.0
aI0
aI1
aI1
aI0
aI0
aI0
aI0
aI1
aI3
aI-2
aa(lp158
V0021500524
p159
aVJAN 05, 2016
p160
aVLAL vs. GSW
p161
aVL
p162
aI15
aI0
aI6
aF0.0
aI0
aI3
aF0.0
aI1
aI3
aF0.333
aI0
aI3
aI3
aI1
aI1
aI0
aI3
aI1
aI1
aI-10
aa(lp163
V0021500565
p164
aVJAN 10, 2016
p165
aVLAL vs. UTA
p166
aVL
p167
aI20
aI3
aI7
aF0.429
aI0
aI0
aF0.0
aI0
aI0
aF0.0
aI1
aI0
aI1
aI0
aI0
aI0
aI0
aI1
aI6
aI-11
aa(lp168
V0021500576
p169
aVJAN 12, 2016
p170
aVLAL vs. NOP
p171
aVW
p172
aI9
aI0
aI2
aF0.0
aI0
aI1
aF0.0
aI0
aI0
aF0.0
aI0
aI0
aI0
aI0
aI1
aI1
aI0
aI0
aI0
aI-4
aa(lp173
V0021500608
p174
aVJAN 16, 2016
p175
aVLAL @ UTA
p176
aVL
p177
aI12
aI1
aI4
aF0.25
aI0
aI2
aF0.0
aI0
aI0
aF0.0
aI0
aI2
aI2
aI1
aI0
aI0
aI1
aI0
aI2
aI3
aa(lp178
V0021500662
p179
aVJAN 23, 2016
p180
aVLAL @ POR
p181
aVL
p182
aI7
aI0
aI2
aF0.0
aI0
aI2
aF0.0
aI0
aI0
aF0.0
aI0
aI0
aI0
aI0
aI0
aI0
aI0
aI0
aI0
aI3
aa(lp183
V0021500683
p184
aVJAN 26, 2016
p185
aVLAL vs. DAL
p186
aVL
p187
aI26
aI2
aI6
aF0.333
aI2
aI5
aF0.4
aI2
aI2
aF1.0
aI1
aI5
aI6
aI2
aI1
aI0
aI0
aI1
aI8
aI1
aa(lp188
V0021500697
p189
aVJAN 28, 2016
p190
aVLAL vs. CHI
p191
aVL
p192
aI29
aI5
aI10
aF0.5
aI3
aI6
aF0.5
aI1
aI2
aF0.5
aI2
aI1
aI3
aI0
aI0
aI0
aI2
aI2
aI14
aI-11
aa(lp193
V0021500706
p194
aVJAN 29, 2016
p195
aVLAL @ LAC
p196
aVL
p197
aI14
aI1
aI4
aF0.25
aI1
aI3
aF0.333
aI2
aI2
aF1.0
aI0
aI2
aI2
aI2
aI0
aI0
aI0
aI1
aI5
aI-4
aa(lp198
V0021500720
p199
aVJAN 31, 2016
p200
aVLAL vs. CHA
p201
aVL
p202
aI25
aI0
aI6
aF0.0
aI0
aI5
aF0.0
aI2
aI2
aF1.0
aI0
aI3
aI3
aI1
aI0
aI0
aI0
aI1
aI2
aI-20
aa(lp203
V0021500734
p204
aVFEB 02, 2016
p205
aVLAL vs. MIN
p206
aVW
p207
aI14
aI1
aI4
aF0.25
aI0
aI2
aF0.0
aI0
aI0
aF0.0
aI0
aI0
aI0
aI0
aI1
aI0
aI1
aI2
aI2
aI-1
aa(lp208
V0021500747
p209
aVFEB 04, 2016
p210
aVLAL @ NOP
p211
aVW
p212
aI16
aI2
aI3
aF0.667
aI1
aI2
aF0.5
aI6
aI6
aF1.0
aI0
aI4
aI4
aI1
aI1
aI0
aI1
aI1
aI11
aI-13
aa(lp213
V0021500767
p214
aVFEB 06, 2016
p215
aVLAL @ SAS
p216
aVL
p217
aI16
aI1
aI4
aF0.25
aI1
aI3
aF0.333
aI0
aI0
aF0.0
aI0
aI1
aI1
aI1
aI0
aI0
aI0
aI0
aI3
aI-3
aa(lp218
V0021500776
p219
aVFEB 08, 2016
p220
aVLAL @ IND
p221
aVL
p222
aI15
aI1
aI7
aF0.143
aI0
aI5
aF0.0
aI0
aI0
aF0.0
aI1
aI3
aI4
aI0
aI0
aI0
aI0
aI2
aI2
aI3
aa(lp223
V0021500818
p224
aVFEB 19, 2016
p225
aVLAL vs. SAS
p226
aVL
p227
aI19
aI2
aI7
aF0.286
aI1
aI3
aF0.333
aI5
aI5
aF1.0
aI0
aI1
aI1
aI2
aI0
aI0
aI0
aI0
aI10
aI-3
aa(lp228
V0021500831
p229
aVFEB 21, 2016
p230
aVLAL @ CHI
p231
aVL
p232
aI21
aI1
aI6
aF0.167
aI1
aI4
aF0.25
aI0
aI0
aF0.0
aI0
aI1
aI1
aI0
aI0
aI0
aI1
aI1
aI3
aI-10
aa(lp233
V0021500837
p234
aVFEB 22, 2016
p235
aVLAL @ MIL
p236
aVL
p237
aI24
aI5
aI12
aF0.417
aI3
aI8
aF0.375
aI6
aI8
aF0.75
aI0
aI3
aI3
aI1
aI0
aI0
aI2
aI0
aI19
aI13
aa(lp238
V0021500851
p239
aVFEB 24, 2016
p240
aVLAL @ MEM
p241
aVL
p242
aI19
aI2
aI7
aF0.286
aI2
aI5
aF0.4
aI2
aI3
aF0.667
aI0
aI0
aI0
aI0
aI0
aI0
aI0
aI2
aI8
aI-2
aa(lp243
V0021500868
p244
aVFEB 26, 2016
p245
aVLAL vs. MEM
p246
aVL
p247
aI17
aI2
aI6
aF0.333
aI1
aI5
aF0.2
aI1
aI2
aF0.5
aI0
aI3
aI3
aI0
aI0
aI2
aI1
aI0
aI6
aI-18
aa(lp248
V0021500896
p249
aVMAR 01, 2016
p250
aVLAL vs. BKN
p251
aVW
p252
aI24
aI1
aI5
aF0.2
aI1
aI4
aF0.25
aI0
aI1
aF0.0
aI0
aI2
aI2
aI1
aI1
aI0
aI1
aI2
aI3
aI9
aa(lp253
V0021500906
p254
aVMAR 02, 2016
p255
aVLAL @ DEN
p256
aVL
p257
aI13
aI2
aI5
aF0.4
aI1
aI4
aF0.25
aI3
aI3
aF1.0
aI0
aI3
aI3
aI0
aI0
aI0
aI0
aI1
aI8
aI1
aa(lp258
V0021500921
p259
aVMAR 04, 2016
p260
aVLAL vs. ATL
p261
aVL
p262
aI25
aI1
aI9
aF0.111
aI1
aI5
aF0.2
aI2
aI2
aF1.0
aI2
aI1
aI3
aI2
aI0
aI0
aI0
aI1
aI5
aI-6
aa(lp263
V0021500931
p264
aVMAR 06, 2016
p265
aVLAL vs. GSW
p266
aVW
p267
aI22
aI3
aI8
aF0.375
aI2
aI5
aF0.4
aI5
aI5
aF1.0
aI0
aI2
aI2
aI2
aI1
aI0
aI1
aI5
aI13
aI6
aa(lp268
V0021500949
p269
aVMAR 08, 2016
p270
aVLAL vs. ORL
p271
aVW
p272
aI23
aI0
aI5
aF0.0
aI0
aI3
aF0.0
aI0
aI0
aF0.0
aI0
aI1
aI1
aI1
aI0
aI0
aI0
aI0
aI0
aI3
aasS'name'
p273
VNick Young
p274
sS'weight'
p275
V210
p276
sS'age'
p277
I30
sS'experience'
p278
I8
sS'height'
p279
V6-7
p280
sS'position'
p281
VForward-Guard
p282
s.