(dp0
S'stats'
p1
(lp2
(lp3
V0021500004
p4
aVOCT 28, 2015
p5
aVORL vs. WAS
p6
aVL
p7
aI5
aI1
aI2
aF0.5
aI0
aI0
aF0.0
aI0
aI0
aF0.0
aI1
aI0
aI1
aI0
aI1
aI0
aI0
aI1
aI2
aI-5
aa(lp8
V0021500043
p9
aVNOV 01, 2015
p10
aVORL @ CHI
p11
aVL
p12
aI14
aI3
aI7
aF0.429
aI1
aI2
aF0.5
aI1
aI2
aF0.5
aI0
aI2
aI2
aI1
aI0
aI2
aI0
aI1
aI8
aI7
aa(lp13
V0021500056
p14
aVNOV 03, 2015
p15
aVORL @ NOP
p16
aVW
p17
aI16
aI2
aI8
aF0.25
aI0
aI0
aF0.0
aI2
aI2
aF1.0
aI0
aI3
aI3
aI0
aI0
aI0
aI1
aI2
aI6
aI12
aa(lp18
V0021500064
p19
aVNOV 04, 2015
p20
aVORL @ HOU
p21
aVL
p22
aI10
aI4
aI5
aF0.8
aI0
aI0
aF0.0
aI0
aI0
aF0.0
aI0
aI0
aI0
aI0
aI0
aI1
aI1
aI1
aI8
aI-2
aa(lp23
V0021500075
p24
aVNOV 06, 2015
p25
aVORL vs. TOR
p26
aVW
p27
aI8
aI0
aI1
aF0.0
aI0
aI0
aF0.0
aI0
aI0
aF0.0
aI0
aI3
aI3
aI0
aI0
aI0
aI0
aI3
aI0
aI3
aa(lp28
V0021500087
p29
aVNOV 07, 2015
p30
aVORL @ PHI
p31
aVW
p32
aI18
aI4
aI8
aF0.5
aI0
aI0
aF0.0
aI2
aI2
aF1.0
aI1
aI4
aI5
aI1
aI0
aI2
aI2
aI4
aI10
aI5
aa(lp33
V0021500166
p34
aVNOV 18, 2015
p35
aVORL vs. MIN
p36
aVW
p37
aI27
aI1
aI5
aF0.2
aI0
aI0
aF0.0
aI3
aI3
aF1.0
aI3
aI7
aI10
aI1
aI0
aI1
aI2
aI4
aI5
aI16
aa(lp38
V0021500189
p39
aVNOV 21, 2015
p40
aVORL vs. SAC
p41
aVL
p42
aI9
aI1
aI3
aF0.333
aI0
aI0
aF0.0
aI0
aI0
aF0.0
aI0
aI1
aI1
aI0
aI0
aI1
aI0
aI3
aI2
aI-6
aa(lp43
V0021500203
p44
aVNOV 23, 2015
p45
aVORL @ CLE
p46
aVL
p47
aI15
aI2
aI4
aF0.5
aI0
aI0
aF0.0
aI0
aI0
aF0.0
aI0
aI3
aI3
aI1
aI1
aI1
aI0
aI2
aI4
aI12
aa(lp48
V0021500216
p49
aVNOV 25, 2015
p50
aVORL vs. NYK
p51
aVW
p52
aI15
aI3
aI3
aF1.0
aI0
aI0
aF0.0
aI2
aI2
aF1.0
aI0
aI3
aI3
aI0
aI1
aI1
aI1
aI3
aI8
aI10
aa(lp53
V0021500228
p54
aVNOV 27, 2015
p55
aVORL vs. MIL
p56
aVW
p57
aI20
aI4
aI4
aF1.0
aI0
aI0
aF0.0
aI0
aI0
aF0.0
aI0
aI1
aI1
aI0
aI0
aI0
aI1
aI1
aI8
aI13
aa(lp58
V0021500249
p59
aVNOV 29, 2015
p60
aVORL vs. BOS
p61
aVW
p62
aI15
aI3
aI5
aF0.6
aI0
aI0
aF0.0
aI0
aI0
aF0.0
aI2
aI1
aI3
aI1
aI0
aI0
aI2
aI2
aI6
aI2
aa(lp63
V0021500265
p64
aVDEC 01, 2015
p65
aVORL @ MIN
p66
aVW
p67
aI11
aI1
aI1
aF1.0
aI0
aI0
aF0.0
aI2
aI2
aF1.0
aI1
aI0
aI1
aI0
aI0
aI0
aI0
aI5
aI4
aI-4
aa(lp68
V0021500279
p69
aVDEC 03, 2015
p70
aVORL @ UTA
p71
aVW
p72
aI16
aI2
aI5
aF0.4
aI0
aI0
aF0.0
aI0
aI0
aF0.0
aI0
aI1
aI1
aI0
aI0
aI1
aI0
aI2
aI4
aI2
aa(lp73
V0021500298
p74
aVDEC 05, 2015
p75
aVORL @ LAC
p76
aVL
p77
aI23
aI4
aI6
aF0.667
aI0
aI0
aF0.0
aI0
aI0
aF0.0
aI2
aI3
aI5
aI2
aI1
aI2
aI0
aI3
aI8
aI3
aa(lp78
V0021500317
p79
aVDEC 08, 2015
p80
aVORL @ DEN
p81
aVW
p82
aI14
aI0
aI5
aF0.0
aI0
aI0
aF0.0
aI2
aI2
aF1.0
aI0
aI3
aI3
aI1
aI0
aI0
aI1
aI1
aI2
aI-5
aa(lp83
V0021500326
p84
aVDEC 09, 2015
p85
aVORL @ PHX
p86
aVL
p87
aI7
aI0
aI0
aF0.0
aI0
aI0
aF0.0
aI0
aI0
aF0.0
aI0
aI0
aI0
aI0
aI0
aI1
aI0
aI2
aI0
aI1
aa(lp88
V0021500334
p89
aVDEC 11, 2015
p90
aVORL vs. CLE
p91
aVL
p92
aI19
aI4
aI8
aF0.5
aI1
aI2
aF0.5
aI0
aI0
aF0.0
aI1
aI1
aI2
aI1
aI1
aI1
aI0
aI0
aI9
aI-3
aa(lp93
V0021500358
p94
aVDEC 14, 2015
p95
aVORL @ BKN
p96
aVW
p97
aI16
aI2
aI7
aF0.286
aI0
aI0
aF0.0
aI0
aI0
aF0.0
aI0
aI3
aI3
aI0
aI0
aI0
aI2
aI2
aI4
aI9
aa(lp98
V0021500372
p99
aVDEC 16, 2015
p100
aVORL vs. CHA
p101
aVW
p102
aI17
aI5
aI6
aF0.833
aI0
aI0
aF0.0
aI0
aI0
aF0.0
aI0
aI2
aI2
aI1
aI1
aI2
aI1
aI2
aI10
aI13
aa(lp103
V0021500387
p104
aVDEC 18, 2015
p105
aVORL vs. POR
p106
aVW
p107
aI13
aI2
aI5
aF0.4
aI0
aI0
aF0.0
aI0
aI0
aF0.0
aI0
aI1
aI1
aI0
aI0
aI1
aI0
aI1
aI4
aI3
aa(lp108
V0021500407
p109
aVDEC 20, 2015
p110
aVORL vs. ATL
p111
aVL
p112
aI14
aI5
aI5
aF1.0
aI0
aI0
aF0.0
aI0
aI0
aF0.0
aI0
aI1
aI1
aI1
aI0
aI0
aI1
aI1
aI10
aI-8
aa(lp113
V0021500412
p114
aVDEC 21, 2015
p115
aVORL @ NYK
p116
aVW
p117
aI27
aI1
aI3
aF0.333
aI0
aI1
aF0.0
aI0
aI0
aF0.0
aI3
aI3
aI6
aI0
aI0
aI0
aI2
aI1
aI2
aI0
aa(lp118
V0021500426
p119
aVDEC 23, 2015
p120
aVORL vs. HOU
p121
aVW
p122
aI15
aI3
aI8
aF0.375
aI0
aI1
aF0.0
aI0
aI0
aF0.0
aI0
aI1
aI1
aI0
aI0
aI1
aI2
aI2
aI6
aI-11
aa(lp123
V0021500444
p124
aVDEC 26, 2015
p125
aVORL vs. MIA
p126
aVL
p127
aI12
aI5
aI6
aF0.833
aI0
aI0
aF0.0
aI0
aI0
aF0.0
aI1
aI1
aI2
aI0
aI0
aI0
aI1
aI3
aI10
aI-7
aa(lp128
V0021500460
p129
aVDEC 28, 2015
p130
aVORL vs. NOP
p131
aVW
p132
aI13
aI2
aI3
aF0.667
aI0
aI0
aF0.0
aI0
aI0
aF0.0
aI1
aI1
aI2
aI1
aI1
aI0
aI0
aI3
aI4
aI-5
aa(lp133
V0021500475
p134
aVDEC 30, 2015
p135
aVORL vs. BKN
p136
aVW
p137
aI7
aI2
aI3
aF0.667
aI0
aI0
aF0.0
aI2
aI2
aF1.0
aI0
aI3
aI3
aI0
aI0
aI1
aI0
aI4
aI6
aI-1
aa(lp138
V0021500490
p139
aVJAN 01, 2016
p140
aVORL @ WAS
p141
aVL
p142
aI15
aI5
aI8
aF0.625
aI0
aI0
aF0.0
aI0
aI0
aF0.0
aI0
aI3
aI3
aI2
aI0
aI2
aI3
aI1
aI10
aI0
aa(lp143
V0021500499
p144
aVJAN 02, 2016
p145
aVORL @ CLE
p146
aVL
p147
aI13
aI3
aI3
aF1.0
aI0
aI0
aF0.0
aI2
aI2
aF1.0
aI0
aI3
aI3
aI0
aI0
aI0
aI2
aI4
aI8
aI-16
aa(lp148
V0021500514
p149
aVJAN 04, 2016
p150
aVORL @ DET
p151
aVL
p152
aI15
aI5
aI13
aF0.385
aI0
aI1
aF0.0
aI2
aI2
aF1.0
aI1
aI0
aI1
aI0
aI0
aI2
aI0
aI2
aI12
aI-10
aa(lp153
V0021500526
p154
aVJAN 06, 2016
p155
aVORL vs. IND
p156
aVL
p157
aI8
aI3
aI5
aF0.6
aI0
aI1
aF0.0
aI0
aI0
aF0.0
aI1
aI2
aI3
aI0
aI1
aI0
aI1
aI1
aI6
aI8
aa(lp158
V0021500541
p159
aVJAN 08, 2016
p160
aVORL @ BKN
p161
aVW
p162
aI12
aI1
aI6
aF0.167
aI0
aI0
aF0.0
aI0
aI0
aF0.0
aI0
aI2
aI2
aI2
aI0
aI0
aI0
aI3
aI2
aI-5
aa(lp163
V0021500552
p164
aVJAN 09, 2016
p165
aVORL vs. WAS
p166
aVL
p167
aI13
aI3
aI7
aF0.429
aI0
aI0
aF0.0
aI2
aI2
aF1.0
aI0
aI1
aI1
aI0
aI2
aI0
aI0
aI1
aI8
aI-1
aa(lp168
V0021500588
p169
aVJAN 14, 2016
p170
aVORL vs. TOR
p171
aVL
p172
aI37
aI8
aI15
aF0.533
aI0
aI2
aF0.0
aI0
aI0
aF0.0
aI1
aI4
aI5
aI4
aI0
aI1
aI0
aI3
aI16
aI0
aa(lp173
V0021500620
p174
aVJAN 18, 2016
p175
aVORL @ ATL
p176
aVL
p177
aI18
aI1
aI5
aF0.2
aI0
aI0
aF0.0
aI0
aI0
aF0.0
aI0
aI3
aI3
aI0
aI1
aI0
aI0
aI1
aI2
aI-5
aa(lp178
V0021500629
p179
aVJAN 20, 2016
p180
aVORL vs. PHI
p181
aVL
p182
aI11
aI2
aI4
aF0.5
aI0
aI0
aF0.0
aI0
aI0
aF0.0
aI1
aI0
aI1
aI1
aI1
aI1
aI0
aI0
aI4
aI-6
aa(lp183
V0021500645
p184
aVJAN 22, 2016
p185
aVORL vs. CHA
p186
aVL
p187
aI14
aI2
aI5
aF0.4
aI0
aI0
aF0.0
aI0
aI1
aF0.0
aI0
aI1
aI1
aI1
aI1
aI0
aI1
aI1
aI4
aI5
aa(lp188
V0021500670
p189
aVJAN 25, 2016
p190
aVORL @ MEM
p191
aVL
p192
aI13
aI4
aI7
aF0.571
aI0
aI0
aF0.0
aI0
aI0
aF0.0
aI1
aI2
aI3
aI3
aI0
aI1
aI2
aI4
aI8
aI10
aa(lp193
V0021500681
p194
aVJAN 26, 2016
p195
aVORL @ MIL
p196
aVL
p197
aI11
aI2
aI3
aF0.667
aI0
aI0
aF0.0
aI0
aI0
aF0.0
aI0
aI3
aI3
aI2
aI0
aI0
aI0
aI0
aI4
aI-2
aa(lp198
V0021500698
p199
aVJAN 29, 2016
p200
aVORL @ BOS
p201
aVL
p202
aI11
aI3
aI6
aF0.5
aI0
aI0
aF0.0
aI0
aI0
aF0.0
aI1
aI0
aI1
aI0
aI1
aI0
aI2
aI3
aI6
aI-11
aa(lp203
V0021500716
p204
aVJAN 31, 2016
p205
aVORL vs. BOS
p206
aVW
p207
aI20
aI2
aI4
aF0.5
aI0
aI0
aF0.0
aI0
aI0
aF0.0
aI1
aI0
aI1
aI4
aI0
aI0
aI0
aI2
aI4
aI-9
aa(lp208
V0021500726
p209
aVFEB 01, 2016
p210
aVORL @ SAS
p211
aVL
p212
aI11
aI1
aI4
aF0.25
aI0
aI0
aF0.0
aI1
aI2
aF0.5
aI2
aI1
aI3
aI0
aI0
aI2
aI0
aI0
aI3
aI-8
aa(lp213
V0021500740
p214
aVFEB 03, 2016
p215
aVORL @ OKC
p216
aVL
p217
aI18
aI6
aI7
aF0.857
aI1
aI1
aF1.0
aI0
aI0
aF0.0
aI2
aI1
aI3
aI0
aI2
aI2
aI1
aI2
aI13
aI1
aa(lp218
V0021500752
p219
aVFEB 05, 2016
p220
aVORL vs. LAC
p221
aVL
p222
aI17
aI4
aI7
aF0.571
aI0
aI0
aF0.0
aI0
aI0
aF0.0
aI1
aI2
aI3
aI1
aI1
aI0
aI3
aI0
aI8
aI1
aa(lp223
V0021500771
p224
aVFEB 07, 2016
p225
aVORL vs. ATL
p226
aVW
p227
aI13
aI2
aI6
aF0.333
aI0
aI1
aF0.0
aI2
aI2
aF1.0
aI0
aI2
aI2
aI0
aI0
aI2
aI0
aI1
aI6
aI-12
aa(lp228
V0021500780
p229
aVFEB 08, 2016
p230
aVORL @ ATL
p231
aVW
p232
aI22
aI7
aI11
aF0.636
aI0
aI0
aF0.0
aI0
aI0
aF0.0
aI0
aI0
aI0
aI1
aI2
aI4
aI1
aI0
aI14
aI13
aa(lp233
V0021500805
p234
aVFEB 19, 2016
p235
aVORL vs. DAL
p236
aVW
p237
aI18
aI5
aI10
aF0.5
aI1
aI1
aF1.0
aI0
aI0
aF0.0
aI1
aI2
aI3
aI0
aI0
aI1
aI0
aI1
aI11
aI-4
aa(lp238
V0021500828
p239
aVFEB 21, 2016
p240
aVORL vs. IND
p241
aVL
p242
aI13
aI4
aI8
aF0.5
aI0
aI0
aF0.0
aI0
aI1
aF0.0
aI0
aI4
aI4
aI1
aI0
aI1
aI0
aI1
aI8
aI-4
aa(lp243
V0021500840
p244
aVFEB 23, 2016
p245
aVORL @ PHI
p246
aVW
p247
aI10
aI4
aI8
aF0.5
aI0
aI0
aF0.0
aI0
aI0
aF0.0
aI1
aI0
aI1
aI0
aI0
aI0
aI1
aI3
aI8
aI0
aa(lp248
V0021500855
p249
aVFEB 25, 2016
p250
aVORL vs. GSW
p251
aVL
p252
aI11
aI2
aI5
aF0.4
aI0
aI0
aF0.0
aI1
aI2
aF0.5
aI0
aI1
aI1
aI1
aI0
aI0
aI2
aI2
aI5
aI-12
aa(lp253
V0021500863
p254
aVFEB 26, 2016
p255
aVORL @ NYK
p256
aVL
p257
aI7
aI1
aI4
aF0.25
aI0
aI0
aF0.0
aI1
aI2
aF0.5
aI1
aI1
aI2
aI1
aI0
aI0
aI0
aI2
aI3
aI-9
aa(lp258
V0021500881
p259
aVFEB 28, 2016
p260
aVORL vs. PHI
p261
aVW
p262
aI20
aI5
aI12
aF0.417
aI0
aI0
aF0.0
aI2
aI2
aF1.0
aI1
aI4
aI5
aI0
aI0
aI1
aI0
aI2
aI12
aI8
aa(lp263
V0021500894
p264
aVMAR 01, 2016
p265
aVORL @ DAL
p266
aVL
p267
aI6
aI1
aI5
aF0.2
aI0
aI0
aF0.0
aI0
aI0
aF0.0
aI0
aI0
aI0
aI1
aI2
aI0
aI2
aI1
aI2
aI-7
aa(lp268
V0021500897
p269
aVMAR 02, 2016
p270
aVORL vs. CHI
p271
aVW
p272
aI13
aI4
aI7
aF0.571
aI0
aI0
aF0.0
aI0
aI0
aF0.0
aI2
aI5
aI7
aI0
aI0
aI1
aI1
aI0
aI8
aI1
aa(lp273
V0021500913
p274
aVMAR 04, 2016
p275
aVORL vs. PHX
p276
aVL
p277
aI12
aI3
aI7
aF0.429
aI0
aI0
aF0.0
aI0
aI0
aF0.0
aI0
aI0
aI0
aI1
aI0
aI0
aI1
aI5
aI6
aI0
aa(lp278
V0021500943
p279
aVMAR 07, 2016
p280
aVORL @ GSW
p281
aVL
p282
aI23
aI6
aI12
aF0.5
aI0
aI0
aF0.0
aI1
aI2
aF0.5
aI0
aI2
aI2
aI0
aI2
aI1
aI1
aI3
aI13
aI-10
aa(lp283
V0021500949
p284
aVMAR 08, 2016
p285
aVORL @ LAL
p286
aVL
p287
aI24
aI5
aI10
aF0.5
aI0
aI0
aF0.0
aI0
aI1
aF0.0
aI0
aI2
aI2
aI0
aI0
aI1
aI1
aI6
aI10
aI-2
aa(lp288
V0021500970
p289
aVMAR 11, 2016
p290
aVORL @ SAC
p291
aVW
p292
aI23
aI6
aI9
aF0.667
aI0
aI0
aF0.0
aI4
aI6
aF0.667
aI0
aI7
aI7
aI1
aI2
aI3
aI4
aI5
aI16
aI1
aa(lp293
V0021500982
p294
aVMAR 12, 2016
p295
aVORL @ POR
p296
aVL
p297
aI11
aI2
aI8
aF0.25
aI0
aI0
aF0.0
aI2
aI4
aF0.5
aI1
aI0
aI1
aI0
aI0
aI0
aI1
aI3
aI6
aI-10
aa(lp298
V0021500998
p299
aVMAR 15, 2016
p300
aVORL vs. DEN
p301
aVW
p302
aI28
aI10
aI15
aF0.667
aI0
aI0
aF0.0
aI5
aI6
aF0.833
aI4
aI9
aI13
aI1
aI0
aI0
aI1
aI5
aI25
aI-11
aa(lp303
V0021501004
p304
aVMAR 16, 2016
p305
aVORL @ CHA
p306
aVL
p307
aI19
aI2
aI11
aF0.182
aI0
aI0
aF0.0
aI4
aI4
aF1.0
aI0
aI4
aI4
aI2
aI0
aI2
aI1
aI1
aI8
aI-13
aa(lp308
V0021501020
p309
aVMAR 18, 2016
p310
aVORL vs. CLE
p311
aVL
p312
aI25
aI4
aI10
aF0.4
aI0
aI0
aF0.0
aI2
aI2
aF1.0
aI1
aI4
aI5
aI1
aI3
aI1
aI1
aI4
aI10
aI-10
aa(lp313
V0021501038
p314
aVMAR 20, 2016
p315
aVORL @ TOR
p316
aVL
p317
aI9
aI3
aI4
aF0.75
aI0
aI0
aF0.0
aI0
aI0
aF0.0
aI0
aI1
aI1
aI0
aI0
aI0
aI1
aI5
aI6
aI0
aa(lp318
V0021501046
p319
aVMAR 21, 2016
p320
aVORL @ BOS
p321
aVL
p322
aI27
aI2
aI8
aF0.25
aI0
aI1
aF0.0
aI2
aI2
aF1.0
aI2
aI1
aI3
aI2
aI0
aI1
aI0
aI3
aI6
aI1
aa(lp323
V0021501058
p324
aVMAR 23, 2016
p325
aVORL @ DET
p326
aVL
p327
aI23
aI6
aI13
aF0.462
aI0
aI0
aF0.0
aI0
aI0
aF0.0
aI1
aI2
aI3
aI4
aI0
aI0
aI0
aI3
aI12
aI-13
aa(lp328
V0021501075
p329
aVMAR 25, 2016
p330
aVORL @ MIA
p331
aVL
p332
aI11
aI3
aI10
aF0.3
aI0
aI0
aF0.0
aI2
aI2
aF1.0
aI0
aI2
aI2
aI0
aI1
aI1
aI0
aI2
aI8
aI-9
aa(lp333
V0021501083
p334
aVMAR 26, 2016
p335
aVORL vs. CHI
p336
aVW
p337
aI24
aI7
aI12
aF0.583
aI0
aI1
aF0.0
aI0
aI0
aF0.0
aI1
aI5
aI6
aI3
aI0
aI2
aI2
aI3
aI14
aI20
aa(lp338
V0021501108
p339
aVMAR 29, 2016
p340
aVORL vs. BKN
p341
aVW
p342
aI21
aI7
aI11
aF0.636
aI0
aI0
aF0.0
aI0
aI0
aF0.0
aI0
aI5
aI5
aI0
aI0
aI1
aI0
aI1
aI14
aI21
aa(lp343
V0021501123
p344
aVMAR 31, 2016
p345
aVORL @ IND
p346
aVW
p347
aI8
aI3
aI6
aF0.5
aI0
aI0
aF0.0
aI0
aI0
aF0.0
aI1
aI2
aI3
aI1
aI0
aI0
aI0
aI0
aI6
aI12
aa(lp348
V0021501133
p349
aVAPR 01, 2016
p350
aVORL @ MIL
p351
aVL
p352
aI16
aI4
aI4
aF1.0
aI0
aI0
aF0.0
aI0
aI0
aF0.0
aI1
aI3
aI4
aI4
aI0
aI0
aI0
aI1
aI8
aI14
aa(lp353
V0021501148
p354
aVAPR 03, 2016
p355
aVORL vs. MEM
p356
aVW
p357
aI3
aI0
aI1
aF0.0
aI0
aI0
aF0.0
aI0
aI0
aF0.0
aI0
aI0
aI0
aI0
aI0
aI0
aI0
aI3
aI0
aI-5
aa(lp358
V0021501166
p359
aVAPR 06, 2016
p360
aVORL vs. DET
p361
aVL
p362
aI16
aI3
aI8
aF0.375
aI0
aI0
aF0.0
aI0
aI0
aF0.0
aI3
aI6
aI9
aI2
aI0
aI2
aI0
aI3
aI6
aI14
aa(lp363
V0021501179
p364
aVAPR 08, 2016
p365
aVORL vs. MIA
p366
aVW
p367
aI13
aI3
aI8
aF0.375
aI0
aI0
aF0.0
aI0
aI0
aF0.0
aI0
aI3
aI3
aI0
aI0
aI4
aI0
aI1
aI6
aI2
aa(lp368
V0021501200
p369
aVAPR 10, 2016
p370
aVORL @ MIA
p371
aVL
p372
aI13
aI2
aI7
aF0.286
aI0
aI0
aF0.0
aI1
aI1
aF1.0
aI3
aI3
aI6
aI1
aI0
aI1
aI1
aI2
aI5
aI-2
aa(lp373
V0021501204
p374
aVAPR 11, 2016
p375
aVORL vs. MIL
p376
aVW
p377
aI29
aI4
aI11
aF0.364
aI0
aI1
aF0.0
aI2
aI2
aF1.0
aI1
aI5
aI6
aI1
aI4
aI4
aI0
aI1
aI10
aI-7
aa(lp378
V0021501219
p379
aVAPR 13, 2016
p380
aVORL @ CHA
p381
aVL
p382
aI16
aI3
aI7
aF0.429
aI0
aI0
aF0.0
aI0
aI0
aF0.0
aI0
aI1
aI1
aI1
aI0
aI1
aI0
aI3
aI6
aI-8
aasS'name'
p383
VJason Smith
p384
sS'weight'
p385
V240
p386
sS'age'
p387
I29
sS'experience'
p388
I8
sS'height'
p389
V7-0
p390
sS'position'
p391
VForward-Center
p392
s.