(dp0
S'stats'
p1
(lp2
(lp3
V0021500003
p4
aVOCT 27, 2015
p5
aVNOP @ GSW
p6
aVL
p7
aI33
aI5
aI17
aF0.294
aI2
aI7
aF0.286
aI2
aI2
aF1.0
aI0
aI4
aI4
aI4
aI1
aI0
aI4
aI1
aI14
aI-9
aa(lp8
V0021500015
p9
aVOCT 28, 2015
p10
aVNOP @ POR
p11
aVL
p12
aI41
aI6
aI13
aF0.462
aI3
aI8
aF0.375
aI5
aI7
aF0.714
aI1
aI1
aI2
aI3
aI1
aI0
aI1
aI1
aI20
aI-22
aa(lp13
V0021500035
p14
aVOCT 31, 2015
p15
aVNOP vs. GSW
p16
aVL
p17
aI24
aI3
aI11
aF0.273
aI1
aI3
aF0.333
aI2
aI2
aF1.0
aI1
aI3
aI4
aI2
aI1
aI0
aI0
aI5
aI9
aI6
aa(lp18
V0021500056
p19
aVNOV 03, 2015
p20
aVNOP vs. ORL
p21
aVL
p22
aI38
aI8
aI19
aF0.421
aI4
aI12
aF0.333
aI1
aI2
aF0.5
aI1
aI1
aI2
aI4
aI0
aI0
aI4
aI2
aI21
aI4
aa(lp23
V0021500081
p24
aVNOV 06, 2015
p25
aVNOP vs. ATL
p26
aVL
p27
aI39
aI8
aI15
aF0.533
aI3
aI7
aF0.429
aI3
aI3
aF1.0
aI0
aI2
aI2
aI2
aI1
aI1
aI1
aI5
aI22
aI-7
aa(lp28
V0021500088
p29
aVNOV 07, 2015
p30
aVNOP @ DAL
p31
aVL
p32
aI41
aI7
aI15
aF0.467
aI5
aI10
aF0.5
aI2
aI2
aF1.0
aI0
aI5
aI5
aI4
aI1
aI0
aI2
aI3
aI21
aI-5
aa(lp33
V0021500112
p34
aVNOV 10, 2015
p35
aVNOP vs. DAL
p36
aVW
p37
aI34
aI5
aI19
aF0.263
aI4
aI13
aF0.308
aI3
aI3
aF1.0
aI1
aI1
aI2
aI3
aI1
aI1
aI0
aI1
aI17
aI28
aa(lp38
V0021500117
p39
aVNOV 11, 2015
p40
aVNOP @ ATL
p41
aVL
p42
aI32
aI10
aI20
aF0.5
aI4
aI6
aF0.667
aI2
aI3
aF0.667
aI0
aI3
aI3
aI3
aI2
aI0
aI2
aI4
aI26
aI-9
aa(lp43
V0021500131
p44
aVNOV 13, 2015
p45
aVNOP @ TOR
p46
aVL
p47
aI36
aI11
aI22
aF0.5
aI4
aI11
aF0.364
aI4
aI5
aF0.8
aI1
aI2
aI3
aI1
aI1
aI0
aI3
aI2
aI30
aI-22
aa(lp48
V0021500145
p49
aVNOV 15, 2015
p50
aVNOP @ NYK
p51
aVL
p52
aI39
aI5
aI11
aF0.455
aI1
aI5
aF0.2
aI0
aI0
aF0.0
aI0
aI2
aI2
aI2
aI0
aI0
aI0
aI4
aI11
aI-7
aa(lp53
V0021500163
p54
aVNOV 17, 2015
p55
aVNOP vs. DEN
p56
aVL
p57
aI38
aI7
aI17
aF0.412
aI2
aI8
aF0.25
aI3
aI3
aF1.0
aI0
aI1
aI1
aI6
aI1
aI1
aI1
aI1
aI19
aI-25
aa(lp58
V0021500171
p59
aVNOV 18, 2015
p60
aVNOP @ OKC
p61
aVL
p62
aI37
aI6
aI20
aF0.3
aI1
aI9
aF0.111
aI5
aI5
aF1.0
aI1
aI1
aI2
aI5
aI3
aI0
aI1
aI3
aI18
aI2
aa(lp63
V0021500182
p64
aVNOV 20, 2015
p65
aVNOP vs. SAS
p66
aVW
p67
aI35
aI3
aI9
aF0.333
aI1
aI3
aF0.333
aI4
aI4
aF1.0
aI0
aI1
aI1
aI2
aI2
aI0
aI1
aI0
aI11
aI6
aa(lp68
V0021500198
p69
aVNOV 22, 2015
p70
aVNOP vs. PHX
p71
aVW
p72
aI39
aI6
aI16
aF0.375
aI5
aI12
aF0.417
aI3
aI4
aF0.75
aI0
aI4
aI4
aI4
aI2
aI0
aI3
aI2
aI20
aI11
aa(lp73
V0021500225
p74
aVNOV 25, 2015
p75
aVNOP @ PHX
p76
aVW
p77
aI35
aI6
aI11
aF0.545
aI4
aI9
aF0.444
aI7
aI7
aF1.0
aI0
aI1
aI1
aI3
aI0
aI0
aI1
aI2
aI23
aI13
aa(lp78
V0021500238
p79
aVNOV 27, 2015
p80
aVNOP @ LAC
p81
aVL
p82
aI30
aI5
aI12
aF0.417
aI1
aI5
aF0.2
aI5
aI6
aF0.833
aI0
aI3
aI3
aI2
aI0
aI0
aI2
aI2
aI16
aI-19
aa(lp83
V0021500243
p84
aVNOV 28, 2015
p85
aVNOP @ UTA
p86
aVL
p87
aI32
aI1
aI9
aF0.111
aI1
aI3
aF0.333
aI1
aI2
aF0.5
aI0
aI0
aI0
aI1
aI1
aI0
aI2
aI1
aI4
aI-8
aa(lp88
V0021500266
p89
aVDEC 01, 2015
p90
aVNOP vs. MEM
p91
aVL
p92
aI20
aI2
aI5
aF0.4
aI0
aI3
aF0.0
aI4
aI4
aF1.0
aI0
aI1
aI1
aI4
aI0
aI1
aI1
aI2
aI8
aI-20
aa(lp93
V0021500274
p94
aVDEC 02, 2015
p95
aVNOP @ HOU
p96
aVL
p97
aI33
aI4
aI10
aF0.4
aI1
aI5
aF0.2
aI1
aI1
aF1.0
aI0
aI2
aI2
aI2
aI0
aI0
aI2
aI3
aI10
aI-5
aa(lp98
V0021500288
p99
aVDEC 04, 2015
p100
aVNOP vs. CLE
p101
aVW
p102
aI31
aI7
aI9
aF0.778
aI4
aI5
aF0.8
aI1
aI2
aF0.5
aI0
aI1
aI1
aI2
aI0
aI0
aI2
aI0
aI19
aI6
aa(lp103
V0021500312
p104
aVDEC 07, 2015
p105
aVNOP vs. BOS
p106
aVL
p107
aI16
aI0
aI2
aF0.0
aI0
aI1
aF0.0
aI0
aI0
aF0.0
aI0
aI2
aI2
aI1
aI0
aI1
aI1
aI2
aI0
aI-16
aa(lp108
V0021500339
p109
aVDEC 11, 2015
p110
aVNOP vs. WAS
p111
aVW
p112
aI36
aI5
aI12
aF0.417
aI3
aI7
aF0.429
aI2
aI2
aF1.0
aI0
aI4
aI4
aI1
aI1
aI0
aI2
aI2
aI15
aI1
aa(lp113
V0021500348
p114
aVDEC 12, 2015
p115
aVNOP @ CHI
p116
aVL
p117
aI34
aI5
aI15
aF0.333
aI2
aI6
aF0.333
aI2
aI2
aF1.0
aI0
aI0
aI0
aI2
aI1
aI0
aI1
aI2
aI14
aI3
aa(lp118
V0021500366
p119
aVDEC 14, 2015
p120
aVNOP @ POR
p121
aVL
p122
aI34
aI3
aI9
aF0.333
aI0
aI5
aF0.0
aI3
aI3
aF1.0
aI0
aI3
aI3
aI3
aI2
aI0
aI1
aI2
aI9
aI2
aa(lp123
V0021500380
p124
aVDEC 16, 2015
p125
aVNOP @ UTA
p126
aVW
p127
aI28
aI5
aI9
aF0.556
aI4
aI7
aF0.571
aI5
aI5
aF1.0
aI0
aI0
aI0
aI1
aI1
aI0
aI3
aI4
aI19
aI2
aa(lp128
V0021500396
p129
aVDEC 18, 2015
p130
aVNOP @ PHX
p131
aVL
p132
aI29
aI2
aI11
aF0.182
aI2
aI9
aF0.222
aI9
aI11
aF0.818
aI0
aI1
aI1
aI1
aI2
aI1
aI2
aI3
aI15
aI-3
aa(lp133
V0021500409
p134
aVDEC 20, 2015
p135
aVNOP @ DEN
p136
aVW
p137
aI32
aI6
aI11
aF0.545
aI4
aI7
aF0.571
aI4
aI5
aF0.8
aI1
aI2
aI3
aI3
aI0
aI1
aI1
aI1
aI20
aI19
aa(lp138
V0021500432
p139
aVDEC 23, 2015
p140
aVNOP vs. POR
p141
aVW
p142
aI34
aI3
aI8
aF0.375
aI3
aI7
aF0.429
aI2
aI2
aF1.0
aI1
aI3
aI4
aI6
aI1
aI0
aI1
aI0
aI11
aI15
aa(lp143
V0021500436
p144
aVDEC 25, 2015
p145
aVNOP @ MIA
p146
aVL
p147
aI43
aI5
aI15
aF0.333
aI1
aI3
aF0.333
aI5
aI5
aF1.0
aI0
aI3
aI3
aI2
aI2
aI0
aI3
aI5
aI16
aI-1
aa(lp148
V0021500445
p149
aVDEC 26, 2015
p150
aVNOP vs. HOU
p151
aVW
p152
aI40
aI10
aI12
aF0.833
aI6
aI8
aF0.75
aI0
aI0
aF0.0
aI1
aI1
aI2
aI5
aI1
aI0
aI1
aI3
aI26
aI-4
aa(lp153
V0021500460
p154
aVDEC 28, 2015
p155
aVNOP @ ORL
p156
aVL
p157
aI24
aI1
aI6
aF0.167
aI1
aI5
aF0.2
aI0
aI0
aF0.0
aI0
aI0
aI0
aI0
aI0
aI1
aI2
aI0
aI3
aI-13
aa(lp158
V0021500487
p159
aVDEC 31, 2015
p160
aVNOP vs. LAC
p161
aVL
p162
aI35
aI3
aI11
aF0.273
aI2
aI5
aF0.4
aI2
aI2
aF1.0
aI0
aI2
aI2
aI0
aI1
aI1
aI2
aI4
aI10
aI-8
aa(lp163
V0021500501
p164
aVJAN 02, 2016
p165
aVNOP @ DAL
p166
aVW
p167
aI37
aI6
aI14
aF0.429
aI2
aI5
aF0.4
aI2
aI2
aF1.0
aI0
aI3
aI3
aI1
aI0
aI0
aI1
aI2
aI16
aI15
aa(lp168
V0021500531
p169
aVJAN 06, 2016
p170
aVNOP vs. DAL
p171
aVL
p172
aI23
aI5
aI9
aF0.556
aI4
aI7
aF0.571
aI0
aI0
aF0.0
aI1
aI0
aI1
aI3
aI0
aI0
aI1
aI1
aI14
aI2
aa(lp173
V0021500544
p174
aVJAN 08, 2016
p175
aVNOP vs. IND
p176
aVL
p177
aI36
aI3
aI11
aF0.273
aI1
aI6
aF0.167
aI1
aI2
aF0.5
aI0
aI3
aI3
aI3
aI1
aI0
aI1
aI2
aI8
aI1
aa(lp178
V0021500558
p179
aVJAN 10, 2016
p180
aVNOP @ LAC
p181
aVL
p182
aI38
aI3
aI10
aF0.3
aI1
aI5
aF0.2
aI0
aI0
aF0.0
aI0
aI1
aI1
aI4
aI2
aI1
aI1
aI2
aI7
aI1
aa(lp183
V0021500576
p184
aVJAN 12, 2016
p185
aVNOP @ LAL
p186
aVL
p187
aI27
aI6
aI9
aF0.667
aI1
aI3
aF0.333
aI1
aI1
aF1.0
aI0
aI2
aI2
aI1
aI0
aI1
aI1
aI3
aI14
aI-4
aa(lp188
V0021500585
p189
aVJAN 13, 2016
p190
aVNOP @ SAC
p191
aVW
p192
aI43
aI9
aI19
aF0.474
aI6
aI12
aF0.5
aI0
aI0
aF0.0
aI0
aI5
aI5
aI6
aI3
aI1
aI1
aI2
aI24
aI20
aa(lp193
V0021500598
p194
aVJAN 15, 2016
p195
aVNOP vs. CHA
p196
aVW
p197
aI32
aI4
aI12
aF0.333
aI2
aI6
aF0.333
aI0
aI0
aF0.0
aI0
aI1
aI1
aI2
aI1
aI0
aI1
aI0
aI10
aI-3
aa(lp198
V0021500618
p199
aVJAN 18, 2016
p200
aVNOP @ MEM
p201
aVL
p202
aI37
aI2
aI7
aF0.286
aI2
aI4
aF0.5
aI4
aI4
aF1.0
aI0
aI2
aI2
aI3
aI1
aI0
aI3
aI3
aI10
aI-1
aa(lp203
V0021500626
p204
aVJAN 19, 2016
p205
aVNOP vs. MIN
p206
aVW
p207
aI25
aI4
aI9
aF0.444
aI3
aI7
aF0.429
aI0
aI0
aF0.0
aI0
aI1
aI1
aI3
aI1
aI0
aI2
aI2
aI11
aI-5
aa(lp208
V0021500870
p209
aVFEB 27, 2016
p210
aVNOP vs. MIN
p211
aVL
p212
aI34
aI9
aI17
aF0.529
aI4
aI9
aF0.444
aI9
aI10
aF0.9
aI0
aI3
aI3
aI2
aI3
aI0
aI3
aI3
aI31
aI-3
aa(lp213
V0021500901
p214
aVMAR 02, 2016
p215
aVNOP @ HOU
p216
aVL
p217
aI32
aI5
aI11
aF0.455
aI4
aI9
aF0.444
aI0
aI0
aF0.0
aI0
aI3
aI3
aI3
aI1
aI0
aI5
aI5
aI14
aI-3
aa(lp218
V0021500909
p219
aVMAR 03, 2016
p220
aVNOP vs. SAS
p221
aVL
p222
aI34
aI9
aI19
aF0.474
aI3
aI6
aF0.5
aI2
aI2
aF1.0
aI0
aI5
aI5
aI4
aI0
aI0
aI0
aI1
aI23
aI-10
aa(lp223
V0021500925
p224
aVMAR 05, 2016
p225
aVNOP vs. UTA
p226
aVL
p227
aI11
aI3
aI4
aF0.75
aI1
aI1
aF1.0
aI0
aI0
aF0.0
aI0
aI0
aI0
aI2
aI0
aI2
aI0
aI0
aI7
aI2
aasS'name'
p228
VEric Gordon
p229
sS'weight'
p230
V215
p231
sS'age'
p232
I27
sS'experience'
p233
I7
sS'height'
p234
V6-4
p235
sS'position'
p236
VGuard
p237
s.