(dp0
S'stats'
p1
(lp2
(lp3
V0021500012
p4
aVOCT 28, 2015
p5
aVMIL vs. NYK
p6
aVL
p7
aI35
aI7
aI17
aF0.412
aI0
aI0
aF0.0
aI8
aI10
aF0.8
aI7
aI7
aI14
aI4
aI2
aI2
aI0
aI3
aI22
aI-15
aa(lp8
V0021500027
p9
aVOCT 30, 2015
p10
aVMIL vs. WAS
p11
aVL
p12
aI35
aI10
aI14
aF0.714
aI0
aI0
aF0.0
aI2
aI3
aF0.667
aI2
aI3
aI5
aI3
aI2
aI0
aI2
aI2
aI22
aI3
aa(lp13
V0021500042
p14
aVNOV 01, 2015
p15
aVMIL @ TOR
p16
aVL
p17
aI28
aI5
aI7
aF0.714
aI0
aI0
aF0.0
aI4
aI4
aF1.0
aI2
aI4
aI6
aI5
aI1
aI2
aI2
aI5
aI14
aI-18
aa(lp18
V0021500047
p19
aVNOV 02, 2015
p20
aVMIL @ BKN
p21
aVW
p22
aI39
aI10
aI14
aF0.714
aI0
aI0
aF0.0
aI3
aI4
aF0.75
aI1
aI12
aI13
aI1
aI1
aI1
aI2
aI4
aI23
aI15
aa(lp23
V0021500065
p24
aVNOV 04, 2015
p25
aVMIL vs. PHI
p26
aVW
p27
aI36
aI7
aI14
aF0.5
aI0
aI0
aF0.0
aI4
aI5
aF0.8
aI2
aI6
aI8
aI4
aI3
aI0
aI2
aI3
aI18
aI6
aa(lp28
V0021500079
p29
aVNOV 06, 2015
p30
aVMIL @ NYK
p31
aVW
p32
aI23
aI3
aI12
aF0.25
aI0
aI0
aF0.0
aI2
aI2
aF1.0
aI4
aI3
aI7
aI3
aI0
aI1
aI3
aI2
aI8
aI2
aa(lp33
V0021500089
p34
aVNOV 07, 2015
p35
aVMIL vs. BKN
p36
aVW
p37
aI35
aI8
aI16
aF0.5
aI0
aI0
aF0.0
aI4
aI5
aF0.8
aI3
aI5
aI8
aI2
aI2
aI2
aI2
aI0
aI20
aI12
aa(lp38
V0021500110
p39
aVNOV 10, 2015
p40
aVMIL vs. BOS
p41
aVL
p42
aI33
aI7
aI11
aF0.636
aI0
aI0
aF0.0
aI3
aI5
aF0.6
aI2
aI12
aI14
aI4
aI1
aI1
aI2
aI2
aI17
aI7
aa(lp43
V0021500121
p44
aVNOV 11, 2015
p45
aVMIL @ DEN
p46
aVL
p47
aI33
aI9
aI13
aF0.692
aI0
aI0
aF0.0
aI0
aI0
aF0.0
aI2
aI8
aI10
aI2
aI1
aI0
aI2
aI2
aI18
aI6
aa(lp48
V0021500141
p49
aVNOV 14, 2015
p50
aVMIL vs. CLE
p51
aVW
p52
aI43
aI8
aI17
aF0.471
aI0
aI0
aF0.0
aI0
aI0
aF0.0
aI6
aI11
aI17
aI3
aI0
aI1
aI2
aI3
aI16
aI8
aa(lp53
V0021500158
p54
aVNOV 17, 2015
p55
aVMIL @ WAS
p56
aVL
p57
aI26
aI1
aI6
aF0.167
aI0
aI0
aF0.0
aI2
aI4
aF0.5
aI3
aI2
aI5
aI4
aI0
aI1
aI3
aI2
aI4
aI-26
aa(lp58
V0021500176
p59
aVNOV 19, 2015
p60
aVMIL @ CLE
p61
aVL
p62
aI34
aI7
aI14
aF0.5
aI0
aI0
aF0.0
aI3
aI7
aF0.429
aI2
aI6
aI8
aI1
aI2
aI0
aI2
aI0
aI17
aI-2
aa(lp63
V0021500190
p64
aVNOV 21, 2015
p65
aVMIL @ IND
p66
aVL
p67
aI24
aI4
aI10
aF0.4
aI0
aI0
aF0.0
aI3
aI4
aF0.75
aI7
aI7
aI14
aI3
aI1
aI1
aI2
aI2
aI11
aI-15
aa(lp68
V0021500205
p69
aVNOV 23, 2015
p70
aVMIL vs. DET
p71
aVW
p72
aI31
aI9
aI19
aF0.474
aI0
aI0
aF0.0
aI2
aI2
aF1.0
aI5
aI8
aI13
aI1
aI2
aI0
aI1
aI3
aI20
aI28
aa(lp73
V0021500221
p74
aVNOV 25, 2015
p75
aVMIL vs. SAC
p76
aVL
p77
aI29
aI5
aI11
aF0.455
aI0
aI0
aF0.0
aI1
aI2
aF0.5
aI0
aI7
aI7
aI3
aI0
aI4
aI1
aI4
aI11
aI-6
aa(lp78
V0021500228
p79
aVNOV 27, 2015
p80
aVMIL @ ORL
p81
aVL
p82
aI19
aI3
aI12
aF0.25
aI0
aI0
aF0.0
aI3
aI4
aF0.75
aI3
aI5
aI8
aI0
aI0
aI0
aI1
aI1
aI9
aI-18
aa(lp83
V0021500246
p84
aVNOV 29, 2015
p85
aVMIL @ CHA
p86
aVL
p87
aI30
aI7
aI15
aF0.467
aI0
aI0
aF0.0
aI3
aI5
aF0.6
aI3
aI7
aI10
aI3
aI2
aI0
aI2
aI5
aI17
aI5
aa(lp88
V0021500258
p89
aVNOV 30, 2015
p90
aVMIL vs. DEN
p91
aVW
p92
aI25
aI8
aI11
aF0.727
aI0
aI0
aF0.0
aI2
aI2
aF1.0
aI2
aI3
aI5
aI2
aI1
aI2
aI0
aI1
aI18
aI7
aa(lp93
V0021500275
p94
aVDEC 02, 2015
p95
aVMIL @ SAS
p96
aVL
p97
aI28
aI6
aI13
aF0.462
aI0
aI0
aF0.0
aI2
aI2
aF1.0
aI1
aI6
aI7
aI0
aI1
aI1
aI1
aI2
aI14
aI-17
aa(lp98
V0021500285
p99
aVDEC 04, 2015
p100
aVMIL @ DET
p101
aVL
p102
aI33
aI7
aI15
aF0.467
aI0
aI0
aF0.0
aI0
aI0
aF0.0
aI2
aI11
aI13
aI1
aI2
aI2
aI1
aI2
aI14
aI-1
aa(lp103
V0021500295
p104
aVDEC 05, 2015
p105
aVMIL vs. NYK
p106
aVW
p107
aI33
aI8
aI13
aF0.615
aI0
aI0
aF0.0
aI2
aI2
aF1.0
aI3
aI11
aI14
aI0
aI1
aI1
aI2
aI3
aI18
aI20
aa(lp108
V0021500310
p109
aVDEC 07, 2015
p110
aVMIL vs. POR
p111
aVW
p112
aI27
aI7
aI11
aF0.636
aI0
aI0
aF0.0
aI2
aI2
aF1.0
aI2
aI10
aI12
aI3
aI0
aI0
aI2
aI1
aI16
aI11
aa(lp113
V0021500324
p114
aVDEC 09, 2015
p115
aVMIL vs. LAC
p116
aVL
p117
aI36
aI8
aI16
aF0.5
aI0
aI0
aF0.0
aI0
aI0
aF0.0
aI4
aI6
aI10
aI2
aI1
aI0
aI1
aI1
aI16
aI-25
aa(lp118
V0021500337
p119
aVDEC 11, 2015
p120
aVMIL @ TOR
p121
aVL
p122
aI33
aI6
aI9
aF0.667
aI0
aI0
aF0.0
aI1
aI2
aF0.5
aI0
aI7
aI7
aI2
aI3
aI0
aI1
aI0
aI13
aI-3
aa(lp123
V0021500351
p124
aVDEC 12, 2015
p125
aVMIL vs. GSW
p126
aVW
p127
aI36
aI11
aI17
aF0.647
aI0
aI0
aF0.0
aI6
aI7
aF0.857
aI4
aI7
aI11
aI5
aI0
aI0
aI3
aI4
aI28
aI17
aa(lp128
V0021500397
p129
aVDEC 18, 2015
p130
aVMIL @ GSW
p131
aVL
p132
aI27
aI5
aI11
aF0.455
aI0
aI0
aF0.0
aI0
aI0
aF0.0
aI3
aI10
aI13
aI6
aI2
aI1
aI3
aI5
aI10
aI-15
aa(lp133
V0021500406
p134
aVDEC 20, 2015
p135
aVMIL @ PHX
p136
aVW
p137
aI26
aI6
aI10
aF0.6
aI0
aI0
aF0.0
aI1
aI2
aF0.5
aI0
aI2
aI2
aI4
aI0
aI0
aI1
aI4
aI13
aI6
aa(lp138
V0021500430
p139
aVDEC 23, 2015
p140
aVMIL vs. PHI
p141
aVW
p142
aI25
aI4
aI10
aF0.4
aI0
aI0
aF0.0
aI3
aI4
aF0.75
aI0
aI6
aI6
aI1
aI2
aI2
aI0
aI3
aI11
aI18
aa(lp143
V0021500441
p144
aVDEC 26, 2015
p145
aVMIL vs. TOR
p146
aVL
p147
aI33
aI7
aI10
aF0.7
aI0
aI0
aF0.0
aI5
aI5
aF1.0
aI1
aI10
aI11
aI3
aI0
aI1
aI2
aI1
aI19
aI1
aa(lp148
V0021500464
p149
aVDEC 28, 2015
p150
aVMIL @ DAL
p151
aVL
p152
aI33
aI3
aI10
aF0.3
aI0
aI0
aF0.0
aI2
aI2
aF1.0
aI3
aI8
aI11
aI2
aI0
aI2
aI1
aI2
aI8
aI-18
aa(lp153
V0021500472
p154
aVDEC 29, 2015
p155
aVMIL @ OKC
p156
aVL
p157
aI20
aI2
aI9
aF0.222
aI0
aI0
aF0.0
aI0
aI0
aF0.0
aI2
aI8
aI10
aI1
aI1
aI0
aI2
aI2
aI4
aI-11
aa(lp158
V0021500484
p159
aVDEC 31, 2015
p160
aVMIL @ IND
p161
aVW
p162
aI30
aI10
aI12
aF0.833
aI0
aI0
aF0.0
aI3
aI4
aF0.75
aI0
aI3
aI3
aI0
aI1
aI1
aI1
aI2
aI23
aI5
aa(lp163
V0021500500
p164
aVJAN 02, 2016
p165
aVMIL @ MIN
p166
aVW
p167
aI27
aI7
aI13
aF0.538
aI0
aI0
aF0.0
aI5
aI5
aF1.0
aI4
aI6
aI10
aI3
aI2
aI0
aI0
aI1
aI19
aI2
aa(lp168
V0021500516
p169
aVJAN 04, 2016
p170
aVMIL vs. SAS
p171
aVL
p172
aI28
aI5
aI9
aF0.556
aI0
aI0
aF0.0
aI5
aI8
aF0.625
aI2
aI6
aI8
aI2
aI2
aI1
aI2
aI1
aI15
aI-12
aa(lp173
V0021500522
p174
aVJAN 05, 2016
p175
aVMIL @ CHI
p176
aVL
p177
aI29
aI5
aI18
aF0.278
aI0
aI0
aF0.0
aI3
aI4
aF0.75
aI8
aI4
aI12
aI3
aI1
aI0
aI4
aI2
aI13
aI-4
aa(lp178
V0021500545
p179
aVJAN 08, 2016
p180
aVMIL vs. DAL
p181
aVW
p182
aI28
aI3
aI10
aF0.3
aI0
aI0
aF0.0
aI3
aI5
aF0.6
aI7
aI5
aI12
aI0
aI1
aI0
aI3
aI3
aI9
aI-7
aa(lp183
V0021500562
p184
aVJAN 10, 2016
p185
aVMIL @ NYK
p186
aVL
p187
aI33
aI11
aI16
aF0.688
aI0
aI0
aF0.0
aI6
aI7
aF0.857
aI4
aI6
aI10
aI2
aI0
aI1
aI2
aI2
aI28
aI9
aa(lp188
V0021500573
p189
aVJAN 12, 2016
p190
aVMIL vs. CHI
p191
aVW
p192
aI37
aI7
aI13
aF0.538
aI0
aI0
aF0.0
aI3
aI3
aF1.0
aI4
aI8
aI12
aI1
aI1
aI1
aI0
aI1
aI17
aI14
aa(lp193
V0021500578
p194
aVJAN 13, 2016
p195
aVMIL @ WAS
p196
aVL
p197
aI31
aI8
aI13
aF0.615
aI0
aI0
aF0.0
aI5
aI9
aF0.556
aI2
aI10
aI12
aI1
aI2
aI0
aI3
aI1
aI21
aI0
aa(lp198
V0021500599
p199
aVJAN 15, 2016
p200
aVMIL vs. ATL
p201
aVW
p202
aI27
aI4
aI16
aF0.25
aI0
aI0
aF0.0
aI7
aI12
aF0.583
aI10
aI2
aI12
aI4
aI0
aI1
aI1
aI0
aI15
aI-8
aa(lp203
V0021500603
p204
aVJAN 16, 2016
p205
aVMIL @ CHA
p206
aVW
p207
aI27
aI7
aI9
aF0.778
aI0
aI0
aF0.0
aI5
aI6
aF0.833
aI3
aI7
aI10
aI3
aI0
aI1
aI3
aI3
aI19
aI12
aa(lp208
V0021500625
p209
aVJAN 19, 2016
p210
aVMIL @ MIA
p211
aVW
p212
aI30
aI6
aI13
aF0.462
aI0
aI0
aF0.0
aI3
aI3
aF1.0
aI1
aI9
aI10
aI1
aI0
aI1
aI2
aI1
aI15
aI1
aa(lp213
V0021500650
p214
aVJAN 22, 2016
p215
aVMIL @ HOU
p216
aVL
p217
aI30
aI10
aI17
aF0.588
aI0
aI0
aF0.0
aI1
aI3
aF0.333
aI2
aI7
aI9
aI3
aI0
aI4
aI1
aI3
aI21
aI-1
aa(lp218
V0021500657
p219
aVJAN 23, 2016
p220
aVMIL @ NOP
p221
aVL
p222
aI30
aI8
aI13
aF0.615
aI0
aI0
aF0.0
aI6
aI6
aF1.0
aI4
aI7
aI11
aI2
aI0
aI1
aI2
aI3
aI22
aI1
aa(lp223
V0021500681
p224
aVJAN 26, 2016
p225
aVMIL vs. ORL
p226
aVW
p227
aI31
aI7
aI15
aF0.467
aI0
aI0
aF0.0
aI7
aI8
aF0.875
aI5
aI6
aI11
aI2
aI0
aI0
aI2
aI2
aI21
aI-3
aa(lp228
V0021500695
p229
aVJAN 28, 2016
p230
aVMIL @ MEM
p231
aVL
p232
aI25
aI8
aI13
aF0.615
aI0
aI0
aF0.0
aI5
aI6
aF0.833
aI2
aI5
aI7
aI2
aI0
aI0
aI5
aI1
aI21
aI-15
aa(lp233
V0021500703
p234
aVJAN 29, 2016
p235
aVMIL vs. MIA
p236
aVL
p237
aI34
aI7
aI14
aF0.5
aI0
aI0
aF0.0
aI10
aI11
aF0.909
aI3
aI2
aI5
aI1
aI0
aI1
aI0
aI2
aI24
aI1
aa(lp238
V0021500729
p239
aVFEB 01, 2016
p240
aVMIL @ SAC
p241
aVL
p242
aI35
aI11
aI16
aF0.688
aI0
aI0
aF0.0
aI2
aI3
aF0.667
aI5
aI7
aI12
aI3
aI1
aI1
aI1
aI1
aI24
aI-5
aa(lp243
V0021500733
p244
aVFEB 02, 2016
p245
aVMIL @ POR
p246
aVL
p247
aI30
aI7
aI15
aF0.467
aI0
aI0
aF0.0
aI3
aI5
aF0.6
aI2
aI6
aI8
aI3
aI0
aI0
aI1
aI3
aI17
aI-18
aa(lp248
V0021500758
p249
aVFEB 05, 2016
p250
aVMIL @ UTA
p251
aVL
p252
aI33
aI5
aI9
aF0.556
aI0
aI0
aF0.0
aI4
aI6
aF0.667
aI2
aI7
aI9
aI0
aI1
aI1
aI2
aI1
aI14
aI-11
aa(lp253
V0021500786
p254
aVFEB 09, 2016
p255
aVMIL vs. BOS
p256
aVW
p257
aI30
aI13
aI21
aF0.619
aI0
aI0
aF0.0
aI3
aI6
aF0.5
aI6
aI6
aI12
aI3
aI1
aI2
aI3
aI1
aI29
aI9
aa(lp258
V0021500801
p259
aVFEB 11, 2016
p260
aVMIL vs. WAS
p261
aVW
p262
aI33
aI5
aI13
aF0.385
aI0
aI0
aF0.0
aI2
aI4
aF0.5
aI3
aI6
aI9
aI1
aI2
aI0
aI1
aI4
aI12
aI9
aa(lp263
V0021500813
p264
aVFEB 19, 2016
p265
aVMIL vs. CHA
p266
aVL
p267
aI30
aI0
aI2
aF0.0
aI0
aI0
aF0.0
aI4
aI4
aF1.0
aI1
aI5
aI6
aI2
aI1
aI3
aI4
aI3
aI4
aI-12
aa(lp268
V0021500819
p269
aVFEB 20, 2016
p270
aVMIL @ ATL
p271
aVW
p272
aI36
aI10
aI20
aF0.5
aI0
aI0
aF0.0
aI4
aI7
aF0.571
aI5
aI7
aI12
aI4
aI1
aI1
aI0
aI2
aI24
aI4
aa(lp273
V0021500837
p274
aVFEB 22, 2016
p275
aVMIL vs. LAL
p276
aVW
p277
aI27
aI5
aI9
aF0.556
aI0
aI0
aF0.0
aI2
aI2
aF1.0
aI1
aI7
aI8
aI1
aI2
aI1
aI1
aI1
aI12
aI-5
aa(lp278
V0021500856
p279
aVFEB 25, 2016
p280
aVMIL @ BOS
p281
aVL
p282
aI34
aI9
aI13
aF0.692
aI0
aI0
aF0.0
aI2
aI3
aF0.667
aI1
aI7
aI8
aI4
aI1
aI2
aI0
aI3
aI20
aI4
aa(lp283
V0021500873
p284
aVFEB 27, 2016
p285
aVMIL vs. DET
p286
aVL
p287
aI27
aI5
aI10
aF0.5
aI0
aI0
aF0.0
aI0
aI0
aF0.0
aI4
aI3
aI7
aI3
aI1
aI1
aI4
aI3
aI10
aI-6
aa(lp288
V0021500887
p289
aVFEB 29, 2016
p290
aVMIL vs. HOU
p291
aVW
p292
aI20
aI5
aI9
aF0.556
aI0
aI0
aF0.0
aI0
aI0
aF0.0
aI2
aI4
aI6
aI1
aI0
aI0
aI0
aI5
aI10
aI10
aa(lp293
V0021500903
p294
aVMAR 02, 2016
p295
aVMIL vs. IND
p296
aVL
p297
aI29
aI5
aI9
aF0.556
aI0
aI0
aF0.0
aI6
aI8
aF0.75
aI1
aI6
aI7
aI0
aI1
aI0
aI1
aI1
aI16
aI1
aa(lp298
V0021500919
p299
aVMAR 04, 2016
p300
aVMIL vs. MIN
p301
aVW
p302
aI32
aI6
aI6
aF1.0
aI0
aI0
aF0.0
aI2
aI4
aF0.5
aI4
aI5
aI9
aI4
aI0
aI3
aI6
aI2
aI14
aI1
aa(lp303
V0021500930
p304
aVMAR 06, 2016
p305
aVMIL vs. OKC
p306
aVL
p307
aI30
aI4
aI10
aF0.4
aI0
aI0
aF0.0
aI1
aI2
aF0.5
aI6
aI4
aI10
aI2
aI2
aI0
aI1
aI1
aI9
aI2
aa(lp308
V0021500940
p309
aVMAR 07, 2016
p310
aVMIL @ CHI
p311
aVL
p312
aI29
aI5
aI14
aF0.357
aI0
aI0
aF0.0
aI1
aI2
aF0.5
aI6
aI8
aI14
aI3
aI0
aI1
aI0
aI4
aI11
aI4
aa(lp313
V0021500952
p314
aVMAR 09, 2016
p315
aVMIL vs. MIA
p316
aVW
p317
aI23
aI4
aI9
aF0.444
aI0
aI0
aF0.0
aI2
aI2
aF1.0
aI4
aI4
aI8
aI4
aI1
aI0
aI2
aI2
aI10
aI2
aa(lp318
V0021500978
p319
aVMAR 12, 2016
p320
aVMIL vs. NOP
p321
aVW
p322
aI27
aI6
aI10
aF0.6
aI0
aI0
aF0.0
aI4
aI4
aF1.0
aI0
aI11
aI11
aI2
aI1
aI1
aI0
aI3
aI16
aI1
aa(lp323
V0021500985
p324
aVMAR 13, 2016
p325
aVMIL @ BKN
p326
aVW
p327
aI27
aI6
aI13
aF0.462
aI0
aI0
aF0.0
aI2
aI2
aF1.0
aI2
aI3
aI5
aI3
aI0
aI0
aI1
aI2
aI14
aI14
aa(lp328
V0021501000
p329
aVMAR 15, 2016
p330
aVMIL vs. TOR
p331
aVL
p332
aI29
aI4
aI8
aF0.5
aI0
aI0
aF0.0
aI0
aI1
aF0.0
aI2
aI7
aI9
aI0
aI0
aI0
aI0
aI1
aI8
aI-10
aa(lp333
V0021501017
p334
aVMAR 17, 2016
p335
aVMIL vs. MEM
p336
aVW
p337
aI27
aI5
aI6
aF0.833
aI0
aI0
aF0.0
aI4
aI6
aF0.667
aI0
aI10
aI10
aI0
aI0
aI1
aI1
aI0
aI14
aI1
aa(lp338
V0021501041
p339
aVMAR 20, 2016
p340
aVMIL vs. UTA
p341
aVL
p342
aI22
aI3
aI8
aF0.375
aI0
aI0
aF0.0
aI2
aI2
aF1.0
aI1
aI3
aI4
aI2
aI0
aI1
aI1
aI0
aI8
aI-8
aa(lp343
V0021501047
p344
aVMAR 21, 2016
p345
aVMIL @ DET
p346
aVL
p347
aI34
aI9
aI15
aF0.6
aI0
aI0
aF0.0
aI0
aI0
aF0.0
aI2
aI8
aI10
aI1
aI2
aI2
aI2
aI1
aI18
aI16
aa(lp348
V0021501059
p349
aVMAR 23, 2016
p350
aVMIL @ CLE
p351
aVL
p352
aI26
aI6
aI9
aF0.667
aI0
aI0
aF0.0
aI2
aI2
aF1.0
aI0
aI2
aI2
aI1
aI1
aI0
aI3
aI2
aI14
aI-14
aa(lp353
V0021501076
p354
aVMAR 25, 2016
p355
aVMIL @ ATL
p356
aVL
p357
aI24
aI2
aI7
aF0.286
aI0
aI0
aF0.0
aI3
aI6
aF0.5
aI1
aI2
aI3
aI3
aI0
aI0
aI1
aI2
aI7
aI-6
aa(lp358
V0021501089
p359
aVMAR 26, 2016
p360
aVMIL vs. CHA
p361
aVL
p362
aI23
aI3
aI7
aF0.429
aI0
aI0
aF0.0
aI6
aI8
aF0.75
aI2
aI4
aI6
aI1
aI0
aI0
aI0
aI2
aI12
aI-31
aa(lp363
V0021501115
p364
aVMAR 30, 2016
p365
aVMIL vs. PHX
p366
aVW
p367
aI27
aI5
aI12
aF0.417
aI0
aI1
aF0.0
aI4
aI4
aF1.0
aI1
aI4
aI5
aI4
aI2
aI2
aI1
aI3
aI14
aI-1
aa(lp368
V0021501133
p369
aVAPR 01, 2016
p370
aVMIL vs. ORL
p371
aVW
p372
aI31
aI9
aI14
aF0.643
aI0
aI0
aF0.0
aI0
aI2
aF0.0
aI3
aI3
aI6
aI3
aI2
aI1
aI2
aI1
aI18
aI8
aa(lp373
V0021501150
p374
aVAPR 03, 2016
p375
aVMIL vs. CHI
p376
aVL
p377
aI23
aI4
aI11
aF0.364
aI0
aI0
aF0.0
aI3
aI4
aF0.75
aI2
aI3
aI5
aI3
aI0
aI1
aI1
aI1
aI11
aI-7
aa(lp378
V0021501159
p379
aVAPR 05, 2016
p380
aVMIL vs. CLE
p381
aVL
p382
aI25
aI4
aI11
aF0.364
aI0
aI0
aF0.0
aI0
aI0
aF0.0
aI1
aI4
aI5
aI2
aI1
aI0
aI1
aI1
aI8
aI-14
aa(lp383
V0021501181
p384
aVAPR 08, 2016
p385
aVMIL @ BOS
p386
aVL
p387
aI28
aI4
aI6
aF0.667
aI0
aI0
aF0.0
aI2
aI4
aF0.5
aI2
aI6
aI8
aI4
aI0
aI0
aI3
aI3
aI10
aI-7
aa(lp388
V0021501204
p389
aVAPR 11, 2016
p390
aVMIL @ ORL
p391
aVL
p392
aI27
aI9
aI15
aF0.6
aI0
aI0
aF0.0
aI5
aI6
aF0.833
aI4
aI3
aI7
aI2
aI3
aI1
aI2
aI2
aI23
aI-12
aa(lp393
V0021501225
p394
aVAPR 13, 2016
p395
aVMIL vs. IND
p396
aVL
p397
aI13
aI2
aI3
aF0.667
aI0
aI0
aF0.0
aI3
aI3
aF1.0
aI0
aI2
aI2
aI1
aI1
aI0
aI1
aI0
aI7
aI-8
aasS'name'
p398
VGreg Monroe
p399
sS'weight'
p400
V265
p401
sS'age'
p402
I25
sS'experience'
p403
I5
sS'height'
p404
V6-11
p405
sS'position'
p406
VCenter-Forward
p407
s.