(dp0
S'stats'
p1
(lp2
(lp3
V0021500067
p4
aVNOV 04, 2015
p5
aVSAC @ PHX
p6
aVL
p7
aI4
aI0
aI0
aF0.0
aI0
aI0
aF0.0
aI0
aI0
aF0.0
aI0
aI1
aI1
aI1
aI0
aI0
aI0
aI0
aI0
aI-1
aa(lp8
V0021500092
p9
aVNOV 07, 2015
p10
aVSAC vs. GSW
p11
aVL
p12
aI15
aI1
aI1
aF1.0
aI0
aI0
aF0.0
aI1
aI2
aF0.5
aI0
aI3
aI3
aI2
aI0
aI1
aI1
aI0
aI3
aI8
aa(lp13
V0021500103
p14
aVNOV 09, 2015
p15
aVSAC vs. SAS
p16
aVL
p17
aI3
aI1
aI1
aF1.0
aI1
aI1
aF1.0
aI0
aI0
aF0.0
aI0
aI0
aI0
aI0
aI0
aI0
aI0
aI0
aI3
aI2
aa(lp18
V0021500137
p19
aVNOV 13, 2015
p20
aVSAC vs. BKN
p21
aVW
p22
aI19
aI1
aI2
aF0.5
aI0
aI0
aF0.0
aI1
aI2
aF0.5
aI0
aI1
aI1
aI0
aI2
aI0
aI1
aI0
aI3
aI13
aa(lp23
V0021500150
p24
aVNOV 15, 2015
p25
aVSAC vs. TOR
p26
aVW
p27
aI15
aI1
aI2
aF0.5
aI0
aI0
aF0.0
aI0
aI0
aF0.0
aI0
aI3
aI3
aI1
aI0
aI0
aI0
aI3
aI2
aI-5
aa(lp28
V0021500169
p29
aVNOV 18, 2015
p30
aVSAC @ ATL
p31
aVL
p32
aI16
aI0
aI0
aF0.0
aI0
aI0
aF0.0
aI0
aI0
aF0.0
aI0
aI1
aI1
aI1
aI0
aI1
aI1
aI3
aI0
aI-10
aa(lp33
V0021500175
p34
aVNOV 19, 2015
p35
aVSAC @ MIA
p36
aVL
p37
aI5
aI0
aI1
aF0.0
aI0
aI1
aF0.0
aI0
aI0
aF0.0
aI1
aI0
aI1
aI0
aI0
aI0
aI0
aI0
aI0
aI-1
aa(lp38
V0021500237
p39
aVNOV 27, 2015
p40
aVSAC vs. MIN
p41
aVL
p42
aI9
aI0
aI1
aF0.0
aI0
aI1
aF0.0
aI1
aI2
aF0.5
aI0
aI1
aI1
aI0
aI0
aI0
aI0
aI3
aI1
aI-8
aa(lp43
V0021500245
p44
aVNOV 28, 2015
p45
aVSAC @ GSW
p46
aVL
p47
aI15
aI4
aI7
aF0.571
aI1
aI1
aF1.0
aI0
aI0
aF0.0
aI4
aI3
aI7
aI1
aI0
aI0
aI1
aI3
aI9
aI-12
aa(lp48
V0021500282
p49
aVDEC 03, 2015
p50
aVSAC vs. BOS
p51
aVL
p52
aI7
aI1
aI4
aF0.25
aI0
aI0
aF0.0
aI0
aI0
aF0.0
aI1
aI0
aI1
aI0
aI1
aI0
aI0
aI0
aI2
aI-7
aa(lp53
V0021500293
p54
aVDEC 05, 2015
p55
aVSAC @ HOU
p56
aVL
p57
aI4
aI1
aI2
aF0.5
aI0
aI0
aF0.0
aI0
aI0
aF0.0
aI1
aI0
aI1
aI0
aI0
aI0
aI0
aI2
aI2
aI-6
aa(lp58
V0021500369
p59
aVDEC 15, 2015
p60
aVSAC vs. HOU
p61
aVW
p62
aI1
aI0
aI1
aF0.0
aI0
aI1
aF0.0
aI0
aI0
aF0.0
aI0
aI0
aI0
aI0
aI0
aI0
aI0
aI0
aI0
aI-3
aa(lp63
V0021500468
p64
aVDEC 28, 2015
p65
aVSAC @ GSW
p66
aVL
p67
aI25
aI3
aI7
aF0.429
aI1
aI2
aF0.5
aI1
aI3
aF0.333
aI3
aI7
aI10
aI1
aI2
aI3
aI2
aI4
aI8
aI-6
aa(lp68
V0021500483
p69
aVDEC 30, 2015
p70
aVSAC vs. PHI
p71
aVL
p72
aI9
aI0
aI1
aF0.0
aI0
aI0
aF0.0
aI2
aI2
aF1.0
aI2
aI3
aI5
aI0
aI1
aI0
aI0
aI1
aI2
aI6
aa(lp73
V0021500496
p74
aVJAN 02, 2016
p75
aVSAC vs. PHX
p76
aVW
p77
aI4
aI1
aI2
aF0.5
aI0
aI0
aF0.0
aI0
aI0
aF0.0
aI0
aI0
aI0
aI0
aI1
aI0
aI0
aI1
aI2
aI0
aa(lp78
V0021500517
p79
aVJAN 04, 2016
p80
aVSAC @ OKC
p81
aVW
p82
aI5
aI0
aI0
aF0.0
aI0
aI0
aF0.0
aI0
aI0
aF0.0
aI1
aI0
aI1
aI0
aI0
aI0
aI0
aI1
aI0
aI-6
aa(lp83
V0021500523
p84
aVJAN 05, 2016
p85
aVSAC @ DAL
p86
aVL
p87
aI16
aI4
aI4
aF1.0
aI1
aI1
aF1.0
aI3
aI3
aF1.0
aI3
aI3
aI6
aI0
aI1
aI0
aI0
aI3
aI12
aI-5
aa(lp88
V0021500539
p89
aVJAN 07, 2016
p90
aVSAC vs. LAL
p91
aVW
p92
aI25
aI8
aI9
aF0.889
aI0
aI0
aF0.0
aI2
aI3
aF0.667
aI2
aI2
aI4
aI0
aI1
aI2
aI0
aI1
aI18
aI16
aa(lp93
V0021500556
p94
aVJAN 09, 2016
p95
aVSAC vs. GSW
p96
aVL
p97
aI22
aI3
aI4
aF0.75
aI0
aI0
aF0.0
aI3
aI3
aF1.0
aI1
aI2
aI3
aI0
aI0
aI0
aI0
aI3
aI9
aI-8
aa(lp98
V0021500585
p99
aVJAN 13, 2016
p100
aVSAC vs. NOP
p101
aVL
p102
aI9
aI0
aI1
aF0.0
aI0
aI0
aF0.0
aI0
aI0
aF0.0
aI0
aI2
aI2
aI1
aI0
aI1
aI0
aI0
aI0
aI-1
aa(lp103
V0021500638
p104
aVJAN 20, 2016
p105
aVSAC @ LAL
p106
aVW
p107
aI2
aI1
aI2
aF0.5
aI0
aI0
aF0.0
aI0
aI0
aF0.0
aI0
aI0
aI0
aI0
aI0
aI0
aI0
aI0
aI2
aI1
aa(lp108
V0021500643
p109
aVJAN 21, 2016
p110
aVSAC vs. ATL
p111
aVW
p112
aI11
aI1
aI2
aF0.5
aI0
aI0
aF0.0
aI2
aI2
aF1.0
aI0
aI1
aI1
aI0
aI0
aI0
aI0
aI1
aI4
aI-10
aa(lp113
V0021500682
p114
aVJAN 26, 2016
p115
aVSAC @ POR
p116
aVL
p117
aI17
aI2
aI4
aF0.5
aI0
aI0
aF0.0
aI0
aI0
aF0.0
aI3
aI3
aI6
aI1
aI1
aI0
aI1
aI1
aI4
aI-3
aa(lp118
V0021500696
p119
aVJAN 28, 2016
p120
aVSAC @ NOP
p121
aVL
p122
aI19
aI1
aI3
aF0.333
aI1
aI2
aF0.5
aI0
aI0
aF0.0
aI2
aI7
aI9
aI0
aI0
aI0
aI1
aI2
aI3
aI3
aa(lp123
V0021500712
p124
aVJAN 30, 2016
p125
aVSAC @ MEM
p126
aVL
p127
aI11
aI3
aI3
aF1.0
aI0
aI0
aF0.0
aI0
aI0
aF0.0
aI2
aI1
aI3
aI0
aI0
aI0
aI0
aI2
aI6
aI4
aa(lp128
V0021500729
p129
aVFEB 01, 2016
p130
aVSAC vs. MIL
p131
aVW
p132
aI17
aI2
aI7
aF0.286
aI0
aI1
aF0.0
aI0
aI0
aF0.0
aI7
aI1
aI8
aI1
aI0
aI0
aI0
aI2
aI4
aI-3
aa(lp133
V0021500754
p134
aVFEB 05, 2016
p135
aVSAC @ BKN
p136
aVL
p137
aI6
aI0
aI0
aF0.0
aI0
aI0
aF0.0
aI0
aI0
aF0.0
aI0
aI0
aI0
aI0
aI0
aI1
aI0
aI0
aI0
aI-4
aa(lp138
V0021500773
p139
aVFEB 07, 2016
p140
aVSAC @ BOS
p141
aVL
p142
aI3
aI0
aI0
aF0.0
aI0
aI0
aF0.0
aI0
aI0
aF0.0
aI1
aI0
aI1
aI0
aI0
aI0
aI0
aI0
aI0
aI-2
aa(lp143
V0021500775
p144
aVFEB 08, 2016
p145
aVSAC @ CLE
p146
aVL
p147
aI5
aI1
aI2
aF0.5
aI0
aI0
aF0.0
aI1
aI1
aF1.0
aI1
aI0
aI1
aI0
aI1
aI0
aI0
aI0
aI3
aI-2
aa(lp148
V0021500791
p149
aVFEB 10, 2016
p150
aVSAC @ PHI
p151
aVW
p152
aI15
aI2
aI3
aF0.667
aI0
aI1
aF0.0
aI2
aI2
aF1.0
aI3
aI1
aI4
aI0
aI0
aI2
aI1
aI3
aI6
aI13
aa(lp153
V0021500816
p154
aVFEB 19, 2016
p155
aVSAC vs. DEN
p156
aVW
p157
aI15
aI0
aI0
aF0.0
aI0
aI0
aF0.0
aI0
aI0
aF0.0
aI0
aI3
aI3
aI0
aI0
aI0
aI1
aI1
aI0
aI2
aa(lp158
V0021500842
p159
aVFEB 23, 2016
p160
aVSAC @ DEN
p161
aVW
p162
aI13
aI0
aI2
aF0.0
aI0
aI0
aF0.0
aI0
aI0
aF0.0
aI0
aI3
aI3
aI0
aI0
aI3
aI0
aI1
aI0
aI-1
aa(lp163
V0021500854
p164
aVFEB 24, 2016
p165
aVSAC vs. SAS
p166
aVL
p167
aI23
aI6
aI9
aF0.667
aI1
aI1
aF1.0
aI2
aI2
aF1.0
aI0
aI2
aI2
aI0
aI2
aI0
aI1
aI4
aI15
aI13
aa(lp168
V0021500867
p169
aVFEB 26, 2016
p170
aVSAC vs. LAC
p171
aVL
p172
aI15
aI1
aI1
aF1.0
aI0
aI0
aF0.0
aI2
aI4
aF0.5
aI0
aI0
aI0
aI0
aI0
aI1
aI0
aI3
aI4
aI-12
aa(lp173
V0021500889
p174
aVFEB 29, 2016
p175
aVSAC vs. OKC
p176
aVL
p177
aI28
aI5
aI9
aF0.556
aI0
aI1
aF0.0
aI0
aI0
aF0.0
aI4
aI0
aI4
aI2
aI3
aI0
aI0
aI3
aI10
aI-16
aa(lp178
V0021500902
p179
aVMAR 02, 2016
p180
aVSAC @ MEM
p181
aVL
p182
aI26
aI5
aI6
aF0.833
aI0
aI1
aF0.0
aI1
aI2
aF0.5
aI1
aI2
aI3
aI1
aI1
aI0
aI1
aI5
aI11
aI-5
aa(lp183
V0021500910
p184
aVMAR 03, 2016
p185
aVSAC @ DAL
p186
aVW
p187
aI16
aI2
aI2
aF1.0
aI0
aI0
aF0.0
aI0
aI0
aF0.0
aI0
aI3
aI3
aI0
aI0
aI0
aI2
aI1
aI4
aI1
aa(lp188
V0021500928
p189
aVMAR 05, 2016
p190
aVSAC @ SAS
p191
aVL
p192
aI31
aI7
aI7
aF1.0
aI2
aI2
aF1.0
aI0
aI0
aF0.0
aI1
aI6
aI7
aI1
aI1
aI0
aI1
aI4
aI16
aI-10
aa(lp193
V0021500941
p194
aVMAR 07, 2016
p195
aVSAC @ NOP
p196
aVL
p197
aI20
aI1
aI2
aF0.5
aI0
aI1
aF0.0
aI0
aI0
aF0.0
aI2
aI6
aI8
aI2
aI0
aI0
aI0
aI3
aI2
aI1
aa(lp198
V0021500957
p199
aVMAR 09, 2016
p200
aVSAC vs. CLE
p201
aVL
p202
aI21
aI3
aI5
aF0.6
aI0
aI1
aF0.0
aI2
aI2
aF1.0
aI0
aI4
aI4
aI0
aI0
aI1
aI0
aI3
aI8
aI-6
aa(lp203
V0021500970
p204
aVMAR 11, 2016
p205
aVSAC vs. ORL
p206
aVL
p207
aI14
aI1
aI2
aF0.5
aI0
aI0
aF0.0
aI1
aI1
aF1.0
aI1
aI3
aI4
aI1
aI0
aI0
aI1
aI2
aI3
aI-15
aa(lp208
V0021500986
p209
aVMAR 13, 2016
p210
aVSAC vs. UTA
p211
aVL
p212
aI11
aI1
aI2
aF0.5
aI0
aI0
aF0.0
aI0
aI0
aF0.0
aI0
aI1
aI1
aI0
aI0
aI0
aI0
aI2
aI2
aI-17
aa(lp213
V0021501002
p214
aVMAR 15, 2016
p215
aVSAC @ LAL
p216
aVW
p217
aI5
aI0
aI1
aF0.0
aI0
aI1
aF0.0
aI1
aI2
aF0.5
aI0
aI1
aI1
aI0
aI0
aI0
aI0
aI0
aI1
aI-5
aa(lp218
V0021501010
p219
aVMAR 16, 2016
p220
aVSAC vs. NOP
p221
aVL
p222
aI14
aI2
aI2
aF1.0
aI0
aI0
aF0.0
aI1
aI2
aF0.5
aI0
aI1
aI1
aI0
aI1
aI0
aI0
aI3
aI5
aI10
aa(lp223
V0021501022
p224
aVMAR 18, 2016
p225
aVSAC @ DET
p226
aVL
p227
aI18
aI1
aI3
aF0.333
aI0
aI0
aF0.0
aI4
aI6
aF0.667
aI2
aI1
aI3
aI1
aI1
aI0
aI1
aI2
aI6
aI-6
aa(lp228
V0021501042
p229
aVMAR 20, 2016
p230
aVSAC @ NYK
p231
aVW
p232
aI23
aI1
aI4
aF0.25
aI0
aI2
aF0.0
aI1
aI1
aF1.0
aI0
aI4
aI4
aI1
aI1
aI0
aI1
aI2
aI3
aI3
aa(lp233
V0021501049
p234
aVMAR 21, 2016
p235
aVSAC @ CHI
p236
aVL
p237
aI11
aI1
aI2
aF0.5
aI0
aI1
aF0.0
aI0
aI0
aF0.0
aI0
aI1
aI1
aI0
aI0
aI0
aI0
aI2
aI2
aI-3
aa(lp238
V0021501062
p239
aVMAR 23, 2016
p240
aVSAC @ MIN
p241
aVL
p242
aI22
aI4
aI5
aF0.8
aI1
aI1
aF1.0
aI0
aI0
aF0.0
aI2
aI0
aI2
aI1
aI0
aI0
aI1
aI3
aI9
aI-7
aa(lp243
V0021501079
p244
aVMAR 25, 2016
p245
aVSAC vs. PHX
p246
aVW
p247
aI19
aI4
aI9
aF0.444
aI2
aI5
aF0.4
aI4
aI4
aF1.0
aI0
aI7
aI7
aI0
aI0
aI2
aI1
aI4
aI14
aI9
aa(lp248
V0021501095
p249
aVMAR 27, 2016
p250
aVSAC vs. DAL
p251
aVW
p252
aI17
aI3
aI4
aF0.75
aI1
aI1
aF1.0
aI0
aI0
aF0.0
aI1
aI2
aI3
aI0
aI2
aI0
aI0
aI1
aI7
aI8
aa(lp253
V0021501105
p254
aVMAR 28, 2016
p255
aVSAC @ POR
p256
aVL
p257
aI28
aI4
aI8
aF0.5
aI1
aI2
aF0.5
aI1
aI1
aF1.0
aI1
aI3
aI4
aI1
aI1
aI1
aI1
aI3
aI10
aI-4
aa(lp258
V0021501120
p259
aVMAR 30, 2016
p260
aVSAC vs. WAS
p261
aVW
p262
aI13
aI3
aI3
aF1.0
aI1
aI1
aF1.0
aI0
aI0
aF0.0
aI1
aI4
aI5
aI0
aI1
aI0
aI0
aI1
aI7
aI3
aa(lp263
V0021501135
p264
aVAPR 01, 2016
p265
aVSAC vs. MIA
p266
aVL
p267
aI14
aI2
aI6
aF0.333
aI0
aI2
aF0.0
aI0
aI0
aF0.0
aI2
aI0
aI2
aI0
aI0
aI0
aI0
aI2
aI4
aI-10
aa(lp268
V0021501141
p269
aVAPR 02, 2016
p270
aVSAC @ DEN
p271
aVW
p272
aI17
aI2
aI8
aF0.25
aI1
aI2
aF0.5
aI0
aI0
aF0.0
aI2
aI4
aI6
aI2
aI0
aI1
aI0
aI2
aI5
aI-5
aa(lp273
V0021501162
p274
aVAPR 05, 2016
p275
aVSAC vs. POR
p276
aVL
p277
aI15
aI3
aI5
aF0.6
aI2
aI2
aF1.0
aI0
aI0
aF0.0
aI0
aI0
aI0
aI0
aI0
aI0
aI0
aI1
aI8
aI-15
aa(lp278
V0021501176
p279
aVAPR 07, 2016
p280
aVSAC vs. MIN
p281
aVL
p282
aI28
aI7
aI12
aF0.583
aI1
aI3
aF0.333
aI2
aI2
aF1.0
aI3
aI3
aI6
aI1
aI0
aI1
aI1
aI3
aI17
aI-10
aa(lp283
V0021501193
p284
aVAPR 09, 2016
p285
aVSAC vs. OKC
p286
aVW
p287
aI21
aI3
aI5
aF0.6
aI0
aI1
aF0.0
aI1
aI2
aF0.5
aI3
aI5
aI8
aI0
aI1
aI0
aI1
aI1
aI7
aI16
aa(lp288
V0021501211
p289
aVAPR 11, 2016
p290
aVSAC @ PHX
p291
aVW
p292
aI16
aI2
aI2
aF1.0
aI0
aI0
aF0.0
aI5
aI6
aF0.833
aI1
aI0
aI1
aI1
aI1
aI2
aI3
aI2
aI9
aI8
aa(lp293
V0021501224
p294
aVAPR 13, 2016
p295
aVSAC @ HOU
p296
aVL
p297
aI29
aI3
aI12
aF0.25
aI1
aI6
aF0.167
aI3
aI6
aF0.5
aI0
aI8
aI8
aI2
aI2
aI1
aI1
aI0
aI10
aI-16
aasS'name'
p298
VQuincy Acy
p299
sS'weight'
p300
V240
p301
sS'age'
p302
I25
sS'experience'
p303
I3
sS'height'
p304
V6-7
p305
sS'position'
p306
VForward
p307
s.