(dp0
S'stats'
p1
(lp2
(lp3
V0021500065
p4
aVNOV 04, 2015
p5
aVMIL vs. PHI
p6
aVW
p7
aI8
aI1
aI2
aF0.5
aI0
aI0
aF0.0
aI0
aI0
aF0.0
aI0
aI2
aI2
aI1
aI0
aI0
aI1
aI2
aI2
aI-7
aa(lp8
V0021500079
p9
aVNOV 06, 2015
p10
aVMIL @ NYK
p11
aVW
p12
aI17
aI1
aI4
aF0.25
aI0
aI0
aF0.0
aI2
aI2
aF1.0
aI1
aI3
aI4
aI3
aI0
aI0
aI1
aI3
aI4
aI-1
aa(lp13
V0021500089
p14
aVNOV 07, 2015
p15
aVMIL vs. BKN
p16
aVW
p17
aI16
aI4
aI9
aF0.444
aI1
aI1
aF1.0
aI0
aI0
aF0.0
aI1
aI0
aI1
aI1
aI1
aI0
aI1
aI2
aI9
aI-1
aa(lp18
V0021500110
p19
aVNOV 10, 2015
p20
aVMIL vs. BOS
p21
aVL
p22
aI24
aI2
aI4
aF0.5
aI0
aI0
aF0.0
aI0
aI0
aF0.0
aI0
aI0
aI0
aI2
aI1
aI0
aI1
aI1
aI4
aI2
aa(lp23
V0021500121
p24
aVNOV 11, 2015
p25
aVMIL @ DEN
p26
aVL
p27
aI15
aI3
aI4
aF0.75
aI1
aI2
aF0.5
aI0
aI0
aF0.0
aI0
aI0
aI0
aI0
aI0
aI0
aI2
aI1
aI7
aI-6
aa(lp28
V0021500158
p29
aVNOV 17, 2015
p30
aVMIL @ WAS
p31
aVL
p32
aI7
aI0
aI1
aF0.0
aI0
aI0
aF0.0
aI3
aI4
aF0.75
aI0
aI2
aI2
aI2
aI0
aI0
aI1
aI0
aI3
aI-5
aa(lp33
V0021500246
p34
aVNOV 29, 2015
p35
aVMIL @ CHA
p36
aVL
p37
aI4
aI0
aI1
aF0.0
aI0
aI1
aF0.0
aI0
aI0
aF0.0
aI0
aI0
aI0
aI0
aI0
aI0
aI0
aI0
aI0
aI-2
aa(lp38
V0021500258
p39
aVNOV 30, 2015
p40
aVMIL vs. DEN
p41
aVW
p42
aI4
aI0
aI1
aF0.0
aI0
aI0
aF0.0
aI1
aI2
aF0.5
aI1
aI2
aI3
aI1
aI0
aI0
aI0
aI0
aI1
aI-4
aa(lp43
V0021500275
p44
aVDEC 02, 2015
p45
aVMIL @ SAS
p46
aVL
p47
aI24
aI2
aI8
aF0.25
aI0
aI3
aF0.0
aI0
aI0
aF0.0
aI0
aI3
aI3
aI1
aI0
aI1
aI2
aI2
aI4
aI-12
aa(lp48
V0021500370
p49
aVDEC 15, 2015
p50
aVMIL @ LAL
p51
aVL
p52
aI4
aI1
aI1
aF1.0
aI0
aI0
aF0.0
aI0
aI0
aF0.0
aI0
aI1
aI1
aI0
aI1
aI0
aI0
aI1
aI2
aI-1
aa(lp53
V0021500382
p54
aVDEC 16, 2015
p55
aVMIL @ LAC
p56
aVL
p57
aI9
aI0
aI2
aF0.0
aI0
aI1
aF0.0
aI0
aI0
aF0.0
aI0
aI0
aI0
aI0
aI0
aI0
aI1
aI0
aI0
aI1
aa(lp58
V0021500406
p59
aVDEC 20, 2015
p60
aVMIL @ PHX
p61
aVW
p62
aI5
aI1
aI1
aF1.0
aI0
aI0
aF0.0
aI1
aI2
aF0.5
aI0
aI1
aI1
aI0
aI0
aI0
aI1
aI0
aI3
aI-8
aa(lp63
V0021500430
p64
aVDEC 23, 2015
p65
aVMIL vs. PHI
p66
aVW
p67
aI8
aI4
aI6
aF0.667
aI2
aI3
aF0.667
aI0
aI0
aF0.0
aI0
aI0
aI0
aI1
aI0
aI0
aI1
aI1
aI10
aI-4
aa(lp68
V0021500441
p69
aVDEC 26, 2015
p70
aVMIL vs. TOR
p71
aVL
p72
aI8
aI3
aI4
aF0.75
aI0
aI0
aF0.0
aI0
aI0
aF0.0
aI0
aI1
aI1
aI1
aI1
aI0
aI0
aI1
aI6
aI-1
aa(lp73
V0021500516
p74
aVJAN 04, 2016
p75
aVMIL vs. SAS
p76
aVL
p77
aI5
aI0
aI1
aF0.0
aI0
aI0
aF0.0
aI0
aI0
aF0.0
aI0
aI0
aI0
aI2
aI0
aI0
aI0
aI1
aI0
aI-3
aa(lp78
V0021500562
p79
aVJAN 10, 2016
p80
aVMIL @ NYK
p81
aVL
p82
aI16
aI0
aI5
aF0.0
aI0
aI2
aF0.0
aI0
aI0
aF0.0
aI0
aI0
aI0
aI2
aI0
aI0
aI0
aI1
aI0
aI5
aa(lp83
V0021500599
p84
aVJAN 15, 2016
p85
aVMIL vs. ATL
p86
aVW
p87
aI6
aI0
aI0
aF0.0
aI0
aI0
aF0.0
aI0
aI0
aF0.0
aI0
aI0
aI0
aI1
aI0
aI0
aI0
aI1
aI0
aI1
aa(lp88
V0021500603
p89
aVJAN 16, 2016
p90
aVMIL @ CHA
p91
aVW
p92
aI3
aI0
aI0
aF0.0
aI0
aI0
aF0.0
aI0
aI0
aF0.0
aI0
aI0
aI0
aI1
aI0
aI0
aI0
aI1
aI0
aI-4
aa(lp93
V0021500625
p94
aVJAN 19, 2016
p95
aVMIL @ MIA
p96
aVW
p97
aI2
aI0
aI2
aF0.0
aI0
aI0
aF0.0
aI0
aI0
aF0.0
aI0
aI0
aI0
aI0
aI0
aI0
aI0
aI2
aI0
aI-3
aa(lp98
V0021500657
p99
aVJAN 23, 2016
p100
aVMIL @ NOP
p101
aVL
p102
aI3
aI1
aI1
aF1.0
aI0
aI0
aF0.0
aI0
aI0
aF0.0
aI0
aI0
aI0
aI1
aI0
aI0
aI0
aI0
aI2
aI-2
aa(lp103
V0021500695
p104
aVJAN 28, 2016
p105
aVMIL @ MEM
p106
aVL
p107
aI5
aI1
aI3
aF0.333
aI0
aI1
aF0.0
aI2
aI2
aF1.0
aI0
aI1
aI1
aI0
aI0
aI0
aI0
aI1
aI4
aI5
aa(lp108
V0021500703
p109
aVJAN 29, 2016
p110
aVMIL vs. MIA
p111
aVL
p112
aI6
aI0
aI0
aF0.0
aI0
aI0
aF0.0
aI0
aI0
aF0.0
aI0
aI2
aI2
aI1
aI0
aI0
aI2
aI2
aI0
aI0
aa(lp113
V0021500733
p114
aVFEB 02, 2016
p115
aVMIL @ POR
p116
aVL
p117
aI3
aI0
aI0
aF0.0
aI0
aI0
aF0.0
aI0
aI0
aF0.0
aI0
aI2
aI2
aI2
aI0
aI0
aI0
aI0
aI0
aI3
aa(lp118
V0021500758
p119
aVFEB 05, 2016
p120
aVMIL @ UTA
p121
aVL
p122
aI8
aI0
aI0
aF0.0
aI0
aI0
aF0.0
aI0
aI0
aF0.0
aI0
aI1
aI1
aI1
aI2
aI0
aI0
aI0
aI0
aI7
aa(lp123
V0021500856
p124
aVFEB 25, 2016
p125
aVMIL @ BOS
p126
aVL
p127
aI5
aI1
aI2
aF0.5
aI0
aI0
aF0.0
aI0
aI0
aF0.0
aI0
aI0
aI0
aI1
aI1
aI0
aI1
aI1
aI2
aI2
aa(lp128
V0021500873
p129
aVFEB 27, 2016
p130
aVMIL vs. DET
p131
aVL
p132
aI3
aI1
aI1
aF1.0
aI1
aI1
aF1.0
aI0
aI0
aF0.0
aI0
aI0
aI0
aI0
aI0
aI0
aI0
aI1
aI3
aI3
aa(lp133
V0021500919
p134
aVMAR 04, 2016
p135
aVMIL vs. MIN
p136
aVW
p137
aI7
aI0
aI1
aF0.0
aI0
aI0
aF0.0
aI0
aI0
aF0.0
aI0
aI1
aI1
aI1
aI0
aI0
aI0
aI0
aI0
aI-6
aa(lp138
V0021500930
p139
aVMAR 06, 2016
p140
aVMIL vs. OKC
p141
aVL
p142
aI7
aI1
aI5
aF0.2
aI0
aI1
aF0.0
aI1
aI2
aF0.5
aI0
aI0
aI0
aI2
aI2
aI0
aI0
aI0
aI3
aI-2
aa(lp143
V0021500952
p144
aVMAR 09, 2016
p145
aVMIL vs. MIA
p146
aVW
p147
aI26
aI3
aI7
aF0.429
aI1
aI1
aF1.0
aI1
aI2
aF0.5
aI0
aI0
aI0
aI5
aI0
aI0
aI1
aI2
aI8
aI6
aa(lp148
V0021500978
p149
aVMAR 12, 2016
p150
aVMIL vs. NOP
p151
aVW
p152
aI8
aI4
aI6
aF0.667
aI1
aI2
aF0.5
aI1
aI1
aF1.0
aI0
aI2
aI2
aI1
aI0
aI0
aI2
aI0
aI10
aI-4
aa(lp153
V0021500985
p154
aVMAR 13, 2016
p155
aVMIL @ BKN
p156
aVW
p157
aI15
aI1
aI3
aF0.333
aI0
aI1
aF0.0
aI0
aI0
aF0.0
aI0
aI1
aI1
aI1
aI0
aI0
aI0
aI1
aI2
aI-2
aa(lp158
V0021501000
p159
aVMAR 15, 2016
p160
aVMIL vs. TOR
p161
aVL
p162
aI28
aI4
aI8
aF0.5
aI0
aI2
aF0.0
aI2
aI3
aF0.667
aI1
aI3
aI4
aI3
aI0
aI0
aI1
aI2
aI10
aI-13
aa(lp163
V0021501017
p164
aVMAR 17, 2016
p165
aVMIL vs. MEM
p166
aVW
p167
aI23
aI6
aI10
aF0.6
aI0
aI0
aF0.0
aI1
aI1
aF1.0
aI1
aI4
aI5
aI3
aI1
aI0
aI0
aI2
aI13
aI11
aa(lp168
V0021501041
p169
aVMAR 20, 2016
p170
aVMIL vs. UTA
p171
aVL
p172
aI20
aI2
aI4
aF0.5
aI1
aI1
aF1.0
aI0
aI0
aF0.0
aI0
aI2
aI2
aI6
aI2
aI0
aI2
aI2
aI5
aI6
aa(lp173
V0021501047
p174
aVMAR 21, 2016
p175
aVMIL @ DET
p176
aVL
p177
aI11
aI2
aI5
aF0.4
aI0
aI0
aF0.0
aI0
aI0
aF0.0
aI0
aI1
aI1
aI1
aI1
aI0
aI1
aI2
aI4
aI-4
aa(lp178
V0021501059
p179
aVMAR 23, 2016
p180
aVMIL @ CLE
p181
aVL
p182
aI15
aI2
aI6
aF0.333
aI1
aI1
aF1.0
aI0
aI0
aF0.0
aI0
aI2
aI2
aI0
aI0
aI0
aI1
aI2
aI5
aI-3
aa(lp183
V0021501076
p184
aVMAR 25, 2016
p185
aVMIL @ ATL
p186
aVL
p187
aI13
aI3
aI7
aF0.429
aI0
aI1
aF0.0
aI1
aI2
aF0.5
aI2
aI0
aI2
aI2
aI0
aI0
aI1
aI4
aI7
aI-6
aa(lp188
V0021501089
p189
aVMAR 26, 2016
p190
aVMIL vs. CHA
p191
aVL
p192
aI28
aI4
aI10
aF0.4
aI1
aI4
aF0.25
aI0
aI0
aF0.0
aI0
aI4
aI4
aI12
aI1
aI0
aI2
aI0
aI9
aI-2
aa(lp193
V0021501115
p194
aVMAR 30, 2016
p195
aVMIL vs. PHX
p196
aVW
p197
aI23
aI4
aI7
aF0.571
aI0
aI2
aF0.0
aI2
aI2
aF1.0
aI3
aI1
aI4
aI0
aI0
aI0
aI1
aI2
aI10
aI-1
aa(lp198
V0021501133
p199
aVAPR 01, 2016
p200
aVMIL vs. ORL
p201
aVW
p202
aI26
aI5
aI9
aF0.556
aI2
aI3
aF0.667
aI3
aI4
aF0.75
aI1
aI1
aI2
aI1
aI2
aI0
aI2
aI2
aI15
aI-6
aa(lp203
V0021501150
p204
aVAPR 03, 2016
p205
aVMIL vs. CHI
p206
aVL
p207
aI31
aI3
aI7
aF0.429
aI0
aI1
aF0.0
aI1
aI1
aF1.0
aI0
aI4
aI4
aI8
aI2
aI0
aI4
aI3
aI7
aI-3
aa(lp208
V0021501159
p209
aVAPR 05, 2016
p210
aVMIL vs. CLE
p211
aVL
p212
aI28
aI2
aI4
aF0.5
aI0
aI0
aF0.0
aI0
aI0
aF0.0
aI0
aI4
aI4
aI2
aI2
aI0
aI2
aI3
aI4
aI-15
aa(lp213
V0021501181
p214
aVAPR 08, 2016
p215
aVMIL @ BOS
p216
aVL
p217
aI38
aI3
aI11
aF0.273
aI0
aI1
aF0.0
aI3
aI4
aF0.75
aI2
aI4
aI6
aI11
aI2
aI0
aI3
aI4
aI9
aI0
aa(lp218
V0021501197
p219
aVAPR 10, 2016
p220
aVMIL @ PHI
p221
aVW
p222
aI39
aI2
aI5
aF0.4
aI0
aI2
aF0.0
aI0
aI0
aF0.0
aI0
aI3
aI3
aI4
aI0
aI0
aI2
aI3
aI4
aI-8
aa(lp223
V0021501204
p224
aVAPR 11, 2016
p225
aVMIL @ ORL
p226
aVL
p227
aI24
aI5
aI6
aF0.833
aI0
aI0
aF0.0
aI0
aI0
aF0.0
aI0
aI2
aI2
aI2
aI0
aI0
aI3
aI3
aI10
aI4
aa(lp228
V0021501225
p229
aVAPR 13, 2016
p230
aVMIL vs. IND
p231
aVL
p232
aI29
aI2
aI3
aF0.667
aI1
aI1
aF1.0
aI0
aI0
aF0.0
aI0
aI2
aI2
aI5
aI3
aI0
aI3
aI2
aI5
aI13
aasS'name'
p233
VTyler Ennis
p234
sS'weight'
p235
V194
p236
sS'age'
p237
I21
sS'experience'
p238
I1
sS'height'
p239
V6-3
p240
sS'position'
p241
VGuard
p242
s.