(dp0
S'stats'
p1
(lp2
(lp3
V0021500014
p4
aVOCT 28, 2015
p5
aVDAL @ PHX
p6
aVW
p7
aI23
aI3
aI8
aF0.375
aI0
aI3
aF0.0
aI4
aI7
aF0.571
aI0
aI1
aI1
aI2
aI1
aI0
aI2
aI1
aI10
aI3
aa(lp8
V0021500020
p9
aVOCT 29, 2015
p10
aVDAL @ LAC
p11
aVL
p12
aI23
aI4
aI10
aF0.4
aI2
aI6
aF0.333
aI2
aI3
aF0.667
aI1
aI5
aI6
aI2
aI0
aI0
aI0
aI3
aI12
aI-2
aa(lp13
V0021500045
p14
aVNOV 01, 2015
p15
aVDAL @ LAL
p16
aVW
p17
aI22
aI3
aI10
aF0.3
aI1
aI4
aF0.25
aI0
aI0
aF0.0
aI0
aI3
aI3
aI2
aI2
aI0
aI1
aI3
aI7
aI6
aa(lp18
V0021500057
p19
aVNOV 03, 2015
p20
aVDAL vs. TOR
p21
aVL
p22
aI24
aI3
aI8
aF0.375
aI0
aI3
aF0.0
aI3
aI6
aF0.5
aI2
aI4
aI6
aI1
aI1
aI2
aI1
aI2
aI9
aI-10
aa(lp23
V0021500072
p24
aVNOV 05, 2015
p25
aVDAL vs. CHA
p26
aVL
p27
aI20
aI0
aI3
aF0.0
aI0
aI1
aF0.0
aI0
aI0
aF0.0
aI0
aI1
aI1
aI1
aI1
aI0
aI3
aI1
aI0
aI-5
aa(lp28
V0021500088
p29
aVNOV 07, 2015
p30
aVDAL vs. NOP
p31
aVW
p32
aI24
aI2
aI5
aF0.4
aI0
aI2
aF0.0
aI2
aI3
aF0.667
aI0
aI2
aI2
aI6
aI2
aI0
aI1
aI3
aI6
aI13
aa(lp33
V0021500112
p34
aVNOV 10, 2015
p35
aVDAL @ NOP
p36
aVL
p37
aI19
aI3
aI7
aF0.429
aI0
aI1
aF0.0
aI2
aI3
aF0.667
aI1
aI2
aI3
aI1
aI1
aI1
aI0
aI1
aI8
aI-2
aa(lp38
V0021500118
p39
aVNOV 11, 2015
p40
aVDAL vs. LAC
p41
aVW
p42
aI26
aI2
aI6
aF0.333
aI1
aI4
aF0.25
aI2
aI4
aF0.5
aI0
aI1
aI1
aI1
aI2
aI0
aI0
aI3
aI7
aI-17
aa(lp43
V0021500135
p44
aVNOV 13, 2015
p45
aVDAL vs. LAL
p46
aVW
p47
aI24
aI2
aI9
aF0.222
aI1
aI4
aF0.25
aI4
aI6
aF0.667
aI0
aI3
aI3
aI4
aI0
aI2
aI0
aI1
aI9
aI20
aa(lp48
V0021500140
p49
aVNOV 14, 2015
p50
aVDAL @ HOU
p51
aVW
p52
aI29
aI7
aI11
aF0.636
aI0
aI3
aF0.0
aI1
aI1
aF1.0
aI0
aI4
aI4
aI2
aI1
aI0
aI0
aI4
aI15
aI6
aa(lp53
V0021500152
p54
aVNOV 16, 2015
p55
aVDAL @ PHI
p56
aVW
p57
aI23
aI3
aI7
aF0.429
aI0
aI1
aF0.0
aI3
aI4
aF0.75
aI0
aI3
aI3
aI2
aI4
aI0
aI3
aI2
aI9
aI-3
aa(lp58
V0021500168
p59
aVNOV 18, 2015
p60
aVDAL @ BOS
p61
aVW
p62
aI16
aI2
aI3
aF0.667
aI1
aI1
aF1.0
aI0
aI0
aF0.0
aI0
aI2
aI2
aI3
aI0
aI1
aI1
aI1
aI5
aI-14
aa(lp63
V0021500184
p64
aVNOV 20, 2015
p65
aVDAL vs. UTA
p66
aVW
p67
aI17
aI1
aI4
aF0.25
aI0
aI2
aF0.0
aI0
aI0
aF0.0
aI1
aI0
aI1
aI1
aI2
aI0
aI0
aI1
aI2
aI-13
aa(lp68
V0021500199
p69
aVNOV 22, 2015
p70
aVDAL @ OKC
p71
aVL
p72
aI22
aI1
aI4
aF0.25
aI0
aI1
aF0.0
aI1
aI2
aF0.5
aI0
aI1
aI1
aI5
aI2
aI0
aI2
aI2
aI3
aI-19
aa(lp73
V0021500224
p74
aVNOV 25, 2015
p75
aVDAL @ SAS
p76
aVL
p77
aI16
aI4
aI5
aF0.8
aI1
aI2
aF0.5
aI2
aI3
aF0.667
aI1
aI2
aI3
aI0
aI0
aI0
aI2
aI6
aI11
aI0
aa(lp78
V0021500241
p79
aVNOV 28, 2015
p80
aVDAL vs. DEN
p81
aVW
p82
aI20
aI3
aI6
aF0.5
aI0
aI0
aF0.0
aI0
aI0
aF0.0
aI1
aI1
aI2
aI1
aI0
aI0
aI1
aI0
aI6
aI5
aa(lp83
V0021500260
p84
aVNOV 30, 2015
p85
aVDAL @ SAC
p86
aVL
p87
aI25
aI3
aI5
aF0.6
aI1
aI3
aF0.333
aI4
aI4
aF1.0
aI0
aI1
aI1
aI2
aI1
aI0
aI0
aI5
aI11
aI-9
aa(lp88
V0021500267
p89
aVDEC 01, 2015
p90
aVDAL @ POR
p91
aVW
p92
aI24
aI1
aI2
aF0.5
aI0
aI0
aF0.0
aI0
aI0
aF0.0
aI0
aI2
aI2
aI1
aI0
aI0
aI4
aI2
aI2
aI-20
aa(lp93
V0021500287
p94
aVDEC 04, 2015
p95
aVDAL vs. HOU
p96
aVL
p97
aI20
aI6
aI7
aF0.857
aI1
aI1
aF1.0
aI2
aI3
aF0.667
aI0
aI1
aI1
aI0
aI0
aI0
aI1
aI2
aI15
aI-3
aa(lp98
V0021500302
p99
aVDEC 06, 2015
p100
aVDAL @ WAS
p101
aVW
p102
aI9
aI3
aI4
aF0.75
aI0
aI0
aF0.0
aI1
aI1
aF1.0
aI0
aI1
aI1
aI0
aI0
aI0
aI1
aI1
aI7
aI0
aa(lp103
V0021500328
p104
aVDEC 09, 2015
p105
aVDAL vs. ATL
p106
aVL
p107
aI11
aI1
aI1
aF1.0
aI0
aI0
aF0.0
aI2
aI3
aF0.667
aI0
aI0
aI0
aI0
aI0
aI0
aI0
aI1
aI4
aI-10
aa(lp108
V0021500350
p109
aVDEC 12, 2015
p110
aVDAL vs. WAS
p111
aVL
p112
aI34
aI3
aI8
aF0.375
aI1
aI3
aF0.333
aI3
aI4
aF0.75
aI1
aI3
aI4
aI4
aI0
aI1
aI1
aI3
aI10
aI7
aa(lp113
V0021500363
p114
aVDEC 14, 2015
p115
aVDAL vs. PHX
p116
aVW
p117
aI23
aI5
aI8
aF0.625
aI2
aI3
aF0.667
aI0
aI2
aF0.0
aI0
aI1
aI1
aI2
aI6
aI0
aI0
aI3
aI12
aI1
aa(lp118
V0021500371
p119
aVDEC 16, 2015
p120
aVDAL @ IND
p121
aVL
p122
aI6
aI1
aI1
aF1.0
aI1
aI1
aF1.0
aI2
aI2
aF1.0
aI0
aI0
aI0
aI0
aI0
aI0
aI0
aI1
aI5
aI4
aa(lp123
V0021500449
p124
aVDEC 26, 2015
p125
aVDAL vs. CHI
p126
aVW
p127
aI18
aI2
aI8
aF0.25
aI1
aI2
aF0.5
aI2
aI3
aF0.667
aI2
aI1
aI3
aI4
aI3
aI0
aI2
aI3
aI7
aI-5
aa(lp128
V0021500464
p129
aVDEC 28, 2015
p130
aVDAL vs. MIL
p131
aVW
p132
aI22
aI1
aI5
aF0.2
aI0
aI0
aF0.0
aI1
aI2
aF0.5
aI0
aI2
aI2
aI3
aI2
aI0
aI0
aI1
aI3
aI6
aa(lp133
V0021500480
p134
aVDEC 30, 2015
p135
aVDAL vs. GSW
p136
aVW
p137
aI20
aI5
aI6
aF0.833
aI1
aI1
aF1.0
aI2
aI2
aF1.0
aI0
aI1
aI1
aI1
aI0
aI0
aI1
aI3
aI13
aI9
aa(lp138
V0021500491
p139
aVJAN 01, 2016
p140
aVDAL @ MIA
p141
aVL
p142
aI3
aI0
aI0
aF0.0
aI0
aI0
aF0.0
aI0
aI0
aF0.0
aI0
aI0
aI0
aI0
aI0
aI0
aI1
aI1
aI0
aI-2
aa(lp143
V0021500523
p144
aVJAN 05, 2016
p145
aVDAL vs. SAC
p146
aVW
p147
aI17
aI2
aI4
aF0.5
aI1
aI2
aF0.5
aI0
aI0
aF0.0
aI1
aI2
aI3
aI2
aI1
aI0
aI0
aI1
aI5
aI3
aa(lp148
V0021500531
p149
aVJAN 06, 2016
p150
aVDAL @ NOP
p151
aVW
p152
aI26
aI4
aI8
aF0.5
aI1
aI3
aF0.333
aI1
aI2
aF0.5
aI0
aI6
aI6
aI4
aI2
aI0
aI1
aI3
aI10
aI20
aa(lp153
V0021500545
p154
aVJAN 08, 2016
p155
aVDAL @ MIL
p156
aVL
p157
aI19
aI7
aI12
aF0.583
aI3
aI7
aF0.429
aI2
aI2
aF1.0
aI0
aI2
aI2
aI3
aI0
aI0
aI1
aI1
aI19
aI-10
aa(lp158
V0021500557
p159
aVJAN 10, 2016
p160
aVDAL @ MIN
p161
aVW
p162
aI19
aI1
aI4
aF0.25
aI0
aI2
aF0.0
aI3
aI6
aF0.5
aI1
aI1
aI2
aI3
aI2
aI0
aI2
aI1
aI5
aI10
aa(lp163
V0021500575
p164
aVJAN 12, 2016
p165
aVDAL vs. CLE
p166
aVL
p167
aI19
aI2
aI6
aF0.333
aI1
aI3
aF0.333
aI0
aI0
aF0.0
aI0
aI0
aI0
aI4
aI1
aI0
aI0
aI2
aI5
aI-19
aa(lp168
V0021500582
p169
aVJAN 13, 2016
p170
aVDAL @ OKC
p171
aVL
p172
aI9
aI1
aI3
aF0.333
aI0
aI1
aF0.0
aI0
aI0
aF0.0
aI0
aI0
aI0
aI1
aI0
aI0
aI1
aI0
aI2
aI-5
aa(lp173
V0021500597
p174
aVJAN 15, 2016
p175
aVDAL @ CHI
p176
aVW
p177
aI14
aI1
aI3
aF0.333
aI1
aI1
aF1.0
aI2
aI2
aF1.0
aI1
aI2
aI3
aI2
aI0
aI0
aI1
aI3
aI5
aI5
aa(lp178
V0021500612
p179
aVJAN 17, 2016
p180
aVDAL @ SAS
p181
aVL
p182
aI16
aI2
aI4
aF0.5
aI2
aI3
aF0.667
aI0
aI0
aF0.0
aI0
aI1
aI1
aI2
aI0
aI0
aI0
aI1
aI6
aI-8
aa(lp183
V0021500623
p184
aVJAN 18, 2016
p185
aVDAL vs. BOS
p186
aVW
p187
aI21
aI3
aI5
aF0.6
aI3
aI4
aF0.75
aI0
aI0
aF0.0
aI0
aI1
aI1
aI2
aI0
aI0
aI0
aI4
aI9
aI-15
aa(lp188
V0021500637
p189
aVJAN 20, 2016
p190
aVDAL vs. MIN
p191
aVW
p192
aI33
aI5
aI10
aF0.5
aI0
aI2
aF0.0
aI5
aI6
aF0.833
aI0
aI4
aI4
aI4
aI1
aI0
aI1
aI2
aI15
aI16
aa(lp193
V0021500651
p194
aVJAN 22, 2016
p195
aVDAL vs. OKC
p196
aVL
p197
aI18
aI2
aI6
aF0.333
aI1
aI3
aF0.333
aI2
aI2
aF1.0
aI0
aI1
aI1
aI3
aI0
aI1
aI1
aI1
aI7
aI-22
aa(lp198
V0021500665
p199
aVJAN 24, 2016
p200
aVDAL @ HOU
p201
aVL
p202
aI10
aI0
aI0
aF0.0
aI0
aI0
aF0.0
aI0
aI0
aF0.0
aI0
aI3
aI3
aI2
aI0
aI0
aI2
aI1
aI0
aI15
aa(lp203
V0021500830
p204
aVFEB 21, 2016
p205
aVDAL vs. PHI
p206
aVW
p207
aI17
aI2
aI5
aF0.4
aI1
aI3
aF0.333
aI3
aI4
aF0.75
aI1
aI2
aI3
aI2
aI0
aI0
aI1
aI1
aI8
aI0
aa(lp208
V0021500852
p209
aVFEB 24, 2016
p210
aVDAL vs. OKC
p211
aVL
p212
aI14
aI2
aI5
aF0.4
aI0
aI1
aF0.0
aI2
aI4
aF0.5
aI0
aI0
aI0
aI0
aI3
aI0
aI1
aI2
aI6
aI-9
aa(lp213
V0021500866
p214
aVFEB 26, 2016
p215
aVDAL vs. DEN
p216
aVW
p217
aI22
aI2
aI6
aF0.333
aI0
aI2
aF0.0
aI5
aI5
aF1.0
aI0
aI2
aI2
aI2
aI3
aI0
aI3
aI2
aI9
aI-13
aa(lp218
V0021500882
p219
aVFEB 28, 2016
p220
aVDAL vs. MIN
p221
aVW
p222
aI17
aI2
aI4
aF0.5
aI1
aI2
aF0.5
aI0
aI0
aF0.0
aI0
aI0
aI0
aI3
aI1
aI0
aI0
aI2
aI5
aI11
aa(lp223
V0021500894
p224
aVMAR 01, 2016
p225
aVDAL vs. ORL
p226
aVW
p227
aI16
aI3
aI3
aF1.0
aI1
aI1
aF1.0
aI0
aI0
aF0.0
aI0
aI1
aI1
aI1
aI0
aI0
aI1
aI2
aI7
aI11
aa(lp228
V0021500910
p229
aVMAR 03, 2016
p230
aVDAL vs. SAC
p231
aVL
p232
aI12
aI3
aI7
aF0.429
aI1
aI4
aF0.25
aI0
aI0
aF0.0
aI0
aI1
aI1
aI0
aI0
aI0
aI1
aI2
aI7
aI-7
aa(lp233
V0021500933
p234
aVMAR 06, 2016
p235
aVDAL @ DEN
p236
aVL
p237
aI19
aI1
aI4
aF0.25
aI1
aI3
aF0.333
aI1
aI2
aF0.5
aI2
aI2
aI4
aI3
aI0
aI1
aI0
aI0
aI4
aI21
aa(lp238
V0021500942
p239
aVMAR 07, 2016
p240
aVDAL vs. LAC
p241
aVL
p242
aI15
aI1
aI1
aF1.0
aI0
aI0
aF0.0
aI1
aI2
aF0.5
aI0
aI1
aI1
aI1
aI0
aI0
aI0
aI1
aI3
aI-15
aa(lp243
V0021500954
p244
aVMAR 09, 2016
p245
aVDAL vs. DET
p246
aVL
p247
aI11
aI1
aI4
aF0.25
aI0
aI2
aF0.0
aI0
aI0
aF0.0
aI0
aI1
aI1
aI3
aI0
aI0
aI1
aI1
aI2
aI-7
aa(lp248
V0021500973
p249
aVMAR 12, 2016
p250
aVDAL vs. IND
p251
aVL
p252
aI17
aI1
aI5
aF0.2
aI0
aI3
aF0.0
aI3
aI4
aF0.75
aI0
aI1
aI1
aI1
aI0
aI0
aI1
aI2
aI5
aI-3
aa(lp253
V0021500988
p254
aVMAR 14, 2016
p255
aVDAL @ CHA
p256
aVW
p257
aI21
aI5
aI8
aF0.625
aI0
aI2
aF0.0
aI2
aI2
aF1.0
aI0
aI2
aI2
aI1
aI1
aI0
aI2
aI3
aI12
aI-8
aa(lp258
V0021501005
p259
aVMAR 16, 2016
p260
aVDAL @ CLE
p261
aVL
p262
aI28
aI2
aI6
aF0.333
aI2
aI3
aF0.667
aI0
aI0
aF0.0
aI0
aI6
aI6
aI0
aI1
aI2
aI1
aI3
aI6
aI-1
aa(lp263
V0021501026
p264
aVMAR 18, 2016
p265
aVDAL vs. GSW
p266
aVL
p267
aI20
aI2
aI7
aF0.286
aI0
aI2
aF0.0
aI4
aI4
aF1.0
aI0
aI2
aI2
aI0
aI0
aI1
aI2
aI2
aI8
aI-18
aa(lp268
V0021501037
p269
aVMAR 20, 2016
p270
aVDAL vs. POR
p271
aVW
p272
aI21
aI2
aI2
aF1.0
aI1
aI1
aF1.0
aI0
aI0
aF0.0
aI0
aI3
aI3
aI2
aI0
aI0
aI1
aI1
aI5
aI-11
aa(lp273
V0021501067
p274
aVMAR 23, 2016
p275
aVDAL @ POR
p276
aVL
p277
aI20
aI5
aI8
aF0.625
aI1
aI3
aF0.333
aI0
aI0
aF0.0
aI0
aI4
aI4
aI0
aI2
aI0
aI1
aI3
aI11
aI-3
aa(lp278
V0021501095
p279
aVMAR 27, 2016
p280
aVDAL @ SAC
p281
aVL
p282
aI21
aI3
aI5
aF0.6
aI2
aI4
aF0.5
aI3
aI4
aF0.75
aI0
aI3
aI3
aI4
aI3
aI0
aI0
aI4
aI11
aI-10
aa(lp283
V0021501103
p284
aVMAR 28, 2016
p285
aVDAL @ DEN
p286
aVW
p287
aI29
aI3
aI10
aF0.3
aI2
aI8
aF0.25
aI4
aI4
aF1.0
aI1
aI2
aI3
aI3
aI3
aI1
aI0
aI0
aI12
aI14
aa(lp288
V0021501117
p289
aVMAR 30, 2016
p290
aVDAL vs. NYK
p291
aVW
p292
aI25
aI3
aI7
aF0.429
aI0
aI1
aF0.0
aI0
aI0
aF0.0
aI0
aI0
aI0
aI1
aI0
aI0
aI2
aI0
aI6
aI12
aa(lp293
V0021501129
p294
aVAPR 01, 2016
p295
aVDAL @ DET
p296
aVW
p297
aI28
aI5
aI10
aF0.5
aI1
aI4
aF0.25
aI2
aI2
aF1.0
aI0
aI2
aI2
aI3
aI0
aI0
aI2
aI4
aI13
aI5
aa(lp298
V0021501146
p299
aVAPR 03, 2016
p300
aVDAL @ MIN
p301
aVW
p302
aI31
aI5
aI13
aF0.385
aI3
aI6
aF0.5
aI3
aI4
aF0.75
aI0
aI2
aI2
aI3
aI2
aI0
aI0
aI1
aI16
aI16
aa(lp303
V0021501170
p304
aVAPR 06, 2016
p305
aVDAL vs. HOU
p306
aVW
p307
aI31
aI3
aI12
aF0.25
aI2
aI9
aF0.222
aI2
aI2
aF1.0
aI0
aI4
aI4
aI1
aI0
aI0
aI2
aI2
aI10
aI1
aa(lp308
V0021501185
p309
aVAPR 08, 2016
p310
aVDAL vs. MEM
p311
aVW
p312
aI26
aI4
aI7
aF0.571
aI3
aI5
aF0.6
aI5
aI7
aF0.714
aI0
aI4
aI4
aI0
aI1
aI0
aI6
aI3
aI16
aI-8
aa(lp313
V0021501196
p314
aVAPR 10, 2016
p315
aVDAL @ LAC
p316
aVL
p317
aI25
aI3
aI7
aF0.429
aI2
aI5
aF0.4
aI0
aI0
aF0.0
aI0
aI3
aI3
aI1
aI1
aI0
aI0
aI3
aI8
aI2
aa(lp318
V0021501210
p319
aVAPR 11, 2016
p320
aVDAL @ UTA
p321
aVW
p322
aI7
aI0
aI2
aF0.0
aI0
aI1
aF0.0
aI1
aI2
aF0.5
aI1
aI1
aI2
aI0
aI1
aI0
aI0
aI0
aI1
aI-3
aasS'name'
p323
VDevin Harris
p324
sS'weight'
p325
V185
p326
sS'age'
p327
I32
sS'experience'
p328
I11
sS'height'
p329
V6-3
p330
sS'position'
p331
VGuard
p332
s.