cnumpy.core.multiarray
_reconstruct
p0
(cnumpy
ndarray
p1
(I0
tp2
S'b'
p3
tp4
Rp5
(I1
(I452
tp6
cnumpy
dtype
p7
(S'O8'
p8
I0
I1
tp9
Rp10
(I3
S'|'
p11
NNNI-1
I-1
I63
tp12
bI00
(lp13
(lp14
F4.333333333333333
aF0.16666666666666666
aF1.1666666666666667
aF0.0555
aF0.0
aF0.6666666666666666
aF0.0
aF0.0
aF0.0
aF0.0
aF0.3333333333333333
aF0.0
aF0.3333333333333333
aF0.0
aF0.16666666666666666
aF0.0
aF0.16666666666666666
aF0.3333333333333333
aF0.3333333333333333
aF-3.6666666666666665
aF0.3333333333333333
aI5
aI26
aa(lp15
F33.02127659574468
aF4.404255319148936
aF8.319148936170214
aF0.5194468085106384
aF0.0
aF0.02127659574468085
aF0.0
aF2.9148936170212765
aF3.9574468085106385
aF0.5829574468085106
aF3.723404255319149
aF6.659574468085107
aF10.382978723404255
aF2.234042553191489
aF1.0212765957446808
aF1.446808510638298
aF1.8936170212765957
aF3.297872340425532
aF11.72340425531915
aF4.0
aF0.7446808510638298
aI3
aI25
aa(lp16
F0.5
aF0.0
aF0.0
aF0.0
aF0.0
aF0.0
aF0.0
aF0.0
aF0.0
aF0.0
aF0.0
aF0.0
aF0.0
aF0.0
aF0.0
aF0.0
aF0.0
aF0.0
aF0.0
aF1.0
aF0.0
aI7
aI29
aa(lp17
F31.91549295774648
aF4.197183098591549
aF7.338028169014085
aF0.5586478873239437
aF0.0
aF0.014084507042253521
aF0.0
aF2.0140845070422535
aF3.6056338028169015
aF0.5082957746478873
aF3.2253521126760565
aF6.352112676056338
aF9.577464788732394
aF0.5915492957746479
aF0.5492957746478874
aF1.7887323943661972
aF1.676056338028169
aF3.211267605633803
aF10.408450704225352
aF2.084507042253521
aF0.6056338028169014
aI6
aI28
aa(lp18
F6.083333333333333
aF0.625
aF1.5
aF0.317375
aF0.25
aF0.5833333333333334
aF0.1875
aF0.08333333333333333
aF0.08333333333333333
aF0.041666666666666664
aF0.08333333333333333
aF0.5416666666666666
aF0.625
aF0.2916666666666667
aF0.25
aF0.041666666666666664
aF0.20833333333333334
aF0.625
aF1.5833333333333333
aF-0.8333333333333334
aF0.8333333333333334
aI6
aI29
aa(lp19
F6.888888888888889
aF0.7777777777777778
aF1.5555555555555556
aF0.4444444444444444
aF0.0
aF0.0
aF0.0
aF0.2222222222222222
aF0.4444444444444444
aF0.1111111111111111
aF0.2222222222222222
aF0.8888888888888888
aF1.1111111111111112
aF0.2222222222222222
aF0.0
aF0.0
aF0.2222222222222222
aF1.3333333333333333
aF1.7777777777777777
aF-1.1111111111111112
aF0.3333333333333333
aI7
aI32
aa(lp20
F21.810344827586206
aF3.793103448275862
aF10.0
aF0.3698103448275862
aF1.206896551724138
aF4.051724137931035
aF0.2764137931034482
aF2.0689655172413794
aF2.3448275862068964
aF0.6468103448275864
aF0.3448275862068966
aF0.9827586206896551
aF1.3275862068965518
aF3.9827586206896552
aF0.5862068965517241
aF0.05172413793103448
aF1.706896551724138
aF1.9137931034482758
aF10.862068965517242
aF-2.706896551724138
aF0.43103448275862066
aI3
aI25
aa(lp21
F35.390625
aF5.6875
aF11.484375
aF0.48889062500000025
aF0.0
aF0.046875
aF0.0
aF1.5
aF3.390625
aF0.40375000000000005
aF3.078125
aF8.015625
aF11.09375
aF1.984375
aF0.6875
aF2.5625
aF1.953125
aF3.359375
aF12.875
aF0.0
aF0.421875
aI5
aI26
aa(lp22
F10.56
aF1.16
aF2.88
aF0.35668
aF0.68
aF1.68
aF0.28200000000000003
aF0.56
aF0.72
aF0.25
aF0.08
aF0.76
aF0.84
aF0.72
aF0.12
aF0.2
aF0.48
aF0.84
aF3.56
aF-1.92
aF0.68
aI0
aI21
aa(lp23
F11.948275862068966
aF1.2413793103448276
aF3.4655172413793105
aF0.29158620689655185
aF0.3275862068965517
aF1.103448275862069
aF0.17960344827586205
aF0.4827586206896552
aF0.603448275862069
aF0.23706896551724138
aF0.3620689655172414
aF0.6206896551724138
aF0.9827586206896551
aF0.9137931034482759
aF0.6724137931034483
aF0.08620689655172414
aF0.896551724137931
aF1.7413793103448276
aF3.293103448275862
aF0.27586206896551724
aF0.5344827586206896
aI5
aI27
aa(lp24
F37.911764705882355
aF5.794117647058823
aF14.205882352941176
aF0.40194117647058797
aF0.5
aF1.6764705882352942
aF0.22272058823529414
aF4.397058823529412
aF5.75
aF0.6701470588235294
aF0.5147058823529411
aF4.073529411764706
aF4.588235294117647
aF8.382352941176471
aF1.7205882352941178
aF0.5
aF3.823529411764706
aF2.573529411764706
aF16.485294117647058
aF-6.647058823529412
aF0.27941176470588236
aI0
aI20
aa(lp25
F21.054054054054053
aF2.810810810810811
aF6.135135135135135
aF0.41810810810810806
aF0.21621621621621623
aF0.8918918918918919
aF0.14413513513513515
aF1.162162162162162
aF1.7297297297297298
aF0.4022432432432433
aF0.918918918918919
aF2.7567567567567566
aF3.675675675675676
aF2.2432432432432434
aF0.8918918918918919
aF0.972972972972973
aF1.7027027027027026
aF2.4864864864864864
aF7.0
aF-1.5135135135135136
aF0.40540540540540543
aI1
aI23
aa(lp26
F18.875
aF3.09375
aF6.96875
aF0.43628125
aF1.75
aF4.21875
aF0.42106250000000006
aF0.71875
aF0.78125
aF0.375
aF0.4375
aF1.78125
aF2.21875
aF0.90625
aF0.40625
aF0.0625
aF0.53125
aF0.75
aF8.65625
aF3.90625
aF0.75
aI12
aI33
aa(lp27
F32.01724137931034
aF7.379310344827586
aF14.379310344827585
aF0.505155172413793
aF0.0
aF0.0
aF0.0
aF2.913793103448276
aF4.172413793103448
aF0.6013620689655174
aF2.2413793103448274
aF7.413793103448276
aF9.655172413793103
aF2.5
aF0.7758620689655172
aF0.3103448275862069
aF2.5172413793103448
aF3.1551724137931036
aF17.67241379310345
aF4.9655172413793105
aF0.7931034482758621
aI8
aI29
aa(lp28
F33.0375
aF4.825
aF10.5125
aF0.46060000000000006
aF0.05
aF0.45
aF0.0375
aF3.1125
aF3.65
aF0.7624125
aF1.2125
aF2.5625
aF3.775
aF7.075
aF1.425
aF0.15
aF2.45
aF2.1375
aF12.8125
aF3.3375
aF0.5875
aI11
aI34
aa(lp29
F15.583333333333334
aF1.75
aF4.0
aF0.3554583333333334
aF0.0
aF0.08333333333333333
aF0.0
aF0.75
aF1.1666666666666667
aF0.31945833333333334
aF0.6666666666666666
aF2.7083333333333335
aF3.375
aF0.7916666666666666
aF0.5416666666666666
aF0.5
aF0.9166666666666666
aF1.4166666666666667
aF4.25
aF-1.5
aF0.2916666666666667
aI0
aI23
aa(lp30
F26.20689655172414
aF1.4137931034482758
aF3.3448275862068964
aF0.3523103448275862
aF0.0
aF0.034482758620689655
aF0.0
aF1.5517241379310345
aF2.896551724137931
aF0.35358620689655174
aF3.9310344827586206
aF7.448275862068965
aF11.379310344827585
aF1.2758620689655173
aF0.9310344827586207
aF0.20689655172413793
aF1.2758620689655173
aF2.9655172413793105
aF4.379310344827586
aF-6.344827586206897
aF0.3448275862068966
aI8
aI30
aa(lp31
F15.18421052631579
aF2.0789473684210527
aF4.605263157894737
aF0.38363157894736843
aF0.23684210526315788
aF0.7894736842105263
aF0.07894736842105263
aF0.7631578947368421
aF0.9473684210526315
aF0.3337894736842105
aF0.21052631578947367
aF1.9210526315789473
aF2.1315789473684212
aF0.47368421052631576
aF0.15789473684210525
aF0.18421052631578946
aF0.7368421052631579
aF1.894736842105263
aF5.157894736842105
aF-2.1578947368421053
aF0.21052631578947367
aI5
aI28
aa(lp32
F17.037735849056602
aF2.1132075471698113
aF5.0
aF0.3495471698113207
aF0.7547169811320755
aF2.1320754716981134
aF0.273188679245283
aF0.8490566037735849
aF1.0754716981132075
aF0.26084905660377355
aF0.32075471698113206
aF2.792452830188679
aF3.1132075471698113
aF0.7924528301886793
aF0.2641509433962264
aF0.2830188679245283
aF0.8867924528301887
aF1.7924528301886793
aF5.830188679245283
aF-2.4150943396226414
aF0.4339622641509434
aI6
aI31
aa(lp33
F20.771428571428572
aF3.0285714285714285
aF7.2
aF0.35224285714285714
aF0.7
aF2.057142857142857
aF0.21854285714285718
aF2.242857142857143
aF2.8
aF0.5488142857142857
aF0.37142857142857144
aF1.9428571428571428
aF2.3142857142857145
aF3.742857142857143
aF0.5428571428571428
aF0.05714285714285714
aF1.7428571428571429
aF2.1
aF9.0
aF-3.9714285714285715
aF0.35714285714285715
aI2
aI22
aa(lp34
F5.233333333333333
aF0.9
aF1.7666666666666666
aF0.29453333333333337
aF0.0
aF0.03333333333333333
aF0.0
aF0.36666666666666664
aF0.6
aF0.12776666666666667
aF0.7666666666666667
aF1.4
aF2.1666666666666665
aF0.16666666666666666
aF0.03333333333333333
aF0.4
aF0.36666666666666664
aF0.8666666666666667
aF2.1666666666666665
aF1.2333333333333334
aF0.6
aI2
aI25
aa(lp35
F20.4375
aF3.525
aF8.0375
aF0.4245625000000001
aF0.8125
aF2.3375
aF0.33019999999999994
aF1.575
aF1.875
aF0.5339750000000001
aF0.3625
aF1.5625
aF1.925
aF3.8625
aF0.375
aF0.0125
aF1.675
aF1.7
aF9.4375
aF1.675
aF0.6875
aI4
aI26
aa(lp36
F21.1625
aF3.075
aF7.0125
aF0.39927499999999994
aF0.8375
aF2.0875
aF0.299
aF1.1375
aF1.45
aF0.4120875
aF0.6125
aF1.9375
aF2.55
aF1.225
aF0.7125
aF0.225
aF0.825
aF1.2125
aF8.125
aF-0.1375
aF0.525
aI2
aI25
aa(lp37
F34.810810810810814
aF4.0675675675675675
aF10.202702702702704
aF0.39139189189189183
aF1.1081081081081081
aF3.6621621621621623
aF0.27841891891891896
aF1.837837837837838
aF2.635135135135135
aF0.5417972972972972
aF0.8108108108108109
aF4.621621621621622
aF5.4324324324324325
aF2.175675675675676
aF1.6081081081081081
aF0.4189189189189189
aF1.554054054054054
aF2.391891891891892
aF11.08108108108108
aF0.32432432432432434
aF0.581081081081081
aI6
aI25
aa(lp38
F31.987654320987655
aF5.728395061728395
aF10.82716049382716
aF0.525543209876543
aF0.8271604938271605
aF2.1481481481481484
aF0.3384691358024691
aF2.0123456790123457
aF3.0
aF0.578395061728395
aF2.1604938271604937
aF6.506172839506172
aF8.666666666666666
aF2.9876543209876543
aF0.5802469135802469
aF0.7407407407407407
aF1.7160493827160495
aF2.4444444444444446
aF14.296296296296296
aF4.6419753086419755
aF0.691358024691358
aI11
aI31
aa(lp39
F33.794520547945204
aF6.821917808219178
aF14.273972602739725
aF0.47030136986301363
aF2.041095890410959
aF4.63013698630137
aF0.42417808219178077
aF2.8767123287671232
aF3.0821917808219177
aF0.7847260273972603
aF0.7123287671232876
aF3.164383561643836
aF3.8767123287671232
aF5.794520547945205
aF1.4931506849315068
aF0.273972602739726
aF3.0821917808219177
aF3.136986301369863
aF18.561643835616437
aF-0.4246575342465753
aF0.4383561643835616
aI1
aI22
aa(lp40
F11.714285714285714
aF1.4285714285714286
aF4.285714285714286
aF0.3088571428571429
aF0.14285714285714285
aF0.42857142857142855
aF0.07142857142857142
aF1.0
aF1.1428571428571428
aF0.35714285714285715
aF0.2857142857142857
aF0.7142857142857143
aF1.0
aF1.5714285714285714
aF0.14285714285714285
aF0.14285714285714285
aF0.7142857142857143
aF1.5714285714285714
aF4.0
aF-2.857142857142857
aF0.2857142857142857
aI2
aI26
aa(lp41
F27.583333333333332
aF3.5
aF6.833333333333333
aF0.47341666666666665
aF0.0
aF0.0
aF0.0
aF1.3333333333333333
aF1.6666666666666667
aF0.5416666666666666
aF2.4166666666666665
aF6.333333333333333
aF8.75
aF0.4166666666666667
aF0.5833333333333334
aF0.25
aF1.1666666666666667
aF3.0
aF8.333333333333334
aF4.25
aF0.6666666666666666
aI7
aI30
aa(lp42
F5.275
aF0.8
aF1.625
aF0.31272500000000003
aF0.0
aF0.0
aF0.0
aF0.425
aF0.575
aF0.15
aF0.475
aF0.6
aF1.075
aF0.175
aF0.1
aF0.25
aF0.475
aF1.175
aF2.025
aF-1.3
aF0.7
aI0
aI22
aa(lp43
F12.08695652173913
aF2.130434782608696
aF5.043478260869565
aF0.4584782608695652
aF0.08695652173913043
aF0.34782608695652173
aF0.08695652173913043
aF0.5652173913043478
aF0.6086956521739131
aF0.2608695652173913
aF0.21739130434782608
aF0.6521739130434783
aF0.8695652173913043
aF2.0869565217391304
aF0.7391304347826086
aF0.08695652173913043
aF1.2608695652173914
aF1.3043478260869565
aF4.913043478260869
aF-1.7826086956521738
aF0.5652173913043478
aI0
aI26
aa(lp44
F27.848484848484848
aF3.9393939393939394
aF9.757575757575758
aF0.39586363636363625
aF1.7878787878787878
aF4.333333333333333
aF0.3886212121212119
aF2.0
aF2.4393939393939394
aF0.5855151515151514
aF0.36363636363636365
aF2.303030303030303
aF2.6666666666666665
aF3.0
aF0.7121212121212122
aF0.2878787878787879
aF1.2121212121212122
aF2.3333333333333335
aF11.666666666666666
aF-3.0454545454545454
aF0.25757575757575757
aI4
aI24
aa(lp45
F15.551724137931034
aF1.7413793103448276
aF3.7241379310344827
aF0.4433793103448276
aF0.0
aF0.0
aF0.0
aF0.9655172413793104
aF1.2586206896551724
aF0.2607758620689655
aF1.603448275862069
aF3.086206896551724
aF4.689655172413793
aF0.5517241379310345
aF0.39655172413793105
aF0.4482758620689655
aF0.7413793103448276
aF2.1724137931034484
aF4.448275862068965
aF-0.4482758620689655
aF0.6551724137931034
aI4
aI27
aa(lp46
F27.863013698630137
aF3.6164383561643834
aF5.5479452054794525
aF0.6616164383561643
aF0.0
aF0.0
aF0.0
aF2.9315068493150687
aF4.0
aF0.6160684931506851
aF2.7945205479452055
aF6.589041095890411
aF9.383561643835616
aF0.4383561643835616
aF0.4931506849315068
aF1.095890410958904
aF1.2054794520547945
aF3.232876712328767
aF10.164383561643836
aF3.9863013698630136
aF0.726027397260274
aI9
aI28
aa(lp47
F31.209876543209877
aF6.0246913580246915
aF13.333333333333334
aF0.4436296296296297
aF1.5432098765432098
aF4.234567901234568
aF0.3403827160493827
aF2.2098765432098766
aF2.5925925925925926
aF0.638962962962963
aF0.2962962962962963
aF1.5802469135802468
aF1.876543209876543
aF4.098765432098766
aF1.1358024691358024
aF0.16049382716049382
aF2.049382716049383
aF1.7037037037037037
aF15.802469135802468
aF3.9876543209876543
aF0.691358024691358
aI11
aI33
aa(lp48
F32.93421052631579
aF4.631578947368421
aF10.68421052631579
aF0.4082368421052632
aF2.210526315789474
aF5.644736842105263
aF0.36869736842105266
aF1.144736842105263
aF1.381578947368421
aF0.45044736842105265
aF0.8552631578947368
aF5.776315789473684
aF6.631578947368421
aF1.236842105263158
aF0.6052631578947368
aF1.013157894736842
aF0.9605263157894737
aF3.526315789473684
aF12.618421052631579
aF1.2105263157894737
aF0.5
aI5
aI27
aa(lp49
F33.74074074074074
aF4.666666666666667
aF9.432098765432098
aF0.4810123456790126
aF0.9506172839506173
aF2.753086419753086
aF0.31629629629629624
aF1.037037037037037
aF1.5185185185185186
aF0.3765555555555556
aF1.2839506172839505
aF3.7777777777777777
aF5.061728395061729
aF4.049382716049383
aF0.9012345679012346
aF0.5308641975308642
aF2.0246913580246915
aF2.3333333333333335
aF11.320987654320987
aF-3.037037037037037
aF0.4074074074074074
aI7
aI28
aa(lp50
F26.271428571428572
aF4.285714285714286
aF10.514285714285714
aF0.37825714285714285
aF1.3428571428571427
aF3.6857142857142855
aF0.3281285714285714
aF1.3857142857142857
aF1.8428571428571427
aF0.4773857142857143
aF0.5
aF1.9
aF2.4
aF2.0142857142857142
aF1.0142857142857142
aF0.35714285714285715
aF1.3428571428571427
aF1.7428571428571429
aF11.3
aF1.8714285714285714
aF0.5285714285714286
aI2
aI23
aa(lp51
F19.9873417721519
aF3.8987341772151898
aF7.772151898734177
aF0.491
aF0.0
aF0.0759493670886076
aF0.0
aF1.3417721518987342
aF1.6455696202531647
aF0.47530379746835444
aF1.4177215189873418
aF2.7974683544303796
aF4.215189873417722
aF0.6329113924050633
aF0.6329113924050633
aF0.7848101265822784
aF1.0886075949367089
aF2.810126582278481
aF9.139240506329115
aF0.5189873417721519
aF0.569620253164557
aI2
aI22
aa(lp52
F37.02597402597402
aF9.584415584415584
aF19.051948051948052
aF0.5079350649350649
aF0.12987012987012986
aF0.2987012987012987
aF0.09307792207792208
aF6.116883116883117
aF7.714285714285714
aF0.7575454545454543
aF2.5454545454545454
aF5.662337662337662
aF8.207792207792208
aF2.6103896103896105
aF0.922077922077922
aF1.9350649350649352
aF3.220779220779221
aF3.5454545454545454
aF25.415584415584416
aF0.8571428571428571
aF0.5064935064935064
aI8
aI28
aa(lp53
F37.475
aF8.825
aF19.8
aF0.4483999999999999
aF1.6
aF4.775
aF0.30687499999999995
aF5.8875
aF6.8375
aF0.8313249999999999
aF1.0
aF3.075
aF4.075
aF7.775
aF1.0625
aF0.6375
aF3.475
aF1.6875
aF25.1375
aF6.3125
aF0.7625
aI2
aI22
aa(lp54
F3.0
aF0.0
aF0.0
aF0.0
aF0.0
aF0.0
aF0.0
aF2.0
aF2.0
aF0.5
aF0.0
aF0.5
aF0.5
aF0.5
aF0.5
aF0.0
aF0.0
aF1.0
aF2.0
aF5.0
aF0.5
aI7
aI29
aa(lp55
F11.886363636363637
aF1.4318181818181819
aF3.022727272727273
aF0.35295454545454547
aF0.0
aF0.0
aF0.0
aF0.8409090909090909
aF1.1818181818181819
aF0.33636363636363636
aF1.0454545454545454
aF1.7045454545454546
aF2.75
aF0.3409090909090909
aF0.3409090909090909
aF0.5681818181818182
aF0.7954545454545454
aF1.9090909090909092
aF3.7045454545454546
aF-0.9545454545454546
aF0.6136363636363636
aI0
aI24
aa(lp56
F10.672727272727272
aF0.7636363636363637
aF1.8
aF0.29227272727272724
aF0.7454545454545455
aF1.5636363636363637
aF0.32681818181818184
aF0.3090909090909091
aF0.32727272727272727
aF0.13636363636363635
aF0.18181818181818182
aF0.8363636363636363
aF1.018181818181818
aF0.6727272727272727
aF0.43636363636363634
aF0.10909090909090909
aF0.3090909090909091
aF1.4363636363636363
aF2.581818181818182
aF-0.9090909090909091
aF0.6545454545454545
aI10
aI33
aa(lp57
F12.666666666666666
aF1.6833333333333333
aF3.8333333333333335
aF0.33940000000000003
aF0.9666666666666667
aF2.5
aF0.28808333333333336
aF0.43333333333333335
aF0.6333333333333333
aF0.16528333333333334
aF0.26666666666666666
aF1.7166666666666666
aF1.9833333333333334
aF0.5333333333333333
aF0.35
aF0.1
aF0.6166666666666667
aF1.3166666666666667
aF4.766666666666667
aF1.4666666666666666
aF0.5333333333333333
aI2
aI23
aa(lp58
F14.288135593220339
aF1.88135593220339
aF4.389830508474576
aF0.3471186440677965
aF0.0
aF0.0
aF0.0
aF0.4745762711864407
aF0.847457627118644
aF0.18023728813559323
aF0.9322033898305084
aF1.9491525423728813
aF2.8813559322033897
aF0.2711864406779661
aF0.3559322033898305
aF1.1864406779661016
aF0.5932203389830508
aF1.9661016949152543
aF4.237288135593221
aF-2.6779661016949152
aF0.4576271186440678
aI0
aI22
aa(lp59
F21.180555555555557
aF2.375
aF5.791666666666667
aF0.3643194444444446
aF0.7222222222222222
aF2.2777777777777777
aF0.27059722222222216
aF0.7222222222222222
aF0.8055555555555556
aF0.2615694444444444
aF0.7222222222222222
aF1.4444444444444444
aF2.1666666666666665
aF0.6111111111111112
aF0.4444444444444444
aF0.19444444444444445
aF0.4444444444444444
aF1.7638888888888888
aF6.194444444444445
aF-3.8194444444444446
aF0.5
aI9
aI32
aa(lp60
F26.12
aF4.36
aF8.493333333333334
aF0.51448
aF0.0
aF0.02666666666666667
aF0.0
aF2.506666666666667
aF3.066666666666667
aF0.6019333333333333
aF1.76
aF3.8133333333333335
aF5.573333333333333
aF0.7466666666666667
aF0.36
aF0.68
aF1.2533333333333334
aF2.066666666666667
aF11.226666666666667
aF2.24
aF0.64
aI5
aI25
aa(lp61
F14.3
aF2.05
aF5.65
aF0.32384999999999997
aF0.3
aF1.1
aF0.12915000000000001
aF0.65
aF1.0
aF0.325
aF0.2
aF2.35
aF2.55
aF1.9
aF0.45
aF0.0
aF1.6
aF1.25
aF5.05
aF-3.45
aF0.3
aI1
aI23
aa(lp62
F12.884615384615385
aF1.7692307692307692
aF4.1923076923076925
aF0.3736153846153846
aF0.6538461538461539
aF1.4230769230769231
aF0.4102692307692308
aF0.6923076923076923
aF1.0384615384615385
aF0.24357692307692308
aF0.5
aF1.3461538461538463
aF1.8461538461538463
aF0.4230769230769231
aF0.46153846153846156
aF0.19230769230769232
aF0.6153846153846154
aF1.2692307692307692
aF4.884615384615385
aF-3.1923076923076925
aF0.46153846153846156
aI4
aI26
aa(lp63
F10.9
aF0.7333333333333333
aF2.066666666666667
aF0.21446666666666664
aF0.26666666666666666
aF0.8666666666666667
aF0.1361
aF0.16666666666666666
aF0.23333333333333334
aF0.06666666666666667
aF0.03333333333333333
aF0.9666666666666667
aF1.0
aF0.5333333333333333
aF0.3
aF0.23333333333333334
aF0.3333333333333333
aF1.0333333333333334
aF1.9
aF-2.966666666666667
aF0.4
aI7
aI27
aa(lp64
F8.763636363636364
aF0.9818181818181818
aF1.7636363636363637
aF0.4085636363636364
aF0.0
aF0.03636363636363636
aF0.0
aF1.1454545454545455
aF1.490909090909091
aF0.3372545454545454
aF0.7636363636363637
aF1.4
aF2.1636363636363636
aF0.14545454545454545
aF0.2545454545454545
aF0.2727272727272727
aF0.43636363636363634
aF1.9090909090909092
aF3.109090909090909
aF1.0363636363636364
aF0.6909090909090909
aI3
aI24
aa(lp65
F17.0625
aF1.6666666666666667
aF4.854166666666667
aF0.2953125
aF1.375
aF4.270833333333333
aF0.28458333333333335
aF0.22916666666666666
aF0.2916666666666667
aF0.10764583333333333
aF0.20833333333333334
aF2.8125
aF3.0208333333333335
aF0.6875
aF0.5
aF0.125
aF0.4791666666666667
aF2.0625
aF4.9375
aF-0.1875
aF0.3958333333333333
aI11
aI33
aa(lp66
F5.0
aF0.5882352941176471
aF1.0
aF0.38235294117647056
aF0.0
aF0.17647058823529413
aF0.0
aF0.0
aF0.0
aF0.0
aF0.058823529411764705
aF0.4117647058823529
aF0.47058823529411764
aF0.35294117647058826
aF0.17647058823529413
aF0.23529411764705882
aF0.29411764705882354
aF1.0588235294117647
aF1.1764705882352942
aF-0.47058823529411764
aF0.6470588235294118
aI9
aI32
aa(lp67
F17.17391304347826
aF1.9130434782608696
aF4.086956521739131
aF0.45943478260869564
aF0.0
aF0.043478260869565216
aF0.0
aF1.1304347826086956
aF1.565217391304348
aF0.4746521739130435
aF0.8695652173913043
aF2.391304347826087
aF3.260869565217391
aF0.4782608695652174
aF0.08695652173913043
aF1.0869565217391304
aF1.0869565217391304
aF2.652173913043478
aF4.956521739130435
aF-0.08695652173913043
aF0.5652173913043478
aI14
aI32
aa(lp68
F4.304347826086956
aF0.2608695652173913
aF1.0434782608695652
aF0.07247826086956521
aF0.043478260869565216
aF0.21739130434782608
aF0.021739130434782608
aF0.043478260869565216
aF0.08695652173913043
aF0.043478260869565216
aF0.13043478260869565
aF0.2608695652173913
aF0.391304347826087
aF0.043478260869565216
aF0.08695652173913043
aF0.043478260869565216
aF0.08695652173913043
aF0.08695652173913043
aF0.6086956521739131
aF1.2608695652173914
aF0.391304347826087
aI7
aI29
aa(lp69
F36.18987341772152
aF5.417721518987341
aF11.632911392405063
aF0.45558227848101274
aF0.8987341772151899
aF2.3037974683544302
aF0.35949367088607587
aF4.227848101265823
aF4.822784810126582
aF0.792392405063291
aF0.4810126582278481
aF3.6455696202531644
aF4.1265822784810124
aF9.79746835443038
aF2.367088607594937
aF0.06329113924050633
aF2.2025316455696204
aF2.4430379746835444
aF15.962025316455696
aF3.3797468354430378
aF0.569620253164557
aI5
aI25
aa(lp70
F10.89655172413793
aF2.0344827586206895
aF4.0
aF0.4757586206896552
aF0.0
aF0.06896551724137931
aF0.0
aF1.2413793103448276
aF2.3448275862068964
aF0.3298620689655173
aF0.7931034482758621
aF1.3448275862068966
aF2.1379310344827585
aF0.1724137931034483
aF0.3448275862068966
aF0.13793103448275862
aF0.3448275862068966
aF1.4482758620689655
aF5.310344827586207
aF-2.1379310344827585
aF0.3448275862068966
aI4
aI26
aa(lp71
F9.964285714285714
aF0.8571428571428571
aF2.017857142857143
aF0.31503571428571425
aF0.0
aF0.0
aF0.0
aF0.44642857142857145
aF0.5535714285714286
aF0.19642857142857142
aF0.6071428571428571
aF1.4642857142857142
aF2.0714285714285716
aF0.4107142857142857
aF0.17857142857142858
aF0.07142857142857142
aF0.42857142857142855
aF1.0535714285714286
aF2.1607142857142856
aF-0.05357142857142857
aF0.75
aI16
aI37
aa(lp72
F13.166666666666666
aF1.75
aF4.916666666666667
aF0.31708333333333333
aF0.4166666666666667
aF1.25
aF0.25
aF1.25
aF1.6666666666666667
aF0.44166666666666665
aF0.6666666666666666
aF1.5833333333333333
aF2.25
aF1.5
aF0.25
aF0.3333333333333333
aF0.5833333333333334
aF1.5
aF5.166666666666667
aF-2.6666666666666665
aF0.3333333333333333
aI8
aI31
aa(lp73
F34.7037037037037
aF6.555555555555555
aF14.0
aF0.4680864197530865
aF0.06172839506172839
aF0.6172839506172839
aF0.039086419753086424
aF4.012345679012346
aF4.901234567901234
aF0.7369506172839506
aF0.9259259259259259
aF2.9135802469135803
aF3.8395061728395063
aF1.7901234567901234
aF1.0246913580246915
aF0.37037037037037035
aF1.7530864197530864
aF2.6666666666666665
aF17.185185185185187
aF-4.925925925925926
aF0.2716049382716049
aI1
aI21
aa(lp74
F26.135802469135804
aF5.580246913580247
aF10.320987654320987
aF0.530716049382716
aF0.06172839506172839
aF0.25925925925925924
aF0.06172839506172839
aF1.5185185185185186
aF2.1481481481481484
aF0.4283086419753086
aF1.876543209876543
aF3.4444444444444446
aF5.320987654320987
aF1.0
aF1.1111111111111112
aF0.30864197530864196
aF1.2098765432098766
aF2.0864197530864197
aF12.74074074074074
aF1.9753086419753085
aF0.5061728395061729
aI3
aI22
aa(lp75
F30.257142857142856
aF4.514285714285714
aF9.571428571428571
aF0.48938571428571426
aF1.1428571428571428
aF2.6
aF0.39114285714285707
aF1.7285714285714286
aF1.957142857142857
aF0.6285142857142857
aF0.5142857142857142
aF2.2714285714285714
aF2.7857142857142856
aF5.328571428571428
aF1.2571428571428571
aF0.14285714285714285
aF2.257142857142857
aF2.057142857142857
aF11.9
aF-3.3857142857142857
aF0.18571428571428572
aI7
aI29
aa(lp76
F9.818181818181818
aF1.0909090909090908
aF3.4545454545454546
aF0.2391818181818182
aF0.0
aF0.45454545454545453
aF0.0
aF1.0
aF1.2727272727272727
aF0.39390909090909093
aF0.09090909090909091
aF1.5454545454545454
aF1.6363636363636365
aF1.8181818181818181
aF0.36363636363636365
aF0.0
aF1.3636363636363635
aF1.1818181818181819
aF3.1818181818181817
aF-0.2727272727272727
aF0.2727272727272727
aI0
aI20
aa(lp77
F17.589285714285715
aF3.2857142857142856
aF5.696428571428571
aF0.5266785714285712
aF0.0
aF0.017857142857142856
aF0.0
aF0.8928571428571429
aF1.5892857142857142
aF0.3055714285714286
aF1.6964285714285714
aF3.125
aF4.821428571428571
aF0.75
aF0.5
aF0.30357142857142855
aF0.75
aF2.5714285714285716
aF7.464285714285714
aF-0.16071428571428573
aF0.375
aI8
aI28
aa(lp78
F17.224137931034484
aF2.5517241379310347
aF6.293103448275862
aF0.35020689655172416
aF1.103448275862069
aF3.3620689655172415
aF0.2614310344827586
aF0.5862068965517241
aF0.7241379310344828
aF0.2341896551724138
aF0.25862068965517243
aF1.293103448275862
aF1.5517241379310345
aF1.8448275862068966
aF0.5
aF0.06896551724137931
aF1.1551724137931034
aF1.896551724137931
aF6.793103448275862
aF0.8448275862068966
aF0.7586206896551724
aI5
aI26
aa(lp79
F2.0
aF0.6666666666666666
aF1.0
aF0.5
aF0.0
aF0.0
aF0.0
aF0.0
aF0.0
aF0.0
aF0.0
aF0.0
aF0.0
aF0.0
aF0.0
aF0.0
aF0.0
aF0.3333333333333333
aF1.3333333333333333
aF2.0
aF0.6666666666666666
aI3
aI27
aa(lp80
F28.753086419753085
aF3.3333333333333335
aF8.88888888888889
aF0.37167901234567885
aF0.9259259259259259
aF3.0864197530864197
aF0.25270370370370365
aF1.6296296296296295
aF2.111111111111111
aF0.4968395061728395
aF0.654320987654321
aF3.3209876543209877
aF3.9753086419753085
aF1.037037037037037
aF0.41975308641975306
aF0.4444444444444444
aF0.8765432098765432
aF1.8271604938271604
aF9.222222222222221
aF-4.160493827160494
aF0.2962962962962963
aI7
aI26
aa(lp81
F38.717948717948715
aF9.58974358974359
aF18.76923076923077
aF0.5079230769230768
aF1.1538461538461537
aF3.5256410256410255
aF0.28170512820512805
aF6.294871794871795
aF8.320512820512821
aF0.7302179487179487
aF1.0128205128205128
aF6.423076923076923
aF7.435897435897436
aF7.012820512820513
aF1.5512820512820513
aF0.6410256410256411
aF3.551282051282051
aF2.076923076923077
aF26.628205128205128
aF7.846153846153846
aF0.717948717948718
aI7
aI26
aa(lp82
F36.93939393939394
aF5.015151515151516
aF11.318181818181818
aF0.44290909090909086
aF0.9090909090909091
aF2.727272727272727
aF0.28939393939393937
aF3.1363636363636362
aF4.5
aF0.6587878787878786
aF0.9242424242424242
aF4.893939393939394
aF5.818181818181818
aF6.348484848484849
aF1.5303030303030303
aF0.5606060606060606
aF2.0606060606060606
aF1.5909090909090908
aF14.075757575757576
aF2.5606060606060606
aF0.5303030303030303
aI6
aI26
aa(lp83
F21.15
aF3.825
aF8.15
aF0.464875
aF0.0
aF0.075
aF0.0
aF2.65
aF3.325
aF0.6949000000000001
aF1.625
aF3.825
aF5.45
aF0.725
aF0.75
aF1.625
aF1.6
aF2.8
aF10.3
aF-0.525
aF0.425
aI4
aI24
aa(lp84
F14.0
aF1.7027027027027026
aF4.216216216216216
aF0.3042702702702703
aF0.05405405405405406
aF0.4594594594594595
aF0.04054054054054054
aF0.8918918918918919
aF1.4054054054054055
aF0.28859459459459463
aF0.24324324324324326
aF0.7567567567567568
aF1.0
aF0.4864864864864865
aF0.2972972972972973
aF0.08108108108108109
aF0.35135135135135137
aF1.2972972972972974
aF4.351351351351352
aF-1.3783783783783783
aF0.5135135135135135
aI0
aI19
aa(lp85
F5.684210526315789
aF1.0
aF2.4210526315789473
aF0.3280526315789474
aF0.10526315789473684
aF0.2631578947368421
aF0.07894736842105263
aF0.9473684210526315
aF1.2105263157894737
aF0.3684210526315789
aF0.7894736842105263
aF0.5263157894736842
aF1.3157894736842106
aF0.10526315789473684
aF0.21052631578947367
aF0.2631578947368421
aF0.3157894736842105
aF0.3684210526315789
aF3.0526315789473686
aF-1.7894736842105263
aF0.7368421052631579
aI0
aI21
aa(lp86
F34.12698412698413
aF6.650793650793651
aF14.984126984126984
aF0.43684126984126986
aF0.06349206349206349
aF0.2698412698412698
aF0.047619047619047616
aF3.3968253968253967
aF4.349206349206349
aF0.691126984126984
aF2.857142857142857
aF5.380952380952381
aF8.238095238095237
aF2.2222222222222223
aF1.5238095238095237
aF0.8095238095238095
aF2.6507936507936507
aF2.873015873015873
aF16.761904761904763
aF-4.063492063492063
aF0.3333333333333333
aI5
aI24
aa(lp87
F11.396825396825397
aF2.238095238095238
aF4.492063492063492
aF0.4361428571428573
aF0.015873015873015872
aF0.06349206349206349
aF0.015873015873015872
aF0.8412698412698413
aF1.0952380952380953
aF0.36904761904761907
aF0.9841269841269841
aF2.2857142857142856
aF3.2698412698412698
aF0.4603174603174603
aF0.12698412698412698
aF0.2857142857142857
aF0.6349206349206349
aF1.873015873015873
aF5.333333333333333
aF0.8412698412698413
aF0.5238095238095238
aI2
aI23
aa(lp88
F26.272727272727273
aF3.212121212121212
aF7.5606060606060606
aF0.41612121212121206
aF1.3333333333333333
aF3.242424242424242
aF0.3763787878787878
aF1.196969696969697
aF1.5757575757575757
aF0.402530303030303
aF0.48484848484848486
aF2.787878787878788
aF3.272727272727273
aF0.9393939393939394
aF0.5909090909090909
aF0.5303030303030303
aF1.0454545454545454
aF1.606060606060606
aF8.954545454545455
aF-2.984848484848485
aF0.4090909090909091
aI2
aI25
aa(lp89
F20.984848484848484
aF3.787878787878788
aF8.393939393939394
aF0.41860606060606054
aF0.42424242424242425
aF1.1818181818181819
aF0.2159090909090909
aF4.015151515151516
aF4.833333333333333
aF0.7129848484848484
aF0.6666666666666666
aF2.9696969696969697
aF3.6363636363636362
aF1.2424242424242424
aF0.30303030303030304
aF0.07575757575757576
aF1.893939393939394
aF2.621212121212121
aF12.015151515151516
aF-1.393939393939394
aF0.36363636363636365
aI11
aI31
aa(lp90
F9.321428571428571
aF0.8214285714285714
aF2.2857142857142856
aF0.22417857142857142
aF0.0
aF0.10714285714285714
aF0.0
aF0.6428571428571429
aF0.8214285714285714
aF0.22321428571428573
aF0.35714285714285715
aF0.6785714285714286
aF1.0357142857142858
aF1.3214285714285714
aF1.1071428571428572
aF0.32142857142857145
aF0.6428571428571429
aF1.0357142857142858
aF2.2857142857142856
aF0.0
aF0.32142857142857145
aI0
aI22
aa(lp91
F17.88888888888889
aF1.5714285714285714
aF2.507936507936508
aF0.43320634920634915
aF0.0
aF0.0
aF0.0
aF0.9682539682539683
aF1.5555555555555556
aF0.3534285714285714
aF0.9841269841269841
aF2.253968253968254
aF3.238095238095238
aF1.4444444444444444
aF0.5555555555555556
aF1.1587301587301588
aF0.6507936507936508
aF2.5396825396825395
aF4.111111111111111
aF-0.15873015873015872
aF0.5079365079365079
aI5
aI27
aa(lp92
F24.275
aF3.8875
aF9.3375
aF0.3857250000000001
aF1.775
aF4.7375
aF0.33657499999999996
aF1.05
aF1.325
aF0.3643875
aF0.8125
aF2.225
aF3.0375
aF2.9875
aF1.0875
aF0.05
aF1.1
aF2.2125
aF10.6
aF1.3375
aF0.5125
aI1
aI24
aa(lp93
F32.506493506493506
aF7.1558441558441555
aF13.727272727272727
aF0.5131948051948053
aF0.3246753246753247
aF0.8961038961038961
aF0.19262337662337664
aF2.9740259740259742
aF3.857142857142857
aF0.6849220779220779
aF0.37662337662337664
aF2.6493506493506493
aF3.0259740259740258
aF6.571428571428571
aF1.1688311688311688
aF0.03896103896103896
aF2.5584415584415585
aF1.7142857142857142
aF17.61038961038961
aF4.103896103896104
aF0.7792207792207793
aI9
aI28
aa(lp94
F7.117647058823529
aF0.7647058823529411
aF2.5294117647058822
aF0.23011764705882354
aF0.0
aF0.23529411764705882
aF0.0
aF0.8235294117647058
aF1.0
aF0.2647058823529412
aF0.35294117647058826
aF1.0588235294117647
aF1.411764705882353
aF1.1176470588235294
aF0.29411764705882354
aF0.17647058823529413
aF0.5294117647058824
aF0.4117647058823529
aF2.3529411764705883
aF-1.0
aF0.5294117647058824
aI0
aI22
aa(lp95
F20.658536585365855
aF3.073170731707317
aF7.585365853658536
aF0.37907317073170715
aF0.3902439024390244
aF1.3048780487804879
aF0.19309756097560976
aF2.158536585365854
aF2.5365853658536586
aF0.6441341463414634
aF0.24390243902439024
aF1.8658536585365855
aF2.1097560975609757
aF2.8658536585365852
aF0.6585365853658537
aF0.06097560975609756
aF1.329268292682927
aF1.2195121951219512
aF8.695121951219512
aF-1.8902439024390243
aF0.47560975609756095
aI5
aI27
aa(lp96
F9.714285714285714
aF1.7142857142857142
aF3.7142857142857144
aF0.3244285714285714
aF0.5714285714285714
aF1.8571428571428572
aF0.2857142857142857
aF0.0
aF0.0
aF0.0
aF0.2857142857142857
aF1.2857142857142858
aF1.5714285714285714
aF0.2857142857142857
aF0.14285714285714285
aF0.0
aF0.5714285714285714
aF0.7142857142857143
aF4.0
aF1.4285714285714286
aF0.7142857142857143
aI1
aI23
aa(lp97
F34.96296296296296
aF7.493827160493828
aF17.049382716049383
aF0.4378395061728393
aF0.41975308641975306
aF1.2592592592592593
aF0.1962962962962963
aF6.481481481481482
aF7.716049382716049
aF0.8400617283950615
aF1.4814814814814814
aF3.1604938271604937
aF4.6419753086419755
aF8.209876543209877
aF1.876543209876543
aF0.37037037037037035
aF3.8518518518518516
aF2.54320987654321
aF21.88888888888889
aF1.1481481481481481
aF0.6790123456790124
aI2
aI22
aa(lp98
F18.253521126760564
aF1.732394366197183
aF3.0704225352112675
aF0.49705633802816906
aF0.0
aF0.014084507042253521
aF0.0
aF0.9014084507042254
aF2.492957746478873
aF0.27128169014084513
aF1.8028169014084507
aF3.3943661971830985
aF5.197183098591549
aF0.2535211267605634
aF0.22535211267605634
aF1.0422535211267605
aF0.704225352112676
aF2.0422535211267605
aF4.366197183098592
aF-0.5352112676056338
aF0.6901408450704225
aI9
aI31
aa(lp99
F10.807017543859649
aF1.105263157894737
aF2.491228070175439
aF0.4075789473684211
aF0.0
aF0.0
aF0.0
aF0.38596491228070173
aF0.543859649122807
aF0.18859649122807018
aF1.368421052631579
aF1.263157894736842
aF2.6315789473684212
aF0.17543859649122806
aF0.2982456140350877
aF0.45614035087719296
aF0.7017543859649122
aF2.1228070175438596
aF2.5964912280701755
aF-3.3684210526315788
aF0.2631578947368421
aI0
aI21
aa(lp100
F14.549019607843137
aF1.3725490196078431
aF3.4705882352941178
aF0.38172549019607827
aF0.0
aF0.0392156862745098
aF0.0
aF0.5098039215686274
aF0.6862745098039216
aF0.22386274509803922
aF1.2352941176470589
aF2.588235294117647
aF3.823529411764706
aF0.8431372549019608
aF0.19607843137254902
aF0.6470588235294118
aF0.49019607843137253
aF1.803921568627451
aF3.2549019607843137
aF-1.5686274509803921
aF0.3333333333333333
aI3
aI25
aa(lp101
F13.085714285714285
aF2.2857142857142856
aF4.142857142857143
aF0.4710571428571428
aF0.0
aF0.0
aF0.0
aF1.1142857142857143
aF1.6857142857142857
aF0.3609428571428572
aF1.1714285714285715
aF2.1142857142857143
aF3.2857142857142856
aF0.05714285714285714
aF0.05714285714285714
aF0.08571428571428572
aF0.6285714285714286
aF2.0
aF5.685714285714286
aF-1.8857142857142857
aF0.42857142857142855
aI5
aI27
aa(lp102
F6.75
aF0.8
aF2.1
aF0.217325
aF0.275
aF0.9
aF0.12250000000000001
aF0.1
aF0.2
aF0.04375
aF0.075
aF0.475
aF0.55
aF0.825
aF0.125
aF0.025
aF0.275
aF0.675
aF1.975
aF-1.05
aF0.825
aI4
aI27
aa(lp103
F28.130434782608695
aF4.521739130434782
aF11.282608695652174
aF0.3839565217391304
aF0.8260869565217391
aF2.4565217391304346
aF0.2775217391304348
aF2.5434782608695654
aF3.0
aF0.5860217391304348
aF0.5869565217391305
aF2.0217391304347827
aF2.608695652173913
aF2.6956521739130435
aF0.8043478260869565
aF0.2608695652173913
aF1.173913043478261
aF1.6304347826086956
aF12.41304347826087
aF1.6521739130434783
aF0.5217391304347826
aI4
aI26
aa(lp104
F15.0
aF1.75
aF5.25
aF0.159
aF0.75
aF1.5
aF0.15
aF1.5
aF1.5
aF0.75
aF0.25
aF1.5
aF1.75
aF1.5
aF0.25
aF0.5
aF1.75
aF0.75
aF5.75
aF-0.25
aF0.25
aI2
aI24
aa(lp105
F22.745098039215687
aF1.8431372549019607
aF3.607843137254902
aF0.4554705882352942
aF0.0196078431372549
aF0.0196078431372549
aF0.0196078431372549
aF0.39215686274509803
aF0.6274509803921569
aF0.17974509803921568
aF1.411764705882353
aF4.372549019607843
aF5.784313725490196
aF1.1176470588235294
aF0.6078431372549019
aF0.803921568627451
aF0.803921568627451
aF3.156862745098039
aF4.098039215686274
aF2.8627450980392157
aF0.7450980392156863
aI15
aI38
aa(lp106
F16.607142857142858
aF1.5
aF4.392857142857143
aF0.24830357142857143
aF0.7321428571428571
aF2.5357142857142856
aF0.19719642857142855
aF0.5892857142857143
aF0.7857142857142857
aF0.20625000000000002
aF0.6785714285714286
aF2.357142857142857
aF3.0357142857142856
aF0.625
aF0.44642857142857145
aF0.08928571428571429
aF0.5892857142857143
aF1.2678571428571428
aF4.321428571428571
aF0.8392857142857143
aF0.6428571428571429
aI10
aI30
aa(lp107
F11.8
aF0.5333333333333333
aF1.5333333333333334
aF0.2222
aF0.0
aF0.0
aF0.0
aF0.26666666666666666
aF0.6
aF0.11666666666666667
aF0.8
aF1.8
aF2.6
aF0.4666666666666667
aF0.26666666666666666
aF1.0
aF0.7333333333333333
aF1.7333333333333334
aF1.3333333333333333
aF-3.066666666666667
aF0.4
aI9
aI28
aa(lp108
F30.10126582278481
aF4.987341772151899
aF10.316455696202532
aF0.46934177215189876
aF0.5569620253164557
aF1.4303797468354431
aF0.22601265822784805
aF2.6582278481012658
aF3.2151898734177213
aF0.614987341772152
aF0.9620253164556962
aF3.2658227848101267
aF4.227848101265823
aF2.4936708860759493
aF0.810126582278481
aF0.4430379746835443
aF1.6835443037974684
aF2.2911392405063293
aF13.189873417721518
aF0.5316455696202531
aF0.4810126582278481
aI16
aI38
aa(lp109
F15.303571428571429
aF2.75
aF6.214285714285714
aF0.42180357142857144
aF0.44642857142857145
aF1.2321428571428572
aF0.1770892857142857
aF1.2321428571428572
aF1.4642857142857142
aF0.3809464285714285
aF0.26785714285714285
aF0.7142857142857143
aF0.9821428571428571
aF2.4642857142857144
aF0.6785714285714286
aF0.05357142857142857
aF0.9107142857142857
aF0.75
aF7.178571428571429
aF0.7142857142857143
aF0.39285714285714285
aI12
aI34
aa(lp110
F20.578125
aF2.15625
aF4.78125
aF0.4106249999999999
aF0.734375
aF1.78125
aF0.31206249999999996
aF1.640625
aF2.046875
aF0.5177031249999999
aF1.40625
aF3.0
aF4.40625
aF1.28125
aF0.4375
aF0.421875
aF0.734375
aF2.1875
aF6.6875
aF-1.015625
aF0.1875
aI2
aI25
aa(lp111
F27.65
aF3.9166666666666665
aF8.5
aF0.4579333333333333
aF1.6666666666666667
aF4.183333333333334
aF0.38855
aF1.6
aF2.0
aF0.4920333333333334
aF0.4666666666666667
aF4.05
aF4.516666666666667
aF1.75
aF0.6666666666666666
aF0.5
aF1.1
aF1.75
aF11.1
aF1.3833333333333333
aF0.4666666666666667
aI8
aI30
aa(lp112
F36.46052631578947
aF6.802631578947368
aF13.763157894736842
aF0.4975263157894739
aF0.07894736842105263
aF0.32894736842105265
aF0.07017105263157895
aF5.0394736842105265
aF6.184210526315789
aF0.7625921052631578
aF1.8289473684210527
aF6.4868421052631575
aF8.31578947368421
aF1.868421052631579
aF0.7763157894736842
aF0.6447368421052632
aF1.7763157894736843
aF2.1973684210526314
aF18.723684210526315
aF7.7105263157894735
aF0.7105263157894737
aI7
aI26
aa(lp113
F15.918367346938776
aF2.2857142857142856
aF6.408163265306122
aF0.3530408163265306
aF0.8163265306122449
aF2.9591836734693877
aF0.2526734693877551
aF1.0612244897959184
aF1.6122448979591837
aF0.4200612244897959
aF0.32653061224489793
aF1.1224489795918366
aF1.4489795918367347
aF2.122448979591837
aF0.5714285714285714
aF0.02040816326530612
aF1.0816326530612246
aF1.2244897959183674
aF6.448979591836735
aF0.3877551020408163
aF0.4489795918367347
aI1
aI24
aa(lp114
F18.903846153846153
aF2.076923076923077
aF5.653846153846154
aF0.3424807692307692
aF0.5961538461538461
aF1.8846153846153846
aF0.2441923076923077
aF0.6153846153846154
aF0.8076923076923077
aF0.3125
aF0.23076923076923078
aF1.25
aF1.4807692307692308
aF3.480769230769231
aF0.6538461538461539
aF0.057692307692307696
aF2.1538461538461537
aF1.1153846153846154
aF5.365384615384615
aF-3.423076923076923
aF0.19230769230769232
aI1
aI21
aa(lp115
F16.89189189189189
aF3.0945945945945947
aF5.905405405405405
aF0.494581081081081
aF0.0
aF0.013513513513513514
aF0.0
aF0.8783783783783784
aF1.4594594594594594
aF0.3331081081081081
aF1.8513513513513513
aF2.9864864864864864
aF4.837837837837838
aF0.3108108108108108
aF0.3783783783783784
aF0.7432432432432432
aF0.8918918918918919
aF2.4594594594594597
aF7.0675675675675675
aF0.36486486486486486
aF0.5405405405405406
aI12
aI33
aa(lp116
F10.953846153846154
aF1.0615384615384615
aF2.6615384615384614
aF0.3240615384615384
aF0.26153846153846155
aF0.7384615384615385
aF0.2
aF0.35384615384615387
aF0.49230769230769234
aF0.14423076923076922
aF0.3384615384615385
aF0.9538461538461539
aF1.2923076923076924
aF0.4307692307692308
aF0.24615384615384617
aF0.15384615384615385
aF0.24615384615384617
aF0.9692307692307692
aF2.7384615384615385
aF-0.7230769230769231
aF0.5384615384615384
aI0
aI22
aa(lp117
F28.07547169811321
aF4.433962264150943
aF7.735849056603773
aF0.585867924528302
aF0.0
aF0.0
aF0.0
aF2.6037735849056602
aF3.943396226415094
aF0.5965094339622642
aF3.207547169811321
aF6.30188679245283
aF9.50943396226415
aF1.3773584905660377
aF0.3584905660377358
aF1.9622641509433962
aF1.3962264150943395
aF2.641509433962264
aF11.471698113207546
aF3.6792452830188678
aF0.660377358490566
aI5
aI23
aa(lp118
F1.5
aF0.5
aF1.0
aF0.5
aF0.0
aF0.0
aF0.0
aF0.0
aF0.0
aF0.0
aF0.0
aF0.0
aF0.0
aF0.0
aF0.0
aF0.0
aF0.0
aF0.0
aF1.0
aF1.5
aF0.0
aI5
aI28
aa(lp119
F32.61643835616438
aF7.684931506849315
aF15.315068493150685
aF0.49571232876712346
aF0.0
aF0.0410958904109589
aF0.0
aF2.9315068493150687
aF3.9726027397260273
aF0.6329589041095891
aF1.9726027397260273
aF6.191780821917808
aF8.164383561643836
aF2.5205479452054793
aF0.6438356164383562
aF0.6027397260273972
aF1.9726027397260273
aF3.0547945205479454
aF18.301369863013697
aF3.2739726027397262
aF0.5205479452054794
aI3
aI30
aa(lp120
F3.526315789473684
aF0.3684210526315789
aF1.2105263157894737
aF0.17542105263157895
aF0.10526315789473684
aF0.47368421052631576
aF0.07894736842105263
aF0.05263157894736842
aF0.05263157894736842
aF0.05263157894736842
aF0.0
aF0.2631578947368421
aF0.2631578947368421
aF0.42105263157894735
aF0.10526315789473684
aF0.0
aF0.21052631578947367
aF0.10526315789473684
aF0.8947368421052632
aF-1.0
aF0.42105263157894735
aI0
aI23
aa(lp121
F22.1625
aF2.5625
aF5.325
aF0.4701749999999999
aF0.075
aF0.3375
aF0.04375
aF1.0875
aF1.6625
aF0.36874999999999997
aF0.6875
aF2.5625
aF3.25
aF1.7375
aF1.325
aF0.275
aF0.675
aF1.025
aF6.2875
aF3.025
aF0.75
aI4
aI25
aa(lp122
F32.92727272727273
aF6.672727272727273
aF15.672727272727272
aF0.41616363636363635
aF1.6545454545454545
aF4.763636363636364
aF0.3307636363636363
aF3.0727272727272728
aF4.218181818181818
aF0.6256545454545455
aF1.5636363636363637
aF5.181818181818182
aF6.745454545454545
aF1.690909090909091
aF0.8909090909090909
aF0.5454545454545454
aF1.3454545454545455
aF2.4545454545454546
aF18.072727272727274
aF-6.454545454545454
aF0.16363636363636364
aI12
aI34
aa(lp123
F28.649122807017545
aF5.052631578947368
aF12.070175438596491
aF0.40349122807017535
aF1.4035087719298245
aF4.105263157894737
aF0.29094736842105257
aF1.7543859649122806
aF2.280701754385965
aF0.5840175438596491
aF0.6140350877192983
aF2.1052631578947367
aF2.719298245614035
aF6.7894736842105265
aF1.3508771929824561
aF0.49122807017543857
aF2.543859649122807
aF2.491228070175439
aF13.263157894736842
aF-0.3684210526315789
aF0.40350877192982454
aI11
aI31
aa(lp124
F16.818181818181817
aF1.4545454545454546
aF3.0
aF0.4577090909090909
aF0.0
aF0.05454545454545454
aF0.0
aF0.4909090909090909
aF0.8727272727272727
aF0.2
aF2.8545454545454545
aF3.381818181818182
aF6.236363636363636
aF0.8363636363636363
aF0.43636363636363634
aF0.5636363636363636
aF0.4727272727272727
aF2.2363636363636363
aF3.4
aF0.8727272727272727
aF0.45454545454545453
aI11
aI33
aa(lp125
F24.317073170731707
aF4.634146341463414
aF11.853658536585366
aF0.3730487804878048
aF0.8048780487804879
aF3.048780487804878
aF0.2319268292682927
aF1.7804878048780488
aF2.048780487804878
aF0.3850731707317073
aF0.7317073170731707
aF1.7804878048780488
aF2.5121951219512195
aF2.707317073170732
aF0.9512195121951219
aF0.07317073170731707
aF1.951219512195122
aF1.4878048780487805
aF11.853658536585366
aF-5.487804878048781
aF0.4146341463414634
aI0
aI22
aa(lp126
F9.848484848484848
aF1.7575757575757576
aF3.9393939393939394
aF0.4122121212121212
aF0.3333333333333333
aF0.9393939393939394
aF0.17472727272727273
aF0.24242424242424243
aF0.36363636363636365
aF0.13636363636363635
aF0.5151515151515151
aF1.8484848484848484
aF2.3636363636363638
aF0.30303030303030304
aF0.3333333333333333
aF0.5454545454545454
aF0.5151515151515151
aF2.0606060606060606
aF4.090909090909091
aF0.5151515151515151
aF0.18181818181818182
aI2
aI22
aa(lp127
F15.931506849315069
aF1.8767123287671232
aF4.328767123287672
aF0.3927534246575342
aF0.958904109589041
aF2.3698630136986303
aF0.3234931506849315
aF0.410958904109589
aF0.4657534246575342
aF0.1952054794520548
aF0.8767123287671232
aF2.0
aF2.8767123287671232
aF1.0547945205479452
aF0.6027397260273972
aF0.6027397260273972
aF0.7671232876712328
aF2.136986301369863
aF5.123287671232877
aF0.6986301369863014
aF0.4246575342465753
aI9
aI30
aa(lp128
F14.863636363636363
aF2.6515151515151514
aF5.333333333333333
aF0.43583333333333335
aF0.0
aF0.0
aF0.0
aF1.0757575757575757
aF1.4545454545454546
aF0.4102272727272728
aF1.2121212121212122
aF2.015151515151515
aF3.227272727272727
aF0.12121212121212122
aF0.2727272727272727
aF0.6818181818181818
aF0.7272727272727273
aF2.121212121212121
aF6.378787878787879
aF-0.6060606060606061
aF0.48484848484848486
aI2
aI22
aa(lp129
F23.470588235294116
aF3.411764705882353
aF9.176470588235293
aF0.3441176470588236
aF0.4117647058823529
aF1.6470588235294117
aF0.16176470588235295
aF1.7058823529411764
aF2.764705882352941
aF0.43429411764705883
aF1.0588235294117647
aF3.2941176470588234
aF4.352941176470588
aF1.411764705882353
aF0.7647058823529411
aF0.23529411764705882
aF1.1176470588235294
aF2.0
aF8.941176470588236
aF-4.411764705882353
aF0.17647058823529413
aI7
aI30
aa(lp130
F4.2727272727272725
aF0.36363636363636365
aF1.0
aF0.2727272727272727
aF0.0
aF0.0
aF0.0
aF0.18181818181818182
aF0.18181818181818182
aF0.09090909090909091
aF0.18181818181818182
aF0.5454545454545454
aF0.7272727272727273
aF0.36363636363636365
aF0.09090909090909091
aF0.09090909090909091
aF0.0
aF0.45454545454545453
aF0.9090909090909091
aF1.1818181818181819
aF0.5454545454545454
aI1
aI24
aa(lp131
F14.292682926829269
aF0.6829268292682927
aF1.975609756097561
aF0.2780487804878049
aF0.04878048780487805
aF0.21951219512195122
aF0.036585365853658534
aF0.2682926829268293
aF0.6585365853658537
aF0.12195121951219512
aF1.4634146341463414
aF1.2926829268292683
aF2.7560975609756095
aF0.8780487804878049
aF0.7317073170731707
aF0.3902439024390244
aF0.5121951219512195
aF1.8048780487804879
aF1.6829268292682926
aF2.6097560975609757
aF0.4878048780487805
aI8
aI29
aa(lp132
F10.607843137254902
aF1.392156862745098
aF3.5686274509803924
aF0.3164705882352941
aF0.7647058823529411
aF1.9411764705882353
aF0.2618823529411765
aF0.5490196078431373
aF0.7843137254901961
aF0.204
aF0.39215686274509803
aF1.0588235294117647
aF1.4509803921568627
aF0.35294117647058826
aF0.35294117647058826
aF0.09803921568627451
aF0.3137254901960784
aF1.0
aF4.098039215686274
aF0.3137254901960784
aF0.35294117647058826
aI2
aI26
aa(lp133
F11.513157894736842
aF1.644736842105263
aF3.723684210526316
aF0.4201052631578947
aF0.0
aF0.05263157894736842
aF0.0
aF0.13157894736842105
aF0.2894736842105263
aF0.06030263157894737
aF0.7631578947368421
aF1.9210526315789473
aF2.6842105263157894
aF0.5789473684210527
aF0.42105263157894735
aF0.4473684210526316
aF0.5921052631578947
aF2.3157894736842106
aF3.4210526315789473
aF-2.026315789473684
aF0.2894736842105263
aI5
aI24
aa(lp134
F34.34722222222222
aF8.333333333333334
aF16.083333333333332
aF0.5283611111111113
aF0.9027777777777778
aF2.2916666666666665
aF0.35004166666666664
aF5.333333333333333
aF5.986111111111111
aF0.8351388888888889
aF0.6805555555555556
aF6.361111111111111
aF7.041666666666667
aF2.611111111111111
aF0.5277777777777778
aF0.6527777777777778
aF1.8611111111111112
aF2.361111111111111
aF22.90277777777778
aF7.111111111111111
aF0.75
aI12
aI32
aa(lp135
F23.43243243243243
aF4.351351351351352
aF10.675675675675675
aF0.39844594594594585
aF1.1891891891891893
aF3.391891891891892
aF0.3129189189189189
aF3.945945945945946
aF4.77027027027027
aF0.7201081081081082
aF0.43243243243243246
aF1.5405405405405406
aF1.972972972972973
aF3.391891891891892
aF0.6216216216216216
aF0.22972972972972974
aF1.364864864864865
aF1.7162162162162162
aF13.837837837837839
aF1.3513513513513513
aF0.527027027027027
aI5
aI24
aa(lp136
F5.666666666666667
aF0.16666666666666666
aF0.5
aF0.16666666666666666
aF0.0
aF0.0
aF0.0
aF0.0
aF0.0
aF0.0
aF0.5
aF1.3333333333333333
aF1.8333333333333333
aF0.3333333333333333
aF0.0
aF0.0
aF0.3333333333333333
aF1.3333333333333333
aF0.3333333333333333
aF-1.8333333333333333
aF1.0
aI4
aI27
aa(lp137
F36.608108108108105
aF5.702702702702703
aF13.486486486486486
aF0.41972972972972966
aF1.527027027027027
aF4.391891891891892
aF0.31855405405405407
aF2.5945945945945947
aF3.2027027027027026
aF0.7104324324324325
aF0.6486486486486487
aF2.9594594594594597
aF3.608108108108108
aF8.31081081081081
aF1.6756756756756757
aF0.14864864864864866
aF2.9594594594594597
aF2.0
aF15.527027027027026
aF1.472972972972973
aF0.581081081081081
aI5
aI26
aa(lp138
F25.97530864197531
aF4.135802469135802
aF9.407407407407407
aF0.43087654320987656
aF1.2962962962962963
aF3.234567901234568
aF0.377641975308642
aF1.6790123456790123
aF1.9753086419753085
aF0.5310864197530865
aF0.49382716049382713
aF1.8641975308641976
aF2.3580246913580245
aF2.0864197530864197
aF0.5925925925925926
aF0.19753086419753085
aF1.7160493827160495
aF2.185185185185185
aF11.246913580246913
aF-1.3333333333333333
aF0.35802469135802467
aI6
aI27
aa(lp139
F20.650793650793652
aF2.5396825396825395
aF5.9523809523809526
aF0.4127460317460317
aF1.3492063492063493
aF3.3333333333333335
aF0.33979365079365076
aF0.6349206349206349
aF0.7619047619047619
aF0.22815873015873017
aF0.9523809523809523
aF2.8095238095238093
aF3.761904761904762
aF0.7301587301587301
aF0.6031746031746031
aF0.7936507936507936
aF0.6825396825396826
aF2.5555555555555554
aF7.063492063492063
aF0.06349206349206349
aF0.5238095238095238
aI4
aI24
aa(lp140
F10.194444444444445
aF1.6388888888888888
aF3.1666666666666665
aF0.44258333333333333
aF0.0
aF0.0
aF0.0
aF0.5277777777777778
aF0.8055555555555556
aF0.17822222222222223
aF0.8611111111111112
aF1.5277777777777777
aF2.388888888888889
aF0.2777777777777778
aF0.25
aF0.4166666666666667
aF0.3888888888888889
aF0.8611111111111112
aF3.8055555555555554
aF-2.138888888888889
aF0.3888888888888889
aI3
aI23
aa(lp141
F17.790123456790123
aF1.5185185185185186
aF3.753086419753086
aF0.3849506172839506
aF1.0987654320987654
aF2.888888888888889
aF0.3705925925925926
aF0.25925925925925924
aF0.3950617283950617
aF0.12962962962962962
aF0.2345679012345679
aF1.5925925925925926
aF1.8271604938271604
aF1.2098765432098766
aF0.4691358024691358
aF0.1111111111111111
aF0.49382716049382713
aF1.345679012345679
aF4.395061728395062
aF2.1481481481481484
aF0.7530864197530864
aI7
aI30
aa(lp142
F32.56962025316456
aF6.924050632911392
aF15.860759493670885
aF0.43254430379746817
aF2.2151898734177213
aF5.734177215189874
aF0.379379746835443
aF7.367088607594937
aF8.30379746835443
aF0.8503291139240506
aF0.35443037974683544
aF2.848101265822785
aF3.2025316455696204
aF2.481012658227848
aF1.0126582278481013
aF0.189873417721519
aF2.2911392405063293
aF1.9620253164556962
aF23.430379746835442
aF2.189873417721519
aF0.5189873417721519
aI6
aI27
aa(lp143
F16.577464788732396
aF1.8309859154929577
aF3.887323943661972
aF0.3675211267605634
aF0.4225352112676056
aF0.9577464788732394
aF0.21032394366197182
aF0.9014084507042254
aF1.295774647887324
aF0.29556338028169016
aF0.5774647887323944
aF1.3380281690140845
aF1.9154929577464788
aF1.0845070422535212
aF0.4084507042253521
aF0.2676056338028169
aF0.971830985915493
aF1.4647887323943662
aF4.985915492957746
aF-2.8028169014084505
aF0.4507042253521127
aI0
aI20
aa(lp144
F11.604166666666666
aF1.4791666666666667
aF2.5833333333333335
aF0.5126875000000001
aF0.08333333333333333
aF0.16666666666666666
aF0.034729166666666665
aF0.6666666666666666
aF1.25
aF0.23758333333333334
aF0.7291666666666666
aF1.1875
aF1.9166666666666667
aF0.6458333333333334
aF0.3541666666666667
aF0.1875
aF0.625
aF1.1458333333333333
aF3.7083333333333335
aF-0.7083333333333334
aF0.4583333333333333
aI1
aI23
aa(lp145
F7.857142857142857
aF0.7142857142857143
aF1.4285714285714286
aF0.18571428571428572
aF0.0
aF0.0
aF0.0
aF0.42857142857142855
aF0.5714285714285714
aF0.21428571428571427
aF0.2857142857142857
aF0.7142857142857143
aF1.0
aF0.2857142857142857
aF0.5714285714285714
aF0.2857142857142857
aF0.0
aF2.142857142857143
aF1.8571428571428572
aF1.1428571428571428
aF0.7142857142857143
aI4
aI26
aa(lp146
F23.12162162162162
aF3.5675675675675675
aF7.0675675675675675
aF0.4817162162162164
aF0.0
aF0.02702702702702703
aF0.0
aF1.6081081081081081
aF2.6486486486486487
aF0.49127027027027026
aF1.9189189189189189
aF4.108108108108108
aF6.027027027027027
aF1.162162162162162
aF0.36486486486486486
aF0.5675675675675675
aF1.337837837837838
aF2.824324324324324
aF8.743243243243244
aF-1.9324324324324325
aF0.32432432432432434
aI2
aI24
aa(lp147
F24.676470588235293
aF4.470588235294118
aF10.264705882352942
aF0.4278529411764706
aF0.08823529411764706
aF0.5588235294117647
aF0.039205882352941174
aF2.323529411764706
aF2.9411764705882355
aF0.6078235294117648
aF2.1470588235294117
aF4.794117647058823
aF6.9411764705882355
aF1.3823529411764706
aF0.6176470588235294
aF0.5294117647058824
aF1.3235294117647058
aF2.823529411764706
aF11.352941176470589
aF-0.8235294117647058
aF0.38235294117647056
aI8
aI29
aa(lp148
F4.5
aF0.8
aF1.35
aF0.44165
aF0.0
aF0.0
aF0.0
aF0.55
aF1.1
aF0.22085
aF0.7
aF0.45
aF1.15
aF0.1
aF0.05
aF0.15
aF0.45
aF0.8
aF2.15
aF-1.1
aF0.45
aI0
aI24
aa(lp149
F24.71794871794872
aF4.3076923076923075
aF9.897435897435898
aF0.41269230769230775
aF1.5769230769230769
aF4.0256410256410255
aF0.2970384615384615
aF2.051282051282051
aF2.782051282051282
aF0.549974358974359
aF0.5512820512820513
aF3.5384615384615383
aF4.089743589743589
aF2.2051282051282053
aF1.1538461538461537
aF0.20512820512820512
aF1.205128205128205
aF2.1923076923076925
aF12.243589743589743
aF3.3461538461538463
aF0.6282051282051282
aI6
aI25
aa(lp150
F22.420289855072465
aF2.217391304347826
aF5.536231884057971
aF0.37231884057971015
aF1.1884057971014492
aF3.289855072463768
aF0.3083623188405798
aF0.782608695652174
aF0.8985507246376812
aF0.35749275362318844
aF0.17391304347826086
aF1.9130434782608696
aF2.0869565217391304
aF2.3768115942028984
aF1.0724637681159421
aF0.08695652173913043
aF1.2608695652173914
aF2.289855072463768
aF6.405797101449275
aF3.579710144927536
aF0.7391304347826086
aI2
aI24
aa(lp151
F28.123287671232877
aF3.328767123287671
aF6.287671232876712
aF0.5140547945205481
aF0.0
aF0.0136986301369863
aF0.0
aF1.2876712328767124
aF1.917808219178082
aF0.42849315068493155
aF2.9452054794520546
aF5.136986301369863
aF8.082191780821917
aF2.684931506849315
aF1.0684931506849316
aF0.6575342465753424
aF1.1506849315068493
aF2.684931506849315
aF7.945205479452055
aF2.493150684931507
aF0.547945205479452
aI5
aI27
aa(lp152
F25.574468085106382
aF3.8085106382978724
aF7.425531914893617
aF0.5004255319148938
aF0.0425531914893617
aF0.19148936170212766
aF0.0425531914893617
aF0.851063829787234
aF1.4893617021276595
aF0.37310638297872345
aF1.3829787234042554
aF4.787234042553192
aF6.170212765957447
aF2.276595744680851
aF0.8936170212765957
aF0.723404255319149
aF1.1914893617021276
aF2.8297872340425534
aF8.51063829787234
aF4.0638297872340425
aF0.6382978723404256
aI10
aI33
aa(lp153
F15.64102564102564
aF1.358974358974359
aF2.9358974358974357
aF0.36896153846153845
aF0.0
aF0.0
aF0.0
aF1.7307692307692308
aF2.2948717948717947
aF0.4759102564102564
aF1.4871794871794872
aF2.6538461538461537
aF4.141025641025641
aF0.717948717948718
aF0.4358974358974359
aF0.28205128205128205
aF0.8846153846153846
aF2.3205128205128207
aF4.448717948717949
aF-1.641025641025641
aF0.5512820512820513
aI7
aI26
aa(lp154
F30.987654320987655
aF3.617283950617284
aF7.283950617283951
aF0.496320987654321
aF1.037037037037037
aF2.6419753086419755
aF0.33903703703703697
aF1.3703703703703705
aF1.7777777777777777
aF0.4732469135802469
aF1.2962962962962963
aF5.049382716049383
aF6.345679012345679
aF1.9135802469135803
aF0.9876543209876543
aF0.20987654320987653
aF1.308641975308642
aF1.3950617283950617
aF9.641975308641975
aF0.9382716049382716
aF0.5185185185185185
aI0
aI22
aa(lp155
F12.895833333333334
aF1.5833333333333333
aF4.125
aF0.3539375
aF0.2708333333333333
aF1.2708333333333333
aF0.13191666666666668
aF0.3958333333333333
aF0.5416666666666666
aF0.13889583333333333
aF0.8125
aF2.1458333333333335
aF2.9583333333333335
aF0.6041666666666666
aF0.2916666666666667
aF0.3541666666666667
aF0.3333333333333333
aF1.625
aF3.8333333333333335
aF-1.7083333333333333
aF0.5833333333333334
aI0
aI22
aa(lp156
F18.25925925925926
aF3.4444444444444446
aF8.11111111111111
aF0.41040740740740744
aF0.9259259259259259
aF3.037037037037037
aF0.25307407407407406
aF0.8518518518518519
aF1.1111111111111112
aF0.28640740740740744
aF0.25925925925925924
aF1.6666666666666667
aF1.9259259259259258
aF2.3333333333333335
aF0.7407407407407407
aF0.2962962962962963
aF1.7407407407407407
aF2.7037037037037037
aF8.666666666666666
aF-0.6296296296296297
aF0.6666666666666666
aI1
aI22
aa(lp157
F1.0
aF0.0
aF0.0
aF0.0
aF0.0
aF0.0
aF0.0
aF0.0
aF0.0
aF0.0
aF0.0
aF0.0
aF0.0
aF0.0
aF0.0
aF0.0
aF0.0
aF0.0
aF0.0
aF-2.0
aF1.0
aI12
aI34
aa(lp158
F8.176470588235293
aF0.47058823529411764
aF0.8235294117647058
aF0.27452941176470586
aF0.0
aF0.0
aF0.0
aF0.11764705882352941
aF0.23529411764705882
aF0.058823529411764705
aF0.7647058823529411
aF1.2941176470588236
aF2.0588235294117645
aF0.23529411764705882
aF0.29411764705882354
aF0.4117647058823529
aF0.47058823529411764
aF1.7647058823529411
aF1.0588235294117647
aF0.8235294117647058
aF0.5882352941176471
aI0
aI22
aa(lp159
F12.197530864197532
aF0.9506172839506173
aF1.728395061728395
aF0.40428395061728395
aF0.0
aF0.0
aF0.0
aF0.9012345679012346
aF1.7901234567901234
aF0.3089506172839506
aF1.382716049382716
aF2.3950617283950617
aF3.7777777777777777
aF0.37037037037037035
aF0.24691358024691357
aF0.691358024691358
aF0.7777777777777778
aF1.8888888888888888
aF2.802469135802469
aF2.8271604938271606
aF0.7530864197530864
aI0
aI24
aa(lp160
F30.346666666666668
aF4.826666666666667
aF11.52
aF0.4013466666666668
aF1.5866666666666667
aF4.626666666666667
aF0.3327199999999999
aF2.933333333333333
aF3.4266666666666667
aF0.6427466666666667
aF0.28
aF1.44
aF1.72
aF3.1866666666666665
aF0.76
aF0.18666666666666668
aF1.92
aF1.2933333333333332
aF14.173333333333334
aF0.05333333333333334
aF0.5333333333333333
aI10
aI30
aa(lp161
F30.4
aF3.775
aF7.925
aF0.4751999999999999
aF1.675
aF3.7875
aF0.44976249999999995
aF1.825
aF2.4125
aF0.5020374999999999
aF0.675
aF3.175
aF3.85
aF1.3125
aF0.475
aF0.425
aF1.15
aF2.025
aF11.05
aF3.7
aF0.75
aI9
aI30
aa(lp162
F25.16883116883117
aF4.675324675324675
aF11.558441558441558
aF0.3804155844155843
aF1.3766233766233766
aF4.337662337662338
aF0.26755844155844155
aF2.0259740259740258
aF2.4935064935064934
aF0.6003376623376624
aF0.6883116883116883
aF2.5584415584415585
aF3.2467532467532467
aF1.6883116883116882
aF0.948051948051948
aF0.4935064935064935
aF1.1818181818181819
aF2.844155844155844
aF12.753246753246753
aF0.5064935064935064
aF0.45454545454545453
aI5
aI23
aa(lp163
F39.825
aF8.7125
aF17.4875
aF0.4929125
aF0.05
aF0.2875
aF0.05
aF4.3625
aF5.525
aF0.7250750000000001
aF3.45
aF5.275
aF8.725
aF2.1
aF1.0125
aF1.175
aF1.9125
aF2.6875
aF21.8375
aF3.4625
aF0.5875
aI4
aI25
aa(lp164
F26.679012345679013
aF3.617283950617284
aF8.296296296296296
aF0.4315308641975309
aF1.382716049382716
aF3.962962962962963
aF0.3496172839506173
aF3.5555555555555554
aF4.222222222222222
aF0.7692716049382716
aF0.48148148148148145
aF2.5925925925925926
aF3.074074074074074
aF2.111111111111111
aF1.1358024691358024
aF0.2962962962962963
aF1.2962962962962963
aF2.5308641975308643
aF12.17283950617284
aF2.6790123456790123
aF0.6790123456790124
aI1
aI21
aa(lp165
F23.958333333333332
aF4.666666666666667
aF10.847222222222221
aF0.3680555555555556
aF1.1666666666666667
aF3.2083333333333335
aF0.2905694444444445
aF2.0
aF2.513888888888889
aF0.49811111111111095
aF0.8194444444444444
aF2.6805555555555554
aF3.5
aF1.8194444444444444
aF0.8611111111111112
aF0.125
aF1.2777777777777777
aF1.5
aF12.5
aF-1.5972222222222223
aF0.5138888888888888
aI1
aI23
aa(lp166
F33.164556962025316
aF2.670886075949367
aF7.468354430379747
aF0.3574810126582278
aF1.6329113924050633
aF4.8734177215189876
aF0.33101265822784803
aF0.8481012658227848
aF0.9746835443037974
aF0.3924050632911392
aF0.4430379746835443
aF3.962025316455696
aF4.405063291139241
aF8.189873417721518
aF1.6455696202531647
aF0.3670886075949367
aF2.2531645569620253
aF1.5063291139240507
aF7.822784810126582
aF2.050632911392405
aF0.6962025316455697
aI16
aI37
aa(lp167
F23.74137931034483
aF2.396551724137931
aF4.5
aF0.5293793103448277
aF0.0
aF0.0
aF0.0
aF0.15517241379310345
aF0.5
aF0.07327586206896551
aF2.4482758620689653
aF4.758620689655173
aF7.206896551724138
aF1.0344827586206897
aF0.8793103448275862
aF0.896551724137931
aF0.9482758620689655
aF3.396551724137931
aF4.948275862068965
aF-4.0344827586206895
aF0.4482758620689655
aI6
aI24
aa(lp168
F15.886363636363637
aF1.8409090909090908
aF3.090909090909091
aF0.49159090909090913
aF0.0
aF0.022727272727272728
aF0.0
aF1.9090909090909092
aF3.022727272727273
aF0.4203863636363636
aF1.6818181818181819
aF3.0681818181818183
aF4.75
aF0.45454545454545453
aF0.4772727272727273
aF1.2954545454545454
aF0.5681818181818182
aF1.6818181818181819
aF5.590909090909091
aF1.8181818181818181
aF0.6590909090909091
aI9
aI32
aa(lp169
F19.458333333333332
aF2.375
aF4.833333333333333
aF0.4382708333333332
aF0.08333333333333333
aF0.4375
aF0.055562499999999994
aF0.8125
aF1.1875
aF0.30904166666666666
aF0.5
aF1.8333333333333333
aF2.3333333333333335
aF1.3333333333333333
aF0.8125
aF0.4583333333333333
aF0.7916666666666666
aF1.3125
aF5.645833333333333
aF0.0625
aF0.75
aI7
aI29
aa(lp170
F22.026666666666667
aF4.133333333333334
aF9.32
aF0.42233333333333334
aF1.64
aF4.28
aF0.34681333333333325
aF1.1866666666666668
aF1.5466666666666666
aF0.4147733333333334
aF0.6666666666666666
aF3.2533333333333334
aF3.92
aF0.64
aF0.56
aF0.56
aF0.8666666666666667
aF2.32
aF11.093333333333334
aF-1.7733333333333334
aF0.36
aI5
aI26
aa(lp171
F24.272727272727273
aF3.5606060606060606
aF8.848484848484848
aF0.374621212121212
aF1.4393939393939394
aF3.893939393939394
aF0.3301515151515151
aF1.2272727272727273
aF1.4545454545454546
aF0.4444393939393939
aF0.45454545454545453
aF2.3333333333333335
aF2.787878787878788
aF1.9393939393939394
aF0.7878787878787878
aF0.07575757575757576
aF0.9848484848484849
aF1.9848484848484849
aF9.787878787878787
aF-4.121212121212121
aF0.3939393939393939
aI6
aI26
aa(lp172
F4.75
aF0.5
aF1.25
aF0.33325
aF0.25
aF0.75
aF0.125
aF0.25
aF0.5
aF0.125
aF0.0
aF0.0
aF0.0
aF0.5
aF0.25
aF0.0
aF1.0
aF0.0
aF1.5
aF-1.25
aF0.25
aI0
aI24
aa(lp173
F30.064102564102566
aF5.076923076923077
aF11.08974358974359
aF0.4583974358974358
aF0.5256410256410257
aF1.5897435897435896
aF0.22820512820512823
aF2.58974358974359
aF2.9743589743589745
aF0.726
aF0.5
aF2.358974358974359
aF2.858974358974359
aF5.141025641025641
aF1.0769230769230769
aF0.1794871794871795
aF2.4743589743589745
aF1.3974358974358974
aF13.26923076923077
aF-1.5769230769230769
aF0.46153846153846156
aI1
aI23
aa(lp174
F31.975
aF4.4875
aF8.5
aF0.5371749999999998
aF0.0375
aF0.0875
aF0.0375
aF2.75
aF3.675
aF0.6102749999999999
aF1.9
aF5.125
aF7.025
aF2.475
aF0.925
aF1.6875
aF1.8125
aF3.2625
aF11.7625
aF1.775
aF0.575
aI2
aI25
aa(lp175
F27.074074074074073
aF4.098765432098766
aF7.567901234567901
aF0.5364691358024692
aF0.0
aF0.012345679012345678
aF0.0
aF1.7037037037037037
aF2.271604938271605
aF0.4714074074074074
aF2.617283950617284
aF4.9753086419753085
aF7.592592592592593
aF0.25925925925925924
aF0.38271604938271603
aF2.4074074074074074
aF0.8641975308641975
aF3.271604938271605
aF9.901234567901234
aF1.5925925925925926
aF0.6790123456790124
aI1
aI21
aa(lp176
F12.607843137254902
aF1.2549019607843137
aF2.4901960784313726
aF0.406843137254902
aF0.0392156862745098
aF0.19607843137254902
aF0.0392156862745098
aF0.7058823529411765
aF1.0196078431372548
aF0.2663333333333333
aF0.45098039215686275
aF1.2352941176470589
aF1.6862745098039216
aF0.7843137254901961
aF0.49019607843137253
aF0.17647058823529413
aF0.39215686274509803
aF1.3529411764705883
aF3.2549019607843137
aF-2.5098039215686274
aF0.49019607843137253
aI6
aI30
aa(lp177
F36.391891891891895
aF8.013513513513514
aF15.945945945945946
aF0.5059594594594595
aF0.10810810810810811
aF0.581081081081081
aF0.08783783783783784
aF4.0
aF5.283783783783784
aF0.7182567567567566
aF4.378378378378378
aF7.905405405405405
aF12.283783783783784
aF2.1216216216216215
aF0.8513513513513513
aF0.33783783783783783
aF2.027027027027027
aF2.324324324324324
aF20.135135135135137
aF3.4054054054054053
aF0.5675675675675675
aI9
aI29
aa(lp178
F13.671875
aF2.078125
aF4.0
aF0.47246875
aF0.0
aF0.0
aF0.0
aF1.296875
aF1.703125
aF0.44437499999999996
aF1.375
aF1.609375
aF2.984375
aF0.40625
aF0.265625
aF0.546875
aF1.390625
aF2.78125
aF5.453125
aF-3.15625
aF0.234375
aI0
aI24
aa(lp179
F2.1666666666666665
aF0.0
aF0.5
aF0.0
aF0.0
aF0.16666666666666666
aF0.0
aF0.5
aF0.6666666666666666
aF0.125
aF0.16666666666666666
aF0.16666666666666666
aF0.3333333333333333
aF0.16666666666666666
aF0.0
aF0.16666666666666666
aF0.0
aF0.16666666666666666
aF0.5
aF1.1666666666666667
aF0.5
aI0
aI26
aa(lp180
F16.125
aF1.5892857142857142
aF3.25
aF0.43851785714285724
aF0.0
aF0.0
aF0.0
aF0.875
aF1.6964285714285714
aF0.3154642857142857
aF1.125
aF1.875
aF3.0
aF0.30357142857142855
aF0.42857142857142855
aF0.375
aF0.7857142857142857
aF1.6428571428571428
aF4.053571428571429
aF-2.392857142857143
aF0.2857142857142857
aI5
aI27
aa(lp181
F8.849056603773585
aF0.7169811320754716
aF2.188679245283019
aF0.22484905660377355
aF0.1509433962264151
aF0.6415094339622641
aF0.09433962264150944
aF0.1320754716981132
aF0.18867924528301888
aF0.034584905660377356
aF0.16981132075471697
aF1.0566037735849056
aF1.2264150943396226
aF1.1320754716981132
aF0.16981132075471697
aF0.07547169811320754
aF0.5471698113207547
aF0.6981132075471698
aF1.7169811320754718
aF0.5660377358490566
aF0.7169811320754716
aI7
aI30
aa(lp182
F18.98611111111111
aF2.2916666666666665
aF4.694444444444445
aF0.4748472222222223
aF0.0
aF0.013888888888888888
aF0.0
aF0.7222222222222222
aF1.0694444444444444
aF0.2870277777777777
aF1.6666666666666667
aF3.6805555555555554
aF5.347222222222222
aF1.1388888888888888
aF0.5
aF0.5416666666666666
aF1.0
aF2.236111111111111
aF5.305555555555555
aF1.9722222222222223
aF0.75
aI15
aI36
aa(lp183
F32.645833333333336
aF4.083333333333333
aF10.5
aF0.3585208333333332
aF2.1458333333333335
aF5.8125
aF0.3158541666666667
aF1.25
aF1.5625
aF0.3822916666666667
aF0.5
aF3.6458333333333335
aF4.145833333333333
aF2.2916666666666665
aF1.5625
aF0.14583333333333334
aF1.1666666666666667
aF1.4791666666666667
aF11.5625
aF-1.6041666666666667
aF0.4166666666666667
aI6
aI28
aa(lp184
F27.95
aF5.125
aF11.075
aF0.4569875
aF0.0
aF0.05
aF0.0
aF2.5625
aF3.4375
aF0.6063749999999999
aF2.2625
aF5.325
aF7.5875
aF2.075
aF0.4125
aF1.775
aF2.3125
aF3.1375
aF12.8125
aF-0.3125
aF0.4625
aI2
aI24
aa(lp185
F17.333333333333332
aF2.5555555555555554
aF5.458333333333333
aF0.45749999999999996
aF0.013888888888888888
aF0.05555555555555555
aF0.013888888888888888
aF1.4861111111111112
aF1.7083333333333333
aF0.5620277777777777
aF0.4027777777777778
aF1.6388888888888888
aF2.0416666666666665
aF2.25
aF0.6388888888888888
aF0.4027777777777778
aF1.2222222222222223
aF1.4861111111111112
aF6.611111111111111
aF-0.9444444444444444
aF0.4166666666666667
aI6
aI25
aa(lp186
F34.075949367088604
aF5.936708860759493
aF13.253164556962025
aF0.43589873417721503
aF2.367088607594937
aF5.987341772151899
aF0.36899999999999994
aF1.4683544303797469
aF2.0126582278481013
aF0.46883544303797464
aF0.8481012658227848
aF3.3037974683544302
aF4.151898734177215
aF1.860759493670886
aF1.1518987341772151
aF0.16455696202531644
aF1.1772151898734178
aF2.037974683544304
aF15.708860759493671
aF3.3417721518987342
aF0.5822784810126582
aI9
aI29
aa(lp187
F5.666666666666667
aF0.6666666666666666
aF1.0
aF0.22233333333333336
aF0.0
aF0.0
aF0.0
aF0.0
aF0.0
aF0.0
aF0.0
aF0.6666666666666666
aF0.6666666666666666
aF0.0
aF0.0
aF0.3333333333333333
aF0.3333333333333333
aF0.3333333333333333
aF1.3333333333333333
aF-4.666666666666667
aF0.3333333333333333
aI0
aI24
aa(lp188
F5.9
aF0.5
aF2.0
aF0.1167
aF0.3
aF1.3
aF0.1167
aF0.2
aF0.3
aF0.1
aF0.1
aF0.2
aF0.3
aF1.5
aF0.4
aF0.1
aF0.6
aF0.9
aF1.5
aF-0.5
aF0.3
aI1
aI26
aa(lp189
F13.579710144927537
aF1.8695652173913044
aF4.260869565217392
aF0.3919855072463769
aF0.2463768115942029
aF0.6666666666666666
aF0.1473478260869565
aF1.1014492753623188
aF1.3768115942028984
aF0.3603188405797101
aF0.14492753623188406
aF1.3043478260869565
aF1.4492753623188406
aF1.9855072463768115
aF0.6521739130434783
aF0.34782608695652173
aF0.9130434782608695
aF1.173913043478261
aF5.086956521739131
aF-0.7681159420289855
aF0.5217391304347826
aI1
aI22
aa(lp190
F10.81132075471698
aF1.6415094339622642
aF3.660377358490566
aF0.3747735849056603
aF0.32075471698113206
aF0.8679245283018868
aF0.13962264150943396
aF0.7547169811320755
aF0.9811320754716981
aF0.29967924528301887
aF0.22641509433962265
aF1.0377358490566038
aF1.2641509433962264
aF0.4339622641509434
aF0.32075471698113206
aF0.11320754716981132
aF0.4339622641509434
aF0.7924528301886793
aF4.3584905660377355
aF-1.0377358490566038
aF0.4339622641509434
aI7
aI30
aa(lp191
F22.07792207792208
aF3.4675324675324677
aF8.246753246753247
aF0.39029870129870137
aF1.103896103896104
aF3.4545454545454546
aF0.29554545454545444
aF1.4415584415584415
aF1.7012987012987013
aF0.4406103896103896
aF0.6753246753246753
aF2.896103896103896
aF3.5714285714285716
aF1.5974025974025974
aF0.5064935064935064
aF0.23376623376623376
aF0.8701298701298701
aF1.4415584415584415
aF9.480519480519481
aF1.4675324675324675
aF0.5194805194805194
aI1
aI22
aa(lp192
F4.0
aF1.0
aF2.0
aF0.5
aF0.0
aF1.0
aF0.0
aF0.0
aF2.0
aF0.0
aF0.0
aF0.0
aF0.0
aF0.0
aF0.0
aF0.0
aF0.0
aF0.0
aF2.0
aF1.0
aF0.0
aI5
aI28
aa(lp193
F33.970588235294116
aF4.529411764705882
aF9.132352941176471
aF0.47202941176470586
aF1.5294117647058822
aF3.6176470588235294
aF0.38552941176470584
aF2.014705882352941
aF2.3823529411764706
aF0.6083529411764708
aF0.6617647058823529
aF3.0
aF3.661764705882353
aF2.4411764705882355
aF0.4852941176470588
aF0.45588235294117646
aF1.0441176470588236
aF2.2205882352941178
aF12.602941176470589
aF2.235294117647059
aF0.5735294117647058
aI3
aI25
aa(lp194
F27.85185185185185
aF2.4814814814814814
aF6.419753086419753
aF0.392925925925926
aF0.7654320987654321
aF1.9382716049382716
aF0.3457037037037038
aF1.0246913580246915
aF1.271604938271605
aF0.35843209876543214
aF0.16049382716049382
aF1.654320987654321
aF1.8148148148148149
aF2.728395061728395
aF1.2098765432098766
aF0.09876543209876543
aF0.8641975308641975
aF2.345679012345679
aF6.753086419753086
aF5.45679012345679
aF0.691358024691358
aI14
aI36
aa(lp195
F20.372093023255815
aF2.697674418604651
aF6.3023255813953485
aF0.3748139534883721
aF0.3488372093023256
aF1.0465116279069768
aF0.1806279069767442
aF1.7209302325581395
aF2.0697674418604652
aF0.49746511627906975
aF0.16279069767441862
aF1.8372093023255813
aF2.0
aF1.1627906976744187
aF0.6744186046511628
aF0.3023255813953488
aF0.7906976744186046
aF1.6744186046511629
aF7.465116279069767
aF-0.5581395348837209
aF0.4186046511627907
aI2
aI23
aa(lp196
F20.848101265822784
aF3.5443037974683542
aF7.860759493670886
aF0.442354430379747
aF1.620253164556962
aF3.848101265822785
aF0.40054430379746847
aF1.0253164556962024
aF1.2658227848101267
aF0.38982278481012655
aF0.26582278481012656
aF2.151898734177215
aF2.4177215189873418
aF1.1772151898734178
aF0.3291139240506329
aF0.05063291139240506
aF0.9746835443037974
aF1.8101265822784811
aF9.734177215189874
aF1.2531645569620253
aF0.7468354430379747
aI0
aI26
aa(lp197
F7.925
aF0.55
aF1.15
aF0.314175
aF0.0
aF0.0
aF0.0
aF0.325
aF0.45
aF0.1875
aF0.85
aF1.25
aF2.1
aF0.15
aF0.15
aF0.675
aF0.525
aF1.2
aF1.425
aF-0.45
aF0.5
aI6
aI30
aa(lp198
F38.07142857142857
aF5.442857142857143
aF12.0
aF0.44650000000000006
aF0.8714285714285714
aF2.6142857142857143
aF0.24761428571428573
aF3.942857142857143
aF5.3
aF0.6562285714285714
aF1.5857142857142856
aF6.485714285714286
aF8.071428571428571
aF2.442857142857143
aF1.4714285714285715
aF0.9
aF2.1142857142857143
aF2.5428571428571427
aF15.7
aF1.6428571428571428
aF0.5
aI9
aI28
aa(lp199
F16.0
aF2.109375
aF3.84375
aF0.4590625000000001
aF0.0
aF0.015625
aF0.0
aF1.03125
aF1.515625
aF0.32542187499999997
aF1.5
aF2.265625
aF3.765625
aF0.515625
aF0.4375
aF0.609375
aF0.578125
aF1.75
aF5.25
aF-2.453125
aF0.234375
aI0
aI23
aa(lp200
F16.45098039215686
aF2.784313725490196
aF4.980392156862745
aF0.5236666666666668
aF0.0
aF0.0392156862745098
aF0.0
aF0.5882352941176471
aF0.7843137254901961
aF0.22190196078431373
aF1.6470588235294117
aF2.196078431372549
aF3.843137254901961
aF0.7450980392156863
aF0.3137254901960784
aF0.7058823529411765
aF0.5686274509803921
aF1.4313725490196079
aF6.1568627450980395
aF-0.3137254901960784
aF0.5490196078431373
aI0
aI21
aa(lp201
F4.916666666666667
aF0.5833333333333334
aF1.25
aF0.2694166666666667
aF0.0
aF0.0
aF0.0
aF0.8333333333333334
aF1.0833333333333333
aF0.3958333333333333
aF0.3333333333333333
aF1.0833333333333333
aF1.4166666666666667
aF0.08333333333333333
aF0.08333333333333333
aF0.0
aF0.25
aF0.8333333333333334
aF2.0
aF-1.5
aF0.5
aI9
aI32
aa(lp202
F9.41025641025641
aF1.435897435897436
aF3.051282051282051
aF0.33061538461538464
aF0.20512820512820512
aF0.5897435897435898
aF0.16238461538461538
aF0.358974358974359
aF0.5641025641025641
aF0.19230769230769232
aF0.5128205128205128
aF1.5897435897435896
aF2.1025641025641026
aF0.3333333333333333
aF0.10256410256410256
aF0.23076923076923078
aF0.5641025641025641
aF1.0256410256410255
aF3.4358974358974357
aF0.41025641025641024
aF0.4358974358974359
aI1
aI30
aa(lp203
F11.115384615384615
aF0.8461538461538461
aF2.5384615384615383
aF0.23907692307692313
aF0.38461538461538464
aF1.4615384615384615
aF0.15703846153846154
aF0.0
aF0.0
aF0.0
aF0.11538461538461539
aF1.0384615384615385
aF1.1538461538461537
aF1.9615384615384615
aF0.4230769230769231
aF0.038461538461538464
aF0.6923076923076923
aF0.3076923076923077
aF2.076923076923077
aF1.7307692307692308
aF0.6923076923076923
aI12
aI35
aa(lp204
F35.83098591549296
aF7.225352112676056
aF16.267605633802816
aF0.44064788732394355
aF1.2535211267605635
aF4.197183098591549
aF0.2952112676056338
aF2.7464788732394365
aF3.4225352112676055
aF0.7239014084507042
aF0.8309859154929577
aF3.267605633802817
aF4.098591549295775
aF4.746478873239437
aF0.6619718309859155
aF0.09859154929577464
aF2.028169014084507
aF1.8028169014084507
aF18.450704225352112
aF1.3661971830985915
aF0.5352112676056338
aI9
aI29
aa(lp205
F22.071428571428573
aF3.2285714285714286
aF6.3428571428571425
aF0.5183142857142856
aF0.0
aF0.0
aF0.0
aF1.5714285714285714
aF2.0285714285714285
aF0.4765285714285714
aF1.7285714285714286
aF2.9714285714285715
aF4.7
aF0.37142857142857144
aF0.37142857142857144
aF0.34285714285714286
aF0.8
aF2.557142857142857
aF8.028571428571428
aF0.44285714285714284
aF0.6142857142857143
aI6
aI27
aa(lp206
F17.70689655172414
aF1.706896551724138
aF4.172413793103448
aF0.41567241379310343
aF0.6379310344827587
aF2.086206896551724
aF0.2550344827586207
aF0.22413793103448276
aF0.25862068965517243
aF0.1206896551724138
aF0.3620689655172414
aF2.4310344827586206
aF2.793103448275862
aF0.896551724137931
aF0.4827586206896552
aF0.5689655172413793
aF0.3793103448275862
aF1.103448275862069
aF4.275862068965517
aF-2.706896551724138
aF0.3275862068965517
aI3
aI30
aa(lp207
F8.238095238095237
aF1.1428571428571428
aF2.857142857142857
aF0.2805238095238095
aF0.38095238095238093
aF0.8571428571428571
aF0.20633333333333334
aF0.38095238095238093
aF0.8571428571428571
aF0.127
aF0.09523809523809523
aF0.38095238095238093
aF0.47619047619047616
aF0.09523809523809523
aF0.14285714285714285
aF0.0
aF0.5714285714285714
aF1.0
aF3.0476190476190474
aF-0.6666666666666666
aF0.19047619047619047
aI1
aI22
aa(lp208
F16.397058823529413
aF2.2794117647058822
aF5.617647058823529
aF0.3516617647058823
aF0.6617647058823529
aF2.235294117647059
aF0.19063235294117645
aF0.6323529411764706
aF0.9558823529411765
aF0.24683823529411764
aF0.7205882352941176
aF1.411764705882353
aF2.1323529411764706
aF0.7058823529411765
aF0.5294117647058824
aF0.29411764705882354
aF0.8823529411764706
aF1.2794117647058822
aF5.852941176470588
aF-1.5294117647058822
aF0.3088235294117647
aI2
aI22
aa(lp209
F9.470588235294118
aF0.47058823529411764
aF1.4705882352941178
aF0.2619411764705882
aF0.0
aF0.0
aF0.0
aF0.058823529411764705
aF0.11764705882352941
aF0.029411764705882353
aF0.7058823529411765
aF0.9411764705882353
aF1.6470588235294117
aF0.23529411764705882
aF0.058823529411764705
aF0.23529411764705882
aF0.17647058823529413
aF1.6470588235294117
aF1.0
aF-3.2941176470588234
aF0.47058823529411764
aI9
aI32
aa(lp210
F28.15277777777778
aF5.361111111111111
aF12.26388888888889
aF0.42397222222222214
aF1.5972222222222223
aF4.444444444444445
aF0.30451388888888886
aF1.7638888888888888
aF2.375
aF0.5180277777777778
aF0.7361111111111112
aF3.0416666666666665
aF3.7777777777777777
aF2.013888888888889
aF0.9305555555555556
aF0.2777777777777778
aF1.2361111111111112
aF2.611111111111111
aF14.083333333333334
aF1.7777777777777777
aF0.5138888888888888
aI12
aI33
aa(lp211
F28.7
aF5.3625
aF12.475
aF0.42676250000000004
aF0.0375
aF0.225
aF0.021875
aF3.45
aF5.025
aF0.6100625
aF2.7
aF5.9625
aF8.6625
aF2.525
aF1.0625
aF0.8375
aF3.325
aF4.1
aF14.2125
aF-3.3375
aF0.2875
aI0
aI20
aa(lp212
F34.18666666666667
aF6.946666666666666
aF13.053333333333333
aF0.5278266666666667
aF0.10666666666666667
aF0.29333333333333333
aF0.05333333333333334
aF3.3733333333333335
aF4.453333333333333
aF0.68532
aF2.1733333333333333
aF5.466666666666667
aF7.64
aF2.4266666666666667
aF1.3466666666666667
aF0.9066666666666666
aF1.9066666666666667
aF3.5866666666666664
aF17.373333333333335
aF0.14666666666666667
aF0.4666666666666667
aI4
aI25
aa(lp213
F19.97530864197531
aF2.9012345679012346
aF6.716049382716049
aF0.4270493827160493
aF1.4567901234567902
aF3.4814814814814814
aF0.42743209876543203
aF0.9135802469135802
aF1.037037037037037
aF0.42756790123456784
aF0.14814814814814814
aF1.6790123456790123
aF1.8271604938271604
aF1.4814814814814814
aF0.43209876543209874
aF0.2345679012345679
aF0.7407407407407407
aF1.9135802469135803
aF8.17283950617284
aF3.6049382716049383
aF0.7530864197530864
aI7
aI29
aa(lp214
F2.0
aF0.0
aF1.0
aF0.0
aF0.0
aF0.0
aF0.0
aF0.0
aF0.0
aF0.0
aF0.0
aF2.0
aF2.0
aF0.0
aF0.0
aF0.0
aF2.0
aF1.0
aF0.0
aF-1.0
aF1.0
aI0
aI22
aa(lp215
F14.484848484848484
aF2.8484848484848486
aF5.909090909090909
aF0.4865151515151515
aF0.42424242424242425
aF1.3636363636363635
aF0.198969696969697
aF0.6363636363636364
aF0.8484848484848485
aF0.2878787878787879
aF0.7878787878787878
aF1.0909090909090908
aF1.878787878787879
aF0.9696969696969697
aF0.3939393939393939
aF0.15151515151515152
aF1.3636363636363635
aF1.1818181818181819
aF6.757575757575758
aF-2.757575757575758
aF0.24242424242424243
aI1
aI24
aa(lp216
F12.104166666666666
aF0.7083333333333334
aF1.4791666666666667
aF0.3777916666666667
aF0.020833333333333332
aF0.020833333333333332
aF0.020833333333333332
aF0.5625
aF0.8541666666666666
aF0.27952083333333333
aF0.6041666666666666
aF1.4375
aF2.0416666666666665
aF0.4583333333333333
aF0.1875
aF0.1875
aF0.5416666666666666
aF1.9791666666666667
aF2.0
aF1.875
aF0.5625
aI9
aI32
aa(lp217
F19.532467532467532
aF2.727272727272727
aF5.2727272727272725
aF0.5265064935064937
aF0.0
aF0.0
aF0.0
aF1.3116883116883118
aF2.207792207792208
aF0.4088701298701299
aF2.155844155844156
aF3.103896103896104
aF5.259740259740259
aF0.4675324675324675
aF0.33766233766233766
aF0.8571428571428571
aF0.987012987012987
aF3.142857142857143
aF6.766233766233766
aF-2.909090909090909
aF0.3116883116883117
aI0
aI19
aa(lp218
F35.45679012345679
aF5.419753086419753
aF12.197530864197532
aF0.44239506172839493
aF0.9629629629629629
aF2.654320987654321
aF0.313358024691358
aF2.074074074074074
aF2.5308641975308643
aF0.5910617283950618
aF0.8271604938271605
aF3.234567901234568
aF4.061728395061729
aF6.469135802469136
aF1.4691358024691359
aF0.35802469135802467
aF2.6666666666666665
aF2.4814814814814814
aF13.876543209876543
aF2.246913580246914
aF0.5061728395061729
aI1
aI20
aa(lp219
F11.52
aF0.92
aF2.72
aF0.21752000000000002
aF0.6
aF1.56
aF0.23
aF0.24
aF0.36
aF0.18
aF0.2
aF1.32
aF1.52
aF0.64
aF0.24
aF0.08
aF0.2
aF0.88
aF2.68
aF-1.92
aF0.4
aI8
aI30
aa(lp220
F37.78181818181818
aF7.581818181818182
aF16.87272727272727
aF0.44103636363636356
aF1.8909090909090909
aF5.2
aF0.3341090909090909
aF5.181818181818182
aF6.290909090909091
aF0.7802727272727273
aF0.7818181818181819
aF2.1454545454545455
aF2.9272727272727272
aF4.327272727272727
aF1.2545454545454546
aF0.32727272727272727
aF2.690909090909091
aF2.0545454545454547
aF22.236363636363638
aF-0.09090909090909091
aF0.43636363636363634
aI2
aI22
aa(lp221
F8.326530612244898
aF1.2448979591836735
aF2.836734693877551
aF0.34193877551020413
aF0.0
aF0.04081632653061224
aF0.0
aF0.4897959183673469
aF0.8775510204081632
aF0.18416326530612243
aF1.0816326530612246
aF1.4489795918367347
aF2.5306122448979593
aF0.14285714285714285
aF0.20408163265306123
aF0.5102040816326531
aF0.5510204081632653
aF1.1428571428571428
aF2.979591836734694
aF-0.8979591836734694
aF0.3469387755102041
aI2
aI21
aa(lp222
F14.84
aF0.94
aF2.46
aF0.30817999999999995
aF0.26
aF0.96
aF0.15334
aF0.24
aF0.46
aF0.12
aF0.18
aF0.82
aF1.0
aF2.26
aF0.3
aF0.04
aF1.14
aF0.58
aF2.38
aF-0.04
aF0.7
aI6
aI28
aa(lp223
F6.761904761904762
aF0.8095238095238095
aF2.1904761904761907
aF0.2102857142857143
aF0.047619047619047616
aF0.42857142857142855
aF0.047619047619047616
aF0.38095238095238093
aF0.7142857142857143
aF0.21428571428571427
aF0.23809523809523808
aF0.7142857142857143
aF0.9523809523809523
aF1.0476190476190477
aF0.14285714285714285
aF0.14285714285714285
aF0.7619047619047619
aF0.6190476190476191
aF2.0476190476190474
aF-0.09523809523809523
aF0.23809523809523808
aI1
aI26
aa(lp224
F32.04761904761905
aF6.492063492063492
aF14.761904761904763
aF0.4175873015873015
aF1.6507936507936507
aF4.285714285714286
aF0.3508730158730159
aF2.9523809523809526
aF3.619047619047619
aF0.686873015873016
aF0.4126984126984127
aF2.3492063492063493
aF2.761904761904762
aF1.1904761904761905
aF0.7142857142857143
aF0.2698412698412698
aF1.4285714285714286
aF2.2857142857142856
aF17.58730158730159
aF-4.444444444444445
aF0.2222222222222222
aI3
aI25
aa(lp225
F17.8625
aF1.9625
aF5.0375
aF0.3520125
aF0.5625
aF1.7875
aF0.23793749999999997
aF1.15
aF1.4875
aF0.44734999999999997
aF0.9375
aF2.35
aF3.2875
aF0.7125
aF0.7125
aF0.3125
aF1.2625
aF1.475
aF5.6375
aF-2.2875
aF0.375
aI0
aI20
aa(lp226
F31.044776119402986
aF2.8358208955223883
aF6.880597014925373
aF0.40644776119402976
aF1.0
aF2.8656716417910446
aF0.3268507462686567
aF1.3582089552238805
aF1.5223880597014925
aF0.42785074626865666
aF0.4626865671641791
aF2.1343283582089554
aF2.5970149253731343
aF1.7611940298507462
aF0.835820895522388
aF0.208955223880597
aF0.9253731343283582
aF2.4925373134328357
aF8.029850746268657
aF-3.2238805970149254
aF0.5074626865671642
aI10
aI34
aa(lp227
F24.19402985074627
aF3.7313432835820897
aF8.253731343283581
aF0.4243731343283582
aF0.1044776119402985
aF0.5074626865671642
aF0.058208955223880594
aF1.8805970149253732
aF2.4029850746268657
aF0.49676119402985075
aF0.7164179104477612
aF2.283582089552239
aF3.0
aF1.4179104477611941
aF0.6865671641791045
aF0.4626865671641791
aF0.9552238805970149
aF1.7313432835820894
aF9.447761194029852
aF-1.7462686567164178
aF0.417910447761194
aI1
aI23
aa(lp228
F34.34426229508197
aF4.327868852459017
aF10.39344262295082
aF0.4160163934426229
aF1.6721311475409837
aF4.754098360655738
aF0.3227377049180328
aF5.524590163934426
aF6.39344262295082
aF0.7539999999999999
aF0.9672131147540983
aF4.0
aF4.967213114754099
aF1.7049180327868851
aF0.8360655737704918
aF0.4426229508196721
aF1.3442622950819672
aF2.3278688524590163
aF15.852459016393443
aF1.1147540983606556
aF0.5409836065573771
aI2
aI22
aa(lp229
F33.79012345679013
aF5.37037037037037
aF11.975308641975309
aF0.43170370370370365
aF1.8518518518518519
aF4.580246913580247
aF0.37629629629629624
aF3.234567901234568
aF3.8395061728395063
aF0.7347283950617283
aF0.5925925925925926
aF2.580246913580247
aF3.1728395061728394
aF2.0123456790123457
aF1.2592592592592593
aF0.1111111111111111
aF1.654320987654321
aF2.4074074074074074
aF15.82716049382716
aF2.0617283950617282
aF0.5925925925925926
aI1
aI24
aa(lp230
F24.430555555555557
aF3.4444444444444446
aF8.833333333333334
aF0.38790277777777776
aF1.4861111111111112
aF4.138888888888889
aF0.3402361111111111
aF1.0694444444444444
aF1.3055555555555556
aF0.3658472222222222
aF0.3333333333333333
aF2.013888888888889
aF2.3472222222222223
aF4.944444444444445
aF0.8611111111111112
aF0.05555555555555555
aF1.875
aF1.7638888888888888
aF9.444444444444445
aF-2.5277777777777777
aF0.3194444444444444
aI4
aI24
aa(lp231
F23.676056338028168
aF3.1971830985915495
aF7.23943661971831
aF0.3901690140845069
aF0.4225352112676056
aF1.2394366197183098
aF0.22416901408450704
aF1.267605633802817
aF1.8169014084507042
aF0.38169014084507047
aF0.6901408450704225
aF2.8450704225352115
aF3.535211267605634
aF3.5492957746478875
aF0.9295774647887324
aF0.4788732394366197
aF1.408450704225352
aF1.4225352112676057
aF8.084507042253522
aF-1.0985915492957747
aF0.3380281690140845
aI13
aI31
aa(lp232
F6.0
aF1.0
aF2.5
aF0.25
aF0.0
aF0.0
aF0.0
aF1.5
aF1.5
aF0.5
aF0.5
aF0.0
aF0.5
aF0.0
aF0.5
aF0.0
aF1.0
aF0.5
aF3.5
aF-3.0
aF0.0
aI0
aI22
aa(lp233
F14.333333333333334
aF2.871794871794872
aF6.333333333333333
aF0.3506153846153846
aF0.02564102564102564
aF0.10256410256410256
aF0.02564102564102564
aF1.4615384615384615
aF2.1794871794871793
aF0.3251282051282051
aF1.1025641025641026
aF2.8974358974358974
aF4.0
aF0.8461538461538461
aF0.5641025641025641
aF0.5897435897435898
aF1.2820512820512822
aF1.5128205128205128
aF7.230769230769231
aF-3.5128205128205128
aF0.28205128205128205
aI2
aI21
aa(lp234
F12.297872340425531
aF2.1702127659574466
aF3.9148936170212765
aF0.4858723404255319
aF0.0
aF0.10638297872340426
aF0.0
aF1.0638297872340425
aF1.446808510638298
aF0.34285106382978725
aF0.9148936170212766
aF1.574468085106383
aF2.4893617021276597
aF0.6382978723404256
aF0.3404255319148936
aF0.10638297872340426
aF0.6808510638297872
aF1.7234042553191489
aF5.404255319148936
aF-1.2765957446808511
aF0.3404255319148936
aI4
aI27
aa(lp235
F20.064102564102566
aF1.3717948717948718
aF3.8846153846153846
aF0.3371153846153846
aF0.8974358974358975
aF2.4358974358974357
aF0.3583205128205128
aF0.3333333333333333
aF0.38461538461538464
aF0.14957692307692308
aF0.24358974358974358
aF1.7435897435897436
aF1.9871794871794872
aF2.1538461538461537
aF0.5128205128205128
aF0.038461538461538464
aF0.9230769230769231
aF1.2564102564102564
aF3.9743589743589745
aF1.0384615384615385
aF0.7051282051282052
aI7
aI30
aa(lp236
F29.532467532467532
aF4.558441558441558
aF10.220779220779221
aF0.44109090909090926
aF0.025974025974025976
aF0.19480519480519481
aF0.01948051948051948
aF2.5194805194805197
aF3.4155844155844157
aF0.6242597402597403
aF1.2987012987012987
aF4.116883116883117
aF5.415584415584416
aF1.155844155844156
aF1.0
aF0.38961038961038963
aF1.103896103896104
aF2.961038961038961
aF11.662337662337663
aF1.6753246753246753
aF0.6883116883116883
aI3
aI24
aa(lp237
F4.565217391304348
aF0.4782608695652174
aF1.6521739130434783
aF0.18982608695652176
aF0.043478260869565216
aF0.4782608695652174
aF0.021739130434782608
aF0.08695652173913043
aF0.30434782608695654
aF0.06521739130434782
aF0.13043478260869565
aF0.6956521739130435
aF0.8260869565217391
aF0.13043478260869565
aF0.08695652173913043
aF0.08695652173913043
aF0.21739130434782608
aF0.5652173913043478
aF1.0869565217391304
aF-1.1304347826086956
aF0.4782608695652174
aI0
aI21
aa(lp238
F19.571428571428573
aF2.9
aF6.128571428571429
aF0.47190000000000004
aF0.05714285714285714
aF0.37142857142857144
aF0.03571428571428571
aF1.542857142857143
aF2.0
aF0.44318571428571435
aF0.8
aF2.2142857142857144
aF3.0142857142857142
aF0.8857142857142857
aF0.5
aF0.17142857142857143
aF0.9
aF2.0285714285714285
aF7.4
aF-2.1285714285714286
aF0.2857142857142857
aI3
aI27
aa(lp239
F34.74683544303797
aF6.30379746835443
aF12.746835443037975
aF0.4940886075949369
aF1.3670886075949367
aF3.6962025316455698
aF0.3461012658227848
aF4.848101265822785
aF5.6455696202531644
aF0.8475569620253162
aF0.43037974683544306
aF4.924050632911392
aF5.3544303797468356
aF3.2658227848101267
aF0.9873417721518988
aF0.6455696202531646
aF2.1139240506329116
aF2.8734177215189876
aF18.82278481012658
aF7.493670886075949
aF0.6962025316455697
aI12
aI33
aa(lp240
F19.518987341772153
aF1.5949367088607596
aF3.8354430379746836
aF0.37441772151898733
aF0.45569620253164556
aF1.3417721518987342
aF0.1841772151898734
aF0.6708860759493671
aF1.0126582278481013
aF0.2231012658227848
aF0.6582278481012658
aF1.620253164556962
aF2.278481012658228
aF3.4683544303797467
aF0.7468354430379747
aF0.21518987341772153
aF1.4177215189873418
aF1.8354430379746836
aF4.3164556962025316
aF0.1518987341772152
aF0.45569620253164556
aI9
aI31
aa(lp241
F27.24074074074074
aF5.296296296296297
aF12.333333333333334
aF0.4070555555555555
aF1.0185185185185186
aF2.6666666666666665
aF0.3498703703703704
aF2.611111111111111
aF3.074074074074074
aF0.6565370370370369
aF0.4444444444444444
aF1.8148148148148149
aF2.259259259259259
aF3.037037037037037
aF0.7222222222222222
aF0.037037037037037035
aF1.6111111111111112
aF1.6851851851851851
aF14.222222222222221
aF-2.9444444444444446
aF0.3333333333333333
aI11
aI32
aa(lp242
F6.592592592592593
aF0.2222222222222222
aF0.7407407407407407
aF0.09259259259259259
aF0.0
aF0.0
aF0.0
aF0.25925925925925924
aF0.37037037037037035
aF0.10185185185185185
aF0.5185185185185185
aF0.37037037037037035
aF0.8888888888888888
aF0.07407407407407407
aF0.14814814814814814
aF0.037037037037037035
aF0.25925925925925924
aF1.0740740740740742
aF0.7037037037037037
aF0.037037037037037035
aF0.37037037037037035
aI9
aI32
aa(lp243
F21.1125
aF3.2625
aF6.9875
aF0.4647125000000001
aF0.1125
aF0.4625
aF0.08125
aF0.5875
aF1.1
aF0.222675
aF1.6
aF4.15
aF5.75
aF1.5
aF0.35
aF0.8625
aF1.1875
aF2.475
aF7.225
aF-0.55
aF0.5125
aI3
aI22
aa(lp244
F18.533333333333335
aF3.0
aF6.65
aF0.42656666666666676
aF0.26666666666666666
aF0.8166666666666667
aF0.145
aF1.7
aF2.033333333333333
aF0.50815
aF0.25
aF0.9833333333333333
aF1.2333333333333334
aF3.216666666666667
aF0.8666666666666667
aF0.06666666666666667
aF1.3666666666666667
aF1.85
aF7.966666666666667
aF-2.716666666666667
aF0.36666666666666664
aI5
aI27
aa(lp245
F33.183098591549296
aF5.901408450704225
aF13.140845070422536
aF0.4479718309859155
aF1.5633802816901408
aF4.464788732394366
aF0.3291126760563379
aF1.7464788732394365
aF2.1690140845070425
aF0.5854084507042253
aF1.056338028169014
aF4.605633802816901
aF5.661971830985915
aF1.647887323943662
aF0.676056338028169
aF1.3098591549295775
aF1.4507042253521127
aF2.7746478873239435
aF15.112676056338028
aF2.492957746478873
aF0.5774647887323944
aI3
aI23
aa(lp246
F20.675
aF2.025
aF5.0
aF0.34542500000000004
aF1.075
aF2.925
aF0.295175
aF0.575
aF0.85
aF0.27835
aF0.925
aF3.65
aF4.575
aF1.25
aF0.5
aF0.05
aF1.025
aF2.15
aF5.7
aF-0.725
aF0.65
aI10
aI30
aa(lp247
F12.675
aF1.4
aF2.4
aF0.46464999999999995
aF0.0
aF0.0
aF0.0
aF0.425
aF0.85
aF0.1575
aF1.45
aF2.575
aF4.025
aF0.375
aF0.25
aF0.3
aF0.75
aF2.275
aF3.225
aF1.0
aF0.525
aI3
aI26
aa(lp248
F30.783783783783782
aF5.378378378378378
aF8.743243243243244
aF0.6188108108108109
aF0.013513513513513514
aF0.06756756756756757
aF0.013513513513513514
aF3.810810810810811
aF5.351351351351352
aF0.702135135135135
aF1.9594594594594594
aF5.72972972972973
aF7.6891891891891895
aF2.0135135135135136
aF1.1081081081081081
aF0.9594594594594594
aF1.7972972972972974
aF3.189189189189189
aF14.58108108108108
aF4.3108108108108105
aF0.6081081081081081
aI8
aI28
aa(lp249
F21.810126582278482
aF2.9367088607594938
aF6.30379746835443
aF0.4839493670886077
aF0.012658227848101266
aF0.10126582278481013
aF0.012658227848101266
aF1.2025316455696202
aF1.7974683544303798
aF0.39282278481012656
aF2.0253164556962027
aF3.670886075949367
aF5.69620253164557
aF0.7341772151898734
aF0.4936708860759494
aF1.3037974683544304
aF0.8860759493670886
aF2.5443037974683542
aF7.0886075949367084
aF3.1139240506329116
aF0.7468354430379747
aI1
aI25
aa(lp250
F13.210526315789474
aF1.2894736842105263
aF3.026315789473684
aF0.3584736842105263
aF0.0
aF0.02631578947368421
aF0.0
aF1.0526315789473684
aF1.5789473684210527
aF0.3815789473684211
aF1.131578947368421
aF1.6842105263157894
aF2.8157894736842106
aF0.7631578947368421
aF0.2631578947368421
aF0.5789473684210527
aF0.868421052631579
aF2.3421052631578947
aF3.6315789473684212
aF-1.6842105263157894
aF0.39473684210526316
aI4
aI26
aa(lp251
F35.925925925925924
aF7.9753086419753085
aF16.098765432098766
aF0.4853333333333334
aF0.0
aF0.0
aF0.0
aF2.7037037037037037
aF3.54320987654321
aF0.6871481481481481
aF2.888888888888889
aF6.790123456790123
aF9.679012345679013
aF1.8024691358024691
aF0.5679012345679012
aF1.876543209876543
aF1.271604938271605
aF2.9012345679012346
aF18.65432098765432
aF-2.2098765432098766
aF0.4691358024691358
aI6
aI25
aa(lp252
F4.583333333333333
aF0.4166666666666667
aF1.5833333333333333
aF0.1875
aF0.0
aF0.0
aF0.0
aF0.4166666666666667
aF0.8333333333333334
aF0.20833333333333334
aF0.4166666666666667
aF1.1666666666666667
aF1.5833333333333333
aF0.0
aF0.08333333333333333
aF0.25
aF0.5
aF0.75
aF1.25
aF0.3333333333333333
aF0.6666666666666666
aI1
aI21
aa(lp253
F34.37096774193548
aF5.758064516129032
aF14.758064516129032
aF0.3729677419354837
aF1.564516129032258
aF4.838709677419355
aF0.30461290322580636
aF3.096774193548387
aF3.838709677419355
aF0.7111290322580645
aF0.6774193548387096
aF3.0
aF3.6774193548387095
aF4.806451612903226
aF1.4516129032258065
aF0.3225806451612903
aF2.306451612903226
aF2.0483870967741935
aF16.177419354838708
aF-1.2419354838709677
aF0.41935483870967744
aI1
aI21
aa(lp254
F22.7
aF2.5
aF5.9625
aF0.3772000000000001
aF0.4
aF1.45
aF0.1902
aF1.225
aF1.65
aF0.3709000000000001
aF0.8375
aF1.9
aF2.7375
aF3.5375
aF1.1125
aF0.3
aF2.3875
aF1.6
aF6.625
aF-2.8125
aF0.3875
aI0
aI21
aa(lp255
F11.714285714285714
aF1.1666666666666667
aF2.261904761904762
aF0.4045
aF0.0
aF0.0
aF0.0
aF0.7142857142857143
aF1.4523809523809523
aF0.26052380952380955
aF1.8333333333333333
aF2.5238095238095237
aF4.357142857142857
aF0.5952380952380952
aF0.47619047619047616
aF0.38095238095238093
aF0.8809523809523809
aF1.8095238095238095
aF3.0476190476190474
aF-0.09523809523809523
aF0.2619047619047619
aI2
aI27
aa(lp256
F16.93220338983051
aF2.169491525423729
aF4.88135593220339
aF0.3780338983050847
aF0.6779661016949152
aF1.7627118644067796
aF0.25286440677966104
aF1.2881355932203389
aF1.5593220338983051
aF0.4104237288135594
aF0.7457627118644068
aF2.9322033898305087
aF3.6779661016949152
aF2.389830508474576
aF0.4745762711864407
aF0.3559322033898305
aF0.864406779661017
aF1.6610169491525424
aF6.305084745762712
aF0.8813559322033898
aF0.5254237288135594
aI12
aI34
aa(lp257
F14.514285714285714
aF0.7142857142857143
aF1.2285714285714286
aF0.3886
aF0.0
aF0.0
aF0.0
aF0.4
aF0.7714285714285715
aF0.18571428571428572
aF1.0571428571428572
aF3.0
aF4.057142857142857
aF0.37142857142857144
aF0.14285714285714285
aF0.42857142857142855
aF0.8
aF2.142857142857143
aF1.8285714285714285
aF-1.9714285714285715
aF0.5142857142857142
aI10
aI31
aa(lp258
F15.133333333333333
aF1.8
aF3.9555555555555557
aF0.38546666666666674
aF0.0
aF0.0
aF0.0
aF0.7555555555555555
aF1.9333333333333333
aF0.2295111111111111
aF1.7555555555555555
aF2.311111111111111
aF4.066666666666666
aF0.37777777777777777
aF0.3111111111111111
aF0.6666666666666666
aF0.5111111111111111
aF1.8888888888888888
aF4.355555555555555
aF-2.022222222222222
aF0.4222222222222222
aI4
aI28
aa(lp259
F17.57894736842105
aF1.6842105263157894
aF3.807017543859649
aF0.35242105263157897
aF0.0
aF0.0
aF0.0
aF0.7192982456140351
aF1.087719298245614
aF0.2704736842105263
aF1.3333333333333333
aF1.7017543859649122
aF3.0350877192982457
aF0.631578947368421
aF0.3157894736842105
aF1.4736842105263157
aF0.8245614035087719
aF2.456140350877193
aF4.087719298245614
aF1.5614035087719298
aF0.47368421052631576
aI0
aI23
aa(lp260
F4.466666666666667
aF0.2
aF1.0666666666666667
aF0.11106666666666666
aF0.0
aF0.0
aF0.0
aF0.13333333333333333
aF0.13333333333333333
aF0.06666666666666667
aF0.2
aF1.2
aF1.4
aF0.2
aF0.0
aF0.26666666666666666
aF0.3333333333333333
aF0.7333333333333333
aF0.5333333333333333
aF-0.3333333333333333
aF0.8666666666666667
aI15
aI35
aa(lp261
F19.583333333333332
aF2.6944444444444446
aF6.666666666666667
aF0.3535
aF0.7777777777777778
aF2.1666666666666665
aF0.22716666666666663
aF1.2222222222222223
aF1.6666666666666667
aF0.38797222222222216
aF0.4166666666666667
aF1.0
aF1.4166666666666667
aF3.0833333333333335
aF0.6944444444444444
aF0.08333333333333333
aF1.7777777777777777
aF1.75
aF7.388888888888889
aF-2.4722222222222223
aF0.2777777777777778
aI6
aI25
aa(lp262
F20.844155844155843
aF2.74025974025974
aF5.987012987012987
aF0.4319740259740259
aF0.012987012987012988
aF0.16883116883116883
aF0.012987012987012988
aF0.5844155844155844
aF0.8051948051948052
aF0.27055844155844155
aF1.2337662337662338
aF2.2857142857142856
aF3.5194805194805197
aF0.5584415584415584
aF0.6883116883116883
aF0.5454545454545454
aF0.6363636363636364
aF2.272727272727273
aF6.077922077922078
aF-1.922077922077922
aF0.4935064935064935
aI1
aI23
aa(lp263
F21.58139534883721
aF2.9767441860465116
aF7.023255813953488
aF0.4115813953488372
aF0.5581395348837209
aF2.0697674418604652
aF0.21586046511627907
aF0.3953488372093023
aF0.6046511627906976
aF0.22674418604651161
aF0.627906976744186
aF2.186046511627907
aF2.813953488372093
aF0.813953488372093
aF0.7906976744186046
aF0.6511627906976745
aF1.0930232558139534
aF1.7906976744186047
aF6.906976744186046
aF-4.930232558139535
aF0.20930232558139536
aI0
aI21
aa(lp264
F9.868852459016393
aF0.8688524590163934
aF1.819672131147541
aF0.3829508196721311
aF0.0
aF0.0
aF0.0
aF0.4262295081967213
aF0.5081967213114754
aF0.20491803278688525
aF0.5573770491803278
aF1.278688524590164
aF1.8360655737704918
aF0.5409836065573771
aF0.32786885245901637
aF0.21311475409836064
aF0.5245901639344263
aF1.360655737704918
aF2.1639344262295084
aF-0.9672131147540983
aF0.5409836065573771
aI7
aI34
aa(lp265
F9.942857142857143
aF0.7428571428571429
aF1.6571428571428573
aF0.3057142857142857
aF0.0
aF0.08571428571428572
aF0.0
aF0.14285714285714285
aF0.4
aF0.05714285714285714
aF0.2857142857142857
aF0.5714285714285714
aF0.8571428571428571
aF0.2857142857142857
aF0.08571428571428572
aF0.17142857142857143
aF0.2
aF1.1142857142857143
aF1.6285714285714286
aF0.4
aF0.2
aI6
aI29
aa(lp266
F36.07692307692308
aF8.076923076923077
aF17.984615384615385
aF0.44632307692307693
aF1.1846153846153846
aF3.4307692307692306
aF0.35695384615384607
aF4.415384615384616
aF5.384615384615385
aF0.7922153846153848
aF1.123076923076923
aF4.123076923076923
aF5.246153846153846
aF1.8307692307692307
aF0.5230769230769231
aF0.7076923076923077
aF2.3230769230769233
aF2.4461538461538463
aF21.753846153846155
aF-4.569230769230769
aF0.2923076923076923
aI4
aI25
aa(lp267
F25.29113924050633
aF4.151898734177215
aF7.430379746835443
aF0.5271898734177217
aF0.012658227848101266
aF0.05063291139240506
aF0.012658227848101266
aF1.759493670886076
aF2.4050632911392404
aF0.4693037974683545
aF1.8227848101265822
aF6.0
aF7.822784810126582
aF0.8734177215189873
aF0.45569620253164556
aF1.1518987341772151
aF1.0
aF2.329113924050633
aF10.075949367088608
aF0.13924050632911392
aF0.5316455696202531
aI3
aI26
aa(lp268
F33.32432432432432
aF5.351351351351352
aF10.824324324324325
aF0.5043783783783784
aF1.0945945945945945
aF2.77027027027027
aF0.3688378378378377
aF3.0405405405405403
aF3.3378378378378377
aF0.7984594594594594
aF0.527027027027027
aF2.9594594594594597
aF3.4864864864864864
aF11.41891891891892
aF0.6351351351351351
aF0.04054054054054054
aF3.5675675675675675
aF1.162162162162162
aF14.837837837837839
aF3.7432432432432434
aF0.5135135135135135
aI14
aI36
aa(lp269
F34.68421052631579
aF6.5131578947368425
aF13.657894736842104
aF0.46557894736842115
aF0.6710526315789473
aF2.026315789473684
aF0.31314473684210514
aF3.013157894736842
aF4.157894736842105
aF0.6197763157894736
aF1.763157894736842
aF6.868421052631579
aF8.631578947368421
aF3.3552631578947367
aF1.3026315789473684
aF1.5789473684210527
aF2.5789473684210527
aF2.8552631578947367
aF16.710526315789473
aF1.1710526315789473
aF0.5657894736842105
aI6
aI25
aa(lp270
F19.767857142857142
aF2.5535714285714284
aF6.482142857142857
aF0.3280892857142856
aF1.5178571428571428
aF4.178571428571429
aF0.30319642857142864
aF0.6964285714285714
aF1.0178571428571428
aF0.24076785714285714
aF0.26785714285714285
aF1.9821428571428572
aF2.25
aF0.5892857142857143
aF0.5178571428571429
aF0.3392857142857143
aF0.6964285714285714
aF1.8035714285714286
aF7.321428571428571
aF-0.39285714285714285
aF0.5714285714285714
aI7
aI28
aa(lp271
F7.0344827586206895
aF1.206896551724138
aF2.2758620689655173
aF0.36058620689655174
aF0.896551724137931
aF1.5517241379310345
aF0.3847931034482759
aF0.27586206896551724
aF0.27586206896551724
aF0.13793103448275862
aF0.13793103448275862
aF0.8275862068965517
aF0.9655172413793104
aF0.10344827586206896
aF0.034482758620689655
aF0.13793103448275862
aF0.13793103448275862
aF0.4827586206896552
aF3.586206896551724
aF-1.4482758620689655
aF0.6206896551724138
aI4
aI27
aa(lp272
F21.92063492063492
aF3.5238095238095237
aF8.206349206349206
aF0.3889047619047618
aF2.0793650793650795
aF5.333333333333333
aF0.3443333333333334
aF1.4603174603174602
aF1.8095238095238095
aF0.5086190476190476
aF1.9841269841269842
aF3.5396825396825395
aF5.523809523809524
aF0.8253968253968254
aF0.4603174603174603
aF0.5873015873015873
aF0.7777777777777778
aF2.1587301587301586
aF10.587301587301587
aF4.0476190476190474
aF0.6666666666666666
aI2
aI22
aa(lp273
F34.98550724637681
aF7.478260869565218
aF14.710144927536232
aF0.5033913043478263
aF0.028985507246376812
aF0.13043478260869565
aF0.028985507246376812
aF3.753623188405797
aF4.6521739130434785
aF0.7056666666666667
aF2.217391304347826
aF5.405797101449275
aF7.6231884057971016
aF2.3768115942028984
aF0.9565217391304348
aF0.8840579710144928
aF2.028985507246377
aF2.869565217391304
aF18.73913043478261
aF2.1739130434782608
aF0.5652173913043478
aI7
aI30
aa(lp274
F29.19753086419753
aF3.197530864197531
aF7.987654320987654
aF0.3922222222222223
aF1.0123456790123457
aF2.814814814814815
aF0.3183333333333333
aF1.0987654320987654
aF1.6296296296296295
aF0.4039012345679012
aF1.2345679012345678
aF2.0
aF3.234567901234568
aF2.123456790123457
aF1.4814814814814814
aF0.43209876543209874
aF1.0617283950617284
aF2.197530864197531
aF8.506172839506172
aF5.172839506172839
aF0.691358024691358
aI11
aI31
aa(lp275
F4.363636363636363
aF0.2727272727272727
aF1.1818181818181819
aF0.11363636363636363
aF0.0
aF0.0
aF0.0
aF0.0
aF0.18181818181818182
aF0.0
aF0.5454545454545454
aF0.5454545454545454
aF1.0909090909090908
aF0.18181818181818182
aF0.18181818181818182
aF0.0
aF0.18181818181818182
aF0.45454545454545453
aF0.5454545454545454
aF0.2727272727272727
aF0.09090909090909091
aI0
aI22
aa(lp276
F32.922077922077925
aF6.064935064935065
aF12.883116883116884
aF0.4626883116883118
aF0.4155844155844156
aF1.2207792207792207
aF0.24155844155844158
aF1.5324675324675325
aF2.1818181818181817
aF0.47763636363636364
aF1.0129870129870129
aF3.2467532467532467
aF4.259740259740259
aF2.792207792207792
aF0.38961038961038963
aF0.5324675324675324
aF1.0649350649350648
aF1.1688311688311688
aF14.077922077922079
aF-1.896103896103896
aF0.36363636363636365
aI8
aI30
aa(lp277
F18.365079365079364
aF1.873015873015873
aF4.253968253968254
aF0.373095238095238
aF0.47619047619047616
aF1.0793650793650793
aF0.24073015873015874
aF0.6031746031746031
aF0.7142857142857143
aF0.21636507936507937
aF0.31746031746031744
aF1.2698412698412698
aF1.5873015873015872
aF1.9206349206349207
aF0.31746031746031744
aF0.015873015873015872
aF0.8888888888888888
aF1.1111111111111112
aF4.825396825396825
aF1.5714285714285714
aF0.6666666666666666
aI9
aI31
aa(lp278
F36.05555555555556
aF6.805555555555555
aF13.402777777777779
aF0.503861111111111
aF0.013888888888888888
aF0.041666666666666664
aF0.013888888888888888
aF2.9027777777777777
aF3.6666666666666665
aF0.7157222222222223
aF3.0
aF6.833333333333333
aF9.833333333333334
aF3.2083333333333335
aF0.9861111111111112
aF0.4166666666666667
aF2.3333333333333335
aF2.9027777777777777
aF16.52777777777778
aF-1.9027777777777777
aF0.4722222222222222
aI5
aI27
aa(lp279
F33.60493827160494
aF4.851851851851852
aF11.666666666666666
aF0.40476543209876525
aF1.3580246913580247
aF4.061728395061729
aF0.3039259259259258
aF3.271604938271605
aF3.617283950617284
aF0.8267037037037036
aF0.4691358024691358
aF2.2839506172839505
aF2.753086419753086
aF6.061728395061729
aF0.654320987654321
aF0.037037037037037035
aF1.9012345679012346
aF1.8641975308641976
aF14.333333333333334
aF-3.1728395061728394
aF0.4074074074074074
aI2
aI23
aa(lp280
F9.070175438596491
aF1.0701754385964912
aF2.56140350877193
aF0.30891228070175436
aF0.2807017543859649
aF1.0701754385964912
aF0.12428070175438596
aF0.5614035087719298
aF0.6666666666666666
aF0.2251578947368421
aF0.12280701754385964
aF0.631578947368421
aF0.7543859649122807
aF0.5263157894736842
aF0.2982456140350877
aF0.08771929824561403
aF0.2807017543859649
aF0.6666666666666666
aF2.982456140350877
aF0.15789473684210525
aF0.7719298245614035
aI5
aI25
aa(lp281
F7.470588235294118
aF0.5882352941176471
aF1.0588235294117647
aF0.3333529411764706
aF0.0
aF0.0
aF0.0
aF0.4117647058823529
aF0.8235294117647058
aF0.17647058823529413
aF0.7058823529411765
aF1.7647058823529411
aF2.4705882352941178
aF0.17647058823529413
aF0.11764705882352941
aF0.11764705882352941
aF0.23529411764705882
aF1.2941176470588236
aF1.588235294117647
aF-0.5294117647058824
aF0.7647058823529411
aI10
aI32
aa(lp282
F26.453333333333333
aF4.546666666666667
aF9.053333333333333
aF0.50424
aF0.0
aF0.05333333333333334
aF0.0
aF2.8133333333333335
aF3.8133333333333335
aF0.6532933333333334
aF2.2
aF2.3866666666666667
aF4.586666666666667
aF0.8266666666666667
aF0.5333333333333333
aF0.4266666666666667
aF1.4533333333333334
aF2.56
aF11.906666666666666
aF-2.0533333333333332
aF0.3333333333333333
aI3
aI27
aa(lp283
F4.6
aF0.26666666666666666
aF0.3333333333333333
aF0.2
aF0.0
aF0.0
aF0.0
aF0.4
aF0.8
aF0.2
aF0.06666666666666667
aF0.3333333333333333
aF0.4
aF0.0
aF0.13333333333333333
aF0.2
aF0.2
aF1.0
aF0.9333333333333333
aF-1.6
aF0.2
aI0
aI23
aa(lp284
F28.97530864197531
aF2.7777777777777777
aF6.185185185185185
aF0.4448888888888887
aF1.2469135802469136
aF3.246913580246914
aF0.337716049382716
aF0.7407407407407407
aF1.0864197530864197
aF0.2693456790123457
aF1.0864197530864197
aF3.419753086419753
aF4.506172839506172
aF2.246913580246914
aF0.8518518518518519
aF1.0
aF0.9506172839506173
aF1.9382716049382716
aF7.54320987654321
aF2.419753086419753
aF0.5185185185185185
aI9
aI32
aa(lp285
F26.2375
aF4.425
aF9.5375
aF0.44345
aF0.0375
aF0.175
aF0.03125
aF4.2125
aF5.1375
aF0.7223125
aF0.5625
aF2.575
aF3.1375
aF5.2
aF0.75
aF0.1
aF2.1625
aF1.1375
aF13.1
aF-6.1875
aF0.225
aI3
aI24
aa(lp286
F22.225352112676056
aF2.9295774647887325
aF5.380281690140845
aF0.5226619718309861
aF0.323943661971831
aF0.8450704225352113
aF0.14319718309859156
aF1.2253521126760563
aF1.6619718309859155
aF0.47992957746478876
aF1.5352112676056338
aF3.7746478873239435
aF5.309859154929577
aF2.112676056338028
aF0.6619718309859155
aF0.7887323943661971
aF1.295774647887324
aF2.295774647887324
aF7.408450704225352
aF0.8309859154929577
aF0.4788732394366197
aI3
aI23
aa(lp287
F34.675
aF6.225
aF12.1
aF0.5176124999999998
aF0.0
aF0.0125
aF0.0
aF2.6625
aF3.4125
aF0.6711249999999999
aF2.9375
aF5.4125
aF8.35
aF1.475
aF1.15
aF1.3
aF1.2625
aF3.025
aF15.1125
aF1.775
aF0.5125
aI11
aI31
aa(lp288
F24.24137931034483
aF3.913793103448276
aF8.810344827586206
aF0.4043275862068967
aF0.29310344827586204
aF1.0517241379310345
aF0.1422241379310345
aF1.2413793103448276
aF1.603448275862069
aF0.4037586206896552
aF0.6724137931034483
aF1.9482758620689655
aF2.6206896551724137
aF1.793103448275862
aF0.5862068965517241
aF0.034482758620689655
aF1.4482758620689655
aF1.4827586206896552
aF9.362068965517242
aF-5.827586206896552
aF0.29310344827586204
aI2
aI24
aa(lp289
F16.963636363636365
aF2.0727272727272728
aF5.345454545454546
aF0.30661818181818185
aF1.1090909090909091
aF2.9454545454545453
aF0.2833272727272727
aF0.6909090909090909
aF0.7272727272727273
aF0.3409090909090909
aF0.16363636363636364
aF1.509090909090909
aF1.6727272727272726
aF1.1090909090909091
aF0.5818181818181818
aF0.05454545454545454
aF0.4909090909090909
aF1.2181818181818183
aF5.945454545454545
aF1.6545454545454545
aF0.6909090909090909
aI10
aI32
aa(lp290
F37.765625
aF6.59375
aF15.0
aF0.42784374999999997
aF1.609375
aF4.859375
aF0.3069062499999998
aF5.375
aF6.328125
aF0.803921875
aF0.59375
aF3.40625
aF4.0
aF10.09375
aF1.203125
aF0.21875
aF3.5625
aF2.9375
aF20.171875
aF-1.90625
aF0.5
aI5
aI26
aa(lp291
F25.55072463768116
aF3.869565217391304
aF10.521739130434783
aF0.34544927536231873
aF1.391304347826087
aF4.695652173913044
aF0.2575652173913044
aF1.7391304347826086
aF2.217391304347826
aF0.49068115942028984
aF0.3188405797101449
aF2.391304347826087
aF2.710144927536232
aF3.971014492753623
aF1.0579710144927537
aF0.30434782608695654
aF2.550724637681159
aF2.681159420289855
aF10.869565217391305
aF-0.028985507246376812
aF0.5072463768115942
aI9
aI28
aa(lp292
F35.76315789473684
aF8.894736842105264
aF19.526315789473685
aF0.457078947368421
aF1.236842105263158
aF3.223684210526316
aF0.29748684210526316
aF6.618421052631579
aF7.907894736842105
aF0.8199736842105263
aF1.5526315789473684
aF5.7894736842105265
aF7.342105263157895
aF2.8815789473684212
aF0.881578947368421
aF0.5789473684210527
aF2.6710526315789473
aF2.9078947368421053
aF25.644736842105264
aF2.6184210526315788
aF0.5657894736842105
aI7
aI26
aa(lp293
F32.388888888888886
aF7.611111111111111
aF16.930555555555557
aF0.4394027777777778
aF0.8055555555555556
aF2.1944444444444446
aF0.32148611111111103
aF2.9583333333333335
aF3.9583333333333335
aF0.642638888888889
aF1.6111111111111112
aF3.9722222222222223
aF5.583333333333333
aF2.1666666666666665
aF0.7222222222222222
aF0.7222222222222222
aF2.6666666666666665
aF3.0277777777777777
aF18.98611111111111
aF-3.8194444444444446
aF0.19444444444444445
aI2
aI21
aa(lp294
F11.985507246376812
aF1.2753623188405796
aF3.217391304347826
aF0.38088405797101454
aF0.3333333333333333
aF1.2173913043478262
aF0.22705797101449274
aF0.4782608695652174
aF0.6231884057971014
aF0.25265217391304345
aF0.17391304347826086
aF0.8840579710144928
aF1.0579710144927537
aF2.130434782608696
aF0.3188405797101449
aF0.057971014492753624
aF0.9855072463768116
aF1.1884057971014492
aF3.36231884057971
aF-0.8405797101449275
aF0.5942028985507246
aI0
aI23
aa(lp295
F5.0
aF0.3333333333333333
aF1.5
aF0.08333333333333333
aF0.16666666666666666
aF0.5
aF0.08333333333333333
aF0.8333333333333334
aF1.0
aF0.4166666666666667
aF0.16666666666666666
aF0.8333333333333334
aF1.0
aF0.3333333333333333
aF0.0
aF0.3333333333333333
aF0.3333333333333333
aF0.16666666666666666
aF1.6666666666666667
aF-0.16666666666666666
aF0.8333333333333334
aI15
aI36
aa(lp296
F35.421052631578945
aF6.7368421052631575
aF12.06578947368421
aF0.5557236842105262
aF0.02631578947368421
aF0.05263157894736842
aF0.02631578947368421
aF1.9736842105263157
aF2.473684210526316
aF0.568763157894737
aF2.3947368421052633
aF7.0131578947368425
aF9.407894736842104
aF3.5
aF0.7631578947368421
aF1.0526315789473684
aF1.5394736842105263
aF2.526315789473684
aF15.473684210526315
aF0.8552631578947368
aF0.5394736842105263
aI3
aI24
aa(lp297
F21.92753623188406
aF4.072463768115942
aF8.73913043478261
aF0.4160144927536233
aF0.0
aF0.028985507246376812
aF0.0
aF2.8405797101449277
aF3.652173913043478
aF0.6218260869565219
aF2.072463768115942
aF3.1449275362318843
aF5.217391304347826
aF0.5797101449275363
aF0.5217391304347826
aF0.21739130434782608
aF1.0579710144927537
aF2.289855072463768
aF10.985507246376812
aF-1.536231884057971
aF0.4927536231884058
aI1
aI25
aa(lp298
F14.4
aF1.525
aF2.65
aF0.509
aF0.0
aF0.0
aF0.0
aF0.9
aF1.4
aF0.249175
aF0.925
aF2.025
aF2.95
aF0.475
aF0.375
aF0.6
aF0.825
aF2.5
aF3.95
aF-0.675
aF0.75
aI0
aI24
aa(lp299
F32.1578947368421
aF4.842105263157895
aF10.701754385964913
aF0.4317368421052631
aF1.912280701754386
aF4.473684210526316
aF0.416
aF1.6842105263157894
aF1.8771929824561404
aF0.5478947368421053
aF0.6491228070175439
aF2.3684210526315788
aF3.017543859649123
aF1.1754385964912282
aF0.3157894736842105
aF0.12280701754385964
aF0.9473684210526315
aF2.3684210526315788
aF13.280701754385966
aF-1.9649122807017543
aF0.2982456140350877
aI2
aI25
aa(lp300
F19.8
aF1.6
aF3.4
aF0.3998
aF0.2
aF0.8
aF0.1
aF0.6
aF1.0
aF0.2334
aF0.4
aF1.4
aF1.8
aF1.4
aF1.0
aF0.0
aF0.4
aF2.4
aF4.0
aF-3.0
aF0.2
aI3
aI26
aa(lp301
F7.555555555555555
aF0.1111111111111111
aF0.6666666666666666
aF0.1111111111111111
aF0.0
aF0.0
aF0.0
aF0.0
aF0.2222222222222222
aF0.0
aF0.6666666666666666
aF0.7777777777777778
aF1.4444444444444444
aF0.3333333333333333
aF0.2222222222222222
aF0.5555555555555556
aF0.3333333333333333
aF0.7777777777777778
aF0.2222222222222222
aF-2.2222222222222223
aF1.0
aI15
aI37
aa(lp302
F35.18518518518518
aF7.851851851851852
aF15.950617283950617
aF0.4816172839506172
aF0.0
aF0.012345679012345678
aF0.0
aF4.7407407407407405
aF6.0246913580246915
aF0.7550740740740739
aF2.419753086419753
aF3.5555555555555554
aF5.9753086419753085
aF1.5925925925925926
aF0.5802469135802469
aF1.4567901234567902
aF2.1481481481481484
aF2.925925925925926
aF20.444444444444443
aF-3.7160493827160495
aF0.2962962962962963
aI2
aI22
aa(lp303
F14.64
aF1.52
aF4.8
aF0.29059999999999997
aF0.4
aF1.6
aF0.24332
aF0.36
aF0.48
aF0.19
aF0.28
aF1.64
aF1.92
aF0.88
aF0.36
aF0.12
aF0.64
aF1.24
aF3.8
aF-3.08
aF0.24
aI2
aI27
aa(lp304
F27.734177215189874
aF3.7974683544303796
aF6.8354430379746836
aF0.5374303797468352
aF0.0
aF0.012658227848101266
aF0.0
aF1.7848101265822784
aF2.8734177215189876
aF0.44112658227848106
aF3.1392405063291138
aF4.30379746835443
aF7.443037974683544
aF1.2911392405063291
aF1.1645569620253164
aF0.569620253164557
aF1.0126582278481013
aF2.4177215189873418
aF9.379746835443038
aF-1.8227848101265822
aF0.3670886075949367
aI0
aI20
aa(lp305
F36.95061728395062
aF7.222222222222222
aF13.62962962962963
aF0.535246913580247
aF0.012345679012345678
aF0.037037037037037035
aF0.006172839506172839
aF4.345679012345679
aF5.283950617283951
aF0.80979012345679
aF3.2962962962962963
aF6.864197530864198
aF10.160493827160494
aF3.2962962962962963
aF0.5802469135802469
aF1.5925925925925926
aF1.7407407407407407
aF2.4444444444444446
aF18.80246913580247
aF6.395061728395062
aF0.691358024691358
aI9
aI30
aa(lp306
F9.444444444444445
aF0.6666666666666666
aF2.388888888888889
aF0.2101666666666667
aF0.3333333333333333
aF1.1666666666666667
aF0.1573888888888889
aF0.1111111111111111
aF0.2222222222222222
aF0.05555555555555555
aF0.3333333333333333
aF0.6666666666666666
aF1.0
aF0.7222222222222222
aF0.3333333333333333
aF0.05555555555555555
aF0.3333333333333333
aF0.6666666666666666
aF1.7777777777777777
aF0.2222222222222222
aF0.3888888888888889
aI9
aI31
aa(lp307
F31.614285714285714
aF4.814285714285714
aF11.371428571428572
aF0.42252857142857125
aF0.8
aF2.4714285714285715
aF0.2617285714285715
aF4.685714285714286
aF5.628571428571429
aF0.8174571428571428
aF0.22857142857142856
aF2.157142857142857
aF2.3857142857142857
aF7.1
aF0.9857142857142858
aF0.1
aF2.9
aF2.3
aF15.114285714285714
aF-3.1285714285714286
aF0.32857142857142857
aI6
aI27
aa(lp308
F24.63235294117647
aF3.9705882352941178
aF8.455882352941176
aF0.43042647058823524
aF0.0
aF0.0
aF0.0
aF0.9411764705882353
aF1.6911764705882353
aF0.3477794117647059
aF1.9411764705882353
aF3.323529411764706
aF5.264705882352941
aF1.5147058823529411
aF0.7941176470588235
aF2.0441176470588234
aF2.2058823529411766
aF3.3676470588235294
aF8.882352941176471
aF-3.4558823529411766
aF0.22058823529411764
aI7
aI25
aa(lp309
F26.55263157894737
aF4.657894736842105
aF10.526315789473685
aF0.42055263157894734
aF1.0
aF3.3947368421052633
aF0.2288684210526316
aF1.0526315789473684
aF1.6578947368421053
aF0.40221052631578946
aF0.9736842105263158
aF3.6315789473684212
aF4.605263157894737
aF1.0263157894736843
aF0.47368421052631576
aF0.18421052631578946
aF1.6842105263157894
aF2.5
aF11.368421052631579
aF-1.0263157894736843
aF0.3157894736842105
aI5
aI25
aa(lp310
F28.253333333333334
aF3.7733333333333334
aF8.306666666666667
aF0.44302666666666674
aF1.0266666666666666
aF2.6933333333333334
aF0.34704
aF3.04
aF3.52
aF0.73492
aF0.30666666666666664
aF2.3066666666666666
aF2.6133333333333333
aF2.533333333333333
aF0.88
aF0.28
aF1.32
aF2.013333333333333
aF11.613333333333333
aF3.72
aF0.7466666666666667
aI2
aI24
aa(lp311
F24.915254237288135
aF3.6610169491525424
aF8.457627118644067
aF0.3992372881355932
aF0.5932203389830508
aF2.016949152542373
aF0.24632203389830507
aF1.5254237288135593
aF1.7118644067796611
aF0.48315254237288136
aF1.7457627118644068
aF4.288135593220339
aF6.033898305084746
aF0.9491525423728814
aF0.8305084745762712
aF0.3728813559322034
aF1.0677966101694916
aF2.6610169491525424
aF9.440677966101696
aF0.8135593220338984
aF0.4067796610169492
aI4
aI23
aa(lp312
F34.17567567567568
aF4.621621621621622
aF10.783783783783784
aF0.4080675675675675
aF1.7162162162162162
aF4.554054054054054
aF0.33304054054054055
aF2.5945945945945947
aF3.391891891891892
aF0.6230270270270271
aF1.1891891891891893
aF2.9594594594594597
aF4.148648648648648
aF6.675675675675675
aF1.3783783783783783
aF0.3108108108108108
aF2.108108108108108
aF2.7432432432432434
aF13.554054054054054
aF4.405405405405405
aF0.5405405405405406
aI4
aI24
aa(lp313
F31.25
aF3.9625
aF8.9125
aF0.44036250000000016
aF1.575
aF3.8375
aF0.37011249999999996
aF1.3
aF1.925
aF0.43276249999999994
aF0.5625
aF3.825
aF4.3875
aF4.25
aF0.9
aF0.425
aF1.5875
aF3.0875
aF10.8
aF3.8
aF0.5875
aI10
aI31
aa(lp314
F28.734177215189874
aF3.1012658227848102
aF7.189873417721519
aF0.405278481012658
aF1.9240506329113924
aF4.367088607594937
aF0.4093291139240506
aF0.4936708860759494
aF0.7848101265822784
aF0.2141392405063291
aF0.21518987341772153
aF2.240506329113924
aF2.4556962025316458
aF3.3417721518987342
aF0.620253164556962
aF0.11392405063291139
aF1.2278481012658229
aF2.2151898734177213
aF8.620253164556962
aF2.240506329113924
aF0.6075949367088608
aI12
aI32
aa(lp315
F30.696202531645568
aF5.582278481012659
aF12.873417721518987
aF0.43464556962025314
aF1.9493670886075949
aF5.582278481012659
aF0.3216202531645569
aF4.518987341772152
aF5.189873417721519
aF0.7848227848101267
aF0.5316455696202531
aF3.2025316455696204
aF3.7341772151898733
aF4.962025316455696
aF1.5569620253164558
aF0.35443037974683544
aF2.2025316455696204
aF2.0632911392405062
aF17.632911392405063
aF6.810126582278481
aF0.7721518987341772
aI8
aI33
aa(lp316
F32.36486486486486
aF4.891891891891892
aF10.905405405405405
aF0.44656756756756727
aF0.8648648648648649
aF2.8378378378378377
aF0.27478378378378376
aF2.6486486486486487
aF3.27027027027027
aF0.6419324324324325
aF0.972972972972973
aF3.7837837837837838
aF4.756756756756757
aF1.4189189189189189
aF0.7027027027027027
aF0.5
aF1.2972972972972974
aF2.7837837837837838
aF13.297297297297296
aF-0.14864864864864866
aF0.5945945945945946
aI3
aI24
aa(lp317
F14.236842105263158
aF1.75
aF3.986842105263158
aF0.3949078947368422
aF0.0
aF0.02631578947368421
aF0.0
aF0.7763157894736842
aF0.9210526315789473
aF0.3432105263157895
aF1.1710526315789473
aF1.9605263157894737
aF3.1315789473684212
aF0.4605263157894737
aF0.34210526315789475
aF0.42105263157894735
aF0.6842105263157895
aF1.9342105263157894
aF4.276315789473684
aF0.15789473684210525
aF0.5789473684210527
aI3
aI24
aa(lp318
F15.873239436619718
aF2.23943661971831
aF4.394366197183099
aF0.4308732394366196
aF0.0
aF0.014084507042253521
aF0.0
aF0.4647887323943662
aF0.5915492957746479
aF0.22652112676056335
aF1.4788732394366197
aF2.507042253521127
aF3.9859154929577465
aF0.3380281690140845
aF0.323943661971831
aF0.8169014084507042
aF0.7183098591549296
aF2.563380281690141
aF4.943661971830986
aF3.0
aF0.704225352112676
aI13
aI35
aa(lp319
F40.35849056603774
aF7.622641509433962
aF16.264150943396228
aF0.46588679245283005
aF1.0754716981132075
aF2.69811320754717
aF0.3413962264150942
aF3.641509433962264
aF4.471698113207547
aF0.7399245283018867
aF1.509433962264151
aF4.754716981132075
aF6.264150943396227
aF2.8679245283018866
aF1.6981132075471699
aF1.0943396226415094
aF2.547169811320755
aF2.452830188679245
aF19.962264150943398
aF2.2830188679245285
aF0.5471698113207547
aI4
aI24
aa(lp320
F31.2
aF6.071428571428571
aF11.528571428571428
aF0.5276142857142856
aF0.0
aF0.05714285714285714
aF0.0
aF2.642857142857143
aF3.0428571428571427
aF0.6965428571428571
aF1.1857142857142857
aF7.771428571428571
aF8.957142857142857
aF2.414285714285714
aF1.3285714285714285
aF0.8142857142857143
aF1.6142857142857143
aF2.085714285714286
aF14.785714285714286
aF7.928571428571429
aF0.7
aI15
aI34
aa(lp321
F20.037974683544302
aF3.240506329113924
aF7.012658227848101
aF0.4176202531645569
aF1.240506329113924
aF2.949367088607595
aF0.34584810126582266
aF1.2658227848101267
aF1.6962025316455696
aF0.3778227848101266
aF0.569620253164557
aF2.0759493670886076
aF2.6455696202531644
aF1.4683544303797469
aF0.34177215189873417
aF0.0379746835443038
aF0.7088607594936709
aF1.5443037974683544
aF8.987341772151899
aF-1.139240506329114
aF0.4430379746835443
aI1
aI24
aa(lp322
F16.06
aF1.0
aF1.68
aF0.46004000000000006
aF0.0
aF0.02
aF0.0
aF0.46
aF0.86
aF0.175
aF1.04
aF2.46
aF3.5
aF0.44
aF0.28
aF0.9
aF0.64
aF1.64
aF2.46
aF2.34
aF0.72
aI14
aI35
aa(lp323
F27.871794871794872
aF4.1923076923076925
aF7.653846153846154
aF0.5424871794871794
aF0.0
aF0.038461538461538464
aF0.0
aF1.7179487179487178
aF2.948717948717949
aF0.4421282051282051
aF2.8461538461538463
aF5.230769230769231
aF8.076923076923077
aF0.48717948717948717
aF0.5256410256410257
aF2.448717948717949
aF1.294871794871795
aF2.948717948717949
aF10.102564102564102
aF-3.0384615384615383
aF0.2948717948717949
aI2
aI22
aa(lp324
F8.409090909090908
aF0.9545454545454546
aF2.3181818181818183
aF0.32513636363636367
aF0.0
aF0.0
aF0.0
aF0.4090909090909091
aF0.7727272727272727
aF0.17500000000000002
aF1.0454545454545454
aF1.5454545454545454
aF2.590909090909091
aF0.45454545454545453
aF0.13636363636363635
aF0.22727272727272727
aF0.3181818181818182
aF1.1818181818181819
aF2.3181818181818183
aF-0.2727272727272727
aF0.2727272727272727
aI0
aI24
aa(lp325
F35.791666666666664
aF6.625
aF14.083333333333334
aF0.45754166666666674
aF1.2222222222222223
aF2.9166666666666665
aF0.31666666666666665
aF5.777777777777778
aF6.791666666666667
aF0.7987361111111109
aF4.541666666666667
aF10.805555555555555
aF15.347222222222221
aF2.513888888888889
aF0.625
aF0.375
aF2.1527777777777777
aF2.0416666666666665
aF20.25
aF-3.5416666666666665
aF0.2361111111111111
aI2
aI22
aa(lp326
F7.6923076923076925
aF0.6153846153846154
aF1.0
aF0.34615384615384615
aF0.0
aF0.0
aF0.0
aF0.6923076923076923
aF0.9230769230769231
aF0.28846153846153844
aF0.3076923076923077
aF1.1538461538461537
aF1.4615384615384615
aF0.15384615384615385
aF0.15384615384615385
aF0.6153846153846154
aF0.6153846153846154
aF1.3076923076923077
aF1.9230769230769231
aF-2.6923076923076925
aF0.7692307692307693
aI0
aI25
aa(lp327
F26.102564102564102
aF3.423076923076923
aF8.653846153846153
aF0.3862564102564103
aF1.3205128205128205
aF3.7051282051282053
aF0.3394743589743588
aF0.8205128205128205
aF1.1794871794871795
aF0.2957564102564103
aF0.6410256410256411
aF2.371794871794872
aF3.0128205128205128
aF1.8717948717948718
aF0.7307692307692307
aF0.6923076923076923
aF1.1923076923076923
aF2.0641025641025643
aF8.987179487179487
aF-2.91025641025641
aF0.21794871794871795
aI0
aI23
aa(lp328
F13.35
aF1.5
aF4.45
aF0.33225
aF0.0
aF0.0
aF0.0
aF0.7
aF1.1
aF0.2333
aF1.4
aF1.75
aF3.15
aF0.4
aF0.4
aF0.3
aF0.65
aF2.1
aF3.7
aF0.05
aF0.5
aI5
aI29
aa(lp329
F11.641509433962264
aF1.679245283018868
aF3.7358490566037736
aF0.405566037735849
aF0.0
aF0.018867924528301886
aF0.0
aF0.5660377358490566
aF0.7169811320754716
aF0.27358490566037735
aF0.9245283018867925
aF1.528301886792453
aF2.452830188679245
aF0.37735849056603776
aF0.09433962264150944
aF0.07547169811320754
aF0.9811320754716981
aF1.4339622641509433
aF3.9245283018867925
aF-2.358490566037736
aF0.5471698113207547
aI5
aI27
aa(lp330
F18.4375
aF1.75
aF3.5
aF0.40575
aF0.0625
aF0.25
aF0.03125
aF1.8125
aF2.75
aF0.39787500000000003
aF1.375
aF2.375
aF3.75
aF1.125
aF1.0
aF0.0
aF0.875
aF1.8125
aF5.375
aF2.125
aF0.5
aI1
aI25
aa(lp331
F19.326923076923077
aF2.519230769230769
aF5.3076923076923075
aF0.46930769230769237
aF0.6538461538461539
aF2.0576923076923075
aF0.2720769230769231
aF1.1153846153846154
aF1.4038461538461537
aF0.4244423076923077
aF1.3653846153846154
aF2.9615384615384617
aF4.326923076923077
aF1.3653846153846154
aF0.75
aF0.4230769230769231
aF1.1153846153846154
aF2.3846153846153846
aF6.8076923076923075
aF0.6730769230769231
aF0.6923076923076923
aI8
aI30
aa(lp332
F10.414634146341463
aF1.4634146341463414
aF3.4390243902439024
aF0.35248780487804876
aF0.07317073170731707
aF0.17073170731707318
aF0.07317073170731707
aF0.8048780487804879
aF1.3658536585365855
aF0.25853658536585367
aF0.7073170731707317
aF0.7560975609756098
aF1.4634146341463414
aF1.6585365853658536
aF0.3170731707317073
aF0.1951219512195122
aF0.5853658536585366
aF0.6829268292682927
aF3.8048780487804876
aF-1.6585365853658536
aF0.14634146341463414
aI0
aI22
aa(lp333
F11.128205128205128
aF1.7692307692307692
aF4.256410256410256
aF0.3086410256410256
aF0.8461538461538461
aF1.9743589743589745
aF0.30125641025641026
aF0.38461538461538464
aF0.6153846153846154
aF0.16666666666666666
aF0.4358974358974359
aF1.9487179487179487
aF2.3846153846153846
aF0.358974358974359
aF0.28205128205128205
aF0.28205128205128205
aF0.6153846153846154
aF1.8717948717948718
aF4.769230769230769
aF-0.6410256410256411
aF0.20512820512820512
aI7
aI30
aa(lp334
F27.835616438356166
aF3.287671232876712
aF7.684931506849315
aF0.400945205479452
aF1.8904109589041096
aF4.698630136986301
aF0.36126027397260274
aF2.0547945205479454
aF2.3013698630136985
aF0.6132328767123288
aF0.2876712328767123
aF1.9863013698630136
aF2.2739726027397262
aF1.0547945205479452
aF0.8356164383561644
aF0.0547945205479452
aF0.8082191780821918
aF1.273972602739726
aF10.520547945205479
aF1.4109589041095891
aF0.547945205479452
aI1
aI23
aa(lp335
F0.0
aF0.0
aF0.0
aF0.0
aF0.0
aF0.0
aF0.0
aF0.0
aF0.0
aF0.0
aF0.0
aF0.0
aF0.0
aF0.0
aF0.0
aF0.0
aF0.0
aF0.0
aF0.0
aF0.0
aF0.0
aa(lp336
F30.98507462686567
aF3.91044776119403
aF8.791044776119403
aF0.4240447761194029
aF0.8507462686567164
aF2.283582089552239
aF0.316910447761194
aF1.2537313432835822
aF1.4776119402985075
aF0.4639402985074627
aF0.44776119402985076
aF2.5522388059701493
aF3.0
aF8.895522388059701
aF1.1940298507462686
aF0.08955223880597014
aF2.1791044776119404
aF2.08955223880597
aF9.925373134328359
aF-2.4029850746268657
aF0.26865671641791045
aI5
aI29
aa(lp337
F15.661971830985916
aF2.4225352112676055
aF4.943661971830986
aF0.4413943661971831
aF0.0
aF0.028169014084507043
aF0.0
aF0.8450704225352113
aF1.1971830985915493
aF0.30915492957746477
aF1.7746478873239437
aF2.492957746478873
aF4.267605633802817
aF0.4084507042253521
aF0.19718309859154928
aF0.7323943661971831
aF0.8591549295774648
aF2.1971830985915495
aF5.690140845070423
aF-2.056338028169014
aF0.5211267605633803
aI1
aI23
aa(lp338
F12.033333333333333
aF0.8666666666666667
aF2.3333333333333335
aF0.26310000000000006
aF0.36666666666666664
aF1.1333333333333333
aF0.17330000000000004
aF0.2
aF0.36666666666666664
aF0.11666666666666667
aF0.4666666666666667
aF1.0
aF1.4666666666666666
aF0.6333333333333333
aF0.36666666666666664
aF0.2
aF0.43333333333333335
aF1.7
aF2.3
aF0.4666666666666667
aF0.43333333333333335
aI10
aI34
aa(lp339
F18.9375
aF1.775
aF4.1875
aF0.38952499999999995
aF1.4875
aF3.5125
aF0.3926624999999999
aF0.75
aF0.9
aF0.34521250000000003
aF0.2875
aF1.6625
aF1.95
aF0.5125
aF0.35
aF0.2375
aF0.25
aF1.5625
aF5.7875
aF2.9375
aF0.7
aI7
aI30
aa(lp340
F0.0
aF0.0
aF0.0
aF0.0
aF0.0
aF0.0
aF0.0
aF0.0
aF0.0
aF0.0
aF0.0
aF0.0
aF0.0
aF0.0
aF0.0
aF0.0
aF0.0
aF0.0
aF0.0
aF0.0
aF0.0
aa(lp341
F14.72549019607843
aF1.5490196078431373
aF3.0392156862745097
aF0.39468627450980387
aF0.0392156862745098
aF0.19607843137254902
aF0.029411764705882353
aF0.43137254901960786
aF0.8431372549019608
aF0.19035294117647059
aF0.9215686274509803
aF1.3333333333333333
aF2.2549019607843137
aF1.1372549019607843
aF0.7647058823529411
aF0.39215686274509803
aF0.8235294117647058
aF0.8823529411764706
aF3.5686274509803924
aF-0.0196078431372549
aF0.17647058823529413
aI3
aI23
aa(lp342
F13.84375
aF1.3125
aF3.1875
aF0.39096875
aF0.34375
aF1.1875
aF0.171875
aF0.1875
aF0.1875
aF0.09375
aF0.21875
aF1.34375
aF1.5625
aF1.96875
aF0.8125
aF0.15625
aF1.125
aF1.5
aF3.15625
aF0.5625
aF0.625
aI11
aI35
aa(lp343
F11.936507936507937
aF2.0317460317460316
aF4.9523809523809526
aF0.3811111111111111
aF0.6825396825396826
aF2.0
aF0.29352380952380946
aF0.49206349206349204
aF0.6507936507936508
aF0.23412698412698413
aF0.2698412698412698
aF0.4603174603174603
aF0.7301587301587301
aF1.6984126984126984
aF0.3968253968253968
aF0.015873015873015872
aF0.9841269841269841
aF0.9682539682539683
aF5.238095238095238
aF-1.492063492063492
aF0.6349206349206349
aI1
aI22
aa(lp344
F14.5
aF2.282608695652174
aF4.543478260869565
aF0.4759782608695653
aF0.0
aF0.043478260869565216
aF0.0
aF1.0
aF1.391304347826087
aF0.3695652173913043
aF0.8913043478260869
aF2.4347826086956523
aF3.3260869565217392
aF0.391304347826087
aF0.2608695652173913
aF0.41304347826086957
aF0.2826086956521739
aF1.608695652173913
aF5.565217391304348
aF-0.8478260869565217
aF0.4782608695652174
aI2
aI24
aa(lp345
F36.857142857142854
aF6.714285714285714
aF16.267857142857142
aF0.3987499999999999
aF0.75
aF2.5535714285714284
aF0.25825
aF3.5535714285714284
aF4.607142857142857
aF0.7118392857142858
aF0.8035714285714286
aF4.0
aF4.803571428571429
aF5.571428571428571
aF1.5
aF0.5178571428571429
aF3.2142857142857144
aF2.517857142857143
aF17.732142857142858
aF-3.4285714285714284
aF0.32142857142857145
aI1
aI21
aa(lp346
F13.595238095238095
aF1.7857142857142858
aF4.166666666666667
aF0.34595238095238096
aF1.4761904761904763
aF3.5714285714285716
aF0.3391190476190476
aF0.38095238095238093
aF0.47619047619047616
aF0.1507857142857143
aF0.16666666666666666
aF1.4761904761904763
aF1.6428571428571428
aF0.40476190476190477
aF0.30952380952380953
aF0.023809523809523808
aF0.38095238095238093
aF1.1666666666666667
aF5.428571428571429
aF2.357142857142857
aF0.7142857142857143
aI3
aI23
aa(lp347
F20.65
aF2.966666666666667
aF6.5
aF0.44184999999999997
aF0.6833333333333333
aF2.283333333333333
aF0.21941666666666668
aF1.2833333333333334
aF1.6833333333333333
aF0.4293333333333334
aF0.6166666666666667
aF3.0833333333333335
aF3.7
aF1.0833333333333333
aF1.0333333333333334
aF0.43333333333333335
aF1.1166666666666667
aF2.1
aF7.9
aF-0.016666666666666666
aF0.48333333333333334
aI0
aI20
aa(lp348
F9.976190476190476
aF0.9523809523809523
aF2.6666666666666665
aF0.26695238095238094
aF0.07142857142857142
aF0.23809523809523808
aF0.03969047619047619
aF0.23809523809523808
aF0.42857142857142855
aF0.10714285714285714
aF0.14285714285714285
aF0.9285714285714286
aF1.0714285714285714
aF1.8095238095238095
aF0.40476190476190477
aF0.047619047619047616
aF0.7142857142857143
aF0.8333333333333334
aF2.2142857142857144
aF-1.2619047619047619
aF0.5
aI0
aI22
aa(lp349
F19.135802469135804
aF3.2962962962962963
aF7.802469135802469
aF0.4018271604938271
aF0.8888888888888888
aF2.580246913580247
aF0.27697530864197534
aF1.123456790123457
aF1.2345679012345678
aF0.46770370370370373
aF0.43209876543209874
aF1.4938271604938271
aF1.9259259259259258
aF1.1604938271604939
aF0.8148148148148148
aF0.19753086419753085
aF0.9135802469135802
aF1.5308641975308641
aF8.604938271604938
aF1.271604938271605
aF0.691358024691358
aI4
aI25
aa(lp350
F10.902439024390244
aF1.5853658536585367
aF3.731707317073171
aF0.3374634146341463
aF0.0
aF0.12195121951219512
aF0.0
aF0.6341463414634146
aF1.0975609756097562
aF0.2136341463414634
aF0.8536585365853658
aF1.5121951219512195
aF2.3658536585365852
aF0.21951219512195122
aF0.1951219512195122
aF0.4146341463414634
aF0.5365853658536586
aF1.0731707317073171
aF3.8048780487804876
aF-1.7073170731707317
aF0.6585365853658537
aI1
aI22
aa(lp351
F9.134615384615385
aF0.6923076923076923
aF1.3846153846153846
aF0.27755769230769234
aF0.038461538461538464
aF0.07692307692307693
aF0.038461538461538464
aF0.3076923076923077
aF0.6346153846153846
aF0.12821153846153846
aF0.8076923076923077
aF1.6730769230769231
aF2.480769230769231
aF0.2692307692307692
aF0.34615384615384615
aF0.38461538461538464
aF0.5384615384615384
aF1.5769230769230769
aF1.7307692307692308
aF-1.7307692307692308
aF0.28846153846153844
aI4
aI26
aa(lp352
F16.63768115942029
aF1.8695652173913044
aF3.130434782608696
aF0.5424347826086955
aF0.0
aF0.0
aF0.0
aF1.4927536231884058
aF2.246376811594203
aF0.4432608695652175
aF0.9855072463768116
aF1.6231884057971016
aF2.608695652173913
aF0.36231884057971014
aF0.3188405797101449
aF0.5797101449275363
aF0.9420289855072463
aF2.8260869565217392
aF5.231884057971015
aF-1.8985507246376812
aF0.2318840579710145
aI4
aI26
aa(lp353
F24.05263157894737
aF5.035087719298246
aF11.24561403508772
aF0.4317543859649123
aF1.263157894736842
aF3.736842105263158
aF0.309157894736842
aF1.912280701754386
aF2.3684210526315788
aF0.6155087719298247
aF0.22807017543859648
aF1.4385964912280702
aF1.6666666666666667
aF2.017543859649123
aF0.8771929824561403
aF0.10526315789473684
aF1.4736842105263157
aF1.9649122807017543
aF13.24561403508772
aF-2.719298245614035
aF0.2807017543859649
aI7
aI28
aa(lp354
F9.945945945945946
aF1.2162162162162162
aF2.5405405405405403
aF0.429972972972973
aF0.05405405405405406
aF0.08108108108108109
aF0.05405405405405406
aF0.21621621621621623
aF0.3783783783783784
aF0.0991081081081081
aF0.4594594594594595
aF2.189189189189189
aF2.6486486486486487
aF0.2972972972972973
aF0.13513513513513514
aF0.40540540540540543
aF0.32432432432432434
aF1.5675675675675675
aF2.7027027027027026
aF-0.7297297297297297
aF0.35135135135135137
aI13
aI34
aa(lp355
F16.685714285714287
aF1.9428571428571428
aF4.685714285714286
aF0.3340285714285714
aF0.7142857142857143
aF1.8285714285714285
aF0.32139999999999996
aF1.1142857142857143
aF1.4285714285714286
aF0.3088285714285714
aF0.45714285714285713
aF1.2571428571428571
aF1.7142857142857142
aF2.0
aF0.2857142857142857
aF0.2571428571428571
aF0.9142857142857143
aF1.2
aF5.714285714285714
aF-2.9714285714285715
aF0.22857142857142856
aI5
aI28
aa(lp356
F22.151898734177216
aF2.607594936708861
aF6.531645569620253
aF0.3764050632911391
aF1.0253164556962024
aF2.949367088607595
aF0.29001265822784805
aF0.9873417721518988
aF1.1898734177215189
aF0.3786962025316456
aF0.1518987341772152
aF1.3291139240506329
aF1.481012658227848
aF3.050632911392405
aF0.6835443037974683
aF0.05063291139240506
aF1.1518987341772151
aF1.4936708860759493
aF7.227848101265823
aF0.9873417721518988
aF0.43037974683544306
aI10
aI30
aa(lp357
F35.02777777777778
aF5.097222222222222
aF12.333333333333334
aF0.39745833333333314
aF1.1527777777777777
aF3.0277777777777777
aF0.3970416666666667
aF2.6666666666666665
aF3.2777777777777777
aF0.6747361111111111
aF0.3611111111111111
aF3.2916666666666665
aF3.6527777777777777
aF3.4583333333333335
aF0.9305555555555556
aF0.3888888888888889
aF1.8888888888888888
aF2.1666666666666665
aF14.01388888888889
aF-0.8194444444444444
aF0.4027777777777778
aI8
aI31
aa(lp358
F22.92207792207792
aF2.831168831168831
aF6.701298701298701
aF0.38177922077922094
aF0.15584415584415584
aF0.5454545454545454
aF0.11037662337662338
aF1.2857142857142858
aF1.5974025974025974
aF0.4577922077922078
aF0.5454545454545454
aF3.3506493506493507
aF3.896103896103896
aF1.974025974025974
aF0.6103896103896104
aF0.18181818181818182
aF1.0129870129870129
aF1.7792207792207793
aF7.103896103896104
aF-0.8051948051948052
aF0.5194805194805194
aI0
aI22
aa(lp359
F21.5
aF1.9285714285714286
aF3.414285714285714
aF0.5010285714285714
aF0.0
aF0.0
aF0.0
aF0.7857142857142857
aF1.042857142857143
aF0.3616714285714286
aF1.7
aF2.8
aF4.5
aF0.9571428571428572
aF0.5857142857142857
aF0.42857142857142855
aF0.7714285714285715
aF2.942857142857143
aF4.642857142857143
aF4.285714285714286
aF0.6714285714285714
aI7
aI30
aa(lp360
F4.466666666666667
aF0.43333333333333335
aF1.7
aF0.12896666666666667
aF0.0
aF0.1
aF0.0
aF0.2
aF0.4
aF0.11666666666666667
aF0.13333333333333333
aF0.3333333333333333
aF0.4666666666666667
aF0.3333333333333333
aF0.23333333333333334
aF0.0
aF0.4666666666666667
aF0.6333333333333333
aF1.0666666666666667
aF-2.2
aF0.6666666666666666
aI0
aI20
aa(lp361
F26.06451612903226
aF5.548387096774194
aF11.741935483870968
aF0.47145161290322585
aF0.0
aF0.0
aF0.0
aF1.3225806451612903
aF1.6451612903225807
aF0.3806451612903226
aF1.6129032258064515
aF5.387096774193548
aF7.0
aF1.4838709677419355
aF0.4838709677419355
aF1.3548387096774193
aF1.8387096774193548
aF2.3548387096774195
aF12.419354838709678
aF-1.6451612903225807
aF0.3548387096774194
aI7
aI28
aa(lp362
F32.11267605633803
aF4.71830985915493
aF11.04225352112676
aF0.4201126760563379
aF2.0422535211267605
aF5.084507042253521
aF0.38290140845070414
aF5.394366197183099
aF5.887323943661972
aF0.874774647887324
aF0.323943661971831
aF2.295774647887324
aF2.619718309859155
aF5.338028169014085
aF1.0
aF0.19718309859154928
aF2.4507042253521125
aF2.028169014084507
aF16.87323943661972
aF1.9014084507042253
aF0.5352112676056338
aI13
aI34
aa(lp363
F7.0
aF2.0
aF3.6666666666666665
aF0.5276666666666666
aF1.0
aF1.3333333333333333
aF0.8333333333333334
aF0.0
aF0.0
aF0.0
aF0.0
aF0.6666666666666666
aF0.6666666666666666
aF0.0
aF0.0
aF0.0
aF0.6666666666666666
aF0.6666666666666666
aF5.0
aF-3.3333333333333335
aF0.0
aI4
aI26
aa(lp364
F19.472972972972972
aF0.7162162162162162
aF1.2837837837837838
aF0.36418918918918924
aF0.0
aF0.0
aF0.0
aF0.6216216216216216
aF0.9594594594594594
aF0.24944594594594593
aF1.3783783783783783
aF2.175675675675676
aF3.554054054054054
aF0.3108108108108108
aF0.13513513513513514
aF1.2567567567567568
aF0.4864864864864865
aF2.581081081081081
aF2.054054054054054
aF1.662162162162162
aF0.7297297297297297
aI3
aI28
aa(lp365
F17.27536231884058
aF2.7246376811594204
aF6.27536231884058
aF0.4057536231884057
aF0.7681159420289855
aF2.1594202898550723
aF0.2806666666666666
aF1.2028985507246377
aF1.8985507246376812
aF0.35042028985507256
aF0.4927536231884058
aF1.4057971014492754
aF1.8985507246376812
aF2.7971014492753623
aF0.7246376811594203
aF0.13043478260869565
aF1.6666666666666667
aF1.7971014492753623
aF7.420289855072464
aF-3.347826086956522
aF0.5217391304347826
aI2
aI24
aa(lp366
F20.72222222222222
aF3.638888888888889
aF5.5
aF0.6497777777777779
aF0.0
aF0.0
aF0.0
aF2.0277777777777777
aF3.638888888888889
aF0.5081111111111112
aF1.3333333333333333
aF3.5833333333333335
aF4.916666666666667
aF0.7222222222222222
aF0.4444444444444444
aF1.1666666666666667
aF1.5277777777777777
aF3.3333333333333335
aF9.305555555555555
aF5.416666666666667
aF0.75
aI18
aI38
aa(lp367
F12.863636363636363
aF2.2045454545454546
aF4.681818181818182
aF0.4323636363636363
aF0.3181818181818182
aF0.8863636363636364
aF0.17422727272727273
aF1.5454545454545454
aF2.0
aF0.4520909090909091
aF0.09090909090909091
aF1.3863636363636365
aF1.4772727272727273
aF0.7045454545454546
aF0.45454545454545453
aF0.1590909090909091
aF0.6590909090909091
aF1.5909090909090908
aF6.2727272727272725
aF-0.4318181818181818
aF0.5
aI7
aI30
aa(lp368
F28.151898734177216
aF5.341772151898734
aF11.69620253164557
aF0.43568354430379763
aF0.0
aF0.06329113924050633
aF0.0
aF3.1139240506329116
aF4.6075949367088604
aF0.5253670886075948
aF2.670886075949367
aF5.962025316455696
aF8.632911392405063
aF1.1139240506329113
aF0.5949367088607594
aF0.6835443037974683
aF2.151898734177215
aF2.7088607594936707
aF13.79746835443038
aF-6.734177215189874
aF0.22784810126582278
aI2
aI22
aa(lp369
F30.653333333333332
aF4.973333333333334
aF11.093333333333334
aF0.4457733333333334
aF1.5733333333333333
aF3.9066666666666667
aF0.37975999999999993
aF1.6933333333333334
aF2.1066666666666665
aF0.4824533333333333
aF0.49333333333333335
aF2.48
aF2.973333333333333
aF6.04
aF1.0
aF0.04
aF2.546666666666667
aF2.7733333333333334
aF13.213333333333333
aF3.96
aF0.64
aI6
aI28
aa(lp370
F10.024390243902438
aF1.3170731707317074
aF3.658536585365854
aF0.2651707317073171
aF0.3902439024390244
aF1.4146341463414633
aF0.1524146341463415
aF0.8048780487804879
aF0.975609756097561
aF0.3191219512195122
aF0.5365853658536586
aF1.1219512195121952
aF1.6585365853658536
aF0.6585365853658537
aF0.24390243902439024
aF0.17073170731707318
aF0.4634146341463415
aF1.048780487804878
aF3.8292682926829267
aF-2.4634146341463414
aF0.24390243902439024
aI0
aI24
aa(lp371
F31.014492753623188
aF5.130434782608695
aF11.768115942028986
aF0.4044637681159419
aF0.36231884057971014
aF1.2608695652173914
aF0.15191304347826087
aF4.63768115942029
aF5.36231884057971
aF0.7792608695652172
aF1.0144927536231885
aF2.0579710144927534
aF3.072463768115942
aF5.115942028985507
aF1.0724637681159421
aF0.14492753623188406
aF2.1884057971014492
aF2.536231884057971
aF15.26086956521739
aF-1.2318840579710144
aF0.34782608695652173
aI3
aI24
aa(lp372
F39.15584415584416
aF9.155844155844155
aF19.792207792207794
aF0.4660129870129869
aF1.87012987012987
aF5.337662337662338
aF0.3648051948051947
aF7.701298701298701
aF8.753246753246753
aF0.8799480519480518
aF0.7272727272727273
aF6.116883116883117
aF6.8441558441558445
aF2.7532467532467533
aF1.12987012987013
aF0.961038961038961
aF2.779220779220779
aF2.064935064935065
aF27.883116883116884
aF3.25974025974026
aF0.6753246753246753
aI3
aI22
aa(lp373
F17.245283018867923
aF2.018867924528302
aF5.320754716981132
aF0.3228679245283019
aF0.6415094339622641
aF1.7358490566037736
aF0.2170754716981132
aF1.3018867924528301
aF1.7169811320754718
aF0.3213584905660377
aF0.6415094339622641
aF1.9245283018867925
aF2.5660377358490565
aF1.509433962264151
aF0.5849056603773585
aF0.1320754716981132
aF1.1886792452830188
aF1.1886792452830188
aF5.981132075471698
aF-4.6415094339622645
aF0.11320754716981132
aI0
aI21
aa(lp374
F10.774193548387096
aF0.7741935483870968
aF1.4516129032258065
aF0.3760645161290322
aF0.0
aF0.0
aF0.0
aF0.6451612903225806
aF0.9193548387096774
aF0.2399193548387097
aF1.1451612903225807
aF1.7258064516129032
aF2.870967741935484
aF0.27419354838709675
aF0.22580645161290322
aF0.04838709677419355
aF0.3870967741935484
aF1.903225806451613
aF2.193548387096774
aF0.7096774193548387
aF0.45161290322580644
aI1
aI23
aa(lp375
F30.571428571428573
aF6.0
aF13.285714285714286
aF0.45007142857142857
aF0.9642857142857143
aF2.25
aF0.3023571428571429
aF2.4285714285714284
aF3.142857142857143
aF0.625
aF0.7857142857142857
aF3.392857142857143
aF4.178571428571429
aF1.6428571428571428
aF1.0
aF0.2857142857142857
aF1.7142857142857142
aF2.0714285714285716
aF15.392857142857142
aF5.392857142857143
aF0.75
aI8
aI30
aa(lp376
F21.776315789473685
aF3.513157894736842
aF7.921052631578948
aF0.4456973684210528
aF0.7105263157894737
aF2.026315789473684
aF0.2710000000000001
aF1.0263157894736843
aF1.3157894736842106
aF0.41031578947368424
aF0.2894736842105263
aF1.8157894736842106
aF2.1052631578947367
aF0.9342105263157895
aF0.47368421052631576
aF0.17105263157894737
aF0.868421052631579
aF1.868421052631579
aF8.763157894736842
aF-0.7236842105263158
aF0.5789473684210527
aI7
aI29
aa(lp377
F20.816901408450704
aF3.507042253521127
aF6.873239436619718
aF0.48923943661971825
aF0.056338028169014086
aF0.30985915492957744
aF0.03052112676056338
aF1.9295774647887325
aF2.563380281690141
aF0.48298591549295766
aF0.9859154929577465
aF1.6901408450704225
aF2.676056338028169
aF1.4507042253521127
aF1.7887323943661972
aF0.6197183098591549
aF1.1971830985915493
aF2.2535211267605635
aF9.0
aF0.6338028169014085
aF0.5492957746478874
aI6
aI28
aa(lp378
F8.413793103448276
aF1.3275862068965518
aF2.706896551724138
aF0.4280689655172415
aF0.05172413793103448
aF0.1724137931034483
aF0.05172413793103448
aF0.5172413793103449
aF0.8448275862068966
aF0.18246551724137933
aF0.8448275862068966
aF0.7758620689655172
aF1.6206896551724137
aF0.2413793103448276
aF0.20689655172413793
aF0.05172413793103448
aF0.39655172413793105
aF1.0517241379310345
aF3.2241379310344827
aF-1.3103448275862069
aF0.3103448275862069
aI2
aI25
aa(lp379
F19.87272727272727
aF2.1454545454545455
aF4.636363636363637
aF0.42952727272727276
aF0.3090909090909091
aF0.8909090909090909
aF0.1606181818181818
aF1.309090909090909
aF1.6727272727272726
aF0.38820000000000005
aF1.1090909090909091
aF2.1272727272727274
aF3.2363636363636363
aF0.6363636363636364
aF0.7272727272727273
aF0.32727272727272727
aF0.9454545454545454
aF1.709090909090909
aF5.909090909090909
aF-4.745454545454545
aF0.2727272727272727
aI1
aI23
aa(lp380
F25.75
aF2.357142857142857
aF4.535714285714286
aF0.5722857142857143
aF0.0
aF0.0
aF0.0
aF1.4285714285714286
aF2.5714285714285716
aF0.40235714285714286
aF2.1785714285714284
aF5.857142857142857
aF8.035714285714286
aF0.9285714285714286
aF0.32142857142857145
aF0.8928571428571429
aF1.8928571428571428
aF3.2142857142857144
aF6.142857142857143
aF2.75
aF0.75
aI7
aI26
aa(lp381
F28.32
aF5.493333333333333
aF10.986666666666666
aF0.5001999999999999
aF0.0
aF0.05333333333333334
aF0.0
aF2.4133333333333336
aF3.3333333333333335
aF0.5875866666666665
aF2.2266666666666666
aF6.653333333333333
aF8.88
aF2.6933333333333334
aF0.6666666666666666
aF1.92
aF1.6133333333333333
aF1.5733333333333333
aF13.4
aF6.053333333333334
aF0.8
aI13
aI34
aa(lp382
F16.47826086956522
aF1.6304347826086956
aF5.043478260869565
aF0.2720000000000001
aF0.9565217391304348
aF2.891304347826087
aF0.2374130434782609
aF0.391304347826087
aF0.5869565217391305
aF0.15071739130434783
aF0.21739130434782608
aF1.4565217391304348
aF1.673913043478261
aF0.5869565217391305
aF0.17391304347826086
aF0.32608695652173914
aF0.5
aF0.7608695652173914
aF4.608695652173913
aF-2.217391304347826
aF0.34782608695652173
aI8
aI31
aa(lp383
F29.098591549295776
aF3.0704225352112675
aF7.676056338028169
aF0.39830985915492956
aF1.1971830985915493
aF3.140845070422535
aF0.355394366197183
aF1.0422535211267605
aF1.3380281690140845
aF0.39808450704225357
aF0.4647887323943662
aF2.5774647887323945
aF3.0422535211267605
aF3.0140845070422535
aF0.9436619718309859
aF0.11267605633802817
aF1.1267605633802817
aF1.5352112676056338
aF8.380281690140846
aF-4.267605633802817
aF0.23943661971830985
aI13
aI35
aa(lp384
F25.845070422535212
aF3.9295774647887325
aF6.929577464788732
aF0.599338028169014
aF0.0
aF0.014084507042253521
aF0.0
aF1.7746478873239437
aF2.2535211267605635
aF0.5762535211267605
aF2.619718309859155
aF3.788732394366197
aF6.408450704225352
aF1.1408450704225352
aF0.7464788732394366
aF1.2394366197183098
aF0.971830985915493
aF3.647887323943662
aF9.633802816901408
aF-1.5492957746478873
aF0.28169014084507044
aI5
aI23
aa(lp385
F14.2
aF1.6
aF3.68
aF0.36688000000000004
aF0.12
aF0.72
aF0.08
aF0.92
aF1.24
aF0.302
aF0.2
aF1.0
aF1.2
aF1.64
aF0.64
aF0.0
aF0.86
aF1.18
aF4.24
aF-2.58
aF0.4
aI3
aI25
aa(lp386
F30.894736842105264
aF5.105263157894737
aF12.719298245614034
aF0.3765087719298247
aF1.3859649122807018
aF4.228070175438597
aF0.2874736842105262
aF2.6315789473684212
aF3.087719298245614
aF0.6746315789473684
aF0.3684210526315789
aF2.263157894736842
aF2.6315789473684212
aF6.5964912280701755
aF0.9122807017543859
aF0.17543859649122806
aF2.9649122807017543
aF2.5789473684210527
aF14.228070175438596
aF-5.807017543859649
aF0.3157894736842105
aI7
aI28
aa(lp387
F25.5
aF3.3793103448275863
aF7.586206896551724
aF0.4261034482758621
aF1.5
aF3.7413793103448274
aF0.38474137931034486
aF1.8793103448275863
aF2.1379310344827585
aF0.6646206896551724
aF0.10344827586206896
aF1.8275862068965518
aF1.9310344827586208
aF1.7586206896551724
aF0.4482758620689655
aF0.05172413793103448
aF0.896551724137931
aF1.3620689655172413
aF10.137931034482758
aF1.8448275862068966
aF0.6206896551724138
aI4
aI26
aa(lp388
F39.28395061728395
aF6.506172839506172
aF14.123456790123457
aF0.45575308641975315
aF1.4074074074074074
aF4.074074074074074
aF0.32797530864197516
aF3.0987654320987654
aF4.1234567901234565
aF0.6970987654320987
aF1.4074074074074074
aF4.395061728395062
aF5.802469135802469
aF2.814814814814815
aF0.9382716049382716
aF0.5925925925925926
aF1.8888888888888888
aF1.9753086419753085
aF17.51851851851852
aF6.567901234567901
aF0.7530864197530864
aI6
aI25
aa(lp389
F6.0
aF0.0
aF2.0
aF0.0
aF0.0
aF2.0
aF0.0
aF0.0
aF0.0
aF0.0
aF0.0
aF0.0
aF0.0
aF1.0
aF0.0
aF0.0
aF0.0
aF1.0
aF0.0
aF6.0
aF1.0
aI9
aI30
aa(lp390
F33.888888888888886
aF8.975308641975309
aF19.938271604938272
aF0.4564444444444444
aF1.4074074074074074
aF4.37037037037037
aF0.2771234567901234
aF5.851851851851852
aF7.074074074074074
aF0.8028765432098766
aF1.0
aF4.061728395061729
aF5.061728395061729
aF4.716049382716049
aF1.2098765432098766
aF0.13580246913580246
aF2.9753086419753085
aF2.111111111111111
aF25.209876543209877
aF5.185185185185185
aF0.691358024691358
aI14
aI32
aa(lp391
F9.333333333333334
aF0.6666666666666666
aF1.3333333333333333
aF0.3333333333333333
aF0.0
aF0.3333333333333333
aF0.0
aF0.6666666666666666
aF0.6666666666666666
aF0.3333333333333333
aF0.0
aF1.6666666666666667
aF1.6666666666666667
aF0.3333333333333333
aF0.0
aF0.0
aF0.3333333333333333
aF0.0
aF2.0
aF3.0
aF0.3333333333333333
aI13
aI35
aa(lp392
F22.029411764705884
aF2.7941176470588234
aF7.117647058823529
aF0.3812058823529411
aF0.4117647058823529
aF1.6029411764705883
aF0.17425000000000002
aF1.9558823529411764
aF2.764705882352941
aF0.4952205882352941
aF0.8382352941176471
aF1.7352941176470589
aF2.573529411764706
aF1.2794117647058822
aF1.4558823529411764
aF0.23529411764705882
aF1.2647058823529411
aF2.338235294117647
aF7.955882352941177
aF-2.1176470588235294
aF0.3088235294117647
aI3
aI24
aa(lp393
F10.25
aF0.75
aF1.25
aF0.41675
aF0.0
aF0.0
aF0.0
aF0.25
aF0.5
aF0.125
aF0.75
aF0.75
aF1.5
aF0.0
aF0.0
aF0.0
aF0.75
aF2.5
aF1.75
aF-5.5
aF0.75
aI5
aI35
aa(lp394
F26.481012658227847
aF4.341772151898734
aF8.645569620253164
aF0.4654810126582279
aF0.8734177215189873
aF2.1645569620253164
aF0.28555696202531644
aF2.1772151898734178
aF2.848101265822785
aF0.5266582278481012
aF0.8481012658227848
aF1.7974683544303798
aF2.6455696202531644
aF4.734177215189874
aF1.0
aF0.05063291139240506
aF1.7341772151898733
aF1.6835443037974684
aF11.734177215189874
aF2.9746835443037973
aF0.620253164556962
aI1
aI23
aa(lp395
F5.333333333333333
aF0.3333333333333333
aF1.0
aF0.111
aF0.0
aF0.0
aF0.0
aF0.0
aF0.0
aF0.0
aF0.0
aF1.0
aF1.0
aF0.3333333333333333
aF0.0
aF0.0
aF0.0
aF0.6666666666666666
aF0.6666666666666666
aF2.6666666666666665
aF0.3333333333333333
aI10
aI33
aa(lp396
F26.576923076923077
aF2.5128205128205128
aF5.410256410256411
aF0.4444230769230769
aF0.0
aF0.08974358974358974
aF0.0
aF1.6794871794871795
aF2.358974358974359
aF0.45953846153846156
aF2.1538461538461537
aF3.217948717948718
aF5.371794871794871
aF0.8589743589743589
aF0.9230769230769231
aF0.358974358974359
aF0.9871794871794872
aF2.3076923076923075
aF6.705128205128205
aF-0.6538461538461539
aF0.4230769230769231
aI2
aI24
aa(lp397
F27.786666666666665
aF2.7466666666666666
aF6.666666666666667
aF0.39131999999999995
aF0.96
aF2.8
aF0.3093733333333333
aF0.8133333333333334
aF1.1333333333333333
aF0.29933333333333334
aF0.8133333333333334
aF2.546666666666667
aF3.36
aF1.5733333333333333
aF0.8266666666666667
aF0.16
aF0.72
aF2.12
aF7.266666666666667
aF-1.4133333333333333
aF0.38666666666666666
aI5
aI28
aa(lp398
F30.08450704225352
aF3.8450704225352115
aF8.633802816901408
aF0.4352112676056338
aF1.056338028169014
aF2.6338028169014085
aF0.35232394366197184
aF1.4929577464788732
aF1.7746478873239437
aF0.4853239436619718
aF0.29577464788732394
aF2.2535211267605635
aF2.5492957746478875
aF4.028169014084507
aF1.056338028169014
aF0.22535211267605634
aF1.676056338028169
aF2.591549295774648
aF10.23943661971831
aF-5.352112676056338
aF0.3380281690140845
aI7
aI29
aa(lp399
F25.455696202531644
aF2.8987341772151898
aF4.253164556962025
aF0.6508734177215191
aF0.0
aF0.012658227848101266
aF0.0
aF1.1898734177215189
aF2.6455696202531644
aF0.3370759493670885
aF2.569620253164557
aF4.582278481012659
aF7.151898734177215
aF0.5063291139240507
aF0.4810126582278481
aF1.7721518987341771
aF1.2531645569620253
aF3.1772151898734178
aF6.987341772151899
aF-1.4050632911392404
aF0.379746835443038
aI2
aI22
aa(lp400
F21.76923076923077
aF2.6307692307692307
aF5.615384615384615
aF0.4853230769230769
aF1.6153846153846154
aF3.4923076923076923
aF0.44687692307692306
aF0.38461538461538464
aF0.5384615384615384
aF0.17153846153846156
aF0.8923076923076924
aF2.723076923076923
aF3.6153846153846154
aF0.9230769230769231
aF0.4
aF0.3230769230769231
aF0.4153846153846154
aF1.6615384615384616
aF7.2615384615384615
aF3.923076923076923
aF0.7384615384615385
aI6
aI30
aa(lp401
F38.41975308641975
aF5.888888888888889
aF13.88888888888889
aF0.41595061728395055
aF2.3580246913580245
aF6.2592592592592595
aF0.34216049382716035
aF2.2098765432098766
aF2.7901234567901234
aF0.5435679012345679
aF1.0864197530864197
aF4.172839506172839
aF5.2592592592592595
aF2.9135802469135803
aF1.4814814814814814
aF0.7654320987654321
aF1.6296296296296295
aF2.0987654320987654
aF16.34567901234568
aF-1.876543209876543
aF0.43209876543209874
aI6
aI25
aa(lp402
F12.112903225806452
aF1.8870967741935485
aF4.225806451612903
aF0.3932258064516128
aF0.3064516129032258
aF0.9193548387096774
aF0.1532258064516129
aF0.9032258064516129
aF1.3548387096774193
aF0.2763548387096774
aF0.45161290322580644
aF1.3225806451612903
aF1.7741935483870968
aF0.7419354838709677
aF0.3548387096774194
aF0.08064516129032258
aF0.6935483870967742
aF1.1935483870967742
aF4.983870967741935
aF-0.45161290322580644
aF0.6290322580645161
aI0
aI25
aa(lp403
F31.531645569620252
aF4.594936708860759
aF10.037974683544304
aF0.4319873417721519
aF1.481012658227848
aF4.265822784810126
aF0.3009113924050632
aF1.6582278481012658
aF1.9746835443037976
aF0.5657974683544303
aF1.3544303797468353
aF3.151898734177215
aF4.506329113924051
aF1.5569620253164558
aF0.8481012658227848
aF0.5949367088607594
aF1.0253164556962024
aF2.4430379746835444
aF12.329113924050633
aF0.5316455696202531
aF0.5822784810126582
aI2
aI22
aa(lp404
F36.08860759493671
aF6.025316455696203
aF12.265822784810126
aF0.49179746835443033
aF2.1012658227848102
aF4.7215189873417724
aF0.44672151898734175
aF2.4050632911392404
aF2.7341772151898733
aF0.780253164556962
aF0.6455696202531646
aF2.7974683544303796
aF3.4430379746835444
aF2.7341772151898733
aF0.9620253164556962
aF0.189873417721519
aF1.4556962025316456
aF1.8481012658227849
aF16.556962025316455
aF5.9113924050632916
aF0.6962025316455697
aI14
aI35
aa(lp405
F19.935064935064936
aF2.9220779220779223
aF6.12987012987013
aF0.41081818181818175
aF0.19480519480519481
aF0.6103896103896104
aF0.14935064935064934
aF1.103896103896104
aF1.4545454545454546
aF0.3865974025974027
aF0.4805194805194805
aF1.8571428571428572
aF2.3376623376623376
aF0.8701298701298701
aF0.8571428571428571
aF0.2987012987012987
aF0.7532467532467533
aF1.5584415584415585
aF7.142857142857143
aF1.051948051948052
aF0.5714285714285714
aI1
aI25
aa(lp406
F17.772151898734176
aF2.8734177215189876
aF5.594936708860759
aF0.4484050632911392
aF0.012658227848101266
aF0.13924050632911392
aF0.012658227848101266
aF2.6582278481012658
aF3.6962025316455698
aF0.5530253164556961
aF1.1139240506329113
aF2.6202531645569622
aF3.7341772151898733
aF0.8607594936708861
aF0.4050632911392405
aF0.11392405063291139
aF1.0
aF1.2658227848101267
aF8.417721518987342
aF-2.2025316455696204
aF0.4810126582278481
aI5
aI28
aa(lp407
F8.108695652173912
aF0.3695652173913043
aF0.8478260869565217
aF0.26810869565217393
aF0.0
aF0.0
aF0.0
aF0.41304347826086957
aF0.7608695652173914
aF0.1612391304347826
aF0.5217391304347826
aF1.108695652173913
aF1.6304347826086956
aF0.08695652173913043
aF0.1956521739130435
aF0.32608695652173914
aF0.3695652173913043
aF1.6304347826086956
aF1.1521739130434783
aF-2.6739130434782608
aF0.4782608695652174
aI1
aI23
aa(lp408
F37.08955223880597
aF4.701492537313433
aF9.880597014925373
aF0.470731343283582
aF0.14925373134328357
aF0.6268656716417911
aF0.11940298507462686
aF1.1044776119402986
aF1.9402985074626866
aF0.3196268656716418
aF1.2835820895522387
aF3.1343283582089554
aF4.417910447761194
aF11.26865671641791
aF2.253731343283582
aF0.16417910447761194
aF3.4477611940298507
aF1.7761194029850746
aF10.656716417910447
aF6.656716417910448
aF0.7014925373134329
aI4
aI24
aa(lp409
F12.35593220338983
aF1.694915254237288
aF3.2203389830508473
aF0.3944576271186441
aF0.0
aF0.01694915254237288
aF0.0
aF1.2881355932203389
aF2.3728813559322033
aF0.3518813559322033
aF1.2203389830508475
aF2.1864406779661016
aF3.406779661016949
aF0.4406779661016949
aF0.4915254237288136
aF0.288135593220339
aF0.5423728813559322
aF1.5254237288135593
aF4.677966101694915
aF-0.5423728813559322
aF0.7288135593220338
aI0
aI25
aa(lp410
F26.0
aF1.9743589743589745
aF4.217948717948718
aF0.46648717948717955
aF0.34615384615384615
aF1.294871794871795
aF0.18715384615384617
aF0.7564102564102564
aF1.0128205128205128
aF0.2938076923076923
aF0.8333333333333334
aF3.5641025641025643
aF4.397435897435898
aF1.3846153846153846
aF1.2435897435897436
aF0.48717948717948717
aF0.7051282051282052
aF2.1923076923076925
aF5.051282051282051
aF1.0769230769230769
aF0.6794871794871795
aI4
aI26
aa(lp411
F15.913793103448276
aF1.3103448275862069
aF3.293103448275862
aF0.32687931034482764
aF0.06896551724137931
aF0.3448275862068966
aF0.03736206896551724
aF0.5344827586206896
aF0.6551724137931034
aF0.2097758620689655
aF0.27586206896551724
aF1.793103448275862
aF2.0689655172413794
aF0.6724137931034483
aF0.2413793103448276
aF0.017241379310344827
aF0.6379310344827587
aF1.793103448275862
aF3.2241379310344827
aF-5.0344827586206895
aF0.3275862068965517
aI5
aI28
aa(lp412
F32.125
aF4.446428571428571
aF10.196428571428571
aF0.4145357142857142
aF1.5178571428571428
aF4.285714285714286
aF0.3278928571428571
aF1.3392857142857142
aF1.6785714285714286
aF0.5776785714285715
aF1.25
aF3.9107142857142856
aF5.160714285714286
aF1.625
aF0.9285714285714286
aF0.5357142857142857
aF1.5178571428571428
aF2.8035714285714284
aF11.75
aF-1.2142857142857142
aF0.4107142857142857
aI12
aI31
aa(lp413
F37.888888888888886
aF8.432098765432098
aF16.728395061728396
aF0.5013086419753084
aF0.08641975308641975
aF0.2839506172839506
aF0.08024691358024691
aF5.444444444444445
aF8.493827160493828
aF0.6224074074074075
aF3.2962962962962963
aF8.790123456790123
aF12.08641975308642
aF3.728395061728395
aF0.7654320987654321
aF0.5432098765432098
aF2.7037037037037037
aF3.049382716049383
aF22.395061728395063
aF-1.8518518518518519
aF0.38271604938271603
aI1
aI21
aa(lp414
F23.733333333333334
aF3.311111111111111
aF7.333333333333333
aF0.43442222222222215
aF1.2222222222222223
aF2.888888888888889
aF0.37117777777777783
aF1.9777777777777779
aF2.5555555555555554
aF0.5516444444444444
aF0.7333333333333333
aF2.422222222222222
aF3.1555555555555554
aF1.1111111111111112
aF0.6
aF0.2
aF1.2666666666666666
aF2.2222222222222223
aF9.822222222222223
aF-4.888888888888889
aF0.15555555555555556
aI5
aI24
aa(lp415
F18.9
aF2.25
aF5.75
aF0.37295
aF0.15
aF0.775
aF0.120825
aF0.875
aF1.2
aF0.362925
aF0.375
aF1.6
aF1.975
aF3.475
aF0.825
aF0.2
aF1.55
aF1.725
aF5.525
aF0.025
aF0.425
aI7
aI27
aa(lp416
F10.727272727272727
aF1.2727272727272727
aF2.3636363636363638
aF0.3379090909090909
aF0.45454545454545453
aF0.9090909090909091
aF0.24245454545454545
aF0.36363636363636365
aF0.8181818181818182
aF0.12727272727272726
aF0.09090909090909091
aF1.0909090909090908
aF1.1818181818181819
aF0.36363636363636365
aF0.8181818181818182
aF0.2727272727272727
aF0.36363636363636365
aF1.2727272727272727
aF3.3636363636363638
aF2.909090909090909
aF0.6363636363636364
aI0
aI27
aa(lp417
F36.22727272727273
aF6.575757575757576
aF15.984848484848484
aF0.40316666666666673
aF1.8181818181818181
aF5.393939393939394
aF0.2965757575757575
aF3.772727272727273
aF4.621212121212121
aF0.7138181818181817
aF0.803030303030303
aF3.772727272727273
aF4.575757575757576
aF3.621212121212121
aF1.2121212121212122
aF0.42424242424242425
aF3.1515151515151514
aF2.4242424242424243
aF18.742424242424242
aF-3.9545454545454546
aF0.4393939393939394
aI10
aI32
aa(lp418
F15.985915492957746
aF1.7746478873239437
aF4.605633802816901
aF0.33207042253521124
aF1.295774647887324
aF3.464788732394366
aF0.3157605633802816
aF0.4647887323943662
aF0.6056338028169014
aF0.19671830985915492
aF0.2676056338028169
aF1.2112676056338028
aF1.4788732394366197
aF1.0704225352112675
aF0.29577464788732394
aF0.07042253521126761
aF0.6056338028169014
aF0.9859154929577465
aF5.309859154929577
aF0.2535211267605634
aF0.676056338028169
aI10
aI29
aa(lp419
F31.46031746031746
aF4.0
aF8.523809523809524
aF0.47619047619047633
aF0.5555555555555556
aF1.507936507936508
aF0.25503174603174605
aF3.3015873015873014
aF4.285714285714286
aF0.7210158730158729
aF1.5873015873015872
aF3.6031746031746033
aF5.190476190476191
aF3.0476190476190474
aF1.253968253968254
aF1.1746031746031746
aF1.8571428571428572
aF1.7936507936507937
aF11.857142857142858
aF-0.4444444444444444
aF0.5238095238095238
aI9
aI29
aa(lp420
F28.164556962025316
aF5.443037974683544
aF10.443037974683545
aF0.5049240506329116
aF0.06329113924050633
aF0.4050632911392405
aF0.0379746835443038
aF1.5696202531645569
aF2.0253164556962027
aF0.5558101265822786
aF2.1265822784810124
aF4.746835443037975
aF6.8734177215189876
aF1.3417721518987342
aF0.8481012658227848
aF0.6329113924050633
aF1.6075949367088607
aF1.8101265822784811
aF12.518987341772151
aF-0.1518987341772152
aF0.6962025316455697
aI11
aI32
aa(lp421
F21.475
aF3.625
aF7.25
aF0.47761250000000005
aF0.0
aF0.025
aF0.0
aF1.075
aF1.6625
aF0.36333750000000004
aF2.65
aF4.3375
aF6.9875
aF0.9625
aF1.1875
aF0.525
aF1.4
aF2.6
aF8.325
aF1.7625
aF0.75
aI1
aI21
aa(lp422
F37.58441558441559
aF8.0
aF13.467532467532468
aF0.5961038961038959
aF0.0
aF0.09090909090909091
aF0.0
aF7.0
aF11.779220779220779
aF0.6000909090909092
aF3.9740259740259742
aF10.116883116883116
aF14.090909090909092
aF1.3636363636363635
aF1.3376623376623376
aF2.4025974025974026
aF3.5584415584415585
aF3.2987012987012987
aF23.0
aF6.116883116883117
aF0.6493506493506493
aI6
aI25
aa(lp423
F9.304347826086957
aF0.8260869565217391
aF2.782608695652174
aF0.21495652173913046
aF0.391304347826087
aF1.565217391304348
aF0.11956521739130435
aF0.30434782608695654
aF0.7391304347826086
aF0.05073913043478261
aF0.043478260869565216
aF0.9130434782608695
aF0.9565217391304348
aF1.2173913043478262
aF0.4782608695652174
aF0.2608695652173913
aF0.9130434782608695
aF0.9565217391304348
aF2.347826086956522
aF-1.7826086956521738
aF0.4782608695652174
aI1
aI24
aa(lp424
F13.98360655737705
aF1.7377049180327868
aF4.213114754098361
aF0.34785245901639356
aF0.09836065573770492
aF0.47540983606557374
aF0.08196721311475409
aF0.5737704918032787
aF0.639344262295082
aF0.21037704918032787
aF0.14754098360655737
aF0.9836065573770492
aF1.1311475409836065
aF2.639344262295082
aF0.47540983606557374
aF0.03278688524590164
aF0.8360655737704918
aF0.8688524590163934
aF4.147540983606557
aF-1.3934426229508197
aF0.26229508196721313
aI0
aI27
aa(lp425
F25.876923076923077
aF2.923076923076923
aF5.6923076923076925
aF0.49907692307692303
aF0.0
aF0.0
aF0.0
aF2.046153846153846
aF3.4615384615384617
aF0.4959692307692308
aF2.230769230769231
aF4.569230769230769
aF6.8
aF0.6615384615384615
aF0.4
aF0.5846153846153846
aF1.0615384615384615
aF2.646153846153846
aF7.892307692307693
aF-3.769230769230769
aF0.4
aI9
aI28
aa(lp426
F18.695652173913043
aF2.217391304347826
aF4.826086956521739
aF0.4413478260869565
aF0.4782608695652174
aF1.391304347826087
aF0.22104347826086954
aF0.4782608695652174
aF0.5652173913043478
aF0.30434782608695654
aF0.21739130434782608
aF1.173913043478261
aF1.391304347826087
aF2.5652173913043477
aF0.8260869565217391
aF0.34782608695652173
aF1.2173913043478262
aF1.173913043478261
aF5.391304347826087
aF-4.173913043478261
aF0.5652173913043478
aI6
aI27
aa(lp427
F40.53164556962025
aF9.164556962025317
aF20.27848101265823
aF0.44281012658227836
aF1.7341772151898733
aF4.784810126582278
aF0.3379367088607594
aF4.265822784810126
aF5.405063291139241
aF0.7093417721518986
aF0.5569620253164557
aF2.9746835443037973
aF3.5316455696202533
aF5.6455696202531644
aF2.1012658227848102
aF0.2911392405063291
aF3.1645569620253164
aF2.569620253164557
aF24.329113924050635
aF-3.0
aF0.4430379746835443
aI5
aI25
aa(lp428
F24.50632911392405
aF3.759493670886076
aF8.60759493670886
aF0.41873417721518985
aF1.6455696202531647
aF4.0
aF0.38520253164556945
aF1.240506329113924
aF1.5822784810126582
aF0.4140253164556962
aF0.21518987341772153
aF1.6835443037974684
aF1.8987341772151898
aF1.1645569620253164
aF0.45569620253164556
aF0.0759493670886076
aF0.9620253164556962
aF1.8354430379746836
aF10.405063291139241
aF1.2025316455696202
aF0.5569620253164557
aI3
aI24
aa(lp429
F23.982456140350877
aF3.5964912280701755
aF8.228070175438596
aF0.4262807017543859
aF1.4035087719298245
aF3.8596491228070176
aF0.33163157894736833
aF1.1403508771929824
aF1.3333333333333333
aF0.37428070175438605
aF0.42105263157894735
aF1.8771929824561404
aF2.2982456140350878
aF1.2105263157894737
aF0.8947368421052632
aF0.8596491228070176
aF0.7894736842105263
aF2.175438596491228
aF9.736842105263158
aF-1.8596491228070176
aF0.3157894736842105
aI5
aI29
aa(lp430
F6.513513513513513
aF1.1081081081081081
aF2.4054054054054053
aF0.2981891891891892
aF0.13513513513513514
aF0.2972972972972973
aF0.0945945945945946
aF0.2972972972972973
aF0.5135135135135135
aF0.1062972972972973
aF0.2972972972972973
aF0.5945945945945946
aF0.8918918918918919
aF1.135135135135135
aF0.08108108108108109
aF0.02702702702702703
aF0.8918918918918919
aF0.7837837837837838
aF2.6486486486486487
aF-0.16216216216216217
aF0.5405405405405406
aI0
aI21
aa(lp431
F22.61111111111111
aF3.8472222222222223
aF9.180555555555555
aF0.4088194444444444
aF1.6111111111111112
aF4.472222222222222
aF0.32672222222222214
aF1.1111111111111112
aF1.5416666666666667
aF0.387375
aF1.0416666666666667
aF3.486111111111111
aF4.527777777777778
aF1.3611111111111112
aF0.5277777777777778
aF0.1388888888888889
aF1.4583333333333333
aF2.7916666666666665
aF10.416666666666666
aF1.9444444444444444
aF0.625
aI12
aI30
aa(lp432
F19.229508196721312
aF2.622950819672131
aF6.475409836065574
aF0.4015573770491802
aF0.7868852459016393
aF1.9836065573770492
aF0.2868196721311475
aF0.6885245901639344
aF0.8688524590163934
aF0.2841475409836065
aF0.4262295081967213
aF1.3442622950819672
aF1.7704918032786885
aF1.180327868852459
aF0.4426229508196721
aF0.04918032786885246
aF0.8360655737704918
aF1.3770491803278688
aF6.721311475409836
aF-3.1475409836065573
aF0.22950819672131148
aI1
aI23
aa(lp433
F23.924050632911392
aF3.2911392405063293
aF7.012658227848101
aF0.42222784810126585
aF0.0
aF0.02531645569620253
aF0.0
aF1.3670886075949367
aF1.8481012658227849
aF0.3944936708860759
aF2.569620253164557
aF5.518987341772152
aF8.08860759493671
aF0.8354430379746836
aF0.45569620253164556
aF1.4430379746835442
aF1.620253164556962
aF2.810126582278481
aF7.949367088607595
aF-3.050632911392405
aF0.27848101265822783
aI9
aI30
aa(lp434
F7.178571428571429
aF0.6428571428571429
aF1.5
aF0.26317857142857143
aF0.03571428571428571
aF0.03571428571428571
aF0.03571428571428571
aF0.17857142857142858
aF0.2857142857142857
aF0.07142857142857142
aF0.5714285714285714
aF0.8571428571428571
aF1.4285714285714286
aF0.14285714285714285
aF0.10714285714285714
aF0.17857142857142858
aF0.35714285714285715
aF1.5357142857142858
aF1.5
aF-2.5714285714285716
aF0.5
aI12
aI35
aa(lp435
F17.56451612903226
aF2.274193548387097
aF5.435483870967742
aF0.3553225806451612
aF0.04838709677419355
aF0.20967741935483872
aF0.03762903225806452
aF0.967741935483871
aF1.435483870967742
aF0.30246774193548387
aF1.2096774193548387
aF2.596774193548387
aF3.806451612903226
aF0.4032258064516129
aF0.43548387096774194
aF0.5
aF0.8225806451612904
aF1.8387096774193548
aF5.564516129032258
aF-3.2580645161290325
aF0.27419354838709675
aI3
aI23
aa(lp436
F28.828125
aF3.828125
aF8.296875
aF0.4507812500000001
aF0.578125
aF1.71875
aF0.26559375
aF2.28125
aF2.6875
aF0.552640625
aF1.03125
aF3.828125
aF4.859375
aF1.34375
aF0.53125
aF0.359375
aF0.96875
aF1.625
aF10.515625
aF-0.625
aF0.53125
aI5
aI24
aa(lp437
F14.666666666666666
aF1.6419753086419753
aF4.074074074074074
aF0.36054320987654315
aF0.4567901234567901
aF1.1728395061728396
aF0.25617283950617287
aF0.5308641975308642
aF0.7283950617283951
aF0.21193827160493828
aF0.30864197530864196
aF1.1728395061728396
aF1.4814814814814814
aF2.9012345679012346
aF0.41975308641975306
aF0.07407407407407407
aF0.9259259259259259
aF1.1728395061728396
aF4.271604938271605
aF2.5308641975308643
aF0.6790123456790124
aI1
aI23
aa(lp438
F6.7368421052631575
aF0.2631578947368421
aF1.105263157894737
aF0.19294736842105265
aF0.0
aF0.42105263157894735
aF0.0
aF0.21052631578947367
aF0.3157894736842105
aF0.10526315789473684
aF0.2631578947368421
aF0.7368421052631579
aF1.0
aF0.6842105263157895
aF0.42105263157894735
aF0.05263157894736842
aF0.2631578947368421
aF0.7368421052631579
aF0.7368421052631579
aF-0.631578947368421
aF0.8421052631578947
aI7
aI33
aa(lp439
F12.172413793103448
aF0.896551724137931
aF1.6551724137931034
aF0.3622413793103448
aF0.0
aF0.0
aF0.0
aF0.3793103448275862
aF0.5862068965517241
aF0.19827586206896552
aF0.9310344827586207
aF1.6206896551724137
aF2.5517241379310347
aF0.4827586206896552
aF0.13793103448275862
aF0.3793103448275862
aF0.4827586206896552
aF1.6551724137931034
aF2.1724137931034484
aF0.1724137931034483
aF0.6206896551724138
aI8
aI32
aa(lp440
F24.70967741935484
aF3.3225806451612905
aF8.5
aF0.36274193548387096
aF1.1451612903225807
aF3.435483870967742
aF0.25325806451612903
aF2.1129032258064515
aF2.3548387096774195
aF0.6394677419354838
aF0.20967741935483872
aF1.4516129032258065
aF1.6612903225806452
aF2.6774193548387095
aF0.7096774193548387
aF0.3387096774193548
aF1.532258064516129
aF1.9516129032258065
aF9.903225806451612
aF-3.129032258064516
aF0.43548387096774194
aI4
aI27
aa(lp441
F34.97435897435897
aF6.769230769230769
aF15.884615384615385
aF0.42725641025641015
aF1.9615384615384615
aF5.128205128205129
aF0.37126923076923063
aF5.038461538461538
aF5.948717948717949
aF0.8079487179487179
aF1.0897435897435896
aF4.282051282051282
aF5.371794871794871
aF2.5641025641025643
aF1.141025641025641
aF0.7948717948717948
aF2.628205128205128
aF2.6794871794871793
aF20.53846153846154
aF-0.11538461538461539
aF0.46153846153846156
aI5
aI27
aa(lp442
F13.246913580246913
aF1.7777777777777777
aF4.802469135802469
aF0.34543209876543207
aF0.5308641975308642
aF1.3580246913580247
aF0.2691481481481482
aF0.8148148148148148
aF1.0987654320987654
aF0.31029629629629635
aF0.19753086419753085
aF0.9135802469135802
aF1.1111111111111112
aF2.2222222222222223
aF0.6790123456790124
aF0.13580246913580246
aF0.8888888888888888
aF1.0
aF4.901234567901234
aF1.5802469135802468
aF0.7530864197530864
aI3
aI26
aa(lp443
F23.18867924528302
aF1.2641509433962264
aF2.792452830188679
aF0.375754716981132
aF0.018867924528301886
aF0.03773584905660377
aF0.018867924528301886
aF0.3584905660377358
aF1.0754716981132075
aF0.12264150943396226
aF2.4339622641509435
aF4.132075471698113
aF6.566037735849057
aF1.3584905660377358
aF1.0
aF1.0
aF0.8301886792452831
aF1.471698113207547
aF2.9056603773584904
aF-3.2641509433962264
aF0.37735849056603776
aI14
aI36
aa(lp444
F31.933333333333334
aF3.7666666666666666
aF7.066666666666666
aF0.5280666666666667
aF0.0
aF0.06666666666666667
aF0.0
aF1.7333333333333334
aF2.6333333333333333
aF0.5458
aF3.2
aF6.566666666666666
aF9.766666666666667
aF1.4666666666666666
aF0.8666666666666667
aF1.2666666666666666
aF1.3
aF2.8333333333333335
aF9.266666666666667
aF-5.3
aF0.26666666666666666
aI6
aI28
aa(lp445
F37.13333333333333
aF9.106666666666667
aF18.253333333333334
aF0.4951199999999999
aF0.84
aF2.72
aF0.2376666666666666
aF6.546666666666667
aF8.653333333333334
aF0.7387466666666666
aF1.6266666666666667
aF4.773333333333333
aF6.4
aF4.533333333333333
aF1.4666666666666666
aF1.12
aF3.12
aF2.6133333333333333
aF25.6
aF7.373333333333333
aF0.7066666666666667
aI7
aI28
aa(lp446
F26.051724137931036
aF1.9827586206896552
aF4.948275862068965
aF0.34453448275862064
aF0.0
aF0.017241379310344827
aF0.0
aF0.7413793103448276
aF1.206896551724138
aF0.3117758620689655
aF3.0517241379310347
aF7.206896551724138
aF10.258620689655173
aF2.0517241379310347
aF0.6896551724137931
aF1.5344827586206897
aF1.0517241379310345
aF2.396551724137931
aF4.706896551724138
aF0.4482758620689655
aF0.5344827586206896
aI14
aI36
aa(lp447
F9.25
aF1.5208333333333333
aF2.3333333333333335
aF0.47379166666666667
aF0.0
aF0.020833333333333332
aF0.0
aF0.5208333333333334
aF0.7291666666666666
aF0.253125
aF0.7291666666666666
aF1.2083333333333333
aF1.9375
aF0.5
aF0.3333333333333333
aF0.3541666666666667
aF0.3958333333333333
aF0.9583333333333334
aF3.5625
aF-0.2708333333333333
aF0.4375
aI0
aI23
aa(lp448
F23.25974025974026
aF2.74025974025974
aF7.363636363636363
aF0.344883116883117
aF1.4935064935064934
aF4.623376623376624
aF0.32805194805194815
aF1.6363636363636365
aF1.896103896103896
aF0.590116883116883
aF0.4805194805194805
aF1.7272727272727273
aF2.207792207792208
aF2.4415584415584415
aF1.1168831168831168
aF0.18181818181818182
aF1.12987012987013
aF1.7272727272727273
aF8.61038961038961
aF1.3896103896103895
aF0.5974025974025974
aI2
aI25
aa(lp449
F10.5
aF2.0
aF5.5
aF0.3395
aF0.0
aF1.5
aF0.0
aF0.0
aF0.0
aF0.0
aF1.0
aF0.5
aF1.5
aF0.0
aF0.5
aF0.0
aF0.0
aF1.0
aF4.0
aF-3.0
aF0.0
aI0
aI23
aa(lp450
F12.826086956521738
aF1.826086956521739
aF4.521739130434782
aF0.36034782608695654
aF0.391304347826087
aF1.6521739130434783
aF0.17317391304347826
aF0.782608695652174
aF1.565217391304348
aF0.28104347826086956
aF0.5652173913043478
aF1.0869565217391304
aF1.6521739130434783
aF1.826086956521739
aF0.6956521739130435
aF0.043478260869565216
aF1.1304347826086956
aF1.0869565217391304
aF4.826086956521739
aF-1.3043478260869565
aF0.34782608695652173
aI1
aI24
aa(lp451
F13.0
aF1.1176470588235294
aF3.176470588235294
aF0.31361764705882356
aF0.11764705882352941
aF0.9117647058823529
aF0.048529411764705876
aF0.5882352941176471
aF0.8823529411764706
aF0.24755882352941175
aF0.6470588235294118
aF2.5588235294117645
aF3.2058823529411766
aF0.6470588235294118
aF0.38235294117647056
aF0.08823529411764706
aF0.5882352941176471
aF1.2941176470588236
aF2.9411764705882355
aF-3.764705882352941
aF0.35294117647058826
aI9
aI30
aa(lp452
F27.602739726027398
aF4.136986301369863
aF7.8493150684931505
aF0.5478082191780821
aF0.0
aF0.0136986301369863
aF0.0
aF1.6712328767123288
aF2.506849315068493
aF0.43910958904109587
aF3.0136986301369864
aF7.3561643835616435
aF10.36986301369863
aF1.1232876712328768
aF0.4520547945205479
aF1.082191780821918
aF1.3835616438356164
aF2.287671232876712
aF9.945205479452055
aF-3.356164383561644
aF0.3150684931506849
aI6
aI25
aa(lp453
F21.0
aF4.5
aF9.25
aF0.50475
aF0.0
aF0.0
aF0.0
aF3.75
aF4.0
aF0.875
aF1.75
aF4.75
aF6.5
aF1.0
aF0.0
aF1.75
aF1.75
aF3.25
aF12.75
aF-6.25
aF0.25
aI8
aI30
aa(lp454
F18.75
aF2.9444444444444446
aF6.5
aF0.4365
aF0.0
aF0.08333333333333333
aF0.0
aF1.8611111111111112
aF2.9444444444444446
aF0.4928611111111112
aF2.0
aF2.138888888888889
aF4.138888888888889
aF0.4722222222222222
aF0.4166666666666667
aF0.4722222222222222
aF1.3333333333333333
aF2.3055555555555554
aF7.75
aF-3.75
aF0.1111111111111111
aI0
aI21
aa(lp455
F19.901408450704224
aF2.6901408450704225
aF6.492957746478873
aF0.3950985915492956
aF0.971830985915493
aF2.380281690140845
aF0.3323239436619719
aF1.1267605633802817
aF1.4929577464788732
aF0.38178873239436617
aF0.9014084507042254
aF2.859154929577465
aF3.76056338028169
aF1.028169014084507
aF0.5352112676056338
aF0.5211267605633803
aF0.8169014084507042
aF2.267605633802817
aF7.47887323943662
aF-1.8450704225352113
aF0.352112676056338
aI1
aI22
aa(lp456
F24.46875
aF3.3125
aF5.71875
aF0.54540625
aF0.0
aF0.0
aF0.0
aF1.09375
aF1.96875
aF0.33490625
aF2.5625
aF4.53125
aF7.09375
aF0.609375
aF0.578125
aF1.03125
aF0.6875
aF2.828125
aF7.71875
aF-5.328125
aF0.25
aI0
aI21
aa(lp457
F11.777777777777779
aF1.4444444444444444
aF3.888888888888889
aF0.3734444444444444
aF0.3333333333333333
aF1.5555555555555556
aF0.15555555555555556
aF0.4444444444444444
aF0.4444444444444444
aF0.2222222222222222
aF0.0
aF0.5555555555555556
aF0.5555555555555556
aF1.1111111111111112
aF0.2222222222222222
aF0.1111111111111111
aF0.3333333333333333
aF0.4444444444444444
aF3.6666666666666665
aF-0.3333333333333333
aF0.5555555555555556
aI10
aI31
aa(lp458
F8.634615384615385
aF0.8461538461538461
aF1.9230769230769231
aF0.29696153846153844
aF0.0
aF0.019230769230769232
aF0.0
aF0.3076923076923077
aF0.8461538461538461
aF0.11298076923076923
aF0.6538461538461539
aF1.4230769230769231
aF2.076923076923077
aF0.34615384615384615
aF0.07692307692307693
aF0.3076923076923077
aF0.4807692307692308
aF1.7307692307692308
aF2.0
aF0.9230769230769231
aF0.5576923076923077
aI3
aI24
aa(lp459
F24.34285714285714
aF3.2142857142857144
aF7.785714285714286
aF0.4239
aF1.3142857142857143
aF3.5142857142857142
aF0.339242857142857
aF0.9714285714285714
aF1.4428571428571428
aF0.37642857142857145
aF1.0571428571428572
aF3.3285714285714287
aF4.385714285714286
aF1.0571428571428572
aF0.7714285714285715
aF0.18571428571428572
aF0.9714285714285714
aF1.6285714285714286
aF8.714285714285714
aF-1.8714285714285714
aF0.24285714285714285
aI1
aI22
aa(lp460
F6.944444444444445
aF0.7222222222222222
aF1.8888888888888888
aF0.3111111111111111
aF0.2777777777777778
aF0.7777777777777778
aF0.1758888888888889
aF0.3333333333333333
aF0.3333333333333333
aF0.16666666666666666
aF0.05555555555555555
aF0.5555555555555556
aF0.6111111111111112
aF1.4444444444444444
aF0.2777777777777778
aF0.0
aF0.3888888888888889
aF0.8333333333333334
aF2.0555555555555554
aF1.3888888888888888
aF0.2777777777777778
aI0
aI21
aa(lp461
F25.962962962962962
aF3.654320987654321
aF7.604938271604938
aF0.45550617283950634
aF1.2592592592592593
aF3.049382716049383
aF0.35735802469135813
aF1.9259259259259258
aF2.6049382716049383
aF0.5125185185185185
aF1.3209876543209877
aF2.506172839506173
aF3.8271604938271606
aF1.308641975308642
aF1.0617283950617284
aF0.24691358024691357
aF0.9382716049382716
aF1.6790123456790123
aF10.493827160493828
aF-0.5061728395061729
aF0.48148148148148145
aI3
aI25
aa(lp462
F10.902439024390244
aF1.2682926829268293
aF3.048780487804878
aF0.3204878048780488
aF0.0
aF0.024390243902439025
aF0.0
aF0.21951219512195122
aF0.6341463414634146
aF0.09348780487804878
aF1.7317073170731707
aF1.3902439024390243
aF3.1219512195121952
aF0.3170731707317073
aF0.3170731707317073
aF0.7073170731707317
aF0.6829268292682927
aF2.1707317073170733
aF2.7560975609756095
aF-1.7560975609756098
aF0.3170731707317073
aI8
aI32
aa(lp463
F34.6025641025641
aF5.230769230769231
aF10.448717948717949
aF0.4856794871794872
aF0.8205128205128205
aF2.3205128205128207
aF0.3233333333333333
aF2.5
aF2.8974358974358974
aF0.6396282051282051
aF0.5128205128205128
aF2.8205128205128207
aF3.3333333333333335
aF4.871794871794871
aF1.1923076923076923
aF0.11538461538461539
aF1.794871794871795
aF2.2948717948717947
aF13.782051282051283
aF-3.5256410256410255
aF0.3076923076923077
aI6
aI28
aa(lp464
F16.660377358490567
aF2.2641509433962264
aF4.0
aF0.5519245283018867
aF0.018867924528301886
aF0.3018867924528302
aF0.018867924528301886
aF0.5471698113207547
aF1.1132075471698113
aF0.1563018867924528
aF1.2830188679245282
aF1.6037735849056605
aF2.8867924528301887
aF0.7735849056603774
aF0.6037735849056604
aF0.4339622641509434
aF0.8301886792452831
aF1.2641509433962264
aF5.09433962264151
aF-2.2641509433962264
aF0.41509433962264153
aI6
aI27
aa(lp465
F35.525
aF5.1875
aF11.75
aF0.44087499999999996
aF0.9875
aF2.675
aF0.3366125
aF2.2625
aF3.0875
aF0.5762875000000001
aF0.4
aF2.6875
aF3.0875
aF6.575
aF1.7875
aF0.225
aF2.175
aF2.275
aF13.625
aF3.725
aF0.575
aI3
aI23
aatp466
b.