(dp0
Vresource
p1
Vleaguedashplayerstats
p2
sVresultSets
p3
(lp4
(dp5
Vheaders
p6
(lp7
VPLAYER_ID
p8
aVPLAYER_NAME
p9
aVTEAM_ID
p10
aVTEAM_ABBREVIATION
p11
aVAGE
p12
aVGP
p13
aVW
p14
aVL
p15
aVW_PCT
p16
aVMIN
p17
aVFGM
p18
aVFGA
p19
aVFG_PCT
p20
aVFG3M
p21
aVFG3A
p22
aVFG3_PCT
p23
aVFTM
p24
aVFTA
p25
aVFT_PCT
p26
aVOREB
p27
aVDREB
p28
aVREB
p29
aVAST
p30
aVTOV
p31
aVSTL
p32
aVBLK
p33
aVBLKA
p34
aVPF
p35
aVPFD
p36
aVPTS
p37
aVPLUS_MINUS
p38
aVDD2
p39
aVTD3
p40
aVCFID
p41
aVCFPARAMS
p42
asVrowSet
p43
(lp44
(lp45
I201985
aVA.J. Price
p46
aI1610612754
aVIND
p47
aF25.0
aI44
aI27
aI17
aF0.614
aF12.9
aF1.3
aF4.0
aF0.339
aF0.6
aF2.0
aF0.295
aF0.6
aF0.8
aF0.8
aF0.3
aF1.1
aF1.4
aF2.0
aF0.7
aF0.5
aF0.0
aF0.1
aF0.7
aF0.7
aF3.9
aF0.8
aI0
aI0
aI5
aV201985,1610612754
p48
aa(lp49
I201189
aVAaron Gray
p50
aI1610612761
aVTOR
p51
aF27.0
aI49
aI17
aI32
aF0.347
aF16.6
aF1.7
aF3.3
aF0.516
aF0.0
aF0.0
aF0.0
aF0.5
aF1.0
aF0.532
aF1.7
aF4.0
aF5.7
aF0.6
aF1.0
aF0.4
aF0.3
aF0.3
aF2.6
aF0.8
aF3.9
aF-3.1
aI2
aI0
aI5
aV201189,1610612761
p52
aa(lp53
I1733
aVAl Harrington
p54
aI1610612743
aVDEN
p55
aF32.0
aI64
aI36
aI28
aF0.563
aF27.5
aF5.4
aF12.1
aF0.446
aF1.6
aF4.7
aF0.333
aF1.9
aF2.8
aF0.676
aF1.1
aF5.0
aF6.1
aF1.4
aF1.8
aF0.9
aF0.2
aF0.8
aF2.8
aF2.2
aF14.2
aF2.6
aI9
aI0
aI5
aV1733,1610612743
p56
aa(lp57
I201143
aVAl Horford
p58
aI1610612737
aVATL
p59
aF26.0
aI11
aI7
aI4
aF0.636
aF31.6
aF5.2
aF9.4
aF0.553
aF0.0
aF0.1
aF0.0
aF2.0
aF2.7
aF0.733
aF2.4
aF4.6
aF7.0
aF2.2
aF1.5
aF0.9
aF1.3
aF0.6
aF1.9
aF2.5
aF12.4
aF4.7
aI2
aI0
aI5
aV201143,1610612737
p60
aa(lp61
I2744
aVAl Jefferson
p62
aI1610612762
aVUTA
p63
aF27.0
aI61
aI32
aI29
aF0.525
aF34.0
aF8.5
aF17.2
aF0.492
aF0.0
aF0.1
aF0.25
aF2.2
aF2.9
aF0.774
aF2.2
aF7.4
aF9.6
aF2.2
aF1.0
aF0.8
aF1.7
aF1.0
aF2.5
aF2.3
aF19.2
aF2.7
aI31
aI0
aI5
aV2744,1610612762
p64
aa(lp65
I202329
aVAl-Farouq Aminu
p66
aI1610612740
aVNOH
p67
aF21.0
aI66
aI21
aI45
aF0.318
aF22.4
aF2.3
aF5.5
aF0.411
aF0.2
aF0.7
aF0.277
aF1.3
aF1.7
aF0.754
aF1.4
aF3.2
aF4.7
aF1.0
aF1.4
aF0.9
aF0.5
aF0.6
aF2.1
aF1.6
aF6.0
aF-0.5
aI2
aI0
aI5
aV202329,1610612740
p68
aa(lp69
I101187
aVAlan Anderson
p70
aI1610612761
aVTOR
p71
aF29.0
aI17
aI7
aI10
aF0.412
aF27.1
aF3.2
aF8.4
aF0.387
aF1.4
aF3.6
aF0.393
aF1.7
aF2.0
aF0.853
aF0.5
aF1.5
aF2.0
aF1.5
aF1.5
aF0.3
aF0.2
aF0.4
aF2.1
aF1.9
aF9.6
aF-1.4
aI0
aI0
aI5
aV101187,1610612761
p72
aa(lp73
I202692
aVAlec Burks
p74
aI1610612762
aVUTA
p75
aF20.0
aI59
aI33
aI26
aF0.559
aF15.9
aF2.6
aF6.1
aF0.429
aF0.3
aF0.8
aF0.333
aF1.8
aF2.4
aF0.727
aF1.0
aF1.3
aF2.2
aF0.9
aF0.9
aF0.5
aF0.1
aF0.6
aF1.4
aF1.7
aF7.2
aF-0.4
aI0
aI0
aI5
aV202692,1610612762
p76
aa(lp77
I202087
aVAlonzo Gee
p78
aI1610612739
aVCLE
p79
aF25.0
aI63
aI20
aI43
aF0.317
aF29.0
aF3.6
aF8.7
aF0.412
aF0.7
aF2.2
aF0.321
aF2.7
aF3.4
aF0.788
aF1.6
aF3.5
aF5.1
aF1.8
aF1.8
aF1.3
aF0.3
aF0.9
aF2.4
aF2.2
aF10.6
aF-3.4
aI2
aI0
aI5
aV202087,1610612739
p80
aa(lp81
I2405
aVAmar'e Stoudemire
p82
aI1610612752
aVNYK
p83
aF29.0
aI47
aI22
aI25
aF0.468
aF32.8
aF6.7
aF13.9
aF0.483
aF0.1
aF0.4
aF0.238
aF4.0
aF5.2
aF0.765
aF2.3
aF5.6
aF7.8
aF1.1
aF2.4
aF0.8
aF1.0
aF1.3
aF2.9
aF4.1
aF17.5
aF-0.9
aI16
aI0
aI5
aV2405,1610612752
p84
aa(lp85
I101161
aVAmir Johnson
p86
aI1610612761
aVTOR
p87
aF25.0
aI64
aI22
aI42
aF0.344
aF24.3
aF3.1
aF5.3
aF0.576
aF0.0
aF0.1
aF0.4
aF0.9
aF1.3
aF0.69
aF2.3
aF4.0
aF6.4
aF1.2
aF1.5
aF0.5
aF1.1
aF0.4
aF3.3
aF1.4
aF7.1
aF0.2
aI8
aI0
aI5
aV101161,1610612761
p88
aa(lp89
I2760
aVAnderson Varejao
p90
aI1610612739
aVCLE
p91
aF29.0
aI25
aI10
aI15
aF0.4
aF31.4
aF4.6
aF8.9
aF0.514
aF0.0
aF0.2
aF0.0
aF1.7
aF2.6
aF0.672
aF4.4
aF7.1
aF11.5
aF1.7
aF1.8
aF1.4
aF0.7
aF0.9
aF2.5
aF2.8
aF10.8
aF-0.7
aI14
aI0
aI5
aV2760,1610612739
p92
aa(lp93
I101154
aVAndray Blatche
p94
aI1610612764
aVWAS
p95
aF25.0
aI26
aI7
aI19
aF0.269
aF24.1
aF3.6
aF9.4
aF0.38
aF0.1
aF0.3
aF0.286
aF1.3
aF1.9
aF0.673
aF1.6
aF4.2
aF5.8
aF1.1
aF1.4
aF0.8
aF0.7
aF0.8
aF2.1
aF1.8
aF8.5
aF-5.8
aI4
aI0
aI5
aV101154,1610612764
p96
aa(lp97
I2765
aVAndre Emmett
p98
aI1610612751
aVNJN
p99
aF29.0
aI6
aI2
aI4
aF0.333
aF7.5
aF0.7
aF1.2
aF0.571
aF0.0
aF0.2
aF0.0
aF0.8
aF1.3
aF0.625
aF0.3
aF0.7
aF1.0
aF0.2
aF0.3
aF0.3
aF0.2
aF0.0
aF0.3
aF0.8
aF2.2
aF-1.2
aI0
aI0
aI5
aV2765,1610612751
p100
aa(lp101
I2738
aVAndre Iguodala
p102
aI1610612755
aVPHI
p103
aF28.0
aI62
aI33
aI29
aF0.532
aF35.6
aF4.6
aF10.2
aF0.454
aF1.2
aF3.1
aF0.394
aF2.0
aF3.2
aF0.617
aF0.9
aF5.2
aF6.1
aF5.5
aF1.9
aF1.7
aF0.5
aF0.3
aF1.5
aF3.0
aF12.4
aF3.5
aI8
aI1
aI5
aV2738,1610612755
p104
aa(lp105
I1889
aVAndre Miller
p106
aI1610612743
aVDEN
p107
aF36.0
aI66
aI38
aI28
aF0.576
aF27.4
aF3.7
aF8.4
aF0.438
aF0.3
aF1.3
aF0.217
aF2.1
aF2.6
aF0.811
aF0.8
aF2.5
aF3.3
aF6.7
aF2.7
aF1.0
aF0.1
aF0.8
aF2.0
aF2.3
aF9.7
aF2.5
aI8
aI0
aI5
aV1889,1610612743
p108
aa(lp109
I200745
aVAndrea Bargnani
p110
aI1610612761
aVTOR
p111
aF26.0
aI31
aI13
aI18
aF0.419
aF33.3
aF6.7
aF15.6
aF0.432
aF1.1
aF3.7
aF0.296
aF4.9
aF5.6
aF0.873
aF0.8
aF4.8
aF5.5
aF2.0
aF2.2
aF0.6
aF0.5
aF0.7
aF1.7
aF4.8
aF19.5
aF-1.5
aI2
aI0
aI5
aV200745,1610612761
p112
aa(lp113
I2804
aVAndres Nocioni
p114
aI1610612755
aVPHI
p115
aF32.0
aI11
aI9
aI2
aF0.818
aF5.1
aF0.5
aF1.8
aF0.25
aF0.1
aF0.5
aF0.167
aF0.5
aF1.0
aF0.545
aF0.1
aF1.2
aF1.3
aF0.1
aF0.5
aF0.1
aF0.1
aF0.2
aF0.4
aF0.5
aF1.5
aF-1.9
aI0
aI0
aI5
aV2804,1610612755
p116
aa(lp117
I101106
aVAndrew Bogut
p118
aI1610612749
aVMIL
p119
aF27.0
aI12
aI7
aI5
aF0.583
aF30.3
aF5.1
aF11.3
aF0.449
aF0.0
aF0.1
aF0.0
aF1.2
aF1.9
aF0.609
aF1.8
aF6.5
aF8.3
aF2.6
aF2.0
aF1.0
aF2.0
aF0.3
aF3.0
aF3.8
aF11.3
aF1.4
aI3
aI0
aI5
aV101106,1610612749
p120
aa(lp121
I101115
aVAndrew Bynum
p122
aI1610612747
aVLAL
p123
aF24.0
aI60
aI38
aI22
aF0.633
aF35.2
aF7.4
aF13.3
aF0.558
aF0.0
aF0.1
aF0.2
aF3.9
aF5.6
aF0.692
aF3.2
aF8.6
aF11.8
aF1.4
aF2.5
aF0.5
aF1.9
aF1.0
aF1.7
aF4.7
aF18.7
aF1.9
aI37
aI0
aI5
aV101115,1610612747
p124
aa(lp125
I202726
aVAndrew Goudelock
p126
aI1610612747
aVLAL
p127
aF23.0
aI40
aI24
aI16
aF0.6
aF10.5
aF1.7
aF4.4
aF0.391
aF0.7
aF1.9
aF0.373
aF0.3
aF0.3
aF0.917
aF0.1
aF0.7
aF0.8
aF0.5
aF0.5
aF0.1
aF0.0
aF0.2
aF0.8
aF0.4
aF4.4
aF-0.7
aI0
aI0
aI5
aV202726,1610612747
p128
aa(lp129
I2740
aVAndris Biedrins
p130
aI1610612744
aVGSW
p131
aF26.0
aI47
aI17
aI30
aF0.362
aF15.7
aF0.8
aF1.4
aF0.609
aF0.0
aF0.0
aF0.0
aF0.0
aF0.2
aF0.111
aF1.0
aF2.8
aF3.7
aF0.3
aF0.3
aF0.5
aF1.0
aF0.0
aF2.7
aF0.3
aF1.7
aF-2.5
aI0
aI0
aI5
aV2740,1610612744
p132
aa(lp133
I1712
aVAntawn Jamison
p134
aI1610612739
aVCLE
p135
aF36.0
aI65
aI20
aI45
aF0.308
aF33.1
aF6.5
aF16.1
aF0.403
aF1.4
aF4.1
aF0.341
aF2.8
aF4.2
aF0.683
aF1.9
aF4.4
aF6.3
aF2.0
aF1.4
aF0.8
aF0.7
aF0.8
aF2.5
aF3.2
aF17.2
aF-4.6
aI7
aI0
aI5
aV1712,1610612739
p136
aa(lp137
I1853
aVAnthony Carter
p138
aI1610612761
aVTOR
p139
aF37.0
aI24
aI5
aI19
aF0.208
aF8.7
aF0.7
aF2.2
aF0.321
aF0.2
aF0.7
aF0.294
aF0.3
aF0.4
aF0.8
aF0.2
aF1.2
aF1.4
aF1.4
aF0.7
aF0.3
aF0.2
aF0.0
aF0.8
aF0.5
aF2.0
aF-2.1
aI0
aI0
aI5
aV1853,1610612761
p140
aa(lp141
I201627
aVAnthony Morrow
p142
aI1610612751
aVNJN
p143
aF26.0
aI62
aI20
aI42
aF0.323
aF26.4
aF4.4
aF10.6
aF0.413
aF1.7
aF4.6
aF0.371
aF1.6
aF1.7
aF0.933
aF0.5
aF1.5
aF2.0
aF1.0
aF1.1
aF0.7
aF0.1
aF0.4
aF1.4
aF1.6
aF12.0
aF-1.5
aI0
aI0
aI5
aV201627,1610612751
p144
aa(lp145
I1515
aVAnthony Parker
p146
aI1610612739
aVCLE
p147
aF37.0
aI51
aI15
aI36
aF0.294
aF25.1
aF2.8
aF6.4
aF0.433
aF1.0
aF2.7
aF0.362
aF0.7
aF1.1
aF0.625
aF0.2
aF2.5
aF2.7
aF2.4
aF1.0
aF0.7
aF0.1
aF0.1
aF1.3
aF1.4
aF7.2
aF-4.6
aI0
aI0
aI5
aV1515,1610612739
p148
aa(lp149
I201576
aVAnthony Randolph
p150
aI1610612750
aVMIN
p151
aF22.0
aI34
aI10
aI24
aF0.294
aF15.2
aF2.8
aF5.9
aF0.47
aF0.0
aF0.0
aF0.0
aF1.9
aF2.5
aF0.762
aF1.2
aF2.4
aF3.6
aF0.6
aF1.2
aF0.4
aF1.0
aF0.5
aF1.6
aF1.8
aF7.4
aF-1.1
aI2
aI0
aI5
aV201576,1610612750
p152
aa(lp153
I201229
aVAnthony Tolliver
p154
aI1610612750
aVMIN
p155
aF27.0
aI51
aI17
aI34
aF0.333
aF17.3
aF1.4
aF3.6
aF0.39
aF0.5
aF2.0
aF0.248
aF0.8
aF1.1
aF0.745
aF1.0
aF2.0
aF3.0
aF0.4
aF0.7
aF0.4
aF0.4
aF0.2
aF1.7
aF1.2
aF4.1
aF-0.7
aI1
aI0
aI5
aV201229,1610612750
p156
aa(lp157
I202356
aVArmon Johnson
p158
aI1610612751
aVNJN
p159
aF23.0
aI9
aI2
aI7
aF0.222
aF13.8
aF2.2
aF4.8
aF0.465
aF0.1
aF0.3
aF0.333
aF0.7
aF0.7
aF1.0
aF0.1
aF1.3
aF1.4
aF1.2
aF0.7
aF0.6
aF0.0
aF0.4
aF1.0
aF0.7
aF5.2
aF-1.9
aI0
aI0
aI5
aV202356,1610612751
p160
aa(lp161
I201167
aVArron Afflalo
p162
aI1610612743
aVDEN
p163
aF26.0
aI62
aI36
aI26
aF0.581
aF33.7
aF5.3
aF11.3
aF0.471
aF1.4
aF3.6
aF0.398
aF3.2
aF4.0
aF0.798
aF0.6
aF2.5
aF3.2
aF2.4
aF1.4
aF0.6
aF0.2
aF1.0
aF2.2
aF2.4
aF15.2
aF0.5
aI1
aI0
aI5
aV201167,1610612743
p164
aa(lp165
I201948
aVAustin Daye
p166
aI1610612765
aVDET
p167
aF24.0
aI41
aI14
aI27
aF0.341
aF14.7
aF1.8
aF5.5
aF0.322
aF0.3
aF1.5
aF0.21
aF0.9
aF1.0
aF0.814
aF0.3
aF1.9
aF2.2
aF0.8
aF1.0
aF0.5
aF0.5
aF0.3
aF1.5
aF0.8
aF4.7
aF-3.5
aI0
aI0
aI5
aV201948,1610612765
p168
aa(lp169
I202340
aVAvery Bradley
p170
aI1610612738
aVBOS
p171
aF21.0
aI64
aI39
aI25
aF0.609
aF21.4
aF3.1
aF6.3
aF0.498
aF0.3
aF0.8
aF0.407
aF1.0
aF1.2
aF0.795
aF0.5
aF1.3
aF1.8
aF1.4
aF1.2
aF0.7
aF0.2
aF0.5
aF1.7
aF1.3
aF7.6
aF1.5
aI0
aI0
aI5
aV202340,1610612738
p172
aa(lp173
I1884
aVBaron Davis
p174
aI1610612752
aVNYK
p175
aF33.0
aI29
aI16
aI13
aF0.552
aF20.5
aF2.3
aF6.3
aF0.37
aF0.9
aF2.9
aF0.306
aF0.6
aF0.8
aF0.667
aF0.4
aF1.5
aF1.9
aF4.7
aF2.6
aF1.2
aF0.1
aF0.3
aF2.1
aF0.9
aF6.1
aF1.4
aI1
aI0
aI5
aV1884,1610612752
p176
aa(lp177
I2732
aVBen Gordon
p178
aI1610612765
aVDET
p179
aF29.0
aI52
aI20
aI32
aF0.385
aF26.9
aF4.5
aF10.2
aF0.442
aF1.2
aF2.8
aF0.429
aF2.3
aF2.6
aF0.86
aF0.3
aF2.1
aF2.3
aF2.4
aF2.2
aF0.7
aF0.2
aF0.6
aF2.2
aF2.1
aF12.5
aF-3.6
aI0
aI0
aI5
aV2732,1610612765
p180
aa(lp181
I202386
aVBen Uzoh
p182
aI1610612761
aVTOR
p183
aF24.0
aI18
aI7
aI11
aF0.389
aF20.5
aF1.9
aF5.5
aF0.354
aF0.0
aF0.1
aF0.0
aF0.6
aF1.1
aF0.579
aF1.1
aF2.7
aF3.7
aF3.4
aF1.1
aF0.9
aF0.2
aF0.8
aF1.7
aF1.3
aF4.5
aF0.6
aI1
aI1
aI5
aV202386,1610612761
p184
aa(lp185
I1112
aVBen Wallace
p186
aI1610612765
aVDET
p187
aF37.0
aI62
aI24
aI38
aF0.387
aF15.8
aF0.5
aF1.4
aF0.395
aF0.0
aF0.1
aF0.25
aF0.3
aF0.8
aF0.34
aF1.3
aF3.0
aF4.3
aF0.7
aF0.5
aF0.8
aF0.8
aF0.1
aF1.0
aF1.0
aF1.4
aF-1.7
aI0
aI0
aI5
aV1112,1610612765
p188
aa(lp189
I2757
aVBeno Udrih
p190
aI1610612749
aVMIL
p191
aF29.0
aI59
aI28
aI31
aF0.475
aF18.3
aF2.5
aF5.6
aF0.44
aF0.3
aF1.0
aF0.288
aF0.7
aF0.9
aF0.709
aF0.4
aF1.3
aF1.7
aF3.8
aF1.3
aF0.6
aF0.0
aF0.2
aF1.2
aF1.2
aF5.9
aF3.6
aI0
aI0
aI5
aV2757,1610612749
p192
aa(lp193
I202687
aVBismack Biyombo
p194
aI1610612766
aVCHA
p195
aF19.0
aI63
aI7
aI56
aF0.111
aF23.1
aF2.0
aF4.4
aF0.464
aF0.0
aF0.0
aF0.0
aF1.1
aF2.3
aF0.483
aF1.8
aF4.0
aF5.8
aF0.4
aF1.1
aF0.3
aF1.8
aF0.5
aF2.3
aF2.0
aF5.2
aF-7.3
aI5
aI0
aI5
aV202687,1610612766
p196
aa(lp197
I201336
aVBlake Ahearn
p198
aI1610612762
aVUTA
p199
aF28.0
aI4
aI3
aI1
aF0.75
aF7.6
aF1.0
aF3.5
aF0.286
aF0.5
aF2.3
aF0.222
aF0.0
aF0.0
aF0.0
aF0.0
aF0.5
aF0.5
aF0.3
aF1.3
aF0.0
aF0.0
aF0.0
aF1.0
aF0.0
aF2.5
aF-3.0
aI0
aI0
aI5
aV201336,1610612762
p200
aa(lp201
I201933
aVBlake Griffin
p202
aI1610612746
aVLAC
p203
aF23.0
aI66
aI40
aI26
aF0.606
aF36.2
aF8.5
aF15.5
aF0.549
aF0.0
aF0.2
aF0.125
aF3.7
aF7.1
aF0.521
aF3.3
aF7.6
aF10.9
aF3.2
aF2.3
aF0.8
aF0.7
aF0.8
aF3.3
aF6.9
aF20.7
aF5.1
aI41
aI0
aI5
aV201933,1610612746
p204
aa(lp205
I2250
aVBobby Simmons
p206
aI1610612746
aVLAC
p207
aF32.0
aI28
aI19
aI9
aF0.679
aF14.9
aF1.0
aF3.2
aF0.311
aF0.7
aF2.1
aF0.333
aF0.1
aF0.3
aF0.571
aF0.6
aF1.4
aF2.0
aF0.4
aF0.4
aF0.5
aF0.1
aF0.2
aF1.5
aF0.3
aF2.9
aF-0.6
aI0
aI0
aI5
aV2250,1610612746
p208
aa(lp209
I2564
aVBoris Diaw
p210
aI1610612759
aVSAS
p211
aF30.0
aI57
aI23
aI34
aF0.404
aF25.0
aF2.7
aF6.2
aF0.444
aF0.5
aF1.7
aF0.313
aF0.4
aF0.6
aF0.629
aF1.2
aF3.7
aF4.9
aF3.6
aF2.0
aF0.6
aF0.4
aF0.3
aF2.2
aF0.8
aF6.4
aF-3.5
aI3
aI0
aI5
aV2564,1610612759
p212
aa(lp213
I1802
aVBrad Miller
p214
aI1610612750
aVMIN
p215
aF36.0
aI15
aI3
aI12
aF0.2
aF9.7
aF0.6
aF1.8
aF0.333
aF0.5
aF1.0
aF0.467
aF0.7
aF0.8
aF0.833
aF0.3
aF1.0
aF1.3
aF1.6
aF0.8
aF0.3
aF0.1
aF0.1
aF0.7
aF1.1
aF2.3
aF-0.9
aI0
aI0
aI5
aV1802,1610612750
p216
aa(lp217
I201148
aVBrandan Wright
p218
aI1610612742
aVDAL
p219
aF24.0
aI49
aI28
aI21
aF0.571
aF16.2
aF2.9
aF4.8
aF0.618
aF0.0
aF0.0
aF0.0
aF1.1
aF1.7
aF0.634
aF1.3
aF2.3
aF3.6
aF0.3
aF0.4
aF0.4
aF1.3
aF0.3
aF1.2
aF1.3
aF6.9
aF0.3
aI0
aI0
aI5
aV201148,1610612742
p220
aa(lp221
I101138
aVBrandon Bass
p222
aI1610612738
aVBOS
p223
aF27.0
aI59
aI37
aI22
aF0.627
aF31.7
aF5.1
aF10.7
aF0.479
aF0.0
aF0.0
aF0.0
aF2.2
aF2.8
aF0.81
aF1.6
aF4.6
aF6.2
aF0.9
aF1.1
aF0.6
aF0.9
aF1.0
aF2.3
aF2.2
aF12.5
aF2.7
aI7
aI0
aI5
aV101138,1610612738
p224
aa(lp225
I201943
aVBrandon Jennings
p226
aI1610612749
aVMIL
p227
aF22.0
aI66
aI31
aI35
aF0.47
aF35.3
aF7.1
aF17.0
aF0.418
aF2.0
aF5.9
aF0.332
aF2.9
aF3.6
aF0.808
aF0.7
aF2.7
aF3.4
aF5.5
aF2.2
aF1.6
aF0.3
aF0.8
aF1.7
aF2.4
aF19.1
aF-1.6
aI6
aI0
aI5
aV201943,1610612749
p228
aa(lp229
I202688
aVBrandon Knight
p230
aI1610612765
aVDET
p231
aF20.0
aI66
aI25
aI41
aF0.379
aF32.2
aF4.8
aF11.7
aF0.415
aF1.6
aF4.2
aF0.38
aF1.6
aF2.1
aF0.759
aF0.5
aF2.7
aF3.2
aF3.8
aF2.6
aF0.7
aF0.2
aF0.7
aF2.3
aF2.6
aF12.8
aF-3.9
aI3
aI0
aI5
aV202688,1610612765
p232
aa(lp233
I201575
aVBrandon Rush
p234
aI1610612744
aVGSW
p235
aF26.0
aI65
aI23
aI42
aF0.354
aF26.4
aF3.6
aF7.2
aF0.501
aF1.5
aF3.4
aF0.452
aF1.0
aF1.3
aF0.793
aF0.5
aF3.4
aF3.9
aF1.4
aF1.0
aF0.5
aF0.9
aF0.4
aF1.0
aF1.1
aF9.8
aF-1.2
aI1
aI0
aI5
aV201575,1610612744
p236
aa(lp237
I2217
aVBrendan Haywood
p238
aI1610612742
aVDAL
p239
aF32.0
aI54
aI31
aI23
aF0.574
aF21.2
aF2.2
aF4.2
aF0.518
aF0.0
aF0.0
aF0.0
aF0.8
aF1.8
aF0.469
aF2.6
aF3.4
aF6.0
aF0.4
aF0.9
aF0.4
aF1.0
aF0.3
aF2.2
aF1.4
aF5.2
aF0.4
aI2
aI0
aI5
aV2217,1610612742
p240
aa(lp241
I2073
aVBrian Cardinal
p242
aI1610612742
aVDAL
p243
aF35.0
aI44
aI24
aI20
aF0.545
aF6.3
aF0.3
aF1.3
aF0.255
aF0.2
aF1.1
aF0.204
aF0.1
aF0.1
aF0.833
aF0.1
aF0.7
aF0.8
aF0.4
aF0.2
aF0.2
aF0.0
aF0.0
aF0.9
aF0.3
aF1.0
aF-1.3
aI0
aI0
aI5
aV2073,1610612742
p244
aa(lp245
I2567
aVBrian Cook
p246
aI1610612764
aVWAS
p247
aF31.0
aI32
aI17
aI15
aF0.531
aF8.6
aF1.0
aF3.1
aF0.316
aF0.3
aF1.6
aF0.2
aF0.3
aF0.3
aF0.9
aF0.3
aF1.7
aF2.0
aF0.3
aF0.3
aF0.2
aF0.2
aF0.1
aF1.5
aF0.4
aF2.5
aF-0.3
aI0
aI0
aI5
aV2567,1610612764
p248
aa(lp249
I2243
aVBrian Scalabrine
p250
aI1610612741
aVCHI
p251
aF34.0
aI28
aI22
aI6
aF0.786
aF4.4
aF0.5
aF1.1
aF0.467
aF0.0
aF0.3
aF0.143
aF0.1
aF0.2
aF0.5
aF0.3
aF0.5
aF0.8
aF0.5
aF0.3
aF0.2
aF0.2
aF0.1
aF0.3
aF0.2
aF1.1
aF0.5
aI0
aI0
aI5
aV2243,1610612741
p252
aa(lp253
I1730
aVBrian Skinner
p254
aI1610612763
aVMEM
p255
aF36.0
aI1
aI0
aI1
aF0.0
aF4.4
aF0.0
aF1.0
aF0.0
aF0.0
aF0.0
aF0.0
aF0.0
aF0.0
aF0.0
aF0.0
aF0.0
aF0.0
aF0.0
aF0.0
aF0.0
aF0.0
aF0.0
aF1.0
aF1.0
aF0.0
aF-7.0
aI0
aI0
aI5
aV1730,1610612763
p256
aa(lp257
I201572
aVBrook Lopez
p258
aI1610612751
aVNJN
p259
aF24.0
aI5
aI2
aI3
aF0.4
aF27.2
aF7.6
aF15.4
aF0.494
aF0.0
aF0.0
aF0.0
aF4.0
aF6.4
aF0.625
aF1.6
aF2.0
aF3.6
aF1.2
aF1.2
aF0.2
aF0.8
aF1.6
aF1.6
aF4.6
aF19.2
aF-5.4
aI0
aI0
aI5
aV201572,1610612751
p260
aa(lp261
I201957
aVByron Mullens
p262
aI1610612766
aVCHA
p263
aF23.0
aI65
aI7
aI58
aF0.108
aF22.5
aF3.9
aF9.1
aF0.425
aF0.2
aF0.8
aF0.235
aF1.4
aF1.7
aF0.821
aF1.5
aF3.6
aF5.0
aF0.9
aF1.1
aF0.3
aF0.8
aF0.5
aF2.1
aF1.2
aF9.3
aF-5.6
aI6
aI0
aI5
aV201957,1610612766
p264
aa(lp265
I101139
aVCJ Miles
p266
aI1610612762
aVUTA
p267
aF25.0
aI56
aI28
aI28
aF0.5
aF20.4
aF3.2
aF8.3
aF0.381
aF0.8
aF2.7
aF0.307
aF1.9
aF2.4
aF0.794
aF0.5
aF1.6
aF2.1
aF1.2
aF0.9
aF0.8
aF0.3
aF0.4
aF2.2
aF1.6
aF9.1
aF0.4
aI0
aI0
aI5
aV101139,1610612762
p268
aa(lp269
I201228
aVCJ Watson
p270
aI1610612741
aVCHI
p271
aF28.0
aI49
aI36
aI13
aF0.735
aF23.7
aF3.3
aF8.9
aF0.368
aF1.4
aF3.5
aF0.393
aF1.7
aF2.1
aF0.808
aF0.4
aF1.7
aF2.1
aF4.1
aF2.0
aF0.9
aF0.2
aF0.4
aF2.1
aF2.4
aF9.7
aF0.8
aI1
aI0
aI5
aV201228,1610612741
p272
aa(lp273
I201171
aVCarl Landry
p274
aI1610612740
aVNOH
p275
aF28.0
aI41
aI13
aI28
aF0.317
aF24.4
aF4.4
aF8.8
aF0.503
aF0.0
aF0.1
aF0.0
aF3.6
aF4.5
aF0.799
aF1.9
aF3.3
aF5.2
aF0.9
aF1.6
aF0.3
aF0.3
aF1.0
aF2.2
aF3.6
aF12.5
aF-1.7
aI6
aI0
aI5
aV201171,1610612740
p276
aa(lp277
I201291
aVCarldell Johnson
p278
aI1610612740
aVNOH
p279
aF29.0
aI15
aI3
aI12
aF0.2
aF7.9
aF0.7
aF2.3
aF0.314
aF0.3
aF1.0
aF0.267
aF0.1
aF0.2
aF0.333
aF0.1
aF0.5
aF0.6
aF1.5
aF0.5
aF0.5
aF0.0
aF0.2
aF0.7
aF0.4
aF1.8
aF0.7
aI0
aI0
aI5
aV201291,1610612740
p280
aa(lp281
I2430
aVCarlos Boozer
p282
aI1610612741
aVCHI
p283
aF30.0
aI66
aI50
aI16
aF0.758
aF29.5
aF6.8
aF12.8
aF0.532
aF0.0
aF0.0
aF0.0
aF1.4
aF2.1
aF0.693
aF1.7
aF6.8
aF8.5
aF1.9
aF1.7
aF1.0
aF0.4
aF0.7
aF2.5
aF1.6
aF15.0
aF4.2
aI18
aI0
aI5
aV2430,1610612741
p284
aa(lp285
I2568
aVCarlos Delfino
p286
aI1610612749
aVMIL
p287
aF29.0
aI54
aI23
aI31
aF0.426
aF28.5
aF3.4
aF8.4
aF0.402
aF1.6
aF4.4
aF0.36
aF0.7
aF0.9
aF0.792
aF0.4
aF3.5
aF3.9
aF2.3
aF1.2
aF1.5
aF0.2
aF0.6
aF1.8
aF1.2
aF9.0
aF-3.4
aI0
aI0
aI5
aV2568,1610612749
p288
aa(lp289
I2546
aVCarmelo Anthony
p290
aI1610612752
aVNYK
p291
aF28.0
aI55
aI29
aI26
aF0.527
aF34.1
aF8.0
aF18.6
aF0.43
aF1.2
aF3.7
aF0.335
aF5.4
aF6.7
aF0.804
aF1.6
aF4.7
aF6.3
aF3.6
aF2.6
aF1.1
aF0.4
aF1.3
aF2.8
aF5.1
aF22.6
aF2.0
aI8
aI1
aI5
aV2546,1610612752
p292
aa(lp293
I2406
aVCaron Butler
p294
aI1610612746
aVLAC
p295
aF32.0
aI63
aI39
aI24
aF0.619
aF29.7
aF4.6
aF11.2
aF0.407
aF1.5
aF4.1
aF0.358
aF1.4
aF1.7
aF0.813
aF0.7
aF3.0
aF3.7
aF1.2
aF1.2
aF0.8
aF0.1
aF0.7
aF2.0
aF1.3
aF12.0
aF4.5
aI1
aI0
aI5
aV2406,1610612746
p296
aa(lp297
I201858
aVCartier Martin
p298
aI1610612764
aVWAS
p299
aF27.0
aI17
aI9
aI8
aF0.529
aF23.0
aF3.5
aF7.9
aF0.44
aF1.7
aF4.4
aF0.387
aF0.6
aF1.1
aF0.579
aF0.7
aF2.7
aF3.4
aF0.6
aF0.8
aF0.6
aF0.1
aF0.1
aF2.1
aF1.6
aF9.3
aF1.8
aI0
aI0
aI5
aV201858,1610612764
p300
aa(lp301
I202718
aVChandler Parsons
p302
aI1610612745
aVHOU
p303
aF23.0
aI63
aI33
aI30
aF0.524
aF28.6
aF3.9
aF8.7
aF0.452
aF1.0
aF2.8
aF0.337
aF0.7
aF1.2
aF0.551
aF1.4
aF3.3
aF4.8
aF2.1
aF1.3
aF1.2
aF0.5
aF0.7
aF2.3
aF1.4
aF9.5
aF1.0
aI2
aI0
aI5
aV202718,1610612745
p304
aa(lp305
I101112
aVChanning Frye
p306
aI1610612756
aVPHX
p307
aF29.0
aI64
aI33
aI31
aF0.516
aF26.1
aF4.0
aF9.6
aF0.416
aF1.4
aF4.1
aF0.346
aF1.1
aF1.3
aF0.89
aF1.1
aF4.8
aF5.9
aF1.4
aF1.0
aF0.7
aF1.1
aF0.3
aF2.8
aF1.5
aF10.5
aF2.6
aI9
aI0
aI5
aV101112,1610612756
p308
aa(lp309
I101236
aVCharles Hayes
p310
aI1610612758
aVSAC
p311
aF29.0
aI54
aI19
aI35
aF0.352
aF19.2
aF1.4
aF3.1
aF0.429
aF0.0
aF0.0
aF0.0
aF0.5
aF0.7
aF0.667
aF1.3
aF3.0
aF4.3
aF1.4
aF0.9
aF0.7
aF0.3
aF0.4
aF2.1
aF0.8
aF3.2
aF-3.1
aI0
aI0
aI5
aV101236,1610612758
p312
aa(lp313
I202724
aVCharles Jenkins
p314
aI1610612744
aVGSW
p315
aF23.0
aI51
aI15
aI36
aF0.294
aF17.5
aF2.5
aF5.7
aF0.447
aF0.1
aF0.4
aF0.15
aF0.7
aF0.8
aF0.872
aF0.2
aF1.2
aF1.3
aF3.3
aF1.2
aF0.6
aF0.1
aF0.4
aF1.7
aF0.7
aF5.8
aF-4.3
aI3
aI0
aI5
aV202724,1610612744
p316
aa(lp317
I101111
aVCharlie Villanueva
p318
aI1610612765
aVDET
p319
aF27.0
aI13
aI6
aI7
aF0.462
aF13.8
aF2.7
aF7.0
aF0.385
aF1.2
aF3.5
aF0.333
aF0.5
aF0.5
aF0.857
aF0.7
aF3.0
aF3.7
aF0.5
aF0.5
aF0.5
aF0.4
aF0.2
aF1.9
aF0.5
aF7.0
aF-3.5
aI0
aI0
aI5
aV101111,1610612765
p320
aa(lp321
I201978
aVChase Budinger
p322
aI1610612745
aVHOU
p323
aF24.0
aI58
aI31
aI27
aF0.534
aF22.4
aF3.6
aF8.1
aF0.442
aF1.5
aF3.8
aF0.402
aF0.9
aF1.2
aF0.771
aF0.7
aF3.1
aF3.7
aF1.3
aF0.9
aF0.5
aF0.1
aF0.5
aF1.1
aF1.1
aF9.6
aF0.4
aI1
aI0
aI5
aV201978,1610612745
p324
aa(lp325
I1497
aVChauncey Billups
p326
aI1610612746
aVLAC
p327
aF35.0
aI20
aI14
aI6
aF0.7
aF30.3
aF4.2
aF11.4
aF0.364
aF2.4
aF6.3
aF0.384
aF4.3
aF4.8
aF0.895
aF0.2
aF2.3
aF2.5
aF4.0
aF1.9
aF0.5
aF0.2
aF0.7
aF2.0
aF3.9
aF15.0
aF4.1
aI0
aI0
aI5
aV1497,1610612746
p328
aa(lp329
I2365
aVChris Andersen
p330
aI1610612743
aVDEN
p331
aF33.0
aI32
aI16
aI16
aF0.5
aF15.2
aF1.8
aF3.4
aF0.546
aF0.0
aF0.0
aF0.0
aF1.6
aF2.6
aF0.61
aF1.5
aF3.1
aF4.6
aF0.2
aF0.5
aF0.6
aF1.4
aF0.3
aF1.6
aF2.1
aF5.3
aF0.8
aI0
aI0
aI5
aV2365,1610612743
p332
aa(lp333
I2547
aVChris Bosh
p334
aI1610612748
aVMIA
p335
aF28.0
aI57
aI42
aI15
aF0.737
aF35.2
aF6.9
aF14.2
aF0.487
aF0.2
aF0.6
aF0.286
aF4.0
aF4.9
aF0.821
aF1.6
aF6.3
aF7.9
aF1.8
aF2.1
aF0.9
aF0.8
aF0.9
aF2.2
aF3.6
aF18.0
aF6.8
aI11
aI0
aI5
aV2547,1610612748
p336
aa(lp337
I2768
aVChris Duhon
p338
aI1610612753
aVORL
p339
aF29.0
aI63
aI36
aI27
aF0.571
aF19.5
aF1.3
aF3.2
aF0.419
aF0.8
aF1.9
aF0.42
aF0.3
aF0.3
aF0.81
aF0.2
aF1.4
aF1.6
aF2.4
aF1.3
aF0.6
aF0.1
aF0.1
aF1.1
aF0.6
aF3.8
aF-0.3
aI0
aI0
aI5
aV2768,1610612753
p340
aa(lp341
I202419
aVChris Johnson
p342
aI1610612740
aVNOH
p343
aF26.0
aI27
aI13
aI14
aF0.481
aF6.5
aF0.7
aF1.5
aF0.488
aF0.0
aF0.0
aF0.0
aF0.6
aF0.7
aF0.789
aF0.6
aF0.9
aF1.5
aF0.1
aF0.6
aF0.2
aF0.3
aF0.0
aF1.2
aF0.6
aF2.0
aF-1.3
aI0
aI0
aI5
aV202419,1610612740
p344
aa(lp345
I2549
aVChris Kaman
p346
aI1610612740
aVNOH
p347
aF30.0
aI47
aI16
aI31
aF0.34
aF29.2
aF5.7
aF12.7
aF0.446
aF0.0
aF0.0
aF0.0
aF1.8
aF2.3
aF0.785
aF1.9
aF5.9
aF7.7
aF2.1
aF2.7
aF0.5
aF1.6
aF1.1
aF2.3
aF1.7
aF13.1
aF-1.3
aI15
aI0
aI5
aV2549,1610612740
p348
aa(lp349
I101108
aVChris Paul
p350
aI1610612746
aVLAC
p351
aF27.0
aI60
aI37
aI23
aF0.617
aF36.3
aF7.1
aF14.8
aF0.478
aF1.3
aF3.6
aF0.371
aF4.3
aF5.0
aF0.861
aF0.7
aF2.9
aF3.6
aF9.1
aF2.1
aF2.5
aF0.1
aF0.6
aF2.3
aF4.4
aF19.8
aF5.4
aI23
aI0
aI5
aV101108,1610612746
p352
aa(lp353
I202698
aVChris Singleton
p354
aI1610612764
aVWAS
p355
aF22.0
aI66
aI20
aI46
aF0.303
aF21.7
aF1.8
aF4.7
aF0.372
aF0.7
aF1.9
aF0.346
aF0.5
aF0.7
aF0.682
aF0.7
aF2.9
aF3.5
aF0.7
aF0.6
aF1.1
aF0.5
aF0.2
aF2.7
aF0.9
aF4.6
aF-2.2
aI0
aI0
aI5
aV202698,1610612764
p356
aa(lp357
I2404
aVChris Wilcox
p358
aI1610612738
aVBOS
p359
aF29.0
aI28
aI15
aI13
aF0.536
aF17.2
aF2.3
aF3.8
aF0.598
aF0.0
aF0.0
aF0.0
aF0.9
aF1.4
aF0.615
aF1.4
aF3.0
aF4.4
aF0.4
aF1.1
aF0.4
aF0.3
aF0.2
aF2.3
aF1.1
aF5.4
aF-1.6
aI0
aI0
aI5
aV2404,1610612738
p360
aa(lp361
I202874
aVChris Wright
p362
aI1610612744
aVGSW
p363
aF23.0
aI24
aI8
aI16
aF0.333
aF7.7
aF1.0
aF1.9
aF0.511
aF0.0
aF0.0
aF0.0
aF1.0
aF1.3
aF0.774
aF0.8
aF1.1
aF1.9
aF0.2
aF0.3
aF0.3
aF0.5
aF0.3
aF0.9
aF1.0
aF2.9
aF-0.9
aI0
aI0
aI5
aV202874,1610612744
p364
aa(lp365
I201963
aVChristian Eyenga
p366
aI1610612747
aVLAL
p367
aF23.0
aI7
aI2
aI5
aF0.286
aF14.6
aF0.9
aF3.6
aF0.24
aF0.1
aF0.4
aF0.333
aF0.6
aF1.1
aF0.5
aF0.6
aF1.4
aF2.0
aF0.7
aF0.4
aF0.4
aF0.7
aF0.0
aF1.0
aF0.9
aF2.4
aF-5.3
aI0
aI0
aI5
aV201963,1610612747
p368
aa(lp369
I202332
aVCole Aldrich
p370
aI1610612760
aVOKC
p371
aF23.0
aI26
aI21
aI5
aF0.808
aF6.7
aF0.8
aF1.6
aF0.524
aF0.0
aF0.0
aF0.0
aF0.5
aF0.5
aF0.929
aF0.5
aF1.3
aF1.8
aF0.1
aF0.3
aF0.3
aF0.6
aF0.1
aF0.8
aF0.5
aF2.2
aF-1.3
aI0
aI0
aI5
aV202332,1610612760
p372
aa(lp373
I201147
aVCorey Brewer
p374
aI1610612743
aVDEN
p375
aF26.0
aI59
aI35
aI24
aF0.593
aF21.8
aF3.4
aF7.8
aF0.434
aF0.6
aF2.2
aF0.26
aF1.5
aF2.2
aF0.692
aF0.7
aF1.8
aF2.5
aF1.5
aF0.9
aF1.2
aF0.3
aF0.6
aF1.9
aF1.8
aF8.9
aF0.3
aI0
aI0
aI5
aV201147,1610612743
p376
aa(lp377
I1894
aVCorey Maggette
p378
aI1610612766
aVCHA
p379
aF32.0
aI32
aI6
aI26
aF0.188
aF27.5
aF4.3
aF11.7
aF0.373
aF0.8
aF2.1
aF0.364
aF5.6
aF6.5
aF0.856
aF0.7
aF3.3
aF3.9
aF1.2
aF1.8
aF0.7
aF0.0
aF1.0
aF2.6
aF4.4
aF15.0
aF-8.6
aI0
aI0
aI5
aV1894,1610612766
p380
aa(lp381
I202809
aVCory Higgins
p382
aI1610612766
aVCHA
p383
aF23.0
aI38
aI1
aI37
aF0.026
aF11.1
aF1.4
aF4.2
aF0.325
aF0.1
aF0.5
aF0.2
aF1.1
aF1.6
aF0.7
aF0.2
aF0.7
aF0.9
aF0.9
aF1.0
aF0.1
aF0.2
aF0.6
aF1.1
aF1.3
aF3.9
aF-3.1
aI0
aI0
aI5
aV202809,1610612766
p384
aa(lp385
I202709
aVCory Joseph
p386
aI1610612759
aVSAS
p387
aF20.0
aI29
aI21
aI8
aF0.724
aF9.2
aF0.8
aF2.4
aF0.314
aF0.1
aF0.5
aF0.2
aF0.4
aF0.6
aF0.647
aF0.2
aF0.7
aF0.9
aF1.2
aF0.4
aF0.2
aF0.1
aF0.1
aF0.6
aF0.5
aF2.0
aF-1.9
aI0
aI0
aI5
aV202709,1610612759
p388
aa(lp389
I202622
aVCourtney Fortson
p390
aI1610612745
aVHOU
p391
aF24.0
aI10
aI5
aI5
aF0.5
aF9.5
aF1.1
aF3.2
aF0.344
aF0.3
aF1.3
aF0.231
aF1.0
aF1.5
aF0.667
aF0.6
aF0.9
aF1.5
aF1.0
aF1.0
aF0.3
aF0.0
aF0.4
aF0.5
aF1.2
aF3.5
aF-3.5
aI0
aI0
aI5
aV202622,1610612745
p392
aa(lp393
I201584
aVCourtney Lee
p394
aI1610612745
aVHOU
p395
aF26.0
aI58
aI30
aI28
aF0.517
aF30.3
aF4.3
aF10.0
aF0.433
aF1.5
aF3.7
aF0.401
aF1.2
aF1.5
aF0.826
aF0.4
aF2.3
aF2.7
aF1.5
aF1.1
aF1.2
aF0.4
aF0.5
aF1.8
aF1.1
aF11.4
aF0.8
aI0
aI0
aI5
aV201584,1610612745
p396
aa(lp397
I202342
aVCraig Brackins
p398
aI1610612755
aVPHI
p399
aF24.0
aI14
aI12
aI2
aF0.857
aF6.3
aF0.6
aF2.4
aF0.273
aF0.2
aF0.6
aF0.333
aF0.1
aF0.1
aF0.5
aF0.4
aF0.7
aF1.1
aF0.6
aF0.3
aF0.0
aF0.1
aF0.4
aF0.4
aF0.1
aF1.6
aF-3.6
aI0
aI0
aI5
aV202342,1610612755
p400
aa(lp401
I200783
aVCraig Smith
p402
aI1610612757
aVPOR
p403
aF28.0
aI47
aI20
aI27
aF0.426
aF9.9
aF1.3
aF2.5
aF0.504
aF0.0
aF0.0
aF0.0
aF0.8
aF1.1
aF0.717
aF0.7
aF1.6
aF2.3
aF0.4
aF0.5
aF0.3
aF0.1
aF0.3
aF1.2
aF0.8
aF3.3
aF-1.5
aI0
aI0
aI5
aV200783,1610612757
p404
aa(lp405
I201571
aVD.J. Augustin
p406
aI1610612766
aVCHA
p407
aF24.0
aI48
aI7
aI41
aF0.146
aF29.3
aF3.8
aF10.1
aF0.376
aF1.3
aF3.7
aF0.341
aF2.2
aF2.5
aF0.875
aF0.5
aF1.8
aF2.3
aF6.4
aF2.3
aF0.8
aF0.0
aF0.9
aF1.4
aF2.4
aF11.1
aF-8.4
aI6
aI0
aI5
aV201571,1610612766
p408
aa(lp409
I202810
aVD.J. Kennedy
p410
aI1610612739
aVCLE
p411
aF22.0
aI2
aI0
aI2
aF0.0
aF29.4
aF2.5
aF6.0
aF0.417
aF1.0
aF2.0
aF0.5
aF0.0
aF1.0
aF0.0
aF0.5
aF3.0
aF3.5
aF1.5
aF1.5
aF1.0
aF0.0
aF0.0
aF3.5
aF0.5
aF6.0
aF-16.0
aI0
aI0
aI5
aV202810,1610612739
p412
aa(lp413
I201591
aVDJ White
p414
aI1610612766
aVCHA
p415
aF25.0
aI58
aI6
aI52
aF0.103
aF18.9
aF3.0
aF6.1
aF0.493
aF0.0
aF0.0
aF1.0
aF0.7
aF1.1
aF0.705
aF0.9
aF2.7
aF3.6
aF0.8
aF0.7
aF0.3
aF0.4
aF0.5
aF1.6
aF0.9
aF6.8
aF-5.7
aI0
aI0
aI5
aV201591,1610612766
p416
aa(lp417
I201969
aVDaJuan Summers
p418
aI1610612740
aVNOH
p419
aF24.0
aI15
aI2
aI13
aF0.133
aF13.9
aF1.9
aF4.3
aF0.431
aF0.3
aF1.1
aF0.313
aF0.5
aF0.6
aF0.778
aF0.5
aF1.0
aF1.5
aF0.7
aF0.5
aF0.5
aF0.0
aF0.3
aF2.1
aF0.3
aF4.5
aF-2.1
aI0
aI0
aI5
aV201969,1610612740
p420
aa(lp421
I201161
aVDaequan Cook
p422
aI1610612760
aVOKC
p423
aF25.0
aI57
aI41
aI16
aF0.719
aF17.4
aF1.9
aF5.2
aF0.368
aF1.4
aF4.0
aF0.346
aF0.2
aF0.4
aF0.636
aF0.2
aF1.9
aF2.1
aF0.3
aF0.3
aF0.4
aF0.2
aF0.1
aF1.2
aF0.3
aF5.5
aF1.4
aI0
aI0
aI5
aV201161,1610612760
p424
aa(lp425
I2563
aVDahntay Jones
p426
aI1610612754
aVIND
p427
aF31.0
aI65
aI42
aI23
aF0.646
aF16.2
aF1.8
aF4.3
aF0.409
aF0.5
aF1.2
aF0.429
aF1.3
aF1.5
aF0.838
aF0.4
aF1.4
aF1.8
aF1.0
aF0.7
aF0.4
aF0.2
aF0.4
aF1.8
aF1.2
aF5.3
aF-1.1
aI0
aI0
aI5
aV2563,1610612754
p428
aa(lp429
I2863
aVDamien Wilkins
p430
aI1610612765
aVDET
p431
aF32.0
aI60
aI23
aI37
aF0.383
aF15.4
aF1.3
aF3.2
aF0.394
aF0.1
aF0.4
aF0.304
aF0.6
aF0.9
aF0.63
aF0.4
aF1.3
aF1.7
aF0.7
aF0.5
aF0.5
aF0.2
aF0.1
aF1.4
aF0.8
aF3.2
aF-0.9
aI0
aI0
aI5
aV2863,1610612765
p432
aa(lp433
I202345
aVDamion James
p434
aI1610612751
aVNJN
p435
aF24.0
aI7
aI1
aI6
aF0.143
aF24.4
aF1.9
aF5.0
aF0.371
aF0.0
aF0.1
aF0.0
aF1.1
aF1.7
aF0.667
aF1.0
aF3.7
aF4.7
aF0.4
aF1.7
aF1.0
aF1.0
aF0.6
aF2.4
aF1.4
aF4.9
aF-4.0
aI0
aI0
aI5
aV202345,1610612751
p436
aa(lp437
I2429
aVDan Gadzuric
p438
aI1610612752
aVNYK
p439
aF34.0
aI2
aI2
aI0
aF1.0
aF6.6
aF0.0
aF1.0
aF0.0
aF0.0
aF0.0
aF0.0
aF0.0
aF1.0
aF0.0
aF0.5
aF2.0
aF2.5
aF0.0
aF0.5
aF0.5
aF0.5
aF0.5
aF2.0
aF0.5
aF0.0
aF-1.0
aI0
aI0
aI5
aV2429,1610612752
p440
aa(lp441
I200789
aVDaniel Gibson
p442
aI1610612739
aVCLE
p443
aF26.0
aI35
aI14
aI21
aF0.4
aF26.2
aF2.5
aF7.1
aF0.351
aF1.6
aF4.0
aF0.396
aF1.0
aF1.2
aF0.791
aF0.3
aF2.6
aF2.9
aF2.2
aF1.3
aF0.7
aF0.5
aF0.2
aF2.0
aF1.4
aF7.5
aF-1.7
aI0
aI0
aI5
aV200789,1610612739
p444
aa(lp445
I202350
aVDaniel Orton
p446
aI1610612753
aVORL
p447
aF21.0
aI16
aI8
aI8
aF0.5
aF11.7
aF1.1
aF1.9
aF0.567
aF0.0
aF0.1
aF0.0
aF0.7
aF1.6
aF0.44
aF1.2
aF1.3
aF2.4
aF0.3
aF0.4
aF0.5
aF0.6
aF0.1
aF1.9
aF1.1
aF2.8
aF-2.6
aI0
aI0
aI5
aV202350,1610612753
p448
aa(lp449
I201568
aVDanilo Gallinari
p450
aI1610612743
aVDEN
p451
aF23.0
aI43
aI27
aI16
aF0.628
aF31.4
aF4.5
aF10.8
aF0.414
aF1.4
aF4.3
aF0.328
aF4.2
aF4.9
aF0.871
aF0.7
aF4.0
aF4.7
aF2.7
aF1.6
aF1.0
aF0.5
aF0.6
aF2.0
aF4.1
aF14.6
aF5.1
aI2
aI0
aI5
aV201568,1610612743
p452
aa(lp453
I101122
aVDanny Granger
p454
aI1610612754
aVIND
p455
aF29.0
aI62
aI41
aI21
aF0.661
aF33.3
aF6.3
aF15.2
aF0.416
aF2.0
aF5.2
aF0.381
aF4.1
aF4.7
aF0.873
aF1.3
aF3.7
aF5.0
aF1.8
aF1.8
aF1.0
aF0.6
aF1.1
aF2.3
aF3.0
aF18.7
aF4.8
aI0
aI0
aI5
aV101122,1610612754
p456
aa(lp457
I201980
aVDanny Green
p458
aI1610612759
aVSAS
p459
aF25.0
aI66
aI50
aI16
aF0.758
aF23.1
aF3.2
aF7.2
aF0.442
aF1.5
aF3.5
aF0.436
aF1.2
aF1.5
aF0.79
aF0.8
aF2.6
aF3.5
aF1.3
aF1.0
aF0.9
aF0.7
aF0.4
aF1.6
aF1.2
aF9.1
aF3.7
aI0
aI0
aI5
aV201980,1610612759
p460
aa(lp461
I201967
aVDante Cunningham
p462
aI1610612763
aVMEM
p463
aF25.0
aI64
aI39
aI25
aF0.609
aF17.6
aF2.3
aF4.4
aF0.516
aF0.0
aF0.0
aF0.0
aF0.7
aF1.1
aF0.652
aF1.4
aF2.4
aF3.8
aF0.6
aF0.5
aF0.7
aF0.5
aF0.2
aF1.5
aF1.0
aF5.2
aF-0.8
aI1
aI0
aI5
aV201967,1610612763
p464
aa(lp465
I202359
aVDarington Hobson
p466
aI1610612749
aVMIL
p467
aF24.0
aI5
aI1
aI4
aF0.2
aF7.8
aF0.4
aF2.6
aF0.154
aF0.0
aF1.2
aF0.0
aF0.0
aF0.0
aF0.0
aF0.0
aF0.6
aF0.6
aF1.2
aF0.4
aF0.0
aF0.0
aF0.0
aF0.2
aF0.8
aF0.8
aF1.0
aI0
aI0
aI5
aV202359,1610612749
p468
aa(lp469
I202721
aVDarius Morris
p470
aI1610612747
aVLAL
p471
aF21.0
aI19
aI7
aI12
aF0.368
aF8.9
aF0.9
aF2.2
aF0.429
aF0.2
aF0.5
aF0.444
aF0.3
aF0.5
aF0.667
aF0.1
aF0.7
aF0.8
aF1.1
aF1.0
aF0.1
aF0.0
aF0.1
aF0.8
aF0.6
aF2.4
aF-2.8
aI0
aI0
aI5
aV202721,1610612747
p472
aa(lp473
I2545
aVDarko Milicic
p474
aI1610612750
aVMIN
p475
aF27.0
aI29
aI14
aI15
aF0.483
aF16.3
aF2.0
aF4.5
aF0.454
aF0.0
aF0.0
aF0.0
aF0.6
aF1.3
aF0.432
aF1.2
aF2.1
aF3.3
aF0.6
aF1.1
aF0.3
aF0.9
aF0.4
aF2.0
aF1.0
aF4.6
aF-1.5
aI0
aI0
aI5
aV2545,1610612750
p476
aa(lp477
I201954
aVDarren Collison
p478
aI1610612754
aVIND
p479
aF24.0
aI60
aI36
aI24
aF0.6
aF31.3
aF3.8
aF8.7
aF0.44
aF0.6
aF1.6
aF0.362
aF2.1
aF2.6
aF0.83
aF0.5
aF2.6
aF3.1
aF4.8
aF1.9
aF0.8
aF0.2
aF0.8
aF1.7
aF2.1
aF10.4
aF2.0
aI3
aI0
aI5
aV201954,1610612754
p480
aa(lp481
I201208
aVDarryl Watkins
p482
aI1610612740
aVNOH
p483
aF27.0
aI5
aI2
aI3
aF0.4
aF19.5
aF1.4
aF2.8
aF0.5
aF0.0
aF0.0
aF0.0
aF1.8
aF3.6
aF0.5
aF1.6
aF3.8
aF5.4
aF0.6
aF1.6
aF1.0
aF0.8
aF0.2
aF2.8
aF2.2
aF4.6
aF-5.8
aI1
aI0
aI5
aV201208,1610612740
p484
aa(lp485
I101135
aVDavid Lee
p486
aI1610612744
aVGSW
p487
aF29.0
aI57
aI22
aI35
aF0.386
aF37.2
aF8.1
aF16.2
aF0.503
aF0.0
aF0.1
aF0.0
aF3.8
aF4.9
aF0.782
aF3.0
aF6.6
aF9.6
aF2.8
aF2.6
aF0.9
aF0.4
aF1.5
aF3.1
aF4.0
aF20.1
aF-2.5
aI27
aI1
aI5
aV101135,1610612744
p488
aa(lp489
I2561
aVDavid West
p490
aI1610612754
aVIND
p491
aF31.0
aI66
aI42
aI24
aF0.636
aF29.2
aF5.3
aF10.8
aF0.487
aF0.0
aF0.1
aF0.222
aF2.2
aF2.7
aF0.807
aF1.8
aF4.8
aF6.6
aF2.1
aF1.4
aF0.8
aF0.7
aF0.5
aF2.4
aF2.5
aF12.8
aF3.3
aI12
aI0
aI5
aV2561,1610612754
p492
aa(lp493
I201599
aVDeAndre Jordan
p494
aI1610612746
aVLAC
p495
aF23.0
aI66
aI40
aI26
aF0.606
aF27.2
aF3.1
aF4.9
aF0.632
aF0.0
aF0.0
aF0.0
aF1.1
aF2.1
aF0.525
aF3.1
aF5.2
aF8.3
aF0.3
aF1.1
aF0.5
aF2.0
aF0.5
aF2.9
aF2.0
aF7.4
aF2.4
aI8
aI0
aI5
aV201599,1610612746
p496
aa(lp497
I202732
aVDeAndre Liggins
p498
aI1610612753
aVORL
p499
aF24.0
aI17
aI9
aI8
aF0.529
aF6.8
aF0.7
aF1.5
aF0.48
aF0.0
aF0.2
aF0.0
aF0.5
aF1.1
aF0.474
aF0.4
aF0.5
aF0.9
aF0.3
aF0.6
aF0.4
aF0.0
aF0.1
aF0.4
aF0.8
aF1.9
aF-3.9
aI0
aI0
aI5
aV202732,1610612753
p500
aa(lp501
I201971
aVDeJuan Blair
p502
aI1610612759
aVSAS
p503
aF23.0
aI64
aI48
aI16
aF0.75
aF21.3
aF4.2
aF7.9
aF0.534
aF0.0
aF0.0
aF0.0
aF1.1
aF1.9
aF0.613
aF2.4
aF3.1
aF5.5
aF1.2
aF1.4
aF0.9
aF0.2
aF0.8
aF2.6
aF1.7
aF9.5
aF0.5
aI8
aI0
aI5
aV201971,1610612759
p504
aa(lp505
I201942
aVDeMar DeRozan
p506
aI1610612761
aVTOR
p507
aF22.0
aI63
aI22
aI41
aF0.349
aF35.0
aF6.0
aF14.3
aF0.422
aF0.4
aF1.5
aF0.261
aF4.3
aF5.3
aF0.81
aF0.6
aF2.7
aF3.3
aF2.0
aF2.0
aF0.8
aF0.3
aF1.1
aF2.6
aF3.9
aF16.7
aF-1.5
aI0
aI0
aI5
aV201942,1610612761
p508
aa(lp509
I202326
aVDeMarcus Cousins
p510
aI1610612758
aVSAC
p511
aF21.0
aI64
aI20
aI44
aF0.313
aF30.5
aF7.0
aF15.6
aF0.448
aF0.0
aF0.2
aF0.143
aF4.1
aF5.8
aF0.702
aF4.1
aF6.8
aF11.0
aF1.6
aF2.7
aF1.5
aF1.2
aF1.6
aF4.0
aF5.6
aF18.1
aF-2.7
aI36
aI0
aI5
aV202326,1610612758
p512
aa(lp513
I201960
aVDeMarre Carroll
p514
aI1610612762
aVUTA
p515
aF25.0
aI24
aI16
aI8
aF0.667
aF14.5
aF1.8
aF4.4
aF0.41
aF0.3
aF0.8
aF0.368
aF0.6
aF0.7
aF0.875
aF1.2
aF1.0
aF2.2
aF0.8
aF0.5
aF0.5
aF0.0
aF0.5
aF1.5
aF0.5
aF4.5
aF-0.6
aI0
aI0
aI5
aV201960,1610612762
p516
aa(lp517
I2205
aVDeSagana Diop
p518
aI1610612766
aVCHA
p519
aF30.0
aI27
aI1
aI26
aF0.037
aF12.0
aF0.6
aF1.6
aF0.357
aF0.0
aF0.0
aF0.0
aF0.0
aF0.2
aF0.167
aF1.2
aF1.9
aF3.1
aF0.9
aF0.7
aF0.2
aF0.5
aF0.1
aF1.3
aF0.3
aF1.1
aF-4.3
aI0
aI0
aI5
aV2205,1610612766
p520
aa(lp521
I2052
aVDeShawn Stevenson
p522
aI1610612751
aVNJN
p523
aF31.0
aI51
aI20
aI31
aF0.392
aF18.8
aF1.0
aF3.4
aF0.285
aF0.8
aF2.8
aF0.283
aF0.2
aF0.3
aF0.563
aF0.1
aF1.8
aF2.0
aF0.8
aF0.4
aF0.4
aF0.1
aF0.1
aF1.2
aF0.4
aF2.9
aF-3.2
aI0
aI0
aI5
aV2052,1610612751
p524
aa(lp525
I2753
aVDelonte West
p526
aI1610612742
aVDAL
p527
aF28.0
aI44
aI25
aI19
aF0.568
aF24.1
aF3.8
aF8.2
aF0.461
aF0.6
aF1.7
aF0.355
aF1.4
aF1.6
aF0.886
aF0.3
aF2.0
aF2.3
aF3.2
aF1.7
aF1.3
aF0.3
aF0.4
aF1.5
aF1.5
aF9.6
aF-0.6
aI0
aI0
aI5
aV2753,1610612742
p528
aa(lp529
I202862
aVDennis Horner
p530
aI1610612751
aVNJN
p531
aF24.0
aI8
aI3
aI5
aF0.375
aF2.8
aF0.1
aF0.5
aF0.25
aF0.0
aF0.1
aF0.0
aF0.4
aF0.5
aF0.75
aF0.3
aF0.4
aF0.6
aF0.0
aF0.1
aF0.0
aF0.0
aF0.0
aF0.1
aF0.4
aF0.6
aF-2.0
aI0
aI0
aI5
aV202862,1610612751
p532
aa(lp533
I965
aVDerek Fisher
p534
aI1610612760
aVOKC
p535
aF37.0
aI63
aI40
aI23
aF0.635
aF23.9
aF2.0
aF5.5
aF0.371
aF0.6
aF1.7
aF0.321
aF0.9
aF1.1
aF0.851
aF0.2
aF1.7
aF1.9
aF2.7
aF1.2
aF0.8
aF0.1
aF0.3
aF1.9
aF1.2
aF5.6
aF2.4
aI0
aI0
aI5
aV965,1610612760
p536
aa(lp537
I101114
aVDeron Williams
p538
aI1610612751
aVNJN
p539
aF28.0
aI55
aI21
aI34
aF0.382
aF36.3
aF7.1
aF17.5
aF0.407
aF2.1
aF6.2
aF0.336
aF4.7
aF5.5
aF0.843
aF0.4
aF2.9
aF3.3
aF8.7
aF4.0
aF1.2
aF0.4
aF0.9
aF2.2
aF4.6
aF21.0
aF-3.2
aI22
aI0
aI5
aV101114,1610612751
p540
aa(lp541
I201974
aVDerrick Brown
p542
aI1610612766
aVCHA
p543
aF24.0
aI65
aI7
aI58
aF0.108
aF22.2
aF3.3
aF6.3
aF0.518
aF0.1
aF0.4
aF0.25
aF1.4
aF2.2
aF0.667
aF1.5
aF2.2
aF3.6
aF1.0
aF0.8
aF0.7
aF0.2
aF0.6
aF1.5
aF1.7
aF8.1
aF-5.8
aI0
aI0
aI5
aV201974,1610612766
p544
aa(lp545
I201182
aVDerrick Byars
p546
aI1610612759
aVSAS
p547
aF28.0
aI2
aI2
aI0
aF1.0
aF18.4
aF1.5
aF5.5
aF0.273
aF0.0
aF3.0
aF0.0
aF2.0
aF2.0
aF1.0
aF3.0
aF2.5
aF5.5
aF0.5
aF0.0
aF1.0
aF0.0
aF0.0
aF1.0
aF1.0
aF5.0
aF-4.0
aI0
aI0
aI5
aV201182,1610612759
p548
aa(lp549
I202324
aVDerrick Favors
p550
aI1610612762
aVUTA
p551
aF20.0
aI65
aI35
aI30
aF0.538
aF21.2
aF3.4
aF6.8
aF0.499
aF0.0
aF0.0
aF0.0
aF1.9
aF3.0
aF0.649
aF2.4
aF4.1
aF6.5
aF0.7
aF1.6
aF0.6
aF1.0
aF0.8
aF2.2
aF2.2
aF8.8
aF-0.3
aI13
aI0
aI5
aV202324,1610612762
p552
aa(lp553
I201565
aVDerrick Rose
p554
aI1610612741
aVCHI
p555
aF23.0
aI39
aI32
aI7
aF0.821
aF35.2
aF7.7
aF17.8
aF0.435
aF1.4
aF4.4
aF0.312
aF5.0
aF6.1
aF0.812
aF0.7
aF2.7
aF3.4
aF7.9
aF3.1
aF0.9
aF0.7
aF0.9
aF1.3
aF4.3
aF21.8
aF7.4
aI9
aI0
aI5
aV201565,1610612741
p556
aa(lp557
I202682
aVDerrick Williams
p558
aI1610612750
aVMIN
p559
aF21.0
aI66
aI26
aI40
aF0.394
aF21.5
aF3.1
aF7.5
aF0.412
aF0.6
aF2.1
aF0.268
aF2.1
aF3.0
aF0.697
aF1.2
aF3.5
aF4.7
aF0.6
aF1.2
aF0.5
aF0.5
aF0.7
aF1.4
aF1.9
aF8.8
aF-1.6
aI2
aI0
aI5
aV202682,1610612750
p560
aa(lp561
I202365
aVDevin Ebanks
p562
aI1610612747
aVLAL
p563
aF22.0
aI24
aI15
aI9
aF0.625
aF16.5
aF1.5
aF3.7
aF0.416
aF0.0
aF0.4
aF0.0
aF1.0
aF1.5
aF0.657
aF1.1
aF1.2
aF2.3
aF0.5
aF0.8
aF0.5
aF0.3
aF0.3
aF1.1
aF1.0
aF4.0
aF0.2
aI0
aI0
aI5
aV202365,1610612747
p564
aa(lp565
I2734
aVDevin Harris
p566
aI1610612762
aVUTA
p567
aF29.0
aI63
aI36
aI27
aF0.571
aF27.6
aF3.8
aF8.6
aF0.445
aF1.2
aF3.4
aF0.362
aF2.5
aF3.3
aF0.746
aF0.2
aF1.6
aF1.8
aF5.0
aF1.9
aF1.0
aF0.2
aF0.4
aF2.2
aF2.9
aF11.3
aF1.5
aI1
aI0
aI5
aV2734,1610612762
p568
aa(lp569
I202354
aVDexter Pittman
p570
aI1610612748
aVMIA
p571
aF24.0
aI35
aI23
aI12
aF0.657
aF8.6
aF1.3
aF2.7
aF0.468
aF0.0
aF0.0
aF0.0
aF0.5
aF0.8
aF0.643
aF0.8
aF1.3
aF2.0
aF0.3
aF0.5
aF0.2
aF0.2
aF0.3
aF2.1
aF0.7
aF3.0
aF0.3
aI0
aI0
aI5
aV202354,1610612748
p572
aa(lp573
I1717
aVDirk Nowitzki
p574
aI1610612742
aVDAL
p575
aF34.0
aI62
aI33
aI29
aF0.532
aF33.5
aF7.6
aF16.7
aF0.457
aF1.3
aF3.4
aF0.368
aF5.1
aF5.7
aF0.896
aF0.7
aF6.0
aF6.7
aF2.2
aF1.9
aF0.7
aF0.5
aF0.5
aF2.1
aF5.1
aF21.6
aF4.2
aI11
aI0
aI5
aV1717,1610612742
p576
aa(lp577
I201187
aVDominic McGuire
p578
aI1610612744
aVGSW
p579
aF26.0
aI64
aI21
aI43
aF0.328
aF17.6
aF1.5
aF3.3
aF0.448
aF0.0
aF0.1
aF0.0
aF0.6
aF0.8
aF0.736
aF1.1
aF2.7
aF3.8
aF1.7
aF0.9
aF0.7
aF0.6
aF0.2
aF1.6
aF0.7
aF3.5
aF-2.4
aI0
aI0
aI5
aV201187,1610612744
p580
aa(lp581
I202346
aVDominique Jones
p582
aI1610612742
aVDAL
p583
aF23.0
aI33
aI15
aI18
aF0.455
aF8.1
aF0.9
aF2.2
aF0.397
aF0.0
aF0.2
aF0.125
aF0.9
aF1.1
aF0.784
aF0.3
aF1.1
aF1.3
aF1.3
aF0.8
aF0.3
aF0.2
aF0.1
aF0.8
aF0.9
aF2.7
aF-2.4
aI0
aI0
aI5
aV202346,1610612742
p584
aa(lp585
I202388
aVDonald Sloan
p586
aI1610612739
aVCLE
p587
aF24.0
aI33
aI10
aI23
aF0.303
aF20.3
aF2.4
aF6.0
aF0.399
aF0.1
aF0.8
aF0.08
aF0.7
aF0.9
aF0.767
aF0.5
aF1.5
aF2.0
aF3.2
aF1.5
aF0.4
aF0.1
aF0.5
aF1.1
aF1.0
aF5.5
aF-7.3
aI0
aI0
aI5
aV202388,1610612739
p588
aa(lp589
I201590
aVDonte Greene
p590
aI1610612758
aVSAC
p591
aF24.0
aI53
aI16
aI37
aF0.302
aF14.7
aF2.0
aF5.0
aF0.406
aF0.5
aF2.0
aF0.238
aF0.8
aF1.0
aF0.8
aF0.4
aF2.2
aF2.5
aF0.6
aF0.6
aF0.3
aF0.5
aF0.4
aF1.3
aF0.9
aF5.4
aF-2.3
aI0
aI0
aI5
aV201590,1610612758
p592
aa(lp593
I2748
aVDorell Wright
p594
aI1610612744
aVGSW
p595
aF26.0
aI61
aI22
aI39
aF0.361
aF27.1
aF3.6
aF8.6
aF0.422
aF1.7
aF4.8
aF0.36
aF1.3
aF1.6
aF0.816
aF1.0
aF3.6
aF4.6
aF1.5
aF0.8
aF1.0
aF0.4
aF0.4
aF1.6
aF1.2
aF10.3
aF-2.9
aI5
aI0
aI5
aV2748,1610612744
p596
aa(lp597
I2400
aVDrew Gooden
p598
aI1610612749
aVMIL
p599
aF30.0
aI56
aI26
aI30
aF0.464
aF26.2
aF5.1
aF11.7
aF0.437
aF0.3
aF1.0
aF0.291
aF3.1
aF3.7
aF0.846
aF2.3
aF4.2
aF6.5
aF2.6
aF1.9
aF0.8
aF0.6
aF0.6
aF2.0
aF2.9
aF13.7
aF-2.8
aI13
aI1
aI5
aV2400,1610612749
p600
aa(lp601
I2730
aVDwight Howard
p602
aI1610612753
aVORL
p603
aF26.0
aI54
aI33
aI21
aF0.611
aF38.3
aF7.7
aF13.4
aF0.573
aF0.0
aF0.1
aF0.0
aF5.2
aF10.6
aF0.491
aF3.7
aF10.8
aF14.5
aF1.9
aF3.2
aF1.5
aF2.1
aF1.0
aF2.9
aF8.5
aF20.6
aF3.3
aI43
aI0
aI5
aV2730,1610612753
p604
aa(lp605
I2548
aVDwyane Wade
p606
aI1610612748
aVMIA
p607
aF30.0
aI49
aI32
aI17
aF0.653
aF33.2
aF8.5
aF17.1
aF0.497
aF0.3
aF1.1
aF0.268
aF4.8
aF6.1
aF0.791
aF1.5
aF3.3
aF4.8
aF4.6
aF2.6
aF1.7
aF1.3
aF0.6
aF2.2
aF4.1
aF22.1
aF7.0
aI4
aI0
aI5
aV2548,1610612748
p608
aa(lp609
I202734
aVE'Twaun Moore
p610
aI1610612738
aVBOS
p611
aF23.0
aI38
aI24
aI14
aF0.632
aF8.7
aF1.1
aF3.0
aF0.381
aF0.4
aF1.2
aF0.378
aF0.2
aF0.2
aF1.0
aF0.1
aF0.8
aF0.9
aF0.9
aF0.6
aF0.3
aF0.1
aF0.2
aF0.9
aF0.3
aF2.9
aF0.8
aI0
aI0
aI5
aV202734,1610612738
p612
aa(lp613
I2853
aVEarl Barron
p614
aI1610612744
aVGSW
p615
aF30.0
aI2
aI1
aI1
aF0.5
aF4.4
aF1.0
aF2.0
aF0.5
aF0.0
aF0.0
aF0.0
aF0.0
aF0.0
aF0.0
aF0.5
aF0.0
aF0.5
aF0.0
aF0.0
aF0.0
aF0.0
aF0.0
aF2.5
aF0.0
aF2.0
aF-1.0
aI0
aI0
aI5
aV2853,1610612744
p616
aa(lp617
I1863
aVEarl Boykins
p618
aI1610612745
aVHOU
p619
aF36.0
aI8
aI4
aI4
aF0.5
aF13.8
aF1.5
aF4.5
aF0.333
aF0.3
aF1.1
aF0.222
aF1.6
aF1.9
aF0.867
aF0.0
aF1.4
aF1.4
aF2.1
aF0.9
aF0.1
aF0.0
aF0.3
aF0.6
aF1.3
aF4.9
aF-1.6
aI0
aI0
aI5
aV1863,1610612745
p620
aa(lp621
I201947
aVEarl Clark
p622
aI1610612753
aVORL
p623
aF24.0
aI45
aI23
aI22
aF0.511
aF12.4
aF1.1
aF3.1
aF0.367
aF0.0
aF0.0
aF0.0
aF0.5
aF0.6
aF0.724
aF0.8
aF2.0
aF2.8
aF0.4
aF0.6
aF0.3
aF0.7
aF0.3
aF1.6
aF0.5
aF2.7
aF-3.8
aI1
aI0
aI5
aV201947,1610612753
p624
aa(lp625
I2248
aVEarl Watson
p626
aI1610612762
aVUTA
p627
aF33.0
aI50
aI24
aI26
aF0.48
aF20.6
aF1.1
aF3.2
aF0.338
aF0.2
aF1.0
aF0.192
aF0.6
aF0.9
aF0.674
aF0.6
aF1.8
aF2.4
aF4.3
aF1.7
aF1.1
aF0.4
aF0.1
aF2.1
aF1.2
aF3.0
aF-0.1
aI0
aI0
aI5
aV2248,1610612762
p628
aa(lp629
I202334
aVEd Davis
p630
aI1610612761
aVTOR
p631
aF23.0
aI66
aI23
aI43
aF0.348
aF23.2
aF2.6
aF5.1
aF0.513
aF0.0
aF0.0
aF0.0
aF1.1
aF1.6
aF0.67
aF2.0
aF4.6
aF6.6
aF0.9
aF1.0
aF0.6
aF1.0
aF0.3
aF2.4
aF1.6
aF6.3
aF-3.5
aI5
aI0
aI5
aV202334,1610612761
p632
aa(lp633
I2201
aVEddy Curry
p634
aI1610612748
aVMIA
p635
aF29.0
aI14
aI12
aI2
aF0.857
aF5.9
aF0.9
aF1.9
aF0.462
aF0.0
aF0.0
aF0.0
aF0.4
aF0.6
aF0.75
aF0.3
aF0.6
aF0.9
aF0.1
aF0.7
aF0.0
aF0.1
aF0.2
aF1.2
aF0.3
aF2.1
aF-4.5
aI0
aI0
aI5
aV2201,1610612748
p636
aa(lp637
I2059
aVEduardo Najera
p638
aI1610612766
aVCHA
p639
aF35.0
aI22
aI2
aI20
aF0.091
aF12.3
aF1.1
aF2.9
aF0.375
aF0.4
aF1.3
aF0.276
aF0.1
aF0.2
aF0.5
aF0.5
aF1.8
aF2.3
aF0.5
aF0.3
aF0.9
aF0.2
aF0.1
aF1.8
aF0.9
aF2.6
aF-1.9
aI0
aI0
aI5
aV2059,1610612766
p640
aa(lp641
I202775
aVEdwin Ubiles
p642
aI1610612764
aVWAS
p643
aF25.0
aI4
aI1
aI3
aF0.25
aF13.0
aF1.3
aF4.5
aF0.278
aF0.3
aF1.3
aF0.2
aF0.8
aF0.8
aF1.0
aF0.5
aF2.0
aF2.5
aF0.3
aF0.3
aF0.3
aF0.3
aF0.3
aF0.3
aF0.8
aF3.5
aF-4.5
aI0
aI0
aI5
aV202775,1610612764
p644
aa(lp645
I202327
aVEkpe Udoh
p646
aI1610612749
aVMIL
p647
aF25.0
aI61
aI29
aI32
aF0.475
aF21.2
aF2.1
aF4.8
aF0.431
aF0.0
aF0.0
aF0.0
aF1.4
aF1.9
aF0.754
aF1.6
aF2.5
aF4.2
aF0.9
aF0.9
aF0.7
aF1.7
aF0.4
aF2.9
aF1.9
aF5.6
aF3.4
aI0
aI0
aI5
aV202327,1610612749
p648
aa(lp649
I202343
aVElliot Williams
p650
aI1610612757
aVPOR
p651
aF23.0
aI24
aI12
aI12
aF0.5
aF6.2
aF1.5
aF3.1
aF0.5
aF0.3
aF1.1
aF0.296
aF0.3
aF0.8
aF0.333
aF0.3
aF0.5
aF0.8
aF0.3
aF0.2
aF0.3
aF0.1
aF0.2
aF0.8
aF0.7
aF3.7
aF-0.9
aI0
aI0
aI5
aV202343,1610612757
p652
aa(lp653
I1882
aVElton Brand
p654
aI1610612755
aVPHI
p655
aF33.0
aI60
aI32
aI28
aF0.533
aF28.9
aF4.8
aF9.7
aF0.494
aF0.0
aF0.0
aF0.0
aF1.4
aF1.9
aF0.733
aF2.4
aF4.7
aF7.2
aF1.6
aF1.1
aF1.0
aF1.6
aF0.5
aF2.9
aF1.7
aF11.0
aF3.3
aI11
aI0
aI5
aV1882,1610612755
p656
aa(lp657
I2731
aVEmeka Okafor
p658
aI1610612740
aVNOH
p659
aF29.0
aI27
aI4
aI23
aF0.148
aF28.9
aF4.2
aF7.9
aF0.533
aF0.0
aF0.0
aF0.0
aF1.4
aF2.7
aF0.514
aF2.6
aF5.3
aF7.9
aF0.9
aF1.4
aF0.6
aF1.0
aF0.5
aF2.7
aF2.1
aF9.9
aF-4.9
aI5
aI0
aI5
aV2731,1610612740
p660
aa(lp661
I202683
aVEnes Kanter
p662
aI1610612762
aVUTA
p663
aF20.0
aI66
aI36
aI30
aF0.545
aF13.2
aF1.8
aF3.6
aF0.496
aF0.0
aF0.0
aF0.0
aF1.1
aF1.6
aF0.667
aF1.6
aF2.6
aF4.2
aF0.1
aF0.8
aF0.3
aF0.3
aF0.6
aF1.3
aF1.3
aF4.6
aF-2.0
aI1
aI0
aI5
aV202683,1610612762
p664
aa(lp665
I202339
aVEric Bledsoe
p666
aI1610612746
aVLAC
p667
aF22.0
aI40
aI23
aI17
aF0.575
aF11.6
aF1.2
aF3.2
aF0.389
aF0.2
aF0.8
aF0.2
aF0.7
aF1.1
aF0.636
aF0.6
aF1.1
aF1.6
aF1.7
aF1.2
aF0.8
aF0.4
aF0.1
aF1.5
aF1.0
aF3.3
aF0.7
aI0
aI0
aI5
aV202339,1610612746
p668
aa(lp669
I201286
aVEric Dawson
p670
aI1610612759
aVSAS
p671
aF27.0
aI4
aI3
aI1
aF0.75
aF9.8
aF1.8
aF3.0
aF0.583
aF0.0
aF0.0
aF0.0
aF0.3
aF0.5
aF0.5
aF1.3
aF1.3
aF2.5
aF0.0
aF0.8
aF0.3
aF0.5
aF0.3
aF1.5
aF0.3
aF3.8
aF-6.0
aI0
aI0
aI5
aV201286,1610612759
p672
aa(lp673
I201569
aVEric Gordon
p674
aI1610612740
aVNOH
p675
aF23.0
aI9
aI6
aI3
aF0.667
aF34.5
aF7.0
aF15.6
aF0.45
aF1.1
aF4.4
aF0.25
aF5.4
aF7.2
aF0.754
aF0.2
aF2.6
aF2.8
aF3.4
aF2.7
aF1.4
aF0.4
aF0.9
aF2.2
aF6.1
aF20.6
aF3.8
aI0
aI0
aI5
aV201569,1610612740
p676
aa(lp677
I201953
aVEric Maynor
p678
aI1610612760
aVOKC
p679
aF25.0
aI9
aI7
aI2
aF0.778
aF15.2
aF1.6
aF4.3
aF0.359
aF0.7
aF1.9
aF0.353
aF0.4
aF0.4
aF1.0
aF0.3
aF1.1
aF1.4
aF2.4
aF1.2
aF0.6
aF0.0
aF0.0
aF1.4
aF0.3
aF4.2
aF1.4
aI0
aI0
aI5
aV201953,1610612760
p680
aa(lp681
I956
aVErick Dampier
p682
aI1610612737
aVATL
p683
aF36.0
aI15
aI7
aI8
aF0.467
aF5.6
aF0.1
aF0.5
aF0.125
aF0.0
aF0.0
aF0.0
aF0.0
aF0.0
aF0.0
aF0.7
aF1.0
aF1.7
aF0.3
aF0.2
aF0.1
aF0.3
aF0.0
aF0.6
aF0.3
aF0.1
aF0.4
aI0
aI0
aI5
aV956,1610612737
p684
aa(lp685
I101141
aVErsan Ilyasova
p686
aI1610612749
aVMIL
p687
aF25.0
aI60
aI28
aI32
aF0.467
aF27.6
aF4.9
aF10.0
aF0.492
aF0.9
aF1.9
aF0.455
aF2.4
aF3.1
aF0.781
aF3.3
aF5.6
aF8.8
aF1.2
aF1.3
aF0.7
aF0.7
aF0.6
aF2.2
aF3.1
aF13.0
aF0.3
aI20
aI0
aI5
aV101141,1610612749
p688
aa(lp689
I202323
aVEvan Turner
p690
aI1610612755
aVPHI
p691
aF23.0
aI65
aI34
aI31
aF0.523
aF26.3
aF4.0
aF9.1
aF0.446
aF0.2
aF0.8
aF0.224
aF1.1
aF1.7
aF0.676
aF0.4
aF5.4
aF5.8
aF2.8
aF1.6
aF0.6
aF0.3
aF0.5
aF1.8
aF1.7
aF9.4
aF0.8
aI5
aI0
aI5
aV202323,1610612755
p692
aa(lp693
I1922
aVFrancisco Elson
p694
aI1610612755
aVPHI
p695
aF36.0
aI5
aI3
aI2
aF0.6
aF3.3
aF0.2
aF0.6
aF0.333
aF0.0
aF0.0
aF0.0
aF0.0
aF0.0
aF0.0
aF0.0
aF0.2
aF0.2
aF0.2
aF0.2
aF0.2
aF0.2
aF0.0
aF0.0
aF0.0
aF0.4
aF-2.8
aI0
aI0
aI5
aV1922,1610612755
p696
aa(lp697
I101128
aVFrancisco Garcia
p698
aI1610612758
aVSAC
p699
aF30.0
aI49
aI16
aI33
aF0.327
aF16.3
aF1.8
aF4.7
aF0.376
aF0.8
aF2.7
aF0.29
aF0.5
aF0.6
aF0.8
aF0.2
aF1.8
aF2.0
aF0.6
aF0.4
aF0.7
aF0.8
aF0.1
aF1.5
aF0.7
aF4.8
aF-2.3
aI0
aI0
aI5
aV101128,1610612758
p700
aa(lp701
I201814
aVGary Forbes
p702
aI1610612761
aVTOR
p703
aF27.0
aI48
aI13
aI35
aF0.271
aF14.9
aF2.3
aF5.6
aF0.413
aF0.6
aF1.7
aF0.349
aF1.4
aF1.9
aF0.725
aF0.6
aF1.6
aF2.1
aF1.1
aF1.1
aF0.5
aF0.1
aF0.5
aF1.2
aF1.4
aF6.6
aF-1.2
aI2
aI0
aI5
aV201814,1610612761
p704
aa(lp705
I202390
aVGary Neal
p706
aI1610612759
aVSAS
p707
aF27.0
aI56
aI43
aI13
aF0.768
aF21.5
aF3.8
aF8.7
aF0.436
aF1.5
aF3.5
aF0.419
aF0.9
aF1.1
aF0.781
aF0.2
aF1.9
aF2.1
aF2.1
aF1.1
aF0.5
aF0.0
aF0.3
aF1.3
aF1.5
aF9.9
aF2.2
aI0
aI0
aI5
aV202390,1610612759
p708
aa(lp709
I201588
aVGeorge Hill
p710
aI1610612754
aVIND
p711
aF26.0
aI50
aI35
aI15
aF0.7
aF25.5
aF3.4
aF7.6
aF0.442
aF1.1
aF2.9
aF0.367
aF1.8
aF2.3
aF0.778
aF0.6
aF2.4
aF3.0
aF2.9
aF1.0
aF0.8
aF0.3
aF0.2
aF2.0
aF2.1
aF9.6
aF1.5
aI0
aI0
aI5
aV201588,1610612754
p712
aa(lp713
I101123
aVGerald Green
p714
aI1610612751
aVNJN
p715
aF26.0
aI31
aI12
aI19
aF0.387
aF25.2
aF5.0
aF10.3
aF0.481
aF1.4
aF3.5
aF0.391
aF1.6
aF2.1
aF0.754
aF0.5
aF3.0
aF3.5
aF1.1
aF1.8
aF0.9
aF0.5
aF0.2
aF2.6
aF1.7
aF12.9
aF0.0
aI0
aI0
aI5
aV101123,1610612751
p716
aa(lp717
I201945
aVGerald Henderson
p718
aI1610612766
aVCHA
p719
aF24.0
aI55
aI6
aI49
aF0.109
aF33.3
aF6.0
aF13.1
aF0.459
aF0.2
aF0.9
aF0.234
aF2.8
aF3.7
aF0.76
aF1.2
aF2.9
aF4.1
aF2.3
aF1.8
aF0.9
aF0.4
aF0.6
aF2.3
aF4.0
aF15.1
aF-9.0
aI1
aI0
aI5
aV201945,1610612766
p720
aa(lp721
I2222
aVGerald Wallace
p722
aI1610612751
aVNJN
p723
aF29.0
aI58
aI26
aI32
aF0.448
aF35.8
aF4.9
aF10.9
aF0.454
aF0.8
aF2.6
aF0.307
aF3.1
aF3.9
aF0.8
aF1.5
aF5.2
aF6.7
aF2.8
aF1.9
aF1.5
aF0.6
aF1.0
aF2.5
aF4.2
aF13.8
aF1.7
aI9
aI0
aI5
aV2222,1610612751
p724
aa(lp725
I2240
aVGilbert Arenas
p726
aI1610612763
aVMEM
p727
aF30.0
aI17
aI12
aI5
aF0.706
aF12.4
aF1.5
aF3.8
aF0.406
aF0.8
aF2.3
aF0.333
aF0.4
aF0.6
aF0.7
aF0.1
aF0.9
aF1.1
aF1.1
aF0.7
aF0.6
aF0.1
aF0.2
aF2.1
aF0.5
aF4.2
aF1.6
aI0
aI0
aI5
aV2240,1610612763
p728
aa(lp729
I201175
aVGlen Davis
p730
aI1610612753
aVORL
p731
aF26.0
aI61
aI33
aI28
aF0.541
aF23.4
aF3.7
aF8.8
aF0.421
aF0.0
aF0.2
aF0.143
aF1.9
aF2.7
aF0.683
aF1.8
aF3.7
aF5.4
aF0.8
aF1.2
aF0.7
aF0.3
aF0.7
aF1.7
aF2.3
aF9.3
aF-1.1
aI6
aI0
aI5
aV201175,1610612753
p732
aa(lp733
I201609
aVGoran Dragic
p734
aI1610612745
aVHOU
p735
aF26.0
aI66
aI34
aI32
aF0.515
aF26.5
aF4.2
aF9.1
aF0.462
aF1.0
aF3.1
aF0.337
aF2.3
aF2.9
aF0.805
aF0.8
aF1.7
aF2.5
aF5.3
aF2.4
aF1.3
aF0.2
aF0.5
aF2.5
aF2.7
aF11.7
aF1.0
aI8
aI0
aI5
aV201609,1610612745
p736
aa(lp737
I202330
aVGordon Hayward
p738
aI1610612762
aVUTA
p739
aF22.0
aI66
aI36
aI30
aF0.545
aF30.5
aF4.0
aF8.9
aF0.456
aF0.8
aF2.4
aF0.346
aF2.9
aF3.5
aF0.832
aF0.9
aF2.6
aF3.5
aF3.1
aF1.7
aF0.8
aF0.6
aF0.5
aF1.6
aF2.8
aF11.8
aF0.8
aI1
aI0
aI5
aV202330,1610612762
p740
aa(lp741
I255
aVGrant Hill
p742
aI1610612756
aVPHX
p743
aF39.0
aI49
aI25
aI24
aF0.51
aF28.1
aF4.1
aF9.2
aF0.446
aF0.3
aF1.1
aF0.264
aF1.7
aF2.2
aF0.761
aF0.6
aF2.9
aF3.5
aF2.2
aF1.3
aF0.8
aF0.6
aF0.6
aF1.8
aF2.0
aF10.2
aF2.2
aI0
aI0
aI5
aV255,1610612756
p744
aa(lp745
I202328
aVGreg Monroe
p746
aI1610612765
aVDET
p747
aF22.0
aI66
aI25
aI41
aF0.379
aF31.5
aF6.2
aF11.8
aF0.521
aF0.0
aF0.0
aF0.0
aF3.0
aF4.1
aF0.739
aF3.6
aF6.0
aF9.7
aF2.3
aF2.4
aF1.3
aF0.7
aF1.1
aF2.7
aF3.5
aF15.4
aF-3.1
aI30
aI0
aI5
aV202328,1610612765
p748
aa(lp749
I202962
aVGreg Smith
p750
aI1610612745
aVHOU
p751
aF21.0
aI8
aI5
aI3
aF0.625
aF8.6
aF0.9
aF1.4
aF0.636
aF0.0
aF0.0
aF0.0
aF0.0
aF0.0
aF0.0
aF0.6
aF1.9
aF2.5
aF0.1
aF0.1
aF0.3
aF0.6
aF0.3
aF2.1
aF0.0
aF1.8
aF-0.5
aI0
aI0
aI5
aV202962,1610612745
p752
aa(lp753
I201880
aVGreg Stiemsma
p754
aI1610612738
aVBOS
p755
aF26.0
aI55
aI33
aI22
aF0.6
aF13.9
aF1.2
aF2.2
aF0.545
aF0.0
aF0.0
aF0.0
aF0.5
aF0.7
aF0.707
aF0.9
aF2.3
aF3.2
aF0.5
aF0.6
aF0.7
aF1.5
aF0.3
aF2.6
aF0.7
aF2.9
aF-1.2
aI0
aI0
aI5
aV201880,1610612738
p756
aa(lp757
I202349
aVGreivis Vasquez
p758
aI1610612740
aVNOH
p759
aF25.0
aI66
aI21
aI45
aF0.318
aF25.8
aF3.4
aF7.9
aF0.43
aF0.7
aF2.0
aF0.319
aF1.5
aF1.8
aF0.821
aF0.3
aF2.3
aF2.6
aF5.4
aF2.2
aF0.9
aF0.1
aF0.5
aF1.9
aF1.8
aF8.9
aF-0.1
aI6
aI0
aI5
aV202349,1610612740
p760
aa(lp761
I202970
aVGustavo Ayon
p762
aI1610612740
aVNOH
p763
aF27.0
aI54
aI18
aI36
aF0.333
aF20.2
aF2.6
aF4.8
aF0.536
aF0.0
aF0.0
aF0.0
aF0.7
aF1.2
aF0.619
aF1.6
aF3.3
aF4.9
aF1.4
aF0.9
aF1.0
aF0.9
aF0.6
aF2.2
aF1.2
aF5.9
aF-0.4
aI2
aI0
aI5
aV202970,1610612740
p764
aa(lp765
I101124
aVHakim Warrick
p766
aI1610612756
aVPHX
p767
aF29.0
aI35
aI15
aI20
aF0.429
aF14.4
aF2.1
aF5.1
aF0.411
aF0.0
aF0.3
aF0.1
aF2.2
aF2.8
aF0.768
aF0.9
aF1.7
aF2.6
aF0.9
aF1.0
aF0.2
aF0.1
aF0.3
aF1.0
aF2.0
aF6.4
aF-3.6
aI0
aI0
aI5
aV101124,1610612756
p768
aa(lp769
I202380
aVHamady Ndiaye
p770
aI1610612764
aVWAS
p771
aF25.0
aI3
aI0
aI3
aF0.0
aF1.0
aF0.0
aF0.3
aF0.0
aF0.0
aF0.0
aF0.0
aF0.0
aF0.0
aF0.0
aF0.0
aF0.0
aF0.0
aF0.0
aF0.0
aF0.0
aF0.0
aF0.0
aF0.0
aF0.3
aF0.0
aF2.7
aI0
aI0
aI5
aV202380,1610612764
p772
aa(lp773
I201632
aVHamed Haddadi
p774
aI1610612763
aVMEM
p775
aF27.0
aI35
aI21
aI14
aF0.6
aF5.9
aF0.7
aF1.4
aF0.542
aF0.0
aF0.0
aF0.0
aF0.5
aF0.7
aF0.692
aF0.8
aF1.2
aF2.0
aF0.2
aF0.6
aF0.0
aF0.7
aF0.1
aF1.2
aF0.6
aF2.0
aF0.6
aI0
aI0
aI5
aV201632,1610612763
p776
aa(lp777
I201934
aVHasheem Thabeet
p778
aI1610612757
aVPOR
p779
aF25.0
aI20
aI7
aI13
aF0.35
aF6.9
aF0.6
aF1.1
aF0.524
aF0.0
aF0.0
aF0.0
aF0.7
aF1.0
aF0.65
aF0.8
aF1.3
aF2.1
aF0.0
aF0.4
aF0.1
aF0.5
aF0.1
aF1.0
aF0.8
aF1.8
aF-4.6
aI0
aI0
aI5
aV201934,1610612757
p780
aa(lp781
I202355
aVHassan Whiteside
p782
aI1610612758
aVSAC
p783
aF23.0
aI18
aI6
aI12
aF0.333
aF6.0
aF0.7
aF1.5
aF0.444
aF0.0
aF0.0
aF0.0
aF0.3
aF0.7
aF0.417
aF0.9
aF1.3
aF2.2
aF0.0
aF0.3
aF0.2
aF0.8
aF0.4
aF0.7
aF0.3
aF1.6
aF0.4
aI0
aI0
aI5
aV202355,1610612758
p784
aa(lp785
I2045
aVHedo Turkoglu
p786
aI1610612753
aVORL
p787
aF33.0
aI53
aI30
aI23
aF0.566
aF31.2
aF3.9
aF9.5
aF0.415
aF1.7
aF4.9
aF0.353
aF1.3
aF1.8
aF0.705
aF0.5
aF3.3
aF3.8
aF4.4
aF2.7
aF0.8
aF0.3
aF0.2
aF2.6
aF1.6
aF10.9
aF2.5
aI0
aI0
aI5
aV2045,1610612753
p788
aa(lp789
I201611
aVHenry Walker
p790
aI1610612752
aVNYK
p791
aF24.0
aI32
aI16
aI16
aF0.5
aF19.4
aF2.1
aF5.3
aF0.398
aF1.1
aF3.5
aF0.319
aF0.5
aF0.6
aF0.85
aF0.3
aF2.2
aF2.5
aF1.2
aF1.1
aF0.6
aF0.2
aF0.3
aF2.6
aF0.7
aF5.9
aF-0.4
aI0
aI0
aI5
aV201611,1610612752
p792
aa(lp793
I101133
aVIan Mahinmi
p794
aI1610612742
aVDAL
p795
aF25.0
aI61
aI36
aI25
aF0.59
aF18.7
aF2.1
aF3.9
aF0.546
aF0.0
aF0.0
aF0.0
aF1.5
aF2.4
aF0.639
aF1.8
aF3.0
aF4.7
aF0.2
aF0.8
aF0.6
aF0.5
aF0.4
aF2.9
aF2.0
aF5.8
aF1.1
aI0
aI0
aI5
aV101133,1610612742
p796
aa(lp797
I101113
aVIke Diogu
p798
aI1610612759
aVSAS
p799
aF28.0
aI2
aI1
aI1
aF0.5
aF7.1
aF0.0
aF1.0
aF0.0
aF0.0
aF0.0
aF0.0
aF1.0
aF1.0
aF1.0
aF0.0
aF0.5
aF0.5
aF0.0
aF0.5
aF0.0
aF0.0
aF0.5
aF0.5
aF0.5
aF1.0
aF5.5
aI0
aI0
aI5
aV101113,1610612759
p800
aa(lp801
I202697
aVIman Shumpert
p802
aI1610612752
aVNYK
p803
aF22.0
aI59
aI34
aI25
aF0.576
aF28.9
aF3.6
aF9.1
aF0.401
aF0.8
aF2.7
aF0.306
aF1.5
aF1.8
aF0.798
aF0.7
aF2.4
aF3.2
aF2.8
aF1.9
aF1.7
aF0.1
aF0.5
aF2.9
aF2.1
aF9.5
aF1.9
aI0
aI0
aI5
aV202697,1610612752
p804
aa(lp805
I202738
aVIsaiah Thomas
p806
aI1610612758
aVSAC
p807
aF23.0
aI65
aI22
aI43
aF0.338
aF25.5
aF3.9
aF8.8
aF0.448
aF1.3
aF3.4
aF0.379
aF2.4
aF2.8
aF0.832
aF0.7
aF1.8
aF2.6
aF4.1
aF1.6
aF0.8
aF0.1
aF0.5
aF1.9
aF2.7
aF11.5
aF-1.1
aI3
aI0
aI5
aV202738,1610612758
p808
aa(lp809
I202397
aVIsh Smith
p810
aI1610612753
aVORL
p811
aF23.0
aI26
aI12
aI14
aF0.462
aF9.0
aF1.2
aF3.1
aF0.383
aF0.1
aF0.3
aF0.333
aF0.3
aF0.4
aF0.7
aF0.3
aF1.1
aF1.3
aF1.6
aF0.5
aF0.6
aF0.1
aF0.2
aF0.6
aF0.5
aF2.8
aF-1.5
aI0
aI0
aI5
aV202397,1610612753
p812
aa(lp813
I201274
aVIvan Johnson
p814
aI1610612737
aVATL
p815
aF28.0
aI56
aI35
aI21
aF0.625
aF16.7
aF2.5
aF4.9
aF0.513
aF0.0
aF0.1
aF0.333
aF1.3
aF1.8
aF0.72
aF1.2
aF2.9
aF4.0
aF0.6
aF1.2
aF0.8
aF0.3
aF0.8
aF2.1
aF2.1
aF6.4
aF0.6
aI3
aI0
aI5
aV201274,1610612737
p816
aa(lp817
I2747
aVJ.R. Smith
p818
aI1610612752
aVNYK
p819
aF26.0
aI35
aI21
aI14
aF0.6
aF27.6
aF4.7
aF11.6
aF0.407
aF1.9
aF5.5
aF0.347
aF1.1
aF1.6
aF0.709
aF0.8
aF3.1
aF3.9
aF2.4
aF1.3
aF1.5
aF0.2
aF0.3
aF2.5
aF1.5
aF12.5
aF2.8
aI0
aI0
aI5
aV2747,1610612752
p820
aa(lp821
I201581
aVJJ Hickson
p822
aI1610612757
aVPOR
p823
aF23.0
aI54
aI18
aI36
aF0.333
aF23.0
aF3.4
aF7.3
aF0.467
aF0.0
aF0.0
aF0.0
aF1.6
aF2.5
aF0.642
aF2.5
aF3.7
aF6.2
aF0.8
aF1.3
aF0.6
aF0.6
aF0.6
aF1.6
aF2.2
aF8.4
aF-3.7
aI9
aI0
aI5
aV201581,1610612757
p824
aa(lp825
I200755
aVJJ Redick
p826
aI1610612753
aVORL
p827
aF28.0
aI65
aI37
aI28
aF0.569
aF27.1
aF3.8
aF9.0
aF0.425
aF1.7
aF4.1
aF0.418
aF2.2
aF2.4
aF0.911
aF0.3
aF2.0
aF2.3
aF2.5
aF1.0
aF0.4
aF0.1
aF0.3
aF1.4
aF2.0
aF11.6
aF0.4
aI0
aI0
aI5
aV200755,1610612753
p828
aa(lp829
I202707
aVJaJuan Johnson
p830
aI1610612738
aVBOS
p831
aF23.0
aI36
aI21
aI15
aF0.583
aF8.3
aF1.5
aF3.4
aF0.446
aF0.0
aF0.0
aF0.0
aF0.2
aF0.3
aF0.667
aF0.6
aF1.1
aF1.6
aF0.2
aF0.4
aF0.1
aF0.4
aF0.2
aF0.7
aF0.4
aF3.2
aF-1.0
aI0
aI0
aI5
aV202707,1610612738
p832
aa(lp833
I201580
aVJaVale McGee
p834
aI1610612743
aVDEN
p835
aF24.0
aI61
aI22
aI39
aF0.361
aF25.2
aF5.0
aF9.0
aF0.556
aF0.0
aF0.0
aF0.0
aF1.3
aF2.7
aF0.461
aF2.7
aF5.1
aF7.8
aF0.5
aF1.4
aF0.6
aF2.2
aF0.6
aF2.7
aF2.3
aF11.3
aF-5.0
aI15
aI0
aI5
aV201580,1610612743
p836
aa(lp837
I2048
aVJamaal Magloire
p838
aI1610612761
aVTOR
p839
aF34.0
aI34
aI9
aI25
aF0.265
aF11.0
aF0.5
aF1.3
aF0.378
aF0.0
aF0.0
aF0.0
aF0.2
aF0.8
aF0.259
aF0.7
aF2.6
aF3.3
aF0.2
aF0.6
aF0.1
aF0.3
aF0.1
aF1.9
aF0.8
aF1.2
aF1.0
aI0
aI0
aI5
aV2048,1610612761
p840
aa(lp841
I2224
aVJamaal Tinsley
p842
aI1610612762
aVUTA
p843
aF34.0
aI37
aI23
aI14
aF0.622
aF13.7
aF1.5
aF3.8
aF0.404
aF0.3
aF1.0
aF0.27
aF0.4
aF0.5
aF0.765
aF0.2
aF1.1
aF1.2
aF3.3
aF1.4
aF0.5
aF0.2
aF0.2
aF1.3
aF0.5
aF3.7
aF-0.9
aI0
aI0
aI5
aV2224,1610612762
p844
aa(lp845
I2037
aVJamal Crawford
p846
aI1610612757
aVPOR
p847
aF32.0
aI60
aI28
aI32
aF0.467
aF26.9
aF4.7
aF12.3
aF0.384
aF1.3
aF4.3
aF0.308
aF3.2
aF3.4
aF0.927
aF0.3
aF1.7
aF2.0
aF3.2
aF1.9
aF0.9
aF0.2
aF0.6
aF1.2
aF2.3
aF14.0
aF-0.2
aI0
aI0
aI5
aV2037,1610612757
p848
aa(lp849
I200081
aVJamario Moon
p850
aI1610612766
aVCHA
p851
aF32.0
aI8
aI0
aI8
aF0.0
aF15.4
aF0.9
aF3.0
aF0.292
aF0.3
aF1.3
aF0.2
aF0.3
aF0.3
aF1.0
aF0.3
aF2.5
aF2.8
aF0.6
aF1.0
aF0.1
aF0.6
aF0.3
aF0.6
aF0.1
aF2.3
aF-11.0
aI0
aI0
aI5
aV200081,1610612766
p852
aa(lp853
I2749
aVJameer Nelson
p854
aI1610612753
aVORL
p855
aF30.0
aI57
aI33
aI24
aF0.579
aF29.9
aF4.5
aF10.6
aF0.427
aF1.5
aF4.1
aF0.377
aF1.2
aF1.5
aF0.807
aF0.5
aF2.7
aF3.2
aF5.7
aF2.4
aF0.7
aF0.1
aF0.7
aF2.3
aF2.1
aF11.9
aF3.0
aI4
aI0
aI5
aV2749,1610612753
p856
aa(lp857
I202341
aVJames Anderson
p858
aI1610612759
aVSAS
p859
aF23.0
aI51
aI40
aI11
aF0.784
aF11.8
aF1.3
aF3.4
aF0.379
aF0.4
aF1.3
aF0.279
aF0.8
aF1.0
aF0.75
aF0.3
aF1.2
aF1.5
aF0.8
aF0.6
aF0.2
aF0.0
aF0.3
aF0.7
aF0.7
aF3.7
aF1.9
aI0
aI0
aI5
aV202341,1610612759
p860
aa(lp861
I201935
aVJames Harden
p862
aI1610612760
aVOKC
p863
aF22.0
aI62
aI44
aI18
aF0.71
aF31.4
aF5.0
aF10.1
aF0.491
aF1.8
aF4.7
aF0.39
aF5.0
aF6.0
aF0.846
aF0.5
aF3.6
aF4.1
aF3.7
aF2.2
aF1.0
aF0.2
aF0.8
aF2.4
aF4.2
aF16.8
aF5.9
aI0
aI0
aI5
aV201935,1610612760
p864
aa(lp865
I201949
aVJames Johnson
p866
aI1610612761
aVTOR
p867
aF25.0
aI62
aI21
aI41
aF0.339
aF25.2
aF3.8
aF8.4
aF0.45
aF0.3
aF1.0
aF0.317
aF1.3
aF1.9
aF0.704
aF1.2
aF3.5
aF4.7
aF2.0
aF1.6
aF1.1
aF1.4
aF0.7
aF2.9
aF1.5
aF9.1
aF-2.4
aI3
aI0
aI5
aV201949,1610612761
p868
aa(lp869
I2592
aVJames Jones
p870
aI1610612748
aVMIA
p871
aF31.0
aI51
aI37
aI14
aF0.725
aF13.1
aF1.1
aF2.9
aF0.38
aF0.9
aF2.2
aF0.404
aF0.5
aF0.6
aF0.833
aF0.1
aF0.8
aF1.0
aF0.4
aF0.2
aF0.3
aF0.2
aF0.0
aF0.9
aF0.7
aF3.6
aF0.4
aI0
aI0
aI5
aV2592,1610612748
p872
aa(lp873
I101189
aVJames Singleton
p874
aI1610612764
aVWAS
p875
aF30.0
aI12
aI8
aI4
aF0.667
aF21.9
aF3.4
aF6.3
aF0.547
aF0.2
aF0.8
aF0.222
aF1.2
aF1.3
aF0.933
aF2.1
aF4.7
aF6.8
aF1.3
aF0.8
aF0.8
aF0.7
aF0.3
aF2.3
aF1.3
aF8.2
aF3.2
aI1
aI0
aI5
aV101189,1610612764
p876
aa(lp877
I202686
aVJan Vesely
p878
aI1610612764
aVWAS
p879
aF22.0
aI57
aI19
aI38
aF0.333
aF18.9
aF2.1
aF3.8
aF0.537
aF0.0
aF0.0
aF0.0
aF0.6
aF1.1
aF0.532
aF1.8
aF2.6
aF4.4
aF0.8
aF1.1
aF0.7
aF0.6
aF0.3
aF2.7
aF1.1
aF4.7
aF-1.7
aI2
aI0
aI5
aV202686,1610612764
p880
aa(lp881
I2457
aVJannero Pargo
p882
aI1610612737
aVATL
p883
aF32.0
aI50
aI30
aI20
aF0.6
aF13.4
aF2.1
aF5.1
aF0.415
aF1.1
aF2.8
aF0.384
aF0.4
aF0.4
aF0.95
aF0.2
aF1.3
aF1.5
aF1.9
aF1.0
aF0.4
aF0.0
aF0.1
aF1.3
aF0.7
aF5.6
aF0.8
aI0
aI0
aI5
aV2457,1610612737
p884
aa(lp885
I201162
aVJared Dudley
p886
aI1610612756
aVPHX
p887
aF26.0
aI65
aI32
aI33
aF0.492
aF31.1
aF4.8
aF9.9
aF0.485
aF1.2
aF3.2
aF0.383
aF1.8
aF2.5
aF0.726
aF1.5
aF3.2
aF4.6
aF1.7
aF1.1
aF0.8
aF0.3
aF0.5
aF1.6
aF2.4
aF12.7
aF1.3
aI2
aI0
aI5
aV201162,1610612756
p888
aa(lp889
I2407
aVJared Jeffries
p890
aI1610612752
aVNYK
p891
aF30.0
aI39
aI22
aI17
aF0.564
aF18.7
aF1.5
aF3.7
aF0.41
aF0.1
aF0.4
aF0.188
aF1.3
aF1.8
aF0.681
aF1.8
aF2.1
aF3.9
aF0.7
aF0.7
aF0.7
aF0.6
aF0.5
aF2.3
aF2.1
aF4.4
aF0.5
aI0
aI0
aI5
aV2407,1610612752
p892
aa(lp893
I101127
aVJarrett Jack
p894
aI1610612740
aVNOH
p895
aF28.0
aI45
aI10
aI35
aF0.222
aF34.0
aF5.9
aF13.0
aF0.456
aF0.9
aF2.5
aF0.348
aF2.9
aF3.3
aF0.872
aF0.5
aF3.4
aF3.9
aF6.3
aF2.4
aF0.7
aF0.2
aF0.6
aF2.1
aF3.6
aF15.6
aF-5.8
aI5
aI1
aI5
aV101127,1610612740
p896
aa(lp897
I2215
aVJason Collins
p898
aI1610612737
aVATL
p899
aF33.0
aI30
aI22
aI8
aF0.733
aF10.3
aF0.5
aF1.3
aF0.4
aF0.0
aF0.0
aF0.0
aF0.2
aF0.5
aF0.467
aF0.4
aF1.2
aF1.6
aF0.3
aF0.3
aF0.1
aF0.1
aF0.1
aF1.1
aF0.7
aF1.3
aF0.0
aI0
aI0
aI5
aV2215,1610612737
p900
aa(lp901
I2574
aVJason Kapono
p902
aI1610612747
aVLAL
p903
aF31.0
aI27
aI15
aI12
aF0.556
aF10.0
aF0.8
aF2.0
aF0.382
aF0.3
aF1.0
aF0.296
aF0.1
aF0.1
aF1.0
aF0.1
aF0.4
aF0.5
aF0.4
aF0.2
aF0.1
aF0.0
aF0.0
aF0.8
aF0.0
aF2.0
aF1.3
aI0
aI0
aI5
aV2574,1610612747
p904
aa(lp905
I467
aVJason Kidd
p906
aI1610612742
aVDAL
p907
aF39.0
aI48
aI27
aI21
aF0.563
aF28.7
aF2.1
aF5.7
aF0.363
aF1.6
aF4.6
aF0.354
aF0.5
aF0.6
aF0.786
aF0.3
aF3.8
aF4.1
aF5.5
aF1.9
aF1.7
aF0.2
aF0.1
aF1.7
aF0.8
aF6.2
aF1.4
aI2
aI0
aI5
aV467,1610612742
p908
aa(lp909
I101131
aVJason Maxiell
p910
aI1610612765
aVDET
p911
aF29.0
aI65
aI24
aI41
aF0.369
aF22.6
aF2.8
aF5.9
aF0.478
aF0.0
aF0.0
aF0.0
aF0.9
aF1.6
aF0.547
aF1.9
aF3.2
aF5.1
aF0.6
aF1.1
aF0.5
aF0.8
aF0.5
aF2.3
aF1.8
aF6.5
aF-1.1
aI3
aI0
aI5
aV101131,1610612765
p912
aa(lp913
I2202
aVJason Richardson
p914
aI1610612753
aVORL
p915
aF31.0
aI54
aI30
aI24
aF0.556
aF29.5
aF4.5
aF11.0
aF0.408
aF1.9
aF5.1
aF0.368
aF0.8
aF1.3
aF0.594
aF0.7
aF2.9
aF3.6
aF2.0
aF1.1
aF1.0
aF0.4
aF0.6
aF1.7
aF1.4
aF11.6
aF1.7
aI0
aI0
aI5
aV2202,1610612753
p916
aa(lp917
I201160
aVJason Smith
p918
aI1610612740
aVNOH
p919
aF26.0
aI40
aI13
aI27
aF0.325
aF23.7
aF4.5
aF8.7
aF0.52
aF0.0
aF0.2
aF0.111
aF0.8
aF1.2
aF0.702
aF1.8
aF3.1
aF4.9
aF0.9
aF1.0
aF0.5
aF1.0
aF0.6
aF2.6
aF1.3
aF9.9
aF-0.7
aI4
aI0
aI5
aV201160,1610612740
p920
aa(lp921
I1891
aVJason Terry
p922
aI1610612742
aVDAL
p923
aF34.0
aI63
aI34
aI29
aF0.54
aF31.7
aF5.7
aF13.2
aF0.43
aF2.2
aF5.8
aF0.378
aF1.6
aF1.8
aF0.883
aF0.3
aF2.1
aF2.4
aF3.6
aF2.0
aF1.2
aF0.2
aF0.5
aF1.1
aF1.6
aF15.1
aF0.3
aI0
aI0
aI5
aV1891,1610612742
p924
aa(lp925
I201574
aVJason Thompson
p926
aI1610612758
aVSAC
p927
aF25.0
aI64
aI22
aI42
aF0.344
aF25.9
aF3.7
aF6.9
aF0.535
aF0.0
aF0.0
aF0.0
aF1.7
aF2.8
aF0.602
aF2.6
aF4.3
aF6.9
aF1.2
aF1.1
aF0.7
aF0.7
aF0.8
aF2.3
aF2.6
aF9.1
aF-1.6
aI15
aI0
aI5
aV201574,1610612758
p928
aa(lp929
I202399
aVJeff Adrien
p930
aI1610612745
aVHOU
p931
aF26.0
aI8
aI5
aI3
aF0.625
aF7.8
aF0.9
aF2.0
aF0.438
aF0.0
aF0.0
aF0.0
aF0.9
aF1.5
aF0.583
aF0.6
aF2.1
aF2.8
aF0.1
aF0.3
aF0.0
aF0.3
aF0.3
aF1.6
aF1.4
aF2.6
aF-1.8
aI0
aI0
aI5
aV202399,1610612745
p932
aa(lp933
I201965
aVJeff Ayres
p934
aI1610612754
aVIND
p935
aF25.0
aI20
aI13
aI7
aF0.65
aF5.3
aF0.8
aF1.8
aF0.417
aF0.0
aF0.0
aF0.0
aF0.2
aF0.4
aF0.571
aF0.6
aF1.1
aF1.7
aF0.2
aF0.1
aF0.2
aF0.1
aF0.2
aF0.8
aF0.4
aF1.7
aF0.4
aI0
aI0
aI5
aV201965,1610612754
p936
aa(lp937
I202880
aVJeff Foote
p938
aI1610612740
aVNOH
p939
aF24.0
aI4
aI1
aI3
aF0.25
aF9.8
aF0.5
aF1.5
aF0.333
aF0.0
aF0.0
aF0.0
aF0.0
aF0.0
aF0.0
aF0.3
aF1.3
aF1.5
aF0.0
aF0.5
aF0.0
aF0.3
aF0.5
aF1.3
aF0.3
aF1.0
aF0.0
aI0
aI0
aI5
aV202880,1610612740
p940
aa(lp941
I1902
aVJeff Foster
p942
aI1610612754
aVIND
p943
aF35.0
aI11
aI8
aI3
aF0.727
aF12.8
aF0.8
aF1.6
aF0.5
aF0.1
aF0.1
aF1.0
aF0.5
aF0.8
aF0.667
aF1.6
aF2.2
aF3.8
aF0.4
aF0.6
aF0.7
aF0.1
aF0.1
aF2.4
aF0.6
aF2.3
aF1.8
aI0
aI0
aI5
aV1902,1610612754
p944
aa(lp945
I201952
aVJeff Teague
p946
aI1610612737
aVATL
p947
aF24.0
aI66
aI40
aI26
aF0.606
aF33.1
aF4.8
aF10.2
aF0.476
aF0.8
aF2.3
aF0.342
aF2.1
aF2.8
aF0.757
aF0.3
aF2.1
aF2.4
aF4.9
aF2.0
aF1.6
aF0.6
aF0.9
aF2.2
aF2.3
aF12.6
aF3.5
aI3
aI0
aI5
aV201952,1610612737
p948
aa(lp949
I202379
aVJeremy Evans
p950
aI1610612762
aVUTA
p951
aF24.0
aI29
aI17
aI12
aF0.586
aF7.5
aF0.9
aF1.4
aF0.643
aF0.0
aF0.0
aF0.0
aF0.3
aF0.6
aF0.5
aF0.7
aF1.1
aF1.7
aF0.4
aF0.2
aF0.2
aF0.8
aF0.1
aF0.8
aF0.6
aF2.1
aF-1.9
aI1
aI0
aI5
aV202379,1610612762
p952
aa(lp953
I202391
aVJeremy Lin
p954
aI1610612752
aVNYK
p955
aF23.0
aI35
aI20
aI15
aF0.571
aF26.9
aF4.9
aF10.9
aF0.446
aF0.7
aF2.1
aF0.32
aF4.2
aF5.2
aF0.798
aF0.5
aF2.5
aF3.1
aF6.2
aF3.6
aF1.6
aF0.3
aF0.7
aF2.2
aF4.6
aF14.6
aF4.0
aI7
aI0
aI5
aV202391,1610612752
p956
aa(lp957
I202951
aVJeremy Pargo
p958
aI1610612763
aVMEM
p959
aF26.0
aI44
aI25
aI19
aF0.568
aF9.6
aF1.1
aF3.4
aF0.333
aF0.2
aF0.9
aF0.263
aF0.4
aF0.6
aF0.593
aF0.3
aF0.6
aF0.8
aF1.3
aF1.0
aF0.3
aF0.0
aF0.4
aF1.0
aF0.5
aF2.9
aF-2.7
aI0
aI0
aI5
aV202951,1610612763
p960
aa(lp961
I202719
aVJeremy Tyler
p962
aI1610612744
aVGSW
p963
aF21.0
aI42
aI14
aI28
aF0.333
aF13.5
aF2.1
aF5.0
aF0.421
aF0.0
aF0.0
aF0.0
aF0.7
aF1.2
aF0.558
aF1.3
aF2.0
aF3.3
aF0.4
aF0.9
aF0.4
aF0.5
aF0.6
aF2.0
aF1.1
aF4.9
aF-2.8
aI1
aI0
aI5
aV202719,1610612744
p964
aa(lp965
I979
aVJermaine O'Neal
p966
aI1610612738
aVBOS
p967
aF33.0
aI25
aI11
aI14
aF0.44
aF22.8
aF2.1
aF4.8
aF0.433
aF0.0
aF0.0
aF0.0
aF0.8
aF1.2
aF0.677
aF1.5
aF3.9
aF5.4
aF0.4
aF0.8
aF0.3
aF1.7
aF0.5
aF3.2
aF2.0
aF5.0
aF0.5
aI1
aI0
aI5
aV979,1610612738
p968
aa(lp969
I202406
aVJerome Dyson
p970
aI1610612740
aVNOH
p971
aF25.0
aI9
aI6
aI3
aF0.667
aF20.0
aF2.1
aF5.3
aF0.396
aF0.1
aF0.9
aF0.125
aF3.1
aF4.0
aF0.778
aF0.2
aF1.9
aF2.1
aF2.0
aF2.2
aF1.2
aF0.2
aF0.3
aF2.1
aF3.0
aF7.4
aF0.1
aI0
aI0
aI5
aV202406,1610612740
p972
aa(lp973
I202366
aVJerome Jordan
p974
aI1610612752
aVNYK
p975
aF25.0
aI21
aI15
aI6
aF0.714
aF5.1
aF0.8
aF1.6
aF0.515
aF0.0
aF0.0
aF0.0
aF0.4
aF0.5
aF0.8
aF0.7
aF0.6
aF1.3
aF0.2
aF0.1
aF0.0
aF0.3
aF0.2
aF0.7
aF0.3
aF2.0
aF1.2
aI0
aI0
aI5
aV202366,1610612752
p976
aa(lp977
I202536
aVJerry Smith
p978
aI1610612751
aVNJN
p979
aF24.0
aI5
aI1
aI4
aF0.2
aF9.2
aF0.6
aF2.8
aF0.214
aF0.2
aF1.2
aF0.167
aF0.0
aF0.0
aF0.0
aF0.4
aF1.0
aF1.4
aF0.8
aF0.0
aF1.0
aF0.0
aF0.0
aF1.0
aF0.4
aF1.4
aF-2.4
aI0
aI0
aI5
aV202536,1610612751
p980
aa(lp981
I711
aVJerry Stackhouse
p982
aI1610612737
aVATL
p983
aF37.0
aI30
aI18
aI12
aF0.6
aF9.1
aF1.2
aF3.3
aF0.37
aF0.4
aF1.3
aF0.342
aF0.7
aF0.8
aF0.913
aF0.2
aF0.6
aF0.8
aF0.5
aF0.4
aF0.3
aF0.1
aF0.3
aF0.4
aF0.5
aF3.6
aF-0.1
aI0
aI0
aI5
aV711,1610612737
p984
aa(lp985
I201573
aVJerryd Bayless
p986
aI1610612761
aVTOR
p987
aF23.0
aI31
aI11
aI20
aF0.355
aF22.7
aF3.8
aF8.9
aF0.424
aF1.4
aF3.4
aF0.423
aF2.4
aF2.8
aF0.852
aF0.3
aF1.9
aF2.1
aF3.8
aF1.7
aF0.8
aF0.1
aF0.2
aF2.3
aF2.6
aF11.4
aF-1.3
aI1
aI0
aI5
aV201573,1610612761
p988
aa(lp989
I202690
aVJimmer Fredette
p990
aI1610612758
aVSAC
p991
aF23.0
aI61
aI20
aI41
aF0.328
aF18.6
aF2.8
aF7.3
aF0.386
aF1.3
aF3.5
aF0.361
aF0.7
aF0.8
aF0.833
aF0.3
aF0.9
aF1.2
aF1.8
aF1.1
aF0.5
aF0.0
aF0.4
aF1.2
aF0.8
aF7.6
aF-3.4
aI0
aI0
aI5
aV202690,1610612758
p992
aa(lp993
I202710
aVJimmy Butler
p994
aI1610612741
aVCHI
p995
aF22.0
aI42
aI30
aI12
aF0.714
aF8.5
aF0.8
aF1.9
aF0.405
aF0.0
aF0.3
aF0.182
aF1.0
aF1.3
aF0.768
aF0.5
aF0.8
aF1.3
aF0.3
aF0.3
aF0.3
aF0.1
aF0.3
aF0.5
aF0.8
aF2.6
aF1.9
aI0
aI0
aI5
aV202710,1610612741
p996
aa(lp997
I201149
aVJoakim Noah
p998
aI1610612741
aVCHI
p999
aF27.0
aI64
aI48
aI16
aF0.75
aF30.4
aF3.9
aF7.7
aF0.508
aF0.0
aF0.0
aF0.0
aF2.4
aF3.2
aF0.748
aF3.8
aF6.0
aF9.8
aF2.5
aF1.4
aF0.6
aF1.4
aF1.0
aF2.5
aF2.7
aF10.2
aF4.5
aI24
aI1
aI5
aV201149,1610612741
p1000
aa(lp1001
I201975
aVJodie Meeks
p1002
aI1610612755
aVPHI
p1003
aF24.0
aI66
aI35
aI31
aF0.53
aF24.9
aF2.9
aF7.1
aF0.409
aF1.5
aF4.0
aF0.365
aF1.2
aF1.3
aF0.906
aF0.3
aF2.2
aF2.4
aF0.8
aF0.4
aF0.6
aF0.0
aF0.4
aF1.2
aF1.0
aF8.4
aF2.9
aI0
aI0
aI5
aV201975,1610612755
p1004
aa(lp1005
I2207
aVJoe Johnson
p1006
aI1610612737
aVATL
p1007
aF31.0
aI60
aI36
aI24
aF0.6
aF35.4
aF7.1
aF15.5
aF0.454
aF2.1
aF5.4
aF0.388
aF2.6
aF3.1
aF0.849
aF0.9
aF2.8
aF3.7
aF3.9
aF1.9
aF0.8
aF0.2
aF0.4
aF1.3
aF2.8
aF18.8
aF3.9
aI0
aI0
aI5
aV2207,1610612737
p1008
aa(lp1009
I201202
aVJoel Anthony
p1010
aI1610612748
aVMIA
p1011
aF29.0
aI64
aI45
aI19
aF0.703
aF21.1
aF1.3
aF2.4
aF0.559
aF0.0
aF0.0
aF0.0
aF0.8
aF1.1
aF0.69
aF1.6
aF2.3
aF3.9
aF0.1
aF0.7
aF0.6
aF1.3
aF0.3
aF2.0
aF1.1
aF3.4
aF3.8
aI0
aI0
aI5
aV201202,1610612748
p1012
aa(lp1013
I2038
aVJoel Przybilla
p1014
aI1610612757
aVPOR
p1015
aF32.0
aI27
aI9
aI18
aF0.333
aF16.6
aF0.8
aF1.8
aF0.458
aF0.0
aF0.0
aF0.0
aF0.4
aF0.7
aF0.611
aF1.1
aF4.0
aF5.1
aF0.2
aF0.8
aF0.1
aF0.6
aF0.3
aF2.4
aF0.8
aF2.0
aF-1.6
aI0
aI0
aI5
aV2038,1610612757
p1016
aa(lp1017
I101130
aVJohan Petro
p1018
aI1610612751
aVNJN
p1019
aF26.0
aI59
aI16
aI43
aF0.271
aF15.6
aF1.8
aF4.4
aF0.419
aF0.0
aF0.0
aF1.0
aF0.5
aF0.6
aF0.838
aF1.2
aF2.6
aF3.8
aF0.8
aF0.6
aF0.4
aF0.4
aF0.2
aF2.1
aF0.5
aF4.2
aF-2.5
aI0
aI0
aI5
aV101130,1610612751
p1020
aa(lp1021
I101249
aVJohn Lucas III
p1022
aI1610612741
aVCHI
p1023
aF29.0
aI49
aI36
aI13
aF0.735
aF14.8
aF2.9
aF7.3
aF0.399
aF1.1
aF2.9
aF0.393
aF0.6
aF0.7
aF0.875
aF0.4
aF1.1
aF1.6
aF2.2
aF0.9
aF0.4
aF0.0
aF0.2
aF0.9
aF0.9
aF7.5
aF4.5
aI0
aI0
aI5
aV101249,1610612741
p1024
aa(lp1025
I2422
aVJohn Salmons
p1026
aI1610612758
aVSAC
p1027
aF32.0
aI46
aI16
aI30
aF0.348
aF27.2
aF3.1
aF7.5
aF0.409
aF0.7
aF2.4
aF0.295
aF0.6
aF1.0
aF0.644
aF0.4
aF2.5
aF2.9
aF2.0
aF1.0
aF0.8
aF0.2
aF0.4
aF1.7
aF0.9
aF7.5
aF-4.6
aI0
aI0
aI5
aV2422,1610612758
p1028
aa(lp1029
I202322
aVJohn Wall
p1030
aI1610612764
aVWAS
p1031
aF21.0
aI66
aI20
aI46
aF0.303
aF36.2
aF5.7
aF13.5
aF0.423
aF0.0
aF0.6
aF0.071
aF4.8
aF6.1
aF0.789
aF0.7
aF3.8
aF4.5
aF8.0
aF3.9
aF1.4
aF0.9
aF1.0
aF2.1
aF4.8
aF16.3
aF-3.9
aI16
aI0
aI5
aV202322,1610612764
p1032
aa(lp1033
I201972
aVJon Brockman
p1034
aI1610612749
aVMIL
p1035
aF25.0
aI35
aI16
aI19
aF0.457
aF6.8
aF0.4
aF1.3
aF0.333
aF0.0
aF0.0
aF0.0
aF0.2
aF0.4
aF0.467
aF0.9
aF1.2
aF2.1
aF0.3
aF0.3
aF0.1
aF0.0
aF0.2
aF0.9
aF0.9
aF1.1
aF0.1
aI0
aI0
aI5
aV201972,1610612749
p1036
aa(lp1037
I202720
aVJon Leuer
p1038
aI1610612749
aVMIL
p1039
aF23.0
aI46
aI22
aI24
aF0.478
aF12.1
aF2.1
aF4.2
aF0.508
aF0.1
aF0.2
aF0.333
aF0.5
aF0.6
aF0.75
aF1.0
aF1.6
aF2.6
aF0.5
aF0.4
aF0.3
aF0.4
aF0.3
aF1.5
aF0.7
aF4.7
aF0.4
aI0
aI0
aI5
aV202720,1610612749
p1040
aa(lp1041
I201973
aVJonas Jerebko
p1042
aI1610612765
aVDET
p1043
aF25.0
aI64
aI25
aI39
aF0.391
aF22.9
aF3.3
aF7.1
aF0.468
aF0.5
aF1.7
aF0.302
aF1.6
aF1.9
aF0.806
aF1.5
aF3.3
aF4.8
aF0.7
aF1.0
aF0.6
aF0.3
aF0.5
aF2.5
aF1.6
aF8.7
aF-2.2
aI1
aI0
aI5
aV201973,1610612765
p1044
aa(lp1045
I201938
aVJonny Flynn
p1046
aI1610612757
aVPOR
p1047
aF23.0
aI29
aI11
aI18
aF0.379
aF14.3
aF1.6
aF4.5
aF0.351
aF0.3
aF1.2
aF0.294
aF1.0
aF1.3
aF0.744
aF0.3
aF1.1
aF1.3
aF3.3
aF1.2
aF0.2
aF0.1
aF0.4
aF0.8
aF1.3
aF4.5
aF-4.5
aI1
aI0
aI5
aV201938,1610612757
p1048
aa(lp1049
I202348
aVJordan Crawford
p1050
aI1610612764
aVWAS
p1051
aF23.0
aI64
aI18
aI46
aF0.281
aF27.4
aF5.5
aF13.6
aF0.4
aF1.2
aF4.3
aF0.289
aF2.5
aF3.2
aF0.793
aF0.7
aF1.9
aF2.6
aF3.0
aF2.2
aF0.9
aF0.1
aF0.5
aF1.7
aF2.5
aF14.7
aF-4.5
aI0
aI0
aI5
aV202348,1610612764
p1052
aa(lp1053
I200770
aVJordan Farmar
p1054
aI1610612751
aVNJN
p1055
aF25.0
aI39
aI14
aI25
aF0.359
aF21.3
aF3.8
aF8.1
aF0.467
aF1.4
aF3.2
aF0.44
aF1.5
aF1.6
aF0.905
aF0.2
aF1.4
aF1.6
aF3.3
aF1.7
aF0.6
aF0.1
aF0.2
aF1.3
aF1.5
aF10.4
aF-3.2
aI0
aI0
aI5
aV200770,1610612751
p1056
aa(lp1057
I202706
aVJordan Hamilton
p1058
aI1610612743
aVDEN
p1059
aF21.0
aI26
aI14
aI12
aF0.538
aF9.9
aF1.8
aF4.3
aF0.432
aF0.7
aF1.8
aF0.362
aF0.1
aF0.2
aF0.4
aF0.4
aF2.0
aF2.4
aF0.8
aF0.6
aF0.2
aF0.1
aF0.1
aF0.6
aF0.2
aF4.4
aF1.3
aI0
aI0
aI5
aV202706,1610612743
p1060
aa(lp1061
I201941
aVJordan Hill
p1062
aI1610612747
aVLAL
p1063
aF24.0
aI39
aI21
aI18
aF0.538
aF14.1
aF2.1
aF4.2
aF0.497
aF0.0
aF0.1
aF0.0
aF0.8
aF1.2
aF0.638
aF1.6
aF3.2
aF4.8
aF0.4
aF0.8
aF0.4
aF0.7
aF0.4
aF1.8
aF0.9
aF5.0
aF-0.9
aI5
aI0
aI5
aV201941,1610612747
p1064
aa(lp1065
I202716
aVJordan Williams
p1066
aI1610612751
aVNJN
p1067
aF21.0
aI43
aI10
aI33
aF0.233
aF14.8
aF1.8
aF3.5
aF0.507
aF0.0
aF0.0
aF0.0
aF1.0
aF1.5
aF0.652
aF1.5
aF2.1
aF3.6
aF0.3
aF0.5
aF0.5
aF0.3
aF0.4
aF1.4
aF1.1
aF4.6
aF0.4
aI2
aI0
aI5
aV202716,1610612751
p1068
aa(lp1069
I101181
aVJose Calderon
p1070
aI1610612761
aVTOR
p1071
aF30.0
aI53
aI18
aI35
aF0.34
aF33.9
aF4.1
aF9.0
aF0.457
aF1.1
aF3.0
aF0.371
aF1.1
aF1.3
aF0.882
aF0.4
aF2.7
aF3.0
aF8.8
aF2.0
aF0.9
aF0.1
aF0.3
aF1.8
aF1.6
aF10.5
aF-2.6
aI11
aI0
aI5
aV101181,1610612761
p1072
aa(lp1073
I200826
aVJose Juan Barea
p1074
aI1610612750
aVMIN
p1075
aF28.0
aI41
aI15
aI26
aF0.366
aF25.2
aF4.1
aF10.2
aF0.4
aF1.3
aF3.5
aF0.371
aF1.9
aF2.4
aF0.776
aF0.3
aF2.4
aF2.8
aF5.7
aF2.5
aF0.5
aF0.0
aF0.7
aF1.5
aF3.0
aF11.3
aF-2.3
aI7
aI1
aI5
aV200826,1610612750
p1076
aa(lp1077
I2735
aVJosh Childress
p1078
aI1610612756
aVPHX
p1079
aF29.0
aI34
aI16
aI18
aF0.471
aF14.5
aF1.4
aF2.9
aF0.485
aF0.1
aF0.7
aF0.167
aF0.0
aF0.1
aF0.0
aF0.9
aF1.9
aF2.8
aF1.0
aF0.3
aF0.4
aF0.2
aF0.1
aF1.1
aF0.3
aF2.9
aF-1.9
aI0
aI0
aI5
aV2735,1610612756
p1080
aa(lp1081
I2668
aVJosh Davis
p1082
aI1610612763
aVMEM
p1083
aF31.0
aI15
aI10
aI5
aF0.667
aF8.7
aF0.7
aF1.8
aF0.37
aF0.3
aF0.9
aF0.308
aF0.3
aF0.5
aF0.5
aF1.1
aF0.7
aF1.8
aF0.4
aF0.2
aF0.5
aF0.1
aF0.2
aF1.3
aF0.5
aF1.9
aF-3.1
aI0
aI0
aI5
aV2668,1610612763
p1084
aa(lp1085
I202725
aVJosh Harrellson
p1086
aI1610612752
aVNYK
p1087
aF23.0
aI37
aI18
aI19
aF0.486
aF14.6
aF1.7
aF4.0
aF0.423
aF0.5
aF1.6
aF0.339
aF0.4
aF0.7
aF0.615
aF1.3
aF2.6
aF3.9
aF0.3
aF0.5
aF0.6
aF0.5
aF0.4
aF1.3
aF0.6
aF4.4
aF2.6
aI1
aI0
aI5
aV202725,1610612752
p1088
aa(lp1089
I2572
aVJosh Howard
p1090
aI1610612762
aVUTA
p1091
aF32.0
aI43
aI22
aI21
aF0.512
aF23.0
aF3.3
aF8.4
aF0.399
aF0.2
aF0.9
aF0.243
aF1.7
aF2.3
aF0.773
aF0.9
aF2.8
aF3.7
aF1.2
aF1.2
aF0.7
aF0.2
aF0.4
aF2.1
aF1.7
aF8.7
aF-0.4
aI0
aI0
aI5
aV2572,1610612762
p1092
aa(lp1093
I201177
aVJosh McRoberts
p1094
aI1610612747
aVLAL
p1095
aF25.0
aI50
aI28
aI22
aF0.56
aF14.4
aF1.1
aF2.4
aF0.475
aF0.1
aF0.1
aF0.429
aF0.5
aF0.7
aF0.639
aF1.2
aF2.2
aF3.4
aF1.0
aF0.6
aF0.3
aF0.4
aF0.3
aF1.5
aF0.5
aF2.8
aF-1.8
aI0
aI0
aI5
aV201177,1610612747
p1096
aa(lp1097
I202729
aVJosh Selby
p1098
aI1610612763
aVMEM
p1099
aF21.0
aI28
aI18
aI10
aF0.643
aF8.5
aF0.9
aF2.6
aF0.347
aF0.1
aF0.5
aF0.133
aF0.4
aF0.5
aF0.786
aF0.1
aF0.5
aF0.5
aF1.1
aF1.0
aF0.3
aF0.0
aF0.3
aF0.6
aF0.4
aF2.3
aF-1.4
aI0
aI0
aI5
aV202729,1610612763
p1100
aa(lp1101
I2746
aVJosh Smith
p1102
aI1610612737
aVATL
p1103
aF26.0
aI66
aI40
aI26
aF0.606
aF35.3
aF7.6
aF16.7
aF0.458
aF0.4
aF1.7
aF0.257
aF3.1
aF4.9
aF0.63
aF2.1
aF7.5
aF9.6
aF3.9
aF2.5
aF1.4
aF1.7
aF0.7
aF2.6
aF4.1
aF18.8
aF4.2
aI28
aI0
aI5
aV2746,1610612737
p1104
aa(lp1105
I201950
aVJrue Holiday
p1106
aI1610612755
aVPHI
p1107
aF22.0
aI65
aI35
aI30
aF0.538
aF33.8
aF5.5
aF12.8
aF0.432
aF1.0
aF2.6
aF0.38
aF1.4
aF1.8
aF0.783
aF0.9
aF2.4
aF3.3
aF4.5
aF2.1
aF1.6
aF0.3
aF1.0
aF2.1
aF1.8
aF13.5
aF3.3
aI1
aI0
aI5
aV201950,1610612755
p1108
aa(lp1109
I202933
aVJulyan Stone
p1110
aI1610612743
aVDEN
p1111
aF23.0
aI22
aI10
aI12
aF0.455
aF8.2
aF0.6
aF1.4
aF0.419
aF0.1
aF0.5
aF0.182
aF0.4
aF0.5
aF0.727
aF0.2
aF0.9
aF1.1
aF1.7
aF0.5
aF0.4
aF0.3
aF0.2
aF0.8
aF0.4
aF1.6
aF1.2
aI0
aI0
aI5
aV202933,1610612743
p1112
aa(lp1113
I202458
aVJustin Dentmon
p1114
aI1610612761
aVTOR
p1115
aF26.0
aI6
aI4
aI2
aF0.667
aF15.1
aF1.7
aF4.7
aF0.357
aF0.3
aF2.3
aF0.143
aF0.7
aF1.0
aF0.667
aF0.0
aF1.3
aF1.3
aF1.7
aF1.2
aF0.3
aF0.0
aF0.3
aF1.7
aF1.2
aF4.3
aF-3.7
aI0
aI0
aI5
aV202458,1610612761
p1116
aa(lp1117
I202712
aVJustin Harper
p1118
aI1610612753
aVORL
p1119
aF22.0
aI14
aI7
aI7
aF0.5
aF6.0
aF0.6
aF2.2
aF0.29
aF0.1
aF0.9
aF0.154
aF0.0
aF0.1
aF0.0
aF0.2
aF0.6
aF0.9
aF0.1
aF0.4
aF0.1
aF0.2
aF0.1
aF0.4
aF0.1
aF1.4
aF-2.7
aI0
aI0
aI5
aV202712,1610612753
p1120
aa(lp1121
I436
aVJuwan Howard
p1122
aI1610612748
aVMIA
p1123
aF39.0
aI28
aI21
aI7
aF0.75
aF6.8
aF0.6
aF2.0
aF0.309
aF0.0
aF0.0
aF0.0
aF0.3
aF0.4
aF0.8
aF0.6
aF1.0
aF1.7
aF0.4
aF0.7
aF0.1
aF0.0
aF0.4
aF0.6
aF0.3
aF1.5
aF-1.7
aI0
aI0
aI5
aV436,1610612748
p1124
aa(lp1125
I202695
aVKawhi Leonard
p1126
aI1610612759
aVSAS
p1127
aF21.0
aI64
aI49
aI15
aF0.766
aF24.0
aF3.1
aF6.3
aF0.493
aF0.6
aF1.7
aF0.376
aF1.1
aF1.4
aF0.773
aF1.6
aF3.5
aF5.1
aF1.1
aF0.7
aF1.3
aF0.4
aF0.5
aF1.4
aF1.1
aF7.9
aF2.0
aI4
aI0
aI5
aV202695,1610612759
p1128
aa(lp1129
I202728
aVKeith Benson
p1130
aI1610612744
aVGSW
p1131
aF23.0
aI3
aI1
aI2
aF0.333
aF3.0
aF0.0
aF0.3
aF0.0
aF0.0
aF0.0
aF0.0
aF0.0
aF0.0
aF0.0
aF0.7
aF0.3
aF1.0
aF0.0
aF0.0
aF0.0
aF0.0
aF0.0
aF0.0
aF0.0
aF0.0
aF2.3
aI0
aI0
aI5
aV202728,1610612744
p1132
aa(lp1133
I2586
aVKeith Bogans
p1134
aI1610612751
aVNJN
p1135
aF32.0
aI5
aI1
aI4
aF0.2
aF18.7
aF1.6
aF4.2
aF0.381
aF0.6
aF2.4
aF0.25
aF0.4
aF1.0
aF0.4
aF1.0
aF1.2
aF2.2
aF0.6
aF0.6
aF0.4
aF0.0
aF0.0
aF3.0
aF1.0
aF4.2
aF-9.6
aI0
aI0
aI5
aV2586,1610612751
p1136
aa(lp1137
I101235
aVKelenna Azubuike
p1138
aI1610612742
aVDAL
p1139
aF28.0
aI3
aI1
aI2
aF0.333
aF6.0
aF1.0
aF2.7
aF0.375
aF0.3
aF1.0
aF0.333
aF0.0
aF0.0
aF0.0
aF0.0
aF0.0
aF0.0
aF0.0
aF1.3
aF0.3
aF0.0
aF0.0
aF0.3
aF0.3
aF2.3
aF-3.7
aI0
aI0
aI5
aV101235,1610612742
p1140
aa(lp1141
I202689
aVKemba Walker
p1142
aI1610612766
aVCHA
p1143
aF22.0
aI66
aI7
aI59
aF0.106
aF27.2
aF4.3
aF11.6
aF0.366
aF1.0
aF3.4
aF0.305
aF2.5
aF3.2
aF0.789
aF0.5
aF3.1
aF3.5
aF4.4
aF1.8
aF0.9
aF0.3
aF0.7
aF1.2
aF3.4
aF12.1
aF-7.6
aI2
aI1
aI5
aV202689,1610612766
p1144
aa(lp1145
I2570
aVKendrick Perkins
p1146
aI1610612760
aVOKC
p1147
aF27.0
aI65
aI46
aI19
aF0.708
aF26.8
aF2.0
aF4.0
aF0.489
aF0.0
aF0.0
aF0.0
aF1.1
aF1.7
aF0.652
aF1.8
aF4.7
aF6.6
aF1.2
aF1.8
aF0.4
aF1.1
aF0.5
aF2.9
aF1.7
aF5.1
aF2.2
aI2
aI0
aI5
aV2570,1610612760
p1148
aa(lp1149
I202702
aVKenneth Faried
p1150
aI1610612743
aVDEN
p1151
aF22.0
aI46
aI27
aI19
aF0.587
aF22.5
aF3.9
aF6.7
aF0.586
aF0.0
aF0.0
aF0.0
aF2.4
aF3.6
aF0.665
aF3.1
aF4.6
aF7.7
aF0.8
aF1.2
aF0.7
aF1.0
aF0.9
aF2.5
aF2.8
aF10.2
aF0.1
aI12
aI0
aI5
aV202702,1610612743
p1152
aa(lp1153
I2030
aVKenyon Martin
p1154
aI1610612746
aVLAC
p1155
aF34.0
aI42
aI24
aI18
aF0.571
aF22.4
aF2.3
aF5.2
aF0.441
aF0.1
aF0.3
aF0.231
aF0.5
aF1.3
aF0.37
aF1.2
aF3.1
aF4.3
aF0.4
aF0.8
aF1.0
aF1.0
aF0.2
aF2.5
aF0.8
aF5.2
aF0.6
aI0
aI0
aI5
aV2030,1610612746
p1156
aa(lp1157
I201142
aVKevin Durant
p1158
aI1610612760
aVOKC
p1159
aF23.0
aI66
aI47
aI19
aF0.712
aF38.6
aF9.7
aF19.7
aF0.496
aF2.0
aF5.2
aF0.387
aF6.5
aF7.6
aF0.86
aF0.6
aF7.4
aF8.0
aF3.5
aF3.8
aF1.3
aF1.2
aF0.6
aF2.0
aF4.9
aF28.0
aF5.6
aI18
aI0
aI5
aV201142,1610612760
p1160
aa(lp1161
I708
aVKevin Garnett
p1162
aI1610612738
aVBOS
p1163
aF36.0
aI60
aI37
aI23
aF0.617
aF31.1
aF6.5
aF13.0
aF0.503
aF0.1
aF0.2
aF0.333
aF2.7
aF3.2
aF0.857
aF1.1
aF7.1
aF8.2
aF2.9
aF1.8
aF0.9
aF1.0
aF0.4
aF2.4
aF2.9
aF15.8
aF4.5
aI21
aI0
aI5
aV708,1610612738
p1164
aa(lp1165
I201567
aVKevin Love
p1166
aI1610612750
aVMIN
p1167
aF23.0
aI55
aI24
aI31
aF0.436
aF39.0
aF8.6
aF19.3
aF0.448
aF1.9
aF5.1
aF0.372
aF6.9
aF8.4
aF0.824
aF4.1
aF9.2
aF13.3
aF2.0
aF2.3
aF0.9
aF0.5
aF1.2
aF2.8
aF6.9
aF26.0
aF0.5
aI48
aI0
aI5
aV201567,1610612750
p1168
aa(lp1169
I2755
aVKevin Martin
p1170
aI1610612745
aVHOU
p1171
aF29.0
aI40
aI20
aI20
aF0.5
aF31.6
aF5.6
aF13.4
aF0.413
aF2.0
aF5.6
aF0.347
aF4.0
aF4.5
aF0.894
aF0.3
aF2.3
aF2.7
aF2.8
aF1.8
aF0.7
aF0.1
aF0.5
aF1.8
aF3.0
aF17.1
aF-0.4
aI0
aI0
aI5
aV2755,1610612745
p1172
aa(lp1173
I202338
aVKevin Seraphin
p1174
aI1610612764
aVWAS
p1175
aF22.0
aI57
aI16
aI41
aF0.281
aF20.6
aF3.6
aF6.7
aF0.531
aF0.0
aF0.0
aF0.0
aF0.8
aF1.2
aF0.671
aF1.8
aF3.1
aF4.9
aF0.6
aF1.2
aF0.3
aF1.3
aF0.6
aF2.3
aF1.1
aF7.9
aF-0.7
aI5
aI0
aI5
aV202338,1610612764
p1176
aa(lp1177
I2039
aVKeyon Dooling
p1178
aI1610612738
aVBOS
p1179
aF32.0
aI46
aI26
aI20
aF0.565
aF14.4
aF1.4
aF3.5
aF0.405
aF0.6
aF1.8
aF0.333
aF0.5
aF0.7
aF0.742
aF0.1
aF0.8
aF0.8
aF1.1
aF0.7
aF0.3
aF0.0
aF0.1
aF1.2
aF1.0
aF4.0
aF-2.7
aI0
aI0
aI5
aV2039,1610612738
p1180
aa(lp1181
I2550
aVKirk Hinrich
p1182
aI1610612737
aVATL
p1183
aF31.0
aI48
aI27
aI21
aF0.563
aF25.8
aF2.5
aF6.1
aF0.414
aF1.0
aF2.8
aF0.346
aF0.5
aF0.7
aF0.781
aF0.2
aF1.9
aF2.1
aF2.8
aF1.2
aF0.8
aF0.2
aF0.3
aF2.1
aF0.9
aF6.6
aF1.1
aI0
aI0
aI5
aV2550,1610612737
p1184
aa(lp1185
I202691
aVKlay Thompson
p1186
aI1610612744
aVGSW
p1187
aF22.0
aI66
aI23
aI43
aF0.348
aF24.4
aF4.8
aF10.9
aF0.443
aF1.7
aF4.1
aF0.414
aF1.2
aF1.4
aF0.868
aF0.4
aF2.1
aF2.4
aF2.0
aF1.6
aF0.7
aF0.3
aF0.5
aF2.3
aF1.2
aF12.5
aF-2.0
aI0
aI0
aI5
aV202691,1610612744
p1188
aa(lp1189
I977
aVKobe Bryant
p1190
aI1610612747
aVLAL
p1191
aF33.0
aI58
aI36
aI22
aF0.621
aF38.5
aF9.9
aF23.0
aF0.43
aF1.5
aF4.9
aF0.303
aF6.6
aF7.8
aF0.845
aF1.1
aF4.3
aF5.4
aF4.6
aF3.5
aF1.2
aF0.3
aF0.8
aF1.8
aF5.8
aF27.9
aF2.4
aI3
aI0
aI5
aV977,1610612747
p1192
aa(lp1193
I201585
aVKosta Koufos
p1194
aI1610612743
aVDEN
p1195
aF23.0
aI48
aI28
aI20
aF0.583
aF16.5
aF2.4
aF4.0
aF0.599
aF0.0
aF0.0
aF0.0
aF0.7
aF1.1
aF0.6
aF2.0
aF3.4
aF5.4
aF0.3
aF0.7
aF0.5
aF0.9
aF0.4
aF2.0
aF1.0
aF5.5
aF2.1
aI3
aI0
aI5
aV201585,1610612743
p1196
aa(lp1197
I2743
aVKris Humphries
p1198
aI1610612751
aVNJN
p1199
aF27.0
aI62
aI22
aI40
aF0.355
aF34.9
aF5.2
aF10.8
aF0.481
aF0.0
aF0.0
aF0.0
aF3.4
aF4.5
aF0.752
aF3.8
aF7.2
aF11.0
aF1.5
aF1.9
aF0.8
aF1.2
aF1.4
aF2.8
aF3.9
aF13.8
aF-2.8
aI29
aI0
aI5
aV2743,1610612751
p1200
aa(lp1201
I703
aVKurt Thomas
p1202
aI1610612757
aVPOR
p1203
aF39.0
aI53
aI23
aI30
aF0.434
aF15.1
aF1.4
aF3.0
aF0.465
aF0.0
aF0.0
aF0.0
aF0.3
aF0.4
aF0.7
aF0.7
aF2.8
aF3.5
aF0.9
aF0.6
aF0.5
aF0.6
aF0.2
aF2.3
aF0.6
aF3.0
aF0.4
aI0
aI0
aI5
aV703,1610612757
p1204
aa(lp1205
I2198
aVKwame Brown
p1206
aI1610612744
aVGSW
p1207
aF30.0
aI9
aI3
aI6
aF0.333
aF20.8
aF2.3
aF4.4
aF0.525
aF0.0
aF0.0
aF0.0
aF1.7
aF3.8
aF0.441
aF1.8
aF4.6
aF6.3
aF0.4
aF1.6
aF0.9
aF0.0
aF0.6
aF2.3
aF2.9
aF6.3
aF-3.2
aI0
aI0
aI5
aV2198,1610612744
p1208
aa(lp1209
I2594
aVKyle Korver
p1210
aI1610612741
aVCHI
p1211
aF31.0
aI65
aI49
aI16
aF0.754
aF22.6
aF2.7
aF6.3
aF0.432
aF1.8
aF4.2
aF0.435
aF0.8
aF1.0
aF0.833
aF0.4
aF2.0
aF2.4
aF1.7
aF0.8
aF0.6
aF0.2
aF0.1
aF1.7
aF0.8
aF8.1
aF5.0
aI0
aI0
aI5
aV2594,1610612741
p1212
aa(lp1213
I200768
aVKyle Lowry
p1214
aI1610612745
aVHOU
p1215
aF26.0
aI47
aI24
aI23
aF0.511
aF32.1
aF4.5
aF10.9
aF0.409
aF1.7
aF4.5
aF0.374
aF3.6
aF4.2
aF0.864
aF0.8
aF3.7
aF4.5
aF6.6
aF2.8
aF1.6
aF0.3
aF0.7
aF2.8
aF4.4
aF14.3
aF1.0
aI4
aI1
aI5
aV200768,1610612745
p1216
aa(lp1217
I202681
aVKyrie Irving
p1218
aI1610612739
aVCLE
p1219
aF20.0
aI51
aI17
aI34
aF0.333
aF30.5
aF6.9
aF14.6
aF0.469
aF1.4
aF3.6
aF0.399
aF3.4
aF3.8
aF0.872
aF0.9
aF2.9
aF3.7
aF5.4
aF3.1
aF1.1
aF0.4
aF1.0
aF2.2
aF2.9
aF18.5
aF-3.1
aI1
aI0
aI5
aV202681,1610612739
p1220
aa(lp1221
I201178
aVKyrylo Fesenko
p1222
aI1610612754
aVIND
p1223
aF25.0
aI3
aI3
aI0
aF1.0
aF5.7
aF0.7
aF1.7
aF0.4
aF0.0
aF0.0
aF0.0
aF1.3
aF2.0
aF0.667
aF0.7
aF2.3
aF3.0
aF0.3
aF0.0
aF0.7
aF0.0
aF0.3
aF0.7
aF1.0
aF2.7
aF2.3
aI0
aI0
aI5
aV201178,1610612754
p1224
aa(lp1225
I200746
aVLaMarcus Aldridge
p1226
aI1610612757
aVPOR
p1227
aF26.0
aI55
aI26
aI29
aF0.473
aF36.3
aF8.8
aF17.1
aF0.512
aF0.0
aF0.2
aF0.182
aF4.1
aF5.0
aF0.814
aF2.7
aF5.3
aF8.0
aF2.4
aF2.0
aF0.9
aF0.8
aF0.5
aF2.8
aF4.3
aF21.7
aF2.7
aI13
aI0
aI5
aV200746,1610612757
p1228
aa(lp1229
I1885
aVLamar Odom
p1230
aI1610612742
aVDAL
p1231
aF32.0
aI50
aI31
aI19
aF0.62
aF20.5
aF2.5
aF7.0
aF0.352
aF0.6
aF2.2
aF0.252
aF1.2
aF2.0
aF0.592
aF0.7
aF3.4
aF4.2
aF1.7
aF1.0
aF0.4
aF0.4
aF0.6
aF1.9
aF1.6
aF6.6
aF-1.5
aI0
aI0
aI5
aV1885,1610612742
p1232
aa(lp1233
I202362
aVLance Stephenson
p1234
aI1610612754
aVIND
p1235
aF21.0
aI42
aI25
aI17
aF0.595
aF10.5
aF1.1
aF3.0
aF0.376
aF0.1
aF0.7
aF0.133
aF0.2
aF0.4
aF0.471
aF0.3
aF1.0
aF1.3
aF1.1
aF0.9
aF0.5
aF0.1
aF0.2
aF0.7
aF0.4
aF2.5
aF-0.7
aI0
aI0
aI5
aV202362,1610612754
p1236
aa(lp1237
I202498
aVLance Thomas
p1238
aI1610612740
aVNOH
p1239
aF24.0
aI42
aI16
aI26
aF0.381
aF15.0
aF1.4
aF3.0
aF0.452
aF0.0
aF0.0
aF0.0
aF1.2
aF1.5
aF0.839
aF1.2
aF1.8
aF3.0
aF0.3
aF0.6
aF0.2
aF0.2
aF0.4
aF1.9
aF1.1
aF4.0
aF-2.2
aI0
aI0
aI5
aV202498,1610612740
p1240
aa(lp1241
I202361
aVLandry Fields
p1242
aI1610612752
aVNYK
p1243
aF24.0
aI66
aI36
aI30
aF0.545
aF28.7
aF3.6
aF7.8
aF0.46
aF0.5
aF1.8
aF0.256
aF1.2
aF2.1
aF0.562
aF0.9
aF3.3
aF4.2
aF2.6
aF1.5
aF1.2
aF0.3
aF0.5
aF1.5
aF1.9
aF8.8
aF3.2
aI2
aI0
aI5
aV202361,1610612752
p1244
aa(lp1245
I1716
aVLarry Hughes
p1246
aI1610612753
aVORL
p1247
aF33.0
aI9
aI4
aI5
aF0.444
aF12.6
aF0.6
aF2.4
aF0.227
aF0.1
aF0.8
aF0.143
aF0.1
aF0.2
aF0.5
aF0.1
aF0.4
aF0.6
aF0.8
aF1.3
aF0.2
aF0.0
aF0.1
aF1.1
aF0.1
aF1.3
aF-6.0
aI0
aI0
aI5
aV1716,1610612753
p1248
aa(lp1249
I202082
aVLarry Owens
p1250
aI1610612751
aVNJN
p1251
aF29.0
aI7
aI3
aI4
aF0.429
aF10.7
aF0.6
aF1.6
aF0.364
aF0.3
aF0.7
aF0.4
aF0.4
aF0.6
aF0.75
aF0.3
aF1.6
aF1.9
aF0.6
aF0.3
aF0.0
aF0.1
aF0.1
aF1.4
aF0.6
aF1.9
aF-5.3
aI0
aI0
aI5
aV202082,1610612751
p1252
aa(lp1253
I202336
aVLarry Sanders
p1254
aI1610612749
aVMIL
p1255
aF23.0
aI52
aI24
aI28
aF0.462
aF12.4
aF1.6
aF3.5
aF0.457
aF0.0
aF0.0
aF0.0
aF0.3
aF0.7
aF0.474
aF1.2
aF1.9
aF3.1
aF0.6
aF0.8
aF0.6
aF1.5
aF0.3
aF2.6
aF0.7
aF3.6
aF2.0
aI1
aI0
aI5
aV202336,1610612749
p1256
aa(lp1257
I202730
aVLavoy Allen
p1258
aI1610612755
aVPHI
p1259
aF23.0
aI41
aI22
aI19
aF0.537
aF15.2
aF1.9
aF4.1
aF0.473
aF0.0
aF0.0
aF0.0
aF0.3
aF0.3
aF0.786
aF1.1
aF3.0
aF4.2
aF0.8
aF0.5
aF0.3
aF0.4
aF0.2
aF1.8
aF0.6
aF4.1
aF1.1
aI0
aI0
aI5
aV202730,1610612755
p1260
aa(lp1261
I202351
aVLazar Hayward
p1262
aI1610612760
aVOKC
p1263
aF25.0
aI26
aI19
aI7
aF0.731
aF5.4
aF0.5
aF1.5
aF0.342
aF0.2
aF0.5
aF0.286
aF0.3
aF0.5
aF0.583
aF0.1
aF0.5
aF0.6
aF0.2
aF0.3
aF0.1
aF0.0
aF0.0
aF0.7
aF0.3
aF1.4
aF-2.3
aI0
aI0
aI5
aV202351,1610612760
p1264
aa(lp1265
I2544
aVLeBron James
p1266
aI1610612748
aVMIA
p1267
aF27.0
aI62
aI45
aI17
aF0.726
aF37.5
aF10.0
aF18.9
aF0.531
aF0.9
aF2.4
aF0.362
aF6.2
aF8.1
aF0.771
aF1.5
aF6.4
aF7.9
aF6.2
aF3.4
aF1.9
aF0.8
aF0.5
aF1.5
aF6.1
aF27.1
aF7.6
aI23
aI0
aI5
aV2544,1610612748
p1268
aa(lp1269
I2571
aVLeandro Barbosa
p1270
aI1610612754
aVIND
p1271
aF29.0
aI64
aI30
aI34
aF0.469
aF21.6
aF4.2
aF10.0
aF0.425
aF1.0
aF2.7
aF0.382
aF1.6
aF1.9
aF0.815
aF0.5
aF1.5
aF2.0
aF1.5
aF1.5
aF0.9
aF0.1
aF0.6
aF2.1
aF1.6
aF11.1
aF-0.7
aI0
aI0
aI5
aV2571,1610612754
p1272
aa(lp1273
I201991
aVLester Hudson
p1274
aI1610612763
aVMEM
p1275
aF27.0
aI16
aI6
aI10
aF0.375
aF20.9
aF3.9
aF10.1
aF0.383
aF1.0
aF4.0
aF0.25
aF2.1
aF2.6
aF0.829
aF0.4
aF2.4
aF2.9
aF2.3
aF2.0
aF0.9
aF0.2
aF0.3
aF1.6
aF1.9
aF10.9
aF0.1
aI0
aI0
aI5
aV201991,1610612763
p1276
aa(lp1277
I101132
aVLinas Kleiza
p1278
aI1610612761
aVTOR
p1279
aF27.0
aI49
aI17
aI32
aF0.347
aF21.6
aF3.4
aF8.4
aF0.402
aF1.3
aF3.7
aF0.346
aF1.7
aF2.0
aF0.81
aF0.9
aF3.2
aF4.1
aF0.9
aF1.3
aF0.5
aF0.1
aF0.4
aF2.4
aF1.6
aF9.7
aF-0.1
aI1
aI0
aI5
aV101132,1610612761
p1280
aa(lp1281
I200811
aVLou Amundson
p1282
aI1610612754
aVIND
p1283
aF29.0
aI60
aI38
aI22
aF0.633
aF12.5
aF1.5
aF3.5
aF0.43
aF0.0
aF0.0
aF0.0
aF0.6
aF1.4
aF0.427
aF1.6
aF2.1
aF3.7
aF0.2
aF0.8
aF0.5
aF0.7
aF0.5
aF2.1
aF1.2
aF3.6
aF-0.6
aI1
aI0
aI5
aV200811,1610612754
p1284
aa(lp1285
I101150
aVLou Williams
p1286
aI1610612755
aVPHI
p1287
aF25.0
aI64
aI34
aI30
aF0.531
aF26.3
aF5.0
aF12.2
aF0.407
aF1.3
aF3.6
aF0.362
aF3.7
aF4.6
aF0.812
aF0.5
aF2.0
aF2.4
aF3.5
aF1.1
aF0.8
aF0.3
aF0.6
aF1.4
aF3.6
aF14.9
aF3.6
aI0
aI0
aI5
aV101150,1610612755
p1288
aa(lp1289
I201601
aVLuc Mbah a Moute
p1290
aI1610612749
aVMIL
p1291
aF25.0
aI43
aI20
aI23
aF0.465
aF23.5
aF3.1
aF6.1
aF0.51
aF0.0
aF0.1
aF0.25
aF1.5
aF2.4
aF0.641
aF1.8
aF3.5
aF5.3
aF0.7
aF0.9
aF0.9
aF0.5
aF0.5
aF2.2
aF2.0
aF7.7
aF1.1
aI3
aI0
aI5
aV201601,1610612749
p1292
aa(lp1293
I2449
aVLuis Scola
p1294
aI1610612745
aVHOU
p1295
aF32.0
aI66
aI34
aI32
aF0.515
aF31.3
aF6.6
aF13.5
aF0.491
aF0.0
aF0.0
aF0.0
aF2.3
aF3.0
aF0.773
aF1.8
aF4.6
aF6.5
aF2.1
aF2.3
aF0.5
aF0.4
aF1.0
aF3.2
aF3.2
aF15.5
aF1.0
aI11
aI0
aI5
aV2449,1610612745
p1296
aa(lp1297
I202337
aVLuke Babbitt
p1298
aI1610612757
aVPOR
p1299
aF23.0
aI40
aI17
aI23
aF0.425
aF13.4
aF1.8
aF4.3
aF0.41
aF1.1
aF2.5
aF0.43
aF0.4
aF0.5
aF0.85
aF0.4
aF2.0
aF2.4
aF0.4
aF0.7
aF0.3
aF0.1
aF0.1
aF1.2
aF0.5
aF5.1
aF-3.6
aI0
aI0
aI5
aV202337,1610612757
p1300
aa(lp1301
I202376
aVLuke Harangody
p1302
aI1610612739
aVCLE
p1303
aF24.0
aI21
aI6
aI15
aF0.286
aF11.0
aF1.1
aF3.1
aF0.354
aF0.2
aF1.0
aF0.238
aF0.4
aF0.6
aF0.75
aF1.0
aF1.6
aF2.5
aF0.3
aF0.2
aF0.3
aF0.1
aF0.4
aF0.8
aF0.5
aF2.9
aF-2.2
aI1
aI0
aI5
aV202376,1610612739
p1304
aa(lp1305
I2557
aVLuke Ridnour
p1306
aI1610612750
aVMIN
p1307
aF31.0
aI53
aI24
aI29
aF0.453
aF33.0
aF4.6
aF10.4
aF0.44
aF0.9
aF2.9
aF0.322
aF2.0
aF2.2
aF0.891
aF0.4
aF2.3
aF2.7
aF4.8
aF1.8
aF1.1
aF0.3
aF0.3
aF2.6
aF2.0
aF12.1
aF-1.3
aI5
aI0
aI5
aV2557,1610612750
p1308
aa(lp1309
I2575
aVLuke Walton
p1310
aI1610612739
aVCLE
p1311
aF32.0
aI30
aI10
aI20
aF0.333
aF12.1
aF0.8
aF2.2
aF0.369
aF0.2
aF0.7
aF0.35
aF0.0
aF0.0
aF0.0
aF0.4
aF1.2
aF1.6
aF1.2
aF0.9
aF0.2
aF0.0
aF0.0
aF1.4
aF0.2
aF1.8
aF-1.8
aI0
aI0
aI5
aV2575,1610612739
p1312
aa(lp1313
I2736
aVLuol Deng
p1314
aI1610612741
aVCHI
p1315
aF27.0
aI54
aI42
aI12
aF0.778
aF39.4
aF5.8
aF14.0
aF0.412
aF1.5
aF4.0
aF0.367
aF2.4
aF3.1
aF0.77
aF1.4
aF5.1
aF6.5
aF2.9
aF1.8
aF1.0
aF0.7
aF0.8
aF1.5
aF2.5
aF15.3
aF7.0
aI10
aI0
aI5
aV2736,1610612741
p1316
aa(lp1317
I202723
aVMalcolm Lee
p1318
aI1610612750
aVMIN
p1319
aF22.0
aI19
aI3
aI16
aF0.158
aF12.8
aF1.2
aF3.1
aF0.39
aF0.1
aF0.5
aF0.2
aF0.7
aF0.9
aF0.824
aF0.5
aF0.9
aF1.4
aF1.6
aF0.9
aF0.4
aF0.2
aF0.2
aF1.2
aF0.8
aF3.3
aF-1.2
aI0
aI0
aI5
aV202723,1610612750
p1320
aa(lp1321
I202952
aVMalcolm Thomas
p1322
aI1610612759
aVSAS
p1323
aF23.0
aI3
aI2
aI1
aF0.667
aF5.0
aF0.0
aF1.0
aF0.0
aF0.0
aF0.0
aF0.0
aF0.3
aF0.7
aF0.5
aF0.3
aF0.7
aF1.0
aF0.3
aF0.0
aF0.3
aF0.3
aF0.7
aF0.0
aF1.3
aF0.3
aF-1.3
aI0
aI0
aI5
aV202952,1610612759
p1324
aa(lp1325
I202412
aVManny Harris
p1326
aI1610612739
aVCLE
p1327
aF22.0
aI26
aI5
aI21
aF0.192
aF17.5
aF2.3
aF5.8
aF0.4
aF0.5
aF1.4
aF0.333
aF1.6
aF2.3
aF0.695
aF0.4
aF2.3
aF2.7
aF1.2
aF1.0
aF0.5
aF0.2
aF0.5
aF1.1
aF1.7
aF6.7
aF-2.6
aI1
aI0
aI5
aV202412,1610612739
p1328
aa(lp1329
I1938
aVManu Ginobili
p1330
aI1610612759
aVSAS
p1331
aF34.0
aI34
aI28
aI6
aF0.824
aF23.3
aF4.4
aF8.4
aF0.526
aF1.5
aF3.7
aF0.413
aF2.6
aF3.0
aF0.871
aF0.5
aF2.9
aF3.4
aF4.4
aF1.9
aF0.7
aF0.4
aF0.4
aF1.6
aF2.6
aF12.9
aF6.6
aI0
aI0
aI5
aV1938,1610612759
p1332
aa(lp1333
I202705
aVMarShon Brooks
p1334
aI1610612751
aVNJN
p1335
aF23.0
aI56
aI18
aI38
aF0.321
aF29.4
aF4.9
aF11.4
aF0.428
aF0.8
aF2.7
aF0.313
aF2.0
aF2.6
aF0.764
aF1.3
aF2.3
aF3.6
aF2.3
aF2.1
aF0.9
aF0.3
aF0.6
aF2.1
aF2.1
aF12.6
aF-5.6
aI1
aI0
aI5
aV202705,1610612751
p1336
aa(lp1337
I201188
aVMarc Gasol
p1338
aI1610612763
aVMEM
p1339
aF27.0
aI65
aI40
aI25
aF0.615
aF36.5
aF5.5
aF11.4
aF0.482
aF0.0
aF0.2
aF0.083
aF3.6
aF4.9
aF0.748
aF1.8
aF7.1
aF8.9
aF3.1
aF1.9
aF1.0
aF1.9
aF0.6
aF3.1
aF4.9
aF14.6
aF4.2
aI24
aI0
aI5
aV201188,1610612763
p1340
aa(lp1341
I101162
aVMarcin Gortat
p1342
aI1610612756
aVPHX
p1343
aF28.0
aI66
aI33
aI33
aF0.5
aF32.0
aF6.5
aF11.7
aF0.555
aF0.0
aF0.0
aF0.0
aF2.5
aF3.8
aF0.649
aF2.8
aF7.2
aF10.0
aF0.9
aF1.4
aF0.7
aF1.5
aF0.9
aF2.2
aF3.6
aF15.4
aF1.3
aI31
aI0
aI5
aV101162,1610612756
p1344
aa(lp1345
I201158
aVMarco Belinelli
p1346
aI1610612740
aVNOH
p1347
aF26.0
aI66
aI21
aI45
aF0.318
aF29.8
aF4.3
aF10.4
aF0.417
aF1.6
aF4.3
aF0.377
aF1.5
aF2.0
aF0.783
aF0.3
aF2.3
aF2.6
aF1.5
aF1.0
aF0.7
aF0.1
aF0.3
aF1.7
aF1.7
aF11.8
aF-3.7
aI0
aI0
aI5
aV201158,1610612740
p1348
aa(lp1349
I948
aVMarcus Camby
p1350
aI1610612745
aVHOU
p1351
aF38.0
aI59
aI28
aI31
aF0.475
aF22.9
aF2.2
aF4.9
aF0.446
aF0.0
aF0.1
aF0.4
aF0.5
aF1.1
aF0.453
aF2.7
aF6.3
aF9.0
aF1.8
aF1.0
aF0.8
aF1.4
aF0.2
aF2.1
aF1.2
aF4.9
aF0.6
aI7
aI0
aI5
aV948,1610612745
p1352
aa(lp1353
I202694
aVMarcus Morris
p1354
aI1610612745
aVHOU
p1355
aF22.0
aI17
aI8
aI9
aF0.471
aF7.4
aF0.9
aF3.2
aF0.296
aF0.1
aF1.0
aF0.118
aF0.4
aF0.5
aF0.75
aF0.3
aF0.6
aF0.9
aF0.2
aF0.2
aF0.1
aF0.1
aF0.2
aF0.7
aF0.5
aF2.4
aF-1.7
aI0
aI0
aI5
aV202694,1610612745
p1356
aa(lp1357
I201977
aVMarcus Thornton
p1358
aI1610612758
aVSAC
p1359
aF25.0
aI51
aI19
aI32
aF0.373
aF34.9
aF6.9
aF15.7
aF0.438
aF2.1
aF6.1
aF0.345
aF2.8
aF3.2
aF0.865
aF1.6
aF2.0
aF3.7
aF1.9
aF1.6
aF1.4
aF0.2
aF0.6
aF2.2
aF2.2
aF18.7
aF-3.4
aI1
aI0
aI5
aV201977,1610612758
p1360
aa(lp1361
I201596
aVMario Chalmers
p1362
aI1610612748
aVMIA
p1363
aF26.0
aI64
aI45
aI19
aF0.703
aF28.5
aF3.5
aF7.8
aF0.448
aF1.6
aF4.1
aF0.388
aF1.3
aF1.6
aF0.792
aF0.3
aF2.4
aF2.7
aF3.5
aF2.2
aF1.5
aF0.2
aF0.3
aF2.6
aF1.8
aF9.8
aF6.1
aI0
aI0
aI5
aV201596,1610612748
p1364
aa(lp1365
I202693
aVMarkieff Morris
p1366
aI1610612756
aVPHX
p1367
aF22.0
aI63
aI31
aI32
aF0.492
aF19.5
aF2.8
aF6.9
aF0.399
aF0.7
aF2.0
aF0.347
aF1.2
aF1.7
aF0.717
aF1.1
aF3.3
aF4.4
aF1.0
aF1.1
aF0.7
aF0.7
aF0.4
aF2.8
aF1.8
aF7.4
aF-1.2
aI1
aI0
aI5
aV202693,1610612756
p1368
aa(lp1369
I2605
aVMarquis Daniels
p1370
aI1610612738
aVBOS
p1371
aF31.0
aI38
aI18
aI20
aF0.474
aF12.7
aF1.4
aF3.8
aF0.364
aF0.0
aF0.3
aF0.0
aF0.4
aF0.6
aF0.739
aF0.4
aF1.3
aF1.7
aF1.2
aF0.7
aF0.6
aF0.2
aF0.5
aF0.9
aF0.7
aF3.2
aF-0.2
aI0
aI0
aI5
aV2605,1610612738
p1372
aa(lp1373
I201578
aVMarreese Speights
p1374
aI1610612763
aVMEM
p1375
aF24.0
aI60
aI38
aI22
aF0.633
aF22.4
aF3.7
aF8.1
aF0.453
aF0.0
aF0.1
aF0.0
aF1.4
aF1.8
aF0.771
aF2.2
aF4.0
aF6.2
aF0.8
aF1.2
aF0.4
aF0.5
aF0.5
aF2.5
aF1.8
aF8.8
aF-1.3
aI7
aI0
aI5
aV201578,1610612763
p1376
aa(lp1377
I101110
aVMartell Webster
p1378
aI1610612750
aVMIN
p1379
aF25.0
aI47
aI17
aI30
aF0.362
aF24.2
aF2.4
aF5.8
aF0.423
aF0.8
aF2.3
aF0.339
aF1.2
aF1.5
aF0.792
aF0.9
aF2.7
aF3.6
aF0.9
aF1.0
aF0.7
aF0.4
aF0.4
aF1.8
aF1.4
aF6.9
aF-1.7
aI0
aI0
aI5
aV101110,1610612750
p1380
aa(lp1381
I101107
aVMarvin Williams
p1382
aI1610612737
aVATL
p1383
aF26.0
aI57
aI35
aI22
aF0.614
aF26.3
aF3.6
aF8.2
aF0.432
aF1.0
aF2.6
aF0.389
aF2.0
aF2.6
aF0.788
aF1.3
aF3.8
aF5.2
aF1.2
aF0.7
aF0.8
aF0.3
aF0.7
aF1.5
aF1.8
aF10.2
aF1.2
aI2
aI0
aI5
aV101107,1610612737
p1384
aa(lp1385
I2440
aVMatt Barnes
p1386
aI1610612747
aVLAL
p1387
aF32.0
aI63
aI40
aI23
aF0.635
aF22.9
aF2.8
aF6.1
aF0.452
aF0.7
aF2.2
aF0.333
aF1.5
aF2.0
aF0.742
aF1.5
aF3.9
aF5.5
aF2.0
aF1.2
aF0.6
aF0.8
aF0.5
aF2.4
aF1.4
aF7.8
aF0.3
aI4
aI0
aI5
aV2440,1610612747
p1388
aa(lp1389
I2588
aVMatt Bonner
p1390
aI1610612759
aVSAS
p1391
aF32.0
aI65
aI49
aI16
aF0.754
aF20.4
aF2.4
aF5.4
aF0.44
aF1.6
aF3.8
aF0.42
aF0.2
aF0.3
aF0.762
aF0.4
aF2.8
aF3.3
aF0.9
aF0.2
aF0.2
aF0.3
aF0.1
aF1.0
aF0.7
aF6.6
aF5.5
aI1
aI0
aI5
aV2588,1610612759
p1392
aa(lp1393
I2679
aVMatt Carroll
p1394
aI1610612766
aVCHA
p1395
aF31.0
aI53
aI4
aI49
aF0.075
aF11.3
aF1.0
aF3.0
aF0.331
aF0.2
aF0.8
aF0.186
aF0.6
aF0.7
aF0.789
aF0.2
aF0.9
aF1.1
aF0.7
aF0.5
aF0.3
aF0.1
aF0.3
aF1.0
aF0.8
aF2.7
aF-2.8
aI0
aI0
aI5
aV2679,1610612766
p1396
aa(lp1397
I2230
aVMaurice Evans
p1398
aI1610612764
aVWAS
p1399
aF33.0
aI24
aI12
aI12
aF0.5
aF14.3
aF1.9
aF4.7
aF0.402
aF0.7
aF1.9
aF0.378
aF0.4
aF0.5
aF0.769
aF0.3
aF0.7
aF1.0
aF0.4
aF0.4
aF0.6
aF0.0
aF0.2
aF1.5
aF0.4
aF4.9
aF1.0
aI0
aI0
aI5
aV2230,1610612764
p1400
aa(lp1401
I2246
aVMehmet Okur
p1402
aI1610612751
aVNJN
p1403
aF33.0
aI17
aI6
aI11
aF0.353
aF26.7
aF3.1
aF8.2
aF0.374
aF1.4
aF4.2
aF0.319
aF0.2
aF0.3
aF0.6
aF1.3
aF3.5
aF4.8
aF1.8
aF1.5
aF0.5
aF0.3
aF0.2
aF2.6
aF1.2
aF7.6
aF-7.5
aI0
aI0
aI5
aV2246,1610612751
p1404
aa(lp1405
I1897
aVMetta World Peace
p1406
aI1610612747
aVLAL
p1407
aF32.0
aI64
aI40
aI24
aF0.625
aF26.9
aF2.9
aF7.3
aF0.394
aF0.9
aF3.0
aF0.296
aF1.1
aF1.8
aF0.617
aF1.1
aF2.3
aF3.4
aF2.2
aF1.1
aF1.1
aF0.4
aF0.4
aF2.1
aF1.5
aF7.7
aF0.7
aI0
aI0
aI5
aV1897,1610612747
p1408
aa(lp1409
I201563
aVMichael Beasley
p1410
aI1610612750
aVMIN
p1411
aF23.0
aI47
aI19
aI28
aF0.404
aF23.1
aF4.7
aF10.6
aF0.445
aF0.8
aF2.1
aF0.376
aF1.3
aF2.0
aF0.642
aF0.8
aF3.6
aF4.4
aF1.0
aF1.7
aF0.4
aF0.4
aF0.7
aF1.8
aF1.4
aF11.5
aF-1.7
aI4
aI0
aI5
aV201563,1610612750
p1412
aa(lp1413
I2072
aVMichael Redd
p1414
aI1610612756
aVPHX
p1415
aF32.0
aI51
aI25
aI26
aF0.49
aF15.1
aF2.8
aF7.1
aF0.4
aF0.8
aF2.6
aF0.318
aF1.7
aF2.2
aF0.793
aF0.3
aF1.2
aF1.5
aF0.6
aF0.7
aF0.3
aF0.0
aF0.3
aF0.6
aF1.7
aF8.2
aF-2.4
aI0
aI0
aI5
aV2072,1610612756
p1416
aa(lp1417
I2554
aVMickael Pietrus
p1418
aI1610612738
aVBOS
p1419
aF30.0
aI42
aI23
aI19
aF0.548
aF21.9
aF2.5
aF6.4
aF0.385
aF1.5
aF4.3
aF0.335
aF0.5
aF0.7
aF0.645
aF0.4
aF2.7
aF3.1
aF0.6
aF0.8
aF0.5
aF0.2
aF0.2
aF1.9
aF1.0
aF6.9
aF0.9
aI0
aI0
aI5
aV2554,1610612738
p1420
aa(lp1421
I202148
aVMickell Gladness
p1422
aI1610612744
aVGSW
p1423
aF25.0
aI26
aI11
aI15
aF0.423
aF9.7
aF1.0
aF2.3
aF0.424
aF0.0
aF0.0
aF0.0
aF0.2
aF0.5
aF0.5
aF0.5
aF1.7
aF2.2
aF0.2
aF0.3
aF0.2
aF0.8
aF0.3
aF1.2
aF0.4
aF2.2
aF-2.9
aI0
aI0
aI5
aV202148,1610612744
p1424
aa(lp1425
I1710
aVMike Bibby
p1426
aI1610612752
aVNYK
p1427
aF34.0
aI39
aI24
aI15
aF0.615
aF14.3
aF0.9
aF3.2
aF0.282
aF0.7
aF2.2
aF0.318
aF0.2
aF0.2
aF0.75
aF0.1
aF1.4
aF1.5
aF2.1
aF0.5
aF0.5
aF0.1
aF0.0
aF1.2
aF0.5
aF2.6
aF-0.9
aI0
aI0
aI5
aV1710,1610612752
p1428
aa(lp1429
I201144
aVMike Conley
p1430
aI1610612763
aVMEM
p1431
aF24.0
aI62
aI38
aI24
aF0.613
aF35.1
aF4.8
aF11.0
aF0.433
aF1.0
aF2.6
aF0.377
aF2.2
aF2.5
aF0.861
aF0.4
aF2.2
aF2.5
aF6.5
aF2.0
aF2.2
aF0.2
aF0.6
aF2.1
aF2.1
aF12.7
aF4.2
aI8
aI0
aI5
aV201144,1610612763
p1432
aa(lp1433
I2399
aVMike Dunleavy
p1434
aI1610612749
aVMIL
p1435
aF31.0
aI55
aI29
aI26
aF0.527
aF26.3
aF4.3
aF9.2
aF0.474
aF1.5
aF3.8
aF0.399
aF2.1
aF2.6
aF0.811
aF0.5
aF3.2
aF3.7
aF2.1
aF1.1
aF0.5
aF0.1
aF0.3
aF1.6
aF2.2
aF12.3
aF3.2
aI0
aI0
aI5
aV2399,1610612749
p1436
aa(lp1437
I2229
aVMike James
p1438
aI1610612741
aVCHI
p1439
aF37.0
aI11
aI10
aI1
aF0.909
aF10.9
aF1.8
aF4.5
aF0.408
aF0.5
aF0.9
aF0.6
aF0.6
aF0.7
aF0.875
aF0.2
aF0.7
aF0.9
aF2.6
aF1.3
aF0.4
aF0.2
aF0.5
aF1.8
aF0.6
aF4.8
aF5.8
aI0
aI0
aI5
aV2229,1610612741
p1440
aa(lp1441
I2034
aVMike Miller
p1442
aI1610612748
aVMIA
p1443
aF32.0
aI39
aI29
aI10
aF0.744
aF19.3
aF2.3
aF5.4
aF0.435
aF1.4
aF3.0
aF0.453
aF0.1
aF0.1
aF0.4
aF0.6
aF2.7
aF3.3
aF1.1
aF0.8
aF0.4
aF0.2
aF0.2
aF1.5
aF0.4
aF6.1
aF3.8
aI1
aI0
aI5
aV2034,1610612748
p1444
aa(lp1445
I1630
aVMikki Moore
p1446
aI1610612744
aVGSW
p1447
aF36.0
aI7
aI1
aI6
aF0.143
aF16.8
aF1.3
aF2.9
aF0.45
aF0.0
aF0.0
aF0.0
aF0.9
aF1.0
aF0.857
aF1.0
aF2.1
aF3.1
aF0.7
aF1.0
aF0.4
aF0.4
aF0.3
aF3.4
aF1.6
aF3.4
aF-2.3
aI0
aI0
aI5
aV1630,1610612744
p1448
aa(lp1449
I2590
aVMo Williams
p1450
aI1610612746
aVLAC
p1451
aF29.0
aI52
aI29
aI23
aF0.558
aF28.3
aF5.0
aF11.8
aF0.426
aF1.8
aF4.6
aF0.389
aF1.4
aF1.5
aF0.9
aF0.4
aF1.5
aF1.9
aF3.1
aF1.7
aF1.0
aF0.1
aF0.6
aF2.0
aF1.4
aF13.2
aF-0.8
aI0
aI0
aI5
aV2590,1610612746
p1452
aa(lp1453
I101145
aVMonta Ellis
p1454
aI1610612749
aVMIL
p1455
aF26.0
aI58
aI29
aI29
aF0.5
aF36.6
aF7.8
aF17.9
aF0.433
aF1.1
aF3.5
aF0.308
aF3.8
aF4.7
aF0.796
aF0.3
aF3.1
aF3.4
aF6.0
aF3.1
aF1.5
aF0.3
aF0.6
aF2.3
aF4.3
aF20.4
aF-0.5
aI5
aI0
aI5
aV101145,1610612749
p1456
aa(lp1457
I201165
aVMorris Almond
p1458
aI1610612764
aVWAS
p1459
aF27.0
aI4
aI4
aI0
aF1.0
aF16.6
aF1.5
aF4.3
aF0.353
aF0.3
aF0.8
aF0.333
aF0.3
aF0.8
aF0.333
aF0.3
aF1.8
aF2.0
aF0.5
aF0.3
aF1.8
aF0.0
aF0.0
aF1.5
aF1.0
aF3.5
aF8.5
aI0
aI0
aI5
aV201165,1610612764
p1460
aa(lp1461
I202814
aVMychel Thompson
p1462
aI1610612739
aVCLE
p1463
aF24.0
aI5
aI2
aI3
aF0.4
aF18.9
aF1.4
aF4.8
aF0.292
aF0.8
aF2.2
aF0.364
aF0.0
aF0.0
aF0.0
aF0.0
aF1.0
aF1.0
aF1.4
aF1.0
aF0.4
aF0.2
aF0.2
aF1.6
aF0.4
aF3.6
aF-0.6
aI0
aI0
aI5
aV202814,1610612739
p1464
aa(lp1465
I101126
aVNate Robinson
p1466
aI1610612744
aVGSW
p1467
aF28.0
aI51
aI20
aI31
aF0.392
aF23.4
aF4.0
aF9.5
aF0.424
aF1.3
aF3.5
aF0.365
aF1.8
aF2.2
aF0.832
aF0.3
aF1.7
aF2.0
aF4.5
aF1.5
aF1.2
aF0.0
aF0.4
aF2.3
aF2.0
aF11.2
aF0.7
aI2
aI0
aI5
aV101126,1610612744
p1468
aa(lp1469
I1737
aVNazr Mohammed
p1470
aI1610612760
aVOKC
p1471
aF34.0
aI63
aI44
aI19
aF0.698
aF11.0
aF1.3
aF2.7
aF0.467
aF0.0
aF0.0
aF0.0
aF0.2
aF0.4
aF0.565
aF0.9
aF1.8
aF2.7
aF0.2
aF0.4
aF0.3
aF0.6
aF0.3
aF1.6
aF0.4
aF2.7
aF1.2
aI0
aI0
aI5
aV1737,1610612760
p1472
aa(lp1473
I2403
aVNene
p1474
aI1610612764
aVWAS
p1475
aF29.0
aI39
aI23
aI16
aF0.59
aF28.5
aF5.4
aF10.1
aF0.537
aF0.0
aF0.1
aF0.0
aF2.9
aF4.3
aF0.673
aF1.6
aF5.8
aF7.5
aF2.1
aF2.5
aF1.1
aF1.0
aF0.8
aF2.4
aF4.3
aF13.7
aF2.6
aI8
aI0
aI5
aV2403,1610612764
p1476
aa(lp1477
I2555
aVNick Collison
p1478
aI1610612760
aVOKC
p1479
aF31.0
aI63
aI44
aI19
aF0.698
aF20.7
aF1.9
aF3.2
aF0.597
aF0.0
aF0.0
aF0.0
aF0.7
aF1.0
aF0.71
aF1.9
aF2.5
aF4.3
aF1.3
aF1.0
aF0.5
aF0.4
aF0.3
aF2.4
aF1.3
aF4.5
aF4.2
aI1
aI0
aI5
aV2555,1610612760
p1480
aa(lp1481
I201156
aVNick Young
p1482
aI1610612746
aVLAC
p1483
aF27.0
aI62
aI22
aI40
aF0.355
aF27.9
aF5.1
aF12.6
aF0.403
aF1.7
aF4.5
aF0.365
aF2.3
aF2.7
aF0.852
aF0.5
aF1.6
aF2.1
aF0.9
aF1.3
aF0.7
aF0.3
aF0.6
aF2.3
aF1.9
aF14.2
aF-3.0
aI0
aI0
aI5
aV201156,1610612746
p1484
aa(lp1485
I201587
aVNicolas Batum
p1486
aI1610612757
aVPOR
p1487
aF23.0
aI59
aI27
aI32
aF0.458
aF30.4
aF4.9
aF10.9
aF0.451
aF1.8
aF4.6
aF0.391
aF2.3
aF2.7
aF0.836
aF1.4
aF3.2
aF4.6
aF1.4
aF1.5
aF1.0
aF1.0
aF0.6
aF1.8
aF2.9
aF13.9
aF-1.0
aI2
aI0
aI5
aV201587,1610612757
p1488
aa(lp1489
I201593
aVNikola Pekovic
p1490
aI1610612750
aVMIN
p1491
aF26.0
aI47
aI19
aI28
aF0.404
aF26.9
aF5.4
aF9.7
aF0.564
aF0.0
aF0.0
aF0.0
aF3.0
aF4.0
aF0.743
aF3.9
aF3.5
aF7.4
aF0.7
aF1.9
aF0.6
aF0.7
aF1.5
aF2.1
aF3.4
aF13.9
aF-1.0
aI16
aI0
aI5
aV201593,1610612750
p1492
aa(lp1493
I202696
aVNikola Vucevic
p1494
aI1610612755
aVPHI
p1495
aF21.0
aI51
aI26
aI25
aF0.51
aF15.9
aF2.6
aF5.7
aF0.45
aF0.1
aF0.2
aF0.375
aF0.4
aF0.7
aF0.529
aF1.7
aF3.1
aF4.8
aF0.6
aF0.6
aF0.4
aF0.7
aF0.2
aF2.2
aF0.5
aF5.5
aF0.5
aI2
aI0
aI5
aV202696,1610612755
p1496
aa(lp1497
I202701
aVNolan Smith
p1498
aI1610612757
aVPOR
p1499
aF23.0
aI44
aI17
aI27
aF0.386
aF12.3
aF1.5
aF4.1
aF0.372
aF0.3
aF1.0
aF0.289
aF0.5
aF0.6
aF0.714
aF0.4
aF0.9
aF1.3
aF1.4
aF1.0
aF0.4
aF0.1
aF0.3
aF1.3
aF0.6
aF3.8
aF-3.4
aI0
aI0
aI5
aV202701,1610612757
p1500
aa(lp1501
I202708
aVNorris Cole
p1502
aI1610612748
aVMIA
p1503
aF23.0
aI65
aI46
aI19
aF0.708
aF19.4
aF2.7
aF6.9
aF0.393
aF0.3
aF1.2
aF0.276
aF1.0
aF1.3
aF0.776
aF0.3
aF1.1
aF1.4
aF2.0
aF1.6
aF0.7
aF0.0
aF0.6
aF1.9
aF1.2
aF6.8
aF-0.8
aI0
aI0
aI5
aV202708,1610612748
p1504
aa(lp1505
I201564
aVO.J. Mayo
p1506
aI1610612763
aVMEM
p1507
aF24.0
aI66
aI41
aI25
aF0.621
aF26.8
aF4.5
aF11.2
aF0.408
aF1.5
aF4.2
aF0.364
aF2.0
aF2.6
aF0.773
aF0.5
aF2.7
aF3.2
aF2.6
aF1.9
aF1.1
aF0.3
aF0.5
aF2.1
aF2.1
aF12.6
aF0.5
aI0
aI0
aI5
aV201564,1610612763
p1508
aa(lp1509
I201600
aVOmer Asik
p1510
aI1610612741
aVCHI
p1511
aF25.0
aI66
aI50
aI16
aF0.758
aF14.7
aF1.2
aF2.4
aF0.506
aF0.0
aF0.0
aF0.0
aF0.7
aF1.6
aF0.456
aF1.9
aF3.4
aF5.3
aF0.5
aF1.0
aF0.5
aF1.0
aF0.4
aF1.8
aF1.4
aF3.1
aF1.9
aI0
aI0
aI5
aV201600,1610612741
p1512
aa(lp1513
I201956
aVOmri Casspi
p1514
aI1610612739
aVCLE
p1515
aF24.0
aI65
aI21
aI44
aF0.323
aF20.6
aF2.6
aF6.3
aF0.403
aF0.8
aF2.6
aF0.315
aF1.1
aF1.7
aF0.685
aF1.0
aF2.5
aF3.5
aF1.0
aF1.0
aF0.6
aF0.3
aF0.5
aF1.8
aF1.5
aF7.1
aF-4.6
aI0
aI0
aI5
aV201956,1610612739
p1516
aa(lp1517
I202335
aVPatrick Patterson
p1518
aI1610612745
aVHOU
p1519
aF23.0
aI64
aI33
aI31
aF0.516
aF23.2
aF3.5
aF8.0
aF0.44
aF0.0
aF0.0
aF0.0
aF0.6
aF0.9
aF0.702
aF1.8
aF2.7
aF4.5
aF0.8
aF0.8
aF0.4
aF0.6
aF0.3
aF1.8
aF1.1
aF7.7
aF-0.7
aI1
aI0
aI5
aV202335,1610612745
p1520
aa(lp1521
I201988
aVPatty Mills
p1522
aI1610612759
aVSAS
p1523
aF23.0
aI16
aI14
aI2
aF0.875
aF16.3
aF3.9
aF8.1
aF0.485
aF1.5
aF3.5
aF0.429
aF0.9
aF0.9
aF1.0
aF0.3
aF1.5
aF1.8
aF2.4
aF1.6
aF0.6
aF0.1
aF0.3
aF0.9
aF1.2
aF10.3
aF2.4
aI1
aI0
aI5
aV201988,1610612759
p1524
aa(lp1525
I2200
aVPau Gasol
p1526
aI1610612747
aVLAL
p1527
aF31.0
aI65
aI41
aI24
aF0.631
aF37.4
aF7.1
aF14.1
aF0.501
aF0.1
aF0.4
aF0.259
aF3.1
aF4.0
aF0.782
aF2.8
aF7.6
aF10.4
aF3.6
aF2.2
aF0.6
aF1.4
aF0.9
aF2.0
aF3.6
aF17.4
aF2.4
aI42
aI1
aI5
aV2200,1610612747
p1528
aa(lp1529
I202331
aVPaul George
p1530
aI1610612754
aVIND
p1531
aF22.0
aI66
aI42
aI24
aF0.636
aF29.7
aF4.3
aF9.7
aF0.44
aF1.4
aF3.5
aF0.385
aF2.2
aF2.8
aF0.802
aF0.8
aF4.8
aF5.6
aF2.4
aF1.8
aF1.6
aF0.6
aF0.8
aF2.9
aF2.5
aF12.1
aF3.8
aI2
aI0
aI5
aV202331,1610612754
p1532
aa(lp1533
I200794
aVPaul Millsap
p1534
aI1610612762
aVUTA
p1535
aF27.0
aI64
aI34
aI30
aF0.531
aF32.8
aF6.7
aF13.5
aF0.495
aF0.1
aF0.5
aF0.226
aF3.2
aF4.0
aF0.792
aF2.8
aF6.0
aF8.8
aF2.3
aF1.8
aF1.8
aF0.8
aF1.0
aF3.5
aF3.3
aF16.6
aF3.1
aI21
aI0
aI5
aV200794,1610612762
p1536
aa(lp1537
I1718
aVPaul Pierce
p1538
aI1610612738
aVBOS
p1539
aF34.0
aI61
aI38
aI23
aF0.623
aF34.0
aF6.5
aF14.6
aF0.443
aF1.6
aF4.5
aF0.366
aF4.8
aF5.6
aF0.852
aF0.6
aF4.6
aF5.2
aF4.5
aF2.8
aF1.1
aF0.4
aF0.8
aF2.4
aF4.4
aF19.4
aF3.1
aI6
aI0
aI5
aV1718,1610612738
p1540
aa(lp1541
I2047
aVQuentin Richardson
p1542
aI1610612753
aVORL
p1543
aF32.0
aI48
aI25
aI23
aF0.521
aF18.0
aF1.5
aF4.1
aF0.376
aF0.9
aF2.5
aF0.347
aF0.5
aF0.6
aF0.833
aF0.3
aF2.3
aF2.6
aF0.8
aF0.6
aF0.6
aF0.1
aF0.1
aF1.5
aF0.6
aF4.5
aF-1.5
aI0
aI0
aI5
aV2047,1610612753
p1544
aa(lp1545
I202347
aVQuincy Pondexter
p1546
aI1610612763
aVMEM
p1547
aF24.0
aI64
aI40
aI24
aF0.625
aF15.7
aF1.7
aF3.7
aF0.452
aF0.3
aF1.1
aF0.301
aF0.5
aF0.8
aF0.623
aF0.9
aF1.1
aF2.0
aF0.4
aF0.5
aF0.4
aF0.1
aF0.3
aF1.4
aF0.7
aF4.2
aF0.6
aI0
aI0
aI5
aV202347,1610612763
p1548
aa(lp1549
I1952
aVRaja Bell
p1550
aI1610612762
aVUTA
p1551
aF35.0
aI34
aI19
aI15
aF0.559
aF23.4
aF2.4
aF5.1
aF0.466
aF1.0
aF2.6
aF0.391
aF0.6
aF0.7
aF0.84
aF0.2
aF1.3
aF1.4
aF1.1
aF0.6
aF0.4
aF0.1
aF0.1
aF2.3
aF1.3
aF6.4
aF-0.4
aI0
aI0
aI5
aV1952,1610612762
p1552
aa(lp1553
I200765
aVRajon Rondo
p1554
aI1610612738
aVBOS
p1555
aF26.0
aI53
aI31
aI22
aF0.585
aF36.9
aF4.8
aF10.8
aF0.448
aF0.2
aF0.8
aF0.238
aF2.0
aF3.4
aF0.597
aF1.2
aF3.7
aF4.8
aF11.7
aF3.6
aF1.8
aF0.1
aF0.8
aF1.9
aF3.5
aF11.9
aF3.7
aI21
aI6
aI5
aV200765,1610612738
p1556
aa(lp1557
I201196
aVRamon Sessions
p1558
aI1610612747
aVLAL
p1559
aF26.0
aI64
aI30
aI34
aF0.469
aF26.7
aF3.8
aF8.8
aF0.428
aF0.7
aF1.5
aF0.443
aF3.0
aF3.9
aF0.782
aF0.5
aF2.8
aF3.3
aF5.5
aF2.2
aF0.7
aF0.0
aF0.6
aF1.6
aF3.3
aF11.3
aF-0.6
aI5
aI0
aI5
aV201196,1610612747
p1560
aa(lp1561
I200751
aVRandy Foye
p1562
aI1610612746
aVLAC
p1563
aF28.0
aI65
aI40
aI25
aF0.615
aF25.9
aF3.9
aF9.9
aF0.398
aF2.0
aF5.1
aF0.386
aF1.1
aF1.3
aF0.859
aF0.4
aF1.7
aF2.1
aF2.2
aF1.1
aF0.7
aF0.4
aF0.5
aF2.0
aF1.2
aF11.0
aF0.8
aI1
aI0
aI5
aV200751,1610612746
p1564
aa(lp1565
I1740
aVRashard Lewis
p1566
aI1610612764
aVWAS
p1567
aF32.0
aI28
aI6
aI22
aF0.214
aF26.0
aF3.0
aF7.9
aF0.385
aF0.6
aF2.4
aF0.239
aF1.1
aF1.3
aF0.838
aF1.2
aF2.7
aF3.9
aF1.0
aF1.1
aF0.8
aF0.4
aF0.5
aF1.8
aF1.6
aF7.8
aF-5.6
aI0
aI0
aI5
aV1740,1610612764
p1568
aa(lp1569
I2446
aVRasual Butler
p1570
aI1610612761
aVTOR
p1571
aF33.0
aI34
aI10
aI24
aF0.294
aF13.3
aF1.2
aF3.9
aF0.308
aF0.6
aF2.3
aF0.273
aF0.2
aF0.4
aF0.583
aF0.2
aF1.8
aF1.9
aF0.6
aF0.4
aF0.2
aF0.1
aF0.1
aF1.1
aF0.3
aF3.2
aF-2.7
aI1
aI0
aI5
aV2446,1610612761
p1572
aa(lp1573
I951
aVRay Allen
p1574
aI1610612738
aVBOS
p1575
aF36.0
aI46
aI23
aI23
aF0.5
aF34.0
aF4.9
aF10.7
aF0.458
aF2.3
aF5.1
aF0.453
aF2.1
aF2.3
aF0.915
aF0.3
aF2.8
aF3.1
aF2.4
aF1.5
aF1.1
aF0.2
aF0.4
aF1.8
aF1.9
aF14.2
aF2.1
aI0
aI0
aI5
aV951,1610612738
p1576
aa(lp1577
I101109
aVRaymond Felton
p1578
aI1610612757
aVPOR
p1579
aF28.0
aI60
aI28
aI32
aF0.467
aF31.8
aF4.4
aF10.7
aF0.407
aF1.0
aF3.4
aF0.305
aF1.7
aF2.1
aF0.806
aF0.5
aF2.0
aF2.5
aF6.5
aF2.8
aF1.3
aF0.2
aF0.4
aF2.0
aF2.0
aF11.4
aF2.4
aI6
aI0
aI5
aV101109,1610612757
p1580
aa(lp1581
I2501
aVReggie Evans
p1582
aI1610612746
aVLAC
p1583
aF32.0
aI56
aI36
aI20
aF0.643
aF13.8
aF0.6
aF1.3
aF0.472
aF0.0
aF0.0
aF0.0
aF0.6
aF1.3
aF0.507
aF1.8
aF3.1
aF4.8
aF0.3
aF0.8
aF0.6
aF0.1
aF0.3
aF2.1
aF1.6
aF1.9
aF-2.5
aI1
aI0
aI5
aV2501,1610612746
p1584
aa(lp1585
I202704
aVReggie Jackson
p1586
aI1610612760
aVOKC
p1587
aF22.0
aI45
aI34
aI11
aF0.756
aF11.1
aF1.1
aF3.5
aF0.321
aF0.3
aF1.4
aF0.21
aF0.6
aF0.6
aF0.862
aF0.3
aF0.9
aF1.2
aF1.6
aF0.8
aF0.6
aF0.0
aF0.2
aF0.7
aF0.6
aF3.1
aF-0.1
aI0
aI0
aI5
aV202704,1610612760
p1588
aa(lp1589
I202130
aVReggie Williams
p1590
aI1610612766
aVCHA
p1591
aF25.0
aI33
aI3
aI30
aF0.091
aF22.6
aF3.2
aF7.7
aF0.416
aF1.0
aF3.2
aF0.308
aF0.9
aF1.2
aF0.725
aF0.8
aF2.0
aF2.8
aF1.8
aF1.0
aF0.6
aF0.1
aF0.3
aF1.0
aF1.3
aF8.3
aF-7.9
aI0
aI0
aI5
aV202130,1610612766
p1592
aa(lp1593
I200764
aVRenaldo Balkman
p1594
aI1610612752
aVNYK
p1595
aF27.0
aI14
aI7
aI7
aF0.5
aF8.2
aF1.1
aF2.3
aF0.5
aF0.1
aF0.6
aF0.222
aF0.6
aF0.8
aF0.727
aF0.4
aF1.4
aF1.9
aF0.4
aF0.4
aF0.3
aF0.2
aF0.0
aF1.0
aF0.5
aF3.0
aF-0.1
aI0
aI0
aI5
aV200764,1610612752
p1596
aa(lp1597
I1888
aVRichard Hamilton
p1598
aI1610612741
aVCHI
p1599
aF34.0
aI28
aI21
aI7
aF0.75
aF24.9
aF5.0
aF11.1
aF0.452
aF0.6
aF1.6
aF0.37
aF1.0
aF1.3
aF0.784
aF0.7
aF1.6
aF2.4
aF3.0
aF1.8
aF0.4
aF0.0
aF0.5
aF2.0
aF1.5
aF11.6
aF4.2
aI1
aI0
aI5
aV1888,1610612741
p1600
aa(lp1601
I2210
aVRichard Jefferson
p1602
aI1610612744
aVGSW
p1603
aF32.0
aI63
aI33
aI30
aF0.524
aF27.7
aF3.2
aF7.7
aF0.416
aF1.8
aF4.3
aF0.42
aF0.9
aF1.3
aF0.694
aF0.4
aF3.1
aF3.5
aF1.4
aF0.8
aF0.6
aF0.3
aF0.3
aF1.9
aF1.4
aF9.2
aF-0.4
aI0
aI0
aI5
aV2210,1610612744
p1604
aa(lp1605
I201937
aVRicky Rubio
p1606
aI1610612750
aVMIN
p1607
aF21.0
aI41
aI21
aI20
aF0.512
aF34.2
aF3.4
aF9.5
aF0.357
aF0.8
aF2.3
aF0.34
aF3.1
aF3.8
aF0.803
aF0.5
aF3.7
aF4.2
aF8.2
aF3.2
aF2.2
aF0.2
aF0.8
aF2.4
aF3.8
aF10.6
aF1.3
aI12
aI0
aI5
aV201937,1610612750
p1608
aa(lp1609
I201577
aVRobin Lopez
p1610
aI1610612756
aVPHX
p1611
aF24.0
aI64
aI32
aI32
aF0.5
aF14.0
aF1.9
aF4.2
aF0.461
aF0.0
aF0.0
aF0.0
aF1.6
aF2.2
aF0.714
aF1.4
aF1.9
aF3.3
aF0.3
aF0.7
aF0.3
aF0.9
aF0.3
aF2.0
aF1.6
aF5.4
aF-1.0
aI0
aI0
aI5
aV201577,1610612756
p1612
aa(lp1613
I201155
aVRodney Stuckey
p1614
aI1610612765
aVDET
p1615
aF26.0
aI55
aI23
aI32
aF0.418
aF29.9
aF4.7
aF10.9
aF0.429
aF0.6
aF1.9
aF0.317
aF4.9
aF5.8
aF0.834
aF0.7
aF1.9
aF2.6
aF3.8
aF1.9
aF0.8
aF0.2
aF0.9
aF2.3
aF4.1
aF14.8
aF-0.6
aI0
aI0
aI5
aV201155,1610612765
p1616
aa(lp1617
I201958
aVRodrigue Beaubois
p1618
aI1610612742
aVDAL
p1619
aF24.0
aI53
aI29
aI24
aF0.547
aF21.7
aF3.5
aF8.4
aF0.422
aF0.7
aF2.5
aF0.288
aF1.1
aF1.3
aF0.841
aF0.4
aF2.5
aF2.8
aF2.9
aF1.3
aF1.1
aF0.5
aF0.4
aF1.8
aF1.5
aF8.9
aF0.7
aI0
aI0
aI5
aV201958,1610612742
p1620
aa(lp1621
I2427
aVRoger Mason Jr.
p1622
aI1610612764
aVWAS
p1623
aF31.0
aI52
aI9
aI43
aF0.173
aF13.4
aF2.0
aF5.0
aF0.399
aF1.1
aF3.0
aF0.383
aF0.4
aF0.5
aF0.778
aF0.1
aF1.2
aF1.3
aF0.9
aF0.6
aF0.3
aF0.1
aF0.1
aF0.6
aF0.3
aF5.5
aF-0.1
aI0
aI0
aI5
aV2427,1610612764
p1624
aa(lp1625
I200758
aVRonnie Brewer
p1626
aI1610612741
aVCHI
p1627
aF27.0
aI66
aI50
aI16
aF0.758
aF24.8
aF2.9
aF6.7
aF0.427
aF0.3
aF1.0
aF0.275
aF0.8
aF1.5
aF0.56
aF1.1
aF2.4
aF3.5
aF2.1
aF0.9
aF1.1
aF0.3
aF0.4
aF1.0
aF1.2
aF6.9
aF3.0
aI1
aI0
aI5
aV200758,1610612741
p1628
aa(lp1629
I101179
aVRonnie Price
p1630
aI1610612756
aVPHX
p1631
aF29.0
aI36
aI14
aI22
aF0.389
aF14.4
aF1.4
aF3.6
aF0.377
aF0.4
aF1.2
aF0.295
aF0.6
aF0.7
aF0.8
aF0.5
aF1.1
aF1.6
aF1.9
aF1.3
aF0.9
aF0.1
aF0.3
aF2.0
aF1.0
aF3.6
aF-1.2
aI0
aI0
aI5
aV101179,1610612756
p1632
aa(lp1633
I101142
aVRonny Turiaf
p1634
aI1610612748
aVMIA
p1635
aF29.0
aI17
aI6
aI11
aF0.353
aF16.4
aF1.1
aF1.9
aF0.576
aF0.0
aF0.1
aF0.0
aF0.8
aF1.3
aF0.591
aF1.2
aF2.9
aF4.1
aF0.6
aF0.8
aF0.8
aF1.0
aF0.3
aF2.3
aF1.3
aF3.0
aF-0.1
aI0
aI0
aI5
aV101142,1610612748
p1636
aa(lp1637
I201579
aVRoy Hibbert
p1638
aI1610612754
aVIND
p1639
aF25.0
aI65
aI41
aI24
aF0.631
aF29.8
aF5.1
aF10.3
aF0.497
aF0.0
aF0.0
aF0.0
aF2.6
aF3.7
aF0.711
aF3.3
aF5.5
aF8.8
aF1.7
aF2.0
aF0.5
aF2.0
aF0.8
aF3.0
aF3.5
aF12.8
aF3.3
aI21
aI0
aI5
aV201579,1610612754
p1640
aa(lp1641
I2767
aVRoyal Ivey
p1642
aI1610612760
aVOKC
p1643
aF30.0
aI34
aI24
aI10
aF0.706
aF10.4
aF0.8
aF2.1
aF0.356
aF0.5
aF1.6
aF0.34
aF0.0
aF0.2
aF0.125
aF0.0
aF0.7
aF0.7
aF0.3
aF0.3
aF0.4
aF0.0
aF0.0
aF1.1
aF0.4
aF2.1
aF0.2
aI0
aI0
aI5
aV2767,1610612760
p1644
aa(lp1645
I201164
aVRudy Fernandez
p1646
aI1610612743
aVDEN
p1647
aF27.0
aI31
aI15
aI16
aF0.484
aF22.9
aF3.2
aF7.3
aF0.44
aF1.3
aF3.9
aF0.328
aF1.0
aF1.4
aF0.698
aF0.3
aF1.8
aF2.1
aF2.4
aF1.3
aF1.0
aF0.1
aF0.2
aF1.2
aF1.6
aF8.6
aF1.9
aI0
aI0
aI5
aV201164,1610612743
p1648
aa(lp1649
I200752
aVRudy Gay
p1650
aI1610612763
aVMEM
p1651
aF25.0
aI65
aI41
aI24
aF0.631
aF37.3
aF7.5
aF16.4
aF0.455
aF0.8
aF2.7
aF0.312
aF3.2
aF4.0
aF0.791
aF2.0
aF4.4
aF6.4
aF2.3
aF2.5
aF1.5
aF0.8
aF1.0
aF2.1
aF2.9
aF19.0
aF1.5
aI8
aI0
aI5
aV200752,1610612763
p1652
aa(lp1653
I201566
aVRussell Westbrook
p1654
aI1610612760
aVOKC
p1655
aF23.0
aI66
aI47
aI19
aF0.712
aF35.3
aF8.8
aF19.2
aF0.457
aF0.9
aF3.0
aF0.316
aF5.2
aF6.3
aF0.823
aF1.5
aF3.1
aF4.6
aF5.5
aF3.6
aF1.7
aF0.3
aF1.2
aF2.2
aF4.5
aF23.6
aF5.5
aI7
aI0
aI5
aV201566,1610612760
p1656
aa(lp1657
I201583
aVRyan Anderson
p1658
aI1610612753
aVORL
p1659
aF24.0
aI61
aI36
aI25
aF0.59
aF32.2
aF5.4
aF12.4
aF0.439
aF2.7
aF6.9
aF0.393
aF2.5
aF2.8
aF0.877
aF3.7
aF4.0
aF7.7
aF0.9
aF0.9
aF0.8
aF0.4
aF0.6
aF2.4
aF2.3
aF16.1
aF4.5
aI14
aI0
aI5
aV201583,1610612753
p1660
aa(lp1661
I101155
aVRyan Gomes
p1662
aI1610612746
aVLAC
p1663
aF29.0
aI32
aI20
aI12
aF0.625
aF13.3
aF1.0
aF3.0
aF0.326
aF0.1
aF0.9
aF0.138
aF0.3
aF0.3
aF0.727
aF0.4
aF1.5
aF1.9
aF0.4
aF0.5
aF0.5
aF0.0
aF0.0
aF1.1
aF0.3
aF2.3
aF-2.1
aI0
aI0
aI5
aV101155,1610612746
p1664
aa(lp1665
I200797
aVRyan Hollins
p1666
aI1610612738
aVBOS
p1667
aF27.0
aI39
aI20
aI19
aF0.513
aF13.4
aF1.2
aF2.2
aF0.548
aF0.0
aF0.0
aF0.0
aF1.0
aF1.9
aF0.52
aF0.9
aF1.2
aF2.1
aF0.2
aF0.9
aF0.1
aF0.4
aF0.4
aF2.0
aF1.7
aF3.4
aF-0.2
aI0
aI0
aI5
aV200797,1610612738
p1668
aa(lp1669
I202385
aVRyan Reid
p1670
aI1610612760
aVOKC
p1671
aF25.0
aI5
aI5
aI0
aF1.0
aF3.3
aF0.8
aF1.0
aF0.8
aF0.0
aF0.0
aF0.0
aF0.0
aF0.0
aF0.0
aF0.2
aF0.2
aF0.4
aF0.0
aF0.2
aF0.0
aF0.0
aF0.0
aF0.2
aF0.2
aF1.6
aF0.6
aI0
aI0
aI5
aV202385,1610612760
p1672
aa(lp1673
I201970
aVSam Young
p1674
aI1610612755
aVPHI
p1675
aF27.0
aI35
aI20
aI15
aF0.571
aF10.7
aF1.3
aF3.6
aF0.354
aF0.1
aF0.5
aF0.294
aF0.5
aF0.7
aF0.731
aF0.6
aF1.2
aF1.8
aF0.4
aF0.5
aF0.5
aF0.2
aF0.5
aF0.7
aF0.5
aF3.3
aF-2.0
aI0
aI0
aI5
aV201970,1610612755
p1676
aa(lp1677
I202396
aVSamardo Samuels
p1678
aI1610612739
aVCLE
p1679
aF23.0
aI54
aI15
aI39
aF0.278
aF15.3
aF1.9
aF4.3
aF0.455
aF0.0
aF0.0
aF0.0
aF1.5
aF2.2
aF0.701
aF1.2
aF2.2
aF3.3
aF0.4
aF1.0
aF0.4
aF0.4
aF0.5
aF2.1
aF1.9
aF5.4
aF-1.9
aI1
aI0
aI5
aV202396,1610612739
p1680
aa(lp1681
I2223
aVSamuel Dalembert
p1682
aI1610612745
aVHOU
p1683
aF32.0
aI65
aI34
aI31
aF0.523
aF22.3
aF3.1
aF6.1
aF0.506
aF0.0
aF0.0
aF0.0
aF1.4
aF1.7
aF0.796
aF2.4
aF4.6
aF7.0
aF0.5
aF1.3
aF0.6
aF1.7
aF0.5
aF2.5
aF1.4
aF7.5
aF0.8
aI10
aI0
aI5
aV2223,1610612745
p1684
aa(lp1685
I2562
aVSasha Pavlovic
p1686
aI1610612738
aVBOS
p1687
aF28.0
aI45
aI29
aI16
aF0.644
aF11.7
aF1.1
aF2.8
aF0.391
aF0.4
aF1.3
aF0.293
aF0.1
aF0.2
aF0.375
aF0.1
aF1.5
aF1.6
aF0.4
aF0.4
aF0.4
aF0.3
aF0.1
aF1.2
aF0.2
aF2.7
aF-0.3
aI0
aI0
aI5
aV2562,1610612738
p1688
aa(lp1689
I201157
aVSean Williams
p1690
aI1610612738
aVBOS
p1691
aF25.0
aI11
aI3
aI8
aF0.273
aF9.7
aF1.3
aF2.0
aF0.636
aF0.0
aF0.0
aF0.0
aF1.1
aF1.2
aF0.923
aF1.2
aF1.1
aF2.3
aF0.5
aF0.9
aF0.4
aF0.7
aF0.0
aF1.6
aF1.0
aF3.6
aF2.4
aI0
aI0
aI5
aV201157,1610612738
p1692
aa(lp1693
I2742
aVSebastian Telfair
p1694
aI1610612756
aVPHX
p1695
aF27.0
aI60
aI31
aI29
aF0.517
aF14.9
aF2.4
aF5.7
aF0.412
aF0.6
aF1.8
aF0.314
aF0.9
aF1.1
aF0.791
aF0.3
aF1.2
aF1.5
aF2.3
aF1.1
aF0.7
aF0.2
aF0.4
aF2.0
aF1.2
aF6.1
aF-2.4
aI0
aI0
aI5
aV2742,1610612756
p1696
aa(lp1697
I201623
aVSemih Erden
p1698
aI1610612739
aVCLE
p1699
aF25.0
aI28
aI8
aI20
aF0.286
aF11.9
aF1.4
aF2.6
aF0.527
aF0.0
aF0.0
aF0.0
aF0.8
aF1.5
aF0.512
aF0.7
aF1.9
aF2.6
aF0.3
aF0.6
aF0.4
aF0.2
aF0.3
aF2.1
aF1.3
aF3.5
aF-2.9
aI0
aI0
aI5
aV201623,1610612739
p1700
aa(lp1701
I201586
aVSerge Ibaka
p1702
aI1610612760
aVOKC
p1703
aF22.0
aI66
aI47
aI19
aF0.712
aF27.1
aF4.0
aF7.4
aF0.535
aF0.0
aF0.0
aF0.333
aF1.2
aF1.8
aF0.661
aF2.9
aF4.6
aF7.5
aF0.4
aF1.2
aF0.5
aF3.7
aF0.6
aF2.7
aF1.5
aF9.1
aF3.1
aI12
aI1
aI5
aV201586,1610612760
p1704
aa(lp1705
I2203
aVShane Battier
p1706
aI1610612748
aVMIA
p1707
aF33.0
aI65
aI45
aI20
aF0.692
aF23.1
aF1.7
aF4.5
aF0.387
aF1.0
aF2.8
aF0.339
aF0.4
aF0.6
aF0.622
aF0.9
aF1.5
aF2.4
aF1.3
aF0.6
aF1.0
aF0.5
aF0.2
aF1.6
aF1.0
aF4.8
aF2.0
aI0
aI0
aI5
aV2203,1610612748
p1708
aa(lp1709
I200769
aVShannon Brown
p1710
aI1610612756
aVPHX
p1711
aF26.0
aI59
aI29
aI30
aF0.492
aF23.7
aF4.3
aF10.1
aF0.42
aF1.2
aF3.2
aF0.362
aF1.4
aF1.7
aF0.808
aF0.6
aF2.0
aF2.7
aF1.2
aF1.1
aF0.7
aF0.3
aF0.5
aF1.1
aF1.1
aF11.0
aF-1.2
aI0
aI0
aI5
aV200769,1610612756
p1712
aa(lp1713
I2733
aVShaun Livingston
p1714
aI1610612749
aVMIL
p1715
aF26.0
aI58
aI26
aI32
aF0.448
aF18.8
aF2.2
aF4.7
aF0.469
aF0.0
aF0.1
aF0.667
aF1.1
aF1.4
aF0.785
aF0.7
aF1.4
aF2.1
aF2.1
aF1.1
aF0.5
aF0.3
aF0.2
aF1.4
aF1.2
aF5.5
aF-1.7
aI0
aI0
aI5
aV2733,1610612749
p1716
aa(lp1717
I1890
aVShawn Marion
p1718
aI1610612742
aVDAL
p1719
aF34.0
aI63
aI34
aI29
aF0.54
aF30.5
aF4.6
aF10.3
aF0.446
aF0.3
aF1.1
aF0.294
aF1.2
aF1.5
aF0.796
aF2.3
aF5.1
aF7.4
aF2.1
aF1.6
aF1.1
aF0.6
aF0.7
aF1.4
aF1.2
aF10.6
aF-1.3
aI12
aI0
aI5
aV1890,1610612742
p1720
aa(lp1721
I200761
aVShawne Williams
p1722
aI1610612751
aVNJN
p1723
aF26.0
aI25
aI7
aI18
aF0.28
aF20.6
aF1.7
aF5.9
aF0.286
aF0.8
aF3.5
aF0.241
aF0.3
aF0.4
aF0.727
aF0.8
aF1.9
aF2.7
aF0.6
aF0.5
aF0.4
aF0.4
aF0.3
aF1.8
aF0.6
aF4.5
aF-2.8
aI0
aI0
aI5
aV200761,1610612751
p1724
aa(lp1725
I200749
aVShelden Williams
p1726
aI1610612751
aVNJN
p1727
aF28.0
aI58
aI20
aI38
aF0.345
aF22.0
aF1.7
aF3.5
aF0.478
aF0.0
aF0.0
aF0.0
aF1.3
aF1.8
aF0.731
aF2.4
aF3.6
aF6.0
aF0.6
aF1.1
aF0.8
aF0.7
aF0.4
aF2.6
aF2.0
aF4.6
aF-4.1
aI3
aI0
aI5
aV200749,1610612751
p1728
aa(lp1729
I202714
aVShelvin Mack
p1730
aI1610612764
aVWAS
p1731
aF22.0
aI64
aI20
aI44
aF0.313
aF12.2
aF1.4
aF3.4
aF0.4
aF0.2
aF0.7
aF0.286
aF0.7
aF0.9
aF0.712
aF0.2
aF1.3
aF1.4
aF2.0
aF0.8
aF0.4
aF0.0
aF0.3
aF0.8
aF0.8
aF3.6
aF-0.4
aI0
aI0
aI5
aV202714,1610612764
p1732
aa(lp1733
I202374
aVSolomon Alabi
p1734
aI1610612761
aVTOR
p1735
aF24.0
aI14
aI5
aI9
aF0.357
aF8.7
aF0.9
aF2.6
aF0.361
aF0.0
aF0.0
aF0.0
aF0.5
aF0.6
aF0.875
aF1.1
aF2.3
aF3.4
aF0.2
aF0.4
aF0.1
aF0.6
aF0.3
aF0.8
aF0.4
aF2.4
aF0.2
aI1
aI0
aI5
aV202374,1610612761
p1736
aa(lp1737
I200780
aVSolomon Jones
p1738
aI1610612740
aVNOH
p1739
aF27.0
aI21
aI11
aI10
aF0.524
aF13.9
aF1.1
aF2.9
aF0.393
aF0.0
aF0.0
aF0.0
aF0.9
aF1.1
aF0.826
aF1.5
aF1.2
aF2.8
aF0.4
aF0.9
aF0.4
aF0.5
aF0.3
aF2.0
aF1.3
aF3.2
aF-5.1
aI0
aI0
aI5
aV200780,1610612740
p1740
aa(lp1741
I201150
aVSpencer Hawes
p1742
aI1610612755
aVPHI
p1743
aF24.0
aI37
aI22
aI15
aF0.595
aF24.9
aF4.2
aF8.6
aF0.489
aF0.1
aF0.3
aF0.25
aF1.1
aF1.5
aF0.727
aF2.1
aF5.2
aF7.3
aF2.6
aF1.5
aF0.4
aF1.3
aF0.6
aF2.7
aF1.2
aF9.6
aF1.8
aI8
aI0
aI5
aV201150,1610612755
p1744
aa(lp1745
I201939
aVStephen Curry
p1746
aI1610612744
aVGSW
p1747
aF24.0
aI26
aI13
aI13
aF0.5
aF28.1
aF5.6
aF11.4
aF0.49
aF2.1
aF4.7
aF0.455
aF1.5
aF1.8
aF0.809
aF0.6
aF2.8
aF3.4
aF5.3
aF2.5
aF1.5
aF0.3
aF0.3
aF2.4
aF1.6
aF14.7
aF3.0
aI3
aI0
aI5
aV201939,1610612744
p1748
aa(lp1749
I1536
aVStephen Jackson
p1750
aI1610612759
aVSAS
p1751
aF34.0
aI47
aI28
aI19
aF0.596
aF25.8
aF3.4
aF9.0
aF0.374
aF1.0
aF3.6
aF0.288
aF2.0
aF2.4
aF0.825
aF0.5
aF3.0
aF3.5
aF2.5
aF2.2
aF1.1
aF0.3
aF0.4
aF2.1
aF2.1
aF9.8
aF0.7
aI0
aI0
aI5
aV1536,1610612759
p1752
aa(lp1753
I2581
aVSteve Blake
p1754
aI1610612747
aVLAL
p1755
aF32.0
aI53
aI35
aI18
aF0.66
aF23.3
aF1.9
aF5.1
aF0.377
aF1.0
aF3.0
aF0.335
aF0.4
aF0.5
aF0.778
aF0.2
aF1.4
aF1.6
aF3.3
aF1.4
aF0.7
aF0.0
aF0.2
aF1.4
aF1.0
aF5.2
aF-0.1
aI0
aI0
aI5
aV2581,1610612747
p1756
aa(lp1757
I959
aVSteve Nash
p1758
aI1610612756
aVPHX
p1759
aF38.0
aI62
aI32
aI30
aF0.516
aF31.6
aF4.8
aF9.0
aF0.532
aF0.9
aF2.3
aF0.39
aF2.0
aF2.3
aF0.894
aF0.4
aF2.6
aF3.0
aF10.7
aF3.7
aF0.6
aF0.1
aF0.2
aF0.9
aF2.4
aF12.5
aF2.8
aI28
aI0
aI5
aV959,1610612756
p1760
aa(lp1761
I200779
aVSteve Novak
p1762
aI1610612752
aVNYK
p1763
aF29.0
aI54
aI31
aI23
aF0.574
aF18.9
aF3.0
aF6.2
aF0.478
aF2.5
aF5.2
aF0.472
aF0.4
aF0.5
aF0.846
aF0.2
aF1.8
aF1.9
aF0.2
aF0.4
aF0.3
aF0.2
aF0.1
aF1.1
aF0.4
aF8.8
aF3.3
aI0
aI0
aI5
aV200779,1610612752
p1764
aa(lp1765
I202178
aVSundiata Gaines
p1766
aI1610612751
aVNJN
p1767
aF26.0
aI57
aI17
aI40
aF0.298
aF13.9
aF1.8
aF4.8
aF0.376
aF0.5
aF1.4
aF0.341
aF1.0
aF1.7
aF0.615
aF0.5
aF1.4
aF1.9
aF2.2
aF0.9
aF1.0
aF0.0
aF0.3
aF1.0
aF1.4
aF5.1
aF-2.2
aI0
aI0
aI5
aV202178,1610612751
p1768
aa(lp1769
I2551
aVT.J. Ford
p1770
aI1610612759
aVSAS
p1771
aF29.0
aI14
aI8
aI6
aF0.571
aF13.6
aF1.4
aF3.1
aF0.442
aF0.1
aF0.6
aF0.25
aF0.8
aF1.0
aF0.786
aF0.2
aF1.1
aF1.3
aF3.2
aF1.6
aF0.6
aF0.1
aF0.0
aF1.6
aF1.0
aF3.6
aF1.9
aI0
aI0
aI5
aV2551,1610612759
p1772
aa(lp1773
I201959
aVTaj Gibson
p1774
aI1610612741
aVCHI
p1775
aF27.0
aI63
aI48
aI15
aF0.762
aF20.4
aF3.2
aF6.4
aF0.495
aF0.0
aF0.0
aF0.0
aF1.3
aF2.1
aF0.622
aF2.1
aF3.1
aF5.3
aF0.7
aF1.0
aF0.4
aF1.3
aF0.6
aF2.1
aF1.7
aF7.7
aF4.7
aI4
aI0
aI5
aV201959,1610612741
p1776
aa(lp1777
I2419
aVTayshaun Prince
p1778
aI1610612765
aVDET
p1779
aF32.0
aI63
aI25
aI38
aF0.397
aF33.1
aF5.3
aF12.7
aF0.421
aF0.6
aF1.7
aF0.356
aF1.4
aF1.8
aF0.774
aF1.1
aF3.3
aF4.5
aF2.4
aF1.2
aF0.4
aF0.5
aF0.4
aF1.2
aF1.6
aF12.7
aF-3.8
aI2
aI0
aI5
aV2419,1610612765
p1780
aa(lp1781
I202227
aVTerrel Harris
p1782
aI1610612748
aVMIA
p1783
aF24.0
aI22
aI15
aI7
aF0.682
aF14.5
aF1.3
aF3.8
aF0.349
aF0.4
aF1.8
aF0.205
aF0.6
aF1.0
aF0.667
aF0.8
aF1.5
aF2.3
aF1.2
aF1.1
aF0.4
aF0.1
aF0.3
aF1.5
aF1.0
aF3.6
aF-2.6
aI0
aI0
aI5
aV202227,1610612748
p1784
aa(lp1785
I201944
aVTerrence Williams
p1786
aI1610612758
aVSAC
p1787
aF25.0
aI30
aI8
aI22
aF0.267
aF18.3
aF2.8
aF6.6
aF0.429
aF0.5
aF1.5
aF0.348
aF0.9
aF1.5
aF0.587
aF0.4
aF3.0
aF3.4
aF2.2
aF1.4
aF0.7
aF0.2
aF0.1
aF1.2
aF1.1
aF7.1
aF-4.0
aI1
aI0
aI5
aV201944,1610612758
p1788
aa(lp1789
I200757
aVThabo Sefolosha
p1790
aI1610612760
aVOKC
p1791
aF28.0
aI42
aI31
aI11
aF0.738
aF21.8
aF1.6
aF3.7
aF0.432
aF0.7
aF1.7
aF0.437
aF0.9
aF1.0
aF0.884
aF0.5
aF2.5
aF3.0
aF1.1
aF1.0
aF0.9
aF0.4
aF0.3
aF1.9
aF0.8
aF4.8
aF3.2
aI0
aI0
aI5
aV200757,1610612760
p1792
aa(lp1793
I201152
aVThaddeus Young
p1794
aI1610612755
aVPHI
p1795
aF24.0
aI63
aI33
aI30
aF0.524
aF27.9
aF5.5
aF10.9
aF0.507
aF0.0
aF0.1
aF0.25
aF1.8
aF2.3
aF0.771
aF2.2
aF3.0
aF5.2
aF1.2
aF0.9
aF1.0
aF0.7
aF0.8
aF2.0
aF2.2
aF12.8
aF4.3
aI1
aI0
aI5
aV201152,1610612755
p1796
aa(lp1797
I201168
aVTiago Splitter
p1798
aI1610612759
aVSAS
p1799
aF27.0
aI59
aI44
aI15
aF0.746
aF19.0
aF3.6
aF5.8
aF0.618
aF0.0
aF0.0
aF0.0
aF2.1
aF3.1
aF0.691
aF1.6
aF3.6
aF5.2
aF1.1
aF1.5
aF0.4
aF0.8
aF0.6
aF2.3
aF2.6
aF9.3
aF3.4
aI2
aI0
aI5
aV201168,1610612759
p1800
aa(lp1801
I1495
aVTim Duncan
p1802
aI1610612759
aVSAS
p1803
aF36.0
aI58
aI45
aI13
aF0.776
aF28.2
aF6.2
aF12.6
aF0.492
aF0.0
aF0.1
aF0.0
aF3.0
aF4.3
aF0.695
aF1.9
aF7.1
aF9.0
aF2.3
aF1.7
aF0.7
aF1.5
aF0.9
aF1.7
aF3.4
aF15.4
aF5.3
aI22
aI0
aI5
aV1495,1610612759
p1804
aa(lp1805
I202389
aVTimofey Mozgov
p1806
aI1610612743
aVDEN
p1807
aF25.0
aI44
aI26
aI18
aF0.591
aF15.6
aF2.3
aF4.3
aF0.526
aF0.0
aF0.0
aF0.0
aF0.9
aF1.3
aF0.684
aF1.2
aF2.9
aF4.1
aF0.5
aF1.2
aF0.3
aF1.0
aF0.3
aF2.0
aF1.1
aF5.4
aF-1.4
aI0
aI0
aI5
aV202389,1610612743
p1808
aa(lp1809
I202699
aVTobias Harris
p1810
aI1610612749
aVMIL
p1811
aF19.0
aI42
aI21
aI21
aF0.5
aF11.4
aF1.9
aF4.0
aF0.467
aF0.1
aF0.5
aF0.261
aF1.0
aF1.3
aF0.815
aF0.7
aF1.7
aF2.4
aF0.5
aF0.7
aF0.3
aF0.2
aF0.5
aF1.1
aF0.9
aF5.0
aF0.1
aI1
aI0
aI5
aV202699,1610612749
p1812
aa(lp1813
I201962
aVToney Douglas
p1814
aI1610612752
aVNYK
p1815
aF26.0
aI38
aI20
aI18
aF0.526
aF17.3
aF2.5
aF7.6
aF0.324
aF0.7
aF3.1
aF0.231
aF0.6
aF0.7
aF0.846
aF0.4
aF1.5
aF1.9
aF2.0
aF1.5
aF0.8
aF0.0
aF0.4
aF1.4
aF0.6
aF6.2
aF-0.3
aI0
aI0
aI5
aV201962,1610612752
p1816
aa(lp1817
I2754
aVTony Allen
p1818
aI1610612763
aVMEM
p1819
aF30.0
aI58
aI36
aI22
aF0.621
aF26.3
aF3.6
aF7.7
aF0.469
aF0.1
aF0.4
aF0.308
aF2.4
aF3.0
aF0.8
aF1.7
aF2.3
aF4.0
aF1.4
aF1.6
aF1.8
aF0.6
aF0.8
aF2.4
aF2.2
aF9.8
aF2.8
aI0
aI0
aI5
aV2754,1610612763
p1820
aa(lp1821
I1499
aVTony Battie
p1822
aI1610612755
aVPHI
p1823
aF36.0
aI27
aI17
aI10
aF0.63
aF10.9
aF0.7
aF1.9
aF0.373
aF0.0
aF0.0
aF0.0
aF0.1
aF0.1
aF1.0
aF0.3
aF2.2
aF2.5
aF0.6
aF0.1
aF0.1
aF0.2
aF0.1
aF1.0
aF0.3
aF1.6
aF1.5
aI0
aI0
aI5
aV1499,1610612755
p1824
aa(lp1825
I2225
aVTony Parker
p1826
aI1610612759
aVSAS
p1827
aF30.0
aI60
aI47
aI13
aF0.783
aF32.1
aF7.1
aF14.8
aF0.48
aF0.2
aF1.0
aF0.23
aF3.8
aF4.7
aF0.799
aF0.4
aF2.5
aF2.9
aF7.7
aF2.6
aF1.0
aF0.1
aF0.9
aF1.3
aF3.7
aF18.3
aF7.0
aI12
aI0
aI5
aV2225,1610612759
p1828
aa(lp1829
I1503
aVTracy McGrady
p1830
aI1610612737
aVATL
p1831
aF33.0
aI52
aI31
aI21
aF0.596
aF16.1
aF1.9
aF4.4
aF0.437
aF0.3
aF0.6
aF0.455
aF1.1
aF1.6
aF0.675
aF0.4
aF2.5
aF3.0
aF2.1
aF1.0
aF0.3
aF0.3
aF0.2
aF0.7
aF1.2
aF5.3
aF1.6
aI0
aI0
aI5
aV1503,1610612737
p1832
aa(lp1833
I202727
aVTravis Leslie
p1834
aI1610612746
aVLAC
p1835
aF22.0
aI10
aI5
aI5
aF0.5
aF4.5
aF0.5
aF1.4
aF0.357
aF0.0
aF0.0
aF0.0
aF0.4
aF0.9
aF0.444
aF0.6
aF0.3
aF0.9
aF0.5
aF0.2
aF0.2
aF0.2
aF0.1
aF0.4
aF0.7
aF1.4
aF-2.3
aI0
aI0
aI5
aV202727,1610612746
p1836
aa(lp1837
I2566
aVTravis Outlaw
p1838
aI1610612758
aVSAC
p1839
aF27.0
aI39
aI15
aI24
aF0.385
aF12.8
aF1.5
aF4.5
aF0.343
aF0.4
aF1.5
aF0.267
aF0.8
aF1.2
aF0.674
aF0.5
aF1.1
aF1.6
aF0.4
aF0.5
aF0.5
aF0.5
aF0.3
aF0.9
aF0.8
aF4.3
aF-1.3
aI0
aI0
aI5
aV2566,1610612758
p1840
aa(lp1841
I2772
aVTrevor Ariza
p1842
aI1610612740
aVNOH
p1843
aF27.0
aI41
aI12
aI29
aF0.293
aF32.9
aF4.1
aF9.8
aF0.417
aF0.7
aF2.1
aF0.333
aF1.9
aF2.5
aF0.775
aF1.0
aF4.2
aF5.2
aF3.3
aF1.9
aF1.7
aF0.6
aF0.6
aF1.8
aF2.2
aF10.8
aF-4.2
aI0
aI0
aI5
aV2772,1610612740
p1844
aa(lp1845
I202344
aVTrevor Booker
p1846
aI1610612764
aVWAS
p1847
aF24.0
aI50
aI12
aI38
aF0.24
aF25.2
aF3.6
aF6.8
aF0.531
aF0.0
aF0.0
aF0.5
aF1.1
aF1.9
aF0.602
aF2.4
aF4.1
aF6.5
aF0.8
aF1.2
aF1.0
aF0.9
aF0.2
aF2.8
aF1.8
aF8.4
aF-2.7
aI4
aI0
aI5
aV202344,1610612764
p1848
aa(lp1849
I201234
aVTrey Johnson
p1850
aI1610612740
aVNOH
p1851
aF27.0
aI11
aI2
aI9
aF0.182
aF5.6
aF0.7
aF1.3
aF0.571
aF0.0
aF0.0
aF0.0
aF0.5
aF0.5
aF1.0
aF0.3
aF0.8
aF1.1
aF0.4
aF0.5
aF0.1
aF0.0
aF0.0
aF0.9
aF0.4
aF1.9
aF-0.4
aI0
aI0
aI5
aV201234,1610612740
p1852
aa(lp1853
I202717
aVTrey Thompkins
p1854
aI1610612746
aVLAC
p1855
aF22.0
aI24
aI16
aI8
aF0.667
aF5.0
aF1.0
aF2.5
aF0.393
aF0.2
aF0.5
aF0.308
aF0.2
aF0.3
aF0.714
aF0.2
aF0.8
aF1.0
aF0.1
aF0.3
aF0.1
aF0.1
aF0.2
aF0.4
aF0.2
aF2.4
aF-2.4
aI0
aI0
aI5
aV202717,1610612746
p1856
aa(lp1857
I202684
aVTristan Thompson
p1858
aI1610612739
aVCLE
p1859
aF21.0
aI60
aI18
aI42
aF0.3
aF23.7
aF3.2
aF7.4
aF0.439
aF0.0
aF0.0
aF0.0
aF1.8
aF3.2
aF0.552
aF3.1
aF3.4
aF6.5
aF0.5
aF1.4
aF0.5
aF1.0
aF1.2
aF2.2
aF2.4
aF8.2
aF-5.2
aI9
aI0
aI5
aV202684,1610612739
p1860
aa(lp1861
I2211
aVTroy Murphy
p1862
aI1610612747
aVLAL
p1863
aF32.0
aI59
aI34
aI25
aF0.576
aF16.2
aF1.3
aF2.9
aF0.45
aF0.5
aF1.1
aF0.418
aF0.1
aF0.2
aF0.667
aF0.7
aF2.6
aF3.2
aF0.9
aF0.4
aF0.3
aF0.3
aF0.1
aF1.7
aF0.3
aF3.2
aF0.2
aI0
aI0
aI5
aV2211,1610612747
p1864
aa(lp1865
I201951
aVTy Lawson
p1866
aI1610612743
aVDEN
p1867
aF24.0
aI61
aI36
aI25
aF0.59
aF34.8
aF6.1
aF12.6
aF0.488
aF1.2
aF3.3
aF0.365
aF2.9
aF3.5
aF0.824
aF0.9
aF2.8
aF3.7
aF6.6
aF2.4
aF1.3
aF0.1
aF1.1
aF1.5
aF3.3
aF16.4
aF2.3
aI11
aI0
aI5
aV201951,1610612743
p1868
aa(lp1869
I201946
aVTyler Hansbrough
p1870
aI1610612754
aVIND
p1871
aF26.0
aI66
aI42
aI24
aF0.636
aF21.9
aF2.9
aF7.3
aF0.405
aF0.0
aF0.0
aF0.0
aF3.4
aF4.2
aF0.813
aF1.7
aF2.7
aF4.4
aF0.5
aF1.0
aF0.8
aF0.1
aF0.7
aF2.4
aF3.3
aF9.3
aF-0.4
aI2
aI0
aI5
aV201946,1610612754
p1872
aa(lp1873
I202715
aVTyler Honeycutt
p1874
aI1610612758
aVSAC
p1875
aF21.0
aI15
aI5
aI10
aF0.333
aF5.9
aF0.5
aF1.6
aF0.333
aF0.1
aF0.2
aF0.333
aF0.2
aF0.3
aF0.6
aF0.2
aF0.7
aF0.9
aF0.5
aF0.1
aF0.3
aF0.2
aF0.0
aF0.2
aF0.3
aF1.3
aF-0.5
aI0
aI0
aI5
aV202715,1610612758
p1876
aa(lp1877
I201936
aVTyreke Evans
p1878
aI1610612758
aVSAC
p1879
aF22.0
aI63
aI19
aI44
aF0.302
aF34.3
aF6.5
aF14.3
aF0.453
aF0.3
aF1.6
aF0.202
aF3.2
aF4.1
aF0.779
aF1.0
aF3.6
aF4.6
aF4.5
aF2.7
aF1.3
aF0.5
aF1.2
aF2.2
aF2.7
aF16.5
aF-4.6
aI5
aI0
aI5
aV201936,1610612758
p1880
aa(lp1881
I200748
aVTyrus Thomas
p1882
aI1610612766
aVCHA
p1883
aF25.0
aI54
aI5
aI49
aF0.093
aF18.8
aF2.2
aF6.1
aF0.367
aF0.0
aF0.1
aF0.333
aF1.2
aF1.5
aF0.759
aF0.9
aF2.8
aF3.7
aF0.6
aF1.0
aF0.7
aF1.1
aF0.5
aF2.7
aF1.5
aF5.6
aF-5.5
aI1
aI0
aI5
aV200748,1610612766
p1884
aa(lp1885
I2199
aVTyson Chandler
p1886
aI1610612752
aVNYK
p1887
aF29.0
aI62
aI34
aI28
aF0.548
aF33.2
aF3.9
aF5.7
aF0.679
aF0.0
aF0.0
aF0.0
aF3.5
aF5.1
aF0.689
aF3.4
aF6.5
aF9.9
aF0.9
aF1.6
aF0.9
aF1.4
aF0.4
aF3.0
aF4.3
aF11.3
aF2.0
aI20
aI0
aI5
aV2199,1610612752
p1888
aa(lp1889
I2617
aVUdonis Haslem
p1890
aI1610612748
aVMIA
p1891
aF32.0
aI64
aI44
aI20
aF0.688
aF24.8
aF2.4
aF5.6
aF0.423
aF0.0
aF0.0
aF0.0
aF1.3
aF1.6
aF0.814
aF1.8
aF5.5
aF7.3
aF0.7
aF0.9
aF0.5
aF0.4
aF0.6
aF2.2
aF1.7
aF6.0
aF1.3
aI4
aI0
aI5
aV2617,1610612748
p1892
aa(lp1893
I202731
aVVernon Macklin
p1894
aI1610612765
aVDET
p1895
aF25.0
aI23
aI5
aI18
aF0.217
aF5.9
aF0.8
aF1.5
aF0.543
aF0.0
aF0.0
aF0.0
aF0.3
aF0.6
aF0.571
aF0.6
aF0.9
aF1.5
aF0.2
aF0.1
aF0.2
aF0.2
aF0.0
aF0.4
aF0.3
aF2.0
aF0.1
aI0
aI0
aI5
aV202731,1610612765
p1896
aa(lp1897
I1713
aVVince Carter
p1898
aI1610612742
aVDAL
p1899
aF35.0
aI61
aI33
aI28
aF0.541
aF25.3
aF3.7
aF8.9
aF0.411
aF1.2
aF3.4
aF0.361
aF1.6
aF1.9
aF0.826
aF0.5
aF2.8
aF3.4
aF2.3
aF1.4
aF0.9
aF0.4
aF0.3
aF2.2
aF2.0
aF10.1
aF3.6
aI1
aI0
aI5
aV1713,1610612742
p1900
aa(lp1901
I2209
aVVladimir Radmanovic
p1902
aI1610612737
aVATL
p1903
aF31.0
aI49
aI30
aI19
aF0.612
aF15.4
aF1.5
aF4.0
aF0.376
aF1.0
aF2.8
aF0.37
aF0.4
aF0.6
aF0.759
aF0.7
aF2.2
aF2.9
aF1.1
aF0.7
aF0.4
aF0.3
aF0.1
aF1.3
aF0.6
aF4.5
aF0.7
aI0
aI0
aI5
aV2209,1610612737
p1904
aa(lp1905
I101144
aVVon Wafer
p1906
aI1610612753
aVORL
p1907
aF26.0
aI33
aI19
aI14
aF0.576
aF14.2
aF2.2
aF4.8
aF0.452
aF0.4
aF1.2
aF0.359
aF1.2
aF1.6
aF0.704
aF0.2
aF1.2
aF1.4
aF0.9
aF1.1
aF0.3
aF0.1
aF0.2
aF0.8
aF1.0
aF5.9
aF-1.5
aI0
aI0
aI5
aV101144,1610612753
p1908
aa(lp1909
I201041
aVWalker Russell
p1910
aI1610612765
aVDET
p1911
aF29.0
aI28
aI12
aI16
aF0.429
aF12.8
aF1.2
aF3.4
aF0.347
aF0.1
aF0.5
aF0.308
aF0.5
aF0.8
aF0.636
aF0.3
aF0.7
aF0.9
aF2.1
aF1.2
aF0.6
aF0.0
aF0.2
aF1.0
aF0.8
aF3.0
aF-2.4
aI0
aI0
aI5
aV201041,1610612765
p1912
aa(lp1913
I201961
aVWayne Ellington
p1914
aI1610612750
aVMIN
p1915
aF24.0
aI51
aI19
aI32
aF0.373
aF19.1
aF2.4
aF5.9
aF0.404
aF0.7
aF2.1
aF0.324
aF0.6
aF0.8
aF0.8
aF0.3
aF1.7
aF1.9
aF0.6
aF0.5
aF0.5
aF0.2
aF0.2
aF1.1
aF0.8
aF6.1
aF-0.5
aI0
aI0
aI5
aV201961,1610612750
p1916
aa(lp1917
I202325
aVWesley Johnson
p1918
aI1610612750
aVMIN
p1919
aF24.0
aI65
aI26
aI39
aF0.4
aF22.6
aF2.4
aF6.1
aF0.398
aF0.8
aF2.6
aF0.314
aF0.4
aF0.5
aF0.706
aF0.4
aF2.4
aF2.7
aF0.9
aF0.9
aF0.5
aF0.7
aF0.2
aF1.8
aF0.5
aF6.0
aF-2.4
aI0
aI0
aI5
aV202325,1610612750
p1920
aa(lp1921
I202083
aVWesley Matthews
p1922
aI1610612757
aVPOR
p1923
aF25.0
aI66
aI28
aI38
aF0.424
aF33.8
aF4.8
aF11.6
aF0.412
aF2.0
aF5.1
aF0.383
aF2.2
aF2.6
aF0.86
aF0.8
aF2.5
aF3.4
aF1.7
aF1.1
aF1.5
aF0.2
aF0.8
aF2.2
aF2.3
aF13.7
aF1.0
aI0
aI0
aI5
aV202083,1610612757
p1924
aa(lp1925
I101198
aVWill Bynum
p1926
aI1610612765
aVDET
p1927
aF29.0
aI36
aI14
aI22
aF0.389
aF14.3
aF2.1
aF5.4
aF0.381
aF0.2
aF0.8
aF0.241
aF1.4
aF1.8
aF0.766
aF0.3
aF1.3
aF1.6
aF1.8
aF1.5
aF0.6
aF0.1
aF0.5
aF1.7
aF1.5
aF5.7
aF-1.0
aI0
aI0
aI5
aV101198,1610612765
p1928
aa(lp1929
I2584
aVWillie Green
p1930
aI1610612737
aVATL
p1931
aF30.0
aI53
aI32
aI21
aF0.604
aF17.4
aF2.9
aF6.1
aF0.471
aF0.9
aF2.1
aF0.442
aF0.9
aF1.1
aF0.857
aF0.3
aF1.2
aF1.5
aF0.8
aF0.6
aF0.4
aF0.1
aF0.1
aF1.4
aF0.9
aF7.6
aF-1.4
aI0
aI0
aI5
aV2584,1610612737
p1932
aa(lp1933
I201163
aVWilson Chandler
p1934
aI1610612743
aVDEN
p1935
aF25.0
aI8
aI4
aI4
aF0.5
aF26.8
aF3.9
aF9.9
aF0.392
aF0.4
aF1.5
aF0.25
aF1.3
aF1.5
aF0.833
aF0.8
aF4.4
aF5.1
aF2.1
aF2.3
aF0.8
aF0.8
aF0.5
aF2.3
aF1.1
aF9.4
aF-2.4
aI1
aI0
aI5
aV201163,1610612743
p1936
aa(lp1937
I202333
aVXavier Henry
p1938
aI1610612740
aVNOH
p1939
aF21.0
aI45
aI18
aI27
aF0.4
aF16.9
aF2.0
aF5.1
aF0.395
aF0.2
aF0.4
aF0.412
aF1.2
aF1.9
aF0.612
aF0.5
aF1.8
aF2.4
aF0.8
aF0.8
aF0.6
aF0.2
aF0.5
aF1.3
aF1.4
aF5.3
aF-0.8
aI0
aI0
aI5
aV202333,1610612740
p1940
aa(lp1941
I202918
aVXavier Silas
p1942
aI1610612755
aVPHI
p1943
aF24.0
aI2
aI1
aI1
aF0.5
aF19.4
aF2.0
aF7.5
aF0.267
aF0.5
aF3.0
aF0.167
aF1.0
aF1.5
aF0.667
aF1.0
aF1.0
aF2.0
aF1.5
aF1.5
aF0.0
aF0.0
aF0.5
aF2.5
aF2.5
aF5.5
aF-7.0
aI0
aI0
aI5
aV202918,1610612755
p1944
aa(lp1945
I201146
aVYi Jianlian
p1946
aI1610612742
aVDAL
p1947
aF24.0
aI30
aI15
aI15
aF0.5
aF6.8
aF1.0
aF2.7
aF0.378
aF0.1
aF0.3
aF0.3
aF0.5
aF0.7
aF0.667
aF0.4
aF1.2
aF1.6
aF0.2
aF0.5
aF0.2
aF0.3
aF0.3
aF0.8
aF0.5
aF2.6
aF-2.1
aI0
aI0
aI5
aV201146,1610612742
p1948
aa(lp1949
I2216
aVZach Randolph
p1950
aI1610612763
aVMEM
p1951
aF30.0
aI28
aI17
aI11
aF0.607
aF26.2
aF4.7
aF10.2
aF0.463
aF0.1
aF0.3
aF0.25
aF2.1
aF3.1
aF0.659
aF2.8
aF5.3
aF8.0
aF1.7
aF1.4
aF0.8
aF0.1
aF0.8
aF2.0
aF2.7
aF11.6
aF4.1
aI8
aI0
aI5
aV2216,1610612763
p1952
aa(lp1953
I2585
aVZaza Pachulia
p1954
aI1610612737
aVATL
p1955
aF28.0
aI58
aI34
aI24
aF0.586
aF28.3
aF2.9
aF5.8
aF0.499
aF0.0
aF0.0
aF0.0
aF2.0
aF2.7
aF0.741
aF2.7
aF5.2
aF7.9
aF1.4
aF1.4
aF0.9
aF0.5
aF0.7
aF3.0
aF2.9
aF7.8
aF1.4
aI11
aI0
aI5
aV2585,1610612737
p1956
aasVname
p1957
VLeagueDashPlayerStats
p1958
sasVparameters
p1959
(dp1960
VConference
p1961
NsVPlusMinus
p1962
VN
p1963
sVGameScope
p1964
NsVTeamID
p1965
I0
sVHeight
p1966
NsVLocation
p1967
NsVStarterBench
p1968
NsVShotClockRange
p1969
NsVSeasonType
p1970
VRegular Season
p1971
sVDivision
p1972
NsVSeason
p1973
V2011-12
p1974
sVPaceAdjust
p1975
VN
p1976
sVDraftYear
p1977
NsVDateFrom
p1978
NsVPlayerPosition
p1979
NsVCountry
p1980
NsVVsConference
p1981
NsVOpponentTeamID
p1982
I0
sVDateTo
p1983
NsVGameSegment
p1984
NsVDraftPick
p1985
NsVLastNGames
p1986
I0
sVPlayerExperience
p1987
NsVVsDivision
p1988
NsVLeagueID
p1989
V00
p1990
sVOutcome
p1991
NsVMeasureType
p1992
VBase
p1993
sVWeight
p1994
NsVPORound
p1995
I0
sVPerMode
p1996
VPerGame
p1997
sVSeasonSegment
p1998
NsVPeriod
p1999
I0
sVRank
p2000
VN
p2001
sVMonth
p2002
I0
sVCollege
p2003
Nss.