(dp0
Vresource
p1
Vleaguedashplayerstats
p2
sVresultSets
p3
(lp4
(dp5
Vheaders
p6
(lp7
VPLAYER_ID
p8
aVPLAYER_NAME
p9
aVTEAM_ID
p10
aVTEAM_ABBREVIATION
p11
aVAGE
p12
aVGP
p13
aVW
p14
aVL
p15
aVW_PCT
p16
aVMIN
p17
aVFGM
p18
aVFGA
p19
aVFG_PCT
p20
aVFG3M
p21
aVFG3A
p22
aVFG3_PCT
p23
aVFTM
p24
aVFTA
p25
aVFT_PCT
p26
aVOREB
p27
aVDREB
p28
aVREB
p29
aVAST
p30
aVTOV
p31
aVSTL
p32
aVBLK
p33
aVBLKA
p34
aVPF
p35
aVPFD
p36
aVPTS
p37
aVPLUS_MINUS
p38
aVDD2
p39
aVTD3
p40
aVCFID
p41
aVCFPARAMS
p42
asVrowSet
p43
(lp44
(lp45
I201985
aVA.J. Price
p46
aI1610612739
aVCLE
p47
aF28.0
aI26
aI11
aI15
aF0.423
aF12.4
aF2.0
aF5.3
aF0.372
aF0.6
aF2.2
aF0.263
aF0.6
aF0.9
aF0.667
aF0.2
aF1.0
aF1.2
aF1.8
aF0.5
aF0.3
aF0.0
aF0.2
aF0.6
aF1.2
aF5.1
aF-2.5
aI0
aI0
aI5
aV201985,1610612739
p48
aa(lp49
I201166
aVAaron Brooks
p50
aI1610612741
aVCHI
p51
aF30.0
aI82
aI50
aI32
aF0.61
aF23.0
aF4.2
aF10.0
aF0.421
aF1.5
aF3.8
aF0.387
aF1.8
aF2.1
aF0.833
aF0.4
aF1.6
aF2.0
aF3.2
aF1.9
aF0.7
aF0.2
aF0.6
aF2.3
aF1.8
aF11.6
aF2.6
aI1
aI0
aI5
aV201166,1610612741
p52
aa(lp53
I203932
aVAaron Gordon
p54
aI1610612753
aVORL
p55
aF19.0
aI47
aI14
aI33
aF0.298
aF17.0
aF2.0
aF4.4
aF0.447
aF0.3
aF1.0
aF0.271
aF0.9
aF1.3
aF0.721
aF1.0
aF2.6
aF3.6
aF0.7
aF0.8
aF0.4
aF0.5
aF0.3
aF1.8
aF1.1
aF5.2
aF-3.5
aI1
aI0
aI5
aV203932,1610612753
p56
aa(lp57
I203940
aVAdreian Payne
p58
aI1610612750
aVMIN
p59
aF24.0
aI32
aI7
aI25
aF0.219
aF23.1
aF2.8
aF6.9
aF0.414
aF0.0
aF0.3
aF0.111
aF0.9
aF1.4
aF0.652
aF1.5
aF3.6
aF5.1
aF0.9
aF1.4
aF0.6
aF0.3
aF0.3
aF2.8
aF1.3
aF6.7
aF-7.7
aI3
aI0
aI5
aV203940,1610612750
p60
aa(lp61
I201143
aVAl Horford
p62
aI1610612737
aVATL
p63
aF29.0
aI76
aI56
aI20
aF0.737
aF30.5
aF6.8
aF12.7
aF0.538
aF0.1
aF0.5
aF0.306
aF1.4
aF1.9
aF0.759
aF1.7
aF5.4
aF7.2
aF3.2
aF1.3
aF0.9
aF1.3
aF0.5
aF1.6
aF1.7
aF15.2
aF3.8
aI14
aI1
aI5
aV201143,1610612737
p64
aa(lp65
I2744
aVAl Jefferson
p66
aI1610612766
aVCHA
p67
aF30.0
aI65
aI25
aI40
aF0.385
aF30.6
aF7.5
aF15.5
aF0.481
aF0.0
aF0.1
aF0.4
aF1.7
aF2.5
aF0.655
aF1.5
aF6.9
aF8.4
aF1.7
aF1.0
aF0.7
aF1.3
aF0.8
aF2.1
aF2.1
aF16.6
aF-1.8
aI22
aI0
aI5
aV2744,1610612766
p68
aa(lp69
I202329
aVAl-Farouq Aminu
p70
aI1610612742
aVDAL
p71
aF24.0
aI74
aI45
aI29
aF0.608
aF18.5
aF2.0
aF4.8
aF0.412
aF0.5
aF1.7
aF0.274
aF1.1
aF1.6
aF0.712
aF1.5
aF3.1
aF4.6
aF0.8
aF0.7
aF0.9
aF0.8
aF0.3
aF1.9
aF1.3
aF5.6
aF1.4
aI4
aI0
aI5
aV202329,1610612742
p72
aa(lp73
I101187
aVAlan Anderson
p74
aI1610612751
aVBKN
p75
aF32.0
aI74
aI35
aI39
aF0.473
aF23.6
aF2.6
aF5.9
aF0.443
aF1.0
aF2.8
aF0.348
aF1.1
aF1.4
aF0.812
aF0.4
aF2.3
aF2.8
aF1.1
aF0.8
aF0.8
aF0.1
aF0.4
aF2.0
aF1.7
aF7.4
aF-0.8
aI0
aI0
aI5
aV101187,1610612751
p76
aa(lp77
I202692
aVAlec Burks
p78
aI1610612762
aVUTA
p79
aF23.0
aI27
aI9
aI18
aF0.333
aF33.3
aF4.5
aF11.1
aF0.403
aF1.0
aF2.5
aF0.382
aF3.9
aF4.8
aF0.822
aF0.7
aF3.5
aF4.2
aF3.0
aF1.9
aF0.6
aF0.2
aF0.9
aF2.4
aF3.6
aF13.9
aF-4.8
aI2
aI0
aI5
aV202692,1610612762
p80
aa(lp81
I203945
aVAlex Kirk
p82
aI1610612739
aVCLE
p83
aF23.0
aI5
aI2
aI3
aF0.4
aF2.8
aF0.2
aF0.8
aF0.25
aF0.0
aF0.0
aF0.0
aF0.4
aF0.4
aF1.0
aF0.2
aF0.0
aF0.2
aF0.2
aF0.0
aF0.0
aF0.0
aF0.0
aF0.2
aF0.2
aF0.8
aF-2.8
aI0
aI0
aI5
aV203945,1610612739
p84
aa(lp85
I203458
aVAlex Len
p86
aI1610612756
aVPHX
p87
aF22.0
aI69
aI35
aI34
aF0.507
aF22.0
aF2.6
aF5.1
aF0.507
aF0.0
aF0.0
aF0.333
aF1.1
aF1.5
aF0.702
aF2.1
aF4.5
aF6.6
aF0.5
aF1.1
aF0.5
aF1.5
aF0.4
aF3.1
aF1.5
aF6.3
aF-0.4
aI10
aI0
aI5
aV203458,1610612756
p88
aa(lp89
I203144
aVAlexey Shved
p90
aI1610612752
aVNYK
p91
aF26.0
aI42
aI10
aI32
aF0.238
aF18.3
aF3.2
aF8.0
aF0.397
aF1.1
aF3.3
aF0.338
aF2.9
aF3.6
aF0.807
aF0.5
aF1.8
aF2.4
aF2.5
aF1.1
aF0.7
aF0.1
aF0.6
aF1.1
aF2.4
aF10.3
aF-3.1
aI2
aI0
aI5
aV203144,1610612752
p92
aa(lp93
I201582
aVAlexis Ajinca
p94
aI1610612740
aVNOP
p95
aF27.0
aI68
aI41
aI27
aF0.603
aF14.1
aF2.7
aF4.8
aF0.55
aF0.0
aF0.0
aF0.0
aF1.2
aF1.5
aF0.818
aF1.5
aF3.1
aF4.6
aF0.7
aF1.0
aF0.3
aF0.8
aF0.3
aF2.2
aF1.3
aF6.5
aF-0.2
aI5
aI0
aI5
aV201582,1610612740
p96
aa(lp97
I203459
aVAllen Crabbe
p98
aI1610612757
aVPOR
p99
aF23.0
aI51
aI36
aI15
aF0.706
aF13.4
aF1.2
aF3.0
aF0.412
aF0.6
aF1.7
aF0.353
aF0.2
aF0.3
aF0.75
aF0.1
aF1.3
aF1.4
aF0.8
aF0.3
aF0.4
aF0.3
aF0.0
aF1.5
aF0.4
aF3.3
aF-0.5
aI0
aI0
aI5
aV203459,1610612757
p100
aa(lp101
I202087
aVAlonzo Gee
p102
aI1610612757
aVPOR
p103
aF28.0
aI54
aI21
aI33
aF0.389
aF12.2
aF1.6
aF3.4
aF0.468
aF0.2
aF0.6
aF0.371
aF1.0
aF1.4
aF0.701
aF0.7
aF1.1
aF1.7
aF0.5
aF0.6
aF0.6
aF0.1
aF0.4
aF1.1
aF0.9
aF4.5
aF-1.8
aI0
aI0
aI5
aV202087,1610612757
p104
aa(lp105
I2405
aVAmar'e Stoudemire
p106
aI1610612742
aVDAL
p107
aF32.0
aI59
aI19
aI40
aF0.322
aF21.1
aF4.6
aF8.3
aF0.557
aF0.0
aF0.1
aF0.0
aF2.3
aF3.2
aF0.72
aF1.9
aF3.7
aF5.6
aF0.8
aF1.3
aF0.5
aF0.6
aF0.7
aF2.7
aF3.2
aF11.5
aF-1.0
aI4
aI0
aI5
aV2405,1610612742
p108
aa(lp109
I101161
aVAmir Johnson
p110
aI1610612761
aVTOR
p111
aF28.0
aI75
aI44
aI31
aF0.587
aF26.4
aF4.0
aF6.9
aF0.574
aF0.3
aF0.6
aF0.413
aF1.1
aF1.7
aF0.612
aF2.1
aF4.0
aF6.1
aF1.6
aF1.5
aF0.6
aF0.8
aF0.7
aF3.0
aF1.7
aF9.3
aF0.8
aI6
aI0
aI5
aV101161,1610612761
p112
aa(lp113
I2760
aVAnderson Varejao
p114
aI1610612739
aVCLE
p115
aF32.0
aI26
aI16
aI10
aF0.615
aF24.4
aF4.3
aF7.7
aF0.555
aF0.0
aF0.1
aF0.0
aF1.3
aF1.7
aF0.733
aF2.2
aF4.3
aF6.5
aF1.3
aF1.3
aF0.7
aF0.6
aF0.6
aF2.2
aF1.8
aF9.8
aF0.2
aI2
aI0
aI5
aV2760,1610612739
p116
aa(lp117
I203958
aVAndre Dawkins
p118
aI1610612748
aVMIA
p119
aF23.0
aI4
aI2
aI2
aF0.5
aF5.4
aF0.3
aF1.5
aF0.167
aF0.3
aF1.5
aF0.167
aF0.0
aF0.0
aF0.0
aF0.0
aF0.5
aF0.5
aF0.3
aF0.3
aF0.0
aF0.0
aF0.0
aF0.8
aF0.0
aF0.8
aF-1.0
aI0
aI0
aI5
aV203958,1610612748
p120
aa(lp121
I203083
aVAndre Drummond
p122
aI1610612765
aVDET
p123
aF21.0
aI82
aI32
aI50
aF0.39
aF30.5
aF6.0
aF11.7
aF0.514
aF0.0
aF0.0
aF0.0
aF1.7
aF4.5
aF0.389
aF5.3
aF8.1
aF13.5
aF0.7
aF1.5
aF0.9
aF1.9
aF0.7
aF3.5
aF3.3
aF13.8
aF-0.7
aI48
aI0
aI5
aV203083,1610612765
p124
aa(lp125
I2738
aVAndre Iguodala
p126
aI1610612744
aVGSW
p127
aF31.0
aI77
aI64
aI13
aF0.831
aF26.9
aF3.0
aF6.4
aF0.466
aF1.0
aF2.8
aF0.349
aF0.9
aF1.5
aF0.596
aF0.6
aF2.8
aF3.3
aF3.0
aF1.1
aF1.2
aF0.3
aF0.1
aF1.3
aF1.7
aF7.8
aF5.7
aI0
aI0
aI5
aV2738,1610612744
p128
aa(lp129
I1889
aVAndre Miller
p130
aI1610612758
aVSAC
p131
aF39.0
aI81
aI44
aI37
aF0.543
aF15.5
aF1.8
aF3.6
aF0.5
aF0.1
aF0.4
aF0.206
aF0.7
aF1.0
aF0.753
aF0.5
aF1.4
aF1.9
aF3.5
aF1.3
aF0.4
aF0.1
aF0.4
aF1.3
aF1.1
aF4.4
aF-1.6
aI1
aI0
aI5
aV1889,1610612758
p132
aa(lp133
I203460
aVAndre Roberson
p134
aI1610612760
aVOKC
p135
aF23.0
aI67
aI41
aI26
aF0.612
aF19.2
aF1.4
aF3.0
aF0.458
aF0.3
aF1.3
aF0.247
aF0.3
aF0.7
aF0.479
aF0.9
aF2.9
aF3.8
aF1.0
aF0.7
aF0.8
aF0.4
aF0.3
aF2.1
aF0.5
aF3.4
aF1.5
aI1
aI0
aI5
aV203460,1610612760
p136
aa(lp137
I200745
aVAndrea Bargnani
p138
aI1610612752
aVNYK
p139
aF29.0
aI29
aI5
aI24
aF0.172
aF27.1
aF5.7
aF12.4
aF0.454
aF0.5
aF1.4
aF0.366
aF3.0
aF3.7
aF0.813
aF1.1
aF3.3
aF4.4
aF1.6
aF1.4
aF0.1
aF0.9
aF0.2
aF1.8
aF3.5
aF14.8
aF-9.3
aI2
aI0
aI5
aV200745,1610612752
p140
aa(lp141
I1905
aVAndrei Kirilenko
p142
aI1610612751
aVBKN
p143
aF34.0
aI7
aI3
aI4
aF0.429
aF5.2
aF0.0
aF0.7
aF0.0
aF0.0
aF0.0
aF0.0
aF0.4
aF0.6
aF0.75
aF0.3
aF0.9
aF1.1
aF0.1
aF0.1
aF0.1
aF0.0
aF0.3
aF0.1
aF0.3
aF0.4
aF-4.0
aI0
aI0
aI5
aV1905,1610612751
p144
aa(lp145
I101106
aVAndrew Bogut
p146
aI1610612744
aVGSW
p147
aF30.0
aI67
aI58
aI9
aF0.866
aF23.6
aF3.0
aF5.3
aF0.563
aF0.0
aF0.0
aF0.0
aF0.3
aF0.6
aF0.524
aF2.1
aF6.0
aF8.1
aF2.7
aF1.6
aF0.6
aF1.7
aF0.3
aF2.8
aF1.1
aF6.3
aF8.0
aI6
aI0
aI5
aV101106,1610612744
p148
aa(lp149
I203094
aVAndrew Nicholson
p150
aI1610612753
aVORL
p151
aF25.0
aI40
aI14
aI26
aF0.35
aF12.3
aF2.1
aF4.8
aF0.437
aF0.3
aF1.0
aF0.317
aF0.4
aF0.6
aF0.6
aF0.4
aF1.6
aF2.1
aF0.6
aF0.6
aF0.2
aF0.3
aF0.1
aF1.3
aF0.9
aF4.9
aF-2.1
aI0
aI0
aI5
aV203094,1610612753
p152
aa(lp153
I203952
aVAndrew Wiggins
p154
aI1610612750
aVMIN
p155
aF20.0
aI82
aI16
aI66
aF0.195
aF36.2
aF6.1
aF13.9
aF0.437
aF0.5
aF1.5
aF0.31
aF4.3
aF5.7
aF0.76
aF1.6
aF2.9
aF4.6
aF2.1
aF2.2
aF1.0
aF0.6
aF0.8
aF2.3
aF4.6
aF16.9
aF-6.7
aI2
aI0
aI5
aV203952,1610612750
p156
aa(lp157
I203461
aVAnthony Bennett
p158
aI1610612750
aVMIN
p159
aF22.0
aI57
aI12
aI45
aF0.211
aF15.7
aF2.2
aF5.2
aF0.421
aF0.1
aF0.4
aF0.304
aF0.7
aF1.1
aF0.641
aF0.9
aF2.9
aF3.8
aF0.8
aF0.6
aF0.5
aF0.3
aF0.4
aF1.5
aF0.9
aF5.2
aF-5.2
aI2
aI0
aI5
aV203461,1610612750
p160
aa(lp161
I203076
aVAnthony Davis
p162
aI1610612740
aVNOP
p163
aF22.0
aI68
aI39
aI29
aF0.574
aF36.1
aF9.4
aF17.6
aF0.535
aF0.0
aF0.2
aF0.083
aF5.5
aF6.8
aF0.805
aF2.5
aF7.7
aF10.2
aF2.2
aF1.4
aF1.5
aF2.9
aF0.8
aF2.1
aF5.5
aF24.4
aF3.9
aI42
aI0
aI5
aV203076,1610612740
p164
aa(lp165
I201627
aVAnthony Morrow
p166
aI1610612760
aVOKC
p167
aF29.0
aI74
aI42
aI32
aF0.568
aF24.4
aF3.9
aF8.3
aF0.463
aF1.9
aF4.4
aF0.434
aF1.1
aF1.2
aF0.888
aF0.5
aF2.1
aF2.6
aF0.8
aF0.5
aF0.7
aF0.1
aF0.2
aF1.8
aF1.1
aF10.7
aF3.1
aI2
aI0
aI5
aV201627,1610612760
p168
aa(lp169
I201229
aVAnthony Tolliver
p170
aI1610612765
aVDET
p171
aF30.0
aI76
aI36
aI40
aF0.474
aF18.9
aF2.1
aF5.2
aF0.41
aF1.4
aF3.8
aF0.366
aF0.7
aF0.9
aF0.783
aF0.7
aF2.4
aF3.1
aF0.8
aF0.7
aF0.3
aF0.2
aF0.2
aF1.8
aF1.1
aF6.3
aF1.3
aI1
aI0
aI5
aV201229,1610612765
p172
aa(lp173
I203462
aVArchie Goodwin
p174
aI1610612756
aVPHX
p175
aF20.0
aI41
aI16
aI25
aF0.39
aF13.0
aF1.9
aF4.9
aF0.393
aF0.3
aF1.0
aF0.293
aF1.5
aF2.0
aF0.735
aF0.7
aF1.1
aF1.8
aF1.1
aF1.2
aF0.4
aF0.2
aF0.5
aF1.3
aF1.8
aF5.6
aF-4.0
aI0
aI0
aI5
aV203462,1610612756
p176
aa(lp177
I202620
aVArinze Onuaku
p178
aI1610612750
aVMIN
p179
aF27.0
aI6
aI0
aI6
aF0.0
aF11.4
aF2.0
aF2.3
aF0.857
aF0.0
aF0.0
aF0.0
aF0.5
aF1.3
aF0.375
aF1.2
aF2.3
aF3.5
aF0.7
aF0.3
aF0.2
aF0.5
aF0.2
aF1.0
aF0.7
aF4.5
aF-3.0
aI0
aI0
aI5
aV202620,1610612750
p180
aa(lp181
I203382
aVAron Baynes
p182
aI1610612759
aVSAS
p183
aF28.0
aI70
aI49
aI21
aF0.7
aF16.0
aF2.6
aF4.7
aF0.566
aF0.0
aF0.1
aF0.25
aF1.3
aF1.5
aF0.865
aF1.6
aF3.0
aF4.5
aF0.5
aF0.9
aF0.2
aF0.3
aF0.5
aF2.3
aF1.6
aF6.6
aF1.9
aI5
aI0
aI5
aV203382,1610612759
p184
aa(lp185
I201167
aVArron Afflalo
p186
aI1610612757
aVPOR
p187
aF29.0
aI78
aI35
aI43
aF0.449
aF32.1
aF4.8
aF11.3
aF0.424
aF1.5
aF4.3
aF0.354
aF2.1
aF2.5
aF0.843
aF0.3
aF2.8
aF3.2
aF1.7
aF1.5
aF0.5
aF0.1
aF0.8
aF2.1
aF1.9
aF13.3
aF-0.3
aI0
aI0
aI5
aV201167,1610612757
p188
aa(lp189
I201948
aVAustin Daye
p190
aI1610612737
aVATL
p191
aF27.0
aI34
aI17
aI17
aF0.5
aF10.1
aF1.5
aF4.1
aF0.355
aF0.7
aF2.1
aF0.338
aF0.1
aF0.2
aF0.833
aF0.3
aF1.9
aF2.2
aF0.5
aF0.7
aF0.4
aF0.1
aF0.1
aF1.1
aF0.2
aF3.8
aF-1.3
aI2
aI0
aI5
aV201948,1610612737
p192
aa(lp193
I203085
aVAustin Rivers
p194
aI1610612746
aVLAC
p195
aF22.0
aI76
aI46
aI30
aF0.605
aF20.6
aF2.7
aF6.5
aF0.409
aF0.5
aF1.7
aF0.298
aF1.1
aF1.7
aF0.675
aF0.4
aF1.6
aF2.0
aF2.0
aF0.9
aF0.6
aF0.2
aF0.3
aF1.9
aF1.4
aF7.0
aF-1.7
aI0
aI0
aI5
aV203085,1610612746
p196
aa(lp197
I202340
aVAvery Bradley
p198
aI1610612738
aVBOS
p199
aF24.0
aI77
aI37
aI40
aF0.481
aF31.5
aF5.6
aF13.2
aF0.428
aF1.6
aF4.6
aF0.352
aF1.0
aF1.3
aF0.79
aF0.6
aF2.5
aF3.1
aF1.8
aF1.4
aF1.1
aF0.2
aF0.6
aF2.3
aF1.2
aF13.9
aF-1.1
aI1
aI0
aI5
aV202340,1610612738
p200
aa(lp201
I2732
aVBen Gordon
p202
aI1610612753
aVORL
p203
aF32.0
aI56
aI17
aI39
aF0.304
aF14.1
aF2.3
aF5.3
aF0.437
aF0.6
aF1.7
aF0.361
aF1.0
aF1.2
aF0.836
aF0.1
aF1.0
aF1.1
aF0.9
aF1.0
aF0.3
aF0.0
aF0.3
aF1.1
aF1.2
aF6.2
aF-2.4
aI0
aI0
aI5
aV2732,1610612753
p204
aa(lp205
I203463
aVBen McLemore
p206
aI1610612758
aVSAC
p207
aF22.0
aI82
aI29
aI53
aF0.354
aF32.6
aF4.4
aF10.1
aF0.437
aF1.7
aF4.8
aF0.358
aF1.6
aF2.0
aF0.813
aF0.4
aF2.6
aF2.9
aF1.7
aF1.7
aF0.9
aF0.2
aF0.5
aF2.7
aF1.6
aF12.1
aF-0.4
aI0
aI0
aI5
aV203463,1610612758
p208
aa(lp209
I2757
aVBeno Udrih
p210
aI1610612763
aVMEM
p211
aF32.0
aI79
aI55
aI24
aF0.696
aF18.9
aF3.1
aF6.4
aF0.487
aF0.3
aF1.2
aF0.268
aF1.1
aF1.3
aF0.853
aF0.3
aF1.6
aF1.8
aF2.8
aF1.1
aF0.6
aF0.1
aF0.3
aF1.1
aF1.2
aF7.7
aF-0.1
aI0
aI0
aI5
aV2757,1610612763
p212
aa(lp213
I203108
aVBernard James
p214
aI1610612742
aVDAL
p215
aF30.0
aI16
aI6
aI10
aF0.375
aF9.9
aF0.8
aF1.7
aF0.444
aF0.0
aF0.0
aF0.0
aF1.3
aF1.4
aF0.87
aF1.1
aF1.3
aF2.4
aF0.3
aF0.4
aF0.1
aF0.9
aF0.5
aF1.1
aF0.9
aF2.8
aF-0.6
aI0
aI0
aI5
aV203108,1610612742
p216
aa(lp217
I202687
aVBismack Biyombo
p218
aI1610612766
aVCHA
p219
aF22.0
aI64
aI26
aI38
aF0.406
aF19.4
aF1.6
aF2.9
aF0.543
aF0.0
aF0.0
aF0.0
aF1.6
aF2.7
aF0.583
aF2.5
aF3.9
aF6.4
aF0.3
aF0.8
aF0.3
aF1.5
aF0.4
aF2.2
aF2.2
aF4.8
aF-0.5
aI6
aI0
aI5
aV202687,1610612766
p220
aa(lp221
I201933
aVBlake Griffin
p222
aI1610612746
aVLAC
p223
aF26.0
aI67
aI47
aI20
aF0.701
aF35.2
aF8.6
aF17.1
aF0.502
aF0.1
aF0.4
aF0.4
aF4.6
aF6.4
aF0.728
aF1.9
aF5.7
aF7.6
aF5.3
aF2.3
aF0.9
aF0.5
aF0.7
aF2.9
aF5.9
aF21.9
aF8.7
aI18
aI0
aI5
aV201933,1610612746
p224
aa(lp225
I202711
aVBojan Bogdanovic
p226
aI1610612751
aVBKN
p227
aF26.0
aI78
aI36
aI42
aF0.462
aF23.8
aF3.3
aF7.4
aF0.453
aF1.2
aF3.3
aF0.355
aF1.1
aF1.4
aF0.821
aF0.6
aF2.1
aF2.7
aF0.9
aF1.0
aF0.4
aF0.1
aF0.5
aF1.3
aF1.2
aF9.0
aF-2.3
aI0
aI0
aI5
aV202711,1610612751
p228
aa(lp229
I2564
aVBoris Diaw
p230
aI1610612759
aVSAS
p231
aF33.0
aI81
aI55
aI26
aF0.679
aF24.5
aF3.6
aF7.8
aF0.46
aF0.7
aF2.1
aF0.32
aF0.9
aF1.1
aF0.774
aF1.0
aF3.3
aF4.3
aF2.9
aF1.6
aF0.4
aF0.3
aF0.3
aF1.8
aF1.3
aF8.7
aF3.6
aI1
aI0
aI5
aV2564,1610612759
p232
aa(lp233
I203078
aVBradley Beal
p234
aI1610612764
aVWAS
p235
aF22.0
aI63
aI37
aI26
aF0.587
aF33.5
aF5.8
aF13.5
aF0.427
aF1.7
aF4.1
aF0.409
aF2.1
aF2.6
aF0.783
aF0.9
aF2.9
aF3.8
aF3.1
aF2.0
aF1.2
aF0.3
aF0.8
aF2.2
aF2.3
aF15.3
aF3.1
aI2
aI0
aI5
aV203078,1610612764
p236
aa(lp237
I201148
aVBrandan Wright
p238
aI1610612756
aVPHX
p239
aF27.0
aI75
aI37
aI38
aF0.493
aF19.3
aF3.1
aF4.8
aF0.642
aF0.0
aF0.0
aF0.0
aF1.0
aF1.5
aF0.696
aF1.7
aF2.6
aF4.3
aF0.5
aF0.5
aF0.7
aF1.3
aF0.3
aF1.4
aF1.3
aF7.3
aF-0.2
aI3
aI0
aI5
aV201148,1610612756
p240
aa(lp241
I101138
aVBrandon Bass
p242
aI1610612738
aVBOS
p243
aF30.0
aI82
aI40
aI42
aF0.488
aF23.5
aF4.2
aF8.3
aF0.504
aF0.1
aF0.4
aF0.281
aF2.1
aF2.6
aF0.79
aF1.7
aF3.2
aF4.9
aF1.3
aF1.0
aF0.5
aF0.4
aF0.7
aF1.7
aF1.9
aF10.6
aF-2.2
aI5
aI0
aI5
aV101138,1610612738
p244
aa(lp245
I203561
aVBrandon Davies
p246
aI1610612755
aVPHI
p247
aF23.0
aI27
aI6
aI21
aF0.222
aF15.7
aF2.0
aF5.1
aF0.401
aF0.3
aF1.3
aF0.235
aF0.9
aF1.4
aF0.649
aF1.4
aF1.7
aF3.1
aF1.1
aF1.1
aF0.7
aF0.3
aF0.5
aF2.2
aF1.6
aF5.3
aF-6.0
aI0
aI0
aI5
aV203561,1610612755
p248
aa(lp249
I201943
aVBrandon Jennings
p250
aI1610612765
aVDET
p251
aF25.0
aI41
aI17
aI24
aF0.415
aF28.6
aF5.3
aF13.2
aF0.401
aF1.9
aF5.1
aF0.36
aF2.9
aF3.5
aF0.839
aF0.5
aF2.0
aF2.5
aF6.6
aF2.2
aF1.1
aF0.1
aF0.7
aF1.6
aF3.1
aF15.4
aF0.8
aI5
aI0
aI5
aV201943,1610612765
p252
aa(lp253
I202688
aVBrandon Knight
p254
aI1610612756
aVPHX
p255
aF23.0
aI63
aI33
aI30
aF0.524
aF32.3
aF6.0
aF14.1
aF0.422
aF2.0
aF5.1
aF0.389
aF3.1
aF3.5
aF0.874
aF0.4
aF3.4
aF3.9
aF5.2
aF3.0
aF1.4
aF0.2
aF0.6
aF1.8
aF3.5
aF17.0
aF-1.3
aI2
aI0
aI5
aV202688,1610612756
p256
aa(lp257
I201575
aVBrandon Rush
p258
aI1610612744
aVGSW
p259
aF29.0
aI33
aI27
aI6
aF0.818
aF8.2
aF0.3
aF1.6
aF0.204
aF0.1
aF0.8
aF0.111
aF0.2
aF0.3
aF0.455
aF0.1
aF1.1
aF1.2
aF0.4
aF0.3
aF0.2
aF0.4
aF0.1
aF0.8
aF0.2
aF0.9
aF-3.8
aI0
aI0
aI5
aV201575,1610612744
p260
aa(lp261
I2217
aVBrendan Haywood
p262
aI1610612739
aVCLE
p263
aF35.0
aI22
aI14
aI8
aF0.636
aF5.4
aF0.6
aF1.4
aF0.467
aF0.0
aF0.0
aF0.0
aF0.3
aF0.6
aF0.538
aF0.3
aF1.0
aF1.3
aF0.1
aF0.5
aF0.1
aF0.5
aF0.1
aF0.8
aF0.5
aF1.6
aF-2.3
aI0
aI0
aI5
aV2217,1610612739
p264
aa(lp265
I203148
aVBrian Roberts
p266
aI1610612766
aVCHA
p267
aF29.0
aI72
aI30
aI42
aF0.417
aF18.5
aF2.4
aF6.3
aF0.389
aF0.9
aF2.7
aF0.321
aF0.9
aF1.0
aF0.892
aF0.2
aF1.3
aF1.5
aF2.3
aF0.8
aF0.5
aF0.1
aF0.2
aF1.0
aF1.4
aF6.7
aF-1.2
aI0
aI0
aI5
aV203148,1610612766
p268
aa(lp269
I201572
aVBrook Lopez
p270
aI1610612751
aVBKN
p271
aF27.0
aI72
aI34
aI38
aF0.472
aF29.2
aF7.0
aF13.7
aF0.513
aF0.0
aF0.1
aF0.1
aF3.1
aF3.8
aF0.814
aF3.0
aF4.5
aF7.4
aF0.7
aF1.4
aF0.6
aF1.8
aF0.7
aF2.9
aF3.3
aF17.2
aF-1.4
aI17
aI0
aI5
aV201572,1610612751
p272
aa(lp273
I203998
aVBruno Caboclo
p274
aI1610612761
aVTOR
p275
aF19.0
aI8
aI7
aI1
aF0.875
aF2.9
aF0.5
aF1.5
aF0.333
aF0.3
aF0.4
aF0.667
aF0.0
aF0.0
aF0.0
aF0.1
aF0.1
aF0.3
aF0.0
aF0.5
aF0.0
aF0.1
aF0.0
aF0.4
aF0.0
aF1.3
aF-3.4
aI0
aI0
aI5
aV203998,1610612761
p276
aa(lp277
I203955
aVBryce Cotton
p278
aI1610612762
aVUTA
p279
aF22.0
aI15
aI9
aI6
aF0.6
aF10.6
aF1.9
aF4.6
aF0.42
aF0.5
aF1.3
aF0.35
aF1.0
aF1.2
aF0.833
aF0.2
aF1.0
aF1.2
aF1.0
aF0.8
aF0.3
aF0.0
aF0.3
aF0.4
aF1.0
aF5.3
aF0.1
aI0
aI0
aI5
aV203955,1610612762
p280
aa(lp281
I203468
aVCJ McCollum
p282
aI1610612757
aVPOR
p283
aF23.0
aI62
aI37
aI25
aF0.597
aF15.7
aF2.6
aF5.9
aF0.436
aF0.9
aF2.2
aF0.396
aF0.8
aF1.2
aF0.699
aF0.2
aF1.2
aF1.5
aF1.0
aF0.8
aF0.7
aF0.1
aF0.4
aF1.3
aF1.0
aF6.8
aF1.9
aI0
aI0
aI5
aV203468,1610612757
p284
aa(lp285
I101139
aVCJ Miles
p286
aI1610612754
aVIND
p287
aF28.0
aI70
aI31
aI39
aF0.443
aF26.3
aF4.7
aF11.8
aF0.398
aF2.2
aF6.4
aF0.345
aF1.9
aF2.3
aF0.807
aF0.3
aF2.8
aF3.1
aF1.1
aF1.0
aF0.9
aF0.4
aF0.4
aF1.9
aF1.8
aF13.5
aF2.3
aI1
aI0
aI5
aV101139,1610612754
p288
aa(lp289
I201228
aVCJ Watson
p290
aI1610612754
aVIND
p291
aF31.0
aI57
aI25
aI32
aF0.439
aF24.9
aF3.2
aF7.3
aF0.434
aF1.2
aF3.1
aF0.4
aF2.4
aF2.9
aF0.826
aF0.3
aF2.5
aF2.9
aF3.6
aF1.8
aF1.0
aF0.2
aF0.3
aF1.9
aF2.8
aF10.0
aF0.1
aI0
aI0
aI5
aV201228,1610612754
p292
aa(lp293
I203912
aVCJ Wilcox
p294
aI1610612746
aVLAC
p295
aF24.0
aI21
aI15
aI6
aF0.714
aF4.8
aF0.8
aF1.8
aF0.421
aF0.3
aF0.9
aF0.368
aF0.1
aF0.1
aF1.0
aF0.0
aF0.3
aF0.3
aF0.4
aF0.5
aF0.1
aF0.0
aF0.0
aF0.3
aF0.1
aF2.0
aF-0.9
aI0
aI0
aI5
aV203912,1610612746
p296
aa(lp297
I203946
aVCameron Bairstow
p298
aI1610612741
aVCHI
p299
aF24.0
aI18
aI12
aI6
aF0.667
aF3.5
aF0.2
aF0.8
aF0.214
aF0.0
aF0.0
aF0.0
aF0.2
aF0.3
aF0.8
aF0.3
aF0.1
aF0.4
aF0.1
aF0.2
aF0.1
aF0.1
aF0.1
aF0.4
aF0.2
aF0.6
aF-1.1
aI0
aI0
aI5
aV203946,1610612741
p300
aa(lp301
I201171
aVCarl Landry
p302
aI1610612758
aVSAC
p303
aF31.0
aI70
aI26
aI44
aF0.371
aF17.0
aF2.7
aF5.3
aF0.515
aF0.0
aF0.0
aF0.0
aF1.8
aF2.1
aF0.82
aF1.4
aF2.4
aF3.8
aF0.4
aF0.8
aF0.2
aF0.2
aF0.6
aF1.9
aF1.6
aF7.2
aF-3.1
aI3
aI0
aI5
aV201171,1610612758
p304
aa(lp305
I2430
aVCarlos Boozer
p306
aI1610612747
aVLAL
p307
aF33.0
aI71
aI18
aI53
aF0.254
aF23.8
aF5.2
aF10.5
aF0.499
aF0.0
aF0.0
aF0.0
aF1.3
aF2.1
aF0.627
aF1.6
aF5.2
aF6.8
aF1.3
aF1.3
aF0.6
aF0.2
aF0.9
aF2.6
aF1.5
aF11.8
aF-4.5
aI10
aI0
aI5
aV2430,1610612747
p308
aa(lp309
I2546
aVCarmelo Anthony
p310
aI1610612752
aVNYK
p311
aF31.0
aI40
aI10
aI30
aF0.25
aF35.7
aF9.0
aF20.2
aF0.444
aF1.5
aF4.5
aF0.341
aF4.7
aF5.9
aF0.797
aF1.8
aF4.8
aF6.6
aF3.1
aF2.2
aF1.0
aF0.4
aF0.9
aF2.2
aF5.1
aF24.2
aF-2.7
aI5
aI0
aI5
aV2546,1610612752
p312
aa(lp313
I2406
aVCaron Butler
p314
aI1610612765
aVDET
p315
aF35.0
aI78
aI30
aI48
aF0.385
aF20.8
aF2.1
aF5.1
aF0.407
aF1.1
aF2.8
aF0.379
aF0.7
aF0.8
aF0.902
aF0.3
aF2.2
aF2.5
aF1.0
aF0.6
aF0.6
aF0.1
aF0.1
aF1.5
aF0.6
aF5.9
aF-0.3
aI0
aI0
aI5
aV2406,1610612765
p316
aa(lp317
I201858
aVCartier Martin
p318
aI1610612765
aVDET
p319
aF30.0
aI23
aI7
aI16
aF0.304
aF8.6
aF0.7
aF2.3
aF0.283
aF0.3
aF1.4
aF0.182
aF0.0
aF0.0
aF0.0
aF0.0
aF0.9
aF0.9
aF0.5
aF0.2
aF0.1
aF0.0
aF0.1
aF0.9
aF0.3
aF1.6
aF0.9
aI0
aI0
aI5
aV201858,1610612765
p320
aa(lp321
I202718
aVChandler Parsons
p322
aI1610612742
aVDAL
p323
aF26.0
aI66
aI41
aI25
aF0.621
aF33.1
aF5.8
aF12.6
aF0.462
aF2.0
aF5.3
aF0.38
aF2.1
aF2.9
aF0.72
aF1.0
aF3.9
aF4.9
aF2.4
aF1.5
aF1.0
aF0.3
aF0.6
aF2.1
aF2.8
aF15.7
aF3.1
aI3
aI0
aI5
aV202718,1610612742
p324
aa(lp325
I101112
aVChanning Frye
p326
aI1610612753
aVORL
p327
aF32.0
aI75
aI23
aI52
aF0.307
aF24.9
aF2.5
aF6.5
aF0.392
aF1.8
aF4.6
aF0.393
aF0.4
aF0.5
aF0.886
aF0.4
aF3.5
aF3.9
aF1.3
aF1.0
aF0.6
aF0.5
aF0.1
aF2.5
aF1.1
aF7.3
aF-3.3
aI2
aI0
aI5
aV101112,1610612753
p328
aa(lp329
I101236
aVCharles Hayes
p330
aI1610612761
aVTOR
p331
aF32.0
aI29
aI17
aI12
aF0.586
aF8.8
aF0.8
aF1.6
aF0.478
aF0.0
aF0.0
aF0.0
aF0.2
aF0.4
aF0.545
aF0.6
aF1.1
aF1.8
aF0.7
aF0.3
aF0.3
aF0.1
aF0.2
aF1.3
aF0.4
aF1.7
aF1.3
aI0
aI0
aI5
aV101236,1610612761
p332
aa(lp333
I101111
aVCharlie Villanueva
p334
aI1610612742
aVDAL
p335
aF30.0
aI64
aI37
aI27
aF0.578
aF10.6
aF2.3
aF5.7
aF0.414
aF1.3
aF3.5
aF0.376
aF0.3
aF0.5
aF0.571
aF0.5
aF1.9
aF2.3
aF0.3
aF0.4
aF0.2
aF0.3
aF0.2
aF1.0
aF0.4
aF6.3
aF-0.9
aI0
aI0
aI5
aV101111,1610612742
p336
aa(lp337
I201978
aVChase Budinger
p338
aI1610612750
aVMIN
p339
aF27.0
aI67
aI8
aI59
aF0.119
aF19.2
aF2.5
aF5.8
aF0.433
aF0.8
aF2.1
aF0.364
aF1.0
aF1.2
aF0.827
aF0.5
aF2.5
aF3.0
aF1.0
aF0.7
aF0.7
aF0.1
aF0.4
aF1.1
aF0.9
aF6.8
aF-3.9
aI0
aI0
aI5
aV201978,1610612750
p340
aa(lp341
I2365
aVChris Andersen
p342
aI1610612748
aVMIA
p343
aF36.0
aI60
aI27
aI33
aF0.45
aF18.9
aF2.0
aF3.5
aF0.58
aF0.1
aF0.2
aF0.308
aF1.3
aF1.9
aF0.667
aF1.3
aF3.7
aF5.0
aF0.7
aF0.7
aF0.4
aF1.0
aF0.4
aF1.5
aF1.8
aF5.3
aF-0.1
aI1
aI0
aI5
aV2365,1610612748
p344
aa(lp345
I2547
aVChris Bosh
p346
aI1610612748
aVMIA
p347
aF31.0
aI44
aI19
aI25
aF0.432
aF35.4
aF7.8
aF16.9
aF0.46
aF1.4
aF3.8
aF0.375
aF4.1
aF5.3
aF0.772
aF1.0
aF6.0
aF7.0
aF2.2
aF2.2
aF0.9
aF0.6
aF0.7
aF1.6
aF3.5
aF21.1
aF-2.3
aI7
aI0
aI5
aV2547,1610612748
p348
aa(lp349
I203142
aVChris Copeland
p350
aI1610612754
aVIND
p351
aF31.0
aI50
aI19
aI31
aF0.38
aF16.6
aF2.2
aF6.2
aF0.361
aF1.0
aF3.3
aF0.311
aF0.7
aF0.9
aF0.733
aF0.5
aF1.8
aF2.2
aF1.0
aF1.2
aF0.2
aF0.2
aF0.5
aF1.6
aF1.0
aF6.2
aF-0.6
aI1
aI0
aI5
aV203142,1610612754
p352
aa(lp353
I201604
aVChris Douglas-Roberts
p354
aI1610612746
aVLAC
p355
aF28.0
aI12
aI5
aI7
aF0.417
aF8.5
aF0.4
aF1.8
aF0.238
aF0.1
aF0.6
aF0.143
aF0.7
aF0.7
aF1.0
aF0.1
aF0.9
aF1.0
aF0.3
aF0.0
aF0.1
aF0.0
aF0.3
aF1.2
aF0.4
aF1.6
aF-1.3
aI0
aI0
aI5
aV201604,1610612746
p356
aa(lp357
I203187
aVChris Johnson
p358
aI1610612762
aVUTA
p359
aF25.0
aI29
aI9
aI20
aF0.31
aF18.2
aF2.1
aF5.3
aF0.403
aF1.0
aF3.3
aF0.295
aF0.5
aF0.6
aF0.875
aF0.3
aF1.6
aF1.9
aF0.5
aF0.5
aF0.9
aF0.2
aF0.3
aF1.5
aF0.7
aF5.7
aF-1.1
aI0
aI0
aI5
aV203187,1610612762
p360
aa(lp361
I2549
aVChris Kaman
p362
aI1610612757
aVPOR
p363
aF33.0
aI74
aI47
aI27
aF0.635
aF18.9
aF3.8
aF7.4
aF0.515
aF0.0
aF0.0
aF0.0
aF1.0
aF1.4
aF0.706
aF2.0
aF4.5
aF6.5
aF0.9
aF1.5
aF0.2
aF0.7
aF0.5
aF1.9
aF1.3
aF8.6
aF-0.1
aI4
aI0
aI5
aV2549,1610612757
p364
aa(lp365
I101108
aVChris Paul
p366
aI1610612746
aVLAC
p367
aF30.0
aI82
aI56
aI26
aF0.683
aF34.8
aF6.9
aF14.3
aF0.485
aF1.7
aF4.3
aF0.398
aF3.5
aF3.9
aF0.9
aF0.6
aF4.0
aF4.6
aF10.2
aF2.3
aF1.9
aF0.2
aF0.3
aF2.5
aF3.6
aF19.1
aF9.0
aI40
aI1
aI5
aV101108,1610612746
p368
aa(lp369
I203921
aVCleanthony Early
p370
aI1610612752
aVNYK
p371
aF24.0
aI39
aI6
aI33
aF0.154
aF16.6
aF1.9
aF5.5
aF0.355
aF0.6
aF2.2
aF0.262
aF0.9
aF1.2
aF0.75
aF0.6
aF1.9
aF2.5
aF0.9
aF1.0
aF0.6
aF0.3
aF0.4
aF1.5
aF1.1
aF5.4
aF-4.1
aI0
aI0
aI5
aV203921,1610612752
p372
aa(lp373
I203991
aVClint Capela
p374
aI1610612745
aVHOU
p375
aF21.0
aI12
aI8
aI4
aF0.667
aF7.5
aF1.2
aF2.4
aF0.483
aF0.0
aF0.0
aF0.0
aF0.3
aF1.9
aF0.174
aF0.8
aF2.2
aF3.0
aF0.2
aF0.4
aF0.1
aF0.8
aF0.3
aF1.2
aF1.1
aF2.7
aF0.7
aI0
aI0
aI5
aV203991,1610612745
p376
aa(lp377
I203469
aVCody Zeller
p378
aI1610612766
aVCHA
p379
aF22.0
aI62
aI27
aI35
aF0.435
aF24.0
aF2.8
aF6.0
aF0.461
aF0.0
aF0.0
aF1.0
aF2.0
aF2.6
aF0.774
aF1.6
aF4.3
aF5.8
aF1.6
aF1.0
aF0.5
aF0.8
aF0.7
aF2.5
aF2.4
aF7.6
aF0.3
aI2
aI0
aI5
aV203469,1610612766
p380
aa(lp381
I202332
aVCole Aldrich
p382
aI1610612752
aVNYK
p383
aF26.0
aI61
aI11
aI50
aF0.18
aF16.0
aF2.4
aF4.9
aF0.478
aF0.0
aF0.0
aF0.0
aF0.8
aF1.0
aF0.781
aF1.7
aF3.9
aF5.5
aF1.2
aF1.0
aF0.6
aF1.1
aF0.2
aF2.0
aF1.0
aF5.5
aF-4.5
aI6
aI0
aI5
aV202332,1610612752
p384
aa(lp385
I201147
aVCorey Brewer
p386
aI1610612745
aVHOU
p387
aF29.0
aI80
aI42
aI38
aF0.525
aF26.1
aF4.3
aF10.1
aF0.426
aF0.8
aF2.9
aF0.268
aF2.1
aF2.8
aF0.743
aF1.0
aF2.7
aF3.7
aF2.2
aF1.6
aF1.4
aF0.2
aF0.7
aF2.2
aF2.4
aF11.5
aF-0.4
aI3
aI0
aI5
aV201147,1610612745
p388
aa(lp389
I203928
aVCory Jefferson
p390
aI1610612751
aVBKN
p391
aF24.0
aI50
aI18
aI32
aF0.36
aF10.6
aF1.5
aF3.3
aF0.449
aF0.0
aF0.3
aF0.133
aF0.6
aF1.1
aF0.574
aF0.9
aF2.0
aF2.9
aF0.3
aF0.4
aF0.2
aF0.4
aF0.3
aF1.2
aF0.8
aF3.7
aF1.5
aI1
aI0
aI5
aV203928,1610612751
p392
aa(lp393
I202709
aVCory Joseph
p394
aI1610612759
aVSAS
p395
aF23.0
aI79
aI53
aI26
aF0.671
aF18.3
aF2.6
aF5.2
aF0.504
aF0.2
aF0.6
aF0.364
aF1.3
aF1.8
aF0.734
aF0.6
aF1.9
aF2.4
aF2.4
aF0.8
aF0.6
aF0.2
aF0.4
aF1.3
aF1.8
aF6.8
aF2.2
aI0
aI0
aI5
aV202709,1610612759
p396
aa(lp397
I201584
aVCourtney Lee
p398
aI1610612763
aVMEM
p399
aF29.0
aI77
aI51
aI26
aF0.662
aF30.6
aF3.7
aF8.4
aF0.448
aF1.2
aF2.9
aF0.402
aF1.4
aF1.7
aF0.86
aF0.3
aF2.0
aF2.3
aF2.0
aF1.0
aF1.0
aF0.2
aF0.2
aF1.7
aF0.9
aF10.1
aF1.6
aI0
aI0
aI5
aV201584,1610612763
p400
aa(lp401
I201571
aVD.J. Augustin
p402
aI1610612760
aVOKC
p403
aF27.0
aI82
aI37
aI45
aF0.451
aF23.9
aF3.1
aF7.9
aF0.399
aF1.0
aF3.0
aF0.337
aF2.2
aF2.5
aF0.868
aF0.2
aF1.7
aF2.0
aF4.3
aF1.8
aF0.6
aF0.0
aF0.6
aF1.1
aF2.5
aF9.5
aF-0.9
aI4
aI0
aI5
aV201571,1610612760
p404
aa(lp405
I2563
aVDahntay Jones
p406
aI1610612746
aVLAC
p407
aF34.0
aI33
aI23
aI10
aF0.697
aF3.7
aF0.2
aF0.6
aF0.286
aF0.0
aF0.1
aF0.0
aF0.3
aF0.3
aF0.818
aF0.0
aF0.3
aF0.3
aF0.1
aF0.0
aF0.1
aF0.0
aF0.0
aF0.7
aF0.3
aF0.6
aF-2.5
aI0
aI0
aI5
aV2563,1610612746
p408
aa(lp409
I203081
aVDamian Lillard
p410
aI1610612757
aVPOR
p411
aF24.0
aI82
aI51
aI31
aF0.622
aF35.7
aF7.2
aF16.6
aF0.434
aF2.4
aF7.0
aF0.343
aF4.2
aF4.9
aF0.864
aF0.6
aF4.0
aF4.6
aF6.2
aF2.7
aF1.2
aF0.3
aF0.8
aF2.0
aF4.4
aF21.0
aF3.7
aI6
aI0
aI5
aV203081,1610612757
p412
aa(lp413
I204014
aVDamjan Rudez
p414
aI1610612754
aVIND
p415
aF29.0
aI68
aI28
aI40
aF0.412
aF15.4
aF1.8
aF3.9
aF0.452
aF1.0
aF2.5
aF0.406
aF0.2
aF0.3
aF0.696
aF0.1
aF0.6
aF0.7
aF0.8
aF0.7
aF0.2
aF0.1
aF0.1
aF1.2
aF0.4
aF4.8
aF0.5
aI0
aI0
aI5
aV204014,1610612754
p416
aa(lp417
I201568
aVDanilo Gallinari
p418
aI1610612743
aVDEN
p419
aF26.0
aI59
aI23
aI36
aF0.39
aF24.2
aF3.9
aF9.6
aF0.401
aF1.8
aF5.1
aF0.355
aF2.9
aF3.2
aF0.895
aF0.5
aF3.2
aF3.7
aF1.4
aF1.0
aF0.8
aF0.3
aF0.6
aF1.6
aF3.1
aF12.4
aF0.3
aI0
aI0
aI5
aV201568,1610612743
p420
aa(lp421
I101122
aVDanny Granger
p422
aI1610612756
aVPHX
p423
aF32.0
aI30
aI11
aI19
aF0.367
aF20.4
aF2.2
aF5.4
aF0.401
aF1.0
aF2.8
aF0.357
aF0.9
aF1.2
aF0.757
aF0.7
aF2.0
aF2.7
aF0.6
aF0.8
aF0.4
aF0.2
aF0.3
aF2.2
aF1.0
aF6.3
aF-3.5
aI0
aI0
aI5
aV101122,1610612756
p424
aa(lp425
I201980
aVDanny Green
p426
aI1610612759
aVSAS
p427
aF28.0
aI81
aI55
aI26
aF0.679
aF28.5
aF4.0
aF9.1
aF0.436
aF2.4
aF5.6
aF0.418
aF1.4
aF1.6
aF0.874
aF0.7
aF3.6
aF4.2
aF2.0
aF1.1
aF1.2
aF1.1
aF0.2
aF2.0
aF1.2
aF11.7
aF5.3
aI2
aI0
aI5
aV201980,1610612759
p428
aa(lp429
I201967
aVDante Cunningham
p430
aI1610612740
aVNOP
p431
aF28.0
aI66
aI37
aI29
aF0.561
aF25.0
aF2.3
aF5.1
aF0.457
aF0.0
aF0.2
aF0.1
aF0.4
aF0.7
aF0.617
aF1.1
aF2.8
aF3.9
aF0.8
aF0.5
aF0.7
aF0.6
aF0.4
aF1.5
aF0.6
aF5.2
aF-0.5
aI1
aI0
aI5
aV201967,1610612740
p432
aa(lp433
I203957
aVDante Exum
p434
aI1610612762
aVUTA
p435
aF19.0
aI82
aI38
aI44
aF0.463
aF22.2
aF1.8
aF5.1
aF0.349
aF1.0
aF3.2
aF0.314
aF0.2
aF0.4
aF0.625
aF0.3
aF1.3
aF1.6
aF2.4
aF1.4
aF0.5
aF0.2
aF0.0
aF1.8
aF0.8
aF4.8
aF1.1
aI0
aI0
aI5
aV203957,1610612762
p436
aa(lp437
I203121
aVDarius Miller
p438
aI1610612740
aVNOP
p439
aF25.0
aI5
aI1
aI4
aF0.2
aF8.7
aF0.2
aF1.4
aF0.143
aF0.0
aF0.2
aF0.0
aF0.0
aF0.0
aF0.0
aF0.0
aF0.2
aF0.2
aF0.4
aF0.2
aF0.2
aF0.0
aF0.0
aF1.6
aF0.0
aF0.4
aF-2.4
aI0
aI0
aI5
aV203121,1610612740
p440
aa(lp441
I202721
aVDarius Morris
p442
aI1610612751
aVBKN
p443
aF24.0
aI38
aI14
aI24
aF0.368
aF7.9
aF0.9
aF2.8
aF0.34
aF0.2
aF0.9
aF0.212
aF0.1
aF0.2
aF0.444
aF0.2
aF0.5
aF0.7
aF1.3
aF0.6
aF0.2
aF0.0
aF0.1
aF0.5
aF0.4
aF2.2
aF-1.7
aI0
aI0
aI5
aV202721,1610612751
p444
aa(lp445
I201589
aVDarrell Arthur
p446
aI1610612743
aVDEN
p447
aF27.0
aI58
aI22
aI36
aF0.379
aF17.0
aF2.7
aF6.6
aF0.404
aF0.4
aF1.9
aF0.236
aF0.8
aF1.0
aF0.78
aF0.9
aF2.0
aF2.9
aF1.0
aF0.8
aF0.8
aF0.4
aF0.2
aF2.5
aF0.9
aF6.6
aF-0.2
aI2
aI0
aI5
aV201589,1610612743
p448
aa(lp449
I201954
aVDarren Collison
p450
aI1610612758
aVSAC
p451
aF27.0
aI45
aI16
aI29
aF0.356
aF34.8
aF5.8
aF12.2
aF0.473
aF1.3
aF3.6
aF0.373
aF3.2
aF4.1
aF0.788
aF0.4
aF2.8
aF3.2
aF5.6
aF2.5
aF1.5
aF0.3
aF0.6
aF2.1
aF3.2
aF16.1
aF0.8
aI3
aI0
aI5
aV201954,1610612758
p452
aa(lp453
I101135
aVDavid Lee
p454
aI1610612744
aVGSW
p455
aF32.0
aI49
aI37
aI12
aF0.755
aF18.5
aF3.3
aF6.4
aF0.511
aF0.0
aF0.0
aF0.0
aF1.4
aF2.1
aF0.654
aF1.7
aF3.6
aF5.2
aF1.7
aF1.0
aF0.6
aF0.5
aF0.4
aF1.7
aF1.4
aF7.9
aF0.5
aI1
aI0
aI5
aV101135,1610612744
p456
aa(lp457
I204065
aVDavid Stockton
p458
aI1610612758
aVSAC
p459
aF24.0
aI3
aI1
aI2
aF0.333
aF11.0
aF0.7
aF2.0
aF0.333
aF0.3
aF0.7
aF0.5
aF1.0
aF2.0
aF0.5
aF0.0
aF0.7
aF0.7
aF3.0
aF1.3
aF0.7
aF0.0
aF0.0
aF0.3
aF1.0
aF2.7
aF7.7
aI0
aI0
aI5
aV204065,1610612758
p460
aa(lp461
I204033
aVDavid Wear
p462
aI1610612758
aVSAC
p463
aF24.0
aI2
aI0
aI2
aF0.0
aF3.5
aF0.0
aF1.0
aF0.0
aF0.0
aF0.5
aF0.0
aF0.0
aF0.0
aF0.0
aF1.0
aF0.0
aF1.0
aF0.5
aF0.0
aF0.0
aF0.0
aF0.0
aF0.5
aF0.0
aF0.0
aF-4.5
aI0
aI0
aI5
aV204033,1610612758
p464
aa(lp465
I2561
aVDavid West
p466
aI1610612754
aVIND
p467
aF34.0
aI66
aI32
aI34
aF0.485
aF28.7
aF4.9
aF10.4
aF0.471
aF0.1
aF0.3
aF0.2
aF1.8
aF2.4
aF0.739
aF1.6
aF5.2
aF6.8
aF3.4
aF1.8
aF0.7
aF0.7
aF0.4
aF2.4
aF2.3
aF11.7
aF-0.3
aI7
aI0
aI5
aV2561,1610612754
p468
aa(lp469
I201599
aVDeAndre Jordan
p470
aI1610612746
aVLAC
p471
aF26.0
aI82
aI56
aI26
aF0.683
aF34.4
aF4.6
aF6.5
aF0.71
aF0.0
aF0.0
aF0.25
aF2.3
aF5.7
aF0.397
aF4.8
aF10.1
aF15.0
aF0.7
aF1.3
aF1.0
aF2.2
aF0.2
aF3.0
aF4.6
aF11.5
aF7.6
aI47
aI0
aI5
aV201599,1610612746
p472
aa(lp473
I201971
aVDeJuan Blair
p474
aI1610612764
aVWAS
p475
aF26.0
aI29
aI15
aI14
aF0.517
aF6.2
aF0.9
aF2.0
aF0.456
aF0.0
aF0.0
aF0.0
aF0.1
aF0.2
aF0.667
aF0.6
aF1.4
aF1.9
aF0.1
aF0.4
aF0.2
aF0.0
aF0.2
aF1.4
aF0.3
aF1.9
aF-2.1
aI0
aI0
aI5
aV201971,1610612764
p476
aa(lp477
I201942
aVDeMar DeRozan
p478
aI1610612761
aVTOR
p479
aF25.0
aI60
aI37
aI23
aF0.617
aF35.0
aF6.8
aF16.5
aF0.413
aF0.4
aF1.5
aF0.284
aF6.0
aF7.2
aF0.832
aF0.7
aF3.9
aF4.6
aF3.5
aF2.3
aF1.2
aF0.2
aF1.2
aF2.0
aF4.9
aF20.1
aF2.2
aI4
aI0
aI5
aV201942,1610612761
p480
aa(lp481
I202326
aVDeMarcus Cousins
p482
aI1610612758
aVSAC
p483
aF24.0
aI59
aI23
aI36
aF0.39
aF34.1
aF8.4
aF18.1
aF0.467
aF0.0
aF0.1
aF0.25
aF7.2
aF9.2
aF0.782
aF3.1
aF9.5
aF12.7
aF3.6
aF4.3
aF1.5
aF1.7
aF1.8
aF4.1
aF8.8
aF24.1
aF1.1
aI47
aI2
aI5
aV202326,1610612758
p484
aa(lp485
I201960
aVDeMarre Carroll
p486
aI1610612737
aVATL
p487
aF28.0
aI70
aI53
aI17
aF0.757
aF31.3
aF4.5
aF9.3
aF0.487
aF1.7
aF4.3
aF0.395
aF1.8
aF2.6
aF0.702
aF1.4
aF3.9
aF5.3
aF1.7
aF1.1
aF1.3
aF0.2
aF0.6
aF2.2
aF2.2
aF12.6
aF3.0
aI3
aI0
aI5
aV201960,1610612737
p488
aa(lp489
I203471
aVDennis Schroder
p490
aI1610612737
aVATL
p491
aF21.0
aI77
aI57
aI20
aF0.74
aF19.7
aF3.7
aF8.6
aF0.427
aF0.7
aF1.9
aF0.351
aF1.9
aF2.3
aF0.827
aF0.4
aF1.8
aF2.1
aF4.1
aF1.9
aF0.6
aF0.1
aF1.0
aF1.6
aF2.2
aF10.0
aF0.1
aI5
aI0
aI5
aV203471,1610612737
p492
aa(lp493
I101114
aVDeron Williams
p494
aI1610612751
aVBKN
p495
aF31.0
aI68
aI34
aI34
aF0.5
aF31.1
aF4.4
aF11.3
aF0.387
aF1.3
aF3.5
aF0.367
aF3.0
aF3.5
aF0.834
aF0.4
aF3.1
aF3.5
aF6.6
aF2.3
aF0.9
aF0.3
aF0.5
aF2.3
aF3.1
aF13.0
aF-0.2
aI11
aI0
aI5
aV101114,1610612751
p496
aa(lp497
I202324
aVDerrick Favors
p498
aI1610612762
aVUTA
p499
aF23.0
aI74
aI33
aI41
aF0.446
aF30.8
aF6.5
aF12.4
aF0.525
aF0.0
aF0.1
aF0.167
aF3.0
aF4.5
aF0.669
aF2.6
aF5.6
aF8.2
aF1.5
aF1.6
aF0.8
aF1.7
aF0.9
aF2.8
aF3.3
aF16.0
aF0.8
aI23
aI0
aI5
aV202324,1610612762
p500
aa(lp501
I201565
aVDerrick Rose
p502
aI1610612741
aVCHI
p503
aF26.0
aI51
aI33
aI18
aF0.647
aF30.0
aF6.6
aF16.4
aF0.405
aF1.5
aF5.3
aF0.28
aF3.0
aF3.7
aF0.813
aF0.7
aF2.5
aF3.2
aF4.9
aF3.2
aF0.7
aF0.3
aF1.0
aF1.2
aF2.8
aF17.7
aF2.4
aI4
aI0
aI5
aV201565,1610612741
p504
aa(lp505
I202682
aVDerrick Williams
p506
aI1610612758
aVSAC
p507
aF24.0
aI74
aI27
aI47
aF0.365
aF19.8
aF2.9
aF6.6
aF0.447
aF0.7
aF2.1
aF0.314
aF1.8
aF2.6
aF0.684
aF0.6
aF2.2
aF2.7
aF0.7
aF0.8
aF0.5
aF0.1
aF0.5
aF0.9
aF1.6
aF8.3
aF-3.6
aI1
aI0
aI5
aV202682,1610612758
p508
aa(lp509
I2734
aVDevin Harris
p510
aI1610612742
aVDAL
p511
aF32.0
aI76
aI45
aI31
aF0.592
aF22.2
aF2.9
aF6.9
aF0.418
aF1.3
aF3.5
aF0.357
aF1.7
aF2.1
aF0.815
aF0.2
aF1.6
aF1.8
aF3.1
aF1.1
aF1.0
aF0.2
aF0.3
aF1.9
aF2.5
aF8.8
aF1.3
aI0
aI0
aI5
aV2734,1610612742
p512
aa(lp513
I203906
aVDevyn Marble
p514
aI1610612753
aVORL
p515
aF22.0
aI16
aI3
aI13
aF0.188
aF13.0
aF0.9
aF2.8
aF0.318
aF0.3
aF1.4
aF0.182
aF0.3
aF1.0
aF0.313
aF0.3
aF1.6
aF1.9
aF1.1
aF0.6
aF0.6
aF0.1
aF0.2
aF0.9
aF0.6
aF2.3
aF-1.0
aI0
aI0
aI5
aV203906,1610612753
p516
aa(lp517
I203473
aVDewayne Dedmon
p518
aI1610612753
aVORL
p519
aF25.0
aI59
aI17
aI42
aF0.288
aF14.3
aF1.5
aF2.7
aF0.562
aF0.0
aF0.0
aF0.0
aF0.6
aF1.1
aF0.531
aF2.0
aF3.0
aF5.0
aF0.2
aF0.9
aF0.3
aF0.8
aF0.3
aF2.4
aF0.9
aF3.7
aF-0.4
aI2
aI0
aI5
aV203473,1610612753
p520
aa(lp521
I203079
aVDion Waiters
p522
aI1610612760
aVOKC
p523
aF23.0
aI80
aI46
aI34
aF0.575
aF27.6
aF4.7
aF11.8
aF0.396
aF0.9
aF3.1
aF0.297
aF1.5
aF2.2
aF0.68
aF0.5
aF1.9
aF2.4
aF2.0
aF1.4
aF1.1
aF0.3
aF0.7
aF1.9
aF1.8
aF11.8
aF0.7
aI1
aI0
aI5
aV203079,1610612760
p524
aa(lp525
I1717
aVDirk Nowitzki
p526
aI1610612742
aVDAL
p527
aF37.0
aI77
aI47
aI30
aF0.61
aF29.6
aF6.3
aF13.8
aF0.459
aF1.4
aF3.6
aF0.38
aF3.3
aF3.8
aF0.882
aF0.6
aF5.4
aF5.9
aF1.9
aF1.1
aF0.5
aF0.4
aF0.3
aF2.1
aF3.9
aF17.3
aF3.1
aI6
aI0
aI5
aV1717,1610612742
p528
aa(lp529
I202388
aVDonald Sloan
p530
aI1610612754
aVIND
p531
aF27.0
aI53
aI22
aI31
aF0.415
aF20.9
aF2.7
aF6.7
aF0.408
aF0.8
aF2.5
aF0.313
aF1.1
aF1.5
aF0.779
aF0.2
aF2.5
aF2.7
aF3.6
aF1.2
aF0.4
aF0.0
aF0.6
aF0.9
aF1.2
aF7.4
aF-1.6
aI1
aI0
aI5
aV202388,1610612754
p532
aa(lp533
I202700
aVDonatas Motiejunas
p534
aI1610612745
aVHOU
p535
aF24.0
aI71
aI48
aI23
aF0.676
aF28.7
aF5.0
aF9.9
aF0.504
aF0.7
aF1.9
aF0.368
aF1.4
aF2.3
aF0.602
aF1.9
aF4.0
aF5.9
aF1.8
aF1.7
aF0.8
aF0.5
aF0.6
aF2.9
aF3.2
aF12.0
aF1.4
aI7
aI0
aI5
aV202700,1610612745
p536
aa(lp537
I2748
aVDorell Wright
p538
aI1610612757
aVPOR
p539
aF29.0
aI48
aI28
aI20
aF0.583
aF12.3
aF1.5
aF4.0
aF0.379
aF0.9
aF2.3
aF0.38
aF0.7
aF0.9
aF0.81
aF0.3
aF2.0
aF2.3
aF0.9
aF0.4
aF0.4
aF0.2
aF0.1
aF1.1
aF0.8
aF4.6
aF1.6
aI0
aI0
aI5
aV2748,1610612757
p540
aa(lp541
I203926
aVDoug McDermott
p542
aI1610612741
aVCHI
p543
aF23.0
aI36
aI23
aI13
aF0.639
aF8.9
aF1.2
aF3.0
aF0.402
aF0.4
aF1.1
aF0.317
aF0.3
aF0.4
aF0.667
aF0.2
aF1.0
aF1.2
aF0.2
aF0.5
aF0.1
aF0.0
aF0.2
aF0.8
aF0.5
aF3.0
aF-2.3
aI0
aI0
aI5
aV203926,1610612741
p544
aa(lp545
I203110
aVDraymond Green
p546
aI1610612744
aVGSW
p547
aF25.0
aI79
aI64
aI15
aF0.81
aF31.5
aF4.3
aF9.7
aF0.443
aF1.4
aF4.2
aF0.337
aF1.7
aF2.5
aF0.66
aF1.4
aF6.7
aF8.2
aF3.7
aF1.7
aF1.6
aF1.3
aF0.4
aF3.2
aF2.6
aF11.7
aF10.6
aI18
aI1
aI5
aV203110,1610612744
p548
aa(lp549
I2400
aVDrew Gooden
p550
aI1610612764
aVWAS
p551
aF33.0
aI51
aI31
aI20
aF0.608
aF16.9
aF2.2
aF5.4
aF0.399
aF0.5
aF1.2
aF0.39
aF0.7
aF0.9
aF0.773
aF1.4
aF3.0
aF4.4
aF1.0
aF0.5
aF0.4
aF0.2
aF0.3
aF1.8
aF1.1
aF5.4
aF0.0
aI2
aI0
aI5
aV2400,1610612764
p552
aa(lp553
I204079
aVDrew Gordon
p554
aI1610612755
aVPHI
p555
aF24.0
aI9
aI0
aI9
aF0.0
aF7.9
aF0.9
aF2.1
aF0.421
aF0.0
aF0.3
aF0.0
aF0.1
aF0.2
aF0.5
aF0.8
aF1.2
aF2.0
aF0.2
aF0.9
aF0.1
aF0.0
aF0.1
aF0.8
aF0.8
aF1.9
aF-3.8
aI0
aI0
aI5
aV204079,1610612755
p556
aa(lp557
I202779
aVDwight Buycks
p558
aI1610612747
aVLAL
p559
aF26.0
aI6
aI1
aI5
aF0.167
aF20.5
aF3.0
aF6.7
aF0.45
aF1.2
aF1.8
aF0.636
aF1.5
aF1.7
aF0.9
aF0.3
aF1.7
aF2.0
aF2.3
aF2.0
aF0.5
aF0.0
aF0.8
aF0.5
aF1.7
aF8.7
aF-4.0
aI0
aI0
aI5
aV202779,1610612747
p560
aa(lp561
I2730
aVDwight Howard
p562
aI1610612745
aVHOU
p563
aF29.0
aI41
aI29
aI12
aF0.707
aF29.8
aF6.1
aF10.3
aF0.593
aF0.0
aF0.0
aF0.5
aF3.5
aF6.6
aF0.528
aF2.7
aF7.8
aF10.5
aF1.2
aF2.8
aF0.7
aF1.3
aF0.9
aF3.3
aF5.6
aF15.8
aF5.2
aI23
aI0
aI5
aV2730,1610612745
p564
aa(lp565
I203939
aVDwight Powell
p566
aI1610612742
aVDAL
p567
aF23.0
aI29
aI11
aI18
aF0.379
aF8.2
aF1.1
aF2.3
aF0.463
aF0.1
aF0.4
aF0.273
aF0.9
aF1.1
aF0.758
aF0.6
aF1.1
aF1.7
aF0.3
aF0.4
aF0.3
aF0.2
aF0.2
aF1.4
aF1.0
aF3.1
aF0.0
aI0
aI0
aI5
aV203939,1610612742
p568
aa(lp569
I2548
aVDwyane Wade
p570
aI1610612748
aVMIA
p571
aF33.0
aI62
aI28
aI34
aF0.452
aF31.8
aF8.2
aF17.5
aF0.47
aF0.5
aF1.6
aF0.284
aF4.6
aF6.0
aF0.768
aF0.9
aF2.6
aF3.5
aF4.8
aF3.4
aF1.2
aF0.3
aF0.7
aF1.7
aF4.1
aF21.5
aF-0.9
aI3
aI0
aI5
aV2548,1610612748
p572
aa(lp573
I202734
aVE'Twaun Moore
p574
aI1610612741
aVCHI
p575
aF26.0
aI56
aI36
aI20
aF0.643
aF9.0
aF1.1
aF2.5
aF0.446
aF0.2
aF0.7
aF0.342
aF0.2
aF0.4
aF0.6
aF0.2
aF0.6
aF0.8
aF0.6
aF0.3
aF0.4
aF0.1
aF0.2
aF0.8
aF0.4
aF2.7
aF-0.5
aI0
aI0
aI5
aV202734,1610612741
p576
aa(lp577
I2853
aVEarl Barron
p578
aI1610612756
aVPHX
p579
aF33.0
aI16
aI5
aI11
aF0.313
aF8.9
aF0.8
aF2.4
aF0.308
aF0.1
aF0.3
aF0.5
aF0.4
aF0.8
aF0.5
aF0.9
aF0.9
aF1.8
aF0.3
aF0.3
aF0.3
aF0.1
aF0.1
aF1.6
aF0.7
aF2.0
aF-3.6
aI0
aI0
aI5
aV2853,1610612756
p580
aa(lp581
I201947
aVEarl Clark
p582
aI1610612751
aVBKN
p583
aF27.0
aI10
aI6
aI4
aF0.6
aF9.3
aF1.1
aF3.0
aF0.367
aF0.4
aF1.4
aF0.286
aF0.1
aF0.4
aF0.25
aF0.1
aF2.2
aF2.3
aF0.3
aF0.6
aF0.3
aF0.4
aF0.0
aF1.2
aF0.4
aF2.7
aF-2.8
aI0
aI0
aI5
aV201947,1610612751
p584
aa(lp585
I202334
aVEd Davis
p586
aI1610612747
aVLAL
p587
aF26.0
aI79
aI20
aI59
aF0.253
aF23.3
aF3.6
aF5.9
aF0.601
aF0.0
aF0.0
aF0.0
aF1.2
aF2.4
aF0.487
aF2.9
aF4.7
aF7.6
aF1.2
aF0.7
aF0.6
aF1.2
aF0.6
aF2.6
aF1.8
aF8.3
aF-3.4
aI6
aI0
aI5
aV202334,1610612747
p588
aa(lp589
I202327
aVEkpe Udoh
p590
aI1610612746
aVLAC
p591
aF28.0
aI33
aI24
aI9
aF0.727
aF3.9
aF0.3
aF0.7
aF0.458
aF0.0
aF0.0
aF0.0
aF0.2
aF0.3
aF0.778
aF0.2
aF0.6
aF0.8
aF0.2
aF0.2
aF0.2
aF0.2
aF0.1
aF0.6
aF0.2
aF0.9
aF-0.3
aI0
aI0
aI5
aV202327,1610612746
p592
aa(lp593
I203901
aVElfrid Payton
p594
aI1610612753
aVORL
p595
aF21.0
aI82
aI25
aI57
aF0.305
aF30.4
aF3.7
aF8.6
aF0.425
aF0.1
aF0.5
aF0.262
aF1.4
aF2.6
aF0.551
aF1.3
aF3.0
aF4.3
aF6.5
aF2.5
aF1.7
aF0.2
aF1.2
aF2.4
aF2.6
aF8.9
aF-2.5
aI12
aI2
aI5
aV203901,1610612753
p596
aa(lp597
I202407
aVElijah Millsap
p598
aI1610612762
aVUTA
p599
aF27.0
aI47
aI25
aI22
aF0.532
aF19.7
aF1.7
aF5.1
aF0.34
aF0.6
aF1.9
aF0.311
aF1.2
aF1.8
aF0.674
aF0.6
aF2.6
aF3.2
aF1.2
aF1.4
aF1.2
aF0.3
aF0.6
aF2.6
aF1.5
aF5.3
aF1.1
aI0
aI0
aI5
aV202407,1610612762
p600
aa(lp601
I202343
aVElliot Williams
p602
aI1610612755
aVPHI
p603
aF26.0
aI13
aI6
aI7
aF0.462
aF9.1
aF1.1
aF2.8
aF0.378
aF0.6
aF1.4
aF0.444
aF0.1
aF0.3
aF0.25
aF0.0
aF0.6
aF0.6
aF0.9
aF0.3
aF0.3
aF0.0
aF0.2
aF0.9
aF0.4
aF2.8
aF0.6
aI0
aI0
aI5
aV202343,1610612755
p604
aa(lp605
I1882
aVElton Brand
p606
aI1610612737
aVATL
p607
aF36.0
aI36
aI25
aI11
aF0.694
aF13.5
aF1.2
aF2.6
aF0.442
aF0.0
aF0.0
aF0.0
aF0.3
aF0.6
aF0.522
aF0.8
aF2.0
aF2.8
aF0.6
aF0.5
aF0.5
aF0.7
aF0.1
aF1.5
aF1.0
aF2.7
aF0.1
aI0
aI0
aI5
aV1882,1610612737
p608
aa(lp609
I202683
aVEnes Kanter
p610
aI1610612760
aVOKC
p611
aF23.0
aI75
aI32
aI43
aF0.427
aF28.5
aF6.4
aF12.4
aF0.519
aF0.2
aF0.6
aF0.356
aF2.4
aF3.1
aF0.782
aF3.7
aF5.3
aF8.9
aF0.7
aF1.9
aF0.5
aF0.4
aF1.0
aF2.5
aF2.6
aF15.5
aF-0.4
aI31
aI0
aI5
aV202683,1610612760
p612
aa(lp613
I202339
aVEric Bledsoe
p614
aI1610612756
aVPHX
p615
aF25.0
aI81
aI39
aI42
aF0.481
aF34.6
aF5.8
aF12.9
aF0.447
aF1.1
aF3.4
aF0.324
aF4.4
aF5.4
aF0.8
aF0.9
aF4.3
aF5.2
aF6.1
aF3.4
aF1.6
aF0.6
aF0.6
aF2.3
aF4.7
aF17.0
aF0.5
aI13
aI2
aI5
aV202339,1610612756
p616
aa(lp617
I201569
aVEric Gordon
p618
aI1610612740
aVNOP
p619
aF26.0
aI61
aI35
aI26
aF0.574
aF33.1
aF4.7
aF11.4
aF0.411
aF2.3
aF5.2
aF0.448
aF1.8
aF2.2
aF0.805
aF0.5
aF2.1
aF2.6
aF3.8
aF2.0
aF0.8
aF0.2
aF0.7
aF2.4
aF2.0
aF13.4
aF1.1
aI1
aI0
aI5
aV201569,1610612740
p620
aa(lp621
I203961
aVEric Moreland
p622
aI1610612758
aVSAC
p623
aF23.0
aI3
aI0
aI3
aF0.0
aF0.7
aF0.3
aF0.3
aF1.0
aF0.0
aF0.0
aF0.0
aF0.0
aF0.0
aF0.0
aF0.0
aF0.3
aF0.3
aF0.0
aF0.0
aF0.0
aF0.0
aF0.0
aF0.3
aF0.0
aF0.7
aF0.3
aI0
aI0
aI5
aV203961,1610612758
p624
aa(lp625
I203475
aVErick Green
p626
aI1610612743
aVDEN
p627
aF24.0
aI43
aI15
aI28
aF0.349
aF9.5
aF1.4
aF3.8
aF0.377
aF0.3
aF1.1
aF0.298
aF0.2
aF0.3
aF0.833
aF0.2
aF0.6
aF0.7
aF0.9
aF0.3
aF0.3
aF0.0
aF0.1
aF0.6
aF0.3
aF3.4
aF-1.9
aI0
aI0
aI5
aV203475,1610612743
p628
aa(lp629
I101141
aVErsan Ilyasova
p630
aI1610612749
aVMIL
p631
aF28.0
aI58
aI26
aI32
aF0.448
aF22.7
aF4.5
aF9.6
aF0.472
aF1.3
aF3.3
aF0.389
aF1.2
aF1.8
aF0.645
aF1.4
aF3.4
aF4.8
aF1.0
aF0.8
aF0.6
aF0.3
aF0.5
aF2.6
aF2.7
aF11.5
aF0.4
aI6
aI0
aI5
aV101141,1610612749
p632
aa(lp633
I203095
aVEvan Fournier
p634
aI1610612753
aVORL
p635
aF22.0
aI58
aI19
aI39
aF0.328
aF28.6
aF4.4
aF9.9
aF0.44
aF1.5
aF3.9
aF0.378
aF1.8
aF2.5
aF0.728
aF0.5
aF2.2
aF2.6
aF2.1
aF1.4
aF0.7
aF0.0
aF0.6
aF2.0
aF2.2
aF12.0
aF-2.5
aI0
aI0
aI5
aV203095,1610612753
p636
aa(lp637
I202323
aVEvan Turner
p638
aI1610612738
aVBOS
p639
aF26.0
aI82
aI40
aI42
aF0.488
aF27.6
aF3.9
aF9.1
aF0.429
aF0.4
aF1.5
aF0.277
aF1.3
aF1.7
aF0.752
aF0.5
aF4.6
aF5.1
aF5.5
aF2.4
aF1.0
aF0.2
aF0.5
aF2.2
aF1.6
aF9.5
aF-1.2
aI7
aI3
aI5
aV202323,1610612738
p640
aa(lp641
I203105
aVFestus Ezeli
p642
aI1610612744
aVGSW
p643
aF25.0
aI46
aI39
aI7
aF0.848
aF10.9
aF1.7
aF3.0
aF0.547
aF0.0
aF0.0
aF0.0
aF1.1
aF1.7
aF0.628
aF1.3
aF2.1
aF3.4
aF0.2
aF0.7
aF0.2
aF0.9
aF0.4
aF1.7
aF1.3
aF4.4
aF0.3
aI0
aI0
aI5
aV203105,1610612744
p644
aa(lp645
I101128
aVFrancisco Garcia
p646
aI1610612745
aVHOU
p647
aF33.0
aI14
aI10
aI4
aF0.714
aF14.3
aF1.2
aF4.5
aF0.27
aF0.7
aF3.2
aF0.222
aF0.1
aF0.3
aF0.25
aF0.2
aF1.0
aF1.2
aF1.1
aF0.7
aF0.6
aF0.4
aF0.1
aF1.4
aF0.7
aF3.2
aF-0.7
aI0
aI0
aI5
aV101128,1610612745
p648
aa(lp649
I203128
aVFurkan Aldemir
p650
aI1610612755
aVPHI
p651
aF23.0
aI41
aI9
aI32
aF0.22
aF13.2
aF1.0
aF1.9
aF0.513
aF0.0
aF0.1
aF0.0
aF0.3
aF0.7
aF0.481
aF1.9
aF2.4
aF4.3
aF0.7
aF0.4
aF0.4
aF0.4
aF0.2
aF2.3
aF0.9
aF2.3
aF-2.5
aI1
aI0
aI5
aV203128,1610612755
p652
aa(lp653
I203539
aVGal Mekel
p654
aI1610612742
aVDAL
p655
aF27.0
aI4
aI2
aI2
aF0.5
aF10.9
aF0.8
aF5.0
aF0.15
aF0.0
aF0.8
aF0.0
aF0.0
aF0.0
aF0.0
aF0.0
aF0.3
aF0.3
aF3.3
aF0.5
aF0.5
aF0.0
aF0.8
aF0.3
aF0.3
aF1.5
aF0.5
aI0
aI0
aI5
aV203539,1610612742
p656
aa(lp657
I202066
aVGarrett Temple
p658
aI1610612764
aVWAS
p659
aF29.0
aI52
aI28
aI24
aF0.538
aF14.1
aF1.3
aF3.3
aF0.4
aF0.6
aF1.7
aF0.375
aF0.7
aF0.9
aF0.729
aF0.5
aF1.3
aF1.7
aF1.1
aF0.7
aF0.8
aF0.2
aF0.2
aF1.5
aF1.0
aF3.9
aF-0.9
aI0
aI0
aI5
aV202066,1610612764
p660
aa(lp661
I203914
aVGary Harris
p662
aI1610612743
aVDEN
p663
aF20.0
aI55
aI18
aI37
aF0.327
aF13.1
aF1.2
aF3.9
aF0.304
aF0.4
aF1.9
aF0.204
aF0.6
aF0.9
aF0.745
aF0.4
aF0.8
aF1.2
aF0.5
aF0.7
aF0.7
aF0.1
aF0.3
aF1.3
aF0.7
aF3.4
aF-3.2
aI0
aI0
aI5
aV203914,1610612743
p664
aa(lp665
I202390
aVGary Neal
p666
aI1610612750
aVMIN
p667
aF30.0
aI54
aI24
aI30
aF0.444
aF22.1
aF3.5
aF9.3
aF0.374
aF0.9
aF3.0
aF0.305
aF2.2
aF2.5
aF0.867
aF0.3
aF2.1
aF2.4
aF1.9
aF1.2
aF0.4
aF0.0
aF0.5
aF1.6
aF1.9
aF10.1
aF-1.9
aI0
aI0
aI5
aV202390,1610612750
p668
aa(lp669
I201588
aVGeorge Hill
p670
aI1610612754
aVIND
p671
aF29.0
aI43
aI26
aI17
aF0.605
aF29.5
aF5.9
aF12.4
aF0.477
aF1.6
aF4.5
aF0.358
aF2.6
aF3.3
aF0.79
aF0.6
aF3.6
aF4.2
aF5.1
aF1.6
aF1.0
aF0.3
aF0.6
aF2.6
aF3.4
aF16.1
aF3.7
aI2
aI1
aI5
aV201588,1610612754
p672
aa(lp673
I101123
aVGerald Green
p674
aI1610612756
aVPHX
p675
aF29.0
aI74
aI34
aI40
aF0.459
aF19.5
aF4.4
aF10.5
aF0.416
aF1.9
aF5.2
aF0.354
aF1.3
aF1.6
aF0.825
aF0.4
aF2.1
aF2.5
aF1.2
aF1.4
aF0.6
aF0.2
aF0.2
aF2.0
aF1.5
aF11.9
aF-0.1
aI0
aI0
aI5
aV101123,1610612756
p676
aa(lp677
I201945
aVGerald Henderson
p678
aI1610612766
aVCHA
p679
aF27.0
aI80
aI32
aI48
aF0.4
aF28.9
aF4.6
aF10.6
aF0.437
aF0.6
aF1.7
aF0.331
aF2.3
aF2.7
aF0.848
aF0.5
aF3.0
aF3.4
aF2.6
aF1.4
aF0.6
aF0.3
aF0.4
aF1.7
aF2.8
aF12.1
aF-0.4
aI2
aI0
aI5
aV201945,1610612766
p680
aa(lp681
I2222
aVGerald Wallace
p682
aI1610612738
aVBOS
p683
aF32.0
aI32
aI15
aI17
aF0.469
aF8.9
aF0.4
aF1.1
aF0.412
aF0.0
aF0.1
aF0.333
aF0.2
aF0.5
aF0.4
aF0.5
aF1.3
aF1.8
aF0.3
aF0.6
aF0.5
aF0.1
aF0.2
aF0.6
aF0.7
aF1.1
aF0.9
aI0
aI0
aI5
aV2222,1610612738
p684
aa(lp685
I203507
aVGiannis Antetokounmpo
p686
aI1610612749
aVMIL
p687
aF20.0
aI81
aI41
aI40
aF0.506
aF31.4
aF4.7
aF9.6
aF0.491
aF0.1
aF0.5
aF0.159
aF3.2
aF4.3
aF0.741
aF1.2
aF5.5
aF6.7
aF2.6
aF2.1
aF0.9
aF1.0
aF0.8
aF3.1
aF3.5
aF12.7
aF0.1
aI10
aI0
aI5
aV203507,1610612749
p688
aa(lp689
I203540
aVGigi Datome
p690
aI1610612738
aVBOS
p691
aF27.0
aI21
aI11
aI10
aF0.524
aF10.0
aF2.0
aF4.2
aF0.483
aF0.9
aF1.9
aF0.45
aF0.0
aF0.0
aF1.0
aF0.1
aF1.2
aF1.4
aF0.4
aF0.4
aF0.1
aF0.3
aF0.0
aF0.7
aF0.4
aF5.0
aF3.2
aI0
aI0
aI5
aV203540,1610612738
p692
aa(lp693
I201175
aVGlen Davis
p694
aI1610612746
aVLAC
p695
aF29.0
aI74
aI52
aI22
aF0.703
aF12.2
aF1.6
aF3.4
aF0.459
aF0.0
aF0.1
aF0.0
aF0.8
aF1.3
aF0.632
aF0.6
aF1.7
aF2.3
aF0.5
aF0.5
aF0.6
aF0.3
aF0.4
aF1.8
aF1.1
aF4.0
aF-1.1
aI0
aI0
aI5
aV201175,1610612746
p696
aa(lp697
I203318
aVGlen Rice Jr.
p698
aI1610612764
aVWAS
p699
aF24.0
aI5
aI4
aI1
aF0.8
aF8.5
aF0.6
aF3.0
aF0.2
aF0.2
aF1.4
aF0.143
aF0.8
aF1.2
aF0.667
aF0.4
aF0.4
aF0.8
aF0.4
aF0.4
aF0.0
aF0.0
aF0.2
aF2.2
aF1.4
aF2.2
aF-4.6
aI0
aI0
aI5
aV203318,1610612764
p700
aa(lp701
I203922
aVGlenn Robinson
p702
aI1610612755
aVPHI
p703
aF21.0
aI35
aI2
aI33
aF0.057
aF7.5
aF0.7
aF1.9
aF0.388
aF0.1
aF0.5
aF0.263
aF0.5
aF0.7
aF0.667
aF0.4
aF0.7
aF1.1
aF0.3
aF0.3
aF0.2
aF0.0
aF0.1
aF0.4
aF0.5
aF2.1
aF0.8
aI0
aI0
aI5
aV203922,1610612755
p704
aa(lp705
I201609
aVGoran Dragic
p706
aI1610612748
aVMIA
p707
aF29.0
aI78
aI41
aI37
aF0.526
aF33.8
aF6.4
aF12.8
aF0.501
aF1.2
aF3.3
aF0.347
aF2.3
aF3.0
aF0.774
aF1.0
aF2.5
aF3.5
aF4.5
aF2.2
aF1.0
aF0.2
aF0.6
aF2.5
aF2.9
aF16.3
aF0.2
aI4
aI0
aI5
aV201609,1610612748
p708
aa(lp709
I202330
aVGordon Hayward
p710
aI1610612762
aVUTA
p711
aF25.0
aI76
aI35
aI41
aF0.461
aF34.4
aF6.4
aF14.3
aF0.445
aF1.6
aF4.3
aF0.364
aF4.9
aF6.1
aF0.812
aF0.7
aF4.2
aF4.9
aF4.1
aF2.7
aF1.4
aF0.4
aF0.8
aF1.7
aF4.9
aF19.3
aF1.4
aI2
aI0
aI5
aV202330,1610612762
p712
aa(lp713
I203476
aVGorgui Dieng
p714
aI1610612750
aVMIN
p715
aF25.0
aI73
aI16
aI57
aF0.219
aF30.0
aF3.5
aF7.0
aF0.506
aF0.0
aF0.1
aF0.167
aF2.6
aF3.3
aF0.783
aF3.1
aF5.3
aF8.3
aF2.0
aF1.7
aF1.0
aF1.7
aF0.8
aF2.6
aF2.7
aF9.7
aF-5.3
aI18
aI0
aI5
aV203476,1610612750
p716
aa(lp717
I203511
aVGrant Jerrett
p718
aI1610612762
aVUTA
p719
aF21.0
aI8
aI6
aI2
aF0.75
aF6.4
aF0.9
aF3.3
aF0.269
aF0.1
aF1.9
aF0.067
aF0.1
aF0.1
aF1.0
aF0.3
aF0.9
aF1.1
aF0.4
aF0.4
aF0.3
aF0.3
aF0.0
aF1.4
aF0.1
aF2.0
aF-2.5
aI0
aI0
aI5
aV203511,1610612762
p720
aa(lp721
I202328
aVGreg Monroe
p722
aI1610612765
aVDET
p723
aF25.0
aI69
aI25
aI44
aF0.362
aF31.0
aF6.1
aF12.4
aF0.496
aF0.0
aF0.0
aF0.0
aF3.7
aF4.9
aF0.75
aF3.3
aF6.9
aF10.2
aF2.1
aF2.2
aF1.1
aF0.5
aF1.2
aF2.1
aF4.0
aF15.9
aF-0.4
aI35
aI0
aI5
aV202328,1610612765
p724
aa(lp725
I202962
aVGreg Smith
p726
aI1610612742
aVDAL
p727
aF24.0
aI42
aI27
aI15
aF0.643
aF8.6
aF0.7
aF1.2
aF0.612
aF0.0
aF0.0
aF0.0
aF0.5
aF0.9
aF0.513
aF0.6
aF1.3
aF1.9
aF0.2
aF0.3
aF0.2
aF0.3
aF0.2
aF1.3
aF0.6
aF1.9
aF-0.6
aI0
aI0
aI5
aV202962,1610612742
p728
aa(lp729
I201880
aVGreg Stiemsma
p730
aI1610612761
aVTOR
p731
aF29.0
aI17
aI13
aI4
aF0.765
aF3.9
aF0.4
aF0.5
aF0.75
aF0.0
aF0.0
aF0.0
aF0.1
aF0.2
aF0.5
aF0.5
aF0.4
aF0.9
aF0.2
aF0.4
aF0.1
aF0.0
aF0.0
aF0.9
aF0.2
aF0.8
aF-1.6
aI0
aI0
aI5
aV201880,1610612761
p732
aa(lp733
I202349
aVGreivis Vasquez
p734
aI1610612761
aVTOR
p735
aF28.0
aI82
aI49
aI33
aF0.598
aF24.3
aF3.6
aF8.8
aF0.408
aF1.6
aF4.3
aF0.379
aF0.6
aF0.8
aF0.758
aF0.3
aF2.4
aF2.6
aF3.7
aF1.5
aF0.6
aF0.1
aF0.4
aF2.2
aF1.0
aF9.5
aF0.9
aI0
aI0
aI5
aV202349,1610612761
p736
aa(lp737
I203084
aVHarrison Barnes
p738
aI1610612744
aVGSW
p739
aF23.0
aI82
aI67
aI15
aF0.817
aF28.3
aF3.9
aF8.0
aF0.482
aF1.1
aF2.6
aF0.405
aF1.3
aF1.8
aF0.72
aF1.4
aF4.1
aF5.5
aF1.4
aF0.9
aF0.7
aF0.2
aF0.4
aF1.8
aF1.4
aF10.1
aF6.5
aI6
aI0
aI5
aV203084,1610612744
p740
aa(lp741
I202355
aVHassan Whiteside
p742
aI1610612748
aVMIA
p743
aF26.0
aI48
aI18
aI30
aF0.375
aF23.8
aF5.1
aF8.1
aF0.628
aF0.0
aF0.0
aF0.0
aF1.6
aF3.3
aF0.5
aF3.0
aF7.0
aF10.0
aF0.1
aF1.2
aF0.6
aF2.6
aF0.6
aF2.7
aF3.0
aF11.8
aF-1.1
aI22
aI1
aI5
aV202355,1610612748
p744
aa(lp745
I2045
aVHedo Turkoglu
p746
aI1610612746
aVLAC
p747
aF36.0
aI62
aI42
aI20
aF0.677
aF11.4
aF1.3
aF3.0
aF0.441
aF1.0
aF2.2
aF0.432
aF0.1
aF0.2
aF0.545
aF0.1
aF1.5
aF1.6
aF0.6
aF0.5
aF0.3
aF0.1
aF0.0
aF1.1
aF0.3
aF3.7
aF0.2
aI0
aI0
aI5
aV2045,1610612746
p748
aa(lp749
I203156
aVHenry Sims
p750
aI1610612755
aVPHI
p751
aF25.0
aI73
aI14
aI59
aF0.192
aF19.2
aF3.3
aF6.9
aF0.474
aF0.1
aF0.3
aF0.182
aF1.5
aF1.9
aF0.774
aF1.7
aF3.3
aF4.9
aF1.1
aF1.4
aF0.5
aF0.4
aF0.4
aF1.8
aF1.5
aF8.0
aF-4.5
aI4
aI0
aI5
aV203156,1610612755
p752
aa(lp753
I201611
aVHenry Walker
p754
aI1610612748
aVMIA
p755
aF27.0
aI24
aI12
aI12
aF0.5
aF26.1
aF2.4
aF7.0
aF0.345
aF1.9
aF5.5
aF0.341
aF0.6
aF0.8
aF0.778
aF0.3
aF3.1
aF3.4
aF1.2
aF1.0
aF1.0
aF0.4
aF0.4
aF3.2
aF1.0
aF7.3
aF0.0
aI0
aI0
aI5
aV201611,1610612748
p756
aa(lp757
I203138
aVHollis Thompson
p758
aI1610612755
aVPHI
p759
aF24.0
aI71
aI13
aI58
aF0.183
aF25.0
aF3.2
aF7.6
aF0.413
aF1.6
aF4.0
aF0.401
aF0.9
aF1.3
aF0.708
aF0.7
aF2.0
aF2.8
aF1.2
aF0.9
aF0.8
aF0.4
aF0.4
aF2.0
aF1.0
aF8.8
aF-4.8
aI0
aI0
aI5
aV203138,1610612755
p760
aa(lp761
I203546
aVIan Clark
p762
aI1610612743
aVDEN
p763
aF24.0
aI30
aI9
aI21
aF0.3
aF6.4
aF0.6
aF1.8
aF0.345
aF0.3
aF1.0
aF0.333
aF0.3
aF0.3
aF1.0
aF0.1
aF0.4
aF0.5
aF0.4
aF0.3
aF0.3
aF0.1
aF0.1
aF0.7
aF0.3
aF1.9
aF-1.5
aI0
aI0
aI5
aV203546,1610612743
p764
aa(lp765
I101133
aVIan Mahinmi
p766
aI1610612754
aVIND
p767
aF28.0
aI61
aI28
aI33
aF0.459
aF18.8
aF1.9
aF3.5
aF0.552
aF0.0
aF0.0
aF0.0
aF0.5
aF1.7
aF0.304
aF1.7
aF4.1
aF5.8
aF0.5
aF1.0
aF0.5
aF0.8
aF0.3
aF2.8
aF1.8
aF4.3
aF-0.1
aI2
aI0
aI5
aV101133,1610612754
p768
aa(lp769
I202697
aVIman Shumpert
p770
aI1610612739
aVCLE
p771
aF25.0
aI62
aI34
aI28
aF0.548
aF24.9
aF3.1
aF7.6
aF0.41
aF1.1
aF3.2
aF0.342
aF0.7
aF1.0
aF0.672
aF0.9
aF2.7
aF3.6
aF2.2
aF1.5
aF1.3
aF0.3
aF0.2
aF2.2
aF1.4
aF8.0
aF1.0
aI2
aI0
aI5
aV202697,1610612739
p772
aa(lp773
I203477
aVIsaiah Canaan
p774
aI1610612755
aVPHI
p775
aF24.0
aI47
aI24
aI23
aF0.511
aF20.0
aF3.1
aF8.0
aF0.386
aF1.9
aF5.2
aF0.37
aF1.0
aF1.3
aF0.817
aF0.4
aF1.5
aF1.9
aF2.1
aF1.3
aF0.6
aF0.1
aF0.6
aF1.8
aF1.3
aF9.2
aF-1.3
aI0
aI0
aI5
aV203477,1610612755
p776
aa(lp777
I202738
aVIsaiah Thomas
p778
aI1610612738
aVBOS
p779
aF26.0
aI67
aI40
aI27
aF0.597
aF25.8
aF5.0
aF11.9
aF0.421
aF1.9
aF5.2
aF0.373
aF4.5
aF5.2
aF0.868
aF0.5
aF1.8
aF2.3
aF4.2
aF2.1
aF0.9
aF0.1
aF0.8
aF2.2
aF4.1
aF16.4
aF2.6
aI0
aI0
aI5
aV202738,1610612738
p780
aa(lp781
I202397
aVIsh Smith
p782
aI1610612755
aVPHI
p783
aF26.0
aI55
aI24
aI31
aF0.436
aF15.1
aF2.6
aF6.7
aF0.39
aF0.3
aF1.1
aF0.3
aF0.6
aF1.0
aF0.596
aF0.3
aF1.5
aF1.8
aF3.3
aF1.4
aF0.7
aF0.1
aF0.4
aF0.9
aF1.2
aF6.1
aF-1.9
aI0
aI0
aI5
aV202397,1610612755
p784
aa(lp785
I2747
aVJ.R. Smith
p786
aI1610612739
aVCLE
p787
aF29.0
aI70
aI38
aI32
aF0.543
aF29.7
aF4.5
aF10.8
aF0.417
aF2.3
aF6.1
aF0.383
aF0.8
aF1.0
aF0.75
aF0.4
aF2.7
aF3.1
aF2.8
aF1.4
aF1.2
aF0.3
aF0.2
aF2.3
aF1.1
aF12.1
aF2.3
aI0
aI0
aI5
aV2747,1610612739
p788
aa(lp789
I201581
aVJJ Hickson
p790
aI1610612743
aVDEN
p791
aF26.0
aI73
aI26
aI47
aF0.356
aF19.3
aF3.0
aF6.3
aF0.475
aF0.0
aF0.0
aF0.0
aF1.6
aF2.8
aF0.577
aF2.1
aF4.1
aF6.2
aF0.8
aF1.3
aF0.5
aF0.5
aF0.8
aF1.9
aF1.9
aF7.6
aF-3.2
aI9
aI0
aI5
aV201581,1610612743
p792
aa(lp793
I200755
aVJJ Redick
p794
aI1610612746
aVLAC
p795
aF31.0
aI78
aI55
aI23
aF0.705
aF30.9
aF5.7
aF12.0
aF0.477
aF2.6
aF5.9
aF0.437
aF2.3
aF2.6
aF0.901
aF0.3
aF1.9
aF2.1
aF1.8
aF1.2
aF0.5
aF0.1
aF0.3
aF1.7
aF2.1
aF16.4
aF8.0
aI0
aI0
aI5
aV200755,1610612746
p796
aa(lp797
I203960
aVJaKarr Sampson
p798
aI1610612755
aVPHI
p799
aF22.0
aI74
aI17
aI57
aF0.23
aF15.3
aF2.0
aF4.7
aF0.422
aF0.4
aF1.7
aF0.244
aF0.9
aF1.3
aF0.67
aF0.5
aF1.7
aF2.2
aF1.0
aF1.0
aF0.5
aF0.4
aF0.4
aF1.8
aF1.1
aF5.2
aF-4.5
aI0
aI0
aI5
aV203960,1610612755
p800
aa(lp801
I203210
aVJaMychal Green
p802
aI1610612763
aVMEM
p803
aF25.0
aI24
aI10
aI14
aF0.417
aF6.8
aF1.1
aF2.0
aF0.574
aF0.0
aF0.3
aF0.0
aF0.3
aF0.4
aF0.8
aF0.8
aF1.1
aF1.9
aF0.2
aF0.6
aF0.2
aF0.2
aF0.1
aF1.0
aF0.4
aF2.6
aF-1.0
aI0
aI0
aI5
aV203210,1610612763
p804
aa(lp805
I201580
aVJaVale McGee
p806
aI1610612743
aVDEN
p807
aF27.0
aI23
aI8
aI15
aF0.348
aF11.1
aF1.8
aF3.4
aF0.532
aF0.0
aF0.0
aF0.0
aF1.0
aF1.4
aF0.667
aF0.8
aF1.9
aF2.7
aF0.1
aF0.8
aF0.1
aF0.9
aF0.4
aF1.3
aF1.3
aF4.6
aF-3.0
aI0
aI0
aI5
aV201580,1610612743
p808
aa(lp809
I203913
aVJabari Brown
p810
aI1610612747
aVLAL
p811
aF22.0
aI19
aI4
aI15
aF0.211
aF29.9
aF3.7
aF8.9
aF0.412
aF1.2
aF3.3
aF0.371
aF3.4
aF4.5
aF0.753
aF0.2
aF1.7
aF1.9
aF2.1
aF1.7
aF0.6
aF0.1
aF0.6
aF1.7
aF3.4
aF11.9
aF-6.7
aI0
aI0
aI5
aV203913,1610612747
p812
aa(lp813
I203953
aVJabari Parker
p814
aI1610612749
aVMIL
p815
aF20.0
aI25
aI13
aI12
aF0.52
aF29.5
aF5.2
aF10.5
aF0.49
aF0.2
aF0.6
aF0.25
aF1.8
aF2.6
aF0.697
aF2.0
aF3.5
aF5.5
aF1.7
aF1.9
aF1.2
aF0.2
aF0.8
aF1.7
aF2.4
aF12.3
aF-4.7
aI2
aI0
aI5
aV203953,1610612749
p816
aa(lp817
I204022
aVJack Cooley
p818
aI1610612762
aVUTA
p819
aF24.0
aI16
aI10
aI6
aF0.625
aF5.4
aF0.6
aF1.4
aF0.409
aF0.0
aF0.0
aF0.0
aF0.6
aF1.3
aF0.429
aF0.6
aF0.9
aF1.6
aF0.1
aF0.2
aF0.4
aF0.2
aF0.1
aF1.4
aF1.1
aF1.7
aF-0.3
aI0
aI0
aI5
aV204022,1610612762
p820
aa(lp821
I203109
aVJae Crowder
p822
aI1610612738
aVBOS
p823
aF24.0
aI82
aI47
aI35
aF0.573
aF20.1
aF2.8
aF6.6
aF0.42
aF0.7
aF2.5
aF0.293
aF1.3
aF1.7
aF0.773
aF0.9
aF2.7
aF3.6
aF1.1
aF0.6
aF0.9
aF0.3
aF0.3
aF1.7
aF1.4
aF7.7
aF0.8
aI0
aI0
aI5
aV203109,1610612738
p824
aa(lp825
I203479
aVJamaal Franklin
p826
aI1610612743
aVDEN
p827
aF23.0
aI3
aI1
aI2
aF0.333
aF4.4
aF0.3
aF0.7
aF0.5
aF0.3
aF0.7
aF0.5
aF0.0
aF0.0
aF0.0
aF0.3
aF0.3
aF0.7
aF1.0
aF1.0
aF0.0
aF0.3
aF0.0
aF1.3
aF0.3
aF1.0
aF-3.0
aI0
aI0
aI5
aV203479,1610612743
p828
aa(lp829
I2037
aVJamal Crawford
p830
aI1610612746
aVLAC
p831
aF35.0
aI64
aI44
aI20
aF0.688
aF26.6
aF5.2
aF13.1
aF0.396
aF1.9
aF5.7
aF0.327
aF3.5
aF3.9
aF0.901
aF0.3
aF1.7
aF1.9
aF2.5
aF1.4
aF0.9
aF0.2
aF0.3
aF1.7
aF2.6
aF15.8
aF1.3
aI0
aI0
aI5
aV2037,1610612746
p832
aa(lp833
I2749
aVJameer Nelson
p834
aI1610612743
aVDEN
p835
aF33.0
aI63
aI25
aI38
aF0.397
aF22.3
aF3.3
aF8.0
aF0.407
aF1.4
aF4.1
aF0.345
aF0.4
aF0.6
aF0.667
aF0.5
aF1.8
aF2.3
aF4.0
aF1.7
aF0.7
aF0.1
aF0.3
aF2.2
aF1.1
aF8.3
aF-0.2
aI0
aI0
aI5
aV2749,1610612743
p836
aa(lp837
I203516
aVJames Ennis
p838
aI1610612748
aVMIA
p839
aF24.0
aI62
aI27
aI35
aF0.435
aF17.0
aF1.6
aF4.0
aF0.409
aF0.5
aF1.5
aF0.326
aF1.3
aF1.5
aF0.84
aF0.8
aF2.0
aF2.8
aF0.8
aF0.6
aF0.4
aF0.3
aF0.4
aF1.4
aF1.1
aF5.0
aF-0.1
aI1
aI0
aI5
aV203516,1610612748
p840
aa(lp841
I201935
aVJames Harden
p842
aI1610612745
aVHOU
p843
aF25.0
aI81
aI56
aI25
aF0.691
aF36.8
aF8.0
aF18.1
aF0.44
aF2.6
aF6.9
aF0.375
aF8.8
aF10.2
aF0.868
aF0.9
aF4.7
aF5.7
aF7.0
aF4.0
aF1.9
aF0.7
aF1.3
aF2.6
aF6.7
aF27.4
aF4.1
aI21
aI4
aI5
aV201935,1610612745
p844
aa(lp845
I201949
aVJames Johnson
p846
aI1610612761
aVTOR
p847
aF28.0
aI70
aI40
aI30
aF0.571
aF19.6
aF3.4
aF5.8
aF0.589
aF0.2
aF0.7
aF0.216
aF1.0
aF1.5
aF0.657
aF0.9
aF2.8
aF3.7
aF1.4
aF1.1
aF0.8
aF1.0
aF0.3
aF2.2
aF1.1
aF7.9
aF2.1
aI2
aI0
aI5
aV201949,1610612761
p848
aa(lp849
I2592
aVJames Jones
p850
aI1610612739
aVCLE
p851
aF34.0
aI57
aI35
aI22
aF0.614
aF11.7
aF1.3
aF3.5
aF0.368
aF1.1
aF3.1
aF0.36
aF0.7
aF0.8
aF0.848
aF0.2
aF0.9
aF1.1
aF0.4
aF0.2
aF0.2
aF0.1
aF0.1
aF1.2
aF0.7
aF4.4
aF-1.9
aI0
aI0
aI5
aV2592,1610612739
p852
aa(lp853
I203949
aVJames Michael McAdoo
p854
aI1610612744
aVGSW
p855
aF22.0
aI15
aI11
aI4
aF0.733
aF9.1
aF1.6
aF2.9
aF0.545
aF0.0
aF0.0
aF0.0
aF0.9
aF1.7
aF0.56
aF1.0
aF1.5
aF2.5
aF0.1
aF0.4
aF0.3
aF0.6
aF0.2
aF1.4
aF1.3
aF4.1
aF0.7
aI0
aI0
aI5
aV203949,1610612744
p856
aa(lp857
I203923
aVJames Young
p858
aI1610612738
aVBOS
p859
aF19.0
aI31
aI14
aI17
aF0.452
aF10.7
aF1.2
aF3.3
aF0.353
aF0.5
aF2.1
aF0.258
aF0.5
aF0.9
aF0.552
aF0.3
aF1.1
aF1.4
aF0.4
aF0.2
aF0.3
aF0.1
aF0.0
aF0.7
aF0.6
aF3.4
aF0.1
aI0
aI0
aI5
aV203923,1610612738
p860
aa(lp861
I2457
aVJannero Pargo
p862
aI1610612766
aVCHA
p863
aF35.0
aI9
aI2
aI7
aF0.222
aF8.1
aF1.7
aF3.9
aF0.429
aF1.0
aF2.4
aF0.409
aF0.2
aF0.2
aF1.0
aF0.0
aF0.3
aF0.3
aF0.9
aF0.3
aF0.0
aF0.0
aF0.1
aF0.9
aF0.6
aF4.6
aF-0.1
aI0
aI0
aI5
aV2457,1610612766
p864
aa(lp865
I203099
aVJared Cunningham
p866
aI1610612746
aVLAC
p867
aF24.0
aI19
aI12
aI7
aF0.632
aF4.7
aF0.6
aF1.7
aF0.364
aF0.2
aF0.7
aF0.308
aF0.4
aF0.7
aF0.538
aF0.1
aF0.4
aF0.5
aF0.5
aF0.4
aF0.2
aF0.0
aF0.1
aF0.6
aF0.5
aF1.8
aF-0.3
aI0
aI0
aI5
aV203099,1610612746
p868
aa(lp869
I201162
aVJared Dudley
p870
aI1610612749
aVMIL
p871
aF29.0
aI72
aI39
aI33
aF0.542
aF23.8
aF2.8
aF5.9
aF0.468
aF1.0
aF2.7
aF0.385
aF0.7
aF0.9
aF0.716
aF0.6
aF2.4
aF3.1
aF1.8
aF0.9
aF1.0
aF0.2
aF0.2
aF1.6
aF1.2
aF7.2
aF1.5
aI0
aI0
aI5
aV201162,1610612749
p872
aa(lp873
I203096
aVJared Sullinger
p874
aI1610612738
aVBOS
p875
aF23.0
aI58
aI26
aI32
aF0.448
aF27.0
aF5.4
aF12.2
aF0.439
aF0.9
aF3.2
aF0.283
aF1.7
aF2.2
aF0.744
aF2.5
aF5.1
aF7.6
aF2.3
aF1.3
aF0.8
aF0.7
aF0.6
aF2.6
aF2.2
aF13.3
aF-0.3
aI12
aI0
aI5
aV203096,1610612738
p876
aa(lp877
I203950
aVJarnell Stokes
p878
aI1610612763
aVMEM
p879
aF21.0
aI19
aI12
aI7
aF0.632
aF6.6
aF1.1
aF1.9
aF0.568
aF0.0
aF0.0
aF0.0
aF0.8
aF1.5
aF0.536
aF0.8
aF0.9
aF1.8
aF0.2
aF0.4
aF0.3
aF0.3
aF0.3
aF1.3
aF1.2
aF3.0
aF0.7
aI0
aI0
aI5
aV203950,1610612763
p880
aa(lp881
I101127
aVJarrett Jack
p882
aI1610612751
aVBKN
p883
aF31.0
aI80
aI36
aI44
aF0.45
aF28.0
aF4.5
aF10.2
aF0.439
aF0.5
aF1.8
aF0.267
aF2.5
aF2.8
aF0.881
aF0.2
aF2.8
aF3.1
aF4.7
aF2.4
aF0.9
aF0.2
aF0.4
aF1.8
aF2.4
aF12.0
aF-3.9
aI5
aI0
aI5
aV101127,1610612751
p884
aa(lp885
I101131
aVJason Maxiell
p886
aI1610612766
aVCHA
p887
aF32.0
aI61
aI22
aI39
aF0.361
aF14.4
aF1.3
aF3.1
aF0.422
aF0.0
aF0.0
aF0.0
aF0.7
aF1.2
aF0.577
aF1.4
aF1.9
aF3.3
aF0.3
aF0.5
aF0.3
aF0.7
aF0.3
aF1.6
aF1.4
aF3.3
aF-2.5
aI0
aI0
aI5
aV101131,1610612766
p888
aa(lp889
I2202
aVJason Richardson
p890
aI1610612755
aVPHI
p891
aF34.0
aI19
aI4
aI15
aF0.211
aF21.9
aF3.3
aF9.4
aF0.348
aF1.6
aF5.1
aF0.323
aF0.9
aF1.2
aF0.773
aF0.7
aF2.8
aF3.5
aF2.0
aF0.8
aF0.7
aF0.2
aF0.1
aF1.5
aF1.2
aF9.1
aF-3.7
aI0
aI0
aI5
aV2202,1610612755
p892
aa(lp893
I201160
aVJason Smith
p894
aI1610612752
aVNYK
p895
aF29.0
aI82
aI17
aI65
aF0.207
aF21.8
aF3.1
aF7.2
aF0.434
aF0.2
aF0.5
aF0.357
aF1.5
aF1.9
aF0.83
aF1.2
aF2.8
aF4.0
aF1.7
aF1.3
aF0.4
aF0.5
aF0.4
aF2.5
aF1.9
aF8.0
aF-5.2
aI3
aI0
aI5
aV201160,1610612752
p896
aa(lp897
I1891
aVJason Terry
p898
aI1610612745
aVHOU
p899
aF37.0
aI77
aI53
aI24
aF0.688
aF21.3
aF2.4
aF5.8
aF0.422
aF1.6
aF4.2
aF0.39
aF0.5
aF0.6
aF0.813
aF0.2
aF1.4
aF1.6
aF1.9
aF1.0
aF0.9
aF0.2
aF0.1
aF1.5
aF0.4
aF7.0
aF1.8
aI0
aI0
aI5
aV1891,1610612745
p900
aa(lp901
I201574
aVJason Thompson
p902
aI1610612758
aVSAC
p903
aF28.0
aI81
aI29
aI52
aF0.358
aF24.6
aF2.5
aF5.3
aF0.47
aF0.0
aF0.0
aF0.0
aF1.1
aF1.8
aF0.622
aF1.7
aF4.8
aF6.5
aF1.0
aF1.0
aF0.4
aF0.7
aF0.4
aF3.0
aF1.6
aF6.1
aF-2.3
aI7
aI0
aI5
aV201574,1610612758
p904
aa(lp905
I202399
aVJeff Adrien
p906
aI1610612745
aVHOU
p907
aF29.0
aI17
aI1
aI16
aF0.059
aF12.7
aF1.1
aF2.6
aF0.432
aF0.0
aF0.0
aF0.0
aF1.3
aF2.2
aF0.579
aF1.4
aF3.2
aF4.5
aF0.9
aF0.5
aF0.2
aF0.5
aF0.5
aF1.8
aF2.2
aF3.5
aF-0.8
aI0
aI0
aI5
aV202399,1610612745
p908
aa(lp909
I201965
aVJeff Ayres
p910
aI1610612759
aVSAS
p911
aF28.0
aI51
aI33
aI18
aF0.647
aF7.5
aF1.1
aF1.9
aF0.579
aF0.0
aF0.0
aF0.0
aF0.5
aF0.7
aF0.75
aF0.7
aF1.6
aF2.3
aF0.3
aF0.5
aF0.2
aF0.2
aF0.1
aF1.2
aF0.6
aF2.7
aF-1.1
aI0
aI0
aI5
aV201965,1610612759
p912
aa(lp913
I201145
aVJeff Green
p914
aI1610612763
aVMEM
p915
aF28.0
aI78
aI41
aI37
aF0.526
aF31.5
aF5.3
aF12.4
aF0.43
aF1.2
aF3.7
aF0.332
aF3.1
aF3.7
aF0.833
aF0.8
aF3.4
aF4.2
aF1.7
aF1.4
aF0.7
aF0.4
aF0.8
aF1.9
aF2.8
aF15.0
aF-1.7
aI1
aI0
aI5
aV201145,1610612763
p916
aa(lp917
I203106
aVJeff Taylor
p918
aI1610612766
aVCHA
p919
aF26.0
aI29
aI11
aI18
aF0.379
aF14.8
aF1.6
aF3.9
aF0.395
aF0.4
aF1.2
aF0.306
aF0.9
aF1.4
aF0.634
aF0.5
aF1.3
aF1.8
aF0.8
aF0.7
aF0.4
aF0.0
aF0.5
aF1.2
aF1.0
aF4.4
aF-4.3
aI0
aI0
aI5
aV203106,1610612766
p920
aa(lp921
I201952
aVJeff Teague
p922
aI1610612737
aVATL
p923
aF27.0
aI73
aI53
aI20
aF0.726
aF30.5
aF5.6
aF12.2
aF0.46
aF1.0
aF2.8
aF0.343
aF3.8
aF4.4
aF0.862
aF0.4
aF2.1
aF2.5
aF7.0
aF2.8
aF1.7
aF0.4
aF0.9
aF1.9
aF4.0
aF15.9
aF5.3
aI10
aI0
aI5
aV201952,1610612737
p924
aa(lp925
I203481
aVJeff Withey
p926
aI1610612740
aVNOP
p927
aF25.0
aI37
aI17
aI20
aF0.459
aF7.0
aF0.9
aF1.7
aF0.5
aF0.0
aF0.0
aF0.0
aF0.9
aF1.4
aF0.68
aF0.6
aF1.1
aF1.7
aF0.3
aF0.3
aF0.1
aF0.5
aF0.4
aF0.7
aF1.0
aF2.6
aF-1.1
aI0
aI0
aI5
aV203481,1610612740
p928
aa(lp929
I203924
aVJerami Grant
p930
aI1610612755
aVPHI
p931
aF21.0
aI65
aI18
aI47
aF0.277
aF21.2
aF1.9
aF5.4
aF0.352
aF0.8
aF2.4
aF0.314
aF1.8
aF3.0
aF0.591
aF0.8
aF2.3
aF3.0
aF1.2
aF1.3
aF0.6
aF1.0
aF0.5
aF2.2
aF2.1
aF6.3
aF-2.7
aI0
aI0
aI5
aV203924,1610612755
p932
aa(lp933
I202077
aVJerel McNeal
p934
aI1610612756
aVPHX
p935
aF28.0
aI6
aI1
aI5
aF0.167
aF6.1
aF0.5
aF1.8
aF0.273
aF0.2
aF0.3
aF0.5
aF0.3
aF0.3
aF1.0
aF0.0
aF0.5
aF0.5
aF0.3
aF0.8
aF0.5
aF0.2
aF0.2
aF0.8
aF0.3
aF1.5
aF-0.5
aI0
aI0
aI5
aV202077,1610612756
p936
aa(lp937
I202379
aVJeremy Evans
p938
aI1610612762
aVUTA
p939
aF27.0
aI38
aI19
aI19
aF0.5
aF7.0
aF0.8
aF1.5
aF0.552
aF0.1
aF0.1
aF0.4
aF0.6
aF0.8
aF0.828
aF0.7
aF1.2
aF1.9
aF0.3
aF0.1
aF0.3
aF0.3
aF0.1
aF0.8
aF0.7
aF2.4
aF0.8
aI0
aI0
aI5
aV202379,1610612762
p940
aa(lp941
I203087
aVJeremy Lamb
p942
aI1610612760
aVOKC
p943
aF23.0
aI47
aI27
aI20
aF0.574
aF13.5
aF2.2
aF5.3
aF0.416
aF0.8
aF2.4
aF0.342
aF1.0
aF1.2
aF0.891
aF0.2
aF2.1
aF2.3
aF0.9
aF0.6
aF0.4
aF0.1
aF0.1
aF1.1
aF0.9
aF6.3
aF-1.6
aI1
aI0
aI5
aV203087,1610612760
p944
aa(lp945
I202391
aVJeremy Lin
p946
aI1610612747
aVLAL
p947
aF26.0
aI74
aI19
aI55
aF0.257
aF25.8
aF3.7
aF8.8
aF0.424
aF0.9
aF2.4
aF0.369
aF2.9
aF3.6
aF0.795
aF0.4
aF2.3
aF2.6
aF4.6
aF2.2
aF1.1
aF0.4
aF0.7
aF2.6
aF3.7
aF11.2
aF-3.4
aI3
aI0
aI5
aV202391,1610612747
p948
aa(lp949
I202366
aVJerome Jordan
p950
aI1610612751
aVBKN
p951
aF28.0
aI44
aI17
aI27
aF0.386
aF8.7
aF1.1
aF2.1
aF0.532
aF0.0
aF0.0
aF0.0
aF0.9
aF1.0
aF0.864
aF1.2
aF1.2
aF2.4
aF0.3
aF0.5
aF0.2
aF0.3
aF0.3
aF1.3
aF0.7
aF3.1
aF-1.8
aI1
aI0
aI5
aV202366,1610612751
p952
aa(lp953
I203968
aVJerrelle Benimon
p954
aI1610612743
aVDEN
p955
aF23.0
aI2
aI2
aI0
aF1.0
aF1.4
aF0.0
aF0.0
aF0.0
aF0.0
aF0.0
aF0.0
aF0.0
aF0.0
aF0.0
aF0.5
aF1.0
aF1.5
aF0.0
aF0.5
aF0.0
aF0.0
aF0.0
aF0.0
aF0.0
aF0.0
aF3.0
aI0
aI0
aI5
aV203968,1610612743
p956
aa(lp957
I201573
aVJerryd Bayless
p958
aI1610612749
aVMIL
p959
aF26.0
aI77
aI39
aI38
aF0.506
aF22.3
aF2.9
aF6.7
aF0.426
aF0.5
aF1.6
aF0.308
aF1.6
aF1.8
aF0.883
aF0.3
aF2.5
aF2.7
aF3.0
aF1.7
aF0.8
aF0.2
aF0.4
aF2.1
aF1.6
aF7.8
aF-0.2
aI0
aI0
aI5
aV201573,1610612749
p960
aa(lp961
I202690
aVJimmer Fredette
p962
aI1610612740
aVNOP
p963
aF26.0
aI50
aI27
aI23
aF0.54
aF10.2
aF1.3
aF3.3
aF0.38
aF0.2
aF1.0
aF0.188
aF0.9
aF0.9
aF0.956
aF0.2
aF0.6
aF0.8
aF1.2
aF0.7
aF0.3
aF0.0
aF0.1
aF0.9
aF0.8
aF3.6
aF0.8
aI0
aI0
aI5
aV202690,1610612740
p964
aa(lp965
I202710
aVJimmy Butler
p966
aI1610612741
aVCHI
p967
aF25.0
aI65
aI40
aI25
aF0.615
aF38.7
aF6.5
aF14.0
aF0.462
aF1.1
aF3.0
aF0.378
aF5.9
aF7.1
aF0.834
aF1.8
aF4.1
aF5.8
aF3.3
aF1.4
aF1.8
aF0.6
aF0.9
aF1.7
aF5.2
aF20.0
aF3.7
aI4
aI0
aI5
aV202710,1610612741
p968
aa(lp969
I201149
aVJoakim Noah
p970
aI1610612741
aVCHI
p971
aF30.0
aI67
aI39
aI28
aF0.582
aF30.6
aF2.8
aF6.4
aF0.445
aF0.0
aF0.0
aF0.0
aF1.6
aF2.6
aF0.603
aF3.3
aF6.4
aF9.6
aF4.7
aF1.8
aF0.7
aF1.1
aF0.7
aF3.0
aF2.5
aF7.2
aF1.2
aI15
aI0
aI5
aV201149,1610612741
p972
aa(lp973
I201975
aVJodie Meeks
p974
aI1610612765
aVDET
p975
aF27.0
aI60
aI29
aI31
aF0.483
aF24.4
aF3.7
aF8.9
aF0.416
aF1.2
aF3.5
aF0.349
aF2.4
aF2.7
aF0.906
aF0.2
aF1.5
aF1.7
aF1.3
aF1.0
aF1.0
aF0.1
aF0.3
aF1.3
aF2.0
aF11.1
aF-1.6
aI0
aI0
aI5
aV201975,1610612765
p976
aa(lp977
I203925
aVJoe Harris
p978
aI1610612739
aVCLE
p979
aF23.0
aI51
aI32
aI19
aF0.627
aF9.7
aF0.9
aF2.4
aF0.4
aF0.6
aF1.6
aF0.369
aF0.2
aF0.3
aF0.6
aF0.1
aF0.7
aF0.8
aF0.5
aF0.5
aF0.1
aF0.0
aF0.1
aF1.2
aF0.2
aF2.7
aF-2.0
aI0
aI0
aI5
aV203925,1610612739
p980
aa(lp981
I204060
aVJoe Ingles
p982
aI1610612762
aVUTA
p983
aF27.0
aI79
aI36
aI43
aF0.456
aF21.2
aF1.9
aF4.5
aF0.415
aF0.9
aF2.6
aF0.356
aF0.4
aF0.5
aF0.75
aF0.3
aF1.9
aF2.2
aF2.3
aF1.2
aF0.9
aF0.1
aF0.1
aF1.6
aF0.8
aF5.0
aF-0.6
aI0
aI0
aI5
aV204060,1610612762
p984
aa(lp985
I2207
aVJoe Johnson
p986
aI1610612751
aVBKN
p987
aF34.0
aI80
aI38
aI42
aF0.475
aF34.9
aF5.6
aF12.8
aF0.435
aF1.5
aF4.2
aF0.359
aF1.8
aF2.2
aF0.801
aF0.7
aF4.1
aF4.8
aF3.7
aF1.7
aF0.7
aF0.2
aF0.3
aF1.5
aF2.2
aF14.4
aF-1.5
aI3
aI0
aI5
aV2207,1610612751
p988
aa(lp989
I201202
aVJoel Anthony
p990
aI1610612765
aVDET
p991
aF32.0
aI49
aI25
aI24
aF0.51
aF8.3
aF0.7
aF1.3
aF0.581
aF0.0
aF0.0
aF0.0
aF0.3
aF0.4
aF0.682
aF0.7
aF1.2
aF1.9
aF0.1
aF0.2
aF0.2
aF1.0
aF0.1
aF1.1
aF0.3
aF1.8
aF0.2
aI0
aI0
aI5
aV201202,1610612765
p992
aa(lp993
I200777
aVJoel Freeland
p994
aI1610612757
aVPOR
p995
aF28.0
aI48
aI34
aI14
aF0.708
aF12.8
aF1.5
aF3.1
aF0.49
aF0.0
aF0.0
aF0.0
aF0.4
aF0.5
aF0.84
aF1.3
aF2.7
aF4.0
aF0.3
aF0.5
aF0.2
aF0.5
aF0.1
aF1.9
aF0.8
aF3.5
aF1.3
aI1
aI0
aI5
aV200777,1610612757
p996
aa(lp997
I201595
aVJoey Dorsey
p998
aI1610612745
aVHOU
p999
aF31.0
aI69
aI48
aI21
aF0.696
aF12.4
aF1.2
aF2.1
aF0.552
aF0.0
aF0.0
aF0.0
aF0.3
aF1.2
aF0.289
aF1.5
aF2.6
aF4.0
aF0.4
aF0.6
aF0.6
aF0.4
aF0.4
aF2.3
aF0.9
aF2.7
aF0.2
aI0
aI0
aI5
aV201595,1610612745
p1000
aa(lp1001
I203530
aVJoffrey Lauvergne
p1002
aI1610612743
aVDEN
p1003
aF23.0
aI24
aI9
aI15
aF0.375
aF11.2
aF1.5
aF3.7
aF0.404
aF0.1
aF0.7
aF0.188
aF0.8
aF1.2
aF0.643
aF1.1
aF2.1
aF3.2
aF0.5
aF0.9
aF0.3
aF0.4
aF0.6
aF1.8
aF0.9
aF3.9
aF-4.5
aI0
aI0
aI5
aV203530,1610612743
p1004
aa(lp1005
I203089
aVJohn Henson
p1006
aI1610612749
aVMIL
p1007
aF24.0
aI67
aI35
aI32
aF0.522
aF18.3
aF2.9
aF5.2
aF0.566
aF0.0
aF0.0
aF0.0
aF1.2
aF2.0
aF0.569
aF1.9
aF2.8
aF4.7
aF0.9
aF1.3
aF0.4
aF2.0
aF0.3
aF2.3
aF1.7
aF7.0
aF-1.1
aI2
aI0
aI5
aV203089,1610612749
p1008
aa(lp1009
I203098
aVJohn Jenkins
p1010
aI1610612737
aVATL
p1011
aF24.0
aI24
aI13
aI11
aF0.542
aF12.4
aF2.0
aF4.1
aF0.495
aF0.9
aF2.2
aF0.404
aF0.7
aF0.8
aF0.842
aF0.1
aF1.5
aF1.6
aF0.5
aF0.3
aF0.4
aF0.0
aF0.2
aF0.6
aF0.8
aF5.6
aF-1.0
aI0
aI0
aI5
aV203098,1610612737
p1012
aa(lp1013
I101249
aVJohn Lucas III
p1014
aI1610612765
aVDET
p1015
aF32.0
aI21
aI8
aI13
aF0.381
aF12.9
aF2.0
aF5.0
aF0.404
aF0.4
aF1.4
aF0.31
aF0.2
aF0.2
aF1.0
aF0.2
aF0.6
aF0.8
aF2.9
aF0.8
aF0.4
aF0.0
aF0.1
aF0.9
aF0.4
aF4.7
aF-2.2
aI0
aI0
aI5
aV101249,1610612765
p1016
aa(lp1017
I2422
aVJohn Salmons
p1018
aI1610612740
aVNOP
p1019
aF35.0
aI21
aI9
aI12
aF0.429
aF12.8
aF0.8
aF2.3
aF0.333
aF0.4
aF1.2
aF0.308
aF0.1
aF0.2
aF0.5
aF0.2
aF0.8
aF1.0
aF0.6
aF0.2
aF0.4
aF0.2
aF0.0
aF1.2
aF0.2
aF2.0
aF-3.0
aI0
aI0
aI5
aV2422,1610612740
p1020
aa(lp1021
I202322
aVJohn Wall
p1022
aI1610612764
aVWAS
p1023
aF24.0
aI79
aI45
aI34
aF0.57
aF35.9
aF6.6
aF14.8
aF0.445
aF0.8
aF2.7
aF0.3
aF3.6
aF4.6
aF0.785
aF0.5
aF4.2
aF4.6
aF10.0
aF3.8
aF1.7
aF0.6
aF0.6
aF2.3
aF3.6
aF17.6
aF3.5
aI40
aI0
aI5
aV202322,1610612764
p1024
aa(lp1025
I203948
aVJohnny O'Bryant
p1026
aI1610612749
aVMIL
p1027
aF22.0
aI34
aI17
aI17
aF0.5
aF10.8
aF1.3
aF3.5
aF0.367
aF0.0
aF0.0
aF0.0
aF0.4
aF0.8
aF0.444
aF0.8
aF1.1
aF1.9
aF0.5
aF0.7
aF0.1
aF0.1
aF0.3
aF1.3
aF0.7
aF2.9
aF-2.9
aI0
aI0
aI5
aV203948,1610612749
p1028
aa(lp1029
I202720
aVJon Leuer
p1030
aI1610612763
aVMEM
p1031
aF26.0
aI63
aI45
aI18
aF0.714
aF13.1
aF1.9
aF4.3
aF0.443
aF0.1
aF0.5
aF0.241
aF0.6
aF0.9
aF0.627
aF0.8
aF2.5
aF3.3
aF0.7
aF0.6
aF0.3
aF0.1
aF0.2
aF1.4
aF0.8
aF4.5
aF-0.5
aI1
aI0
aI5
aV202720,1610612763
p1032
aa(lp1033
I201973
aVJonas Jerebko
p1034
aI1610612738
aVBOS
p1035
aF28.0
aI75
aI37
aI38
aF0.493
aF16.4
aF2.3
aF5.1
aF0.446
aF0.7
aF1.9
aF0.386
aF0.7
aF0.9
aF0.848
aF1.2
aF2.5
aF3.8
aF0.9
aF0.6
aF0.6
aF0.2
aF0.2
aF1.8
aF0.8
aF6.0
aF1.9
aI1
aI0
aI5
aV201973,1610612738
p1036
aa(lp1037
I202685
aVJonas Valanciunas
p1038
aI1610612761
aVTOR
p1039
aF23.0
aI80
aI47
aI33
aF0.588
aF26.2
aF4.7
aF8.2
aF0.572
aF0.0
aF0.0
aF0.0
aF2.7
aF3.5
aF0.786
aF2.7
aF6.0
aF8.7
aF0.5
aF1.4
aF0.4
aF1.2
aF0.8
aF2.8
aF2.9
aF12.0
aF-0.3
aI22
aI0
aI5
aV202685,1610612761
p1040
aa(lp1041
I203919
aVJordan Adams
p1042
aI1610612763
aVMEM
p1043
aF20.0
aI30
aI14
aI16
aF0.467
aF8.3
aF1.2
aF2.9
aF0.407
aF0.3
aF0.8
aF0.4
aF0.5
aF0.8
aF0.609
aF0.3
aF0.6
aF0.9
aF0.5
aF0.5
aF0.5
aF0.2
aF0.3
aF0.8
aF0.7
aF3.1
aF0.5
aI0
aI0
aI5
aV203919,1610612763
p1044
aa(lp1045
I203903
aVJordan Clarkson
p1046
aI1610612747
aVLAL
p1047
aF23.0
aI59
aI11
aI48
aF0.186
aF25.0
aF4.5
aF10.1
aF0.448
aF0.6
aF2.1
aF0.314
aF2.2
aF2.7
aF0.829
aF0.9
aF2.3
aF3.2
aF3.5
aF1.6
aF0.9
aF0.2
aF0.7
aF1.8
aF2.3
aF11.9
aF-4.1
aI2
aI0
aI5
aV203903,1610612747
p1048
aa(lp1049
I200770
aVJordan Farmar
p1050
aI1610612746
aVLAC
p1051
aF28.0
aI36
aI23
aI13
aF0.639
aF14.7
aF1.7
aF4.4
aF0.386
aF1.0
aF2.7
aF0.361
aF0.3
aF0.3
aF0.909
aF0.2
aF0.9
aF1.2
aF1.9
aF0.9
aF0.6
aF0.1
aF0.1
aF1.4
aF0.7
aF4.6
aF-1.3
aI0
aI0
aI5
aV200770,1610612746
p1052
aa(lp1053
I202706
aVJordan Hamilton
p1054
aI1610612746
aVLAC
p1055
aF24.0
aI14
aI10
aI4
aF0.714
aF8.7
aF1.0
aF2.5
aF0.4
aF0.7
aF1.5
aF0.476
aF0.0
aF0.0
aF0.0
aF0.1
aF1.0
aF1.1
aF0.5
aF0.3
aF0.1
aF0.0
aF0.1
aF1.0
aF0.0
aF2.7
aF-2.1
aI0
aI0
aI5
aV202706,1610612746
p1056
aa(lp1057
I201941
aVJordan Hill
p1058
aI1610612747
aVLAL
p1059
aF27.0
aI70
aI19
aI51
aF0.271
aF26.8
aF5.1
aF11.1
aF0.459
aF0.0
aF0.2
aF0.273
aF1.8
aF2.4
aF0.738
aF2.5
aF5.5
aF7.9
aF1.5
aF1.5
aF0.5
aF0.7
aF0.4
aF2.3
aF1.9
aF12.0
aF-5.7
aI22
aI0
aI5
aV201941,1610612747
p1060
aa(lp1061
I203268
aVJorge Gutierrez
p1062
aI1610612749
aVMIL
p1063
aF26.0
aI20
aI10
aI10
aF0.5
aF8.7
aF1.1
aF2.1
aF0.537
aF0.0
aF0.2
aF0.0
aF0.5
aF0.7
aF0.692
aF0.3
aF1.0
aF1.3
aF1.1
aF0.6
aF0.3
aF0.0
aF0.1
aF1.3
aF0.7
aF2.7
aF-1.3
aI0
aI0
aI5
aV203268,1610612749
p1064
aa(lp1065
I101181
aVJose Calderon
p1066
aI1610612752
aVNYK
p1067
aF33.0
aI42
aI7
aI35
aF0.167
aF30.2
aF3.5
aF8.4
aF0.415
aF1.4
aF3.4
aF0.415
aF0.7
aF0.8
aF0.906
aF0.5
aF2.5
aF3.0
aF4.7
aF1.8
aF0.7
aF0.0
aF0.3
aF1.8
aF0.9
aF9.1
aF-8.1
aI2
aI0
aI5
aV101181,1610612752
p1068
aa(lp1069
I200826
aVJose Juan Barea
p1070
aI1610612742
aVDAL
p1071
aF31.0
aI77
aI49
aI28
aF0.636
aF17.7
aF2.9
aF7.0
aF0.42
aF0.7
aF2.2
aF0.323
aF1.0
aF1.2
aF0.809
aF0.3
aF1.4
aF1.7
aF3.4
aF0.9
aF0.4
aF0.0
aF0.4
aF1.4
aF1.5
aF7.5
aF1.6
aI0
aI0
aI5
aV200826,1610612742
p1072
aa(lp1073
I201177
aVJosh McRoberts
p1074
aI1610612748
aVMIA
p1075
aF28.0
aI17
aI8
aI9
aF0.471
aF17.4
aF1.6
aF3.1
aF0.528
aF0.5
aF1.1
aF0.421
aF0.5
aF0.8
aF0.615
aF0.4
aF2.2
aF2.6
aF1.9
aF1.3
aF0.7
aF0.2
aF0.3
aF2.4
aF0.8
aF4.2
aF1.8
aI0
aI0
aI5
aV201177,1610612748
p1076
aa(lp1077
I2746
aVJosh Smith
p1078
aI1610612745
aVHOU
p1079
aF29.0
aI83
aI41
aI42
aF0.494
aF27.7
aF5.0
aF11.9
aF0.419
aF0.9
aF2.7
aF0.316
aF1.5
aF3.1
aF0.498
aF1.8
aF4.6
aF6.4
aF3.3
aF2.5
aF1.0
aF1.4
aF0.6
aF2.7
aF2.3
aF12.4
aF0.2
aI15
aI0
aI5
aV2746,1610612745
p1080
aa(lp1081
I201950
aVJrue Holiday
p1082
aI1610612740
aVNOP
p1083
aF25.0
aI40
aI20
aI20
aF0.5
aF32.6
aF6.0
aF13.4
aF0.446
aF1.3
aF3.4
aF0.378
aF1.6
aF1.9
aF0.855
aF0.8
aF2.6
aF3.4
aF6.9
aF2.3
aF1.6
aF0.6
aF0.8
aF2.8
aF1.8
aF14.8
aF2.5
aI5
aI0
aI5
aV201950,1610612740
p1084
aa(lp1085
I203944
aVJulius Randle
p1086
aI1610612747
aVLAL
p1087
aF20.0
aI1
aI0
aI1
aF0.0
aF13.6
aF1.0
aF3.0
aF0.333
aF0.0
aF0.0
aF0.0
aF0.0
aF2.0
aF0.0
aF0.0
aF0.0
aF0.0
aF0.0
aF1.0
aF0.0
aF0.0
aF0.0
aF1.0
aF1.0
aF2.0
aF-18.0
aI0
aI0
aI5
aV203944,1610612747
p1088
aa(lp1089
I203120
aVJustin Hamilton
p1090
aI1610612750
aVMIN
p1091
aF25.0
aI41
aI6
aI35
aF0.146
aF17.4
aF2.1
aF4.3
aF0.478
aF0.2
aF0.8
aF0.323
aF1.0
aF1.1
aF0.83
aF1.4
aF1.9
aF3.3
aF0.9
aF0.6
aF0.7
aF0.7
aF0.3
aF1.7
aF1.4
aF5.3
aF-4.2
aI2
aI0
aI5
aV203120,1610612750
p1092
aa(lp1093
I203200
aVJustin Holiday
p1094
aI1610612744
aVGSW
p1095
aF26.0
aI59
aI49
aI10
aF0.831
aF11.1
aF1.5
aF4.0
aF0.387
aF0.6
aF1.8
aF0.321
aF0.6
aF0.8
aF0.822
aF0.2
aF1.0
aF1.2
aF0.8
aF0.5
aF0.7
aF0.2
aF0.2
aF0.9
aF0.6
aF4.3
aF-0.2
aI0
aI0
aI5
aV203200,1610612744
p1096
aa(lp1097
I203994
aVJusuf Nurkic
p1098
aI1610612743
aVDEN
p1099
aF20.0
aI62
aI21
aI41
aF0.339
aF17.8
aF2.8
aF6.2
aF0.446
aF0.0
aF0.0
aF0.0
aF1.4
aF2.1
aF0.636
aF2.0
aF4.1
aF6.2
aF0.8
aF1.4
aF0.8
aF1.1
aF0.6
aF3.3
aF1.9
aF6.9
aF-0.1
aI4
aI0
aI5
aV203994,1610612743
p1100
aa(lp1101
I203909
aVKJ McDaniels
p1102
aI1610612745
aVHOU
p1103
aF22.0
aI62
aI19
aI43
aF0.306
aF21.8
aF2.8
aF7.0
aF0.396
aF0.7
aF2.4
aF0.287
aF1.6
aF2.1
aF0.752
aF1.0
aF2.2
aF3.2
aF1.2
aF1.7
aF0.7
aF1.1
aF0.5
aF2.0
aF1.5
aF7.9
aF-4.2
aI1
aI0
aI5
aV203909,1610612745
p1104
aa(lp1105
I203564
aVKalin Lucas
p1106
aI1610612763
aVMEM
p1107
aF26.0
aI1
aI0
aI1
aF0.0
aF5.5
aF0.0
aF1.0
aF0.0
aF0.0
aF0.0
aF0.0
aF0.0
aF0.0
aF0.0
aF0.0
aF0.0
aF0.0
aF0.0
aF0.0
aF1.0
aF0.0
aF0.0
aF1.0
aF0.0
aF0.0
aF-7.0
aI0
aI0
aI5
aV203564,1610612763
p1108
aa(lp1109
I202695
aVKawhi Leonard
p1110
aI1610612759
aVSAS
p1111
aF24.0
aI64
aI46
aI18
aF0.719
aF31.8
aF6.2
aF12.8
aF0.479
aF1.0
aF3.0
aF0.349
aF3.2
aF3.9
aF0.802
aF1.3
aF5.9
aF7.2
aF2.5
aF1.5
aF2.3
aF0.8
aF0.5
aF2.0
aF3.3
aF16.5
aF6.9
aI14
aI0
aI5
aV202695,1610612759
p1112
aa(lp1113
I203482
aVKelly Olynyk
p1114
aI1610612738
aVBOS
p1115
aF24.0
aI64
aI31
aI33
aF0.484
aF22.2
aF3.9
aF8.3
aF0.475
aF1.0
aF2.7
aF0.349
aF1.5
aF2.1
aF0.684
aF1.4
aF3.3
aF4.7
aF1.7
aF1.5
aF1.0
aF0.6
aF0.5
aF3.3
aF2.2
aF10.3
aF3.5
aI3
aI0
aI5
aV203482,1610612738
p1116
aa(lp1117
I202689
aVKemba Walker
p1118
aI1610612766
aVCHA
p1119
aF25.0
aI62
aI21
aI41
aF0.339
aF34.2
aF6.1
aF15.8
aF0.385
aF1.4
aF4.5
aF0.304
aF3.8
aF4.6
aF0.827
aF0.6
aF3.0
aF3.5
aF5.1
aF1.6
aF1.4
aF0.5
aF1.2
aF1.5
aF4.3
aF17.3
aF-3.0
aI4
aI0
aI5
aV202689,1610612766
p1120
aa(lp1121
I203088
aVKendall Marshall
p1122
aI1610612749
aVMIL
p1123
aF23.0
aI28
aI13
aI15
aF0.464
aF14.9
aF1.6
aF3.6
aF0.455
aF0.6
aF1.6
aF0.391
aF0.3
aF0.3
aF0.889
aF0.1
aF0.9
aF1.0
aF3.1
aF1.3
aF0.8
aF0.0
aF0.2
aF0.9
aF0.8
aF4.2
aF1.9
aI0
aI0
aI5
aV203088,1610612749
p1124
aa(lp1125
I2570
aVKendrick Perkins
p1126
aI1610612739
aVCLE
p1127
aF30.0
aI68
aI38
aI30
aF0.559
aF16.9
aF1.5
aF3.3
aF0.449
aF0.0
aF0.0
aF0.0
aF0.6
aF1.2
aF0.506
aF1.3
aF3.4
aF4.7
aF0.8
aF1.4
aF0.2
aF0.6
aF0.4
aF2.4
aF1.2
aF3.6
aF0.3
aI0
aI0
aI5
aV2570,1610612739
p1128
aa(lp1129
I202702
aVKenneth Faried
p1130
aI1610612743
aVDEN
p1131
aF25.0
aI75
aI30
aI45
aF0.4
aF27.8
aF5.0
aF9.8
aF0.507
aF0.0
aF0.1
aF0.125
aF2.7
aF3.8
aF0.691
aF3.2
aF5.7
aF8.9
aF1.2
aF1.6
aF0.8
aF0.8
aF0.9
aF2.8
aF3.9
aF12.6
aF-0.5
aI26
aI0
aI5
aV202702,1610612743
p1132
aa(lp1133
I203145
aVKent Bazemore
p1134
aI1610612737
aVATL
p1135
aF25.0
aI75
aI53
aI22
aF0.707
aF17.6
aF1.9
aF4.4
aF0.426
aF0.6
aF1.8
aF0.364
aF0.8
aF1.3
aF0.6
aF0.3
aF2.7
aF3.0
aF1.0
aF1.0
aF0.7
aF0.4
aF0.3
aF1.7
aF1.2
aF5.2
aF-1.3
aI0
aI0
aI5
aV203145,1610612737
p1136
aa(lp1137
I203484
aVKentavious Caldwell-Pope
p1138
aI1610612765
aVDET
p1139
aF22.0
aI82
aI32
aI50
aF0.39
aF31.5
aF4.8
aF11.9
aF0.401
aF1.9
aF5.4
aF0.345
aF1.3
aF1.9
aF0.696
aF0.6
aF2.5
aF3.1
aF1.3
aF1.1
aF1.1
aF0.2
aF0.4
aF2.0
aF1.7
aF12.7
aF0.8
aI0
aI0
aI5
aV203484,1610612765
p1140
aa(lp1141
I2030
aVKenyon Martin
p1142
aI1610612749
aVMIL
p1143
aF37.0
aI11
aI7
aI4
aF0.636
aF9.5
aF0.8
aF2.0
aF0.409
aF0.0
aF0.0
aF0.0
aF0.2
aF0.2
aF1.0
aF0.5
aF1.2
aF1.7
aF0.5
aF0.3
aF0.5
aF0.5
aF0.3
aF1.2
aF0.1
aF1.8
aF-0.8
aI0
aI0
aI5
aV2030,1610612749
p1144
aa(lp1145
I201142
aVKevin Durant
p1146
aI1610612760
aVOKC
p1147
aF26.0
aI27
aI18
aI9
aF0.667
aF33.8
aF8.8
aF17.3
aF0.51
aF2.4
aF5.9
aF0.403
aF5.4
aF6.3
aF0.854
aF0.6
aF6.0
aF6.6
aF4.1
aF2.7
aF0.9
aF0.9
aF0.3
aF1.5
aF4.9
aF25.4
aF6.2
aI5
aI0
aI5
aV201142,1610612760
p1148
aa(lp1149
I708
aVKevin Garnett
p1150
aI1610612750
aVMIN
p1151
aF39.0
aI47
aI20
aI27
aF0.426
aF20.3
aF3.0
aF6.5
aF0.467
aF0.0
aF0.1
aF0.143
aF0.8
aF1.0
aF0.8
aF1.0
aF5.6
aF6.6
aF1.6
aF1.0
aF1.0
aF0.4
aF0.1
aF2.3
aF1.3
aF6.9
aF-0.4
aI3
aI0
aI5
aV708,1610612750
p1152
aa(lp1153
I201567
aVKevin Love
p1154
aI1610612739
aVCLE
p1155
aF26.0
aI75
aI50
aI25
aF0.667
aF33.8
aF5.5
aF12.7
aF0.434
aF1.9
aF5.2
aF0.367
aF3.4
aF4.3
aF0.804
aF1.9
aF7.9
aF9.7
aF2.2
aF1.6
aF0.7
aF0.5
aF0.7
aF1.9
aF3.7
aF16.4
aF5.3
aI38
aI0
aI5
aV201567,1610612739
p1156
aa(lp1157
I2755
aVKevin Martin
p1158
aI1610612750
aVMIN
p1159
aF32.0
aI39
aI11
aI28
aF0.282
aF33.4
aF6.8
aF16.0
aF0.427
aF1.9
aF4.9
aF0.393
aF4.4
aF4.9
aF0.881
aF0.5
aF3.2
aF3.6
aF2.3
aF1.9
aF0.8
aF0.0
aF0.6
aF1.9
aF3.2
aF20.0
aF-6.5
aI0
aI0
aI5
aV2755,1610612750
p1160
aa(lp1161
I202338
aVKevin Seraphin
p1162
aI1610612764
aVWAS
p1163
aF25.0
aI79
aI45
aI34
aF0.57
aF15.6
aF2.9
aF5.7
aF0.513
aF0.0
aF0.0
aF0.0
aF0.7
aF1.0
aF0.707
aF1.1
aF2.5
aF3.6
aF0.7
aF1.2
aF0.1
aF0.7
aF0.2
aF2.5
aF1.1
aF6.6
aF-2.0
aI1
aI0
aI5
aV202338,1610612764
p1164
aa(lp1165
I203114
aVKhris Middleton
p1166
aI1610612749
aVMIL
p1167
aF23.0
aI79
aI40
aI39
aF0.506
aF30.1
aF5.1
aF11.0
aF0.467
aF1.4
aF3.4
aF0.407
aF1.7
aF2.0
aF0.859
aF0.6
aF3.8
aF4.4
aF2.3
aF1.4
aF1.5
aF0.1
aF0.4
aF2.3
aF1.7
aF13.4
aF4.0
aI1
aI0
aI5
aV203114,1610612749
p1168
aa(lp1169
I2550
aVKirk Hinrich
p1170
aI1610612741
aVCHI
p1171
aF34.0
aI66
aI37
aI29
aF0.561
aF24.4
aF2.2
aF5.8
aF0.373
aF0.9
aF2.5
aF0.345
aF0.5
aF0.8
aF0.7
aF0.3
aF1.5
aF1.8
aF2.2
aF1.1
aF0.7
aF0.2
aF0.4
aF2.2
aF1.0
aF5.7
aF0.6
aI0
aI0
aI5
aV2550,1610612741
p1172
aa(lp1173
I202691
aVKlay Thompson
p1174
aI1610612744
aVGSW
p1175
aF25.0
aI77
aI64
aI13
aF0.831
aF31.9
aF7.8
aF16.9
aF0.463
aF3.1
aF7.1
aF0.439
aF2.9
aF3.3
aF0.879
aF0.4
aF2.9
aF3.2
aF2.9
aF1.9
aF1.1
aF0.8
aF0.7
aF1.6
aF2.5
aF21.7
aF10.1
aI1
aI0
aI5
aV202691,1610612744
p1176
aa(lp1177
I977
aVKobe Bryant
p1178
aI1610612747
aVLAL
p1179
aF36.0
aI35
aI10
aI25
aF0.286
aF34.5
aF7.6
aF20.4
aF0.373
aF1.5
aF5.3
aF0.293
aF5.6
aF6.9
aF0.813
aF0.7
aF4.9
aF5.7
aF5.6
aF3.7
aF1.3
aF0.2
aF0.8
aF1.9
aF5.1
aF22.3
aF-8.4
aI4
aI2
aI5
aV977,1610612747
p1180
aa(lp1181
I201585
aVKosta Koufos
p1182
aI1610612763
aVMEM
p1183
aF26.0
aI81
aI55
aI26
aF0.679
aF16.6
aF2.2
aF4.4
aF0.508
aF0.0
aF0.0
aF0.0
aF0.7
aF1.0
aF0.647
aF1.5
aF3.8
aF5.3
aF0.5
aF0.9
aF0.4
aF0.8
aF0.3
aF1.8
aF1.1
aF5.2
aF1.3
aI0
aI0
aI5
aV201585,1610612763
p1184
aa(lp1185
I203123
aVKostas Papanikolaou
p1186
aI1610612745
aVHOU
p1187
aF24.0
aI43
aI29
aI14
aF0.674
aF18.5
aF1.6
aF4.6
aF0.35
aF0.7
aF2.5
aF0.292
aF0.3
aF0.4
aF0.722
aF0.9
aF1.8
aF2.7
aF2.0
aF1.3
aF0.7
aF0.3
aF0.3
aF1.7
aF0.7
aF4.2
aF-0.9
aI0
aI0
aI5
aV203123,1610612745
p1188
aa(lp1189
I2743
aVKris Humphries
p1190
aI1610612764
aVWAS
p1191
aF30.0
aI64
aI37
aI27
aF0.578
aF21.0
aF3.3
aF7.0
aF0.473
aF0.0
aF0.1
aF0.0
aF1.4
aF1.8
aF0.744
aF1.8
aF4.7
aF6.5
aF0.9
aF0.7
aF0.5
aF0.4
aF0.4
aF2.0
aF2.0
aF8.0
aF-1.4
aI3
aI0
aI5
aV2743,1610612764
p1192
aa(lp1193
I203937
aVKyle Anderson
p1194
aI1610612759
aVSAS
p1195
aF21.0
aI33
aI22
aI11
aF0.667
aF10.9
aF0.9
aF2.7
aF0.348
aF0.1
aF0.3
aF0.273
aF0.3
aF0.4
aF0.643
aF0.2
aF2.0
aF2.2
aF0.8
aF0.3
aF0.5
aF0.2
aF0.2
aF0.8
aF0.4
aF2.2
aF-1.1
aI0
aI0
aI5
aV203937,1610612759
p1196
aa(lp1197
I2594
aVKyle Korver
p1198
aI1610612737
aVATL
p1199
aF34.0
aI75
aI58
aI17
aF0.773
aF32.2
aF3.9
aF8.0
aF0.487
aF2.9
aF6.0
aF0.492
aF1.4
aF1.6
aF0.898
aF0.2
aF3.9
aF4.1
aF2.6
aF1.4
aF0.7
aF0.6
aF0.2
aF1.9
aF1.6
aF12.1
aF8.3
aI1
aI0
aI5
aV2594,1610612737
p1200
aa(lp1201
I200768
aVKyle Lowry
p1202
aI1610612761
aVTOR
p1203
aF29.0
aI70
aI43
aI27
aF0.614
aF34.5
aF6.1
aF14.9
aF0.412
aF1.9
aF5.6
aF0.338
aF3.6
aF4.5
aF0.808
aF0.8
aF3.9
aF4.7
aF6.8
aF2.5
aF1.6
aF0.2
aF0.8
aF3.0
aF4.2
aF17.8
aF2.9
aI13
aI2
aI5
aV200768,1610612761
p1204
aa(lp1205
I203124
aVKyle O'Quinn
p1206
aI1610612753
aVORL
p1207
aF25.0
aI51
aI15
aI36
aF0.294
aF16.2
aF2.3
aF4.7
aF0.492
aF0.2
aF0.8
aF0.279
aF0.9
aF1.1
aF0.772
aF0.9
aF3.0
aF3.9
aF1.2
aF1.1
aF0.6
aF0.8
aF0.2
aF2.2
aF1.0
aF5.8
aF-2.4
aI3
aI0
aI5
aV203124,1610612753
p1208
aa(lp1209
I202713
aVKyle Singler
p1210
aI1610612760
aVOKC
p1211
aF27.0
aI80
aI36
aI44
aF0.45
aF21.8
aF2.2
aF5.6
aF0.386
aF1.2
aF3.0
aF0.398
aF0.5
aF0.7
aF0.769
aF0.4
aF2.0
aF2.4
aF1.1
aF0.7
aF0.6
aF0.3
aF0.3
aF1.9
aF0.8
aF6.0
aF-1.1
aI0
aI0
aI5
aV202713,1610612760
p1212
aa(lp1213
I202681
aVKyrie Irving
p1214
aI1610612739
aVCLE
p1215
aF23.0
aI75
aI52
aI23
aF0.693
aF36.4
aF7.7
aF16.5
aF0.468
aF2.1
aF5.0
aF0.415
aF4.2
aF4.9
aF0.863
aF0.7
aF2.4
aF3.2
aF5.2
aF2.5
aF1.5
aF0.3
aF0.8
aF1.9
aF3.8
aF21.7
aF5.6
aI6
aI0
aI5
aV202681,1610612739
p1216
aa(lp1217
I200746
aVLaMarcus Aldridge
p1218
aI1610612757
aVPOR
p1219
aF29.0
aI71
aI48
aI23
aF0.676
aF35.4
aF9.3
aF19.9
aF0.466
aF0.5
aF1.5
aF0.352
aF4.3
aF5.1
aF0.845
aF2.5
aF7.7
aF10.2
aF1.7
aF1.7
aF0.7
aF1.0
aF0.5
aF1.8
aF4.1
aF23.4
aF4.8
aI39
aI0
aI5
aV200746,1610612757
p1220
aa(lp1221
I202362
aVLance Stephenson
p1222
aI1610612766
aVCHA
p1223
aF24.0
aI61
aI23
aI38
aF0.377
aF25.8
aF3.4
aF9.0
aF0.376
aF0.3
aF1.7
aF0.171
aF1.1
aF1.8
aF0.627
aF0.6
aF3.9
aF4.5
aF3.9
aF2.1
aF0.6
aF0.1
aF0.5
aF2.2
aF1.9
aF8.2
aF-3.6
aI2
aI0
aI5
aV202362,1610612766
p1224
aa(lp1225
I202498
aVLance Thomas
p1226
aI1610612752
aVNYK
p1227
aF27.0
aI62
aI20
aI42
aF0.323
aF24.0
aF2.9
aF7.1
aF0.412
aF0.1
aF0.4
aF0.318
aF1.2
aF1.6
aF0.727
aF1.0
aF2.1
aF3.1
aF1.1
aF1.2
aF0.6
aF0.1
aF0.6
aF1.6
aF1.4
aF7.1
aF-5.6
aI0
aI0
aI5
aV202498,1610612752
p1228
aa(lp1229
I202361
aVLandry Fields
p1230
aI1610612761
aVTOR
p1231
aF27.0
aI26
aI16
aI10
aF0.615
aF8.3
aF0.8
aF1.6
aF0.488
aF0.0
aF0.1
aF0.5
aF0.2
aF0.2
aF0.833
aF0.4
aF0.6
aF1.0
aF0.6
aF0.3
aF0.4
aF0.0
aF0.1
aF0.3
aF0.3
aF1.8
aF-3.1
aI0
aI0
aI5
aV202361,1610612761
p1232
aa(lp1233
I204038
aVLangston Galloway
p1234
aI1610612752
aVNYK
p1235
aF23.0
aI45
aI12
aI33
aF0.267
aF32.4
aF4.5
aF11.4
aF0.399
aF1.4
aF3.9
aF0.352
aF1.4
aF1.7
aF0.808
aF0.8
aF3.4
aF4.2
aF3.3
aF1.4
aF1.2
aF0.3
aF0.5
aF2.9
aF2.0
aF11.8
aF-6.0
aI0
aI0
aI5
aV204038,1610612752
p1236
aa(lp1237
I203580
aVLarry Drew
p1238
aI1610612755
aVPHI
p1239
aF25.0
aI12
aI4
aI8
aF0.333
aF18.3
aF1.7
aF4.8
aF0.345
aF0.3
aF2.2
aF0.154
aF0.2
aF0.3
aF0.667
aF0.1
aF1.2
aF1.3
aF3.8
aF2.1
aF0.5
aF0.0
aF0.0
aF1.1
aF1.5
aF3.8
aF-6.1
aI0
aI0
aI5
aV203580,1610612755
p1240
aa(lp1241
I202336
aVLarry Sanders
p1242
aI1610612749
aVMIL
p1243
aF26.0
aI27
aI12
aI15
aF0.444
aF21.7
aF3.2
aF6.4
aF0.5
aF0.0
aF0.0
aF0.0
aF0.9
aF1.8
aF0.5
aF2.5
aF3.7
aF6.1
aF0.9
aF1.0
aF1.0
aF1.4
aF0.6
aF3.9
aF1.4
aF7.3
aF-3.3
aI0
aI0
aI5
aV202336,1610612749
p1244
aa(lp1245
I202730
aVLavoy Allen
p1246
aI1610612754
aVIND
p1247
aF26.0
aI63
aI29
aI34
aF0.46
aF17.0
aF2.2
aF4.7
aF0.472
aF0.0
aF0.0
aF0.0
aF0.5
aF0.7
aF0.702
aF2.0
aF3.2
aF5.1
aF1.2
aF0.6
aF0.2
aF0.7
aF0.2
aF1.6
aF0.8
aF5.0
aF1.4
aI4
aI0
aI5
aV202730,1610612754
p1248
aa(lp1249
I2544
aVLeBron James
p1250
aI1610612739
aVCLE
p1251
aF30.0
aI69
aI50
aI19
aF0.725
aF36.1
aF9.0
aF18.5
aF0.488
aF1.7
aF4.9
aF0.354
aF5.4
aF7.7
aF0.71
aF0.7
aF5.3
aF6.0
aF7.4
aF3.9
aF1.6
aF0.7
aF0.7
aF2.0
aF6.0
aF25.3
aF7.8
aI22
aI2
aI5
aV2544,1610612739
p1252
aa(lp1253
I2571
aVLeandro Barbosa
p1254
aI1610612744
aVGSW
p1255
aF32.0
aI66
aI54
aI12
aF0.818
aF14.9
aF2.8
aF5.8
aF0.474
aF0.7
aF1.7
aF0.384
aF0.9
aF1.1
aF0.784
aF0.3
aF1.0
aF1.4
aF1.5
aF0.7
aF0.6
aF0.1
aF0.2
aF1.3
aF0.9
aF7.1
aF-0.1
aI0
aI0
aI5
aV2571,1610612744
p1256
aa(lp1257
I201991
aVLester Hudson
p1258
aI1610612746
aVLAC
p1259
aF30.0
aI5
aI5
aI0
aF1.0
aF11.1
aF1.2
aF2.8
aF0.429
aF0.6
aF1.2
aF0.5
aF0.6
aF0.8
aF0.75
aF0.2
aF1.4
aF1.6
aF1.0
aF0.6
aF1.2
aF0.2
aF0.2
aF0.8
aF0.6
aF3.6
aF-1.2
aI0
aI0
aI5
aV201991,1610612746
p1260
aa(lp1261
I203485
aVLorenzo Brown
p1262
aI1610612750
aVMIN
p1263
aF24.0
aI29
aI6
aI23
aF0.207
aF18.9
aF1.8
aF4.2
aF0.426
aF0.2
aF1.0
aF0.214
aF0.4
aF0.7
aF0.632
aF0.5
aF1.9
aF2.4
aF3.1
aF1.0
aF1.0
aF0.2
aF0.3
aF1.7
aF0.6
aF4.2
aF-3.2
aI0
aI0
aI5
aV203485,1610612750
p1264
aa(lp1265
I200811
aVLou Amundson
p1266
aI1610612752
aVNYK
p1267
aF32.0
aI53
aI17
aI36
aF0.321
aF17.7
aF2.1
aF4.8
aF0.427
aF0.0
aF0.0
aF0.0
aF0.8
aF1.6
aF0.471
aF1.8
aF3.3
aF5.1
aF1.3
aF1.2
aF0.4
aF1.0
aF0.5
aF2.4
aF1.5
aF4.9
aF-2.8
aI3
aI0
aI5
aV200811,1610612752
p1268
aa(lp1269
I101150
aVLou Williams
p1270
aI1610612761
aVTOR
p1271
aF28.0
aI80
aI48
aI32
aF0.6
aF25.2
aF4.7
aF11.6
aF0.404
aF1.9
aF5.6
aF0.34
aF4.3
aF4.9
aF0.861
aF0.3
aF1.6
aF1.9
aF2.1
aF1.3
aF1.1
aF0.1
aF0.6
aF1.3
aF3.2
aF15.5
aF3.7
aI0
aI0
aI5
aV101150,1610612761
p1272
aa(lp1273
I201601
aVLuc Mbah a Moute
p1274
aI1610612755
aVPHI
p1275
aF28.0
aI67
aI16
aI51
aF0.239
aF28.6
aF3.7
aF9.5
aF0.395
aF0.9
aF3.0
aF0.307
aF1.4
aF2.4
aF0.589
aF1.2
aF3.7
aF4.9
aF1.6
aF1.5
aF1.2
aF0.3
aF0.8
aF1.6
aF1.9
aF9.9
aF-5.4
aI4
aI0
aI5
aV201601,1610612755
p1276
aa(lp1277
I203512
aVLucas Nogueira
p1278
aI1610612761
aVTOR
p1279
aF22.0
aI6
aI3
aI3
aF0.5
aF3.8
aF0.3
aF1.3
aF0.25
aF0.0
aF0.0
aF0.0
aF0.3
aF0.7
aF0.5
aF0.3
aF1.5
aF1.8
aF0.2
aF0.3
aF0.3
aF0.0
aF0.0
aF1.0
aF0.3
aF1.0
aF-1.8
aI0
aI0
aI5
aV203512,1610612761
p1280
aa(lp1281
I2449
aVLuis Scola
p1282
aI1610612754
aVIND
p1283
aF35.0
aI81
aI37
aI44
aF0.457
aF20.5
aF3.7
aF7.9
aF0.467
aF0.1
aF0.2
aF0.25
aF2.0
aF2.8
aF0.699
aF1.7
aF4.8
aF6.5
aF1.3
aF1.2
aF0.6
aF0.2
aF0.6
aF2.4
aF2.7
aF9.4
aF0.5
aI9
aI0
aI5
aV2449,1610612754
p1284
aa(lp1285
I202337
aVLuke Babbitt
p1286
aI1610612740
aVNOP
p1287
aF26.0
aI63
aI34
aI29
aF0.54
aF13.2
aF1.5
aF3.0
aF0.479
aF0.9
aF1.8
aF0.513
aF0.2
aF0.3
aF0.684
aF0.2
aF1.6
aF1.8
aF0.4
aF0.4
aF0.3
aF0.2
aF0.2
aF1.0
aF0.3
aF4.1
aF-1.6
aI0
aI0
aI5
aV202337,1610612740
p1288
aa(lp1289
I2557
aVLuke Ridnour
p1290
aI1610612753
aVORL
p1291
aF34.0
aI47
aI13
aI34
aF0.277
aF14.5
aF1.6
aF3.7
aF0.426
aF0.4
aF1.3
aF0.317
aF0.4
aF0.4
aF0.857
aF0.2
aF1.3
aF1.4
aF2.0
aF0.8
aF0.4
aF0.1
aF0.1
aF1.4
aF1.0
aF4.0
aF-2.7
aI0
aI0
aI5
aV2557,1610612753
p1292
aa(lp1293
I2736
aVLuol Deng
p1294
aI1610612748
aVMIA
p1295
aF30.0
aI72
aI33
aI39
aF0.458
aF33.6
aF5.1
aF10.9
aF0.469
aF1.1
aF3.1
aF0.355
aF2.7
aF3.5
aF0.761
aF1.4
aF3.8
aF5.2
aF1.9
aF1.5
aF0.9
aF0.3
aF0.6
aF1.5
aF2.7
aF14.0
aF-0.1
aI5
aI0
aI5
aV2736,1610612748
p1296
aa(lp1297
I202723
aVMalcolm Lee
p1298
aI1610612755
aVPHI
p1299
aF25.0
aI1
aI0
aI1
aF0.0
aF2.0
aF0.0
aF1.0
aF0.0
aF0.0
aF0.0
aF0.0
aF0.0
aF0.0
aF0.0
aF0.0
aF0.0
aF0.0
aF0.0
aF0.0
aF0.0
aF0.0
aF0.0
aF0.0
aF0.0
aF0.0
aF3.0
aI0
aI0
aI5
aV202723,1610612755
p1300
aa(lp1301
I202952
aVMalcolm Thomas
p1302
aI1610612755
aVPHI
p1303
aF26.0
aI17
aI2
aI15
aF0.118
aF11.4
aF1.1
aF2.4
aF0.45
aF0.0
aF0.4
aF0.0
aF0.5
aF0.8
aF0.692
aF0.9
aF2.4
aF3.3
aF0.4
aF0.8
aF0.2
aF0.1
aF0.3
aF1.0
aF0.7
aF2.6
aF-6.4
aI0
aI0
aI5
aV202952,1610612755
p1304
aa(lp1305
I1938
aVManu Ginobili
p1306
aI1610612759
aVSAS
p1307
aF37.0
aI70
aI47
aI23
aF0.671
aF22.7
aF3.6
aF8.4
aF0.426
aF1.3
aF3.7
aF0.345
aF2.1
aF2.9
aF0.721
aF0.4
aF2.6
aF3.0
aF4.2
aF2.2
aF1.0
aF0.3
aF0.5
aF2.0
aF3.2
aF10.5
aF4.5
aI3
aI0
aI5
aV1938,1610612759
p1308
aa(lp1309
I201188
aVMarc Gasol
p1310
aI1610612763
aVMEM
p1311
aF30.0
aI81
aI55
aI26
aF0.679
aF33.2
aF6.5
aF13.2
aF0.494
aF0.0
aF0.2
aF0.176
aF4.3
aF5.4
aF0.795
aF1.4
aF6.4
aF7.8
aF3.8
aF2.2
aF0.9
aF1.6
aF0.6
aF2.6
aF5.0
aF17.4
aF2.8
aI20
aI0
aI5
aV201188,1610612763
p1312
aa(lp1313
I101162
aVMarcin Gortat
p1314
aI1610612764
aVWAS
p1315
aF31.0
aI82
aI46
aI36
aF0.561
aF29.9
aF5.4
aF9.5
aF0.566
aF0.0
aF0.0
aF0.0
aF1.5
aF2.1
aF0.703
aF2.2
aF6.5
aF8.7
aF1.2
aF1.2
aF0.6
aF1.3
aF0.6
aF2.3
aF2.0
aF12.2
aF3.1
aI22
aI0
aI5
aV101162,1610612764
p1316
aa(lp1317
I201158
aVMarco Belinelli
p1318
aI1610612759
aVSAS
p1319
aF29.0
aI62
aI41
aI21
aF0.661
aF22.4
aF3.2
aF7.6
aF0.423
aF1.4
aF3.7
aF0.374
aF1.4
aF1.6
aF0.848
aF0.4
aF2.1
aF2.5
aF1.5
aF1.0
aF0.5
aF0.0
aF0.1
aF1.4
aF1.5
aF9.2
aF0.0
aI0
aI0
aI5
aV201158,1610612759
p1320
aa(lp1321
I202694
aVMarcus Morris
p1322
aI1610612756
aVPHX
p1323
aF25.0
aI81
aI39
aI42
aF0.481
aF25.2
aF4.1
aF9.4
aF0.434
aF1.4
aF3.9
aF0.358
aF0.9
aF1.4
aF0.628
aF0.9
aF3.9
aF4.8
aF1.6
aF0.9
aF0.8
aF0.2
aF0.3
aF2.3
aF1.4
aF10.4
aF-0.7
aI5
aI0
aI5
aV202694,1610612756
p1324
aa(lp1325
I203935
aVMarcus Smart
p1326
aI1610612738
aVBOS
p1327
aF21.0
aI67
aI35
aI32
aF0.522
aF27.0
aF2.6
aF7.1
aF0.367
aF1.4
aF4.1
aF0.335
aF1.2
aF1.9
aF0.646
aF0.9
aF2.4
aF3.3
aF3.1
aF1.3
aF1.5
aF0.3
aF0.3
aF2.6
aF2.3
aF7.8
aF0.9
aI0
aI0
aI5
aV203935,1610612738
p1328
aa(lp1329
I201977
aVMarcus Thornton
p1330
aI1610612756
aVPHX
p1331
aF28.0
aI48
aI19
aI29
aF0.396
aF15.0
aF2.9
aF7.2
aF0.406
aF1.1
aF3.0
aF0.378
aF1.0
aF1.2
aF0.821
aF0.5
aF1.3
aF1.8
aF0.8
aF0.6
aF0.6
aF0.1
aF0.5
aF0.8
aF0.9
aF7.9
aF-0.1
aI0
aI0
aI5
aV201977,1610612756
p1332
aa(lp1333
I201596
aVMario Chalmers
p1334
aI1610612748
aVMIA
p1335
aF29.0
aI80
aI36
aI44
aF0.45
aF29.6
aF3.3
aF8.3
aF0.403
aF0.9
aF3.1
aF0.294
aF2.6
aF3.3
aF0.774
aF0.3
aF2.3
aF2.6
aF3.8
aF2.2
aF1.5
aF0.1
aF0.5
aF3.1
aF3.5
aF10.2
aF-1.8
aI4
aI0
aI5
aV201596,1610612748
p1336
aa(lp1337
I203900
aVMarkel Brown
p1338
aI1610612751
aVBKN
p1339
aF23.0
aI47
aI23
aI24
aF0.489
aF16.6
aF1.6
aF4.5
aF0.362
aF0.4
aF1.4
aF0.266
aF1.0
aF1.2
aF0.825
aF0.3
aF1.9
aF2.3
aF0.8
aF0.6
aF0.7
aF0.3
aF0.3
aF1.2
aF1.3
aF4.6
aF-0.5
aI1
aI0
aI5
aV203900,1610612751
p1340
aa(lp1341
I202693
aVMarkieff Morris
p1342
aI1610612756
aVPHX
p1343
aF25.0
aI82
aI39
aI43
aF0.476
aF31.5
aF6.2
aF13.4
aF0.465
aF0.7
aF2.2
aF0.318
aF2.2
aF2.8
aF0.763
aF1.3
aF4.8
aF6.2
aF2.3
aF2.1
aF1.2
aF0.5
aF0.5
aF3.0
aF2.7
aF15.3
aF1.3
aI12
aI0
aI5
aV202693,1610612756
p1344
aa(lp1345
I201578
aVMarreese Speights
p1346
aI1610612744
aVGSW
p1347
aF27.0
aI76
aI62
aI14
aF0.816
aF15.9
aF4.2
aF8.5
aF0.492
aF0.1
aF0.2
aF0.278
aF2.0
aF2.3
aF0.843
aF1.4
aF2.8
aF4.3
aF0.9
aF1.1
aF0.3
aF0.4
aF0.3
aF2.5
aF2.2
aF10.4
aF2.4
aI1
aI0
aI5
aV201578,1610612744
p1348
aa(lp1349
I101110
aVMartell Webster
p1350
aI1610612764
aVWAS
p1351
aF28.0
aI32
aI12
aI20
aF0.375
aF11.0
aF0.8
aF2.8
aF0.264
aF0.3
aF1.3
aF0.233
aF1.5
aF2.0
aF0.75
aF0.3
aF1.1
aF1.4
aF0.5
aF0.7
aF0.2
aF0.0
aF0.1
aF0.8
aF1.2
aF3.3
aF-4.2
aI0
aI0
aI5
aV101110,1610612764
p1352
aa(lp1353
I101107
aVMarvin Williams
p1354
aI1610612766
aVCHA
p1355
aF29.0
aI78
aI32
aI46
aF0.41
aF26.1
aF2.7
aF6.3
aF0.424
aF1.2
aF3.4
aF0.358
aF0.8
aF1.1
aF0.713
aF0.7
aF4.2
aF4.9
aF1.3
aF0.8
aF0.9
aF0.5
aF0.2
aF1.9
aF1.0
aF7.4
aF-2.0
aI1
aI0
aI5
aV101107,1610612766
p1356
aa(lp1357
I203486
aVMason Plumlee
p1358
aI1610612751
aVBKN
p1359
aF25.0
aI82
aI38
aI44
aF0.463
aF21.3
aF3.4
aF6.0
aF0.573
aF0.0
aF0.0
aF0.0
aF1.9
aF3.9
aF0.495
aF2.1
aF4.1
aF6.2
aF0.9
aF1.3
aF0.8
aF0.8
aF0.7
aF2.5
aF3.1
aF8.7
aF-2.2
aI12
aI0
aI5
aV203486,1610612751
p1360
aa(lp1361
I2440
aVMatt Barnes
p1362
aI1610612746
aVLAC
p1363
aF35.0
aI76
aI51
aI25
aF0.671
aF29.9
aF3.6
aF8.2
aF0.444
aF1.8
aF4.9
aF0.362
aF1.0
aF1.3
aF0.779
aF0.7
aF3.3
aF4.0
aF1.5
aF1.1
aF0.9
aF0.7
aF0.4
aF3.2
aF1.2
aF10.1
aF7.0
aI1
aI0
aI5
aV2440,1610612746
p1364
aa(lp1365
I2588
aVMatt Bonner
p1366
aI1610612759
aVSAS
p1367
aF35.0
aI72
aI49
aI23
aF0.681
aF13.0
aF1.3
aF3.2
aF0.409
aF0.6
aF1.8
aF0.365
aF0.4
aF0.5
aF0.811
aF0.4
aF1.2
aF1.6
aF0.7
aF0.2
aF0.1
aF0.2
aF0.1
aF0.9
aF0.3
aF3.7
aF0.5
aI0
aI0
aI5
aV2588,1610612759
p1368
aa(lp1369
I203521
aVMatthew Dellavedova
p1370
aI1610612739
aVCLE
p1371
aF24.0
aI67
aI43
aI24
aF0.642
aF20.6
aF1.7
aF4.6
aF0.362
aF1.0
aF2.5
aF0.407
aF0.4
aF0.6
aF0.763
aF0.6
aF1.3
aF1.9
aF3.0
aF0.9
aF0.4
aF0.0
aF0.3
aF2.3
aF1.0
aF4.8
aF0.6
aI2
aI0
aI5
aV203521,1610612739
p1372
aa(lp1373
I203090
aVMaurice Harkless
p1374
aI1610612753
aVORL
p1375
aF22.0
aI45
aI9
aI36
aF0.2
aF15.0
aF1.4
aF3.5
aF0.399
aF0.2
aF1.2
aF0.179
aF0.5
aF0.9
aF0.537
aF0.8
aF1.5
aF2.4
aF0.6
aF0.6
aF0.7
aF0.2
aF0.2
aF1.5
aF0.8
aF3.5
aF-2.0
aI0
aI0
aI5
aV203090,1610612753
p1376
aa(lp1377
I203086
aVMeyers Leonard
p1378
aI1610612757
aVPOR
p1379
aF23.0
aI55
aI32
aI23
aF0.582
aF15.4
aF2.3
aF4.5
aF0.51
aF0.9
aF2.0
aF0.42
aF0.5
aF0.6
aF0.938
aF0.8
aF3.7
aF4.5
aF0.6
aF0.7
aF0.2
aF0.3
aF0.1
aF2.1
aF1.0
aF5.9
aF0.3
aI3
aI0
aI5
aV203086,1610612757
p1380
aa(lp1381
I201563
aVMichael Beasley
p1382
aI1610612748
aVMIA
p1383
aF26.0
aI24
aI11
aI13
aF0.458
aF21.0
aF3.8
aF8.8
aF0.434
aF0.3
aF1.4
aF0.235
aF0.8
aF1.1
aF0.769
aF0.5
aF3.2
aF3.7
aF1.3
aF1.5
aF0.6
aF0.5
aF0.5
aF2.8
aF1.4
aF8.8
aF0.1
aI1
aI0
aI5
aV201563,1610612748
p1384
aa(lp1385
I203487
aVMichael Carter-Williams
p1386
aI1610612749
aVMIL
p1387
aF23.0
aI66
aI21
aI45
aF0.318
aF32.6
aF5.5
aF13.9
aF0.396
aF0.5
aF2.3
aF0.235
aF3.1
aF4.4
aF0.694
aF1.0
aF4.4
aF5.3
aF6.7
aF3.8
aF1.7
aF0.5
aF1.1
aF2.5
aF4.2
aF14.6
aF-2.5
aI11
aI3
aI5
aV203487,1610612749
p1388
aa(lp1389
I203077
aVMichael Kidd-Gilchrist
p1390
aI1610612766
aVCHA
p1391
aF21.0
aI55
aI27
aI28
aF0.491
aF28.9
aF4.1
aF8.8
aF0.465
aF0.0
aF0.0
aF0.0
aF2.7
aF3.9
aF0.701
aF2.0
aF5.6
aF7.6
aF1.4
aF1.1
aF0.5
aF0.7
aF1.1
aF2.1
aF3.1
aF10.9
aF1.3
aI12
aI0
aI5
aV203077,1610612766
p1392
aa(lp1393
I201144
aVMike Conley
p1394
aI1610612763
aVMEM
p1395
aF27.0
aI70
aI47
aI23
aF0.671
aF31.8
aF5.6
aF12.6
aF0.446
aF1.5
aF4.0
aF0.386
aF3.1
aF3.6
aF0.859
aF0.4
aF2.6
aF3.0
aF5.4
aF2.2
aF1.3
aF0.2
aF0.7
aF2.0
aF3.3
aF15.8
aF3.1
aI6
aI0
aI5
aV201144,1610612763
p1396
aa(lp1397
I2399
aVMike Dunleavy
p1398
aI1610612741
aVCHI
p1399
aF34.0
aI63
aI41
aI22
aF0.651
aF29.2
aF3.3
aF7.6
aF0.435
aF1.7
aF4.2
aF0.407
aF1.1
aF1.4
aF0.805
aF0.4
aF3.5
aF3.9
aF1.8
aF1.0
aF0.6
aF0.3
aF0.2
aF2.0
aF1.2
aF9.4
aF3.3
aI0
aI0
aI5
aV2399,1610612741
p1400
aa(lp1401
I2034
aVMike Miller
p1402
aI1610612739
aVCLE
p1403
aF35.0
aI52
aI31
aI21
aF0.596
aF13.5
aF0.7
aF2.2
aF0.325
aF0.6
aF1.9
aF0.327
aF0.1
aF0.1
aF0.75
aF0.1
aF1.7
aF1.8
aF0.9
aF0.4
aF0.3
aF0.1
aF0.1
aF1.4
aF0.1
aF2.1
aF-1.4
aI0
aI0
aI5
aV2034,1610612739
p1404
aa(lp1405
I203488
aVMike Muscala
p1406
aI1610612737
aVATL
p1407
aF23.0
aI40
aI26
aI14
aF0.65
aF12.6
aF2.1
aF3.8
aF0.55
aF0.2
aF0.6
aF0.409
aF0.6
aF0.6
aF0.88
aF1.3
aF1.7
aF3.0
aF0.6
aF0.5
aF0.4
aF0.5
aF0.2
aF1.3
aF0.8
aF4.9
aF1.4
aI1
aI0
aI5
aV203488,1610612737
p1408
aa(lp1409
I203118
aVMike Scott
p1410
aI1610612737
aVATL
p1411
aF26.0
aI68
aI52
aI16
aF0.765
aF16.5
aF3.0
aF6.7
aF0.444
aF1.0
aF2.8
aF0.344
aF0.9
aF1.1
aF0.792
aF0.7
aF2.3
aF2.9
aF1.1
aF0.6
aF0.4
aF0.0
aF0.2
aF1.2
aF1.0
aF7.8
aF0.4
aI0
aI0
aI5
aV203118,1610612737
p1412
aa(lp1413
I203101
aVMiles Plumlee
p1414
aI1610612749
aVMIL
p1415
aF26.0
aI73
aI34
aI39
aF0.466
aF16.4
aF1.9
aF3.5
aF0.535
aF0.0
aF0.0
aF0.0
aF0.3
aF0.6
aF0.478
aF1.5
aF2.8
aF4.4
aF0.5
aF0.7
aF0.6
aF0.9
aF0.3
aF1.5
aF0.7
aF4.0
aF0.0
aI1
aI0
aI5
aV203101,1610612749
p1416
aa(lp1417
I203545
aVMiroslav Raduljica
p1418
aI1610612750
aVMIN
p1419
aF27.0
aI5
aI0
aI5
aF0.0
aF4.6
aF0.6
aF1.6
aF0.375
aF0.0
aF0.0
aF0.0
aF0.4
aF0.4
aF1.0
aF0.4
aF0.6
aF1.0
aF0.0
aF0.4
aF0.2
aF0.0
aF0.2
aF1.6
aF0.4
aF1.6
aF-0.6
aI0
aI0
aI5
aV203545,1610612750
p1420
aa(lp1421
I203141
aVMirza Teletovic
p1422
aI1610612751
aVBKN
p1423
aF29.0
aI40
aI16
aI24
aF0.4
aF22.3
aF3.1
aF8.0
aF0.382
aF1.6
aF4.8
aF0.321
aF0.8
aF1.2
aF0.717
aF0.7
aF4.2
aF4.9
aF1.2
aF1.3
aF0.4
aF0.4
aF0.3
aF1.9
aF1.3
aF8.5
aF-0.3
aI1
aI0
aI5
aV203141,1610612751
p1424
aa(lp1425
I203956
aVMitch McGary
p1426
aI1610612760
aVOKC
p1427
aF23.0
aI32
aI20
aI12
aF0.625
aF15.2
aF2.8
aF5.2
aF0.533
aF0.0
aF0.1
aF0.0
aF0.8
aF1.3
aF0.625
aF1.7
aF3.5
aF5.2
aF0.4
aF1.0
aF0.5
aF0.5
aF0.4
aF2.3
aF0.9
aF6.3
aF1.5
aI3
aI0
aI5
aV203956,1610612760
p1428
aa(lp1429
I2590
aVMo Williams
p1430
aI1610612766
aVCHA
p1431
aF32.0
aI68
aI20
aI48
aF0.294
aF29.1
aF5.0
aF12.6
aF0.397
aF1.8
aF5.1
aF0.342
aF2.4
aF2.8
aF0.872
aF0.3
aF2.2
aF2.6
aF6.2
aF2.5
aF0.7
aF0.2
aF0.3
aF2.4
aF2.1
aF14.2
aF-1.5
aI13
aI0
aI5
aV2590,1610612766
p1432
aa(lp1433
I101145
aVMonta Ellis
p1434
aI1610612742
aVDAL
p1435
aF29.0
aI80
aI50
aI30
aF0.625
aF33.7
aF7.5
aF16.9
aF0.445
aF1.0
aF3.6
aF0.285
aF2.9
aF3.8
aF0.752
aF0.4
aF2.0
aF2.4
aF4.1
aF2.5
aF1.9
aF0.3
aF0.5
aF2.5
aF3.6
aF18.9
aF2.7
aI3
aI0
aI5
aV101145,1610612742
p1436
aa(lp1437
I101126
aVNate Robinson
p1438
aI1610612743
aVDEN
p1439
aF31.0
aI42
aI22
aI20
aF0.524
aF14.1
aF2.1
aF6.1
aF0.345
aF0.7
aF2.7
aF0.277
aF0.7
aF1.1
aF0.674
aF0.4
aF0.8
aF1.2
aF2.3
aF0.7
aF0.5
aF0.1
aF0.2
aF1.8
aF1.0
aF5.7
aF-3.0
aI0
aI0
aI5
aV101126,1610612743
p1440
aa(lp1441
I203489
aVNate Wolters
p1442
aI1610612749
aVMIL
p1443
aF24.0
aI21
aI14
aI7
aF0.667
aF11.7
aF1.0
aF2.7
aF0.351
aF0.0
aF0.3
aF0.0
aF0.1
aF0.3
aF0.333
aF0.4
aF1.2
aF1.6
aF1.0
aF0.6
aF0.4
aF0.1
aF0.2
aF0.9
aF0.7
aF2.0
aF-0.6
aI0
aI0
aI5
aV203489,1610612749
p1444
aa(lp1445
I1737
aVNazr Mohammed
p1446
aI1610612741
aVCHI
p1447
aF37.0
aI23
aI13
aI10
aF0.565
aF5.6
aF0.6
aF1.3
aF0.433
aF0.0
aF0.0
aF0.0
aF0.0
aF0.1
aF0.333
aF0.5
aF1.2
aF1.7
aF0.1
aF0.3
aF0.2
aF0.2
aF0.1
aF0.7
aF0.1
aF1.2
aF0.4
aI0
aI0
aI5
aV1737,1610612741
p1448
aa(lp1449
I2403
aVNene
p1450
aI1610612764
aVWAS
p1451
aF32.0
aI67
aI37
aI30
aF0.552
aF25.3
aF4.6
aF9.0
aF0.511
aF0.0
aF0.1
aF0.2
aF1.8
aF3.0
aF0.604
aF1.3
aF3.9
aF5.1
aF1.8
aF1.9
aF1.0
aF0.3
aF0.6
aF2.7
aF3.3
aF11.0
aF2.5
aI2
aI0
aI5
aV2403,1610612764
p1452
aa(lp1453
I203457
aVNerlens Noel
p1454
aI1610612755
aVPHI
p1455
aF21.0
aI75
aI18
aI57
aF0.24
aF30.8
aF4.0
aF8.7
aF0.462
aF0.0
aF0.0
aF0.0
aF1.9
aF3.1
aF0.609
aF2.5
aF5.7
aF8.1
aF1.7
aF1.9
aF1.8
aF1.9
aF0.5
aF2.8
aF3.0
aF9.9
aF-5.7
aI18
aI0
aI5
aV203457,1610612755
p1456
aa(lp1457
I201979
aVNick Calathes
p1458
aI1610612763
aVMEM
p1459
aF26.0
aI58
aI36
aI22
aF0.621
aF14.4
aF1.8
aF4.3
aF0.421
aF0.2
aF0.7
aF0.256
aF0.4
aF0.8
aF0.533
aF0.3
aF1.5
aF1.8
aF2.5
aF1.1
aF1.1
aF0.1
aF0.4
aF1.7
aF0.8
aF4.2
aF1.5
aI0
aI0
aI5
aV201979,1610612763
p1460
aa(lp1461
I2555
aVNick Collison
p1462
aI1610612760
aVOKC
p1463
aF34.0
aI66
aI38
aI28
aF0.576
aF16.7
aF1.6
aF3.8
aF0.419
aF0.2
aF0.9
aF0.267
aF0.7
aF1.0
aF0.692
aF1.4
aF2.4
aF3.8
aF1.4
aF0.7
aF0.5
aF0.4
aF0.2
aF2.4
aF1.2
aF4.1
aF1.3
aI0
aI0
aI5
aV2555,1610612760
p1464
aa(lp1465
I203910
aVNick Johnson
p1466
aI1610612745
aVHOU
p1467
aF22.0
aI28
aI18
aI10
aF0.643
aF9.4
aF0.9
aF2.7
aF0.347
aF0.2
aF0.8
aF0.238
aF0.6
aF0.9
aF0.68
aF0.5
aF0.9
aF1.4
aF0.4
aF0.7
aF0.3
aF0.1
aF0.3
aF1.2
aF0.6
aF2.6
aF-1.7
aI0
aI0
aI5
aV203910,1610612745
p1468
aa(lp1469
I201156
aVNick Young
p1470
aI1610612747
aVLAL
p1471
aF30.0
aI42
aI12
aI30
aF0.286
aF23.8
aF4.1
aF11.3
aF0.366
aF2.0
aF5.4
aF0.369
aF3.1
aF3.5
aF0.892
aF0.4
aF1.9
aF2.3
aF1.0
aF1.0
aF0.5
aF0.3
aF0.4
aF2.0
aF2.4
aF13.4
aF-1.6
aI0
aI0
aI5
aV201156,1610612747
p1472
aa(lp1473
I201587
aVNicolas Batum
p1474
aI1610612757
aVPOR
p1475
aF26.0
aI71
aI43
aI28
aF0.606
aF33.5
aF3.4
aF8.5
aF0.4
aF1.4
aF4.4
aF0.324
aF1.2
aF1.4
aF0.857
aF0.9
aF5.0
aF5.9
aF4.8
aF1.9
aF1.1
aF0.6
aF0.2
aF1.5
aF1.4
aF9.4
aF3.0
aI5
aI0
aI5
aV201587,1610612757
p1476
aa(lp1477
I203917
aVNik Stauskas
p1478
aI1610612758
aVSAC
p1479
aF21.0
aI73
aI26
aI47
aF0.356
aF15.4
aF1.5
aF4.1
aF0.365
aF0.7
aF2.0
aF0.322
aF0.8
aF0.9
aF0.859
aF0.2
aF1.1
aF1.2
aF0.9
aF0.5
aF0.3
aF0.2
aF0.3
aF1.3
aF0.7
aF4.4
aF-1.8
aI0
aI0
aI5
aV203917,1610612758
p1480
aa(lp1481
I202703
aVNikola Mirotic
p1482
aI1610612741
aVCHI
p1483
aF24.0
aI82
aI50
aI32
aF0.61
aF20.2
aF3.1
aF7.6
aF0.405
aF1.2
aF3.8
aF0.316
aF2.8
aF3.5
aF0.803
aF0.8
aF4.2
aF4.9
aF1.2
aF1.1
aF0.7
aF0.7
aF0.4
aF2.1
aF2.7
aF10.2
aF2.1
aI8
aI0
aI5
aV202703,1610612741
p1484
aa(lp1485
I201593
aVNikola Pekovic
p1486
aI1610612750
aVMIN
p1487
aF29.0
aI31
aI9
aI22
aF0.29
aF26.3
aF4.5
aF10.6
aF0.424
aF0.0
aF0.0
aF0.0
aF3.5
aF4.2
aF0.837
aF2.9
aF4.7
aF7.5
aF0.9
aF1.4
aF0.6
aF0.4
aF1.5
aF1.9
aF3.4
aF12.5
aF-1.9
aI11
aI0
aI5
aV201593,1610612750
p1488
aa(lp1489
I202696
aVNikola Vucevic
p1490
aI1610612753
aVORL
p1491
aF24.0
aI74
aI21
aI53
aF0.284
aF34.2
aF8.5
aF16.3
aF0.523
aF0.0
aF0.1
aF0.333
aF2.2
aF2.9
aF0.752
aF3.2
aF7.7
aF10.9
aF2.0
aF2.0
aF0.7
aF0.7
aF0.6
aF3.0
aF2.9
aF19.3
aF-4.1
aI45
aI0
aI5
aV202696,1610612753
p1492
aa(lp1493
I203943
aVNoah Vonleh
p1494
aI1610612766
aVCHA
p1495
aF19.0
aI25
aI8
aI17
aF0.32
aF10.3
aF1.2
aF3.0
aF0.395
aF0.2
aF0.5
aF0.385
aF0.7
aF1.0
aF0.692
aF1.1
aF2.3
aF3.4
aF0.2
aF0.4
aF0.2
aF0.4
aF0.5
aF0.8
aF1.0
aF3.3
aF-2.7
aI1
aI0
aI5
aV203943,1610612766
p1496
aa(lp1497
I202708
aVNorris Cole
p1498
aI1610612740
aVNOP
p1499
aF26.0
aI75
aI37
aI38
aF0.493
aF24.4
aF3.1
aF7.4
aF0.412
aF0.7
aF2.3
aF0.313
aF0.8
aF1.1
aF0.716
aF0.2
aF1.9
aF2.1
aF3.4
aF1.3
aF0.8
aF0.2
aF0.4
aF1.7
aF1.2
aF7.6
aF-2.4
aI0
aI0
aI5
aV202708,1610612740
p1500
aa(lp1501
I201564
aVO.J. Mayo
p1502
aI1610612749
aVMIL
p1503
aF27.0
aI71
aI39
aI32
aF0.549
aF23.9
aF4.2
aF9.9
aF0.422
aF1.4
aF3.9
aF0.357
aF1.6
aF2.0
aF0.827
aF0.4
aF2.2
aF2.6
aF2.8
aF1.8
aF0.8
aF0.3
aF0.4
aF2.3
aF1.7
aF11.4
aF-0.9
aI0
aI0
aI5
aV201564,1610612749
p1504
aa(lp1505
I203136
aVOgnjen Kuzmic
p1506
aI1610612744
aVGSW
p1507
aF25.0
aI16
aI13
aI3
aF0.813
aF4.5
aF0.5
aF0.8
aF0.667
aF0.0
aF0.0
aF0.0
aF0.3
aF0.3
aF1.0
aF0.4
aF0.6
aF1.1
aF0.4
aF0.3
aF0.1
aF0.1
aF0.0
aF0.8
aF0.1
aF1.3
aF-2.4
aI0
aI0
aI5
aV203136,1610612744
p1508
aa(lp1509
I201600
aVOmer Asik
p1510
aI1610612740
aVNOP
p1511
aF28.0
aI76
aI43
aI33
aF0.566
aF26.1
aF2.8
aF5.4
aF0.517
aF0.0
aF0.0
aF0.0
aF1.7
aF3.0
aF0.582
aF3.2
aF6.6
aF9.8
aF0.9
aF1.3
aF0.4
aF0.7
aF1.2
aF1.9
aF2.4
aF7.3
aF0.3
aI13
aI0
aI5
aV201600,1610612740
p1512
aa(lp1513
I201956
aVOmri Casspi
p1514
aI1610612758
aVSAC
p1515
aF27.0
aI67
aI23
aI44
aF0.343
aF21.1
aF3.1
aF6.4
aF0.489
aF0.5
aF1.3
aF0.402
aF2.1
aF2.9
aF0.733
aF0.8
aF3.1
aF3.9
aF1.5
aF1.3
aF0.5
aF0.1
aF0.5
aF1.6
aF2.1
aF8.9
aF-2.7
aI1
aI0
aI5
aV201956,1610612758
p1516
aa(lp1517
I203490
aVOtto Porter
p1518
aI1610612764
aVWAS
p1519
aF22.0
aI74
aI41
aI33
aF0.554
aF19.4
aF2.4
aF5.3
aF0.45
aF0.5
aF1.4
aF0.337
aF0.8
aF1.1
aF0.734
aF0.9
aF2.0
aF3.0
aF0.9
aF0.7
aF0.6
aF0.4
aF0.2
aF1.3
aF1.0
aF6.0
aF-0.5
aI0
aI0
aI5
aV203490,1610612764
p1520
aa(lp1521
I203798
aVPJ Hairston
p1522
aI1610612766
aVCHA
p1523
aF22.0
aI45
aI19
aI26
aF0.422
aF15.3
aF1.9
aF6.0
aF0.323
aF1.1
aF3.6
aF0.301
aF0.7
aF0.8
aF0.861
aF0.5
aF1.6
aF2.0
aF0.5
aF0.5
aF0.5
aF0.3
aF0.2
aF1.4
aF0.8
aF5.6
aF-2.3
aI1
aI0
aI5
aV203798,1610612766
p1524
aa(lp1525
I200782
aVPJ Tucker
p1526
aI1610612756
aVPHX
p1527
aF30.0
aI78
aI36
aI42
aF0.462
aF30.6
aF3.3
aF7.6
aF0.438
aF1.1
aF3.2
aF0.345
aF1.3
aF1.8
aF0.727
aF1.5
aF5.0
aF6.4
aF1.6
aF1.2
aF1.4
aF0.3
aF0.4
aF2.3
aF2.1
aF9.1
aF-0.6
aI4
aI0
aI5
aV200782,1610612756
p1528
aa(lp1529
I203143
aVPablo Prigioni
p1530
aI1610612745
aVHOU
p1531
aF38.0
aI67
aI25
aI42
aF0.373
aF17.9
aF1.4
aF3.4
aF0.399
aF0.9
aF2.5
aF0.343
aF0.5
aF0.6
aF0.854
aF0.4
aF1.3
aF1.8
aF2.6
aF0.9
aF1.2
aF0.0
aF0.1
aF1.3
aF0.9
aF4.1
aF-0.9
aI0
aI0
aI5
aV203143,1610612745
p1532
aa(lp1533
I201976
aVPatrick Beverley
p1534
aI1610612745
aVHOU
p1535
aF26.0
aI56
aI35
aI21
aF0.625
aF30.8
aF3.6
aF9.5
aF0.383
aF2.1
aF5.8
aF0.356
aF0.8
aF1.1
aF0.75
aF1.2
aF3.0
aF4.2
aF3.4
aF1.5
aF1.1
aF0.4
aF0.6
aF3.3
aF1.4
aF10.1
aF1.3
aI2
aI0
aI5
aV201976,1610612745
p1536
aa(lp1537
I203565
aVPatrick Christopher
p1538
aI1610612763
aVMEM
p1539
aF27.0
aI4
aI2
aI2
aF0.5
aF7.2
aF0.8
aF3.0
aF0.25
aF0.0
aF1.0
aF0.0
aF0.0
aF0.0
aF0.0
aF0.5
aF1.0
aF1.5
aF0.0
aF0.3
aF0.3
aF0.0
aF0.5
aF1.5
aF0.3
aF1.5
aF-4.5
aI0
aI0
aI5
aV203565,1610612763
p1540
aa(lp1541
I202335
aVPatrick Patterson
p1542
aI1610612761
aVTOR
p1543
aF26.0
aI81
aI49
aI32
aF0.605
aF26.6
aF3.0
aF6.6
aF0.449
aF1.3
aF3.5
aF0.371
aF0.8
aF1.0
aF0.788
aF1.6
aF3.8
aF5.3
aF1.9
aF0.7
aF0.7
aF0.5
aF0.2
aF1.8
aF1.0
aF8.0
aF3.1
aI3
aI0
aI5
aV202335,1610612761
p1544
aa(lp1545
I201988
aVPatty Mills
p1546
aI1610612759
aVSAS
p1547
aF26.0
aI51
aI37
aI14
aF0.725
aF15.7
aF2.5
aF6.6
aF0.381
aF1.2
aF3.6
aF0.341
aF0.6
aF0.8
aF0.825
aF0.4
aF1.1
aF1.5
aF1.7
aF0.7
aF0.5
aF0.0
aF0.2
aF1.1
aF1.0
aF6.9
aF3.1
aI0
aI0
aI5
aV201988,1610612759
p1548
aa(lp1549
I2200
aVPau Gasol
p1550
aI1610612741
aVCHI
p1551
aF34.0
aI78
aI48
aI30
aF0.615
aF34.4
aF7.3
aF14.8
aF0.494
aF0.2
aF0.3
aF0.462
aF3.8
aF4.7
aF0.803
aF2.8
aF9.0
aF11.8
aF2.7
aF2.0
aF0.3
aF1.9
aF0.8
aF1.9
aF4.2
aF18.5
aF2.4
aI54
aI0
aI5
aV2200,1610612741
p1552
aa(lp1553
I202331
aVPaul George
p1554
aI1610612754
aVIND
p1555
aF25.0
aI6
aI5
aI1
aF0.833
aF15.2
aF3.0
aF8.2
aF0.367
aF1.5
aF3.7
aF0.409
aF1.3
aF1.8
aF0.727
aF0.7
aF3.0
aF3.7
aF1.0
aF2.0
aF0.8
aF0.2
aF0.0
aF1.8
aF1.3
aF8.8
aF2.5
aI0
aI0
aI5
aV202331,1610612754
p1556
aa(lp1557
I200794
aVPaul Millsap
p1558
aI1610612737
aVATL
p1559
aF30.0
aI73
aI55
aI18
aF0.753
aF32.7
aF6.1
aF12.7
aF0.476
aF1.1
aF3.0
aF0.356
aF3.5
aF4.6
aF0.757
aF1.9
aF5.9
aF7.8
aF3.1
aF2.3
aF1.8
aF0.9
aF0.9
aF2.8
aF4.0
aF16.7
aF5.6
aI15
aI0
aI5
aV200794,1610612737
p1560
aa(lp1561
I1718
aVPaul Pierce
p1562
aI1610612764
aVWAS
p1563
aF37.0
aI73
aI40
aI33
aF0.548
aF26.2
aF4.0
aF9.0
aF0.447
aF1.6
aF4.2
aF0.389
aF2.2
aF2.9
aF0.781
aF0.6
aF3.4
aF4.0
aF2.0
aF1.3
aF0.6
aF0.3
aF0.4
aF2.2
aF2.3
aF11.9
aF2.2
aI2
aI0
aI5
aV1718,1610612764
p1564
aa(lp1565
I203544
aVPero Antic
p1566
aI1610612737
aVATL
p1567
aF32.0
aI63
aI46
aI17
aF0.73
aF16.5
aF1.7
aF4.7
aF0.365
aF0.8
aF2.7
aF0.301
aF1.4
aF2.0
aF0.715
aF0.9
aF2.1
aF3.0
aF0.8
aF0.8
aF0.3
aF0.2
aF0.3
aF2.1
aF2.0
aF5.7
aF2.5
aI0
aI0
aI5
aV203544,1610612737
p1568
aa(lp1569
I203103
aVPerry Jones
p1570
aI1610612760
aVOKC
p1571
aF23.0
aI43
aI23
aI20
aF0.535
aF14.7
aF1.7
aF4.3
aF0.397
aF0.3
aF1.4
aF0.233
aF0.6
aF0.9
aF0.649
aF0.1
aF1.6
aF1.8
aF0.4
aF0.6
aF0.4
aF0.2
aF0.2
aF1.2
aF0.8
aF4.3
aF-3.1
aI0
aI0
aI5
aV203103,1610612760
p1572
aa(lp1573
I203515
aVPhil Pressey
p1574
aI1610612738
aVBOS
p1575
aF24.0
aI50
aI22
aI28
aF0.44
aF12.0
aF1.3
aF3.5
aF0.368
aF0.3
aF1.3
aF0.246
aF0.7
aF1.0
aF0.673
aF0.3
aF1.3
aF1.6
aF2.3
aF0.8
aF0.6
aF0.1
aF0.3
aF1.1
aF1.1
aF3.5
aF0.0
aI1
aI0
aI5
aV203515,1610612738
p1576
aa(lp1577
I203112
aVQuincy Acy
p1578
aI1610612752
aVNYK
p1579
aF24.0
aI68
aI12
aI56
aF0.176
aF18.9
aF2.2
aF4.9
aF0.459
aF0.3
aF0.9
aF0.3
aF1.1
aF1.4
aF0.784
aF1.2
aF3.3
aF4.4
aF1.0
aF0.9
aF0.4
aF0.3
aF0.1
aF2.2
aF1.6
aF5.9
aF-3.1
aI1
aI0
aI5
aV203112,1610612752
p1580
aa(lp1581
I203113
aVQuincy Miller
p1582
aI1610612765
aVDET
p1583
aF22.0
aI10
aI2
aI8
aF0.2
aF12.0
aF0.9
aF3.8
aF0.237
aF0.3
aF1.8
aF0.167
aF0.8
aF1.1
aF0.727
aF0.4
aF1.6
aF2.0
aF0.8
aF0.5
aF0.7
aF0.5
aF0.5
aF0.9
aF0.7
aF2.9
aF4.1
aI0
aI0
aI5
aV203113,1610612765
p1584
aa(lp1585
I202347
aVQuincy Pondexter
p1586
aI1610612740
aVNOP
p1587
aF27.0
aI75
aI48
aI27
aF0.64
aF23.9
aF2.5
aF6.0
aF0.421
aF1.2
aF3.3
aF0.373
aF0.9
aF1.3
aF0.74
aF0.7
aF1.9
aF2.6
aF1.3
aF0.7
aF0.3
aF0.3
aF0.3
aF2.0
aF1.2
aF7.2
aF0.2
aI0
aI0
aI5
aV202347,1610612740
p1588
aa(lp1589
I200765
aVRajon Rondo
p1590
aI1610612742
aVDAL
p1591
aF29.0
aI68
aI34
aI34
aF0.5
aF29.7
aF4.0
aF9.5
aF0.426
aF0.4
aF1.3
aF0.314
aF0.5
aF1.1
aF0.397
aF1.1
aF4.4
aF5.5
aF7.9
aF3.1
aF1.3
aF0.1
aF0.5
aF2.3
aF1.6
aF8.9
aF-0.8
aI15
aI3
aI5
aV200765,1610612742
p1592
aa(lp1593
I201196
aVRamon Sessions
p1594
aI1610612764
aVWAS
p1595
aF29.0
aI64
aI26
aI38
aF0.406
aF18.6
aF2.0
aF5.2
aF0.374
aF0.3
aF0.9
aF0.317
aF2.1
aF2.7
aF0.769
aF0.4
aF1.9
aF2.3
aF2.8
aF1.3
aF0.5
aF0.0
aF0.3
aF1.1
aF2.1
aF6.3
aF-2.5
aI0
aI0
aI5
aV201196,1610612764
p1596
aa(lp1597
I200751
aVRandy Foye
p1598
aI1610612743
aVDEN
p1599
aF31.0
aI50
aI15
aI35
aF0.3
aF21.7
aF3.0
aF8.0
aF0.368
aF1.9
aF5.3
aF0.357
aF0.9
aF1.1
aF0.818
aF0.2
aF1.5
aF1.7
aF2.4
aF1.2
aF0.7
aF0.2
aF0.3
aF1.9
aF1.0
aF8.7
aF-2.1
aI0
aI0
aI5
aV200751,1610612743
p1600
aa(lp1601
I2446
aVRasual Butler
p1602
aI1610612764
aVWAS
p1603
aF36.0
aI75
aI39
aI36
aF0.52
aF20.1
aF2.9
aF6.9
aF0.422
aF1.2
aF3.1
aF0.387
aF0.7
aF0.9
aF0.791
aF0.4
aF2.3
aF2.6
aF0.8
aF0.6
aF0.4
aF0.3
aF0.2
aF1.3
aF0.7
aF7.7
aF-0.7
aI0
aI0
aI5
aV2446,1610612764
p1604
aa(lp1605
I203492
aVRay McCallum
p1606
aI1610612758
aVSAC
p1607
aF24.0
aI68
aI22
aI46
aF0.324
aF21.1
aF3.0
aF6.9
aF0.438
aF0.5
aF1.6
aF0.306
aF0.8
aF1.2
aF0.679
aF0.8
aF1.9
aF2.6
aF2.8
aF1.3
aF0.7
aF0.2
aF0.5
aF1.4
aF1.2
aF7.4
aF-3.5
aI0
aI0
aI5
aV203492,1610612758
p1608
aa(lp1609
I101109
aVRaymond Felton
p1610
aI1610612742
aVDAL
p1611
aF31.0
aI29
aI14
aI15
aF0.483
aF9.7
aF1.5
aF3.7
aF0.406
aF0.3
aF1.2
aF0.294
aF0.4
aF0.5
aF0.8
aF0.1
aF0.8
aF0.9
aF1.4
aF0.6
aF0.4
aF0.1
aF0.2
aF0.6
aF0.6
aF3.7
aF-0.7
aI0
aI0
aI5
aV101109,1610612742
p1612
aa(lp1613
I203493
aVReggie Bullock
p1614
aI1610612756
aVPHX
p1615
aF24.0
aI36
aI19
aI17
aF0.528
aF9.4
aF0.7
aF1.9
aF0.343
aF0.4
aF1.3
aF0.326
aF0.2
aF0.3
aF0.667
aF0.0
aF1.4
aF1.4
aF0.2
aF0.2
aF0.3
aF0.1
aF0.1
aF0.5
aF0.2
aF1.9
aF-0.2
aI0
aI0
aI5
aV203493,1610612756
p1616
aa(lp1617
I2501
aVReggie Evans
p1618
aI1610612758
aVSAC
p1619
aF35.0
aI47
aI16
aI31
aF0.34
aF16.3
aF1.2
aF2.9
aF0.423
aF0.0
aF0.0
aF0.0
aF1.3
aF2.1
aF0.619
aF2.1
aF4.3
aF6.4
aF0.7
aF1.0
aF0.5
aF0.1
aF0.7
aF1.9
aF1.7
aF3.7
aF-0.9
aI2
aI0
aI5
aV2501,1610612758
p1620
aa(lp1621
I202704
aVReggie Jackson
p1622
aI1610612765
aVDET
p1623
aF25.0
aI77
aI37
aI40
aF0.481
aF29.5
aF5.6
aF12.9
aF0.434
aF0.9
aF3.1
aF0.299
aF2.4
aF2.8
aF0.83
aF0.7
aF3.5
aF4.2
aF6.0
aF2.4
aF0.8
aF0.1
aF0.9
aF2.2
aF2.7
aF14.5
aF1.5
aI15
aI2
aI5
aV202704,1610612765
p1624
aa(lp1625
I202130
aVReggie Williams
p1626
aI1610612759
aVSAS
p1627
aF28.0
aI20
aI15
aI5
aF0.75
aF5.3
aF0.8
aF2.0
aF0.385
aF0.2
aF1.0
aF0.158
aF0.2
aF0.2
aF1.0
aF0.3
aF0.6
aF0.9
aF0.5
aF0.1
aF0.1
aF0.0
aF0.1
aF0.6
aF0.2
aF1.9
aF-1.8
aI0
aI0
aI5
aV202130,1610612759
p1628
aa(lp1629
I2210
aVRichard Jefferson
p1630
aI1610612742
aVDAL
p1631
aF35.0
aI74
aI46
aI28
aF0.622
aF16.8
aF1.9
aF4.4
aF0.444
aF0.9
aF2.1
aF0.426
aF1.1
aF1.5
aF0.684
aF0.3
aF2.1
aF2.5
aF0.8
aF0.7
aF0.4
aF0.1
aF0.3
aF1.6
aF1.3
aF5.8
aF0.2
aI2
aI0
aI5
aV2210,1610612742
p1632
aa(lp1633
I203495
aVRicky Ledo
p1634
aI1610612752
aVNYK
p1635
aF22.0
aI17
aI4
aI13
aF0.235
aF14.4
aF1.9
aF5.6
aF0.333
aF0.6
aF1.6
aF0.37
aF0.9
aF1.3
aF0.727
aF0.9
aF1.2
aF2.1
aF1.1
aF1.5
aF0.4
aF0.1
aF0.6
aF1.2
aF1.1
aF5.3
aF-3.1
aI0
aI0
aI5
aV203495,1610612752
p1636
aa(lp1637
I201937
aVRicky Rubio
p1638
aI1610612750
aVMIN
p1639
aF24.0
aI22
aI7
aI15
aF0.318
aF31.5
aF3.5
aF10.0
aF0.356
aF0.6
aF2.3
aF0.255
aF2.6
aF3.2
aF0.803
aF0.9
aF4.8
aF5.7
aF8.8
aF2.9
aF1.7
aF0.0
aF0.5
aF2.7
aF3.8
aF10.3
aF-0.5
aI7
aI1
aI5
aV201937,1610612750
p1640
aa(lp1641
I203133
aVRobbie Hummel
p1642
aI1610612750
aVMIN
p1643
aF26.0
aI45
aI5
aI40
aF0.111
aF16.5
aF1.8
aF3.8
aF0.459
aF0.4
aF1.1
aF0.314
aF0.5
aF0.6
aF0.828
aF0.7
aF2.3
aF3.0
aF0.6
aF0.4
aF0.4
aF0.2
aF0.1
aF1.9
aF1.1
aF4.4
aF-3.3
aI2
aI0
aI5
aV203133,1610612750
p1644
aa(lp1645
I203496
aVRobert Covington
p1646
aI1610612755
aVPHI
p1647
aF24.0
aI70
aI18
aI52
aF0.257
aF27.9
aF4.3
aF10.8
aF0.396
aF2.4
aF6.4
aF0.374
aF2.5
aF3.1
aF0.82
aF0.9
aF3.6
aF4.5
aF1.5
aF1.8
aF1.4
aF0.4
aF0.5
aF2.7
aF2.3
aF13.5
aF-2.1
aI1
aI0
aI5
aV203496,1610612755
p1648
aa(lp1649
I203135
aVRobert Sacre
p1650
aI1610612747
aVLAL
p1651
aF26.0
aI67
aI19
aI48
aF0.284
aF16.9
aF1.9
aF4.6
aF0.412
aF0.0
aF0.0
aF0.0
aF0.8
aF1.2
aF0.671
aF1.3
aF2.1
aF3.5
aF0.8
aF0.5
aF0.4
aF0.6
aF0.2
aF1.8
aF1.1
aF4.6
aF-1.0
aI0
aI0
aI5
aV203135,1610612747
p1652
aa(lp1653
I201577
aVRobin Lopez
p1654
aI1610612757
aVPOR
p1655
aF27.0
aI59
aI38
aI21
aF0.644
aF27.8
aF4.0
aF7.4
aF0.535
aF0.0
aF0.0
aF0.0
aF1.7
aF2.2
aF0.772
aF3.2
aF3.5
aF6.7
aF0.9
aF1.2
aF0.3
aF1.4
aF0.5
aF2.1
aF2.1
aF9.6
aF2.5
aI6
aI0
aI5
aV201577,1610612757
p1656
aa(lp1657
I203918
aVRodney Hood
p1658
aI1610612762
aVUTA
p1659
aF22.0
aI50
aI27
aI23
aF0.54
aF21.3
aF3.1
aF7.5
aF0.414
aF1.2
aF3.4
aF0.365
aF1.2
aF1.6
aF0.763
aF0.2
aF2.2
aF2.3
aF1.7
aF0.9
aF0.6
aF0.2
aF0.2
aF2.4
aF1.0
aF8.7
aF1.2
aI0
aI0
aI5
aV203918,1610612762
p1660
aa(lp1661
I201155
aVRodney Stuckey
p1662
aI1610612754
aVIND
p1663
aF29.0
aI71
aI34
aI37
aF0.479
aF26.4
aF4.7
aF10.6
aF0.44
aF0.8
aF2.0
aF0.39
aF2.5
aF3.0
aF0.819
aF0.5
aF3.0
aF3.5
aF3.1
aF1.7
aF0.8
aF0.1
aF0.7
aF1.8
aF2.7
aF12.6
aF-0.3
aI2
aI0
aI5
aV201155,1610612754
p1664
aa(lp1665
I101179
aVRonnie Price
p1666
aI1610612747
aVLAL
p1667
aF32.0
aI43
aI13
aI30
aF0.302
aF22.8
aF1.8
aF5.2
aF0.345
aF0.7
aF2.5
aF0.284
aF0.8
aF1.0
aF0.8
aF0.4
aF1.2
aF1.6
aF3.8
aF1.2
aF1.6
aF0.1
aF0.2
aF2.7
aF1.2
aF5.1
aF-1.7
aI0
aI0
aI5
aV101179,1610612747
p1668
aa(lp1669
I101142
aVRonny Turiaf
p1670
aI1610612750
aVMIN
p1671
aF32.0
aI2
aI0
aI2
aF0.0
aF9.7
aF0.0
aF0.0
aF0.0
aF0.0
aF0.0
aF0.0
aF0.0
aF0.0
aF0.0
aF0.0
aF0.5
aF0.5
aF1.0
aF0.0
aF0.0
aF0.0
aF0.0
aF0.0
aF0.0
aF0.0
aF-4.0
aI0
aI0
aI5
aV101142,1610612750
p1672
aa(lp1673
I201579
aVRoy Hibbert
p1674
aI1610612754
aVIND
p1675
aF28.0
aI76
aI34
aI42
aF0.447
aF25.3
aF4.2
aF9.3
aF0.446
aF0.0
aF0.0
aF0.0
aF2.2
aF2.7
aF0.824
aF2.1
aF5.1
aF7.1
aF1.1
aF1.4
aF0.2
aF1.6
aF0.6
aF2.8
aF3.2
aF10.6
aF-0.8
aI18
aI0
aI5
aV201579,1610612754
p1676
aa(lp1677
I200752
aVRudy Gay
p1678
aI1610612758
aVSAC
p1679
aF28.0
aI68
aI25
aI43
aF0.368
aF35.4
aF7.5
aF16.4
aF0.455
aF1.2
aF3.2
aF0.359
aF5.0
aF5.8
aF0.858
aF1.4
aF4.4
aF5.9
aF3.7
aF2.7
aF1.0
aF0.6
aF0.9
aF2.3
aF3.9
aF21.1
aF-1.5
aI2
aI0
aI5
aV200752,1610612758
p1680
aa(lp1681
I203497
aVRudy Gobert
p1682
aI1610612762
aVUTA
p1683
aF23.0
aI82
aI38
aI44
aF0.463
aF26.3
aF3.1
aF5.2
aF0.604
aF0.0
aF0.0
aF0.0
aF2.1
aF3.3
aF0.623
aF3.2
aF6.2
aF9.5
aF1.3
aF1.4
aF0.8
aF2.3
aF0.5
aF2.1
aF2.8
aF8.4
aF0.1
aI25
aI0
aI5
aV203497,1610612762
p1684
aa(lp1685
I203893
aVRuss Smith
p1686
aI1610612763
aVMEM
p1687
aF24.0
aI12
aI7
aI5
aF0.583
aF5.4
aF0.7
aF2.1
aF0.32
aF0.2
aF0.9
aF0.182
aF1.0
aF1.1
aF0.923
aF0.1
aF0.4
aF0.5
aF0.7
aF1.0
aF0.3
aF0.0
aF0.1
aF1.1
aF0.6
aF2.5
aF1.8
aI0
aI0
aI5
aV203893,1610612763
p1688
aa(lp1689
I201566
aVRussell Westbrook
p1690
aI1610612760
aVOKC
p1691
aF26.0
aI67
aI40
aI27
aF0.597
aF34.4
aF9.4
aF22.0
aF0.426
aF1.3
aF4.3
aF0.299
aF8.1
aF9.8
aF0.835
aF1.9
aF5.4
aF7.3
aF8.6
aF4.4
aF2.1
aF0.2
aF1.3
aF2.7
aF6.6
aF28.1
aF3.7
aI31
aI11
aI5
aV201566,1610612760
p1692
aa(lp1693
I201583
aVRyan Anderson
p1694
aI1610612740
aVNOP
p1695
aF27.0
aI61
aI33
aI28
aF0.541
aF27.5
aF4.8
aF12.0
aF0.399
aF2.0
aF5.9
aF0.34
aF2.1
aF2.5
aF0.854
aF1.8
aF3.1
aF4.8
aF0.9
aF1.0
aF0.5
aF0.3
aF0.5
aF1.9
aF2.2
aF13.7
aF-0.3
aI3
aI0
aI5
aV201583,1610612740
p1696
aa(lp1697
I200797
aVRyan Hollins
p1698
aI1610612758
aVSAC
p1699
aF30.0
aI46
aI13
aI33
aF0.283
aF9.6
aF1.2
aF1.8
aF0.646
aF0.0
aF0.0
aF0.0
aF0.7
aF1.2
aF0.574
aF0.8
aF1.5
aF2.2
aF0.3
aF0.5
aF0.1
aF0.4
aF0.2
aF1.4
aF1.2
aF3.0
aF-1.2
aI0
aI0
aI5
aV200797,1610612758
p1700
aa(lp1701
I203527
aVRyan Kelly
p1702
aI1610612747
aVLAL
p1703
aF24.0
aI52
aI11
aI41
aF0.212
aF23.7
aF2.0
aF5.9
aF0.337
aF0.9
aF2.6
aF0.336
aF1.5
aF1.8
aF0.832
aF0.3
aF2.6
aF2.8
aF1.8
aF0.7
aF0.6
aF0.5
aF0.2
aF2.3
aF1.1
aF6.4
aF-2.8
aI0
aI0
aI5
aV203527,1610612747
p1704
aa(lp1705
I2223
aVSamuel Dalembert
p1706
aI1610612752
aVNYK
p1707
aF35.0
aI32
aI5
aI27
aF0.156
aF17.0
aF1.8
aF4.1
aF0.438
aF0.0
aF0.0
aF0.0
aF0.4
aF0.6
aF0.7
aF1.7
aF3.6
aF5.3
aF0.9
aF1.2
aF0.4
aF1.3
aF0.2
aF2.2
aF0.9
aF4.0
aF-5.4
aI1
aI0
aI5
aV2223,1610612752
p1708
aa(lp1709
I203930
aVSean Kilpatrick
p1710
aI1610612750
aVMIN
p1711
aF25.0
aI4
aI2
aI2
aF0.5
aF17.9
aF1.8
aF5.0
aF0.35
aF1.0
aF3.3
aF0.308
aF1.0
aF1.0
aF1.0
aF0.3
aF1.3
aF1.5
aF1.0
aF0.5
aF0.8
aF0.0
aF0.3
aF0.8
aF0.8
aF5.5
aF4.3
aI0
aI0
aI5
aV203930,1610612750
p1712
aa(lp1713
I2742
aVSebastian Telfair
p1714
aI1610612760
aVOKC
p1715
aF30.0
aI16
aI4
aI12
aF0.25
aF20.4
aF2.9
aF7.8
aF0.368
aF1.1
aF3.8
aF0.3
aF1.5
aF2.1
aF0.706
aF0.1
aF1.8
aF1.9
aF2.8
aF1.1
aF0.6
aF0.0
aF0.6
aF1.8
aF2.3
aF8.4
aF-3.9
aI0
aI0
aI5
aV2742,1610612760
p1716
aa(lp1717
I201586
aVSerge Ibaka
p1718
aI1610612760
aVOKC
p1719
aF25.0
aI64
aI35
aI29
aF0.547
aF33.1
aF5.8
aF12.3
aF0.476
aF1.2
aF3.2
aF0.376
aF1.4
aF1.7
aF0.836
aF2.1
aF5.7
aF7.8
aF0.9
aF1.5
aF0.5
aF2.4
aF0.4
aF3.0
aF1.8
aF14.3
aF2.5
aI17
aI0
aI5
aV201586,1610612760
p1720
aa(lp1721
I203508
aVSergey Karasev
p1722
aI1610612751
aVBKN
p1723
aF21.0
aI33
aI12
aI21
aF0.364
aF16.8
aF1.6
aF4.1
aF0.403
aF0.5
aF1.6
aF0.296
aF0.9
aF1.2
aF0.763
aF0.7
aF1.3
aF2.0
aF1.4
aF0.7
aF0.7
aF0.0
aF0.3
aF1.4
aF1.0
aF4.6
aF0.5
aI0
aI0
aI5
aV203508,1610612751
p1724
aa(lp1725
I203552
aVSeth Curry
p1726
aI1610612756
aVPHX
p1727
aF24.0
aI2
aI2
aI0
aF1.0
aF3.9
aF0.0
aF1.5
aF0.0
aF0.0
aF0.5
aF0.0
aF0.0
aF0.0
aF0.0
aF0.0
aF1.0
aF1.0
aF0.5
aF0.0
aF0.0
aF0.0
aF0.0
aF1.0
aF0.0
aF0.0
aF-2.0
aI0
aI0
aI5
aV203552,1610612756
p1728
aa(lp1729
I203498
aVShabazz Muhammad
p1730
aI1610612750
aVMIN
p1731
aF22.0
aI38
aI6
aI32
aF0.158
aF22.8
aF5.1
aF10.4
aF0.489
aF0.5
aF1.3
aF0.392
aF2.7
aF3.8
aF0.717
aF1.7
aF2.4
aF4.1
aF1.2
aF0.9
aF0.5
aF0.2
aF0.9
aF1.3
aF3.2
aF13.5
aF-4.2
aI1
aI0
aI5
aV203498,1610612750
p1732
aa(lp1733
I203894
aVShabazz Napier
p1734
aI1610612748
aVMIA
p1735
aF23.0
aI51
aI24
aI27
aF0.471
aF19.8
aF1.7
aF4.5
aF0.382
aF0.8
aF2.3
aF0.364
aF0.9
aF1.1
aF0.786
aF0.3
aF1.9
aF2.2
aF2.5
aF1.6
aF0.8
aF0.1
aF0.2
aF1.5
aF1.5
aF5.1
aF-0.7
aI0
aI0
aI5
aV203894,1610612748
p1736
aa(lp1737
I203499
aVShane Larkin
p1738
aI1610612752
aVNYK
p1739
aF22.0
aI76
aI16
aI60
aF0.211
aF24.5
aF2.5
aF5.7
aF0.433
aF0.5
aF1.5
aF0.302
aF0.8
aF1.0
aF0.782
aF0.4
aF1.9
aF2.3
aF3.0
aF1.1
aF1.2
aF0.1
aF0.4
aF2.0
aF1.2
aF6.2
aF-5.3
aI1
aI0
aI5
aV203499,1610612752
p1740
aa(lp1741
I200769
aVShannon Brown
p1742
aI1610612748
aVMIA
p1743
aF29.0
aI5
aI3
aI2
aF0.6
aF17.8
aF1.4
aF3.8
aF0.368
aF0.6
aF1.4
aF0.429
aF0.6
aF0.8
aF0.75
aF0.0
aF0.2
aF0.2
aF0.6
aF0.8
aF0.8
aF0.0
aF0.0
aF1.6
aF0.8
aF4.0
aF-3.2
aI0
aI0
aI5
aV200769,1610612748
p1744
aa(lp1745
I2733
aVShaun Livingston
p1746
aI1610612744
aVGSW
p1747
aF29.0
aI78
aI64
aI14
aF0.821
aF18.8
aF2.5
aF5.1
aF0.5
aF0.0
aF0.0
aF0.0
aF0.8
aF1.2
aF0.714
aF0.6
aF1.8
aF2.3
aF3.3
aF1.3
aF0.6
aF0.3
aF0.2
aF1.4
aF1.2
aF5.9
aF0.7
aI1
aI0
aI5
aV2733,1610612744
p1748
aa(lp1749
I101183
aVShavlik Randolph
p1750
aI1610612756
aVPHX
p1751
aF31.0
aI21
aI11
aI10
aF0.524
aF6.0
aF0.4
aF1.7
aF0.257
aF0.0
aF0.2
aF0.0
aF0.3
aF0.6
aF0.5
aF0.8
aF1.0
aF1.8
aF0.2
aF0.1
aF0.2
aF0.1
aF0.1
aF0.8
aF0.6
aF1.1
aF-1.1
aI0
aI0
aI5
aV101183,1610612756
p1752
aa(lp1753
I1890
aVShawn Marion
p1754
aI1610612739
aVCLE
p1755
aF37.0
aI57
aI36
aI21
aF0.632
aF19.3
aF2.1
aF4.7
aF0.446
aF0.2
aF0.8
aF0.261
aF0.5
aF0.6
aF0.765
aF1.1
aF2.4
aF3.5
aF0.9
aF0.6
aF0.5
aF0.5
aF0.4
aF1.0
aF0.5
aF4.8
aF0.9
aI0
aI0
aI5
aV1890,1610612739
p1756
aa(lp1757
I200761
aVShawne Williams
p1758
aI1610612765
aVDET
p1759
aF29.0
aI63
aI26
aI37
aF0.413
aF17.2
aF1.9
aF4.8
aF0.403
aF1.0
aF2.8
aF0.36
aF0.6
aF0.6
aF0.875
aF0.6
aF2.1
aF2.6
aF0.7
aF0.5
aF0.4
aF0.3
aF0.2
aF2.1
aF0.6
aF5.4
aF-1.6
aI1
aI0
aI5
aV200761,1610612765
p1760
aa(lp1761
I203963
aVShayne Whittington
p1762
aI1610612754
aVIND
p1763
aF24.0
aI20
aI9
aI11
aF0.45
aF5.4
aF1.0
aF2.1
aF0.452
aF0.1
aF0.3
aF0.167
aF0.9
aF1.2
aF0.783
aF0.5
aF1.0
aF1.5
aF0.3
aF0.3
aF0.3
aF0.1
aF0.4
aF0.9
aF0.8
aF2.9
aF0.8
aI0
aI0
aI5
aV203963,1610612754
p1764
aa(lp1765
I202714
aVShelvin Mack
p1766
aI1610612737
aVATL
p1767
aF25.0
aI55
aI37
aI18
aF0.673
aF15.1
aF2.1
aF5.3
aF0.401
aF0.7
aF2.3
aF0.315
aF0.5
aF0.6
aF0.806
aF0.1
aF1.3
aF1.4
aF2.8
aF0.9
aF0.5
aF0.0
aF0.3
aF0.6
aF0.7
aF5.4
aF0.8
aI1
aI0
aI5
aV202714,1610612737
p1768
aa(lp1769
I204021
aVSim Bhullar
p1770
aI1610612758
aVSAC
p1771
aF22.0
aI3
aI1
aI2
aF0.333
aF0.9
aF0.3
aF0.7
aF0.5
aF0.0
aF0.0
aF0.0
aF0.0
aF0.0
aF0.0
aF0.0
aF0.3
aF0.3
aF0.3
aF0.0
aF0.0
aF0.3
aF0.0
aF0.0
aF0.0
aF0.7
aF0.3
aI0
aI0
aI5
aV204021,1610612758
p1772
aa(lp1773
I203524
aVSolomon Hill
p1774
aI1610612754
aVIND
p1775
aF24.0
aI82
aI38
aI44
aF0.463
aF29.0
aF3.1
aF7.7
aF0.396
aF0.8
aF2.5
aF0.327
aF1.9
aF2.4
aF0.824
aF0.9
aF3.0
aF3.8
aF2.2
aF1.4
aF0.8
aF0.2
aF0.7
aF2.2
aF2.0
aF8.9
aF-2.2
aI1
aI0
aI5
aV203524,1610612754
p1776
aa(lp1777
I203915
aVSpencer Dinwiddie
p1778
aI1610612765
aVDET
p1779
aF22.0
aI34
aI12
aI22
aF0.353
aF13.4
aF1.5
aF5.0
aF0.302
aF0.4
aF1.9
aF0.185
aF0.9
aF1.0
aF0.912
aF0.1
aF1.3
aF1.4
aF3.1
aF1.0
aF0.6
aF0.2
aF0.2
aF1.6
aF1.1
aF4.3
aF-2.1
aI1
aI0
aI5
aV203915,1610612765
p1780
aa(lp1781
I201150
aVSpencer Hawes
p1782
aI1610612746
aVLAC
p1783
aF27.0
aI73
aI52
aI21
aF0.712
aF17.5
aF2.2
aF5.7
aF0.393
aF0.8
aF2.4
aF0.313
aF0.6
aF0.9
aF0.647
aF0.4
aF3.1
aF3.5
aF1.2
aF0.8
aF0.3
aF0.7
aF0.4
aF2.4
aF1.0
aF5.8
aF-1.2
aI0
aI0
aI5
aV201150,1610612746
p1784
aa(lp1785
I201939
aVStephen Curry
p1786
aI1610612744
aVGSW
p1787
aF27.0
aI80
aI67
aI13
aF0.838
aF32.7
aF8.2
aF16.8
aF0.487
aF3.6
aF8.1
aF0.443
aF3.9
aF4.2
aF0.914
aF0.7
aF3.6
aF4.3
aF7.7
aF3.1
aF2.0
aF0.2
aF0.5
aF2.0
aF3.7
aF23.8
aF11.5
aI23
aI0
aI5
aV201939,1610612744
p1788
aa(lp1789
I2581
aVSteve Blake
p1790
aI1610612757
aVPOR
p1791
aF35.0
aI81
aI51
aI30
aF0.63
aF18.9
aF1.5
aF4.0
aF0.373
aF1.0
aF2.7
aF0.352
aF0.4
aF0.5
aF0.707
aF0.2
aF1.5
aF1.7
aF3.6
aF1.3
aF0.5
aF0.1
aF0.1
aF1.5
aF1.0
aF4.3
aF1.4
aI0
aI0
aI5
aV2581,1610612757
p1792
aa(lp1793
I200779
aVSteve Novak
p1794
aI1610612760
aVOKC
p1795
aF32.0
aI35
aI12
aI23
aF0.343
aF5.6
aF0.6
aF1.6
aF0.393
aF0.5
aF1.4
aF0.396
aF0.0
aF0.1
aF0.0
aF0.1
aF0.6
aF0.6
aF0.3
aF0.1
aF0.0
aF0.1
aF0.1
aF0.7
aF0.1
aF1.8
aF-1.5
aI0
aI0
aI5
aV200779,1610612760
p1796
aa(lp1797
I203500
aVSteven Adams
p1798
aI1610612760
aVOKC
p1799
aF21.0
aI70
aI37
aI33
aF0.529
aF25.3
aF3.1
aF5.7
aF0.544
aF0.0
aF0.0
aF0.0
aF1.5
aF2.9
aF0.502
aF2.8
aF4.6
aF7.5
aF0.9
aF1.4
aF0.5
aF1.2
aF0.4
aF3.2
aF2.7
aF7.7
aF0.6
aI10
aI0
aI5
aV203500,1610612760
p1800
aa(lp1801
I203933
aVTJ Warren
p1802
aI1610612756
aVPHX
p1803
aF21.0
aI40
aI17
aI23
aF0.425
aF15.4
aF2.8
aF5.4
aF0.528
aF0.1
aF0.5
aF0.238
aF0.4
aF0.5
aF0.737
aF1.0
aF1.1
aF2.1
aF0.6
aF0.7
aF0.5
aF0.2
aF0.2
aF1.3
aF0.6
aF6.1
aF-2.4
aI0
aI0
aI5
aV203933,1610612756
p1804
aa(lp1805
I201959
aVTaj Gibson
p1806
aI1610612741
aVCHI
p1807
aF30.0
aI62
aI38
aI24
aF0.613
aF27.3
aF4.1
aF8.2
aF0.502
aF0.0
aF0.0
aF0.0
aF2.1
aF3.0
aF0.717
aF2.6
aF3.8
aF6.4
aF1.1
aF1.2
aF0.6
aF1.2
aF0.9
aF2.6
aF2.6
aF10.3
aF0.7
aI8
aI0
aI5
aV201959,1610612741
p1808
aa(lp1809
I204028
aVTarik Black
p1810
aI1610612747
aVLAL
p1811
aF23.0
aI63
aI25
aI38
aF0.397
aF19.0
aF2.5
aF4.3
aF0.575
aF0.0
aF0.0
aF0.0
aF1.0
aF1.9
aF0.551
aF2.3
aF3.6
aF5.8
aF0.7
aF0.8
aF0.3
aF0.4
aF0.5
aF2.5
aF1.5
aF6.0
aF-1.2
aI5
aI0
aI5
aV204028,1610612747
p1812
aa(lp1813
I2419
aVTayshaun Prince
p1814
aI1610612765
aVDET
p1815
aF35.0
aI58
aI27
aI31
aF0.466
aF24.1
aF3.1
aF6.9
aF0.44
aF0.5
aF1.2
aF0.463
aF0.8
aF1.1
aF0.754
aF0.9
aF2.7
aF3.6
aF1.6
aF0.6
aF0.5
aF0.3
aF0.2
aF0.9
aF1.0
aF7.5
aF-2.2
aI0
aI0
aI5
aV2419,1610612765
p1816
aa(lp1817
I203093
aVTerrence Jones
p1818
aI1610612745
aVHOU
p1819
aF23.0
aI33
aI24
aI9
aF0.727
aF27.0
aF4.8
aF9.1
aF0.528
aF0.4
aF1.1
aF0.351
aF1.7
aF2.8
aF0.606
aF2.4
aF4.3
aF6.7
aF1.1
aF1.1
aF0.5
aF1.8
aF0.9
aF2.4
aF2.0
aF11.7
aF2.4
aI8
aI0
aI5
aV203093,1610612745
p1820
aa(lp1821
I203082
aVTerrence Ross
p1822
aI1610612761
aVTOR
p1823
aF24.0
aI82
aI49
aI33
aF0.598
aF25.5
aF3.8
aF9.2
aF0.41
aF1.8
aF4.8
aF0.372
aF0.5
aF0.7
aF0.786
aF0.4
aF2.4
aF2.8
aF1.0
aF0.8
aF0.6
aF0.3
aF0.4
aF1.7
aF0.6
aF9.8
aF0.5
aI0
aI0
aI5
aV203082,1610612761
p1824
aa(lp1825
I200757
aVThabo Sefolosha
p1826
aI1610612737
aVATL
p1827
aF31.0
aI52
aI43
aI9
aF0.827
aF18.8
aF2.0
aF4.8
aF0.418
aF0.5
aF1.5
aF0.321
aF0.9
aF1.1
aF0.776
aF1.0
aF3.3
aF4.3
aF1.4
aF0.7
aF1.0
aF0.4
aF0.3
aF1.3
aF0.9
aF5.3
aF3.3
aI1
aI0
aI5
aV200757,1610612737
p1828
aa(lp1829
I201152
aVThaddeus Young
p1830
aI1610612751
aVBKN
p1831
aF27.0
aI76
aI25
aI51
aF0.329
aF32.0
aF5.9
aF12.7
aF0.466
aF0.5
aF1.5
aF0.33
aF1.7
aF2.6
aF0.655
aF1.7
aF3.7
aF5.4
aF2.3
aF1.5
aF1.6
aF0.3
aF0.9
aF2.3
aF2.0
aF14.1
aF-2.8
aI3
aI0
aI5
aV201152,1610612751
p1832
aa(lp1833
I203080
aVThomas Robinson
p1834
aI1610612755
aVPHI
p1835
aF24.0
aI54
aI26
aI28
aF0.481
aF14.8
aF2.3
aF4.8
aF0.485
aF0.0
aF0.0
aF0.0
aF1.0
aF2.0
aF0.528
aF1.8
aF3.9
aF5.6
aF0.6
aF1.1
aF0.6
aF0.4
aF0.5
aF1.9
aF1.6
aF5.7
aF0.2
aI4
aI0
aI5
aV203080,1610612755
p1836
aa(lp1837
I201168
aVTiago Splitter
p1838
aI1610612759
aVSAS
p1839
aF30.0
aI52
aI34
aI18
aF0.654
aF19.8
aF3.3
aF5.8
aF0.558
aF0.0
aF0.0
aF0.0
aF1.7
aF2.3
aF0.75
aF1.8
aF3.1
aF4.8
aF1.5
aF1.2
aF0.7
aF0.7
aF0.5
aF2.0
aF2.1
aF8.2
aF4.5
aI1
aI0
aI5
aV201168,1610612759
p1840
aa(lp1841
I1495
aVTim Duncan
p1842
aI1610612759
aVSAS
p1843
aF39.0
aI77
aI53
aI24
aF0.688
aF28.9
aF5.4
aF10.6
aF0.512
aF0.0
aF0.1
aF0.286
aF3.0
aF4.0
aF0.74
aF2.2
aF6.9
aF9.1
aF3.0
aF1.7
aF0.8
aF2.0
aF0.9
aF2.1
aF3.1
aF13.9
aF4.0
aI33
aI1
aI5
aV1495,1610612759
p1844
aa(lp1845
I204025
aVTim Frazier
p1846
aI1610612757
aVPOR
p1847
aF24.0
aI11
aI3
aI8
aF0.273
aF21.8
aF1.9
aF5.5
aF0.344
aF0.5
aF1.5
aF0.294
aF0.9
aF1.9
aF0.476
aF0.5
aF2.0
aF2.5
aF5.5
aF2.3
aF0.7
aF0.0
aF0.2
aF2.4
aF2.0
aF5.2
aF-0.5
aI1
aI0
aI5
aV204025,1610612757
p1848
aa(lp1849
I203501
aVTim Hardaway Jr.
p1850
aI1610612752
aVNYK
p1851
aF23.0
aI70
aI16
aI54
aF0.229
aF24.0
aF4.0
aF10.2
aF0.389
aF1.7
aF5.1
aF0.342
aF1.8
aF2.2
aF0.801
aF0.2
aF2.1
aF2.2
aF1.8
aF1.2
aF0.3
aF0.2
aF0.6
aF1.7
aF2.0
aF11.5
aF-5.0
aI0
aI0
aI5
aV203501,1610612752
p1852
aa(lp1853
I202389
aVTimofey Mozgov
p1854
aI1610612739
aVCLE
p1855
aF28.0
aI81
aI49
aI32
aF0.605
aF25.3
aF3.9
aF7.0
aF0.555
aF0.0
aF0.1
aF0.333
aF1.9
aF2.7
aF0.718
aF2.5
aF4.8
aF7.3
aF0.7
aF1.4
aF0.4
aF1.2
aF0.7
aF2.8
aF2.4
aF9.7
aF3.2
aI18
aI0
aI5
aV202389,1610612739
p1856
aa(lp1857
I202699
aVTobias Harris
p1858
aI1610612753
aVORL
p1859
aF22.0
aI68
aI20
aI48
aF0.294
aF34.8
aF6.5
aF14.0
aF0.466
aF1.3
aF3.5
aF0.364
aF2.8
aF3.6
aF0.788
aF1.1
aF5.3
aF6.3
aF1.8
aF1.7
aF1.0
aF0.5
aF1.0
aF2.0
aF2.8
aF17.1
aF-4.3
aI11
aI0
aI5
aV202699,1610612753
p1860
aa(lp1861
I201962
aVToney Douglas
p1862
aI1610612740
aVNOP
p1863
aF29.0
aI12
aI7
aI5
aF0.583
aF14.7
aF1.6
aF4.3
aF0.373
aF0.4
aF1.5
aF0.278
aF0.7
aF1.1
aF0.615
aF0.2
aF1.7
aF1.8
aF2.0
aF0.8
aF0.9
aF0.3
aF0.1
aF1.7
aF0.8
aF4.3
aF0.7
aI0
aI0
aI5
aV201962,1610612740
p1864
aa(lp1865
I2754
aVTony Allen
p1866
aI1610612763
aVMEM
p1867
aF33.0
aI63
aI46
aI17
aF0.73
aF26.2
aF3.6
aF7.2
aF0.495
aF0.2
aF0.5
aF0.345
aF1.3
aF2.0
aF0.627
aF1.6
aF2.8
aF4.4
aF1.4
aF1.4
aF2.0
aF0.5
aF0.8
aF2.6
aF1.5
aF8.6
aF4.0
aI2
aI0
aI5
aV2754,1610612763
p1868
aa(lp1869
I2225
aVTony Parker
p1870
aI1610612759
aVSAS
p1871
aF33.0
aI68
aI48
aI20
aF0.706
aF28.7
aF5.9
aF12.2
aF0.486
aF0.6
aF1.3
aF0.427
aF1.9
aF2.4
aF0.783
aF0.2
aF1.7
aF1.9
aF4.9
aF2.1
aF0.6
aF0.0
aF0.7
aF1.6
aF2.2
aF14.4
aF2.9
aI1
aI0
aI5
aV2225,1610612759
p1872
aa(lp1873
I203503
aVTony Snell
p1874
aI1610612741
aVCHI
p1875
aF23.0
aI72
aI43
aI29
aF0.597
aF19.6
aF2.2
aF5.2
aF0.429
aF1.0
aF2.7
aF0.371
aF0.6
aF0.8
aF0.8
aF0.4
aF2.0
aF2.4
aF0.9
aF0.7
aF0.4
aF0.2
aF0.3
aF1.2
aF0.6
aF6.0
aF0.7
aI1
aI0
aI5
aV203503,1610612741
p1876
aa(lp1877
I203100
aVTony Wroten
p1878
aI1610612755
aVPHI
p1879
aF22.0
aI30
aI4
aI26
aF0.133
aF29.8
aF5.8
aF14.5
aF0.403
aF1.2
aF4.7
aF0.261
aF4.0
aF6.0
aF0.667
aF0.7
aF2.1
aF2.9
aF5.2
aF3.8
aF1.6
aF0.3
aF1.2
aF2.4
aF4.1
aF16.9
aF-7.8
aI2
aI0
aI5
aV203100,1610612755
p1880
aa(lp1881
I203315
aVToure Murry
p1882
aI1610612762
aVUTA
p1883
aF25.0
aI5
aI3
aI2
aF0.6
aF3.6
aF0.4
aF1.0
aF0.4
aF0.0
aF0.0
aF0.0
aF0.4
aF0.4
aF1.0
aF0.2
aF0.0
aF0.2
aF0.2
aF0.8
aF0.2
aF0.0
aF0.0
aF0.4
aF0.2
aF1.2
aF0.0
aI0
aI0
aI5
aV203315,1610612762
p1884
aa(lp1885
I204037
aVTravis Wear
p1886
aI1610612752
aVNYK
p1887
aF24.0
aI51
aI7
aI44
aF0.137
aF13.2
aF1.6
aF4.1
aF0.402
aF0.2
aF0.6
aF0.367
aF0.4
aF0.5
aF0.769
aF0.6
aF1.5
aF2.1
aF0.8
aF0.7
aF0.3
aF0.2
aF0.1
aF1.1
aF0.5
aF3.9
aF-1.6
aI0
aI0
aI5
aV204037,1610612752
p1888
aa(lp1889
I2772
aVTrevor Ariza
p1890
aI1610612745
aVHOU
p1891
aF29.0
aI82
aI56
aI26
aF0.683
aF35.7
aF4.5
aF11.1
aF0.402
aF2.4
aF6.8
aF0.35
aF1.5
aF1.7
aF0.853
aF0.9
aF4.7
aF5.6
aF2.5
aF1.7
aF1.9
aF0.2
aF0.4
aF2.3
aF1.5
aF12.8
aF2.9
aI3
aI0
aI5
aV2772,1610612745
p1892
aa(lp1893
I202344
aVTrevor Booker
p1894
aI1610612762
aVUTA
p1895
aF27.0
aI79
aI37
aI42
aF0.468
aF19.8
aF2.9
aF5.9
aF0.487
aF0.4
aF1.1
aF0.345
aF1.1
aF1.9
aF0.581
aF1.8
aF3.3
aF5.0
aF1.1
aF1.1
aF0.5
aF0.5
aF0.3
aF1.8
aF1.5
aF7.2
aF0.4
aI3
aI0
aI5
aV202344,1610612762
p1896
aa(lp1897
I203504
aVTrey Burke
p1898
aI1610612762
aVUTA
p1899
aF22.0
aI76
aI35
aI41
aF0.461
aF30.1
aF4.9
aF13.2
aF0.368
aF1.6
aF5.1
aF0.318
aF1.4
aF1.9
aF0.752
aF0.4
aF2.3
aF2.7
aF4.3
aF1.6
aF0.9
aF0.2
aF0.7
aF1.6
aF1.5
aF12.8
aF-0.6
aI3
aI0
aI5
aV203504,1610612762
p1900
aa(lp1901
I202684
aVTristan Thompson
p1902
aI1610612739
aVCLE
p1903
aF24.0
aI82
aI53
aI29
aF0.646
aF26.8
aF3.3
aF6.0
aF0.547
aF0.0
aF0.0
aF0.0
aF1.9
aF3.0
aF0.641
aF3.3
aF4.7
aF8.0
aF0.5
aF1.0
aF0.4
aF0.7
aF0.6
aF2.3
aF2.8
aF8.5
aF2.6
aI14
aI0
aI5
aV202684,1610612739
p1904
aa(lp1905
I203584
aVTroy Daniels
p1906
aI1610612766
aVCHA
p1907
aF23.0
aI47
aI15
aI32
aF0.319
aF8.5
aF1.3
aF3.5
aF0.37
aF0.9
aF2.5
aF0.364
aF0.2
aF0.3
aF0.846
aF0.2
aF0.5
aF0.7
aF0.5
aF0.4
aF0.1
aF0.0
aF0.2
aF0.9
aF0.4
aF3.7
aF-1.8
aI0
aI0
aI5
aV203584,1610612766
p1908
aa(lp1909
I201951
aVTy Lawson
p1910
aI1610612743
aVDEN
p1911
aF27.0
aI75
aI29
aI46
aF0.387
aF35.5
aF5.4
aF12.3
aF0.436
aF0.9
aF2.7
aF0.341
aF3.5
aF4.8
aF0.73
aF0.6
aF2.6
aF3.1
aF9.6
aF2.5
aF1.2
aF0.1
aF0.8
aF1.7
aF3.8
aF15.2
aF-0.4
aI28
aI0
aI5
aV201951,1610612743
p1912
aa(lp1913
I203898
aVTyler Ennis
p1914
aI1610612749
aVMIL
p1915
aF20.0
aI33
aI11
aI22
aF0.333
aF12.5
aF1.6
aF4.4
aF0.361
aF0.4
aF1.3
aF0.279
aF0.2
aF0.2
aF0.714
aF0.2
aF0.8
aF1.1
aF2.2
aF1.3
aF0.5
aF0.2
aF0.2
aF1.1
aF0.6
aF3.7
aF-1.9
aI0
aI0
aI5
aV203898,1610612749
p1916
aa(lp1917
I201946
aVTyler Hansbrough
p1918
aI1610612761
aVTOR
p1919
aF29.0
aI74
aI45
aI29
aF0.608
aF14.3
aF1.2
aF2.2
aF0.521
aF0.0
aF0.1
aF0.143
aF1.3
aF1.9
aF0.698
aF1.4
aF2.1
aF3.6
aF0.3
aF0.3
aF0.4
aF0.2
aF0.2
aF1.9
aF1.8
aF3.6
aF2.6
aI2
aI0
aI5
aV201946,1610612761
p1920
aa(lp1921
I204020
aVTyler Johnson
p1922
aI1610612748
aVMIA
p1923
aF23.0
aI32
aI15
aI17
aF0.469
aF18.8
aF2.2
aF5.2
aF0.419
aF0.6
aF1.5
aF0.375
aF1.0
aF1.5
aF0.681
aF0.4
aF2.1
aF2.5
aF1.3
aF0.9
aF1.0
aF0.3
aF0.3
aF1.3
aF1.2
aF5.9
aF-2.0
aI1
aI0
aI5
aV204020,1610612748
p1924
aa(lp1925
I203092
aVTyler Zeller
p1926
aI1610612738
aVBOS
p1927
aF25.0
aI82
aI40
aI42
aF0.488
aF21.1
aF4.1
aF7.5
aF0.549
aF0.0
aF0.0
aF0.0
aF1.9
aF2.3
aF0.823
aF1.8
aF3.9
aF5.7
aF1.4
aF0.9
aF0.2
aF0.6
aF0.7
aF2.5
aF2.2
aF10.2
aF-1.4
aI3
aI0
aI5
aV203092,1610612738
p1928
aa(lp1929
I201936
aVTyreke Evans
p1930
aI1610612740
aVNOP
p1931
aF25.0
aI79
aI43
aI36
aF0.544
aF34.0
aF6.6
aF14.7
aF0.447
aF0.9
aF2.9
aF0.304
aF2.6
aF3.7
aF0.694
aF1.0
aF4.2
aF5.3
aF6.6
aF3.1
aF1.3
aF0.5
aF1.4
aF2.5
aF3.0
aF16.6
aF2.1
aI18
aI1
aI5
aV201936,1610612740
p1932
aa(lp1933
I200748
aVTyrus Thomas
p1934
aI1610612763
aVMEM
p1935
aF28.0
aI2
aI2
aI0
aF1.0
aF3.3
aF0.5
aF0.5
aF1.0
aF0.0
aF0.0
aF0.0
aF1.0
aF1.0
aF1.0
aF0.0
aF0.0
aF0.0
aF0.5
aF0.0
aF0.0
aF0.0
aF0.0
aF0.0
aF0.5
aF2.0
aF0.5
aI0
aI0
aI5
aV200748,1610612763
p1936
aa(lp1937
I2199
aVTyson Chandler
p1938
aI1610612742
aVDAL
p1939
aF32.0
aI75
aI47
aI28
aF0.627
aF30.5
aF3.9
aF5.9
aF0.666
aF0.0
aF0.0
aF0.0
aF2.5
aF3.4
aF0.72
aF3.9
aF7.6
aF11.5
aF1.1
aF1.4
aF0.6
aF1.2
aF0.4
aF2.3
aF3.3
aF10.3
aF3.1
aI31
aI0
aI5
aV2199,1610612742
p1940
aa(lp1941
I2617
aVUdonis Haslem
p1942
aI1610612748
aVMIA
p1943
aF35.0
aI62
aI31
aI31
aF0.5
aF16.0
aF1.7
aF3.9
aF0.448
aF0.0
aF0.2
aF0.2
aF0.7
aF1.0
aF0.703
aF1.1
aF3.0
aF4.2
aF0.7
aF0.7
aF0.3
aF0.2
aF0.4
aF1.8
aF1.2
aF4.2
aF-2.5
aI3
aI0
aI5
aV2617,1610612748
p1944
aa(lp1945
I203505
aVVander Blue
p1946
aI1610612747
aVLAL
p1947
aF22.0
aI2
aI0
aI2
aF0.0
aF36.9
aF4.5
aF15.0
aF0.3
aF1.0
aF5.0
aF0.2
aF1.0
aF2.5
aF0.4
aF1.0
aF3.5
aF4.5
aF4.0
aF3.0
aF1.5
aF0.0
aF1.0
aF2.0
aF1.5
aF11.0
aF-19.0
aI0
aI0
aI5
aV203505,1610612747
p1948
aa(lp1949
I201964
aVVictor Claver
p1950
aI1610612757
aVPOR
p1951
aF26.0
aI10
aI6
aI4
aF0.6
aF7.6
aF0.9
aF2.0
aF0.45
aF0.6
aF1.1
aF0.545
aF0.0
aF0.0
aF0.0
aF0.3
aF1.7
aF2.0
aF0.1
aF0.4
aF0.1
aF0.1
aF0.2
aF1.2
aF0.5
aF2.4
aF2.1
aI0
aI0
aI5
aV201964,1610612757
p1952
aa(lp1953
I203506
aVVictor Oladipo
p1954
aI1610612753
aVORL
p1955
aF23.0
aI72
aI22
aI50
aF0.306
aF35.7
aF6.6
aF15.1
aF0.436
aF1.2
aF3.4
aF0.339
aF3.6
aF4.4
aF0.819
aF0.7
aF3.5
aF4.2
aF4.1
aF2.8
aF1.7
aF0.3
aF1.3
aF2.6
aF3.6
aF17.9
aF-4.2
aI3
aI0
aI5
aV203506,1610612753
p1956
aa(lp1957
I1713
aVVince Carter
p1958
aI1610612763
aVMEM
p1959
aF38.0
aI66
aI45
aI21
aF0.682
aF16.5
aF2.0
aF6.2
aF0.333
aF1.0
aF3.5
aF0.297
aF0.7
aF0.9
aF0.789
aF0.4
aF1.6
aF2.0
aF1.2
aF0.7
aF0.7
aF0.2
aF0.2
aF1.5
aF1.1
aF5.8
aF0.5
aI0
aI0
aI5
aV1713,1610612763
p1960
aa(lp1961
I201961
aVWayne Ellington
p1962
aI1610612747
aVLAL
p1963
aF27.0
aI65
aI18
aI47
aF0.277
aF25.8
aF3.9
aF9.5
aF0.412
aF1.4
aF3.7
aF0.37
aF0.8
aF1.0
aF0.813
aF0.5
aF2.8
aF3.2
aF1.6
aF0.8
aF0.5
aF0.0
aF0.5
aF1.2
aF1.2
aF10.0
aF-1.9
aI1
aI0
aI5
aV201961,1610612747
p1964
aa(lp1965
I202325
aVWesley Johnson
p1966
aI1610612747
aVLAL
p1967
aF27.0
aI76
aI20
aI56
aF0.263
aF29.5
aF3.8
aF9.1
aF0.414
aF1.2
aF3.4
aF0.351
aF1.2
aF1.5
aF0.804
aF0.9
aF3.3
aF4.2
aF1.6
aF1.1
aF0.8
aF0.6
aF0.2
aF2.1
aF1.2
aF9.9
aF-4.1
aI3
aI0
aI5
aV202325,1610612747
p1968
aa(lp1969
I202083
aVWesley Matthews
p1970
aI1610612757
aVPOR
p1971
aF28.0
aI60
aI41
aI19
aF0.683
aF33.7
aF5.6
aF12.5
aF0.448
aF2.9
aF7.4
aF0.389
aF1.8
aF2.4
aF0.752
aF0.6
aF3.1
aF3.7
aF2.3
aF1.4
aF1.3
aF0.2
aF0.4
aF2.2
aF2.7
aF15.9
aF4.6
aI0
aI0
aI5
aV202083,1610612757
p1972
aa(lp1973
I203115
aVWill Barton
p1974
aI1610612743
aVDEN
p1975
aF24.0
aI58
aI30
aI28
aF0.517
aF17.0
aF2.6
aF6.1
aF0.425
aF0.4
aF1.5
aF0.271
aF1.3
aF1.6
aF0.787
aF0.4
aF2.3
aF2.8
aF1.4
aF1.1
aF0.8
aF0.3
aF0.6
aF1.2
aF1.2
aF6.8
aF-0.5
aI2
aI0
aI5
aV203115,1610612743
p1976
aa(lp1977
I101198
aVWill Bynum
p1978
aI1610612764
aVWAS
p1979
aF32.0
aI7
aI4
aI3
aF0.571
aF9.5
aF1.4
aF4.4
aF0.323
aF0.0
aF1.3
aF0.0
aF0.3
aF0.6
aF0.5
aF0.3
aF0.6
aF0.9
aF2.6
aF1.1
aF0.1
aF0.1
aF0.3
aF1.3
aF0.7
aF3.1
aF-7.1
aI0
aI0
aI5
aV101198,1610612764
p1980
aa(lp1981
I203805
aVWill Cherry
p1982
aI1610612761
aVTOR
p1983
aF24.0
aI8
aI6
aI2
aF0.75
aF8.7
aF0.6
aF2.4
aF0.263
aF0.3
aF1.1
aF0.222
aF0.4
aF0.8
aF0.5
aF0.1
aF0.5
aF0.6
aF1.0
aF0.5
aF0.8
aF0.1
aF0.3
aF1.3
aF0.5
aF1.9
aF-0.9
aI0
aI0
aI5
aV203805,1610612761
p1984
aa(lp1985
I2584
aVWillie Green
p1986
aI1610612753
aVORL
p1987
aF33.0
aI52
aI15
aI37
aF0.288
aF18.3
aF2.3
aF5.9
aF0.386
aF0.8
aF2.3
aF0.347
aF0.5
aF0.7
aF0.824
aF0.3
aF1.3
aF1.5
aF1.3
aF0.9
aF0.5
aF0.1
aF0.2
aF1.6
aF0.8
aF5.9
aF-1.7
aI0
aI0
aI5
aV2584,1610612753
p1988
aa(lp1989
I201163
aVWilson Chandler
p1990
aI1610612743
aVDEN
p1991
aF28.0
aI78
aI28
aI50
aF0.359
aF31.7
aF5.4
aF12.5
aF0.429
aF1.8
aF5.2
aF0.342
aF1.4
aF1.8
aF0.775
aF1.2
aF4.9
aF6.1
aF1.7
aF1.4
aF0.7
aF0.4
aF0.6
aF3.0
aF1.6
aF13.9
aF-2.8
aI8
aI0
aI5
aV201163,1610612743
p1992
aa(lp1993
I202333
aVXavier Henry
p1994
aI1610612747
aVLAL
p1995
aF24.0
aI9
aI1
aI8
aF0.111
aF9.5
aF0.3
aF1.4
aF0.231
aF0.0
aF0.0
aF0.0
aF1.6
aF2.7
aF0.583
aF0.2
aF0.2
aF0.4
aF0.3
aF0.3
aF0.3
aF0.0
aF0.0
aF0.7
aF1.8
aF2.2
aF1.6
aI0
aI0
aI5
aV202333,1610612747
p1996
aa(lp1997
I203897
aVZach LaVine
p1998
aI1610612750
aVMIN
p1999
aF20.0
aI77
aI15
aI62
aF0.195
aF24.7
aF3.7
aF8.8
aF0.422
aF0.7
aF2.2
aF0.341
aF1.9
aF2.3
aF0.842
aF0.4
aF2.4
aF2.8
aF3.6
aF2.5
aF0.7
aF0.1
aF0.5
aF2.1
aF1.8
aF10.1
aF-7.0
aI4
aI0
aI5
aV203897,1610612750
p2000
aa(lp2001
I2216
aVZach Randolph
p2002
aI1610612763
aVMEM
p2003
aF33.0
aI71
aI51
aI20
aF0.718
aF32.4
aF6.4
aF13.1
aF0.487
aF0.1
aF0.3
aF0.35
aF3.2
aF4.2
aF0.765
aF3.2
aF7.4
aF10.5
aF2.2
aF2.2
aF1.0
aF0.2
aF1.2
aF2.5
aF4.1
aF16.1
aF4.8
aI38
aI0
aI5
aV2216,1610612763
p2004
aa(lp2005
I2585
aVZaza Pachulia
p2006
aI1610612749
aVMIL
p2007
aF31.0
aI73
aI34
aI39
aF0.466
aF23.7
aF3.3
aF7.2
aF0.454
aF0.0
aF0.0
aF0.0
aF1.7
aF2.2
aF0.788
aF2.7
aF4.2
aF6.8
aF2.4
aF1.8
aF1.1
aF0.3
aF0.5
aF2.3
aF2.2
aF8.3
aF3.6
aI15
aI0
aI5
aV2585,1610612749
p2008
aa(lp2009
I204054
aVZoran Dragic
p2010
aI1610612748
aVMIA
p2011
aF26.0
aI16
aI6
aI10
aF0.375
aF4.7
aF0.7
aF1.9
aF0.367
aF0.2
aF0.9
aF0.214
aF0.2
aF0.3
aF0.6
aF0.3
aF0.2
aF0.5
aF0.3
aF0.3
aF0.1
aF0.0
aF0.1
aF0.4
aF0.5
aF1.8
aF-0.9
aI0
aI0
aI5
aV204054,1610612748
p2012
aasVname
p2013
VLeagueDashPlayerStats
p2014
sasVparameters
p2015
(dp2016
VConference
p2017
NsVPlusMinus
p2018
VN
p2019
sVGameScope
p2020
NsVTeamID
p2021
I0
sVHeight
p2022
NsVLocation
p2023
NsVStarterBench
p2024
NsVShotClockRange
p2025
NsVSeasonType
p2026
VRegular Season
p2027
sVDivision
p2028
NsVSeason
p2029
V2014-15
p2030
sVPaceAdjust
p2031
VN
p2032
sVDraftYear
p2033
NsVDateFrom
p2034
NsVPlayerPosition
p2035
NsVCountry
p2036
NsVVsConference
p2037
NsVOpponentTeamID
p2038
I0
sVDateTo
p2039
NsVGameSegment
p2040
NsVDraftPick
p2041
NsVLastNGames
p2042
I0
sVPlayerExperience
p2043
NsVVsDivision
p2044
NsVLeagueID
p2045
V00
p2046
sVOutcome
p2047
NsVMeasureType
p2048
VBase
p2049
sVWeight
p2050
NsVPORound
p2051
I0
sVPerMode
p2052
VPerGame
p2053
sVSeasonSegment
p2054
NsVPeriod
p2055
I0
sVRank
p2056
VN
p2057
sVMonth
p2058
I0
sVCollege
p2059
Nss.